; ModuleID = 'gen/third_party/blink/renderer/bindings/core/v8/v8_underlying_sink_base.cc'
source_filename = "gen/third_party/blink/renderer/bindings/core/v8/v8_underlying_sink_base.cc"
target datalayout = "e-m:e-i64:64-f80:128-n8:16:32:64-S128"
target triple = "x86_64-unknown-linux-gnu"

module asm ".symver exp, exp@GLIBC_2.2.5"
module asm ".symver exp2, exp2@GLIBC_2.2.5"
module asm ".symver exp2f, exp2f@GLIBC_2.2.5"
module asm ".symver expf, expf@GLIBC_2.2.5"
module asm ".symver lgamma, lgamma@GLIBC_2.2.5"
module asm ".symver lgammaf, lgammaf@GLIBC_2.2.5"
module asm ".symver lgammal, lgammal@GLIBC_2.2.5"
module asm ".symver log, log@GLIBC_2.2.5"
module asm ".symver log2, log2@GLIBC_2.2.5"
module asm ".symver log2f, log2f@GLIBC_2.2.5"
module asm ".symver logf, logf@GLIBC_2.2.5"
module asm ".symver pow, pow@GLIBC_2.2.5"
module asm ".symver powf, powf@GLIBC_2.2.5"

%"struct.blink::WrapperTypeInfo" = type { i16, void (%"class.v8::Isolate"*, %"class.blink::DOMWrapperWorld"*, %"class.v8::Template"*)*, void (%"class.v8::Context"*, %"class.blink::DOMWrapperWorld"*, %"class.v8::Object"*, %"class.v8::Object"*, %"class.v8::Object"*, %"class.v8::Template"*, i64)*, i8*, %"struct.blink::WrapperTypeInfo"*, i8 }
%"class.v8::Isolate" = type { i8 }
%"class.blink::DOMWrapperWorld" = type { %"class.WTF::RefCounted", i32, i32, %"class.blink::Persistent" }
%"class.WTF::RefCounted" = type { %"class.base::RefCounted" }
%"class.base::RefCounted" = type { %"class.base::subtle::RefCountedBase" }
%"class.base::subtle::RefCountedBase" = type { i32 }
%"class.blink::Persistent" = type { %"class.blink::PersistentBase" }
%"class.blink::PersistentBase" = type { %"class.blink::DOMDataStore"*, %"class.blink::PersistentNodePtr" }
%"class.blink::DOMDataStore" = type { i32 (...)**, i8, [7 x i8], %"class.blink::HeapHashMap" }
%"class.blink::HeapHashMap" = type { %"class.WTF::HashMap" }
%"class.WTF::HashMap" = type { %"class.WTF::HashTable" }
%"class.WTF::HashTable" = type <{ %"struct.WTF::KeyValuePair"*, i32, i32, i32, [4 x i8] }>
%"struct.WTF::KeyValuePair" = type { %"class.blink::WeakMember", %"class.blink::TraceWrapperV8Reference" }
%"class.blink::WeakMember" = type { %"class.blink::MemberBase" }
%"class.blink::MemberBase" = type { %"class.blink::ScriptWrappable"* }
%"class.blink::ScriptWrappable" = type { %"class.blink::NameClient", %"class.blink::TraceWrapperV8Reference" }
%"class.blink::NameClient" = type { i32 (...)** }
%"class.blink::TraceWrapperV8Reference" = type { %"class.v8::TracedReference" }
%"class.v8::TracedReference" = type { %"class.v8::BasicTracedReference" }
%"class.v8::BasicTracedReference" = type { %"class.v8::TracedReferenceBase" }
%"class.v8::TracedReferenceBase" = type { i64* }
%"class.blink::PersistentNodePtr" = type { %"class.blink::PersistentNode"* }
%"class.blink::PersistentNode" = type { i8*, void (%"class.blink::Visitor"*, i8*)* }
%"class.blink::Visitor" = type { i32 (...)**, %"class.blink::ThreadState"* }
%"class.blink::ThreadState" = type <{ %"class.std::__1::unique_ptr", i32, [4 x i8], %"class.std::__1::unique_ptr.127", %"class.std::__1::unique_ptr.127", i8**, i8, i8, i8, i8, i8, i8, [2 x i8], i64, i64, i32, i32, i32, [4 x i8], %"class.WTF::Deque", %"class.v8::Isolate"*, void (%"class.v8::Isolate"*, %"class.v8::EmbedderGraph"*, i8*)*, %"class.std::__1::unique_ptr.137", %"class.std::__1::unique_ptr.143", %"struct.blink::ThreadState::GCData", %"class.std::__1::unique_ptr.155", %"class.std::__1::unique_ptr.161", %"class.base::JobHandle", %"class.base::JobHandle", %"struct.std::__1::atomic.167", [7 x i8], i64, i8, [7 x i8], i64, %"class.base::TimeTicks", i8, i8, [6 x i8] }>
%"class.std::__1::unique_ptr" = type { %"class.std::__1::__compressed_pair" }
%"class.std::__1::__compressed_pair" = type { %"struct.std::__1::__compressed_pair_elem" }
%"struct.std::__1::__compressed_pair_elem" = type { %"class.blink::ThreadHeap"* }
%"class.blink::ThreadHeap" = type { %"class.blink::ThreadState"*, %"class.std::__1::unique_ptr.4", %"class.std::__1::unique_ptr.8", %"class.std::__1::unique_ptr.14", %"class.std::__1::unique_ptr.20", %"class.std::__1::unique_ptr.26", %"class.std::__1::unique_ptr.32", %"class.std::__1::unique_ptr.39", %"class.std::__1::unique_ptr.46", %"class.std::__1::unique_ptr.46", %"class.std::__1::unique_ptr.53", %"class.std::__1::unique_ptr.60", %"class.std::__1::unique_ptr.67", %"class.std::__1::unique_ptr.67", %"class.std::__1::unique_ptr.74", %"class.std::__1::unique_ptr.81", %"class.std::__1::unique_ptr.88", %"class.std::__1::unique_ptr.111", %"struct.blink::ThreadHeap::LastAllocatedRegion", [9 x %"class.blink::BaseArena"*], i64, i64 }
%"class.std::__1::unique_ptr.4" = type { %"class.std::__1::__compressed_pair.5" }
%"class.std::__1::__compressed_pair.5" = type { %"struct.std::__1::__compressed_pair_elem.6" }
%"struct.std::__1::__compressed_pair_elem.6" = type { %"class.blink::ThreadHeapStatsCollector"* }
%"class.blink::ThreadHeapStatsCollector" = type opaque
%"class.std::__1::unique_ptr.8" = type { %"class.std::__1::__compressed_pair.9" }
%"class.std::__1::__compressed_pair.9" = type { %"struct.std::__1::__compressed_pair_elem.10" }
%"struct.std::__1::__compressed_pair_elem.10" = type { %"class.blink::RegionTree"* }
%"class.blink::RegionTree" = type opaque
%"class.std::__1::unique_ptr.14" = type { %"class.std::__1::__compressed_pair.15" }
%"class.std::__1::__compressed_pair.15" = type { %"struct.std::__1::__compressed_pair_elem.16" }
%"struct.std::__1::__compressed_pair_elem.16" = type { %"class.blink::PageBloomFilter"* }
%"class.blink::PageBloomFilter" = type opaque
%"class.std::__1::unique_ptr.20" = type { %"class.std::__1::__compressed_pair.21" }
%"class.std::__1::__compressed_pair.21" = type { %"struct.std::__1::__compressed_pair_elem.22" }
%"struct.std::__1::__compressed_pair_elem.22" = type { %"class.blink::PagePool"* }
%"class.blink::PagePool" = type opaque
%"class.std::__1::unique_ptr.26" = type { %"class.std::__1::__compressed_pair.27" }
%"class.std::__1::__compressed_pair.27" = type { %"struct.std::__1::__compressed_pair_elem.28" }
%"struct.std::__1::__compressed_pair_elem.28" = type { %"class.blink::ProcessHeapReporter"* }
%"class.blink::ProcessHeapReporter" = type opaque
%"class.std::__1::unique_ptr.32" = type { %"class.std::__1::__compressed_pair.33" }
%"class.std::__1::__compressed_pair.33" = type { %"struct.std::__1::__compressed_pair_elem.34" }
%"struct.std::__1::__compressed_pair_elem.34" = type { %"class.blink::Worklist"* }
%"class.blink::Worklist" = type { [4 x %"struct.blink::Worklist<blink::TraceDescriptor, 512, 4>::PrivateSegmentHolder"], %"class.blink::Worklist<blink::TraceDescriptor, 512, 4>::GlobalPool" }
%"struct.blink::Worklist<blink::TraceDescriptor, 512, 4>::PrivateSegmentHolder" = type { %"class.blink::Worklist<blink::TraceDescriptor, 512, 4>::Segment"*, %"class.blink::Worklist<blink::TraceDescriptor, 512, 4>::Segment"*, [64 x i8] }
%"class.blink::Worklist<blink::TraceDescriptor, 512, 4>::Segment" = type { %"class.blink::Worklist<blink::TraceDescriptor, 512, 4>::Segment"*, i64, [512 x %"struct.blink::TraceDescriptor"] }
%"struct.blink::TraceDescriptor" = type { i8*, void (%"class.blink::Visitor"*, i8*)* }
%"class.blink::Worklist<blink::TraceDescriptor, 512, 4>::GlobalPool" = type { %"class.base::Lock", %"class.blink::Worklist<blink::TraceDescriptor, 512, 4>::Segment"*, %"struct.std::__1::atomic" }
%"class.base::Lock" = type { %"class.base::internal::LockImpl" }
%"class.base::internal::LockImpl" = type { %union.pthread_mutex_t }
%union.pthread_mutex_t = type { %struct.__pthread_mutex_s }
%struct.__pthread_mutex_s = type { i32, i32, i32, i32, i32, i16, i16, %struct.__pthread_internal_list }
%struct.__pthread_internal_list = type { %struct.__pthread_internal_list*, %struct.__pthread_internal_list* }
%"struct.std::__1::atomic" = type { %"struct.std::__1::__atomic_base" }
%"struct.std::__1::__atomic_base" = type { %"struct.std::__1::__atomic_base.35" }
%"struct.std::__1::__atomic_base.35" = type { %"struct.std::__1::__cxx_atomic_impl" }
%"struct.std::__1::__cxx_atomic_impl" = type { %"struct.std::__1::__cxx_atomic_base_impl" }
%"struct.std::__1::__cxx_atomic_base_impl" = type { i64 }
%"class.std::__1::unique_ptr.39" = type { %"class.std::__1::__compressed_pair.40" }
%"class.std::__1::__compressed_pair.40" = type { %"struct.std::__1::__compressed_pair_elem.41" }
%"struct.std::__1::__compressed_pair_elem.41" = type { %"class.blink::Worklist.42"* }
%"class.blink::Worklist.42" = type { [4 x %"struct.blink::Worklist<blink::HeapObjectHeader *, 64, 4>::PrivateSegmentHolder"], %"class.blink::Worklist<blink::HeapObjectHeader *, 64, 4>::GlobalPool" }
%"struct.blink::Worklist<blink::HeapObjectHeader *, 64, 4>::PrivateSegmentHolder" = type { %"class.blink::Worklist<blink::HeapObjectHeader *, 64, 4>::Segment"*, %"class.blink::Worklist<blink::HeapObjectHeader *, 64, 4>::Segment"*, [64 x i8] }
%"class.blink::Worklist<blink::HeapObjectHeader *, 64, 4>::Segment" = type opaque
%"class.blink::Worklist<blink::HeapObjectHeader *, 64, 4>::GlobalPool" = type { %"class.base::Lock", %"class.blink::Worklist<blink::HeapObjectHeader *, 64, 4>::Segment"*, %"struct.std::__1::atomic" }
%"class.std::__1::unique_ptr.46" = type { %"class.std::__1::__compressed_pair.47" }
%"class.std::__1::__compressed_pair.47" = type { %"struct.std::__1::__compressed_pair_elem.48" }
%"struct.std::__1::__compressed_pair_elem.48" = type { %"class.blink::Worklist.49"* }
%"class.blink::Worklist.49" = type { [4 x %"struct.blink::Worklist<const void *, 16, 4>::PrivateSegmentHolder"], %"class.blink::Worklist<const void *, 16, 4>::GlobalPool" }
%"struct.blink::Worklist<const void *, 16, 4>::PrivateSegmentHolder" = type { %"class.blink::Worklist<const void *, 16, 4>::Segment"*, %"class.blink::Worklist<const void *, 16, 4>::Segment"*, [64 x i8] }
%"class.blink::Worklist<const void *, 16, 4>::Segment" = type { %"class.blink::Worklist<const void *, 16, 4>::Segment"*, i64, [16 x i8*] }
%"class.blink::Worklist<const void *, 16, 4>::GlobalPool" = type { %"class.base::Lock", %"class.blink::Worklist<const void *, 16, 4>::Segment"*, %"struct.std::__1::atomic" }
%"class.std::__1::unique_ptr.53" = type { %"class.std::__1::__compressed_pair.54" }
%"class.std::__1::__compressed_pair.54" = type { %"struct.std::__1::__compressed_pair_elem.55" }
%"struct.std::__1::__compressed_pair_elem.55" = type { %"class.blink::Worklist.56"* }
%"class.blink::Worklist.56" = type { [4 x %"struct.blink::Worklist<blink::CustomCallbackItem, 64, 4>::PrivateSegmentHolder"], %"class.blink::Worklist<blink::CustomCallbackItem, 64, 4>::GlobalPool" }
%"struct.blink::Worklist<blink::CustomCallbackItem, 64, 4>::PrivateSegmentHolder" = type { %"class.blink::Worklist<blink::CustomCallbackItem, 64, 4>::Segment"*, %"class.blink::Worklist<blink::CustomCallbackItem, 64, 4>::Segment"*, [64 x i8] }
%"class.blink::Worklist<blink::CustomCallbackItem, 64, 4>::Segment" = type opaque
%"class.blink::Worklist<blink::CustomCallbackItem, 64, 4>::GlobalPool" = type { %"class.base::Lock", %"class.blink::Worklist<blink::CustomCallbackItem, 64, 4>::Segment"*, %"struct.std::__1::atomic" }
%"class.std::__1::unique_ptr.60" = type { %"class.std::__1::__compressed_pair.61" }
%"class.std::__1::__compressed_pair.61" = type { %"struct.std::__1::__compressed_pair_elem.62" }
%"struct.std::__1::__compressed_pair_elem.62" = type { %"class.blink::Worklist.63"* }
%"class.blink::Worklist.63" = type { [4 x %"struct.blink::Worklist<const void *const *, 256, 4>::PrivateSegmentHolder"], %"class.blink::Worklist<const void *const *, 256, 4>::GlobalPool" }
%"struct.blink::Worklist<const void *const *, 256, 4>::PrivateSegmentHolder" = type { %"class.blink::Worklist<const void *const *, 256, 4>::Segment"*, %"class.blink::Worklist<const void *const *, 256, 4>::Segment"*, [64 x i8] }
%"class.blink::Worklist<const void *const *, 256, 4>::Segment" = type opaque
%"class.blink::Worklist<const void *const *, 256, 4>::GlobalPool" = type { %"class.base::Lock", %"class.blink::Worklist<const void *const *, 256, 4>::Segment"*, %"struct.std::__1::atomic" }
%"class.std::__1::unique_ptr.67" = type { %"class.std::__1::__compressed_pair.68" }
%"class.std::__1::__compressed_pair.68" = type { %"struct.std::__1::__compressed_pair_elem.69" }
%"struct.std::__1::__compressed_pair_elem.69" = type { %"class.blink::Worklist.70"* }
%"class.blink::Worklist.70" = type { [4 x %"struct.blink::Worklist<blink::EphemeronPairItem, 64, 4>::PrivateSegmentHolder"], %"class.blink::Worklist<blink::EphemeronPairItem, 64, 4>::GlobalPool" }
%"struct.blink::Worklist<blink::EphemeronPairItem, 64, 4>::PrivateSegmentHolder" = type { %"class.blink::Worklist<blink::EphemeronPairItem, 64, 4>::Segment"*, %"class.blink::Worklist<blink::EphemeronPairItem, 64, 4>::Segment"*, [64 x i8] }
%"class.blink::Worklist<blink::EphemeronPairItem, 64, 4>::Segment" = type opaque
%"class.blink::Worklist<blink::EphemeronPairItem, 64, 4>::GlobalPool" = type { %"class.base::Lock", %"class.blink::Worklist<blink::EphemeronPairItem, 64, 4>::Segment"*, %"struct.std::__1::atomic" }
%"class.std::__1::unique_ptr.74" = type { %"class.std::__1::__compressed_pair.75" }
%"class.std::__1::__compressed_pair.75" = type { %"struct.std::__1::__compressed_pair_elem.76" }
%"struct.std::__1::__compressed_pair_elem.76" = type { %"class.blink::Worklist.77"* }
%"class.blink::Worklist.77" = type { [4 x %"struct.blink::Worklist<const blink::TraceWrapperV8Reference<v8::Value> *, 16, 4>::PrivateSegmentHolder"], %"class.blink::Worklist<const blink::TraceWrapperV8Reference<v8::Value> *, 16, 4>::GlobalPool" }
%"struct.blink::Worklist<const blink::TraceWrapperV8Reference<v8::Value> *, 16, 4>::PrivateSegmentHolder" = type { %"class.blink::Worklist<const blink::TraceWrapperV8Reference<v8::Value> *, 16, 4>::Segment"*, %"class.blink::Worklist<const blink::TraceWrapperV8Reference<v8::Value> *, 16, 4>::Segment"*, [64 x i8] }
%"class.blink::Worklist<const blink::TraceWrapperV8Reference<v8::Value> *, 16, 4>::Segment" = type opaque
%"class.blink::Worklist<const blink::TraceWrapperV8Reference<v8::Value> *, 16, 4>::GlobalPool" = type { %"class.base::Lock", %"class.blink::Worklist<const blink::TraceWrapperV8Reference<v8::Value> *, 16, 4>::Segment"*, %"struct.std::__1::atomic" }
%"class.std::__1::unique_ptr.81" = type { %"class.std::__1::__compressed_pair.82" }
%"class.std::__1::__compressed_pair.82" = type { %"struct.std::__1::__compressed_pair_elem.83" }
%"struct.std::__1::__compressed_pair_elem.83" = type { %"class.blink::Worklist.84"* }
%"class.blink::Worklist.84" = type { [4 x %"struct.blink::Worklist<blink::NotSafeToConcurrentlyTraceItem, 64, 4>::PrivateSegmentHolder"], %"class.blink::Worklist<blink::NotSafeToConcurrentlyTraceItem, 64, 4>::GlobalPool" }
%"struct.blink::Worklist<blink::NotSafeToConcurrentlyTraceItem, 64, 4>::PrivateSegmentHolder" = type { %"class.blink::Worklist<blink::NotSafeToConcurrentlyTraceItem, 64, 4>::Segment"*, %"class.blink::Worklist<blink::NotSafeToConcurrentlyTraceItem, 64, 4>::Segment"*, [64 x i8] }
%"class.blink::Worklist<blink::NotSafeToConcurrentlyTraceItem, 64, 4>::Segment" = type { %"class.blink::Worklist<blink::NotSafeToConcurrentlyTraceItem, 64, 4>::Segment"*, i64, [64 x %"struct.blink::NotSafeToConcurrentlyTraceItem"] }
%"struct.blink::NotSafeToConcurrentlyTraceItem" = type { %"struct.blink::TraceDescriptor", i64 }
%"class.blink::Worklist<blink::NotSafeToConcurrentlyTraceItem, 64, 4>::GlobalPool" = type { %"class.base::Lock", %"class.blink::Worklist<blink::NotSafeToConcurrentlyTraceItem, 64, 4>::Segment"*, %"struct.std::__1::atomic" }
%"class.std::__1::unique_ptr.88" = type { %"class.std::__1::__compressed_pair.89" }
%"class.std::__1::__compressed_pair.89" = type { %"struct.std::__1::__compressed_pair_elem.90" }
%"struct.std::__1::__compressed_pair_elem.90" = type { %"class.blink::WeakContainersWorklist"* }
%"class.blink::WeakContainersWorklist" = type { %"class.WTF::Mutex", %"class.std::__1::unordered_set" }
%"class.WTF::Mutex" = type { %"class.WTF::MutexBase" }
%"class.WTF::MutexBase" = type { %"struct.WTF::PlatformMutex" }
%"struct.WTF::PlatformMutex" = type { %union.pthread_mutex_t }
%"class.std::__1::unordered_set" = type { %"class.std::__1::__hash_table" }
%"class.std::__1::__hash_table" = type <{ %"class.std::__1::unique_ptr.91", %"class.std::__1::__compressed_pair.98", %"class.std::__1::__compressed_pair.103", %"class.std::__1::__compressed_pair.105", [4 x i8] }>
%"class.std::__1::unique_ptr.91" = type { %"class.std::__1::__compressed_pair.92" }
%"class.std::__1::__compressed_pair.92" = type { %"struct.std::__1::__compressed_pair_elem.93", %"struct.std::__1::__compressed_pair_elem.94" }
%"struct.std::__1::__compressed_pair_elem.93" = type { %"struct.std::__1::__hash_node_base"** }
%"struct.std::__1::__hash_node_base" = type { %"struct.std::__1::__hash_node_base"* }
%"struct.std::__1::__compressed_pair_elem.94" = type { %"class.std::__1::__bucket_list_deallocator" }
%"class.std::__1::__bucket_list_deallocator" = type { %"class.std::__1::__compressed_pair.95" }
%"class.std::__1::__compressed_pair.95" = type { %"struct.std::__1::__compressed_pair_elem.96" }
%"struct.std::__1::__compressed_pair_elem.96" = type { i64 }
%"class.std::__1::__compressed_pair.98" = type { %"struct.std::__1::__compressed_pair_elem.99" }
%"struct.std::__1::__compressed_pair_elem.99" = type { %"struct.std::__1::__hash_node_base" }
%"class.std::__1::__compressed_pair.103" = type { %"struct.std::__1::__compressed_pair_elem.96" }
%"class.std::__1::__compressed_pair.105" = type { %"struct.std::__1::__compressed_pair_elem.106" }
%"struct.std::__1::__compressed_pair_elem.106" = type { float }
%"class.std::__1::unique_ptr.111" = type { %"class.std::__1::__compressed_pair.112" }
%"class.std::__1::__compressed_pair.112" = type { %"struct.std::__1::__compressed_pair_elem.113" }
%"struct.std::__1::__compressed_pair_elem.113" = type { %"class.blink::HeapCompact"* }
%"class.blink::HeapCompact" = type <{ %"class.blink::ThreadHeap"*, %"class.std::__1::unique_ptr.114", i8, [7 x i8], i64, i64, i32, [4 x i8], i64, i8, [7 x i8] }>
%"class.std::__1::unique_ptr.114" = type { %"class.std::__1::__compressed_pair.115" }
%"class.std::__1::__compressed_pair.115" = type { %"struct.std::__1::__compressed_pair_elem.116" }
%"struct.std::__1::__compressed_pair_elem.116" = type { %"class.blink::HeapCompact::MovableObjectFixups"* }
%"class.blink::HeapCompact::MovableObjectFixups" = type opaque
%"struct.blink::ThreadHeap::LastAllocatedRegion" = type { i8*, i64 }
%"class.blink::BaseArena" = type <{ i32 (...)**, %"class.blink::PageStackThreadSafe", %"class.blink::PageStackThreadSafe", %"class.blink::PageStackThreadSafe", %"class.blink::PageStackThreadSafe", %"class.blink::ThreadState"*, i32, [4 x i8] }>
%"class.blink::PageStackThreadSafe" = type { %"class.blink::PageStack", %"class.WTF::Mutex" }
%"class.blink::PageStack" = type { %"class.WTF::Vector" }
%"class.WTF::Vector" = type { %"class.WTF::VectorBuffer" }
%"class.WTF::VectorBuffer" = type { %"class.WTF::VectorBufferBase" }
%"class.WTF::VectorBufferBase" = type { %"class.blink::BasePage"**, i32, i32 }
%"class.blink::BasePage" = type <{ i32 (...)**, %"class.blink::PageMemory"*, %"class.blink::BaseArena"*, %"class.blink::ThreadState"*, i64, i8, i8, i8, [5 x i8] }>
%"class.blink::PageMemory" = type opaque
%"class.std::__1::unique_ptr.127" = type { %"class.std::__1::__compressed_pair.128" }
%"class.std::__1::__compressed_pair.128" = type { %"struct.std::__1::__compressed_pair_elem.129" }
%"struct.std::__1::__compressed_pair_elem.129" = type { %"class.blink::PersistentRegion"* }
%"class.blink::PersistentRegion" = type { %"class.blink::PersistentRegionBase" }
%"class.blink::PersistentRegionBase" = type { %"class.blink::PersistentNode"*, %"struct.blink::PersistentNodeSlots"* }
%"struct.blink::PersistentNodeSlots" = type { %"struct.blink::PersistentNodeSlots"*, [256 x %"class.blink::PersistentNode"] }
%"class.WTF::Deque" = type { %"class.WTF::Deque<std::__1::pair<void *, bool (*)(const blink::LivenessBroker &, void *)>, 0, WTF::PartitionAllocator>::BackingBuffer", i32, i32 }
%"class.WTF::Deque<std::__1::pair<void *, bool (*)(const blink::LivenessBroker &, void *)>, 0, WTF::PartitionAllocator>::BackingBuffer" = type { %"class.WTF::VectorBuffer.135" }
%"class.WTF::VectorBuffer.135" = type { %"class.WTF::VectorBufferBase.136" }
%"class.WTF::VectorBufferBase.136" = type { %"struct.std::__1::pair"*, i32, i32 }
%"struct.std::__1::pair" = type { i8*, i1 (%"class.blink::LivenessBroker"*, i8*)* }
%"class.blink::LivenessBroker" = type { i8 }
%"class.v8::EmbedderGraph" = type opaque
%"class.std::__1::unique_ptr.137" = type { %"class.std::__1::__compressed_pair.138" }
%"class.std::__1::__compressed_pair.138" = type { %"struct.std::__1::__compressed_pair_elem.139" }
%"struct.std::__1::__compressed_pair_elem.139" = type { %"class.blink::UnifiedHeapController"* }
%"class.blink::UnifiedHeapController" = type opaque
%"class.std::__1::unique_ptr.143" = type { %"class.std::__1::__compressed_pair.144" }
%"class.std::__1::__compressed_pair.144" = type { %"struct.std::__1::__compressed_pair_elem.145" }
%"struct.std::__1::__compressed_pair_elem.145" = type { %"class.v8::EmbedderRootsHandler"* }
%"class.v8::EmbedderRootsHandler" = type { i32 (...)** }
%"struct.blink::ThreadState::GCData" = type { i32, i32, i32, i32, %"class.std::__1::unique_ptr.149" }
%"class.std::__1::unique_ptr.149" = type { %"class.std::__1::__compressed_pair.150" }
%"class.std::__1::__compressed_pair.150" = type { %"struct.std::__1::__compressed_pair_elem.151" }
%"struct.std::__1::__compressed_pair_elem.151" = type { %"class.blink::MarkingVisitor"* }
%"class.blink::MarkingVisitor" = type { %"class.blink::MarkingVisitorBase", %"class.blink::MarkingVisitor::RecentlyRetracedWeakContainers" }
%"class.blink::MarkingVisitorBase" = type { %"class.blink::Visitor", %"class.blink::Worklist<blink::TraceDescriptor, 512, 4>::View", %"class.blink::Worklist<blink::HeapObjectHeader *, 64, 4>::View", %"class.blink::Worklist<const void *, 16, 4>::View", %"class.blink::Worklist<blink::CustomCallbackItem, 64, 4>::View", %"class.blink::Worklist<const void *const *, 256, 4>::View", %"class.blink::Worklist<blink::EphemeronPairItem, 64, 4>::View", %"class.blink::Worklist<blink::EphemeronPairItem, 64, 4>::View", %"class.blink::WeakContainersWorklist"*, i64, i32, i32 }
%"class.blink::Worklist<blink::TraceDescriptor, 512, 4>::View" = type <{ %"class.blink::Worklist"*, i32, [4 x i8] }>
%"class.blink::Worklist<blink::HeapObjectHeader *, 64, 4>::View" = type <{ %"class.blink::Worklist.42"*, i32, [4 x i8] }>
%"class.blink::Worklist<const void *, 16, 4>::View" = type <{ %"class.blink::Worklist.49"*, i32, [4 x i8] }>
%"class.blink::Worklist<blink::CustomCallbackItem, 64, 4>::View" = type <{ %"class.blink::Worklist.56"*, i32, [4 x i8] }>
%"class.blink::Worklist<const void *const *, 256, 4>::View" = type <{ %"class.blink::Worklist.63"*, i32, [4 x i8] }>
%"class.blink::Worklist<blink::EphemeronPairItem, 64, 4>::View" = type <{ %"class.blink::Worklist.70"*, i32, [4 x i8] }>
%"class.blink::MarkingVisitor::RecentlyRetracedWeakContainers" = type { %"class.std::__1::vector", i64 }
%"class.std::__1::vector" = type { %"class.std::__1::__vector_base" }
%"class.std::__1::__vector_base" = type { %"class.blink::HeapObjectHeader"**, %"class.blink::HeapObjectHeader"**, %"class.std::__1::__compressed_pair.171" }
%"class.blink::HeapObjectHeader" = type { i32, i16, i16 }
%"class.std::__1::__compressed_pair.171" = type { %"struct.std::__1::__compressed_pair_elem.172" }
%"struct.std::__1::__compressed_pair_elem.172" = type { %"class.blink::HeapObjectHeader"** }
%"class.std::__1::unique_ptr.155" = type { %"class.std::__1::__compressed_pair.156" }
%"class.std::__1::__compressed_pair.156" = type { %"struct.std::__1::__compressed_pair_elem.157" }
%"struct.std::__1::__compressed_pair_elem.157" = type { %"class.blink::ThreadState::IncrementalMarkingScheduler"* }
%"class.blink::ThreadState::IncrementalMarkingScheduler" = type opaque
%"class.std::__1::unique_ptr.161" = type { %"class.std::__1::__compressed_pair.162" }
%"class.std::__1::__compressed_pair.162" = type { %"struct.std::__1::__compressed_pair_elem.163" }
%"struct.std::__1::__compressed_pair_elem.163" = type { %"class.blink::MarkingSchedulingOracle"* }
%"class.blink::MarkingSchedulingOracle" = type opaque
%"class.base::JobHandle" = type { %class.scoped_refptr }
%class.scoped_refptr = type { %"class.base::internal::JobTaskSource"* }
%"class.base::internal::JobTaskSource" = type opaque
%"struct.std::__1::atomic.167" = type { %"struct.std::__1::__atomic_base.168" }
%"struct.std::__1::__atomic_base.168" = type { %"struct.std::__1::__cxx_atomic_impl.169" }
%"struct.std::__1::__cxx_atomic_impl.169" = type { %"struct.std::__1::__cxx_atomic_base_impl.170" }
%"struct.std::__1::__cxx_atomic_base_impl.170" = type { i8 }
%"class.base::TimeTicks" = type { %"class.base::time_internal::TimeBase" }
%"class.base::time_internal::TimeBase" = type { i64 }
%"class.v8::Template" = type { i8 }
%"class.v8::Context" = type { i8 }
%"class.v8::Object" = type { i8 }
%"class.v8::FunctionCallbackInfo" = type <{ i64*, i64*, i32, [4 x i8] }>
%"class.blink::AtomicEntryFlag" = type { %"struct.std::__1::atomic.343" }
%"struct.std::__1::atomic.343" = type { %"struct.std::__1::__atomic_base.344" }
%"struct.std::__1::__atomic_base.344" = type { %"struct.std::__1::__atomic_base.345" }
%"struct.std::__1::__atomic_base.345" = type { %"struct.std::__1::__cxx_atomic_impl.346" }
%"struct.std::__1::__cxx_atomic_impl.346" = type { %"struct.std::__1::__cxx_atomic_base_impl.347" }
%"struct.std::__1::__cxx_atomic_base_impl.347" = type { i32 }
%"class.base::span" = type { %"struct.base::internal::ExtentStorage", %"struct.blink::bindings::IDLMemberInstaller::OperationConfig"* }
%"struct.base::internal::ExtentStorage" = type { i64 }
%"struct.blink::bindings::IDLMemberInstaller::OperationConfig" = type <{ i8*, void (%"class.v8::FunctionCallbackInfo"*)*, [3 x i8], [5 x i8] }>
%"class.v8::FunctionTemplate" = type { i8 }
%"class.v8::ObjectTemplate" = type { i8 }
%"class.v8::Signature" = type { i8 }
%"class.v8::String" = type { i8 }
%"class.v8::Value" = type { i8 }
%"class.blink::ExceptionState" = type { i32 (...)**, %"class.blink::ExceptionContext", %"class.blink::ExceptionState::ContextScope"*, %"class.v8::Isolate"*, i32, %"class.WTF::String", %"class.blink::TraceWrapperV8Reference.189" }
%"class.blink::ExceptionContext" = type { i16, i16, i8*, i8* }
%"class.blink::ExceptionState::ContextScope" = type { %"class.blink::ExceptionState"*, %"class.blink::ExceptionState::ContextScope"*, %"class.blink::ExceptionContext" }
%"class.WTF::String" = type { %class.scoped_refptr.183 }
%class.scoped_refptr.183 = type { %"class.WTF::StringImpl"* }
%"class.WTF::StringImpl" = type { i32, i32, %"struct.std::__1::atomic.184" }
%"struct.std::__1::atomic.184" = type { %"struct.std::__1::__atomic_base.185" }
%"struct.std::__1::__atomic_base.185" = type { %"struct.std::__1::__atomic_base.186" }
%"struct.std::__1::__atomic_base.186" = type { %"struct.std::__1::__cxx_atomic_impl.187" }
%"struct.std::__1::__cxx_atomic_impl.187" = type { %"struct.std::__1::__cxx_atomic_base_impl.188" }
%"struct.std::__1::__cxx_atomic_base_impl.188" = type { i32 }
%"class.blink::TraceWrapperV8Reference.189" = type { %"class.v8::TracedReference.190" }
%"class.v8::TracedReference.190" = type { %"class.v8::BasicTracedReference.191" }
%"class.v8::BasicTracedReference.191" = type { %"class.v8::TracedReferenceBase" }
%"class.blink::ExceptionToRejectPromiseScope" = type { %"class.v8::FunctionCallbackInfo"*, %"class.blink::ExceptionState"* }
%"class.blink::ScriptValue" = type { %"class.v8::Isolate"*, %"class.blink::WorldSafeV8Reference" }
%"class.blink::WorldSafeV8Reference" = type { %"class.blink::TraceWrapperV8Reference.189", %class.scoped_refptr.208 }
%class.scoped_refptr.208 = type { %"class.blink::DOMWrapperWorld"* }
%"class.blink::ScriptPromise" = type { %"class.blink::Member.209", %"class.blink::ScriptValue" }
%"class.blink::Member.209" = type { %"class.blink::MemberBase.210" }
%"class.blink::MemberBase.210" = type { %"class.blink::ScriptState"* }
%"class.blink::ScriptState" = type { %"class.v8::Isolate"*, %"class.blink::ScopedPersistent", %class.scoped_refptr.203, %"class.blink::Member.204", %"class.blink::SelfKeepAlive", %"class.util::TokenType" }
%"class.blink::ScopedPersistent" = type { %"class.v8::Persistent" }
%"class.v8::Persistent" = type { %"class.v8::PersistentBase" }
%"class.v8::PersistentBase" = type { %"class.v8::Context"* }
%class.scoped_refptr.203 = type { %"class.blink::DOMWrapperWorld"* }
%"class.blink::Member.204" = type { %"class.blink::MemberBase.205" }
%"class.blink::MemberBase.205" = type { %"class.blink::V8PerContextData"* }
%"class.blink::V8PerContextData" = type opaque
%"class.blink::SelfKeepAlive" = type { %"class.blink::Persistent.206" }
%"class.blink::Persistent.206" = type { %"class.blink::PersistentBase.207" }
%"class.blink::PersistentBase.207" = type { %"class.blink::ScriptState"*, %"class.blink::PersistentNodePtr" }
%"class.util::TokenType" = type { %"class.base::StrongAlias" }
%"class.base::StrongAlias" = type { %"class.base::UnguessableToken" }
%"class.base::UnguessableToken" = type { %"class.base::Token" }
%"class.base::Token" = type { i64, i64 }
%"class.blink::V8PerIsolateData" = type { i32, %"class.gin::IsolateHolder", %"class.WTF::HashMap.229", %"class.WTF::HashMap.229", %"class.WTF::HashMap.234", %"class.std::__1::unique_ptr.239", %"class.std::__1::unique_ptr.286", %"class.blink::Persistent.206", i8, i8, i8, %"class.WTF::Vector.300", %"class.std::__1::unique_ptr.305", %"class.blink::Persistent.311", %"class.blink::Persistent.315", %"class.blink::RuntimeCallStats", void (%"class.v8::Isolate"*, i32, i32)*, void (%"class.v8::Isolate"*, i32, i32)*, i64 }
%"class.gin::IsolateHolder" = type { %"class.std::__1::unique_ptr.211", %"class.v8::Isolate"*, %"class.std::__1::unique_ptr.217", %"class.std::__1::unique_ptr.223", i32, i32 }
%"class.std::__1::unique_ptr.211" = type { %"class.std::__1::__compressed_pair.212" }
%"class.std::__1::__compressed_pair.212" = type { %"struct.std::__1::__compressed_pair_elem.213" }
%"struct.std::__1::__compressed_pair_elem.213" = type { %"class.v8::SnapshotCreator"* }
%"class.v8::SnapshotCreator" = type { i8* }
%"class.std::__1::unique_ptr.217" = type { %"class.std::__1::__compressed_pair.218" }
%"class.std::__1::__compressed_pair.218" = type { %"struct.std::__1::__compressed_pair_elem.219" }
%"struct.std::__1::__compressed_pair_elem.219" = type { %"class.gin::PerIsolateData"* }
%"class.gin::PerIsolateData" = type opaque
%"class.std::__1::unique_ptr.223" = type { %"class.std::__1::__compressed_pair.224" }
%"class.std::__1::__compressed_pair.224" = type { %"struct.std::__1::__compressed_pair_elem.225" }
%"struct.std::__1::__compressed_pair_elem.225" = type { %"class.gin::V8IsolateMemoryDumpProvider"* }
%"class.gin::V8IsolateMemoryDumpProvider" = type opaque
%"class.WTF::HashMap.229" = type { %"class.WTF::HashTable.230" }
%"class.WTF::HashTable.230" = type <{ %"struct.WTF::KeyValuePair.233"*, i32, i32, i32, [4 x i8] }>
%"struct.WTF::KeyValuePair.233" = type opaque
%"class.WTF::HashMap.234" = type { %"class.WTF::HashTable.235" }
%"class.WTF::HashTable.235" = type <{ %"struct.WTF::KeyValuePair.238"*, i32, i32, i32, [4 x i8] }>
%"struct.WTF::KeyValuePair.238" = type opaque
%"class.std::__1::unique_ptr.239" = type { %"class.std::__1::__compressed_pair.240" }
%"class.std::__1::__compressed_pair.240" = type { %"struct.std::__1::__compressed_pair_elem.241" }
%"struct.std::__1::__compressed_pair_elem.241" = type { %"class.blink::StringCache"* }
%"class.blink::StringCache" = type { %"class.v8::GlobalValueMap", %"class.v8::PersistentValueMapBase<WTF::StringImpl *, v8::String, blink::StringCacheMapTraits>::PersistentValueReference", %"class.v8::GlobalValueMap.247", %class.scoped_refptr.183 }
%"class.v8::GlobalValueMap" = type { %"class.v8::PersistentValueMapBase" }
%"class.v8::PersistentValueMapBase" = type { %"class.v8::Isolate"*, %"class.WTF::HashMap.242", i8* }
%"class.WTF::HashMap.242" = type { %"class.WTF::HashTable.243" }
%"class.WTF::HashTable.243" = type <{ %"struct.WTF::KeyValuePair.246"*, i32, i32, i32, [4 x i8] }>
%"struct.WTF::KeyValuePair.246" = type { %"class.WTF::StringImpl"*, i64 }
%"class.v8::PersistentValueMapBase<WTF::StringImpl *, v8::String, blink::StringCacheMapTraits>::PersistentValueReference" = type { i64 }
%"class.v8::GlobalValueMap.247" = type { %"class.v8::PersistentValueMapBase.248" }
%"class.v8::PersistentValueMapBase.248" = type { %"class.v8::Isolate"*, %"class.WTF::HashMap.249", i8* }
%"class.WTF::HashMap.249" = type { %"class.WTF::HashTable.250" }
%"class.WTF::HashTable.250" = type <{ %"struct.WTF::KeyValuePair.253"*, i32, i32, i32, [4 x i8] }>
%"struct.WTF::KeyValuePair.253" = type { %"class.blink::ParkableStringImpl"*, i64 }
%"class.blink::ParkableStringImpl" = type { %"class.WTF::RefCounted.254", %"class.WTF::String", %"class.std::__1::unique_ptr.256" }
%"class.WTF::RefCounted.254" = type { %"class.base::RefCounted.255" }
%"class.base::RefCounted.255" = type { %"class.base::subtle::RefCountedBase" }
%"class.std::__1::unique_ptr.256" = type { %"class.std::__1::__compressed_pair.257" }
%"class.std::__1::__compressed_pair.257" = type { %"struct.std::__1::__compressed_pair_elem.258" }
%"struct.std::__1::__compressed_pair_elem.258" = type { %"struct.blink::ParkableStringImpl::ParkableMetadata"* }
%"struct.blink::ParkableStringImpl::ParkableMetadata" = type { %"class.WTF::Mutex", i32, i8, i8, %"class.std::__1::unique_ptr.259", %"class.std::__1::unique_ptr.270", %"class.WTF::Vector.276", i8, i32 }
%"class.std::__1::unique_ptr.259" = type { %"class.std::__1::__compressed_pair.260" }
%"class.std::__1::__compressed_pair.260" = type { %"struct.std::__1::__compressed_pair_elem.261" }
%"struct.std::__1::__compressed_pair_elem.261" = type { %"class.WTF::Vector.262"* }
%"class.WTF::Vector.262" = type { %"class.WTF::VectorBuffer.263" }
%"class.WTF::VectorBuffer.263" = type { %"class.WTF::VectorBufferBase.264" }
%"class.WTF::VectorBufferBase.264" = type { i8*, i32, i32 }
%"class.std::__1::unique_ptr.270" = type { %"class.std::__1::__compressed_pair.271" }
%"class.std::__1::__compressed_pair.271" = type { %"struct.std::__1::__compressed_pair_elem.272" }
%"struct.std::__1::__compressed_pair_elem.272" = type { %"class.blink::DiskDataMetadata"* }
%"class.blink::DiskDataMetadata" = type { i64, i64 }
%"class.WTF::Vector.276" = type { %"class.WTF::VectorBuffer.277" }
%"class.WTF::VectorBuffer.277" = type { %"class.WTF::VectorBufferBase.264", [32 x i8] }
%"class.std::__1::unique_ptr.286" = type { %"class.std::__1::__compressed_pair.287" }
%"class.std::__1::__compressed_pair.287" = type { %"struct.std::__1::__compressed_pair_elem.288" }
%"struct.std::__1::__compressed_pair_elem.288" = type { %"class.blink::V8PrivateProperty"* }
%"class.blink::V8PrivateProperty" = type { %"class.blink::ScopedPersistent.289", %"class.WTF::HashMap.292" }
%"class.blink::ScopedPersistent.289" = type { %"class.v8::Persistent.290" }
%"class.v8::Persistent.290" = type { %"class.v8::PersistentBase.291" }
%"class.v8::PersistentBase.291" = type { %"class.v8::Private"* }
%"class.v8::Private" = type { i8 }
%"class.WTF::HashMap.292" = type { %"class.WTF::HashTable.293" }
%"class.WTF::HashTable.293" = type <{ %"struct.WTF::KeyValuePair.296"*, i32, i32, i32, [4 x i8] }>
%"struct.WTF::KeyValuePair.296" = type opaque
%"class.WTF::Vector.300" = type { %"class.WTF::VectorBuffer.301" }
%"class.WTF::VectorBuffer.301" = type { %"class.WTF::VectorBufferBase.302" }
%"class.WTF::VectorBufferBase.302" = type { %"class.base::OnceCallback"*, i32, i32 }
%"class.base::OnceCallback" = type opaque
%"class.std::__1::unique_ptr.305" = type { %"class.std::__1::__compressed_pair.306" }
%"class.std::__1::__compressed_pair.306" = type { %"struct.std::__1::__compressed_pair_elem.307" }
%"struct.std::__1::__compressed_pair_elem.307" = type { %"class.blink::V8PerIsolateData::Data"* }
%"class.blink::V8PerIsolateData::Data" = type { i32 (...)** }
%"class.blink::Persistent.311" = type { %"class.blink::PersistentBase.312" }
%"class.blink::PersistentBase.312" = type { %"class.blink::V8PerIsolateData::GarbageCollectedData"*, %"class.blink::PersistentNodePtr" }
%"class.blink::V8PerIsolateData::GarbageCollectedData" = type { i32 (...)** }
%"class.blink::Persistent.315" = type { %"class.blink::PersistentBase.316" }
%"class.blink::PersistentBase.316" = type { %"class.blink::ActiveScriptWrappableManager"*, %"class.blink::PersistentNodePtr" }
%"class.blink::ActiveScriptWrappableManager" = type { %"class.blink::HeapVector", i64 }
%"class.blink::HeapVector" = type { %"class.WTF::Vector.321" }
%"class.WTF::Vector.321" = type { %"class.WTF::VectorBuffer.322" }
%"class.WTF::VectorBuffer.322" = type { %"class.WTF::VectorBufferBase.323" }
%"class.WTF::VectorBufferBase.323" = type { %"struct.std::__1::pair.324"*, i32, i32 }
%"struct.std::__1::pair.324" = type { %"class.blink::UntracedMember", %"class.blink::Member.326" }
%"class.blink::UntracedMember" = type { %"class.blink::MemberBase.325" }
%"class.blink::MemberBase.325" = type { %"class.blink::ActiveScriptWrappableBase"* }
%"class.blink::ActiveScriptWrappableBase" = type { %"class.blink::GarbageCollectedMixin" }
%"class.blink::GarbageCollectedMixin" = type { i32 (...)** }
%"class.blink::Member.326" = type { %"class.blink::MemberBase.327" }
%"class.blink::MemberBase.327" = type { %"class.blink::ActiveScriptWrappableBase"* }
%"class.blink::RuntimeCallStats" = type { %"class.blink::RuntimeCallTimer"*, i8, [40 x %"class.blink::RuntimeCallCounter"], %"class.base::TickClock"* }
%"class.blink::RuntimeCallTimer" = type { %"class.blink::RuntimeCallCounter"*, %"class.blink::RuntimeCallTimer"*, %"class.base::TimeTicks", %"class.base::TimeDelta", %"class.base::TickClock"* }
%"class.blink::RuntimeCallCounter" = type { i64, %"class.base::TimeDelta", i8* }
%"class.base::TimeDelta" = type { i64 }
%"class.base::TickClock" = type opaque
%"class.blink::UnderlyingSinkBase" = type { %"class.blink::ScriptWrappable", %"class.blink::Member" }
%"class.blink::Member" = type { %"class.blink::MemberBase.192" }
%"class.blink::MemberBase.192" = type { %"class.blink::WritableStreamDefaultController"* }
%"class.blink::WritableStreamDefaultController" = type { %"class.blink::ScriptWrappable", %"class.blink::Member.193", %"class.blink::Member.193", %"class.blink::Member.195", %"class.blink::Member.197", i8, i8, double, %"class.blink::Member.199", %"class.blink::Member.193" }
%"class.blink::Member.195" = type { %"class.blink::MemberBase.196" }
%"class.blink::MemberBase.196" = type { %"class.blink::WritableStream"* }
%"class.blink::WritableStream" = type opaque
%"class.blink::Member.197" = type { %"class.blink::MemberBase.198" }
%"class.blink::MemberBase.198" = type { %"class.blink::QueueWithSizes"* }
%"class.blink::QueueWithSizes" = type opaque
%"class.blink::Member.199" = type { %"class.blink::MemberBase.200" }
%"class.blink::MemberBase.200" = type { %"class.blink::StrategySizeAlgorithm"* }
%"class.blink::StrategySizeAlgorithm" = type opaque
%"class.blink::Member.193" = type { %"class.blink::MemberBase.194" }
%"class.blink::MemberBase.194" = type { %"class.blink::StreamAlgorithm"* }
%"class.blink::StreamAlgorithm" = type opaque
%"class.v8::internal::Isolate" = type opaque
%"class.logging::CheckError" = type { %"class.logging::LogMessage"* }
%"class.logging::LogMessage" = type { i32 (...)**, i32, %"class.std::__1::basic_ostringstream", i64, i8*, i32, %"class.base::ScopedClearLastErrorBase" }
%"class.std::__1::basic_ostringstream" = type { %"class.std::__1::basic_ostream.base", %"class.std::__1::basic_stringbuf", %"class.std::__1::basic_ios.base" }
%"class.std::__1::basic_ostream.base" = type { i32 (...)** }
%"class.std::__1::basic_stringbuf" = type <{ %"class.std::__1::basic_streambuf", %"class.std::__1::basic_string", i8*, i32, [4 x i8] }>
%"class.std::__1::basic_streambuf" = type { i32 (...)**, %"class.std::__1::locale", i8*, i8*, i8*, i8*, i8*, i8* }
%"class.std::__1::locale" = type { %"class.std::__1::locale::__imp"* }
%"class.std::__1::locale::__imp" = type opaque
%"class.std::__1::basic_string" = type { %"class.std::__1::__compressed_pair.329" }
%"class.std::__1::__compressed_pair.329" = type { %"struct.std::__1::__compressed_pair_elem.330" }
%"struct.std::__1::__compressed_pair_elem.330" = type { %"struct.std::__1::basic_string<char, std::__1::char_traits<char>, std::__1::allocator<char> >::__rep" }
%"struct.std::__1::basic_string<char, std::__1::char_traits<char>, std::__1::allocator<char> >::__rep" = type { %union.anon }
%union.anon = type { %"struct.std::__1::basic_string<char, std::__1::char_traits<char>, std::__1::allocator<char> >::__long" }
%"struct.std::__1::basic_string<char, std::__1::char_traits<char>, std::__1::allocator<char> >::__long" = type { i8*, i64, i64 }
%"class.std::__1::basic_ios.base" = type <{ %"class.std::__1::ios_base", %"class.std::__1::basic_ostream"*, i32 }>
%"class.std::__1::ios_base" = type { i32 (...)**, i32, i64, i64, i32, i32, i8*, i8*, void (i32, %"class.std::__1::ios_base"*, i32)**, i32*, i64, i64, i64*, i64, i64, i8**, i64, i64 }
%"class.std::__1::basic_ostream" = type { i32 (...)**, %"class.std::__1::basic_ios.base" }
%"class.base::ScopedClearLastErrorBase" = type { i32 }

$_ZN5blink11ScriptState4FromEN2v85LocalINS1_7ContextEEE = comdat any

$_ZN5blink29ExceptionToRejectPromiseScopeD2Ev = comdat any

$_ZN5blink20WorldSafeV8ReferenceIN2v85ValueEEC2EPNS1_7IsolateENS1_5LocalIS2_EE = comdat any

$_ZN5blink18UnderlyingSinkBase5startEPNS_11ScriptStateENS_11ScriptValueERNS_14ExceptionStateE = comdat any

$_ZN5blink18UnderlyingSinkBase5writeEPNS_11ScriptStateENS_11ScriptValueES3_RNS_14ExceptionStateE = comdat any

@.str = private unnamed_addr constant [19 x i8] c"UnderlyingSinkBase\00", align 1
@_ZN5blink20V8UnderlyingSinkBase18wrapper_type_info_E = hidden constant %"struct.blink::WrapperTypeInfo" { i16 1, void (%"class.v8::Isolate"*, %"class.blink::DOMWrapperWorld"*, %"class.v8::Template"*)* @_ZN5blink20V8UnderlyingSinkBase24InstallInterfaceTemplateEPN2v87IsolateERKNS_15DOMWrapperWorldENS1_5LocalINS1_8TemplateEEE, void (%"class.v8::Context"*, %"class.blink::DOMWrapperWorld"*, %"class.v8::Object"*, %"class.v8::Object"*, %"class.v8::Object"*, %"class.v8::Template"*, i64)* @_ZN5blink20V8UnderlyingSinkBase33InstallContextDependentPropertiesEN2v85LocalINS1_7ContextEEERKNS_15DOMWrapperWorldENS2_INS1_6ObjectEEES9_S9_NS2_INS1_8TemplateEEENS_8bindings21V8InterfaceBridgeBase15FeatureSelectorE, i8* getelementptr inbounds ([19 x i8], [19 x i8]* @.str, i32 0, i32 0), %"struct.blink::WrapperTypeInfo"* null, i8 8 }, align 8
@_ZN5blink18UnderlyingSinkBase18wrapper_type_info_E = hidden local_unnamed_addr constant %"struct.blink::WrapperTypeInfo"* @_ZN5blink20V8UnderlyingSinkBase18wrapper_type_info_E, align 8
@_ZZN5blink20V8UnderlyingSinkBase30InstallUnconditionalPropertiesEPN2v87IsolateERKNS_15DOMWrapperWorldENS1_5LocalINS1_8TemplateEEES9_S9_E15kOperationTable = internal constant [4 x { i8*, void (%"class.v8::FunctionCallbackInfo"*)*, i8, i8, i8 }] [{ i8*, void (%"class.v8::FunctionCallbackInfo"*)*, i8, i8, i8 } { i8* getelementptr inbounds ([6 x i8], [6 x i8]* @.str.1, i32 0, i32 0), void (%"class.v8::FunctionCallbackInfo"*)* @_ZN5blink12_GLOBAL__N_123v8_underlying_sink_base22AbortOperationCallbackERKN2v820FunctionCallbackInfoINS2_5ValueEEE, i8 1, i8 -24, i8 0 }, { i8*, void (%"class.v8::FunctionCallbackInfo"*)*, i8, i8, i8 } { i8* getelementptr inbounds ([6 x i8], [6 x i8]* @.str.2, i32 0, i32 0), void (%"class.v8::FunctionCallbackInfo"*)* @_ZN5blink12_GLOBAL__N_123v8_underlying_sink_base22CloseOperationCallbackERKN2v820FunctionCallbackInfoINS2_5ValueEEE, i8 0, i8 -24, i8 0 }, { i8*, void (%"class.v8::FunctionCallbackInfo"*)*, i8, i8, i8 } { i8* getelementptr inbounds ([6 x i8], [6 x i8]* @.str.3, i32 0, i32 0), void (%"class.v8::FunctionCallbackInfo"*)* @_ZN5blink12_GLOBAL__N_123v8_underlying_sink_base22StartOperationCallbackERKN2v820FunctionCallbackInfoINS2_5ValueEEE, i8 1, i8 -24, i8 0 }, { i8*, void (%"class.v8::FunctionCallbackInfo"*)*, i8, i8, i8 } { i8* getelementptr inbounds ([6 x i8], [6 x i8]* @.str.4, i32 0, i32 0), void (%"class.v8::FunctionCallbackInfo"*)* @_ZN5blink12_GLOBAL__N_123v8_underlying_sink_base22WriteOperationCallbackERKN2v820FunctionCallbackInfoINS2_5ValueEEE, i8 2, i8 -24, i8 0 }], align 16
@.str.1 = private unnamed_addr constant [6 x i8] c"abort\00", align 1
@.str.2 = private unnamed_addr constant [6 x i8] c"close\00", align 1
@.str.3 = private unnamed_addr constant [6 x i8] c"start\00", align 1
@.str.4 = private unnamed_addr constant [6 x i8] c"write\00", align 1
@.str.5 = private unnamed_addr constant [12 x i8] c"constructor\00", align 1
@.str.6 = private unnamed_addr constant [19 x i8] c"Illegal invocation\00", align 1
@_ZTVN5blink14ExceptionStateE = external unnamed_addr constant { [9 x i8*] }, align 8
@.str.7 = private unnamed_addr constant [66 x i8] c"../../third_party/blink/renderer/platform/bindings/script_state.h\00", align 1
@.str.8 = private unnamed_addr constant [13 x i8] c"script_state\00", align 1
@.str.9 = private unnamed_addr constant [34 x i8] c"script_state->context_ == context\00", align 1
@_ZN5blink11ThreadState25incremental_marking_flag_E = external local_unnamed_addr global %"class.blink::AtomicEntryFlag", align 4

; Function Attrs: nounwind ssp uwtable
define hidden void @_ZN5blink20V8UnderlyingSinkBase24InstallInterfaceTemplateEPN2v87IsolateERKNS_15DOMWrapperWorldENS1_5LocalINS1_8TemplateEEE(%"class.v8::Isolate"*, %"class.blink::DOMWrapperWorld"* dereferenceable(32), %"class.v8::Template"*) #0 align 2 {
  %4 = alloca %"class.base::span", align 8
  %5 = bitcast %"class.v8::Template"* %2 to %"class.v8::FunctionTemplate"*
  %6 = tail call %"class.v8::ObjectTemplate"* @_ZN2v816FunctionTemplate16InstanceTemplateEv(%"class.v8::FunctionTemplate"* %5) #4
  %7 = tail call %"class.v8::ObjectTemplate"* @_ZN2v816FunctionTemplate17PrototypeTemplateEv(%"class.v8::FunctionTemplate"* %5) #4
  tail call void @_ZN5blink8bindings25SetupIDLInterfaceTemplateEPN2v87IsolateEPKNS_15WrapperTypeInfoENS1_5LocalINS1_14ObjectTemplateEEES9_NS7_INS1_16FunctionTemplateEEESB_(%"class.v8::Isolate"* %0, %"struct.blink::WrapperTypeInfo"* nonnull @_ZN5blink20V8UnderlyingSinkBase18wrapper_type_info_E, %"class.v8::ObjectTemplate"* %6, %"class.v8::ObjectTemplate"* %7, %"class.v8::FunctionTemplate"* %5, %"class.v8::FunctionTemplate"* null) #4
  %8 = bitcast %"class.v8::ObjectTemplate"* %6 to %"class.v8::Template"*
  %9 = bitcast %"class.v8::ObjectTemplate"* %7 to %"class.v8::Template"*
  %10 = bitcast %"class.base::span"* %4 to i8*
  call void @llvm.lifetime.start.p0i8(i64 16, i8* nonnull %10)
  %11 = tail call %"class.v8::Signature"* @_ZN2v89Signature3NewEPNS_7IsolateENS_5LocalINS_16FunctionTemplateEEE(%"class.v8::Isolate"* %0, %"class.v8::FunctionTemplate"* %5) #4
  %12 = getelementptr inbounds %"class.base::span", %"class.base::span"* %4, i64 0, i32 0, i32 0
  store i64 4, i64* %12, align 8
  %13 = getelementptr inbounds %"class.base::span", %"class.base::span"* %4, i64 0, i32 1
  store %"struct.blink::bindings::IDLMemberInstaller::OperationConfig"* bitcast ([4 x { i8*, void (%"class.v8::FunctionCallbackInfo"*)*, i8, i8, i8 }]* @_ZZN5blink20V8UnderlyingSinkBase30InstallUnconditionalPropertiesEPN2v87IsolateERKNS_15DOMWrapperWorldENS1_5LocalINS1_8TemplateEEES9_S9_E15kOperationTable to %"struct.blink::bindings::IDLMemberInstaller::OperationConfig"*), %"struct.blink::bindings::IDLMemberInstaller::OperationConfig"** %13, align 8
  tail call void @_ZN5blink8bindings18IDLMemberInstaller17InstallOperationsEPN2v87IsolateERKNS_15DOMWrapperWorldENS2_5LocalINS2_8TemplateEEESA_SA_NS8_INS2_9SignatureEEEN4base4spanIKNS1_15OperationConfigELm18446744073709551615EEE(%"class.v8::Isolate"* %0, %"class.blink::DOMWrapperWorld"* dereferenceable(32) %1, %"class.v8::Template"* %8, %"class.v8::Template"* %9, %"class.v8::Template"* %2, %"class.v8::Signature"* %11, %"class.base::span"* nonnull byval(%"class.base::span") align 8 %4) #4
  call void @llvm.lifetime.end.p0i8(i64 16, i8* nonnull %10)
  ret void
}

; Function Attrs: nounwind ssp uwtable
define hidden void @_ZN5blink20V8UnderlyingSinkBase33InstallContextDependentPropertiesEN2v85LocalINS1_7ContextEEERKNS_15DOMWrapperWorldENS2_INS1_6ObjectEEES9_S9_NS2_INS1_8TemplateEEENS_8bindings21V8InterfaceBridgeBase15FeatureSelectorE(%"class.v8::Context"*, %"class.blink::DOMWrapperWorld"* nocapture readnone dereferenceable(32), %"class.v8::Object"* nocapture readnone, %"class.v8::Object"*, %"class.v8::Object"* nocapture readnone, %"class.v8::Template"* nocapture readnone, i64) #0 align 2 {
  %8 = trunc i64 %6 to i8
  %9 = icmp eq i8 %8, 0
  br i1 %9, label %21, label %10

10:                                               ; preds = %7
  %11 = tail call %"class.v8::Isolate"* @_ZN2v87Context10GetIsolateEv(%"class.v8::Context"* %0) #4
  %12 = tail call %"class.v8::String"* @_ZN2v86String14NewFromOneByteEPNS_7IsolateEPKhNS_13NewStringTypeEi(%"class.v8::Isolate"* %11, i8* nonnull getelementptr inbounds ([12 x i8], [12 x i8]* @.str.5, i64 0, i64 0), i32 1, i32 11) #4
  %13 = icmp eq %"class.v8::String"* %12, null
  br i1 %13, label %14, label %15, !prof !2

14:                                               ; preds = %10
  tail call void @_ZN2v82V812ToLocalEmptyEv() #4
  br label %15

15:                                               ; preds = %10, %14
  %16 = bitcast %"class.v8::String"* %12 to %"class.v8::Value"*
  %17 = tail call i16 @_ZN2v86Object6DeleteENS_5LocalINS_7ContextEEENS1_INS_5ValueEEE(%"class.v8::Object"* %3, %"class.v8::Context"* %0, %"class.v8::Value"* %16) #4
  %18 = trunc i16 %17 to i8
  %19 = icmp eq i8 %18, 0
  br i1 %19, label %20, label %21, !prof !2

20:                                               ; preds = %15
  tail call void @_ZN2v82V817FromJustIsNothingEv() #4
  br label %21

21:                                               ; preds = %7, %20, %15
  ret void
}

; Function Attrs: argmemonly nounwind
declare void @llvm.lifetime.start.p0i8(i64 immarg, i8* nocapture) #1

declare %"class.v8::ObjectTemplate"* @_ZN2v816FunctionTemplate16InstanceTemplateEv(%"class.v8::FunctionTemplate"*) local_unnamed_addr #2

declare %"class.v8::ObjectTemplate"* @_ZN2v816FunctionTemplate17PrototypeTemplateEv(%"class.v8::FunctionTemplate"*) local_unnamed_addr #2

declare void @_ZN5blink8bindings25SetupIDLInterfaceTemplateEPN2v87IsolateEPKNS_15WrapperTypeInfoENS1_5LocalINS1_14ObjectTemplateEEES9_NS7_INS1_16FunctionTemplateEEESB_(%"class.v8::Isolate"*, %"struct.blink::WrapperTypeInfo"*, %"class.v8::ObjectTemplate"*, %"class.v8::ObjectTemplate"*, %"class.v8::FunctionTemplate"*, %"class.v8::FunctionTemplate"*) local_unnamed_addr #2

; Function Attrs: nounwind ssp uwtable
define hidden void @_ZN5blink20V8UnderlyingSinkBase30InstallUnconditionalPropertiesEPN2v87IsolateERKNS_15DOMWrapperWorldENS1_5LocalINS1_8TemplateEEES9_S9_(%"class.v8::Isolate"*, %"class.blink::DOMWrapperWorld"* dereferenceable(32), %"class.v8::Template"*, %"class.v8::Template"*, %"class.v8::Template"*) local_unnamed_addr #0 align 2 {
  %6 = alloca %"class.base::span", align 8
  %7 = bitcast %"class.v8::Template"* %4 to %"class.v8::FunctionTemplate"*
  %8 = tail call %"class.v8::Signature"* @_ZN2v89Signature3NewEPNS_7IsolateENS_5LocalINS_16FunctionTemplateEEE(%"class.v8::Isolate"* %0, %"class.v8::FunctionTemplate"* %7) #4
  %9 = getelementptr inbounds %"class.base::span", %"class.base::span"* %6, i64 0, i32 0, i32 0
  store i64 4, i64* %9, align 8
  %10 = getelementptr inbounds %"class.base::span", %"class.base::span"* %6, i64 0, i32 1
  store %"struct.blink::bindings::IDLMemberInstaller::OperationConfig"* bitcast ([4 x { i8*, void (%"class.v8::FunctionCallbackInfo"*)*, i8, i8, i8 }]* @_ZZN5blink20V8UnderlyingSinkBase30InstallUnconditionalPropertiesEPN2v87IsolateERKNS_15DOMWrapperWorldENS1_5LocalINS1_8TemplateEEES9_S9_E15kOperationTable to %"struct.blink::bindings::IDLMemberInstaller::OperationConfig"*), %"struct.blink::bindings::IDLMemberInstaller::OperationConfig"** %10, align 8
  tail call void @_ZN5blink8bindings18IDLMemberInstaller17InstallOperationsEPN2v87IsolateERKNS_15DOMWrapperWorldENS2_5LocalINS2_8TemplateEEESA_SA_NS8_INS2_9SignatureEEEN4base4spanIKNS1_15OperationConfigELm18446744073709551615EEE(%"class.v8::Isolate"* %0, %"class.blink::DOMWrapperWorld"* dereferenceable(32) %1, %"class.v8::Template"* %2, %"class.v8::Template"* %3, %"class.v8::Template"* %4, %"class.v8::Signature"* %8, %"class.base::span"* nonnull byval(%"class.base::span") align 8 %6) #4
  ret void
}

; Function Attrs: argmemonly nounwind
declare void @llvm.lifetime.end.p0i8(i64 immarg, i8* nocapture) #1

; Function Attrs: nounwind ssp uwtable
define internal void @_ZN5blink12_GLOBAL__N_123v8_underlying_sink_base22AbortOperationCallbackERKN2v820FunctionCallbackInfoINS2_5ValueEEE(%"class.v8::FunctionCallbackInfo"* dereferenceable(24)) #0 {
  %2 = alloca %"class.blink::ExceptionState", align 8
  %3 = alloca %"class.blink::ExceptionToRejectPromiseScope", align 8
  %4 = alloca %"class.WTF::String", align 8
  %5 = alloca %"class.blink::ScriptValue", align 8
  %6 = alloca %"class.blink::ScriptPromise", align 8
  %7 = alloca %"class.blink::ScriptValue", align 8
  %8 = getelementptr inbounds %"class.v8::FunctionCallbackInfo", %"class.v8::FunctionCallbackInfo"* %0, i64 0, i32 0
  %9 = load i64*, i64** %8, align 8
  %10 = getelementptr inbounds i64, i64* %9, i64 1
  %11 = bitcast i64* %10 to %"class.v8::Isolate"**
  %12 = load %"class.v8::Isolate"*, %"class.v8::Isolate"** %11, align 8
  %13 = getelementptr inbounds %"class.v8::FunctionCallbackInfo", %"class.v8::FunctionCallbackInfo"* %0, i64 0, i32 1
  %14 = load i64*, i64** %13, align 8
  %15 = getelementptr inbounds i64, i64* %14, i64 -1
  %16 = bitcast i64* %15 to %"class.v8::Object"*
  %17 = bitcast %"class.blink::ExceptionState"* %2 to i8*
  call void @llvm.lifetime.start.p0i8(i64 72, i8* nonnull %17) #4
  call void @llvm.memset.p0i8.i64(i8* nonnull align 8 %17, i8 -86, i64 56, i1 false)
  %18 = getelementptr inbounds %"class.blink::ExceptionState", %"class.blink::ExceptionState"* %2, i64 0, i32 0
  store i32 (...)** bitcast (i8** getelementptr inbounds ({ [9 x i8*] }, { [9 x i8*] }* @_ZTVN5blink14ExceptionStateE, i64 0, inrange i32 0, i64 2) to i32 (...)**), i32 (...)*** %18, align 8
  %19 = getelementptr inbounds %"class.blink::ExceptionState", %"class.blink::ExceptionState"* %2, i64 0, i32 1, i32 0
  store i16 6, i16* %19, align 8
  %20 = getelementptr inbounds %"class.blink::ExceptionState", %"class.blink::ExceptionState"* %2, i64 0, i32 1, i32 1
  store i16 0, i16* %20, align 2
  %21 = getelementptr inbounds %"class.blink::ExceptionState", %"class.blink::ExceptionState"* %2, i64 0, i32 1, i32 2
  %22 = bitcast i8** %21 to <2 x i8*>*
  store <2 x i8*> <i8* getelementptr inbounds ([19 x i8], [19 x i8]* @.str, i64 0, i64 0), i8* getelementptr inbounds ([6 x i8], [6 x i8]* @.str.1, i64 0, i64 0)>, <2 x i8*>* %22, align 8
  %23 = getelementptr inbounds %"class.blink::ExceptionState", %"class.blink::ExceptionState"* %2, i64 0, i32 2
  store %"class.blink::ExceptionState::ContextScope"* null, %"class.blink::ExceptionState::ContextScope"** %23, align 8
  %24 = getelementptr inbounds %"class.blink::ExceptionState", %"class.blink::ExceptionState"* %2, i64 0, i32 3
  store %"class.v8::Isolate"* %12, %"class.v8::Isolate"** %24, align 8
  %25 = getelementptr inbounds %"class.blink::ExceptionState", %"class.blink::ExceptionState"* %2, i64 0, i32 4
  store i32 0, i32* %25, align 8
  %26 = getelementptr inbounds %"class.blink::ExceptionState", %"class.blink::ExceptionState"* %2, i64 0, i32 5, i32 0, i32 0
  %27 = bitcast %"class.WTF::StringImpl"** %26 to i8*
  call void @llvm.memset.p0i8.i64(i8* align 8 %27, i8 0, i64 16, i1 false) #4
  %28 = bitcast %"class.blink::ExceptionToRejectPromiseScope"* %3 to i8*
  call void @llvm.lifetime.start.p0i8(i64 16, i8* nonnull %28) #4
  %29 = getelementptr inbounds %"class.blink::ExceptionToRejectPromiseScope", %"class.blink::ExceptionToRejectPromiseScope"* %3, i64 0, i32 0
  %30 = getelementptr inbounds %"class.blink::ExceptionToRejectPromiseScope", %"class.blink::ExceptionToRejectPromiseScope"* %3, i64 0, i32 1
  store %"class.v8::FunctionCallbackInfo"* %0, %"class.v8::FunctionCallbackInfo"** %29, align 8
  store %"class.blink::ExceptionState"* %2, %"class.blink::ExceptionState"** %30, align 8
  %31 = bitcast i64* %15 to %"class.v8::Value"*
  %32 = ptrtoint %"class.v8::Isolate"* %12 to i64
  %33 = add i64 %32, 8
  %34 = inttoptr i64 %33 to %"class.blink::V8PerIsolateData"**
  %35 = load %"class.blink::V8PerIsolateData"*, %"class.blink::V8PerIsolateData"** %34, align 8
  %36 = call zeroext i1 @_ZN5blink16V8PerIsolateData11HasInstanceEPKNS_15WrapperTypeInfoEN2v85LocalINS4_5ValueEEE(%"class.blink::V8PerIsolateData"* %35, %"struct.blink::WrapperTypeInfo"* nonnull @_ZN5blink20V8UnderlyingSinkBase18wrapper_type_info_E, %"class.v8::Value"* %31) #4
  br i1 %36, label %38, label %37

37:                                               ; preds = %1
  call void @_ZN5blink14ExceptionState14ThrowTypeErrorEPKc(%"class.blink::ExceptionState"* nonnull %2, i8* getelementptr inbounds ([19 x i8], [19 x i8]* @.str.6, i64 0, i64 0)) #4
  br label %172

38:                                               ; preds = %1
  %39 = getelementptr inbounds %"class.v8::FunctionCallbackInfo", %"class.v8::FunctionCallbackInfo"* %0, i64 0, i32 2
  %40 = load i32, i32* %39, align 8
  %41 = icmp slt i32 %40, 1
  br i1 %41, label %42, label %62, !prof !2

42:                                               ; preds = %38
  %43 = bitcast %"class.WTF::String"* %4 to i8*
  call void @llvm.lifetime.start.p0i8(i64 8, i8* nonnull %43) #4
  %44 = call %"class.WTF::StringImpl"* @_ZN5blink17ExceptionMessages18NotEnoughArgumentsEjj(i32 1, i32 %40) #4
  %45 = getelementptr inbounds %"class.WTF::String", %"class.WTF::String"* %4, i64 0, i32 0, i32 0
  store %"class.WTF::StringImpl"* %44, %"class.WTF::StringImpl"** %45, align 8
  call void @_ZN5blink14ExceptionState14ThrowTypeErrorERKN3WTF6StringE(%"class.blink::ExceptionState"* nonnull %2, %"class.WTF::String"* nonnull dereferenceable(8) %4) #4
  %46 = load %"class.WTF::StringImpl"*, %"class.WTF::StringImpl"** %45, align 8
  %47 = icmp eq %"class.WTF::StringImpl"* %46, null
  br i1 %47, label %61, label %48

48:                                               ; preds = %42
  %49 = getelementptr inbounds %"class.WTF::StringImpl", %"class.WTF::StringImpl"* %46, i64 0, i32 2, i32 0, i32 0, i32 0, i32 0, i32 0
  %50 = load atomic i32, i32* %49 monotonic, align 4
  %51 = and i32 %50, 2
  %52 = icmp eq i32 %51, 0
  %53 = getelementptr inbounds %"class.WTF::StringImpl", %"class.WTF::StringImpl"* %46, i64 0, i32 0
  %54 = load i32, i32* %53, align 4
  br i1 %52, label %55, label %57

55:                                               ; preds = %48
  %56 = add i32 %54, -1
  store i32 %56, i32* %53, align 4
  br label %57

57:                                               ; preds = %55, %48
  %58 = phi i32 [ %56, %55 ], [ %54, %48 ]
  %59 = icmp eq i32 %58, 0
  br i1 %59, label %60, label %61

60:                                               ; preds = %57
  call void @_ZNK3WTF10StringImpl18DestroyIfNotStaticEv(%"class.WTF::StringImpl"* nonnull %46) #4
  br label %61

61:                                               ; preds = %42, %57, %60
  call void @llvm.lifetime.end.p0i8(i64 8, i8* nonnull %43) #4
  br label %172

62:                                               ; preds = %38
  %63 = load i64, i64* %15, align 8
  %64 = add i64 %63, -1
  %65 = inttoptr i64 %64 to i32*
  %66 = load i32, i32* %65, align 4
  %67 = and i64 %63, -4294967296
  %68 = zext i32 %66 to i64
  %69 = or i64 %67, %68
  %70 = add i64 %69, 7
  %71 = inttoptr i64 %70 to i16*
  %72 = load i16, i16* %71, align 2
  switch i16 %72, label %77 [
    i16 1057, label %73
    i16 1056, label %73
    i16 1040, label %73
  ]

73:                                               ; preds = %62, %62, %62
  %74 = add i64 %63, 19
  %75 = inttoptr i64 %74 to i8**
  %76 = load i8*, i8** %75, align 1
  br label %79

77:                                               ; preds = %62
  %78 = call i8* @_ZN2v86Object38SlowGetAlignedPointerFromInternalFieldEi(%"class.v8::Object"* %16, i32 1) #4
  br label %79

79:                                               ; preds = %73, %77
  %80 = phi i8* [ %76, %73 ], [ %78, %77 ]
  %81 = bitcast i8* %80 to %"class.blink::UnderlyingSinkBase"*
  %82 = call %"class.v8::Context"* @_ZN2v86Object15CreationContextEv(%"class.v8::Object"* %16) #4
  %83 = call %"class.blink::ScriptState"* @_ZN5blink11ScriptState4FromEN2v85LocalINS1_7ContextEEE(%"class.v8::Context"* %82)
  %84 = bitcast %"class.blink::ScriptValue"* %5 to i8*
  call void @llvm.lifetime.start.p0i8(i64 24, i8* nonnull %84) #4
  %85 = load i32, i32* %39, align 8
  %86 = icmp sgt i32 %85, 0
  br i1 %86, label %93, label %87

87:                                               ; preds = %79
  %88 = load i64*, i64** %8, align 8
  %89 = getelementptr inbounds i64, i64* %88, i64 1
  %90 = load i64, i64* %89, align 8
  %91 = add i64 %90, 160
  %92 = inttoptr i64 %91 to %"class.v8::Value"*
  br label %96

93:                                               ; preds = %79
  %94 = bitcast i64** %13 to %"class.v8::Value"**
  %95 = load %"class.v8::Value"*, %"class.v8::Value"** %94, align 8
  br label %96

96:                                               ; preds = %87, %93
  %97 = phi %"class.v8::Value"* [ %92, %87 ], [ %95, %93 ]
  %98 = getelementptr inbounds %"class.blink::ScriptValue", %"class.blink::ScriptValue"* %5, i64 0, i32 0
  store %"class.v8::Isolate"* %12, %"class.v8::Isolate"** %98, align 8, !alias.scope !3
  %99 = getelementptr inbounds %"class.blink::ScriptValue", %"class.blink::ScriptValue"* %5, i64 0, i32 1
  call void @_ZN5blink20WorldSafeV8ReferenceIN2v85ValueEEC2EPNS1_7IsolateENS1_5LocalIS2_EE(%"class.blink::WorldSafeV8Reference"* %99, %"class.v8::Isolate"* %12, %"class.v8::Value"* %97) #4
  %100 = load i32, i32* %25, align 8
  %101 = icmp eq i32 %100, 0
  br i1 %101, label %102, label %160

102:                                              ; preds = %96
  %103 = bitcast %"class.blink::ScriptPromise"* %6 to i8*
  call void @llvm.lifetime.start.p0i8(i64 32, i8* nonnull %103) #4
  %104 = bitcast %"class.blink::ScriptValue"* %5 to i64*
  %105 = load i64, i64* %104, align 8
  %106 = bitcast %"class.blink::ScriptValue"* %7 to i64*
  store i64 %105, i64* %106, align 8
  %107 = getelementptr inbounds %"class.blink::ScriptValue", %"class.blink::ScriptValue"* %7, i64 0, i32 1
  %108 = getelementptr inbounds %"class.blink::WorldSafeV8Reference", %"class.blink::WorldSafeV8Reference"* %107, i64 0, i32 0
  %109 = getelementptr inbounds %"class.blink::WorldSafeV8Reference", %"class.blink::WorldSafeV8Reference"* %107, i64 0, i32 0, i32 0, i32 0, i32 0, i32 0
  store i64* null, i64** %109, align 8
  %110 = getelementptr inbounds %"class.blink::ScriptValue", %"class.blink::ScriptValue"* %5, i64 0, i32 1, i32 0, i32 0, i32 0, i32 0, i32 0
  %111 = load i64*, i64** %110, align 8
  %112 = icmp eq i64* %111, null
  br i1 %112, label %114, label %113

113:                                              ; preds = %102
  call void @_ZN2v82V825CopyTracedGlobalReferenceEPKPKmPPm(i64** %110, i64** %109) #4
  br label %114

114:                                              ; preds = %113, %102
  call void @_ZN5blink25UnifiedHeapMarkingVisitor12WriteBarrierERKNS_23TraceWrapperV8ReferenceIN2v85ValueEEE(%"class.blink::TraceWrapperV8Reference.189"* dereferenceable(8) %108) #4
  %115 = getelementptr inbounds %"class.blink::ScriptValue", %"class.blink::ScriptValue"* %5, i64 0, i32 1, i32 1, i32 0
  %116 = load %"class.blink::DOMWrapperWorld"*, %"class.blink::DOMWrapperWorld"** %115, align 8
  %117 = getelementptr inbounds %"class.blink::ScriptValue", %"class.blink::ScriptValue"* %7, i64 0, i32 1, i32 1, i32 0
  store %"class.blink::DOMWrapperWorld"* %116, %"class.blink::DOMWrapperWorld"** %117, align 8
  %118 = icmp eq %"class.blink::DOMWrapperWorld"* %116, null
  br i1 %118, label %121, label %119

119:                                              ; preds = %114
  %120 = getelementptr inbounds %"class.blink::DOMWrapperWorld", %"class.blink::DOMWrapperWorld"* %116, i64 0, i32 0, i32 0, i32 0
  call void @_ZNK4base6subtle14RefCountedBase10AddRefImplEv(%"class.base::subtle::RefCountedBase"* %120) #4
  br label %121

121:                                              ; preds = %114, %119
  %122 = bitcast i8* %80 to void (%"class.blink::ScriptPromise"*, %"class.blink::UnderlyingSinkBase"*, %"class.blink::ScriptState"*, %"class.blink::ScriptValue"*, %"class.blink::ExceptionState"*)***
  %123 = load void (%"class.blink::ScriptPromise"*, %"class.blink::UnderlyingSinkBase"*, %"class.blink::ScriptState"*, %"class.blink::ScriptValue"*, %"class.blink::ExceptionState"*)**, void (%"class.blink::ScriptPromise"*, %"class.blink::UnderlyingSinkBase"*, %"class.blink::ScriptState"*, %"class.blink::ScriptValue"*, %"class.blink::ExceptionState"*)*** %122, align 8
  %124 = getelementptr inbounds void (%"class.blink::ScriptPromise"*, %"class.blink::UnderlyingSinkBase"*, %"class.blink::ScriptState"*, %"class.blink::ScriptValue"*, %"class.blink::ExceptionState"*)*, void (%"class.blink::ScriptPromise"*, %"class.blink::UnderlyingSinkBase"*, %"class.blink::ScriptState"*, %"class.blink::ScriptValue"*, %"class.blink::ExceptionState"*)** %123, i64 12
  %125 = load void (%"class.blink::ScriptPromise"*, %"class.blink::UnderlyingSinkBase"*, %"class.blink::ScriptState"*, %"class.blink::ScriptValue"*, %"class.blink::ExceptionState"*)*, void (%"class.blink::ScriptPromise"*, %"class.blink::UnderlyingSinkBase"*, %"class.blink::ScriptState"*, %"class.blink::ScriptValue"*, %"class.blink::ExceptionState"*)** %124, align 8
  call void %125(%"class.blink::ScriptPromise"* nonnull sret %6, %"class.blink::UnderlyingSinkBase"* %81, %"class.blink::ScriptState"* %83, %"class.blink::ScriptValue"* nonnull %7, %"class.blink::ExceptionState"* nonnull dereferenceable(72) %2) #4
  %126 = load %"class.blink::DOMWrapperWorld"*, %"class.blink::DOMWrapperWorld"** %117, align 8
  %127 = icmp eq %"class.blink::DOMWrapperWorld"* %126, null
  br i1 %127, label %135, label %128

128:                                              ; preds = %121
  %129 = getelementptr inbounds %"class.blink::DOMWrapperWorld", %"class.blink::DOMWrapperWorld"* %126, i64 0, i32 0, i32 0, i32 0
  call void @_ZNK4base6subtle14RefCountedBase11ReleaseImplEv(%"class.base::subtle::RefCountedBase"* %129) #4
  %130 = getelementptr inbounds %"class.blink::DOMWrapperWorld", %"class.blink::DOMWrapperWorld"* %126, i64 0, i32 0, i32 0, i32 0, i32 0
  %131 = load i32, i32* %130, align 4
  %132 = icmp eq i32 %131, 0
  br i1 %132, label %133, label %135

133:                                              ; preds = %128
  call void @_ZN5blink15DOMWrapperWorldD1Ev(%"class.blink::DOMWrapperWorld"* nonnull %126) #4
  %134 = bitcast %"class.blink::DOMWrapperWorld"* %126 to i8*
  call void @free(i8* %134) #4
  br label %135

135:                                              ; preds = %121, %128, %133
  %136 = load i32, i32* %25, align 8
  %137 = icmp eq i32 %136, 0
  br i1 %137, label %138, label %148

138:                                              ; preds = %135
  %139 = getelementptr inbounds %"class.blink::ScriptPromise", %"class.blink::ScriptPromise"* %6, i64 0, i32 1
  %140 = call %"class.v8::Value"* @_ZNK5blink11ScriptValue7V8ValueEv(%"class.blink::ScriptValue"* %139) #4
  %141 = load i64*, i64** %8, align 8
  %142 = getelementptr inbounds i64, i64* %141, i64 3
  %143 = icmp eq %"class.v8::Value"* %140, null
  %144 = bitcast %"class.v8::Value"* %140 to i64*
  %145 = getelementptr inbounds i64, i64* %141, i64 2
  %146 = select i1 %143, i64* %145, i64* %144, !prof !2
  %147 = load i64, i64* %146, align 8
  store i64 %147, i64* %142, align 8
  br label %148

148:                                              ; preds = %135, %138
  %149 = getelementptr inbounds %"class.blink::ScriptPromise", %"class.blink::ScriptPromise"* %6, i64 0, i32 1, i32 1, i32 1, i32 0
  %150 = load %"class.blink::DOMWrapperWorld"*, %"class.blink::DOMWrapperWorld"** %149, align 8
  %151 = icmp eq %"class.blink::DOMWrapperWorld"* %150, null
  br i1 %151, label %159, label %152

152:                                              ; preds = %148
  %153 = getelementptr inbounds %"class.blink::DOMWrapperWorld", %"class.blink::DOMWrapperWorld"* %150, i64 0, i32 0, i32 0, i32 0
  call void @_ZNK4base6subtle14RefCountedBase11ReleaseImplEv(%"class.base::subtle::RefCountedBase"* %153) #4
  %154 = getelementptr inbounds %"class.blink::DOMWrapperWorld", %"class.blink::DOMWrapperWorld"* %150, i64 0, i32 0, i32 0, i32 0, i32 0
  %155 = load i32, i32* %154, align 4
  %156 = icmp eq i32 %155, 0
  br i1 %156, label %157, label %159

157:                                              ; preds = %152
  call void @_ZN5blink15DOMWrapperWorldD1Ev(%"class.blink::DOMWrapperWorld"* nonnull %150) #4
  %158 = bitcast %"class.blink::DOMWrapperWorld"* %150 to i8*
  call void @free(i8* %158) #4
  br label %159

159:                                              ; preds = %148, %152, %157
  call void @llvm.lifetime.end.p0i8(i64 32, i8* nonnull %103) #4
  br label %160

160:                                              ; preds = %96, %159
  %161 = getelementptr inbounds %"class.blink::ScriptValue", %"class.blink::ScriptValue"* %5, i64 0, i32 1, i32 1, i32 0
  %162 = load %"class.blink::DOMWrapperWorld"*, %"class.blink::DOMWrapperWorld"** %161, align 8
  %163 = icmp eq %"class.blink::DOMWrapperWorld"* %162, null
  br i1 %163, label %171, label %164

164:                                              ; preds = %160
  %165 = getelementptr inbounds %"class.blink::DOMWrapperWorld", %"class.blink::DOMWrapperWorld"* %162, i64 0, i32 0, i32 0, i32 0
  call void @_ZNK4base6subtle14RefCountedBase11ReleaseImplEv(%"class.base::subtle::RefCountedBase"* %165) #4
  %166 = getelementptr inbounds %"class.blink::DOMWrapperWorld", %"class.blink::DOMWrapperWorld"* %162, i64 0, i32 0, i32 0, i32 0, i32 0
  %167 = load i32, i32* %166, align 4
  %168 = icmp eq i32 %167, 0
  br i1 %168, label %169, label %171

169:                                              ; preds = %164
  call void @_ZN5blink15DOMWrapperWorldD1Ev(%"class.blink::DOMWrapperWorld"* nonnull %162) #4
  %170 = bitcast %"class.blink::DOMWrapperWorld"* %162 to i8*
  call void @free(i8* %170) #4
  br label %171

171:                                              ; preds = %160, %164, %169
  call void @llvm.lifetime.end.p0i8(i64 24, i8* nonnull %84) #4
  br label %172

172:                                              ; preds = %171, %61, %37
  call void @_ZN5blink29ExceptionToRejectPromiseScopeD2Ev(%"class.blink::ExceptionToRejectPromiseScope"* nonnull %3) #4
  call void @llvm.lifetime.end.p0i8(i64 16, i8* nonnull %28) #4
  store i32 (...)** bitcast (i8** getelementptr inbounds ({ [9 x i8*] }, { [9 x i8*] }* @_ZTVN5blink14ExceptionStateE, i64 0, inrange i32 0, i64 2) to i32 (...)**), i32 (...)*** %18, align 8
  %173 = getelementptr inbounds %"class.blink::ExceptionState", %"class.blink::ExceptionState"* %2, i64 0, i32 6, i32 0, i32 0, i32 0, i32 0
  %174 = load i64*, i64** %173, align 8
  %175 = icmp eq i64* %174, null
  br i1 %175, label %185, label %176

176:                                              ; preds = %172
  %177 = load %"class.v8::Isolate"*, %"class.v8::Isolate"** %24, align 8
  %178 = bitcast %"class.v8::Isolate"* %177 to %"class.v8::internal::Isolate"*
  %179 = load i64, i64* %174, align 8
  %180 = call i64* @_ZN2v811HandleScope12CreateHandleEPNS_8internal7IsolateEm(%"class.v8::internal::Isolate"* %178, i64 %179) #4
  %181 = call zeroext i1 @_ZN2v87Isolate22IsExecutionTerminatingEv(%"class.v8::Isolate"* %177) #4
  br i1 %181, label %185, label %182

182:                                              ; preds = %176
  %183 = bitcast i64* %180 to %"class.v8::Value"*
  %184 = call %"class.v8::Value"* @_ZN2v87Isolate14ThrowExceptionENS_5LocalINS_5ValueEEE(%"class.v8::Isolate"* %177, %"class.v8::Value"* %183) #4
  br label %185

185:                                              ; preds = %182, %176, %172
  %186 = load %"class.WTF::StringImpl"*, %"class.WTF::StringImpl"** %26, align 8
  %187 = icmp eq %"class.WTF::StringImpl"* %186, null
  br i1 %187, label %201, label %188

188:                                              ; preds = %185
  %189 = getelementptr inbounds %"class.WTF::StringImpl", %"class.WTF::StringImpl"* %186, i64 0, i32 2, i32 0, i32 0, i32 0, i32 0, i32 0
  %190 = load atomic i32, i32* %189 monotonic, align 4
  %191 = and i32 %190, 2
  %192 = icmp eq i32 %191, 0
  %193 = getelementptr inbounds %"class.WTF::StringImpl", %"class.WTF::StringImpl"* %186, i64 0, i32 0
  %194 = load i32, i32* %193, align 4
  br i1 %192, label %195, label %197

195:                                              ; preds = %188
  %196 = add i32 %194, -1
  store i32 %196, i32* %193, align 4
  br label %197

197:                                              ; preds = %195, %188
  %198 = phi i32 [ %196, %195 ], [ %194, %188 ]
  %199 = icmp eq i32 %198, 0
  br i1 %199, label %200, label %201

200:                                              ; preds = %197
  call void @_ZNK3WTF10StringImpl18DestroyIfNotStaticEv(%"class.WTF::StringImpl"* nonnull %186) #4
  br label %201

201:                                              ; preds = %185, %197, %200
  call void @llvm.lifetime.end.p0i8(i64 72, i8* nonnull %17) #4
  ret void
}

; Function Attrs: nounwind ssp uwtable
define internal void @_ZN5blink12_GLOBAL__N_123v8_underlying_sink_base22CloseOperationCallbackERKN2v820FunctionCallbackInfoINS2_5ValueEEE(%"class.v8::FunctionCallbackInfo"* dereferenceable(24)) #0 {
  %2 = alloca %"class.blink::ExceptionState", align 8
  %3 = alloca %"class.blink::ExceptionToRejectPromiseScope", align 8
  %4 = alloca %"class.blink::ScriptPromise", align 8
  %5 = getelementptr inbounds %"class.v8::FunctionCallbackInfo", %"class.v8::FunctionCallbackInfo"* %0, i64 0, i32 0
  %6 = load i64*, i64** %5, align 8
  %7 = getelementptr inbounds i64, i64* %6, i64 1
  %8 = bitcast i64* %7 to %"class.v8::Isolate"**
  %9 = load %"class.v8::Isolate"*, %"class.v8::Isolate"** %8, align 8
  %10 = getelementptr inbounds %"class.v8::FunctionCallbackInfo", %"class.v8::FunctionCallbackInfo"* %0, i64 0, i32 1
  %11 = load i64*, i64** %10, align 8
  %12 = getelementptr inbounds i64, i64* %11, i64 -1
  %13 = bitcast i64* %12 to %"class.v8::Object"*
  %14 = bitcast %"class.blink::ExceptionState"* %2 to i8*
  call void @llvm.lifetime.start.p0i8(i64 72, i8* nonnull %14) #4
  call void @llvm.memset.p0i8.i64(i8* nonnull align 8 %14, i8 -86, i64 56, i1 false)
  %15 = getelementptr inbounds %"class.blink::ExceptionState", %"class.blink::ExceptionState"* %2, i64 0, i32 0
  store i32 (...)** bitcast (i8** getelementptr inbounds ({ [9 x i8*] }, { [9 x i8*] }* @_ZTVN5blink14ExceptionStateE, i64 0, inrange i32 0, i64 2) to i32 (...)**), i32 (...)*** %15, align 8
  %16 = getelementptr inbounds %"class.blink::ExceptionState", %"class.blink::ExceptionState"* %2, i64 0, i32 1, i32 0
  store i16 6, i16* %16, align 8
  %17 = getelementptr inbounds %"class.blink::ExceptionState", %"class.blink::ExceptionState"* %2, i64 0, i32 1, i32 1
  store i16 0, i16* %17, align 2
  %18 = getelementptr inbounds %"class.blink::ExceptionState", %"class.blink::ExceptionState"* %2, i64 0, i32 1, i32 2
  %19 = bitcast i8** %18 to <2 x i8*>*
  store <2 x i8*> <i8* getelementptr inbounds ([19 x i8], [19 x i8]* @.str, i64 0, i64 0), i8* getelementptr inbounds ([6 x i8], [6 x i8]* @.str.2, i64 0, i64 0)>, <2 x i8*>* %19, align 8
  %20 = getelementptr inbounds %"class.blink::ExceptionState", %"class.blink::ExceptionState"* %2, i64 0, i32 2
  store %"class.blink::ExceptionState::ContextScope"* null, %"class.blink::ExceptionState::ContextScope"** %20, align 8
  %21 = getelementptr inbounds %"class.blink::ExceptionState", %"class.blink::ExceptionState"* %2, i64 0, i32 3
  store %"class.v8::Isolate"* %9, %"class.v8::Isolate"** %21, align 8
  %22 = getelementptr inbounds %"class.blink::ExceptionState", %"class.blink::ExceptionState"* %2, i64 0, i32 4
  store i32 0, i32* %22, align 8
  %23 = getelementptr inbounds %"class.blink::ExceptionState", %"class.blink::ExceptionState"* %2, i64 0, i32 5, i32 0, i32 0
  %24 = bitcast %"class.WTF::StringImpl"** %23 to i8*
  call void @llvm.memset.p0i8.i64(i8* align 8 %24, i8 0, i64 16, i1 false) #4
  %25 = bitcast %"class.blink::ExceptionToRejectPromiseScope"* %3 to i8*
  call void @llvm.lifetime.start.p0i8(i64 16, i8* nonnull %25) #4
  %26 = getelementptr inbounds %"class.blink::ExceptionToRejectPromiseScope", %"class.blink::ExceptionToRejectPromiseScope"* %3, i64 0, i32 0
  %27 = getelementptr inbounds %"class.blink::ExceptionToRejectPromiseScope", %"class.blink::ExceptionToRejectPromiseScope"* %3, i64 0, i32 1
  store %"class.v8::FunctionCallbackInfo"* %0, %"class.v8::FunctionCallbackInfo"** %26, align 8
  store %"class.blink::ExceptionState"* %2, %"class.blink::ExceptionState"** %27, align 8
  %28 = bitcast i64* %12 to %"class.v8::Value"*
  %29 = ptrtoint %"class.v8::Isolate"* %9 to i64
  %30 = add i64 %29, 8
  %31 = inttoptr i64 %30 to %"class.blink::V8PerIsolateData"**
  %32 = load %"class.blink::V8PerIsolateData"*, %"class.blink::V8PerIsolateData"** %31, align 8
  %33 = call zeroext i1 @_ZN5blink16V8PerIsolateData11HasInstanceEPKNS_15WrapperTypeInfoEN2v85LocalINS4_5ValueEEE(%"class.blink::V8PerIsolateData"* %32, %"struct.blink::WrapperTypeInfo"* nonnull @_ZN5blink20V8UnderlyingSinkBase18wrapper_type_info_E, %"class.v8::Value"* %28) #4
  br i1 %33, label %35, label %34

34:                                               ; preds = %1
  call void @_ZN5blink14ExceptionState14ThrowTypeErrorEPKc(%"class.blink::ExceptionState"* nonnull %2, i8* getelementptr inbounds ([19 x i8], [19 x i8]* @.str.6, i64 0, i64 0)) #4
  br label %86

35:                                               ; preds = %1
  %36 = load i64, i64* %12, align 8
  %37 = add i64 %36, -1
  %38 = inttoptr i64 %37 to i32*
  %39 = load i32, i32* %38, align 4
  %40 = and i64 %36, -4294967296
  %41 = zext i32 %39 to i64
  %42 = or i64 %40, %41
  %43 = add i64 %42, 7
  %44 = inttoptr i64 %43 to i16*
  %45 = load i16, i16* %44, align 2
  switch i16 %45, label %50 [
    i16 1057, label %46
    i16 1056, label %46
    i16 1040, label %46
  ]

46:                                               ; preds = %35, %35, %35
  %47 = add i64 %36, 19
  %48 = inttoptr i64 %47 to i8**
  %49 = load i8*, i8** %48, align 1
  br label %52

50:                                               ; preds = %35
  %51 = call i8* @_ZN2v86Object38SlowGetAlignedPointerFromInternalFieldEi(%"class.v8::Object"* %13, i32 1) #4
  br label %52

52:                                               ; preds = %46, %50
  %53 = phi i8* [ %49, %46 ], [ %51, %50 ]
  %54 = bitcast i8* %53 to %"class.blink::UnderlyingSinkBase"*
  %55 = call %"class.v8::Context"* @_ZN2v86Object15CreationContextEv(%"class.v8::Object"* %13) #4
  %56 = call %"class.blink::ScriptState"* @_ZN5blink11ScriptState4FromEN2v85LocalINS1_7ContextEEE(%"class.v8::Context"* %55)
  %57 = bitcast %"class.blink::ScriptPromise"* %4 to i8*
  call void @llvm.lifetime.start.p0i8(i64 32, i8* nonnull %57) #4
  %58 = bitcast i8* %53 to void (%"class.blink::ScriptPromise"*, %"class.blink::UnderlyingSinkBase"*, %"class.blink::ScriptState"*, %"class.blink::ExceptionState"*)***
  %59 = load void (%"class.blink::ScriptPromise"*, %"class.blink::UnderlyingSinkBase"*, %"class.blink::ScriptState"*, %"class.blink::ExceptionState"*)**, void (%"class.blink::ScriptPromise"*, %"class.blink::UnderlyingSinkBase"*, %"class.blink::ScriptState"*, %"class.blink::ExceptionState"*)*** %58, align 8
  %60 = getelementptr inbounds void (%"class.blink::ScriptPromise"*, %"class.blink::UnderlyingSinkBase"*, %"class.blink::ScriptState"*, %"class.blink::ExceptionState"*)*, void (%"class.blink::ScriptPromise"*, %"class.blink::UnderlyingSinkBase"*, %"class.blink::ScriptState"*, %"class.blink::ExceptionState"*)** %59, i64 11
  %61 = load void (%"class.blink::ScriptPromise"*, %"class.blink::UnderlyingSinkBase"*, %"class.blink::ScriptState"*, %"class.blink::ExceptionState"*)*, void (%"class.blink::ScriptPromise"*, %"class.blink::UnderlyingSinkBase"*, %"class.blink::ScriptState"*, %"class.blink::ExceptionState"*)** %60, align 8
  call void %61(%"class.blink::ScriptPromise"* nonnull sret %4, %"class.blink::UnderlyingSinkBase"* %54, %"class.blink::ScriptState"* %56, %"class.blink::ExceptionState"* nonnull dereferenceable(72) %2) #4
  %62 = load i32, i32* %22, align 8
  %63 = icmp eq i32 %62, 0
  br i1 %63, label %64, label %74

64:                                               ; preds = %52
  %65 = getelementptr inbounds %"class.blink::ScriptPromise", %"class.blink::ScriptPromise"* %4, i64 0, i32 1
  %66 = call %"class.v8::Value"* @_ZNK5blink11ScriptValue7V8ValueEv(%"class.blink::ScriptValue"* %65) #4
  %67 = load i64*, i64** %5, align 8
  %68 = getelementptr inbounds i64, i64* %67, i64 3
  %69 = icmp eq %"class.v8::Value"* %66, null
  %70 = bitcast %"class.v8::Value"* %66 to i64*
  %71 = getelementptr inbounds i64, i64* %67, i64 2
  %72 = select i1 %69, i64* %71, i64* %70, !prof !2
  %73 = load i64, i64* %72, align 8
  store i64 %73, i64* %68, align 8
  br label %74

74:                                               ; preds = %52, %64
  %75 = getelementptr inbounds %"class.blink::ScriptPromise", %"class.blink::ScriptPromise"* %4, i64 0, i32 1, i32 1, i32 1, i32 0
  %76 = load %"class.blink::DOMWrapperWorld"*, %"class.blink::DOMWrapperWorld"** %75, align 8
  %77 = icmp eq %"class.blink::DOMWrapperWorld"* %76, null
  br i1 %77, label %85, label %78

78:                                               ; preds = %74
  %79 = getelementptr inbounds %"class.blink::DOMWrapperWorld", %"class.blink::DOMWrapperWorld"* %76, i64 0, i32 0, i32 0, i32 0
  call void @_ZNK4base6subtle14RefCountedBase11ReleaseImplEv(%"class.base::subtle::RefCountedBase"* %79) #4
  %80 = getelementptr inbounds %"class.blink::DOMWrapperWorld", %"class.blink::DOMWrapperWorld"* %76, i64 0, i32 0, i32 0, i32 0, i32 0
  %81 = load i32, i32* %80, align 4
  %82 = icmp eq i32 %81, 0
  br i1 %82, label %83, label %85

83:                                               ; preds = %78
  call void @_ZN5blink15DOMWrapperWorldD1Ev(%"class.blink::DOMWrapperWorld"* nonnull %76) #4
  %84 = bitcast %"class.blink::DOMWrapperWorld"* %76 to i8*
  call void @free(i8* %84) #4
  br label %85

85:                                               ; preds = %74, %78, %83
  call void @llvm.lifetime.end.p0i8(i64 32, i8* nonnull %57) #4
  br label %86

86:                                               ; preds = %85, %34
  call void @_ZN5blink29ExceptionToRejectPromiseScopeD2Ev(%"class.blink::ExceptionToRejectPromiseScope"* nonnull %3) #4
  call void @llvm.lifetime.end.p0i8(i64 16, i8* nonnull %25) #4
  store i32 (...)** bitcast (i8** getelementptr inbounds ({ [9 x i8*] }, { [9 x i8*] }* @_ZTVN5blink14ExceptionStateE, i64 0, inrange i32 0, i64 2) to i32 (...)**), i32 (...)*** %15, align 8
  %87 = getelementptr inbounds %"class.blink::ExceptionState", %"class.blink::ExceptionState"* %2, i64 0, i32 6, i32 0, i32 0, i32 0, i32 0
  %88 = load i64*, i64** %87, align 8
  %89 = icmp eq i64* %88, null
  br i1 %89, label %99, label %90

90:                                               ; preds = %86
  %91 = load %"class.v8::Isolate"*, %"class.v8::Isolate"** %21, align 8
  %92 = bitcast %"class.v8::Isolate"* %91 to %"class.v8::internal::Isolate"*
  %93 = load i64, i64* %88, align 8
  %94 = call i64* @_ZN2v811HandleScope12CreateHandleEPNS_8internal7IsolateEm(%"class.v8::internal::Isolate"* %92, i64 %93) #4
  %95 = call zeroext i1 @_ZN2v87Isolate22IsExecutionTerminatingEv(%"class.v8::Isolate"* %91) #4
  br i1 %95, label %99, label %96

96:                                               ; preds = %90
  %97 = bitcast i64* %94 to %"class.v8::Value"*
  %98 = call %"class.v8::Value"* @_ZN2v87Isolate14ThrowExceptionENS_5LocalINS_5ValueEEE(%"class.v8::Isolate"* %91, %"class.v8::Value"* %97) #4
  br label %99

99:                                               ; preds = %96, %90, %86
  %100 = load %"class.WTF::StringImpl"*, %"class.WTF::StringImpl"** %23, align 8
  %101 = icmp eq %"class.WTF::StringImpl"* %100, null
  br i1 %101, label %115, label %102

102:                                              ; preds = %99
  %103 = getelementptr inbounds %"class.WTF::StringImpl", %"class.WTF::StringImpl"* %100, i64 0, i32 2, i32 0, i32 0, i32 0, i32 0, i32 0
  %104 = load atomic i32, i32* %103 monotonic, align 4
  %105 = and i32 %104, 2
  %106 = icmp eq i32 %105, 0
  %107 = getelementptr inbounds %"class.WTF::StringImpl", %"class.WTF::StringImpl"* %100, i64 0, i32 0
  %108 = load i32, i32* %107, align 4
  br i1 %106, label %109, label %111

109:                                              ; preds = %102
  %110 = add i32 %108, -1
  store i32 %110, i32* %107, align 4
  br label %111

111:                                              ; preds = %109, %102
  %112 = phi i32 [ %110, %109 ], [ %108, %102 ]
  %113 = icmp eq i32 %112, 0
  br i1 %113, label %114, label %115

114:                                              ; preds = %111
  call void @_ZNK3WTF10StringImpl18DestroyIfNotStaticEv(%"class.WTF::StringImpl"* nonnull %100) #4
  br label %115

115:                                              ; preds = %99, %111, %114
  call void @llvm.lifetime.end.p0i8(i64 72, i8* nonnull %14) #4
  ret void
}

; Function Attrs: nounwind ssp uwtable
define internal void @_ZN5blink12_GLOBAL__N_123v8_underlying_sink_base22StartOperationCallbackERKN2v820FunctionCallbackInfoINS2_5ValueEEE(%"class.v8::FunctionCallbackInfo"* dereferenceable(24)) #0 {
  %2 = alloca %"class.blink::ExceptionState", align 8
  %3 = alloca %"class.blink::ExceptionToRejectPromiseScope", align 8
  %4 = alloca %"class.WTF::String", align 8
  %5 = alloca %"class.blink::ScriptValue", align 8
  %6 = alloca %"class.blink::ScriptPromise", align 8
  %7 = alloca %"class.blink::ScriptValue", align 8
  %8 = getelementptr inbounds %"class.v8::FunctionCallbackInfo", %"class.v8::FunctionCallbackInfo"* %0, i64 0, i32 0
  %9 = load i64*, i64** %8, align 8
  %10 = getelementptr inbounds i64, i64* %9, i64 1
  %11 = bitcast i64* %10 to %"class.v8::Isolate"**
  %12 = load %"class.v8::Isolate"*, %"class.v8::Isolate"** %11, align 8
  %13 = getelementptr inbounds %"class.v8::FunctionCallbackInfo", %"class.v8::FunctionCallbackInfo"* %0, i64 0, i32 1
  %14 = load i64*, i64** %13, align 8
  %15 = getelementptr inbounds i64, i64* %14, i64 -1
  %16 = bitcast i64* %15 to %"class.v8::Object"*
  %17 = bitcast %"class.blink::ExceptionState"* %2 to i8*
  call void @llvm.lifetime.start.p0i8(i64 72, i8* nonnull %17) #4
  call void @llvm.memset.p0i8.i64(i8* nonnull align 8 %17, i8 -86, i64 56, i1 false)
  %18 = getelementptr inbounds %"class.blink::ExceptionState", %"class.blink::ExceptionState"* %2, i64 0, i32 0
  store i32 (...)** bitcast (i8** getelementptr inbounds ({ [9 x i8*] }, { [9 x i8*] }* @_ZTVN5blink14ExceptionStateE, i64 0, inrange i32 0, i64 2) to i32 (...)**), i32 (...)*** %18, align 8
  %19 = getelementptr inbounds %"class.blink::ExceptionState", %"class.blink::ExceptionState"* %2, i64 0, i32 1, i32 0
  store i16 6, i16* %19, align 8
  %20 = getelementptr inbounds %"class.blink::ExceptionState", %"class.blink::ExceptionState"* %2, i64 0, i32 1, i32 1
  store i16 0, i16* %20, align 2
  %21 = getelementptr inbounds %"class.blink::ExceptionState", %"class.blink::ExceptionState"* %2, i64 0, i32 1, i32 2
  %22 = bitcast i8** %21 to <2 x i8*>*
  store <2 x i8*> <i8* getelementptr inbounds ([19 x i8], [19 x i8]* @.str, i64 0, i64 0), i8* getelementptr inbounds ([6 x i8], [6 x i8]* @.str.3, i64 0, i64 0)>, <2 x i8*>* %22, align 8
  %23 = getelementptr inbounds %"class.blink::ExceptionState", %"class.blink::ExceptionState"* %2, i64 0, i32 2
  store %"class.blink::ExceptionState::ContextScope"* null, %"class.blink::ExceptionState::ContextScope"** %23, align 8
  %24 = getelementptr inbounds %"class.blink::ExceptionState", %"class.blink::ExceptionState"* %2, i64 0, i32 3
  store %"class.v8::Isolate"* %12, %"class.v8::Isolate"** %24, align 8
  %25 = getelementptr inbounds %"class.blink::ExceptionState", %"class.blink::ExceptionState"* %2, i64 0, i32 4
  store i32 0, i32* %25, align 8
  %26 = getelementptr inbounds %"class.blink::ExceptionState", %"class.blink::ExceptionState"* %2, i64 0, i32 5, i32 0, i32 0
  %27 = bitcast %"class.WTF::StringImpl"** %26 to i8*
  call void @llvm.memset.p0i8.i64(i8* align 8 %27, i8 0, i64 16, i1 false) #4
  %28 = bitcast %"class.blink::ExceptionToRejectPromiseScope"* %3 to i8*
  call void @llvm.lifetime.start.p0i8(i64 16, i8* nonnull %28) #4
  %29 = getelementptr inbounds %"class.blink::ExceptionToRejectPromiseScope", %"class.blink::ExceptionToRejectPromiseScope"* %3, i64 0, i32 0
  %30 = getelementptr inbounds %"class.blink::ExceptionToRejectPromiseScope", %"class.blink::ExceptionToRejectPromiseScope"* %3, i64 0, i32 1
  store %"class.v8::FunctionCallbackInfo"* %0, %"class.v8::FunctionCallbackInfo"** %29, align 8
  store %"class.blink::ExceptionState"* %2, %"class.blink::ExceptionState"** %30, align 8
  %31 = bitcast i64* %15 to %"class.v8::Value"*
  %32 = ptrtoint %"class.v8::Isolate"* %12 to i64
  %33 = add i64 %32, 8
  %34 = inttoptr i64 %33 to %"class.blink::V8PerIsolateData"**
  %35 = load %"class.blink::V8PerIsolateData"*, %"class.blink::V8PerIsolateData"** %34, align 8
  %36 = call zeroext i1 @_ZN5blink16V8PerIsolateData11HasInstanceEPKNS_15WrapperTypeInfoEN2v85LocalINS4_5ValueEEE(%"class.blink::V8PerIsolateData"* %35, %"struct.blink::WrapperTypeInfo"* nonnull @_ZN5blink20V8UnderlyingSinkBase18wrapper_type_info_E, %"class.v8::Value"* %31) #4
  br i1 %36, label %38, label %37

37:                                               ; preds = %1
  call void @_ZN5blink14ExceptionState14ThrowTypeErrorEPKc(%"class.blink::ExceptionState"* nonnull %2, i8* getelementptr inbounds ([19 x i8], [19 x i8]* @.str.6, i64 0, i64 0)) #4
  br label %168

38:                                               ; preds = %1
  %39 = getelementptr inbounds %"class.v8::FunctionCallbackInfo", %"class.v8::FunctionCallbackInfo"* %0, i64 0, i32 2
  %40 = load i32, i32* %39, align 8
  %41 = icmp slt i32 %40, 1
  br i1 %41, label %42, label %62, !prof !2

42:                                               ; preds = %38
  %43 = bitcast %"class.WTF::String"* %4 to i8*
  call void @llvm.lifetime.start.p0i8(i64 8, i8* nonnull %43) #4
  %44 = call %"class.WTF::StringImpl"* @_ZN5blink17ExceptionMessages18NotEnoughArgumentsEjj(i32 1, i32 %40) #4
  %45 = getelementptr inbounds %"class.WTF::String", %"class.WTF::String"* %4, i64 0, i32 0, i32 0
  store %"class.WTF::StringImpl"* %44, %"class.WTF::StringImpl"** %45, align 8
  call void @_ZN5blink14ExceptionState14ThrowTypeErrorERKN3WTF6StringE(%"class.blink::ExceptionState"* nonnull %2, %"class.WTF::String"* nonnull dereferenceable(8) %4) #4
  %46 = load %"class.WTF::StringImpl"*, %"class.WTF::StringImpl"** %45, align 8
  %47 = icmp eq %"class.WTF::StringImpl"* %46, null
  br i1 %47, label %61, label %48

48:                                               ; preds = %42
  %49 = getelementptr inbounds %"class.WTF::StringImpl", %"class.WTF::StringImpl"* %46, i64 0, i32 2, i32 0, i32 0, i32 0, i32 0, i32 0
  %50 = load atomic i32, i32* %49 monotonic, align 4
  %51 = and i32 %50, 2
  %52 = icmp eq i32 %51, 0
  %53 = getelementptr inbounds %"class.WTF::StringImpl", %"class.WTF::StringImpl"* %46, i64 0, i32 0
  %54 = load i32, i32* %53, align 4
  br i1 %52, label %55, label %57

55:                                               ; preds = %48
  %56 = add i32 %54, -1
  store i32 %56, i32* %53, align 4
  br label %57

57:                                               ; preds = %55, %48
  %58 = phi i32 [ %56, %55 ], [ %54, %48 ]
  %59 = icmp eq i32 %58, 0
  br i1 %59, label %60, label %61

60:                                               ; preds = %57
  call void @_ZNK3WTF10StringImpl18DestroyIfNotStaticEv(%"class.WTF::StringImpl"* nonnull %46) #4
  br label %61

61:                                               ; preds = %42, %57, %60
  call void @llvm.lifetime.end.p0i8(i64 8, i8* nonnull %43) #4
  br label %168

62:                                               ; preds = %38
  %63 = load i64, i64* %15, align 8
  %64 = add i64 %63, -1
  %65 = inttoptr i64 %64 to i32*
  %66 = load i32, i32* %65, align 4
  %67 = and i64 %63, -4294967296
  %68 = zext i32 %66 to i64
  %69 = or i64 %67, %68
  %70 = add i64 %69, 7
  %71 = inttoptr i64 %70 to i16*
  %72 = load i16, i16* %71, align 2
  switch i16 %72, label %77 [
    i16 1057, label %73
    i16 1056, label %73
    i16 1040, label %73
  ]

73:                                               ; preds = %62, %62, %62
  %74 = add i64 %63, 19
  %75 = inttoptr i64 %74 to i8**
  %76 = load i8*, i8** %75, align 1
  br label %79

77:                                               ; preds = %62
  %78 = call i8* @_ZN2v86Object38SlowGetAlignedPointerFromInternalFieldEi(%"class.v8::Object"* %16, i32 1) #4
  br label %79

79:                                               ; preds = %73, %77
  %80 = phi i8* [ %76, %73 ], [ %78, %77 ]
  %81 = bitcast i8* %80 to %"class.blink::UnderlyingSinkBase"*
  %82 = call %"class.v8::Context"* @_ZN2v86Object15CreationContextEv(%"class.v8::Object"* %16) #4
  %83 = call %"class.blink::ScriptState"* @_ZN5blink11ScriptState4FromEN2v85LocalINS1_7ContextEEE(%"class.v8::Context"* %82)
  %84 = bitcast %"class.blink::ScriptValue"* %5 to i8*
  call void @llvm.lifetime.start.p0i8(i64 24, i8* nonnull %84) #4
  %85 = load i32, i32* %39, align 8
  %86 = icmp sgt i32 %85, 0
  br i1 %86, label %93, label %87

87:                                               ; preds = %79
  %88 = load i64*, i64** %8, align 8
  %89 = getelementptr inbounds i64, i64* %88, i64 1
  %90 = load i64, i64* %89, align 8
  %91 = add i64 %90, 160
  %92 = inttoptr i64 %91 to %"class.v8::Value"*
  br label %96

93:                                               ; preds = %79
  %94 = bitcast i64** %13 to %"class.v8::Value"**
  %95 = load %"class.v8::Value"*, %"class.v8::Value"** %94, align 8
  br label %96

96:                                               ; preds = %87, %93
  %97 = phi %"class.v8::Value"* [ %92, %87 ], [ %95, %93 ]
  %98 = getelementptr inbounds %"class.blink::ScriptValue", %"class.blink::ScriptValue"* %5, i64 0, i32 0
  store %"class.v8::Isolate"* %12, %"class.v8::Isolate"** %98, align 8, !alias.scope !8
  %99 = getelementptr inbounds %"class.blink::ScriptValue", %"class.blink::ScriptValue"* %5, i64 0, i32 1
  call void @_ZN5blink20WorldSafeV8ReferenceIN2v85ValueEEC2EPNS1_7IsolateENS1_5LocalIS2_EE(%"class.blink::WorldSafeV8Reference"* %99, %"class.v8::Isolate"* %12, %"class.v8::Value"* %97) #4
  %100 = load i32, i32* %25, align 8
  %101 = icmp eq i32 %100, 0
  br i1 %101, label %102, label %156

102:                                              ; preds = %96
  %103 = bitcast %"class.blink::ScriptPromise"* %6 to i8*
  call void @llvm.lifetime.start.p0i8(i64 32, i8* nonnull %103) #4
  %104 = bitcast %"class.blink::ScriptValue"* %5 to i64*
  %105 = load i64, i64* %104, align 8
  %106 = bitcast %"class.blink::ScriptValue"* %7 to i64*
  store i64 %105, i64* %106, align 8
  %107 = getelementptr inbounds %"class.blink::ScriptValue", %"class.blink::ScriptValue"* %7, i64 0, i32 1
  %108 = getelementptr inbounds %"class.blink::WorldSafeV8Reference", %"class.blink::WorldSafeV8Reference"* %107, i64 0, i32 0
  %109 = getelementptr inbounds %"class.blink::WorldSafeV8Reference", %"class.blink::WorldSafeV8Reference"* %107, i64 0, i32 0, i32 0, i32 0, i32 0, i32 0
  store i64* null, i64** %109, align 8
  %110 = getelementptr inbounds %"class.blink::ScriptValue", %"class.blink::ScriptValue"* %5, i64 0, i32 1, i32 0, i32 0, i32 0, i32 0, i32 0
  %111 = load i64*, i64** %110, align 8
  %112 = icmp eq i64* %111, null
  br i1 %112, label %114, label %113

113:                                              ; preds = %102
  call void @_ZN2v82V825CopyTracedGlobalReferenceEPKPKmPPm(i64** %110, i64** %109) #4
  br label %114

114:                                              ; preds = %113, %102
  call void @_ZN5blink25UnifiedHeapMarkingVisitor12WriteBarrierERKNS_23TraceWrapperV8ReferenceIN2v85ValueEEE(%"class.blink::TraceWrapperV8Reference.189"* dereferenceable(8) %108) #4
  %115 = getelementptr inbounds %"class.blink::ScriptValue", %"class.blink::ScriptValue"* %5, i64 0, i32 1, i32 1, i32 0
  %116 = load %"class.blink::DOMWrapperWorld"*, %"class.blink::DOMWrapperWorld"** %115, align 8
  %117 = getelementptr inbounds %"class.blink::ScriptValue", %"class.blink::ScriptValue"* %7, i64 0, i32 1, i32 1, i32 0
  store %"class.blink::DOMWrapperWorld"* %116, %"class.blink::DOMWrapperWorld"** %117, align 8
  %118 = icmp eq %"class.blink::DOMWrapperWorld"* %116, null
  br i1 %118, label %121, label %119

119:                                              ; preds = %114
  %120 = getelementptr inbounds %"class.blink::DOMWrapperWorld", %"class.blink::DOMWrapperWorld"* %116, i64 0, i32 0, i32 0, i32 0
  call void @_ZNK4base6subtle14RefCountedBase10AddRefImplEv(%"class.base::subtle::RefCountedBase"* %120) #4
  br label %121

121:                                              ; preds = %114, %119
  call void @_ZN5blink18UnderlyingSinkBase5startEPNS_11ScriptStateENS_11ScriptValueERNS_14ExceptionStateE(%"class.blink::ScriptPromise"* nonnull sret %6, %"class.blink::UnderlyingSinkBase"* %81, %"class.blink::ScriptState"* %83, %"class.blink::ScriptValue"* nonnull %7, %"class.blink::ExceptionState"* nonnull dereferenceable(72) %2)
  %122 = load %"class.blink::DOMWrapperWorld"*, %"class.blink::DOMWrapperWorld"** %117, align 8
  %123 = icmp eq %"class.blink::DOMWrapperWorld"* %122, null
  br i1 %123, label %131, label %124

124:                                              ; preds = %121
  %125 = getelementptr inbounds %"class.blink::DOMWrapperWorld", %"class.blink::DOMWrapperWorld"* %122, i64 0, i32 0, i32 0, i32 0
  call void @_ZNK4base6subtle14RefCountedBase11ReleaseImplEv(%"class.base::subtle::RefCountedBase"* %125) #4
  %126 = getelementptr inbounds %"class.blink::DOMWrapperWorld", %"class.blink::DOMWrapperWorld"* %122, i64 0, i32 0, i32 0, i32 0, i32 0
  %127 = load i32, i32* %126, align 4
  %128 = icmp eq i32 %127, 0
  br i1 %128, label %129, label %131

129:                                              ; preds = %124
  call void @_ZN5blink15DOMWrapperWorldD1Ev(%"class.blink::DOMWrapperWorld"* nonnull %122) #4
  %130 = bitcast %"class.blink::DOMWrapperWorld"* %122 to i8*
  call void @free(i8* %130) #4
  br label %131

131:                                              ; preds = %121, %124, %129
  %132 = load i32, i32* %25, align 8
  %133 = icmp eq i32 %132, 0
  br i1 %133, label %134, label %144

134:                                              ; preds = %131
  %135 = getelementptr inbounds %"class.blink::ScriptPromise", %"class.blink::ScriptPromise"* %6, i64 0, i32 1
  %136 = call %"class.v8::Value"* @_ZNK5blink11ScriptValue7V8ValueEv(%"class.blink::ScriptValue"* %135) #4
  %137 = load i64*, i64** %8, align 8
  %138 = getelementptr inbounds i64, i64* %137, i64 3
  %139 = icmp eq %"class.v8::Value"* %136, null
  %140 = bitcast %"class.v8::Value"* %136 to i64*
  %141 = getelementptr inbounds i64, i64* %137, i64 2
  %142 = select i1 %139, i64* %141, i64* %140, !prof !2
  %143 = load i64, i64* %142, align 8
  store i64 %143, i64* %138, align 8
  br label %144

144:                                              ; preds = %131, %134
  %145 = getelementptr inbounds %"class.blink::ScriptPromise", %"class.blink::ScriptPromise"* %6, i64 0, i32 1, i32 1, i32 1, i32 0
  %146 = load %"class.blink::DOMWrapperWorld"*, %"class.blink::DOMWrapperWorld"** %145, align 8
  %147 = icmp eq %"class.blink::DOMWrapperWorld"* %146, null
  br i1 %147, label %155, label %148

148:                                              ; preds = %144
  %149 = getelementptr inbounds %"class.blink::DOMWrapperWorld", %"class.blink::DOMWrapperWorld"* %146, i64 0, i32 0, i32 0, i32 0
  call void @_ZNK4base6subtle14RefCountedBase11ReleaseImplEv(%"class.base::subtle::RefCountedBase"* %149) #4
  %150 = getelementptr inbounds %"class.blink::DOMWrapperWorld", %"class.blink::DOMWrapperWorld"* %146, i64 0, i32 0, i32 0, i32 0, i32 0
  %151 = load i32, i32* %150, align 4
  %152 = icmp eq i32 %151, 0
  br i1 %152, label %153, label %155

153:                                              ; preds = %148
  call void @_ZN5blink15DOMWrapperWorldD1Ev(%"class.blink::DOMWrapperWorld"* nonnull %146) #4
  %154 = bitcast %"class.blink::DOMWrapperWorld"* %146 to i8*
  call void @free(i8* %154) #4
  br label %155

155:                                              ; preds = %144, %148, %153
  call void @llvm.lifetime.end.p0i8(i64 32, i8* nonnull %103) #4
  br label %156

156:                                              ; preds = %96, %155
  %157 = getelementptr inbounds %"class.blink::ScriptValue", %"class.blink::ScriptValue"* %5, i64 0, i32 1, i32 1, i32 0
  %158 = load %"class.blink::DOMWrapperWorld"*, %"class.blink::DOMWrapperWorld"** %157, align 8
  %159 = icmp eq %"class.blink::DOMWrapperWorld"* %158, null
  br i1 %159, label %167, label %160

160:                                              ; preds = %156
  %161 = getelementptr inbounds %"class.blink::DOMWrapperWorld", %"class.blink::DOMWrapperWorld"* %158, i64 0, i32 0, i32 0, i32 0
  call void @_ZNK4base6subtle14RefCountedBase11ReleaseImplEv(%"class.base::subtle::RefCountedBase"* %161) #4
  %162 = getelementptr inbounds %"class.blink::DOMWrapperWorld", %"class.blink::DOMWrapperWorld"* %158, i64 0, i32 0, i32 0, i32 0, i32 0
  %163 = load i32, i32* %162, align 4
  %164 = icmp eq i32 %163, 0
  br i1 %164, label %165, label %167

165:                                              ; preds = %160
  call void @_ZN5blink15DOMWrapperWorldD1Ev(%"class.blink::DOMWrapperWorld"* nonnull %158) #4
  %166 = bitcast %"class.blink::DOMWrapperWorld"* %158 to i8*
  call void @free(i8* %166) #4
  br label %167

167:                                              ; preds = %156, %160, %165
  call void @llvm.lifetime.end.p0i8(i64 24, i8* nonnull %84) #4
  br label %168

168:                                              ; preds = %167, %61, %37
  call void @_ZN5blink29ExceptionToRejectPromiseScopeD2Ev(%"class.blink::ExceptionToRejectPromiseScope"* nonnull %3) #4
  call void @llvm.lifetime.end.p0i8(i64 16, i8* nonnull %28) #4
  store i32 (...)** bitcast (i8** getelementptr inbounds ({ [9 x i8*] }, { [9 x i8*] }* @_ZTVN5blink14ExceptionStateE, i64 0, inrange i32 0, i64 2) to i32 (...)**), i32 (...)*** %18, align 8
  %169 = getelementptr inbounds %"class.blink::ExceptionState", %"class.blink::ExceptionState"* %2, i64 0, i32 6, i32 0, i32 0, i32 0, i32 0
  %170 = load i64*, i64** %169, align 8
  %171 = icmp eq i64* %170, null
  br i1 %171, label %181, label %172

172:                                              ; preds = %168
  %173 = load %"class.v8::Isolate"*, %"class.v8::Isolate"** %24, align 8
  %174 = bitcast %"class.v8::Isolate"* %173 to %"class.v8::internal::Isolate"*
  %175 = load i64, i64* %170, align 8
  %176 = call i64* @_ZN2v811HandleScope12CreateHandleEPNS_8internal7IsolateEm(%"class.v8::internal::Isolate"* %174, i64 %175) #4
  %177 = call zeroext i1 @_ZN2v87Isolate22IsExecutionTerminatingEv(%"class.v8::Isolate"* %173) #4
  br i1 %177, label %181, label %178

178:                                              ; preds = %172
  %179 = bitcast i64* %176 to %"class.v8::Value"*
  %180 = call %"class.v8::Value"* @_ZN2v87Isolate14ThrowExceptionENS_5LocalINS_5ValueEEE(%"class.v8::Isolate"* %173, %"class.v8::Value"* %179) #4
  br label %181

181:                                              ; preds = %178, %172, %168
  %182 = load %"class.WTF::StringImpl"*, %"class.WTF::StringImpl"** %26, align 8
  %183 = icmp eq %"class.WTF::StringImpl"* %182, null
  br i1 %183, label %197, label %184

184:                                              ; preds = %181
  %185 = getelementptr inbounds %"class.WTF::StringImpl", %"class.WTF::StringImpl"* %182, i64 0, i32 2, i32 0, i32 0, i32 0, i32 0, i32 0
  %186 = load atomic i32, i32* %185 monotonic, align 4
  %187 = and i32 %186, 2
  %188 = icmp eq i32 %187, 0
  %189 = getelementptr inbounds %"class.WTF::StringImpl", %"class.WTF::StringImpl"* %182, i64 0, i32 0
  %190 = load i32, i32* %189, align 4
  br i1 %188, label %191, label %193

191:                                              ; preds = %184
  %192 = add i32 %190, -1
  store i32 %192, i32* %189, align 4
  br label %193

193:                                              ; preds = %191, %184
  %194 = phi i32 [ %192, %191 ], [ %190, %184 ]
  %195 = icmp eq i32 %194, 0
  br i1 %195, label %196, label %197

196:                                              ; preds = %193
  call void @_ZNK3WTF10StringImpl18DestroyIfNotStaticEv(%"class.WTF::StringImpl"* nonnull %182) #4
  br label %197

197:                                              ; preds = %181, %193, %196
  call void @llvm.lifetime.end.p0i8(i64 72, i8* nonnull %17) #4
  ret void
}

; Function Attrs: nounwind ssp uwtable
define internal void @_ZN5blink12_GLOBAL__N_123v8_underlying_sink_base22WriteOperationCallbackERKN2v820FunctionCallbackInfoINS2_5ValueEEE(%"class.v8::FunctionCallbackInfo"* dereferenceable(24)) #0 {
  %2 = alloca %"class.blink::ExceptionState", align 8
  %3 = alloca %"class.blink::ExceptionToRejectPromiseScope", align 8
  %4 = alloca %"class.WTF::String", align 8
  %5 = alloca %"class.blink::ScriptValue", align 8
  %6 = alloca %"class.blink::ScriptValue", align 8
  %7 = alloca %"class.blink::ScriptPromise", align 8
  %8 = alloca %"class.blink::ScriptValue", align 8
  %9 = alloca %"class.blink::ScriptValue", align 8
  %10 = getelementptr inbounds %"class.v8::FunctionCallbackInfo", %"class.v8::FunctionCallbackInfo"* %0, i64 0, i32 0
  %11 = load i64*, i64** %10, align 8
  %12 = getelementptr inbounds i64, i64* %11, i64 1
  %13 = bitcast i64* %12 to %"class.v8::Isolate"**
  %14 = load %"class.v8::Isolate"*, %"class.v8::Isolate"** %13, align 8
  %15 = getelementptr inbounds %"class.v8::FunctionCallbackInfo", %"class.v8::FunctionCallbackInfo"* %0, i64 0, i32 1
  %16 = load i64*, i64** %15, align 8
  %17 = getelementptr inbounds i64, i64* %16, i64 -1
  %18 = bitcast i64* %17 to %"class.v8::Object"*
  %19 = bitcast %"class.blink::ExceptionState"* %2 to i8*
  call void @llvm.lifetime.start.p0i8(i64 72, i8* nonnull %19) #4
  call void @llvm.memset.p0i8.i64(i8* nonnull align 8 %19, i8 -86, i64 56, i1 false)
  %20 = getelementptr inbounds %"class.blink::ExceptionState", %"class.blink::ExceptionState"* %2, i64 0, i32 0
  store i32 (...)** bitcast (i8** getelementptr inbounds ({ [9 x i8*] }, { [9 x i8*] }* @_ZTVN5blink14ExceptionStateE, i64 0, inrange i32 0, i64 2) to i32 (...)**), i32 (...)*** %20, align 8
  %21 = getelementptr inbounds %"class.blink::ExceptionState", %"class.blink::ExceptionState"* %2, i64 0, i32 1, i32 0
  store i16 6, i16* %21, align 8
  %22 = getelementptr inbounds %"class.blink::ExceptionState", %"class.blink::ExceptionState"* %2, i64 0, i32 1, i32 1
  store i16 0, i16* %22, align 2
  %23 = getelementptr inbounds %"class.blink::ExceptionState", %"class.blink::ExceptionState"* %2, i64 0, i32 1, i32 2
  %24 = bitcast i8** %23 to <2 x i8*>*
  store <2 x i8*> <i8* getelementptr inbounds ([19 x i8], [19 x i8]* @.str, i64 0, i64 0), i8* getelementptr inbounds ([6 x i8], [6 x i8]* @.str.4, i64 0, i64 0)>, <2 x i8*>* %24, align 8
  %25 = getelementptr inbounds %"class.blink::ExceptionState", %"class.blink::ExceptionState"* %2, i64 0, i32 2
  store %"class.blink::ExceptionState::ContextScope"* null, %"class.blink::ExceptionState::ContextScope"** %25, align 8
  %26 = getelementptr inbounds %"class.blink::ExceptionState", %"class.blink::ExceptionState"* %2, i64 0, i32 3
  store %"class.v8::Isolate"* %14, %"class.v8::Isolate"** %26, align 8
  %27 = getelementptr inbounds %"class.blink::ExceptionState", %"class.blink::ExceptionState"* %2, i64 0, i32 4
  store i32 0, i32* %27, align 8
  %28 = getelementptr inbounds %"class.blink::ExceptionState", %"class.blink::ExceptionState"* %2, i64 0, i32 5, i32 0, i32 0
  %29 = bitcast %"class.WTF::StringImpl"** %28 to i8*
  call void @llvm.memset.p0i8.i64(i8* align 8 %29, i8 0, i64 16, i1 false) #4
  %30 = bitcast %"class.blink::ExceptionToRejectPromiseScope"* %3 to i8*
  call void @llvm.lifetime.start.p0i8(i64 16, i8* nonnull %30) #4
  %31 = getelementptr inbounds %"class.blink::ExceptionToRejectPromiseScope", %"class.blink::ExceptionToRejectPromiseScope"* %3, i64 0, i32 0
  %32 = getelementptr inbounds %"class.blink::ExceptionToRejectPromiseScope", %"class.blink::ExceptionToRejectPromiseScope"* %3, i64 0, i32 1
  store %"class.v8::FunctionCallbackInfo"* %0, %"class.v8::FunctionCallbackInfo"** %31, align 8
  store %"class.blink::ExceptionState"* %2, %"class.blink::ExceptionState"** %32, align 8
  %33 = bitcast i64* %17 to %"class.v8::Value"*
  %34 = ptrtoint %"class.v8::Isolate"* %14 to i64
  %35 = add i64 %34, 8
  %36 = inttoptr i64 %35 to %"class.blink::V8PerIsolateData"**
  %37 = load %"class.blink::V8PerIsolateData"*, %"class.blink::V8PerIsolateData"** %36, align 8
  %38 = call zeroext i1 @_ZN5blink16V8PerIsolateData11HasInstanceEPKNS_15WrapperTypeInfoEN2v85LocalINS4_5ValueEEE(%"class.blink::V8PerIsolateData"* %37, %"struct.blink::WrapperTypeInfo"* nonnull @_ZN5blink20V8UnderlyingSinkBase18wrapper_type_info_E, %"class.v8::Value"* %33) #4
  br i1 %38, label %40, label %39

39:                                               ; preds = %1
  call void @_ZN5blink14ExceptionState14ThrowTypeErrorEPKc(%"class.blink::ExceptionState"* nonnull %2, i8* getelementptr inbounds ([19 x i8], [19 x i8]* @.str.6, i64 0, i64 0)) #4
  br label %230

40:                                               ; preds = %1
  %41 = getelementptr inbounds %"class.v8::FunctionCallbackInfo", %"class.v8::FunctionCallbackInfo"* %0, i64 0, i32 2
  %42 = load i32, i32* %41, align 8
  %43 = icmp slt i32 %42, 2
  br i1 %43, label %44, label %64, !prof !2

44:                                               ; preds = %40
  %45 = bitcast %"class.WTF::String"* %4 to i8*
  call void @llvm.lifetime.start.p0i8(i64 8, i8* nonnull %45) #4
  %46 = call %"class.WTF::StringImpl"* @_ZN5blink17ExceptionMessages18NotEnoughArgumentsEjj(i32 2, i32 %42) #4
  %47 = getelementptr inbounds %"class.WTF::String", %"class.WTF::String"* %4, i64 0, i32 0, i32 0
  store %"class.WTF::StringImpl"* %46, %"class.WTF::StringImpl"** %47, align 8
  call void @_ZN5blink14ExceptionState14ThrowTypeErrorERKN3WTF6StringE(%"class.blink::ExceptionState"* nonnull %2, %"class.WTF::String"* nonnull dereferenceable(8) %4) #4
  %48 = load %"class.WTF::StringImpl"*, %"class.WTF::StringImpl"** %47, align 8
  %49 = icmp eq %"class.WTF::StringImpl"* %48, null
  br i1 %49, label %63, label %50

50:                                               ; preds = %44
  %51 = getelementptr inbounds %"class.WTF::StringImpl", %"class.WTF::StringImpl"* %48, i64 0, i32 2, i32 0, i32 0, i32 0, i32 0, i32 0
  %52 = load atomic i32, i32* %51 monotonic, align 4
  %53 = and i32 %52, 2
  %54 = icmp eq i32 %53, 0
  %55 = getelementptr inbounds %"class.WTF::StringImpl", %"class.WTF::StringImpl"* %48, i64 0, i32 0
  %56 = load i32, i32* %55, align 4
  br i1 %54, label %57, label %59

57:                                               ; preds = %50
  %58 = add i32 %56, -1
  store i32 %58, i32* %55, align 4
  br label %59

59:                                               ; preds = %57, %50
  %60 = phi i32 [ %58, %57 ], [ %56, %50 ]
  %61 = icmp eq i32 %60, 0
  br i1 %61, label %62, label %63

62:                                               ; preds = %59
  call void @_ZNK3WTF10StringImpl18DestroyIfNotStaticEv(%"class.WTF::StringImpl"* nonnull %48) #4
  br label %63

63:                                               ; preds = %44, %59, %62
  call void @llvm.lifetime.end.p0i8(i64 8, i8* nonnull %45) #4
  br label %230

64:                                               ; preds = %40
  %65 = load i64, i64* %17, align 8
  %66 = add i64 %65, -1
  %67 = inttoptr i64 %66 to i32*
  %68 = load i32, i32* %67, align 4
  %69 = and i64 %65, -4294967296
  %70 = zext i32 %68 to i64
  %71 = or i64 %69, %70
  %72 = add i64 %71, 7
  %73 = inttoptr i64 %72 to i16*
  %74 = load i16, i16* %73, align 2
  switch i16 %74, label %79 [
    i16 1057, label %75
    i16 1056, label %75
    i16 1040, label %75
  ]

75:                                               ; preds = %64, %64, %64
  %76 = add i64 %65, 19
  %77 = inttoptr i64 %76 to i8**
  %78 = load i8*, i8** %77, align 1
  br label %81

79:                                               ; preds = %64
  %80 = call i8* @_ZN2v86Object38SlowGetAlignedPointerFromInternalFieldEi(%"class.v8::Object"* %18, i32 1) #4
  br label %81

81:                                               ; preds = %75, %79
  %82 = phi i8* [ %78, %75 ], [ %80, %79 ]
  %83 = bitcast i8* %82 to %"class.blink::UnderlyingSinkBase"*
  %84 = call %"class.v8::Context"* @_ZN2v86Object15CreationContextEv(%"class.v8::Object"* %18) #4
  %85 = call %"class.blink::ScriptState"* @_ZN5blink11ScriptState4FromEN2v85LocalINS1_7ContextEEE(%"class.v8::Context"* %84)
  %86 = bitcast %"class.blink::ScriptValue"* %5 to i8*
  call void @llvm.lifetime.start.p0i8(i64 24, i8* nonnull %86) #4
  %87 = load i32, i32* %41, align 8
  %88 = icmp sgt i32 %87, 0
  br i1 %88, label %95, label %89

89:                                               ; preds = %81
  %90 = load i64*, i64** %10, align 8
  %91 = getelementptr inbounds i64, i64* %90, i64 1
  %92 = load i64, i64* %91, align 8
  %93 = add i64 %92, 160
  %94 = inttoptr i64 %93 to %"class.v8::Value"*
  br label %98

95:                                               ; preds = %81
  %96 = bitcast i64** %15 to %"class.v8::Value"**
  %97 = load %"class.v8::Value"*, %"class.v8::Value"** %96, align 8
  br label %98

98:                                               ; preds = %89, %95
  %99 = phi %"class.v8::Value"* [ %94, %89 ], [ %97, %95 ]
  %100 = getelementptr inbounds %"class.blink::ScriptValue", %"class.blink::ScriptValue"* %5, i64 0, i32 0
  store %"class.v8::Isolate"* %14, %"class.v8::Isolate"** %100, align 8, !alias.scope !13
  %101 = getelementptr inbounds %"class.blink::ScriptValue", %"class.blink::ScriptValue"* %5, i64 0, i32 1
  call void @_ZN5blink20WorldSafeV8ReferenceIN2v85ValueEEC2EPNS1_7IsolateENS1_5LocalIS2_EE(%"class.blink::WorldSafeV8Reference"* %101, %"class.v8::Isolate"* %14, %"class.v8::Value"* %99) #4
  %102 = load i32, i32* %27, align 8
  %103 = icmp eq i32 %102, 0
  br i1 %103, label %104, label %218

104:                                              ; preds = %98
  %105 = bitcast %"class.blink::ScriptValue"* %6 to i8*
  call void @llvm.lifetime.start.p0i8(i64 24, i8* nonnull %105) #4
  %106 = load i32, i32* %41, align 8
  %107 = icmp sgt i32 %106, 1
  br i1 %107, label %114, label %108

108:                                              ; preds = %104
  %109 = load i64*, i64** %10, align 8
  %110 = getelementptr inbounds i64, i64* %109, i64 1
  %111 = load i64, i64* %110, align 8
  %112 = add i64 %111, 160
  %113 = inttoptr i64 %112 to %"class.v8::Value"*
  br label %118

114:                                              ; preds = %104
  %115 = load i64*, i64** %15, align 8
  %116 = getelementptr inbounds i64, i64* %115, i64 1
  %117 = bitcast i64* %116 to %"class.v8::Value"*
  br label %118

118:                                              ; preds = %108, %114
  %119 = phi %"class.v8::Value"* [ %113, %108 ], [ %117, %114 ]
  %120 = getelementptr inbounds %"class.blink::ScriptValue", %"class.blink::ScriptValue"* %6, i64 0, i32 0
  store %"class.v8::Isolate"* %14, %"class.v8::Isolate"** %120, align 8, !alias.scope !18
  %121 = getelementptr inbounds %"class.blink::ScriptValue", %"class.blink::ScriptValue"* %6, i64 0, i32 1
  call void @_ZN5blink20WorldSafeV8ReferenceIN2v85ValueEEC2EPNS1_7IsolateENS1_5LocalIS2_EE(%"class.blink::WorldSafeV8Reference"* %121, %"class.v8::Isolate"* %14, %"class.v8::Value"* %119) #4
  %122 = load i32, i32* %27, align 8
  %123 = icmp eq i32 %122, 0
  br i1 %123, label %124, label %206

124:                                              ; preds = %118
  %125 = bitcast %"class.blink::ScriptPromise"* %7 to i8*
  call void @llvm.lifetime.start.p0i8(i64 32, i8* nonnull %125) #4
  %126 = bitcast %"class.blink::ScriptValue"* %5 to i64*
  %127 = load i64, i64* %126, align 8
  %128 = bitcast %"class.blink::ScriptValue"* %8 to i64*
  store i64 %127, i64* %128, align 8
  %129 = getelementptr inbounds %"class.blink::ScriptValue", %"class.blink::ScriptValue"* %8, i64 0, i32 1
  %130 = getelementptr inbounds %"class.blink::WorldSafeV8Reference", %"class.blink::WorldSafeV8Reference"* %129, i64 0, i32 0
  %131 = getelementptr inbounds %"class.blink::WorldSafeV8Reference", %"class.blink::WorldSafeV8Reference"* %129, i64 0, i32 0, i32 0, i32 0, i32 0, i32 0
  store i64* null, i64** %131, align 8
  %132 = getelementptr inbounds %"class.blink::ScriptValue", %"class.blink::ScriptValue"* %5, i64 0, i32 1, i32 0, i32 0, i32 0, i32 0, i32 0
  %133 = load i64*, i64** %132, align 8
  %134 = icmp eq i64* %133, null
  br i1 %134, label %136, label %135

135:                                              ; preds = %124
  call void @_ZN2v82V825CopyTracedGlobalReferenceEPKPKmPPm(i64** %132, i64** %131) #4
  br label %136

136:                                              ; preds = %135, %124
  call void @_ZN5blink25UnifiedHeapMarkingVisitor12WriteBarrierERKNS_23TraceWrapperV8ReferenceIN2v85ValueEEE(%"class.blink::TraceWrapperV8Reference.189"* dereferenceable(8) %130) #4
  %137 = getelementptr inbounds %"class.blink::ScriptValue", %"class.blink::ScriptValue"* %5, i64 0, i32 1, i32 1, i32 0
  %138 = load %"class.blink::DOMWrapperWorld"*, %"class.blink::DOMWrapperWorld"** %137, align 8
  %139 = getelementptr inbounds %"class.blink::ScriptValue", %"class.blink::ScriptValue"* %8, i64 0, i32 1, i32 1, i32 0
  store %"class.blink::DOMWrapperWorld"* %138, %"class.blink::DOMWrapperWorld"** %139, align 8
  %140 = icmp eq %"class.blink::DOMWrapperWorld"* %138, null
  br i1 %140, label %143, label %141

141:                                              ; preds = %136
  %142 = getelementptr inbounds %"class.blink::DOMWrapperWorld", %"class.blink::DOMWrapperWorld"* %138, i64 0, i32 0, i32 0, i32 0
  call void @_ZNK4base6subtle14RefCountedBase10AddRefImplEv(%"class.base::subtle::RefCountedBase"* %142) #4
  br label %143

143:                                              ; preds = %136, %141
  %144 = bitcast %"class.blink::ScriptValue"* %6 to i64*
  %145 = load i64, i64* %144, align 8
  %146 = bitcast %"class.blink::ScriptValue"* %9 to i64*
  store i64 %145, i64* %146, align 8
  %147 = getelementptr inbounds %"class.blink::ScriptValue", %"class.blink::ScriptValue"* %9, i64 0, i32 1
  %148 = getelementptr inbounds %"class.blink::WorldSafeV8Reference", %"class.blink::WorldSafeV8Reference"* %147, i64 0, i32 0
  %149 = getelementptr inbounds %"class.blink::WorldSafeV8Reference", %"class.blink::WorldSafeV8Reference"* %147, i64 0, i32 0, i32 0, i32 0, i32 0, i32 0
  store i64* null, i64** %149, align 8
  %150 = getelementptr inbounds %"class.blink::ScriptValue", %"class.blink::ScriptValue"* %6, i64 0, i32 1, i32 0, i32 0, i32 0, i32 0, i32 0
  %151 = load i64*, i64** %150, align 8
  %152 = icmp eq i64* %151, null
  br i1 %152, label %154, label %153

153:                                              ; preds = %143
  call void @_ZN2v82V825CopyTracedGlobalReferenceEPKPKmPPm(i64** %150, i64** %149) #4
  br label %154

154:                                              ; preds = %153, %143
  call void @_ZN5blink25UnifiedHeapMarkingVisitor12WriteBarrierERKNS_23TraceWrapperV8ReferenceIN2v85ValueEEE(%"class.blink::TraceWrapperV8Reference.189"* dereferenceable(8) %148) #4
  %155 = getelementptr inbounds %"class.blink::ScriptValue", %"class.blink::ScriptValue"* %6, i64 0, i32 1, i32 1, i32 0
  %156 = load %"class.blink::DOMWrapperWorld"*, %"class.blink::DOMWrapperWorld"** %155, align 8
  %157 = getelementptr inbounds %"class.blink::ScriptValue", %"class.blink::ScriptValue"* %9, i64 0, i32 1, i32 1, i32 0
  store %"class.blink::DOMWrapperWorld"* %156, %"class.blink::DOMWrapperWorld"** %157, align 8
  %158 = icmp eq %"class.blink::DOMWrapperWorld"* %156, null
  br i1 %158, label %161, label %159

159:                                              ; preds = %154
  %160 = getelementptr inbounds %"class.blink::DOMWrapperWorld", %"class.blink::DOMWrapperWorld"* %156, i64 0, i32 0, i32 0, i32 0
  call void @_ZNK4base6subtle14RefCountedBase10AddRefImplEv(%"class.base::subtle::RefCountedBase"* %160) #4
  br label %161

161:                                              ; preds = %154, %159
  call void @_ZN5blink18UnderlyingSinkBase5writeEPNS_11ScriptStateENS_11ScriptValueES3_RNS_14ExceptionStateE(%"class.blink::ScriptPromise"* nonnull sret %7, %"class.blink::UnderlyingSinkBase"* %83, %"class.blink::ScriptState"* %85, %"class.blink::ScriptValue"* nonnull %8, %"class.blink::ScriptValue"* nonnull %9, %"class.blink::ExceptionState"* nonnull dereferenceable(72) %2)
  %162 = load %"class.blink::DOMWrapperWorld"*, %"class.blink::DOMWrapperWorld"** %157, align 8
  %163 = icmp eq %"class.blink::DOMWrapperWorld"* %162, null
  br i1 %163, label %171, label %164

164:                                              ; preds = %161
  %165 = getelementptr inbounds %"class.blink::DOMWrapperWorld", %"class.blink::DOMWrapperWorld"* %162, i64 0, i32 0, i32 0, i32 0
  call void @_ZNK4base6subtle14RefCountedBase11ReleaseImplEv(%"class.base::subtle::RefCountedBase"* %165) #4
  %166 = getelementptr inbounds %"class.blink::DOMWrapperWorld", %"class.blink::DOMWrapperWorld"* %162, i64 0, i32 0, i32 0, i32 0, i32 0
  %167 = load i32, i32* %166, align 4
  %168 = icmp eq i32 %167, 0
  br i1 %168, label %169, label %171

169:                                              ; preds = %164
  call void @_ZN5blink15DOMWrapperWorldD1Ev(%"class.blink::DOMWrapperWorld"* nonnull %162) #4
  %170 = bitcast %"class.blink::DOMWrapperWorld"* %162 to i8*
  call void @free(i8* %170) #4
  br label %171

171:                                              ; preds = %161, %164, %169
  %172 = load %"class.blink::DOMWrapperWorld"*, %"class.blink::DOMWrapperWorld"** %139, align 8
  %173 = icmp eq %"class.blink::DOMWrapperWorld"* %172, null
  br i1 %173, label %181, label %174

174:                                              ; preds = %171
  %175 = getelementptr inbounds %"class.blink::DOMWrapperWorld", %"class.blink::DOMWrapperWorld"* %172, i64 0, i32 0, i32 0, i32 0
  call void @_ZNK4base6subtle14RefCountedBase11ReleaseImplEv(%"class.base::subtle::RefCountedBase"* %175) #4
  %176 = getelementptr inbounds %"class.blink::DOMWrapperWorld", %"class.blink::DOMWrapperWorld"* %172, i64 0, i32 0, i32 0, i32 0, i32 0
  %177 = load i32, i32* %176, align 4
  %178 = icmp eq i32 %177, 0
  br i1 %178, label %179, label %181

179:                                              ; preds = %174
  call void @_ZN5blink15DOMWrapperWorldD1Ev(%"class.blink::DOMWrapperWorld"* nonnull %172) #4
  %180 = bitcast %"class.blink::DOMWrapperWorld"* %172 to i8*
  call void @free(i8* %180) #4
  br label %181

181:                                              ; preds = %171, %174, %179
  %182 = load i32, i32* %27, align 8
  %183 = icmp eq i32 %182, 0
  br i1 %183, label %184, label %194

184:                                              ; preds = %181
  %185 = getelementptr inbounds %"class.blink::ScriptPromise", %"class.blink::ScriptPromise"* %7, i64 0, i32 1
  %186 = call %"class.v8::Value"* @_ZNK5blink11ScriptValue7V8ValueEv(%"class.blink::ScriptValue"* %185) #4
  %187 = load i64*, i64** %10, align 8
  %188 = getelementptr inbounds i64, i64* %187, i64 3
  %189 = icmp eq %"class.v8::Value"* %186, null
  %190 = bitcast %"class.v8::Value"* %186 to i64*
  %191 = getelementptr inbounds i64, i64* %187, i64 2
  %192 = select i1 %189, i64* %191, i64* %190, !prof !2
  %193 = load i64, i64* %192, align 8
  store i64 %193, i64* %188, align 8
  br label %194

194:                                              ; preds = %181, %184
  %195 = getelementptr inbounds %"class.blink::ScriptPromise", %"class.blink::ScriptPromise"* %7, i64 0, i32 1, i32 1, i32 1, i32 0
  %196 = load %"class.blink::DOMWrapperWorld"*, %"class.blink::DOMWrapperWorld"** %195, align 8
  %197 = icmp eq %"class.blink::DOMWrapperWorld"* %196, null
  br i1 %197, label %205, label %198

198:                                              ; preds = %194
  %199 = getelementptr inbounds %"class.blink::DOMWrapperWorld", %"class.blink::DOMWrapperWorld"* %196, i64 0, i32 0, i32 0, i32 0
  call void @_ZNK4base6subtle14RefCountedBase11ReleaseImplEv(%"class.base::subtle::RefCountedBase"* %199) #4
  %200 = getelementptr inbounds %"class.blink::DOMWrapperWorld", %"class.blink::DOMWrapperWorld"* %196, i64 0, i32 0, i32 0, i32 0, i32 0
  %201 = load i32, i32* %200, align 4
  %202 = icmp eq i32 %201, 0
  br i1 %202, label %203, label %205

203:                                              ; preds = %198
  call void @_ZN5blink15DOMWrapperWorldD1Ev(%"class.blink::DOMWrapperWorld"* nonnull %196) #4
  %204 = bitcast %"class.blink::DOMWrapperWorld"* %196 to i8*
  call void @free(i8* %204) #4
  br label %205

205:                                              ; preds = %194, %198, %203
  call void @llvm.lifetime.end.p0i8(i64 32, i8* nonnull %125) #4
  br label %206

206:                                              ; preds = %118, %205
  %207 = getelementptr inbounds %"class.blink::ScriptValue", %"class.blink::ScriptValue"* %6, i64 0, i32 1, i32 1, i32 0
  %208 = load %"class.blink::DOMWrapperWorld"*, %"class.blink::DOMWrapperWorld"** %207, align 8
  %209 = icmp eq %"class.blink::DOMWrapperWorld"* %208, null
  br i1 %209, label %217, label %210

210:                                              ; preds = %206
  %211 = getelementptr inbounds %"class.blink::DOMWrapperWorld", %"class.blink::DOMWrapperWorld"* %208, i64 0, i32 0, i32 0, i32 0
  call void @_ZNK4base6subtle14RefCountedBase11ReleaseImplEv(%"class.base::subtle::RefCountedBase"* %211) #4
  %212 = getelementptr inbounds %"class.blink::DOMWrapperWorld", %"class.blink::DOMWrapperWorld"* %208, i64 0, i32 0, i32 0, i32 0, i32 0
  %213 = load i32, i32* %212, align 4
  %214 = icmp eq i32 %213, 0
  br i1 %214, label %215, label %217

215:                                              ; preds = %210
  call void @_ZN5blink15DOMWrapperWorldD1Ev(%"class.blink::DOMWrapperWorld"* nonnull %208) #4
  %216 = bitcast %"class.blink::DOMWrapperWorld"* %208 to i8*
  call void @free(i8* %216) #4
  br label %217

217:                                              ; preds = %206, %210, %215
  call void @llvm.lifetime.end.p0i8(i64 24, i8* nonnull %105) #4
  br label %218

218:                                              ; preds = %98, %217
  %219 = getelementptr inbounds %"class.blink::ScriptValue", %"class.blink::ScriptValue"* %5, i64 0, i32 1, i32 1, i32 0
  %220 = load %"class.blink::DOMWrapperWorld"*, %"class.blink::DOMWrapperWorld"** %219, align 8
  %221 = icmp eq %"class.blink::DOMWrapperWorld"* %220, null
  br i1 %221, label %229, label %222

222:                                              ; preds = %218
  %223 = getelementptr inbounds %"class.blink::DOMWrapperWorld", %"class.blink::DOMWrapperWorld"* %220, i64 0, i32 0, i32 0, i32 0
  call void @_ZNK4base6subtle14RefCountedBase11ReleaseImplEv(%"class.base::subtle::RefCountedBase"* %223) #4
  %224 = getelementptr inbounds %"class.blink::DOMWrapperWorld", %"class.blink::DOMWrapperWorld"* %220, i64 0, i32 0, i32 0, i32 0, i32 0
  %225 = load i32, i32* %224, align 4
  %226 = icmp eq i32 %225, 0
  br i1 %226, label %227, label %229

227:                                              ; preds = %222
  call void @_ZN5blink15DOMWrapperWorldD1Ev(%"class.blink::DOMWrapperWorld"* nonnull %220) #4
  %228 = bitcast %"class.blink::DOMWrapperWorld"* %220 to i8*
  call void @free(i8* %228) #4
  br label %229

229:                                              ; preds = %218, %222, %227
  call void @llvm.lifetime.end.p0i8(i64 24, i8* nonnull %86) #4
  br label %230

230:                                              ; preds = %229, %63, %39
  call void @_ZN5blink29ExceptionToRejectPromiseScopeD2Ev(%"class.blink::ExceptionToRejectPromiseScope"* nonnull %3) #4
  call void @llvm.lifetime.end.p0i8(i64 16, i8* nonnull %30) #4
  store i32 (...)** bitcast (i8** getelementptr inbounds ({ [9 x i8*] }, { [9 x i8*] }* @_ZTVN5blink14ExceptionStateE, i64 0, inrange i32 0, i64 2) to i32 (...)**), i32 (...)*** %20, align 8
  %231 = getelementptr inbounds %"class.blink::ExceptionState", %"class.blink::ExceptionState"* %2, i64 0, i32 6, i32 0, i32 0, i32 0, i32 0
  %232 = load i64*, i64** %231, align 8
  %233 = icmp eq i64* %232, null
  br i1 %233, label %243, label %234

234:                                              ; preds = %230
  %235 = load %"class.v8::Isolate"*, %"class.v8::Isolate"** %26, align 8
  %236 = bitcast %"class.v8::Isolate"* %235 to %"class.v8::internal::Isolate"*
  %237 = load i64, i64* %232, align 8
  %238 = call i64* @_ZN2v811HandleScope12CreateHandleEPNS_8internal7IsolateEm(%"class.v8::internal::Isolate"* %236, i64 %237) #4
  %239 = call zeroext i1 @_ZN2v87Isolate22IsExecutionTerminatingEv(%"class.v8::Isolate"* %235) #4
  br i1 %239, label %243, label %240

240:                                              ; preds = %234
  %241 = bitcast i64* %238 to %"class.v8::Value"*
  %242 = call %"class.v8::Value"* @_ZN2v87Isolate14ThrowExceptionENS_5LocalINS_5ValueEEE(%"class.v8::Isolate"* %235, %"class.v8::Value"* %241) #4
  br label %243

243:                                              ; preds = %240, %234, %230
  %244 = load %"class.WTF::StringImpl"*, %"class.WTF::StringImpl"** %28, align 8
  %245 = icmp eq %"class.WTF::StringImpl"* %244, null
  br i1 %245, label %259, label %246

246:                                              ; preds = %243
  %247 = getelementptr inbounds %"class.WTF::StringImpl", %"class.WTF::StringImpl"* %244, i64 0, i32 2, i32 0, i32 0, i32 0, i32 0, i32 0
  %248 = load atomic i32, i32* %247 monotonic, align 4
  %249 = and i32 %248, 2
  %250 = icmp eq i32 %249, 0
  %251 = getelementptr inbounds %"class.WTF::StringImpl", %"class.WTF::StringImpl"* %244, i64 0, i32 0
  %252 = load i32, i32* %251, align 4
  br i1 %250, label %253, label %255

253:                                              ; preds = %246
  %254 = add i32 %252, -1
  store i32 %254, i32* %251, align 4
  br label %255

255:                                              ; preds = %253, %246
  %256 = phi i32 [ %254, %253 ], [ %252, %246 ]
  %257 = icmp eq i32 %256, 0
  br i1 %257, label %258, label %259

258:                                              ; preds = %255
  call void @_ZNK3WTF10StringImpl18DestroyIfNotStaticEv(%"class.WTF::StringImpl"* nonnull %244) #4
  br label %259

259:                                              ; preds = %243, %255, %258
  call void @llvm.lifetime.end.p0i8(i64 72, i8* nonnull %19) #4
  ret void
}

declare %"class.v8::Signature"* @_ZN2v89Signature3NewEPNS_7IsolateENS_5LocalINS_16FunctionTemplateEEE(%"class.v8::Isolate"*, %"class.v8::FunctionTemplate"*) local_unnamed_addr #2

declare void @_ZN5blink8bindings18IDLMemberInstaller17InstallOperationsEPN2v87IsolateERKNS_15DOMWrapperWorldENS2_5LocalINS2_8TemplateEEESA_SA_NS8_INS2_9SignatureEEEN4base4spanIKNS1_15OperationConfigELm18446744073709551615EEE(%"class.v8::Isolate"*, %"class.blink::DOMWrapperWorld"* dereferenceable(32), %"class.v8::Template"*, %"class.v8::Template"*, %"class.v8::Template"*, %"class.v8::Signature"*, %"class.base::span"* byval(%"class.base::span") align 8) local_unnamed_addr #2

declare %"class.v8::Isolate"* @_ZN2v87Context10GetIsolateEv(%"class.v8::Context"*) local_unnamed_addr #2

declare i16 @_ZN2v86Object6DeleteENS_5LocalINS_7ContextEEENS1_INS_5ValueEEE(%"class.v8::Object"*, %"class.v8::Context"*, %"class.v8::Value"*) local_unnamed_addr #2

; Function Attrs: argmemonly nounwind
declare void @llvm.memset.p0i8.i64(i8* nocapture writeonly, i8, i64, i1 immarg) #1

declare void @_ZN5blink14ExceptionState14ThrowTypeErrorEPKc(%"class.blink::ExceptionState"*, i8*) local_unnamed_addr #2

declare void @_ZN5blink14ExceptionState14ThrowTypeErrorERKN3WTF6StringE(%"class.blink::ExceptionState"*, %"class.WTF::String"* dereferenceable(8)) unnamed_addr #2

declare %"class.WTF::StringImpl"* @_ZN5blink17ExceptionMessages18NotEnoughArgumentsEjj(i32, i32) local_unnamed_addr #2

declare %"class.v8::Context"* @_ZN2v86Object15CreationContextEv(%"class.v8::Object"*) local_unnamed_addr #2

; Function Attrs: nounwind ssp uwtable
define linkonce_odr hidden %"class.blink::ScriptState"* @_ZN5blink11ScriptState4FromEN2v85LocalINS1_7ContextEEE(%"class.v8::Context"*) local_unnamed_addr #0 comdat align 2 {
  %2 = alloca %"class.logging::CheckError", align 8
  %3 = alloca %"class.logging::CheckError", align 8
  %4 = bitcast %"class.v8::Context"* %0 to i64*
  %5 = load i64, i64* %4, align 8
  %6 = add i64 %5, 23
  %7 = inttoptr i64 %6 to i32*
  %8 = load i32, i32* %7, align 4
  %9 = and i64 %5, -4294967296
  %10 = zext i32 %8 to i64
  %11 = or i64 %9, %10
  %12 = add i64 %11, 23
  %13 = inttoptr i64 %12 to i8**
  %14 = load i8*, i8** %13, align 1
  %15 = bitcast i8* %14 to %"class.blink::ScriptState"*
  %16 = icmp eq i8* %14, null
  br i1 %16, label %17, label %20

17:                                               ; preds = %1
  %18 = bitcast %"class.logging::CheckError"* %2 to i8*
  call void @llvm.lifetime.start.p0i8(i64 8, i8* nonnull %18) #4
  call void @_ZN7logging10CheckError5CheckEPKciS2_(%"class.logging::CheckError"* nonnull sret %2, i8* getelementptr inbounds ([66 x i8], [66 x i8]* @.str.7, i64 0, i64 0), i32 175, i8* getelementptr inbounds ([13 x i8], [13 x i8]* @.str.8, i64 0, i64 0)) #4
  %19 = call dereferenceable(160) %"class.std::__1::basic_ostream"* @_ZN7logging10CheckError6streamEv(%"class.logging::CheckError"* nonnull %2) #4
  call void @_ZN7logging10CheckErrorD1Ev(%"class.logging::CheckError"* nonnull %2) #4
  call void @llvm.lifetime.end.p0i8(i64 8, i8* nonnull %18) #4
  br label %20

20:                                               ; preds = %1, %17
  %21 = getelementptr inbounds i8, i8* %14, i64 8
  %22 = bitcast i8* %21 to i64**
  %23 = load i64*, i64** %22, align 8
  %24 = icmp eq i64* %23, null
  %25 = icmp eq %"class.v8::Context"* %0, null
  %26 = or i1 %25, %24
  br i1 %26, label %31, label %27

27:                                               ; preds = %20
  %28 = load i64, i64* %23, align 8
  %29 = load i64, i64* %4, align 8
  %30 = icmp eq i64 %28, %29
  br i1 %30, label %36, label %33

31:                                               ; preds = %20
  %32 = and i1 %25, %24
  br i1 %32, label %36, label %33

33:                                               ; preds = %27, %31
  %34 = bitcast %"class.logging::CheckError"* %3 to i8*
  call void @llvm.lifetime.start.p0i8(i64 8, i8* nonnull %34) #4
  call void @_ZN7logging10CheckError5CheckEPKciS2_(%"class.logging::CheckError"* nonnull sret %3, i8* getelementptr inbounds ([66 x i8], [66 x i8]* @.str.7, i64 0, i64 0), i32 176, i8* getelementptr inbounds ([34 x i8], [34 x i8]* @.str.9, i64 0, i64 0)) #4
  %35 = call dereferenceable(160) %"class.std::__1::basic_ostream"* @_ZN7logging10CheckError6streamEv(%"class.logging::CheckError"* nonnull %3) #4
  call void @_ZN7logging10CheckErrorD1Ev(%"class.logging::CheckError"* nonnull %3) #4
  call void @llvm.lifetime.end.p0i8(i64 8, i8* nonnull %34) #4
  br label %36

36:                                               ; preds = %27, %31, %33
  ret %"class.blink::ScriptState"* %15
}

; Function Attrs: nounwind ssp uwtable
define linkonce_odr hidden void @_ZN5blink29ExceptionToRejectPromiseScopeD2Ev(%"class.blink::ExceptionToRejectPromiseScope"*) unnamed_addr #0 comdat align 2 {
  %2 = alloca %"class.blink::ScriptPromise", align 8
  %3 = getelementptr inbounds %"class.blink::ExceptionToRejectPromiseScope", %"class.blink::ExceptionToRejectPromiseScope"* %0, i64 0, i32 1
  %4 = load %"class.blink::ExceptionState"*, %"class.blink::ExceptionState"** %3, align 8
  %5 = getelementptr inbounds %"class.blink::ExceptionState", %"class.blink::ExceptionState"* %4, i64 0, i32 4
  %6 = load i32, i32* %5, align 8
  %7 = icmp eq i32 %6, 0
  br i1 %7, label %42, label %8

8:                                                ; preds = %1
  %9 = getelementptr inbounds %"class.blink::ExceptionToRejectPromiseScope", %"class.blink::ExceptionToRejectPromiseScope"* %0, i64 0, i32 0
  %10 = load %"class.v8::FunctionCallbackInfo"*, %"class.v8::FunctionCallbackInfo"** %9, align 8
  %11 = getelementptr inbounds %"class.v8::FunctionCallbackInfo", %"class.v8::FunctionCallbackInfo"* %10, i64 0, i32 0
  %12 = load i64*, i64** %11, align 8
  %13 = getelementptr inbounds i64, i64* %12, i64 1
  %14 = bitcast i64* %13 to %"class.v8::Isolate"**
  %15 = load %"class.v8::Isolate"*, %"class.v8::Isolate"** %14, align 8
  %16 = tail call %"class.v8::Context"* @_ZN2v87Isolate17GetCurrentContextEv(%"class.v8::Isolate"* %15) #4
  %17 = tail call %"class.blink::ScriptState"* @_ZN5blink11ScriptState4FromEN2v85LocalINS1_7ContextEEE(%"class.v8::Context"* %16) #4
  %18 = load %"class.v8::FunctionCallbackInfo"*, %"class.v8::FunctionCallbackInfo"** %9, align 8
  %19 = bitcast %"class.blink::ScriptPromise"* %2 to i8*
  call void @llvm.lifetime.start.p0i8(i64 32, i8* nonnull %19) #4
  %20 = load %"class.blink::ExceptionState"*, %"class.blink::ExceptionState"** %3, align 8
  call void @_ZN5blink13ScriptPromise6RejectEPNS_11ScriptStateERNS_14ExceptionStateE(%"class.blink::ScriptPromise"* nonnull sret %2, %"class.blink::ScriptState"* %17, %"class.blink::ExceptionState"* dereferenceable(72) %20) #4
  %21 = getelementptr inbounds %"class.blink::ScriptPromise", %"class.blink::ScriptPromise"* %2, i64 0, i32 1
  %22 = call %"class.v8::Value"* @_ZNK5blink11ScriptValue7V8ValueEv(%"class.blink::ScriptValue"* %21) #4
  %23 = getelementptr inbounds %"class.v8::FunctionCallbackInfo", %"class.v8::FunctionCallbackInfo"* %18, i64 0, i32 0
  %24 = load i64*, i64** %23, align 8
  %25 = getelementptr inbounds i64, i64* %24, i64 3
  %26 = icmp eq %"class.v8::Value"* %22, null
  %27 = bitcast %"class.v8::Value"* %22 to i64*
  %28 = getelementptr inbounds i64, i64* %24, i64 2
  %29 = select i1 %26, i64* %28, i64* %27, !prof !2
  %30 = load i64, i64* %29, align 8
  store i64 %30, i64* %25, align 8
  %31 = getelementptr inbounds %"class.blink::ScriptPromise", %"class.blink::ScriptPromise"* %2, i64 0, i32 1, i32 1, i32 1, i32 0
  %32 = load %"class.blink::DOMWrapperWorld"*, %"class.blink::DOMWrapperWorld"** %31, align 8
  %33 = icmp eq %"class.blink::DOMWrapperWorld"* %32, null
  br i1 %33, label %41, label %34

34:                                               ; preds = %8
  %35 = getelementptr inbounds %"class.blink::DOMWrapperWorld", %"class.blink::DOMWrapperWorld"* %32, i64 0, i32 0, i32 0, i32 0
  call void @_ZNK4base6subtle14RefCountedBase11ReleaseImplEv(%"class.base::subtle::RefCountedBase"* %35) #4
  %36 = getelementptr inbounds %"class.blink::DOMWrapperWorld", %"class.blink::DOMWrapperWorld"* %32, i64 0, i32 0, i32 0, i32 0, i32 0
  %37 = load i32, i32* %36, align 4
  %38 = icmp eq i32 %37, 0
  br i1 %38, label %39, label %41

39:                                               ; preds = %34
  call void @_ZN5blink15DOMWrapperWorldD1Ev(%"class.blink::DOMWrapperWorld"* nonnull %32) #4
  %40 = bitcast %"class.blink::DOMWrapperWorld"* %32 to i8*
  call void @free(i8* %40) #4
  br label %41

41:                                               ; preds = %8, %34, %39
  call void @llvm.lifetime.end.p0i8(i64 32, i8* nonnull %19) #4
  br label %42

42:                                               ; preds = %1, %41
  ret void
}

declare zeroext i1 @_ZN5blink16V8PerIsolateData11HasInstanceEPKNS_15WrapperTypeInfoEN2v85LocalINS4_5ValueEEE(%"class.blink::V8PerIsolateData"*, %"struct.blink::WrapperTypeInfo"*, %"class.v8::Value"*) local_unnamed_addr #2

declare void @_ZNK3WTF10StringImpl18DestroyIfNotStaticEv(%"class.WTF::StringImpl"*) local_unnamed_addr #2

declare i8* @_ZN2v86Object38SlowGetAlignedPointerFromInternalFieldEi(%"class.v8::Object"*, i32) local_unnamed_addr #2

declare void @_ZN7logging10CheckError5CheckEPKciS2_(%"class.logging::CheckError"* sret, i8*, i32, i8*) local_unnamed_addr #2

declare dereferenceable(160) %"class.std::__1::basic_ostream"* @_ZN7logging10CheckError6streamEv(%"class.logging::CheckError"*) local_unnamed_addr #2

; Function Attrs: nounwind
declare void @_ZN7logging10CheckErrorD1Ev(%"class.logging::CheckError"*) unnamed_addr #3

; Function Attrs: nounwind ssp uwtable
define linkonce_odr hidden void @_ZN5blink20WorldSafeV8ReferenceIN2v85ValueEEC2EPNS1_7IsolateENS1_5LocalIS2_EE(%"class.blink::WorldSafeV8Reference"*, %"class.v8::Isolate"*, %"class.v8::Value"*) unnamed_addr #0 comdat align 2 {
  %4 = getelementptr inbounds %"class.blink::WorldSafeV8Reference", %"class.blink::WorldSafeV8Reference"* %0, i64 0, i32 1
  %5 = getelementptr inbounds %class.scoped_refptr.208, %class.scoped_refptr.208* %4, i64 0, i32 0
  %6 = icmp eq %"class.v8::Value"* %2, null
  %7 = bitcast %"class.blink::WorldSafeV8Reference"* %0 to i8*
  call void @llvm.memset.p0i8.i64(i8* align 8 %7, i8 0, i64 16, i1 false)
  br i1 %6, label %61, label %8

8:                                                ; preds = %3
  %9 = getelementptr inbounds %"class.blink::WorldSafeV8Reference", %"class.blink::WorldSafeV8Reference"* %0, i64 0, i32 0
  %10 = bitcast %"class.v8::Value"* %2 to i64*
  %11 = bitcast %"class.v8::Isolate"* %1 to %"class.v8::internal::Isolate"*
  %12 = bitcast %"class.blink::WorldSafeV8Reference"* %0 to i64*
  %13 = tail call i64* @_ZN2v82V824GlobalizeTracedReferenceEPNS_8internal7IsolateEPmS4_b(%"class.v8::internal::Isolate"* %11, i64* nonnull %10, i64* %12, i1 zeroext false) #4
  %14 = ptrtoint i64* %13 to i64
  store atomic i64 %14, i64* %12 monotonic, align 8
  tail call void @_ZN5blink25UnifiedHeapMarkingVisitor12WriteBarrierERKNS_23TraceWrapperV8ReferenceIN2v85ValueEEE(%"class.blink::TraceWrapperV8Reference.189"* dereferenceable(8) %9) #4
  %15 = tail call zeroext i1 @_ZN2v87Isolate9InContextEv(%"class.v8::Isolate"* %1) #4
  br i1 %15, label %16, label %38

16:                                               ; preds = %8
  %17 = tail call %"class.v8::Context"* @_ZN2v87Isolate17GetCurrentContextEv(%"class.v8::Isolate"* %1) #4
  %18 = tail call %"class.blink::ScriptState"* @_ZN5blink11ScriptState4FromEN2v85LocalINS1_7ContextEEE(%"class.v8::Context"* %17) #4
  %19 = getelementptr inbounds %"class.blink::ScriptState", %"class.blink::ScriptState"* %18, i64 0, i32 2, i32 0
  %20 = load %"class.blink::DOMWrapperWorld"*, %"class.blink::DOMWrapperWorld"** %19, align 8
  %21 = icmp eq %"class.blink::DOMWrapperWorld"* %20, null
  br i1 %21, label %24, label %22

22:                                               ; preds = %16
  %23 = getelementptr inbounds %"class.blink::DOMWrapperWorld", %"class.blink::DOMWrapperWorld"* %20, i64 0, i32 0, i32 0, i32 0
  tail call void @_ZNK4base6subtle14RefCountedBase10AddRefImplEv(%"class.base::subtle::RefCountedBase"* %23) #4
  br label %24

24:                                               ; preds = %22, %16
  %25 = ptrtoint %"class.blink::DOMWrapperWorld"* %20 to i64
  %26 = bitcast %class.scoped_refptr.208* %4 to i64*
  %27 = load %"class.blink::DOMWrapperWorld"*, %"class.blink::DOMWrapperWorld"** %5, align 8
  store i64 %25, i64* %26, align 8
  %28 = icmp eq %"class.blink::DOMWrapperWorld"* %27, null
  br i1 %28, label %36, label %29

29:                                               ; preds = %24
  %30 = getelementptr inbounds %"class.blink::DOMWrapperWorld", %"class.blink::DOMWrapperWorld"* %27, i64 0, i32 0, i32 0, i32 0
  tail call void @_ZNK4base6subtle14RefCountedBase11ReleaseImplEv(%"class.base::subtle::RefCountedBase"* %30) #4
  %31 = getelementptr inbounds %"class.blink::DOMWrapperWorld", %"class.blink::DOMWrapperWorld"* %27, i64 0, i32 0, i32 0, i32 0, i32 0
  %32 = load i32, i32* %31, align 4
  %33 = icmp eq i32 %32, 0
  br i1 %33, label %34, label %36

34:                                               ; preds = %29
  tail call void @_ZN5blink15DOMWrapperWorldD1Ev(%"class.blink::DOMWrapperWorld"* nonnull %27) #4
  %35 = bitcast %"class.blink::DOMWrapperWorld"* %27 to i8*
  tail call void @free(i8* %35) #4
  br label %36

36:                                               ; preds = %24, %29, %34
  %37 = load %"class.blink::DOMWrapperWorld"*, %"class.blink::DOMWrapperWorld"** %5, align 8
  tail call void @_ZN5blink28WorldSafeV8ReferenceInternal30MaybeCheckCreationContextWorldERKNS_15DOMWrapperWorldEN2v85LocalINS4_5ValueEEE(%"class.blink::DOMWrapperWorld"* dereferenceable(32) %37, %"class.v8::Value"* nonnull %2) #4
  br label %61

38:                                               ; preds = %8
  %39 = tail call zeroext i1 @_ZNK2v85Value8IsObjectEv(%"class.v8::Value"* nonnull %2) #4
  br i1 %39, label %40, label %61

40:                                               ; preds = %38
  %41 = bitcast %"class.v8::Value"* %2 to %"class.v8::Object"*
  %42 = tail call %"class.v8::Context"* @_ZN2v86Object15CreationContextEv(%"class.v8::Object"* nonnull %41) #4
  %43 = tail call %"class.blink::ScriptState"* @_ZN5blink11ScriptState4FromEN2v85LocalINS1_7ContextEEE(%"class.v8::Context"* %42)
  %44 = getelementptr inbounds %"class.blink::ScriptState", %"class.blink::ScriptState"* %43, i64 0, i32 2, i32 0
  %45 = load %"class.blink::DOMWrapperWorld"*, %"class.blink::DOMWrapperWorld"** %44, align 8
  %46 = icmp eq %"class.blink::DOMWrapperWorld"* %45, null
  br i1 %46, label %49, label %47

47:                                               ; preds = %40
  %48 = getelementptr inbounds %"class.blink::DOMWrapperWorld", %"class.blink::DOMWrapperWorld"* %45, i64 0, i32 0, i32 0, i32 0
  tail call void @_ZNK4base6subtle14RefCountedBase10AddRefImplEv(%"class.base::subtle::RefCountedBase"* %48) #4
  br label %49

49:                                               ; preds = %47, %40
  %50 = ptrtoint %"class.blink::DOMWrapperWorld"* %45 to i64
  %51 = bitcast %class.scoped_refptr.208* %4 to i64*
  %52 = load %"class.blink::DOMWrapperWorld"*, %"class.blink::DOMWrapperWorld"** %5, align 8
  store i64 %50, i64* %51, align 8
  %53 = icmp eq %"class.blink::DOMWrapperWorld"* %52, null
  br i1 %53, label %61, label %54

54:                                               ; preds = %49
  %55 = getelementptr inbounds %"class.blink::DOMWrapperWorld", %"class.blink::DOMWrapperWorld"* %52, i64 0, i32 0, i32 0, i32 0
  tail call void @_ZNK4base6subtle14RefCountedBase11ReleaseImplEv(%"class.base::subtle::RefCountedBase"* %55) #4
  %56 = getelementptr inbounds %"class.blink::DOMWrapperWorld", %"class.blink::DOMWrapperWorld"* %52, i64 0, i32 0, i32 0, i32 0, i32 0
  %57 = load i32, i32* %56, align 4
  %58 = icmp eq i32 %57, 0
  br i1 %58, label %59, label %61

59:                                               ; preds = %54
  tail call void @_ZN5blink15DOMWrapperWorldD1Ev(%"class.blink::DOMWrapperWorld"* nonnull %52) #4
  %60 = bitcast %"class.blink::DOMWrapperWorld"* %52 to i8*
  tail call void @free(i8* %60) #4
  br label %61

61:                                               ; preds = %59, %54, %49, %38, %3, %36
  ret void
}

declare zeroext i1 @_ZN2v87Isolate9InContextEv(%"class.v8::Isolate"*) local_unnamed_addr #2

declare void @_ZN5blink28WorldSafeV8ReferenceInternal30MaybeCheckCreationContextWorldERKNS_15DOMWrapperWorldEN2v85LocalINS4_5ValueEEE(%"class.blink::DOMWrapperWorld"* dereferenceable(32), %"class.v8::Value"*) local_unnamed_addr #2

declare zeroext i1 @_ZNK2v85Value8IsObjectEv(%"class.v8::Value"*) local_unnamed_addr #2

declare void @_ZN5blink25UnifiedHeapMarkingVisitor12WriteBarrierERKNS_23TraceWrapperV8ReferenceIN2v85ValueEEE(%"class.blink::TraceWrapperV8Reference.189"* dereferenceable(8)) local_unnamed_addr #2

declare i64* @_ZN2v82V824GlobalizeTracedReferenceEPNS_8internal7IsolateEPmS4_b(%"class.v8::internal::Isolate"*, i64*, i64*, i1 zeroext) local_unnamed_addr #2

declare %"class.v8::Context"* @_ZN2v87Isolate17GetCurrentContextEv(%"class.v8::Isolate"*) local_unnamed_addr #2

declare void @_ZNK4base6subtle14RefCountedBase10AddRefImplEv(%"class.base::subtle::RefCountedBase"*) local_unnamed_addr #2

declare void @_ZNK4base6subtle14RefCountedBase11ReleaseImplEv(%"class.base::subtle::RefCountedBase"*) local_unnamed_addr #2

; Function Attrs: nounwind
declare void @_ZN5blink15DOMWrapperWorldD1Ev(%"class.blink::DOMWrapperWorld"*) unnamed_addr #3

; Function Attrs: nounwind
declare void @free(i8* nocapture) local_unnamed_addr #3

declare void @_ZN2v82V825CopyTracedGlobalReferenceEPKPKmPPm(i64**, i64**) local_unnamed_addr #2

declare %"class.v8::Value"* @_ZNK5blink11ScriptValue7V8ValueEv(%"class.blink::ScriptValue"*) local_unnamed_addr #2

declare void @_ZN5blink13ScriptPromise6RejectEPNS_11ScriptStateERNS_14ExceptionStateE(%"class.blink::ScriptPromise"* sret, %"class.blink::ScriptState"*, %"class.blink::ExceptionState"* dereferenceable(72)) local_unnamed_addr #2

declare zeroext i1 @_ZN2v87Isolate22IsExecutionTerminatingEv(%"class.v8::Isolate"*) local_unnamed_addr #2

declare %"class.v8::Value"* @_ZN2v87Isolate14ThrowExceptionENS_5LocalINS_5ValueEEE(%"class.v8::Isolate"*, %"class.v8::Value"*) local_unnamed_addr #2

declare i64* @_ZN2v811HandleScope12CreateHandleEPNS_8internal7IsolateEm(%"class.v8::internal::Isolate"*, i64) local_unnamed_addr #2

; Function Attrs: nounwind ssp uwtable
define linkonce_odr hidden void @_ZN5blink18UnderlyingSinkBase5startEPNS_11ScriptStateENS_11ScriptValueERNS_14ExceptionStateE(%"class.blink::ScriptPromise"* noalias sret, %"class.blink::UnderlyingSinkBase"*, %"class.blink::ScriptState"*, %"class.blink::ScriptValue"*, %"class.blink::ExceptionState"* dereferenceable(72)) local_unnamed_addr #0 comdat align 2 {
  %6 = alloca %"class.blink::ScriptValue", align 8
  %7 = bitcast %"class.blink::ScriptValue"* %3 to i64*
  %8 = load i64, i64* %7, align 8
  %9 = bitcast %"class.blink::ScriptValue"* %6 to i64*
  store i64 %8, i64* %9, align 8
  %10 = getelementptr inbounds %"class.blink::ScriptValue", %"class.blink::ScriptValue"* %6, i64 0, i32 1
  %11 = getelementptr inbounds %"class.blink::WorldSafeV8Reference", %"class.blink::WorldSafeV8Reference"* %10, i64 0, i32 0
  %12 = getelementptr inbounds %"class.blink::WorldSafeV8Reference", %"class.blink::WorldSafeV8Reference"* %10, i64 0, i32 0, i32 0, i32 0, i32 0, i32 0
  store i64* null, i64** %12, align 8
  %13 = icmp eq %"class.blink::ScriptValue"* %6, %3
  br i1 %13, label %19, label %14

14:                                               ; preds = %5
  %15 = getelementptr inbounds %"class.blink::ScriptValue", %"class.blink::ScriptValue"* %3, i64 0, i32 1, i32 0, i32 0, i32 0, i32 0, i32 0
  %16 = load i64*, i64** %15, align 8
  %17 = icmp eq i64* %16, null
  br i1 %17, label %19, label %18

18:                                               ; preds = %14
  call void @_ZN2v82V825CopyTracedGlobalReferenceEPKPKmPPm(i64** %15, i64** %12) #4
  br label %19

19:                                               ; preds = %18, %14, %5
  call void @_ZN5blink25UnifiedHeapMarkingVisitor12WriteBarrierERKNS_23TraceWrapperV8ReferenceIN2v85ValueEEE(%"class.blink::TraceWrapperV8Reference.189"* dereferenceable(8) %11) #4
  %20 = getelementptr inbounds %"class.blink::ScriptValue", %"class.blink::ScriptValue"* %3, i64 0, i32 1, i32 1, i32 0
  %21 = load %"class.blink::DOMWrapperWorld"*, %"class.blink::DOMWrapperWorld"** %20, align 8
  %22 = getelementptr inbounds %"class.blink::ScriptValue", %"class.blink::ScriptValue"* %6, i64 0, i32 1, i32 1, i32 0
  store %"class.blink::DOMWrapperWorld"* %21, %"class.blink::DOMWrapperWorld"** %22, align 8
  %23 = icmp eq %"class.blink::DOMWrapperWorld"* %21, null
  br i1 %23, label %26, label %24

24:                                               ; preds = %19
  %25 = getelementptr inbounds %"class.blink::DOMWrapperWorld", %"class.blink::DOMWrapperWorld"* %21, i64 0, i32 0, i32 0, i32 0
  call void @_ZNK4base6subtle14RefCountedBase10AddRefImplEv(%"class.base::subtle::RefCountedBase"* %25) #4
  br label %26

26:                                               ; preds = %19, %24
  %27 = call %"class.blink::WritableStreamDefaultController"* @_ZN5blink31WritableStreamDefaultController4FromENS_11ScriptValueE(%"class.blink::ScriptValue"* nonnull %6) #4
  %28 = getelementptr inbounds %"class.blink::UnderlyingSinkBase", %"class.blink::UnderlyingSinkBase"* %1, i64 0, i32 1
  %29 = ptrtoint %"class.blink::WritableStreamDefaultController"* %27 to i64
  %30 = bitcast %"class.blink::Member"* %28 to i64*
  store atomic i64 %29, i64* %30 monotonic, align 8
  %31 = load atomic i32, i32* getelementptr inbounds (%"class.blink::AtomicEntryFlag", %"class.blink::AtomicEntryFlag"* @_ZN5blink11ThreadState25incremental_marking_flag_E, i64 0, i32 0, i32 0, i32 0, i32 0, i32 0, i32 0) monotonic, align 4
  %32 = icmp eq i32 %31, 0
  br i1 %32, label %36, label %33

33:                                               ; preds = %26
  %34 = bitcast %"class.blink::WritableStreamDefaultController"* %27 to i8*
  %35 = call zeroext i1 @_ZN5blink14MarkingVisitor16WriteBarrierSlowEPv(i8* %34) #4
  br label %36

36:                                               ; preds = %26, %33
  %37 = load %"class.blink::DOMWrapperWorld"*, %"class.blink::DOMWrapperWorld"** %22, align 8
  %38 = icmp eq %"class.blink::DOMWrapperWorld"* %37, null
  br i1 %38, label %46, label %39

39:                                               ; preds = %36
  %40 = getelementptr inbounds %"class.blink::DOMWrapperWorld", %"class.blink::DOMWrapperWorld"* %37, i64 0, i32 0, i32 0, i32 0
  call void @_ZNK4base6subtle14RefCountedBase11ReleaseImplEv(%"class.base::subtle::RefCountedBase"* %40) #4
  %41 = getelementptr inbounds %"class.blink::DOMWrapperWorld", %"class.blink::DOMWrapperWorld"* %37, i64 0, i32 0, i32 0, i32 0, i32 0
  %42 = load i32, i32* %41, align 4
  %43 = icmp eq i32 %42, 0
  br i1 %43, label %44, label %46

44:                                               ; preds = %39
  call void @_ZN5blink15DOMWrapperWorldD1Ev(%"class.blink::DOMWrapperWorld"* nonnull %37) #4
  %45 = bitcast %"class.blink::DOMWrapperWorld"* %37 to i8*
  call void @free(i8* %45) #4
  br label %46

46:                                               ; preds = %36, %39, %44
  %47 = getelementptr inbounds %"class.blink::Member", %"class.blink::Member"* %28, i64 0, i32 0, i32 0
  %48 = load %"class.blink::WritableStreamDefaultController"*, %"class.blink::WritableStreamDefaultController"** %47, align 8
  %49 = bitcast %"class.blink::UnderlyingSinkBase"* %1 to void (%"class.blink::ScriptPromise"*, %"class.blink::UnderlyingSinkBase"*, %"class.blink::ScriptState"*, %"class.blink::WritableStreamDefaultController"*, %"class.blink::ExceptionState"*)***
  %50 = load void (%"class.blink::ScriptPromise"*, %"class.blink::UnderlyingSinkBase"*, %"class.blink::ScriptState"*, %"class.blink::WritableStreamDefaultController"*, %"class.blink::ExceptionState"*)**, void (%"class.blink::ScriptPromise"*, %"class.blink::UnderlyingSinkBase"*, %"class.blink::ScriptState"*, %"class.blink::WritableStreamDefaultController"*, %"class.blink::ExceptionState"*)*** %49, align 8
  %51 = getelementptr inbounds void (%"class.blink::ScriptPromise"*, %"class.blink::UnderlyingSinkBase"*, %"class.blink::ScriptState"*, %"class.blink::WritableStreamDefaultController"*, %"class.blink::ExceptionState"*)*, void (%"class.blink::ScriptPromise"*, %"class.blink::UnderlyingSinkBase"*, %"class.blink::ScriptState"*, %"class.blink::WritableStreamDefaultController"*, %"class.blink::ExceptionState"*)** %50, i64 9
  %52 = load void (%"class.blink::ScriptPromise"*, %"class.blink::UnderlyingSinkBase"*, %"class.blink::ScriptState"*, %"class.blink::WritableStreamDefaultController"*, %"class.blink::ExceptionState"*)*, void (%"class.blink::ScriptPromise"*, %"class.blink::UnderlyingSinkBase"*, %"class.blink::ScriptState"*, %"class.blink::WritableStreamDefaultController"*, %"class.blink::ExceptionState"*)** %51, align 8
  call void %52(%"class.blink::ScriptPromise"* sret %0, %"class.blink::UnderlyingSinkBase"* %1, %"class.blink::ScriptState"* %2, %"class.blink::WritableStreamDefaultController"* %48, %"class.blink::ExceptionState"* dereferenceable(72) %4) #4
  ret void
}

declare %"class.blink::WritableStreamDefaultController"* @_ZN5blink31WritableStreamDefaultController4FromENS_11ScriptValueE(%"class.blink::ScriptValue"*) local_unnamed_addr #2

declare zeroext i1 @_ZN5blink14MarkingVisitor16WriteBarrierSlowEPv(i8*) local_unnamed_addr #2

; Function Attrs: nounwind ssp uwtable
define linkonce_odr hidden void @_ZN5blink18UnderlyingSinkBase5writeEPNS_11ScriptStateENS_11ScriptValueES3_RNS_14ExceptionStateE(%"class.blink::ScriptPromise"* noalias sret, %"class.blink::UnderlyingSinkBase"*, %"class.blink::ScriptState"*, %"class.blink::ScriptValue"*, %"class.blink::ScriptValue"*, %"class.blink::ExceptionState"* dereferenceable(72)) local_unnamed_addr #0 comdat align 2 {
  %7 = alloca %"class.blink::ScriptValue", align 8
  %8 = bitcast %"class.blink::ScriptValue"* %3 to i64*
  %9 = load i64, i64* %8, align 8
  %10 = bitcast %"class.blink::ScriptValue"* %7 to i64*
  store i64 %9, i64* %10, align 8
  %11 = getelementptr inbounds %"class.blink::ScriptValue", %"class.blink::ScriptValue"* %7, i64 0, i32 1
  %12 = getelementptr inbounds %"class.blink::WorldSafeV8Reference", %"class.blink::WorldSafeV8Reference"* %11, i64 0, i32 0
  %13 = getelementptr inbounds %"class.blink::WorldSafeV8Reference", %"class.blink::WorldSafeV8Reference"* %11, i64 0, i32 0, i32 0, i32 0, i32 0, i32 0
  store i64* null, i64** %13, align 8
  %14 = icmp eq %"class.blink::ScriptValue"* %7, %3
  br i1 %14, label %20, label %15

15:                                               ; preds = %6
  %16 = getelementptr inbounds %"class.blink::ScriptValue", %"class.blink::ScriptValue"* %3, i64 0, i32 1, i32 0, i32 0, i32 0, i32 0, i32 0
  %17 = load i64*, i64** %16, align 8
  %18 = icmp eq i64* %17, null
  br i1 %18, label %20, label %19

19:                                               ; preds = %15
  call void @_ZN2v82V825CopyTracedGlobalReferenceEPKPKmPPm(i64** %16, i64** %13) #4
  br label %20

20:                                               ; preds = %19, %15, %6
  call void @_ZN5blink25UnifiedHeapMarkingVisitor12WriteBarrierERKNS_23TraceWrapperV8ReferenceIN2v85ValueEEE(%"class.blink::TraceWrapperV8Reference.189"* dereferenceable(8) %12) #4
  %21 = getelementptr inbounds %"class.blink::ScriptValue", %"class.blink::ScriptValue"* %3, i64 0, i32 1, i32 1, i32 0
  %22 = load %"class.blink::DOMWrapperWorld"*, %"class.blink::DOMWrapperWorld"** %21, align 8
  %23 = getelementptr inbounds %"class.blink::ScriptValue", %"class.blink::ScriptValue"* %7, i64 0, i32 1, i32 1, i32 0
  store %"class.blink::DOMWrapperWorld"* %22, %"class.blink::DOMWrapperWorld"** %23, align 8
  %24 = icmp eq %"class.blink::DOMWrapperWorld"* %22, null
  br i1 %24, label %27, label %25

25:                                               ; preds = %20
  %26 = getelementptr inbounds %"class.blink::DOMWrapperWorld", %"class.blink::DOMWrapperWorld"* %22, i64 0, i32 0, i32 0, i32 0
  call void @_ZNK4base6subtle14RefCountedBase10AddRefImplEv(%"class.base::subtle::RefCountedBase"* %26) #4
  br label %27

27:                                               ; preds = %20, %25
  %28 = getelementptr inbounds %"class.blink::UnderlyingSinkBase", %"class.blink::UnderlyingSinkBase"* %1, i64 0, i32 1, i32 0, i32 0
  %29 = load %"class.blink::WritableStreamDefaultController"*, %"class.blink::WritableStreamDefaultController"** %28, align 8
  %30 = bitcast %"class.blink::UnderlyingSinkBase"* %1 to void (%"class.blink::ScriptPromise"*, %"class.blink::UnderlyingSinkBase"*, %"class.blink::ScriptState"*, %"class.blink::ScriptValue"*, %"class.blink::WritableStreamDefaultController"*, %"class.blink::ExceptionState"*)***
  %31 = load void (%"class.blink::ScriptPromise"*, %"class.blink::UnderlyingSinkBase"*, %"class.blink::ScriptState"*, %"class.blink::ScriptValue"*, %"class.blink::WritableStreamDefaultController"*, %"class.blink::ExceptionState"*)**, void (%"class.blink::ScriptPromise"*, %"class.blink::UnderlyingSinkBase"*, %"class.blink::ScriptState"*, %"class.blink::ScriptValue"*, %"class.blink::WritableStreamDefaultController"*, %"class.blink::ExceptionState"*)*** %30, align 8
  %32 = getelementptr inbounds void (%"class.blink::ScriptPromise"*, %"class.blink::UnderlyingSinkBase"*, %"class.blink::ScriptState"*, %"class.blink::ScriptValue"*, %"class.blink::WritableStreamDefaultController"*, %"class.blink::ExceptionState"*)*, void (%"class.blink::ScriptPromise"*, %"class.blink::UnderlyingSinkBase"*, %"class.blink::ScriptState"*, %"class.blink::ScriptValue"*, %"class.blink::WritableStreamDefaultController"*, %"class.blink::ExceptionState"*)** %31, i64 10
  %33 = load void (%"class.blink::ScriptPromise"*, %"class.blink::UnderlyingSinkBase"*, %"class.blink::ScriptState"*, %"class.blink::ScriptValue"*, %"class.blink::WritableStreamDefaultController"*, %"class.blink::ExceptionState"*)*, void (%"class.blink::ScriptPromise"*, %"class.blink::UnderlyingSinkBase"*, %"class.blink::ScriptState"*, %"class.blink::ScriptValue"*, %"class.blink::WritableStreamDefaultController"*, %"class.blink::ExceptionState"*)** %32, align 8
  call void %33(%"class.blink::ScriptPromise"* sret %0, %"class.blink::UnderlyingSinkBase"* %1, %"class.blink::ScriptState"* %2, %"class.blink::ScriptValue"* nonnull %7, %"class.blink::WritableStreamDefaultController"* %29, %"class.blink::ExceptionState"* dereferenceable(72) %5) #4
  %34 = load %"class.blink::DOMWrapperWorld"*, %"class.blink::DOMWrapperWorld"** %23, align 8
  %35 = icmp eq %"class.blink::DOMWrapperWorld"* %34, null
  br i1 %35, label %43, label %36

36:                                               ; preds = %27
  %37 = getelementptr inbounds %"class.blink::DOMWrapperWorld", %"class.blink::DOMWrapperWorld"* %34, i64 0, i32 0, i32 0, i32 0
  call void @_ZNK4base6subtle14RefCountedBase11ReleaseImplEv(%"class.base::subtle::RefCountedBase"* %37) #4
  %38 = getelementptr inbounds %"class.blink::DOMWrapperWorld", %"class.blink::DOMWrapperWorld"* %34, i64 0, i32 0, i32 0, i32 0, i32 0
  %39 = load i32, i32* %38, align 4
  %40 = icmp eq i32 %39, 0
  br i1 %40, label %41, label %43

41:                                               ; preds = %36
  call void @_ZN5blink15DOMWrapperWorldD1Ev(%"class.blink::DOMWrapperWorld"* nonnull %34) #4
  %42 = bitcast %"class.blink::DOMWrapperWorld"* %34 to i8*
  call void @free(i8* %42) #4
  br label %43

43:                                               ; preds = %27, %36, %41
  ret void
}

declare %"class.v8::String"* @_ZN2v86String14NewFromOneByteEPNS_7IsolateEPKhNS_13NewStringTypeEi(%"class.v8::Isolate"*, i8*, i32, i32) local_unnamed_addr #2

declare void @_ZN2v82V812ToLocalEmptyEv() local_unnamed_addr #2

declare void @_ZN2v82V817FromJustIsNothingEv() local_unnamed_addr #2

attributes #0 = { nounwind ssp uwtable "correctly-rounded-divide-sqrt-fp-math"="false" "disable-tail-calls"="false" "less-precise-fpmad"="false" "min-legal-vector-width"="0" "no-frame-pointer-elim"="false" "no-frame-pointer-elim-non-leaf" "no-infs-fp-math"="false" "no-jump-tables"="false" "no-nans-fp-math"="false" "no-signed-zeros-fp-math"="false" "no-trapping-math"="false" "null-pointer-is-valid"="true" "stack-protector-buffer-size"="4" "target-cpu"="x86-64" "target-features"="+cx8,+fxsr,+mmx,+sse,+sse2,+sse3,+x87" "unsafe-fp-math"="false" "use-soft-float"="false" }
attributes #1 = { argmemonly nounwind }
attributes #2 = { "correctly-rounded-divide-sqrt-fp-math"="false" "disable-tail-calls"="false" "less-precise-fpmad"="false" "no-frame-pointer-elim"="false" "no-frame-pointer-elim-non-leaf" "no-infs-fp-math"="false" "no-nans-fp-math"="false" "no-signed-zeros-fp-math"="false" "no-trapping-math"="false" "null-pointer-is-valid"="true" "stack-protector-buffer-size"="4" "target-cpu"="x86-64" "target-features"="+cx8,+fxsr,+mmx,+sse,+sse2,+sse3,+x87" "unsafe-fp-math"="false" "use-soft-float"="false" }
attributes #3 = { nounwind "correctly-rounded-divide-sqrt-fp-math"="false" "disable-tail-calls"="false" "less-precise-fpmad"="false" "no-frame-pointer-elim"="false" "no-frame-pointer-elim-non-leaf" "no-infs-fp-math"="false" "no-nans-fp-math"="false" "no-signed-zeros-fp-math"="false" "no-trapping-math"="false" "null-pointer-is-valid"="true" "stack-protector-buffer-size"="4" "target-cpu"="x86-64" "target-features"="+cx8,+fxsr,+mmx,+sse,+sse2,+sse3,+x87" "unsafe-fp-math"="false" "use-soft-float"="false" }
attributes #4 = { nounwind }

!llvm.module.flags = !{!0, !1}

!0 = !{i32 1, !"wchar_size", i32 4}
!1 = !{i32 7, !"PIC Level", i32 2}
!2 = !{!"branch_weights", i32 1, i32 2000}
!3 = !{!4, !6}
!4 = distinct !{!4, !5, !"_ZN5blink17NativeValueTraitsINS_6IDLAnyEvE11NativeValueEPN2v87IsolateENS3_5LocalINS3_5ValueEEERNS_14ExceptionStateE: argument 0"}
!5 = distinct !{!5, !"_ZN5blink17NativeValueTraitsINS_6IDLAnyEvE11NativeValueEPN2v87IsolateENS3_5LocalINS3_5ValueEEERNS_14ExceptionStateE"}
!6 = distinct !{!6, !7, !"_ZN5blink21NativeValueTraitsBaseINS_6IDLAnyEvE13ArgumentValueIJEEEDcPN2v87IsolateEiNS4_5LocalINS4_5ValueEEERNS_14ExceptionStateEDpT_: argument 0"}
!7 = distinct !{!7, !"_ZN5blink21NativeValueTraitsBaseINS_6IDLAnyEvE13ArgumentValueIJEEEDcPN2v87IsolateEiNS4_5LocalINS4_5ValueEEERNS_14ExceptionStateEDpT_"}
!8 = !{!9, !11}
!9 = distinct !{!9, !10, !"_ZN5blink17NativeValueTraitsINS_6IDLAnyEvE11NativeValueEPN2v87IsolateENS3_5LocalINS3_5ValueEEERNS_14ExceptionStateE: argument 0"}
!10 = distinct !{!10, !"_ZN5blink17NativeValueTraitsINS_6IDLAnyEvE11NativeValueEPN2v87IsolateENS3_5LocalINS3_5ValueEEERNS_14ExceptionStateE"}
!11 = distinct !{!11, !12, !"_ZN5blink21NativeValueTraitsBaseINS_6IDLAnyEvE13ArgumentValueIJEEEDcPN2v87IsolateEiNS4_5LocalINS4_5ValueEEERNS_14ExceptionStateEDpT_: argument 0"}
!12 = distinct !{!12, !"_ZN5blink21NativeValueTraitsBaseINS_6IDLAnyEvE13ArgumentValueIJEEEDcPN2v87IsolateEiNS4_5LocalINS4_5ValueEEERNS_14ExceptionStateEDpT_"}
!13 = !{!14, !16}
!14 = distinct !{!14, !15, !"_ZN5blink17NativeValueTraitsINS_6IDLAnyEvE11NativeValueEPN2v87IsolateENS3_5LocalINS3_5ValueEEERNS_14ExceptionStateE: argument 0"}
!15 = distinct !{!15, !"_ZN5blink17NativeValueTraitsINS_6IDLAnyEvE11NativeValueEPN2v87IsolateENS3_5LocalINS3_5ValueEEERNS_14ExceptionStateE"}
!16 = distinct !{!16, !17, !"_ZN5blink21NativeValueTraitsBaseINS_6IDLAnyEvE13ArgumentValueIJEEEDcPN2v87IsolateEiNS4_5LocalINS4_5ValueEEERNS_14ExceptionStateEDpT_: argument 0"}
!17 = distinct !{!17, !"_ZN5blink21NativeValueTraitsBaseINS_6IDLAnyEvE13ArgumentValueIJEEEDcPN2v87IsolateEiNS4_5LocalINS4_5ValueEEERNS_14ExceptionStateEDpT_"}
!18 = !{!19, !21}
!19 = distinct !{!19, !20, !"_ZN5blink17NativeValueTraitsINS_6IDLAnyEvE11NativeValueEPN2v87IsolateENS3_5LocalINS3_5ValueEEERNS_14ExceptionStateE: argument 0"}
!20 = distinct !{!20, !"_ZN5blink17NativeValueTraitsINS_6IDLAnyEvE11NativeValueEPN2v87IsolateENS3_5LocalINS3_5ValueEEERNS_14ExceptionStateE"}
!21 = distinct !{!21, !22, !"_ZN5blink21NativeValueTraitsBaseINS_6IDLAnyEvE13ArgumentValueIJEEEDcPN2v87IsolateEiNS4_5LocalINS4_5ValueEEERNS_14ExceptionStateEDpT_: argument 0"}
!22 = distinct !{!22, !"_ZN5blink21NativeValueTraitsBaseINS_6IDLAnyEvE13ArgumentValueIJEEEDcPN2v87IsolateEiNS4_5LocalINS4_5ValueEEERNS_14ExceptionStateEDpT_"}
