; ModuleID = '../../media/gpu/vaapi/vaapi_picture_native_pixmap_egl.cc'
source_filename = "../../media/gpu/vaapi/vaapi_picture_native_pixmap_egl.cc"
target datalayout = "e-m:e-i64:64-f80:128-n8:16:32:64-S128"
target triple = "x86_64-unknown-linux-gnu"

module asm ".symver exp, exp@GLIBC_2.2.5"
module asm ".symver exp2, exp2@GLIBC_2.2.5"
module asm ".symver exp2f, exp2f@GLIBC_2.2.5"
module asm ".symver expf, expf@GLIBC_2.2.5"
module asm ".symver lgamma, lgamma@GLIBC_2.2.5"
module asm ".symver lgammaf, lgammaf@GLIBC_2.2.5"
module asm ".symver lgammal, lgammal@GLIBC_2.2.5"
module asm ".symver log, log@GLIBC_2.2.5"
module asm ".symver log2, log2@GLIBC_2.2.5"
module asm ".symver log2f, log2f@GLIBC_2.2.5"
module asm ".symver logf, logf@GLIBC_2.2.5"
module asm ".symver pow, pow@GLIBC_2.2.5"
module asm ".symver powf, powf@GLIBC_2.2.5"

%"class.std::__1::locale::id" = type <{ %"struct.std::__1::once_flag", i32, [4 x i8] }>
%"struct.std::__1::once_flag" = type { i64 }
%"class.media::VaapiPictureNativePixmapEgl" = type { %"class.media::VaapiPictureNativePixmap" }
%"class.media::VaapiPictureNativePixmap" = type { %"class.media::VaapiPicture", %class.scoped_refptr.9, %class.scoped_refptr.10 }
%"class.media::VaapiPicture" = type { i32 (...)**, %class.scoped_refptr, %"class.base::RepeatingCallback.7", %"class.base::RepeatingCallback.8", %"class.gfx::Size", %"class.gfx::Size", i32, i32, i32, i32 }
%class.scoped_refptr = type { %"class.media::VaapiWrapper"* }
%"class.base::RepeatingCallback.7" = type { %"class.base::internal::CallbackBaseCopyable" }
%"class.base::internal::CallbackBaseCopyable" = type { %"class.base::internal::CallbackBase" }
%"class.base::internal::CallbackBase" = type { %class.scoped_refptr.5 }
%class.scoped_refptr.5 = type { %"class.base::internal::BindStateBase"* }
%"class.base::internal::BindStateBase" = type { %"class.base::RefCountedThreadSafe.6", void ()*, void (%"class.base::internal::BindStateBase"*)*, i1 (%"class.base::internal::BindStateBase"*, i32)* }
%"class.base::RefCountedThreadSafe.6" = type { %"class.base::subtle::RefCountedThreadSafeBase" }
%"class.base::subtle::RefCountedThreadSafeBase" = type { %"class.base::AtomicRefCount" }
%"class.base::AtomicRefCount" = type { %"struct.std::__1::atomic" }
%"struct.std::__1::atomic" = type { %"struct.std::__1::__atomic_base" }
%"struct.std::__1::__atomic_base" = type { %"struct.std::__1::__atomic_base.0" }
%"struct.std::__1::__atomic_base.0" = type { %"struct.std::__1::__cxx_atomic_impl" }
%"struct.std::__1::__cxx_atomic_impl" = type { %"struct.std::__1::__cxx_atomic_base_impl" }
%"struct.std::__1::__cxx_atomic_base_impl" = type { i32 }
%"class.base::RepeatingCallback.8" = type { %"class.base::internal::CallbackBaseCopyable" }
%"class.gfx::Size" = type { i32, i32 }
%class.scoped_refptr.9 = type { %"class.gl::GLImage"* }
%"class.gl::GLImage" = type { i32 (...)**, %"class.base::RefCounted", %"class.gfx::ColorSpace" }
%"class.base::RefCounted" = type { %"class.base::subtle::RefCountedBase" }
%"class.base::subtle::RefCountedBase" = type { i32 }
%"class.gfx::ColorSpace" = type { i8, i8, i8, i8, [9 x float], [7 x float] }
%class.scoped_refptr.10 = type { %"class.media::VASurface"* }
%"class.media::VASurface" = type { %"class.base::RefCountedThreadSafe.11", i32, %"class.gfx::Size", i32, %"class.base::OnceCallback" }
%"class.base::RefCountedThreadSafe.11" = type { %"class.base::subtle::RefCountedThreadSafeBase" }
%"class.base::OnceCallback" = type { %"class.base::internal::CallbackBase" }
%"class.media::VaapiWrapper" = type { i32 (...)**, %"class.base::RefCountedThreadSafe", i32, %"class.base::Lock"*, i8*, i32, i32, i32, i32, %"class.std::__1::vector", %"class.std::__1::unique_ptr", %"class.base::RepeatingCallback" }
%"class.base::RefCountedThreadSafe" = type { %"class.base::subtle::RefCountedThreadSafeBase" }
%"class.base::Lock" = type { %"class.base::internal::LockImpl" }
%"class.base::internal::LockImpl" = type { %union.pthread_mutex_t }
%union.pthread_mutex_t = type { %struct.__pthread_mutex_s }
%struct.__pthread_mutex_s = type { i32, i32, i32, i32, i32, i16, i16, %struct.__pthread_internal_list }
%struct.__pthread_internal_list = type { %struct.__pthread_internal_list*, %struct.__pthread_internal_list* }
%"class.std::__1::vector" = type { %"class.std::__1::__vector_base" }
%"class.std::__1::__vector_base" = type { i32*, i32*, %"class.std::__1::__compressed_pair" }
%"class.std::__1::__compressed_pair" = type { %"struct.std::__1::__compressed_pair_elem" }
%"struct.std::__1::__compressed_pair_elem" = type { i32* }
%"class.std::__1::unique_ptr" = type { %"class.std::__1::__compressed_pair.2" }
%"class.std::__1::__compressed_pair.2" = type { %"struct.std::__1::__compressed_pair_elem.3" }
%"struct.std::__1::__compressed_pair_elem.3" = type { %"class.media::ScopedVABuffer"* }
%"class.media::ScopedVABuffer" = type { %"class.base::Lock"*, i8*, i32, i32, i64 }
%"class.base::RepeatingCallback" = type { %"class.base::internal::CallbackBaseCopyable" }
%"class.media::Status" = type { %"class.std::__1::unique_ptr.14" }
%"class.std::__1::unique_ptr.14" = type { %"class.std::__1::__compressed_pair.15" }
%"class.std::__1::__compressed_pair.15" = type { %"struct.std::__1::__compressed_pair_elem.16" }
%"struct.std::__1::__compressed_pair_elem.16" = type { %"struct.media::Status::StatusInternal"* }
%"struct.media::Status::StatusInternal" = type { i32, %"class.std::__1::basic_string", %"class.std::__1::vector.22", %"class.std::__1::vector.29", %"class.base::Value" }
%"class.std::__1::basic_string" = type { %"class.std::__1::__compressed_pair.17" }
%"class.std::__1::__compressed_pair.17" = type { %"struct.std::__1::__compressed_pair_elem.18" }
%"struct.std::__1::__compressed_pair_elem.18" = type { %"struct.std::__1::basic_string<char, std::__1::char_traits<char>, std::__1::allocator<char> >::__rep" }
%"struct.std::__1::basic_string<char, std::__1::char_traits<char>, std::__1::allocator<char> >::__rep" = type { %union.anon }
%union.anon = type { %"struct.std::__1::basic_string<char, std::__1::char_traits<char>, std::__1::allocator<char> >::__long" }
%"struct.std::__1::basic_string<char, std::__1::char_traits<char>, std::__1::allocator<char> >::__long" = type { i8*, i64, i64 }
%"class.std::__1::vector.22" = type { %"class.std::__1::__vector_base.23" }
%"class.std::__1::__vector_base.23" = type { %"class.base::Value"*, %"class.base::Value"*, %"class.std::__1::__compressed_pair.24" }
%"class.std::__1::__compressed_pair.24" = type { %"struct.std::__1::__compressed_pair_elem.25" }
%"struct.std::__1::__compressed_pair_elem.25" = type { %"class.base::Value"* }
%"class.std::__1::vector.29" = type { %"class.std::__1::__vector_base.30" }
%"class.std::__1::__vector_base.30" = type { %"class.media::Status"*, %"class.media::Status"*, %"class.std::__1::__compressed_pair.31" }
%"class.std::__1::__compressed_pair.31" = type { %"struct.std::__1::__compressed_pair_elem.32" }
%"struct.std::__1::__compressed_pair_elem.32" = type { %"class.media::Status"* }
%"class.base::Value" = type { %"class.absl::variant" }
%"class.absl::variant" = type { %"class.absl::variant_internal::VariantCopyAssignBaseNontrivial" }
%"class.absl::variant_internal::VariantCopyAssignBaseNontrivial" = type { %"class.absl::variant_internal::VariantMoveAssignBaseNontrivial" }
%"class.absl::variant_internal::VariantMoveAssignBaseNontrivial" = type { %"class.absl::variant_internal::VariantCopyBaseNontrivial" }
%"class.absl::variant_internal::VariantCopyBaseNontrivial" = type { %"class.absl::variant_internal::VariantMoveBaseNontrivial" }
%"class.absl::variant_internal::VariantMoveBaseNontrivial" = type { %"class.absl::variant_internal::VariantStateBaseDestructorNontrivial" }
%"class.absl::variant_internal::VariantStateBaseDestructorNontrivial" = type { %"class.absl::variant_internal::VariantStateBase" }
%"class.absl::variant_internal::VariantStateBase" = type { %"union.absl::variant_internal::DestructibleUnionImpl", i64 }
%"union.absl::variant_internal::DestructibleUnionImpl" = type { %"union.absl::variant_internal::DestructibleUnionImpl.36" }
%"union.absl::variant_internal::DestructibleUnionImpl.36" = type { %"union.absl::variant_internal::DestructibleUnionImpl.37" }
%"union.absl::variant_internal::DestructibleUnionImpl.37" = type { %"union.absl::variant_internal::DestructibleUnionImpl.38" }
%"union.absl::variant_internal::DestructibleUnionImpl.38" = type { %"union.absl::variant_internal::DestructibleUnionImpl.39" }
%"union.absl::variant_internal::DestructibleUnionImpl.39" = type { %"class.std::__1::basic_string" }
%"class.gfx::NativePixmap" = type <{ i32 (...)**, %"class.base::RefCountedThreadSafe.13", [4 x i8] }>
%"class.base::RefCountedThreadSafe.13" = type { %"class.base::subtle::RefCountedThreadSafeBase" }
%"class.logging::LogMessage" = type { i32 (...)**, i32, %"class.std::__1::basic_ostringstream", i64, i8*, i32, %"class.base::ScopedClearLastErrorBase" }
%"class.std::__1::basic_ostringstream" = type { %"class.std::__1::basic_ostream.base", %"class.std::__1::basic_stringbuf", %"class.std::__1::basic_ios.base" }
%"class.std::__1::basic_ostream.base" = type { i32 (...)** }
%"class.std::__1::basic_stringbuf" = type <{ %"class.std::__1::basic_streambuf", %"class.std::__1::basic_string", i8*, i32, [4 x i8] }>
%"class.std::__1::basic_streambuf" = type { i32 (...)**, %"class.std::__1::locale", i8*, i8*, i8*, i8*, i8*, i8* }
%"class.std::__1::locale" = type { %"class.std::__1::locale::__imp"* }
%"class.std::__1::locale::__imp" = type opaque
%"class.std::__1::basic_ios.base" = type <{ %"class.std::__1::ios_base", %"class.std::__1::basic_ostream"*, i32 }>
%"class.std::__1::ios_base" = type { i32 (...)**, i32, i64, i64, i32, i32, i8*, i8*, void (i32, %"class.std::__1::ios_base"*, i32)**, i32*, i64, i64, i64*, i64, i64, i8**, i64, i64 }
%"class.std::__1::basic_ostream" = type { i32 (...)**, %"class.std::__1::basic_ios.base" }
%"class.base::ScopedClearLastErrorBase" = type { i32 }
%"class.base::Location" = type { i8*, i8*, i32, i8* }
%"struct.gfx::NativePixmapHandle" = type { %"class.std::__1::vector.62", i64 }
%"class.std::__1::vector.62" = type { %"class.std::__1::__vector_base.63" }
%"class.std::__1::__vector_base.63" = type { %"struct.gfx::NativePixmapPlane"*, %"struct.gfx::NativePixmapPlane"*, %"class.std::__1::__compressed_pair.64" }
%"struct.gfx::NativePixmapPlane" = type { i32, i64, i64, %"class.base::ScopedGeneric" }
%"class.base::ScopedGeneric" = type <{ i32 (...)**, %"struct.base::ScopedGeneric<int, base::internal::ScopedFDCloseTraits>::Data", i8, [3 x i8] }>
%"struct.base::ScopedGeneric<int, base::internal::ScopedFDCloseTraits>::Data" = type { i32 }
%"class.std::__1::__compressed_pair.64" = type { %"struct.std::__1::__compressed_pair_elem.65" }
%"struct.std::__1::__compressed_pair_elem.65" = type { %"struct.gfx::NativePixmapPlane"* }
%"class.gl::GLImageNativePixmap" = type <{ %"class.gl::GLImageEGL.base", [3 x i8], i32, %class.scoped_refptr.12, i8, i8, [6 x i8] }>
%"class.gl::GLImageEGL.base" = type <{ %"class.gl::GLImage", i8*, %"class.gfx::Size", %"class.base::ThreadChecker" }>
%"class.base::ThreadChecker" = type { i8 }
%class.scoped_refptr.12 = type { %"class.gfx::NativePixmap"* }
%"class.gfx::NativePixmapDmaBuf" = type { %"class.gfx::NativePixmap.base", %"class.gfx::Size", i32, %"struct.gfx::NativePixmapHandle" }
%"class.gfx::NativePixmap.base" = type <{ i32 (...)**, %"class.base::RefCountedThreadSafe.13" }>
%"class.gl::GLImageEGL" = type <{ %"class.gl::GLImage", i8*, %"class.gfx::Size", %"class.base::ThreadChecker", [7 x i8] }>
%"struct.gfx::GpuMemoryBufferHandle" = type { i32, %"class.gfx::GenericSharedMemoryId", %"class.base::UnsafeSharedMemoryRegion", i32, i32, %"struct.gfx::NativePixmapHandle" }
%"class.gfx::GenericSharedMemoryId" = type { i32 }
%"class.base::UnsafeSharedMemoryRegion" = type { %"class.base::subtle::PlatformSharedMemoryRegion" }
%"class.base::subtle::PlatformSharedMemoryRegion" = type { %"struct.base::subtle::ScopedFDPair", i32, i64, %"class.base::UnguessableToken" }
%"struct.base::subtle::ScopedFDPair" = type { %"class.base::ScopedGeneric", %"class.base::ScopedGeneric" }
%"class.base::UnguessableToken" = type { %"class.base::Token" }
%"class.base::Token" = type { i64, i64 }
%"class.std::__1::basic_ostream<char, std::__1::char_traits<char> >::sentry" = type { i8, %"class.std::__1::basic_ostream"* }
%"class.std::__1::locale::facet" = type { %"class.std::__1::__shared_count" }
%"class.std::__1::__shared_count" = type { i32 (...)**, i64 }
%"class.std::__1::ctype" = type <{ %"class.std::__1::locale::facet", i16*, i8, [7 x i8] }>
%"struct.std::__1::basic_string<char, std::__1::char_traits<char>, std::__1::allocator<char> >::__short" = type { [23 x i8], %struct.anon }
%struct.anon = type { i8 }

$_ZNSt3__124__put_character_sequenceIcNS_11char_traitsIcEEEERNS_13basic_ostreamIT_T0_EES7_PKS4_m = comdat any

$_ZNSt3__116__pad_and_outputIcNS_11char_traitsIcEEEENS_19ostreambuf_iteratorIT_T0_EES6_PKS4_S8_S8_RNS_8ios_baseES4_ = comdat any

@_ZTVN5media27VaapiPictureNativePixmapEglE = hidden unnamed_addr constant { [9 x i8*] } { [9 x i8*] [i8* null, i8* null, i8* bitcast (void (%"class.media::VaapiPictureNativePixmapEgl"*)* @_ZN5media27VaapiPictureNativePixmapEglD2Ev to i8*), i8* bitcast (void (%"class.media::VaapiPictureNativePixmapEgl"*)* @_ZN5media27VaapiPictureNativePixmapEglD0Ev to i8*), i8* bitcast (i1 (%"class.media::VaapiPictureNativePixmapEgl"*, i32, %"struct.gfx::GpuMemoryBufferHandle"*)* @_ZN5media27VaapiPictureNativePixmapEgl27ImportGpuMemoryBufferHandleEN3gfx12BufferFormatENS1_21GpuMemoryBufferHandleE to i8*), i8* bitcast (void (%"class.media::Status"*, %"class.media::VaapiPictureNativePixmapEgl"*, i32)* @_ZN5media27VaapiPictureNativePixmapEgl8AllocateEN3gfx12BufferFormatE to i8*), i8* bitcast (i1 (%"class.media::VaapiPictureNativePixmap"*)* @_ZNK5media24VaapiPictureNativePixmap12AllowOverlayEv to i8*), i8* bitcast (i1 (%"class.media::VaapiPictureNativePixmap"*, %"class.media::VASurface"*)* @_ZN5media24VaapiPictureNativePixmap19DownloadFromSurfaceE13scoped_refptrINS_9VASurfaceEE to i8*), i8* bitcast (i32 (%"class.media::VaapiPictureNativePixmap"*)* @_ZNK5media24VaapiPictureNativePixmap13va_surface_idEv to i8*)] }, align 8
@.str = private unnamed_addr constant [57 x i8] c"../../media/gpu/vaapi/vaapi_picture_native_pixmap_egl.cc\00", align 1
@.str.1 = private unnamed_addr constant [43 x i8] c"Failed creating VASurface for NativePixmap\00", align 1
@.str.2 = private unnamed_addr constant [1 x i8] zeroinitializer, align 1
@.str.3 = private unnamed_addr constant [11 x i8] c"Initialize\00", align 1
@.str.4 = private unnamed_addr constant [33 x i8] c"Failed to bind client_texture_id\00", align 1
@.str.5 = private unnamed_addr constant [9 x i8] c"Allocate\00", align 1
@_ZNSt3__15ctypeIcE2idE = external global %"class.std::__1::locale::id", align 8

@_ZN5media27VaapiPictureNativePixmapEglC1E13scoped_refptrINS_12VaapiWrapperEERKN4base17RepeatingCallbackIFbvEEERKNS5_IFbjjRKS1_IN2gl7GLImageEEbEEEiRKN3gfx4SizeESM_jjj = hidden unnamed_addr alias void (%"class.media::VaapiPictureNativePixmapEgl"*, %"class.media::VaapiWrapper"*, %"class.base::RepeatingCallback.7"*, %"class.base::RepeatingCallback.8"*, i32, %"class.gfx::Size"*, %"class.gfx::Size"*, i32, i32, i32), void (%"class.media::VaapiPictureNativePixmapEgl"*, %"class.media::VaapiWrapper"*, %"class.base::RepeatingCallback.7"*, %"class.base::RepeatingCallback.8"*, i32, %"class.gfx::Size"*, %"class.gfx::Size"*, i32, i32, i32)* @_ZN5media27VaapiPictureNativePixmapEglC2E13scoped_refptrINS_12VaapiWrapperEERKN4base17RepeatingCallbackIFbvEEERKNS5_IFbjjRKS1_IN2gl7GLImageEEbEEEiRKN3gfx4SizeESM_jjj
@_ZN5media27VaapiPictureNativePixmapEglD1Ev = hidden unnamed_addr alias void (%"class.media::VaapiPictureNativePixmapEgl"*), void (%"class.media::VaapiPictureNativePixmapEgl"*)* @_ZN5media27VaapiPictureNativePixmapEglD2Ev

; Function Attrs: nounwind ssp uwtable
define hidden void @_ZN5media27VaapiPictureNativePixmapEglC2E13scoped_refptrINS_12VaapiWrapperEERKN4base17RepeatingCallbackIFbvEEERKNS5_IFbjjRKS1_IN2gl7GLImageEEbEEEiRKN3gfx4SizeESM_jjj(%"class.media::VaapiPictureNativePixmapEgl"*, %"class.media::VaapiWrapper"*, %"class.base::RepeatingCallback.7"* dereferenceable(8), %"class.base::RepeatingCallback.8"* dereferenceable(8), i32, %"class.gfx::Size"* dereferenceable(8), %"class.gfx::Size"* dereferenceable(8), i32, i32, i32) unnamed_addr #0 align 2 {
  %11 = getelementptr inbounds %"class.media::VaapiPictureNativePixmapEgl", %"class.media::VaapiPictureNativePixmapEgl"* %0, i64 0, i32 0
  tail call void @_ZN5media24VaapiPictureNativePixmapC2E13scoped_refptrINS_12VaapiWrapperEERKN4base17RepeatingCallbackIFbvEEERKNS5_IFbjjRKS1_IN2gl7GLImageEEbEEEiRKN3gfx4SizeESM_jjj(%"class.media::VaapiPictureNativePixmap"* %11, %"class.media::VaapiWrapper"* %1, %"class.base::RepeatingCallback.7"* dereferenceable(8) %2, %"class.base::RepeatingCallback.8"* dereferenceable(8) %3, i32 %4, %"class.gfx::Size"* dereferenceable(8) %6, %"class.gfx::Size"* dereferenceable(8) %5, i32 %7, i32 %8, i32 %9) #7
  %12 = getelementptr inbounds %"class.media::VaapiPictureNativePixmapEgl", %"class.media::VaapiPictureNativePixmapEgl"* %0, i64 0, i32 0, i32 0, i32 0
  store i32 (...)** bitcast (i8** getelementptr inbounds ({ [9 x i8*] }, { [9 x i8*] }* @_ZTVN5media27VaapiPictureNativePixmapEglE, i64 0, inrange i32 0, i64 2) to i32 (...)**), i32 (...)*** %12, align 8
  ret void
}

declare void @_ZN5media24VaapiPictureNativePixmapC2E13scoped_refptrINS_12VaapiWrapperEERKN4base17RepeatingCallbackIFbvEEERKNS5_IFbjjRKS1_IN2gl7GLImageEEbEEEiRKN3gfx4SizeESM_jjj(%"class.media::VaapiPictureNativePixmap"*, %"class.media::VaapiWrapper"*, %"class.base::RepeatingCallback.7"* dereferenceable(8), %"class.base::RepeatingCallback.8"* dereferenceable(8), i32, %"class.gfx::Size"* dereferenceable(8), %"class.gfx::Size"* dereferenceable(8), i32, i32, i32) unnamed_addr #1

; Function Attrs: nounwind ssp uwtable
define hidden void @_ZN5media27VaapiPictureNativePixmapEglD2Ev(%"class.media::VaapiPictureNativePixmapEgl"*) unnamed_addr #0 align 2 {
  %2 = getelementptr inbounds %"class.media::VaapiPictureNativePixmapEgl", %"class.media::VaapiPictureNativePixmapEgl"* %0, i64 0, i32 0, i32 0, i32 0
  store i32 (...)** bitcast (i8** getelementptr inbounds ({ [9 x i8*] }, { [9 x i8*] }* @_ZTVN5media27VaapiPictureNativePixmapEglE, i64 0, inrange i32 0, i64 2) to i32 (...)**), i32 (...)*** %2, align 8
  %3 = getelementptr inbounds %"class.media::VaapiPictureNativePixmapEgl", %"class.media::VaapiPictureNativePixmapEgl"* %0, i64 0, i32 0
  %4 = getelementptr inbounds %"class.media::VaapiPictureNativePixmapEgl", %"class.media::VaapiPictureNativePixmapEgl"* %0, i64 0, i32 0, i32 1, i32 0
  %5 = load %"class.gl::GLImage"*, %"class.gl::GLImage"** %4, align 8
  %6 = icmp eq %"class.gl::GLImage"* %5, null
  br i1 %6, label %22, label %7

7:                                                ; preds = %1
  %8 = getelementptr inbounds %"class.media::VaapiPictureNativePixmapEgl", %"class.media::VaapiPictureNativePixmapEgl"* %0, i64 0, i32 0, i32 0, i32 2, i32 0, i32 0, i32 0, i32 0
  %9 = load %"class.base::internal::BindStateBase"*, %"class.base::internal::BindStateBase"** %8, align 8
  %10 = getelementptr inbounds %"class.base::internal::BindStateBase", %"class.base::internal::BindStateBase"* %9, i64 0, i32 1
  %11 = bitcast void ()** %10 to i1 (%"class.base::internal::BindStateBase"*)**
  %12 = load i1 (%"class.base::internal::BindStateBase"*)*, i1 (%"class.base::internal::BindStateBase"*)** %11, align 8
  %13 = tail call zeroext i1 %12(%"class.base::internal::BindStateBase"* %9) #7
  br i1 %13, label %14, label %22

14:                                               ; preds = %7
  %15 = load %"class.gl::GLImage"*, %"class.gl::GLImage"** %4, align 8
  %16 = getelementptr inbounds %"class.media::VaapiPictureNativePixmapEgl", %"class.media::VaapiPictureNativePixmapEgl"* %0, i64 0, i32 0, i32 0, i32 8
  %17 = load i32, i32* %16, align 8
  %18 = bitcast %"class.gl::GLImage"* %15 to void (%"class.gl::GLImage"*, i32)***
  %19 = load void (%"class.gl::GLImage"*, i32)**, void (%"class.gl::GLImage"*, i32)*** %18, align 8
  %20 = getelementptr inbounds void (%"class.gl::GLImage"*, i32)*, void (%"class.gl::GLImage"*, i32)** %19, i64 7
  %21 = load void (%"class.gl::GLImage"*, i32)*, void (%"class.gl::GLImage"*, i32)** %20, align 8
  tail call void %21(%"class.gl::GLImage"* %15, i32 %17) #7
  br label %22

22:                                               ; preds = %1, %14, %7
  tail call void @_ZN5media24VaapiPictureNativePixmapD2Ev(%"class.media::VaapiPictureNativePixmap"* %3) #7
  ret void
}

; Function Attrs: nounwind
declare void @_ZN5media24VaapiPictureNativePixmapD2Ev(%"class.media::VaapiPictureNativePixmap"*) unnamed_addr #2

; Function Attrs: nounwind ssp uwtable
define hidden void @_ZN5media27VaapiPictureNativePixmapEglD0Ev(%"class.media::VaapiPictureNativePixmapEgl"*) unnamed_addr #0 align 2 {
  %2 = getelementptr inbounds %"class.media::VaapiPictureNativePixmapEgl", %"class.media::VaapiPictureNativePixmapEgl"* %0, i64 0, i32 0, i32 0, i32 0
  store i32 (...)** bitcast (i8** getelementptr inbounds ({ [9 x i8*] }, { [9 x i8*] }* @_ZTVN5media27VaapiPictureNativePixmapEglE, i64 0, inrange i32 0, i64 2) to i32 (...)**), i32 (...)*** %2, align 8
  %3 = getelementptr inbounds %"class.media::VaapiPictureNativePixmapEgl", %"class.media::VaapiPictureNativePixmapEgl"* %0, i64 0, i32 0
  %4 = getelementptr inbounds %"class.media::VaapiPictureNativePixmapEgl", %"class.media::VaapiPictureNativePixmapEgl"* %0, i64 0, i32 0, i32 1, i32 0
  %5 = load %"class.gl::GLImage"*, %"class.gl::GLImage"** %4, align 8
  %6 = icmp eq %"class.gl::GLImage"* %5, null
  br i1 %6, label %22, label %7

7:                                                ; preds = %1
  %8 = getelementptr inbounds %"class.media::VaapiPictureNativePixmapEgl", %"class.media::VaapiPictureNativePixmapEgl"* %0, i64 0, i32 0, i32 0, i32 2, i32 0, i32 0, i32 0, i32 0
  %9 = load %"class.base::internal::BindStateBase"*, %"class.base::internal::BindStateBase"** %8, align 8
  %10 = getelementptr inbounds %"class.base::internal::BindStateBase", %"class.base::internal::BindStateBase"* %9, i64 0, i32 1
  %11 = bitcast void ()** %10 to i1 (%"class.base::internal::BindStateBase"*)**
  %12 = load i1 (%"class.base::internal::BindStateBase"*)*, i1 (%"class.base::internal::BindStateBase"*)** %11, align 8
  %13 = tail call zeroext i1 %12(%"class.base::internal::BindStateBase"* %9) #7
  br i1 %13, label %14, label %22

14:                                               ; preds = %7
  %15 = load %"class.gl::GLImage"*, %"class.gl::GLImage"** %4, align 8
  %16 = getelementptr inbounds %"class.media::VaapiPictureNativePixmapEgl", %"class.media::VaapiPictureNativePixmapEgl"* %0, i64 0, i32 0, i32 0, i32 8
  %17 = load i32, i32* %16, align 8
  %18 = bitcast %"class.gl::GLImage"* %15 to void (%"class.gl::GLImage"*, i32)***
  %19 = load void (%"class.gl::GLImage"*, i32)**, void (%"class.gl::GLImage"*, i32)*** %18, align 8
  %20 = getelementptr inbounds void (%"class.gl::GLImage"*, i32)*, void (%"class.gl::GLImage"*, i32)** %19, i64 7
  %21 = load void (%"class.gl::GLImage"*, i32)*, void (%"class.gl::GLImage"*, i32)** %20, align 8
  tail call void %21(%"class.gl::GLImage"* %15, i32 %17) #7
  br label %22

22:                                               ; preds = %1, %7, %14
  tail call void @_ZN5media24VaapiPictureNativePixmapD2Ev(%"class.media::VaapiPictureNativePixmap"* %3) #7
  %23 = bitcast %"class.media::VaapiPictureNativePixmapEgl"* %0 to i8*
  tail call void @_ZdlPv(i8* %23) #8
  ret void
}

; Function Attrs: nobuiltin nounwind
declare void @_ZdlPv(i8*) local_unnamed_addr #3

; Function Attrs: nounwind ssp uwtable
define hidden void @_ZN5media27VaapiPictureNativePixmapEgl10InitializeE13scoped_refptrIN3gfx12NativePixmapEE(%"class.media::Status"* noalias sret, %"class.media::VaapiPictureNativePixmapEgl"*, %"class.gfx::NativePixmap"*) local_unnamed_addr #0 align 2 {
  %4 = alloca %"class.logging::LogMessage", align 8
  %5 = alloca %"class.base::Location", align 8
  %6 = alloca %"class.logging::LogMessage", align 8
  %7 = alloca %"class.base::Location", align 8
  %8 = getelementptr inbounds %"class.media::VaapiPictureNativePixmapEgl", %"class.media::VaapiPictureNativePixmapEgl"* %1, i64 0, i32 0, i32 0, i32 1, i32 0
  %9 = load %"class.media::VaapiWrapper"*, %"class.media::VaapiWrapper"** %8, align 8
  %10 = tail call %"class.media::VASurface"* @_ZN5media12VaapiWrapper24CreateVASurfaceForPixmapE13scoped_refptrIN3gfx12NativePixmapEE(%"class.media::VaapiWrapper"* %9, %"class.gfx::NativePixmap"* %2) #7
  %11 = getelementptr inbounds %"class.media::VaapiPictureNativePixmapEgl", %"class.media::VaapiPictureNativePixmapEgl"* %1, i64 0, i32 0, i32 2
  %12 = ptrtoint %"class.media::VASurface"* %10 to i64
  %13 = bitcast %class.scoped_refptr.10* %11 to i64*
  %14 = getelementptr inbounds %class.scoped_refptr.10, %class.scoped_refptr.10* %11, i64 0, i32 0
  %15 = load %"class.media::VASurface"*, %"class.media::VASurface"** %14, align 8
  store i64 %12, i64* %13, align 8
  %16 = icmp eq %"class.media::VASurface"* %15, null
  br i1 %16, label %25, label %17

17:                                               ; preds = %3
  %18 = getelementptr inbounds %"class.media::VASurface", %"class.media::VASurface"* %15, i64 0, i32 0, i32 0, i32 0, i32 0, i32 0, i32 0, i32 0, i32 0, i32 0
  %19 = atomicrmw sub i32* %18, i32 1 acq_rel
  %20 = icmp eq i32 %19, 1
  br i1 %20, label %21, label %23

21:                                               ; preds = %17
  tail call void @_ZN5media9VASurfaceD1Ev(%"class.media::VASurface"* nonnull %15) #7
  %22 = bitcast %"class.media::VASurface"* %15 to i8*
  tail call void @_ZdlPv(i8* %22) #8
  br label %23

23:                                               ; preds = %21, %17
  %24 = load %"class.media::VASurface"*, %"class.media::VASurface"** %14, align 8
  br label %25

25:                                               ; preds = %23, %3
  %26 = phi %"class.media::VASurface"* [ %24, %23 ], [ %10, %3 ]
  %27 = icmp eq %"class.media::VASurface"* %26, null
  br i1 %27, label %28, label %37

28:                                               ; preds = %25
  %29 = tail call zeroext i1 @_ZN7logging22ShouldCreateLogMessageEi(i32 2) #7
  br i1 %29, label %30, label %35

30:                                               ; preds = %28
  %31 = bitcast %"class.logging::LogMessage"* %4 to i8*
  call void @llvm.lifetime.start.p0i8(i64 304, i8* nonnull %31) #7
  call void @_ZN7logging10LogMessageC1EPKcii(%"class.logging::LogMessage"* nonnull %4, i8* getelementptr inbounds ([57 x i8], [57 x i8]* @.str, i64 0, i64 0), i32 60, i32 2) #7
  %32 = getelementptr inbounds %"class.logging::LogMessage", %"class.logging::LogMessage"* %4, i64 0, i32 2
  %33 = bitcast %"class.std::__1::basic_ostringstream"* %32 to %"class.std::__1::basic_ostream"*
  %34 = call dereferenceable(160) %"class.std::__1::basic_ostream"* @_ZNSt3__124__put_character_sequenceIcNS_11char_traitsIcEEEERNS_13basic_ostreamIT_T0_EES7_PKS4_m(%"class.std::__1::basic_ostream"* dereferenceable(160) %33, i8* getelementptr inbounds ([43 x i8], [43 x i8]* @.str.1, i64 0, i64 0), i64 42) #7
  call void @_ZN7logging10LogMessageD1Ev(%"class.logging::LogMessage"* nonnull %4) #7
  call void @llvm.lifetime.end.p0i8(i64 304, i8* nonnull %31) #7
  br label %35

35:                                               ; preds = %28, %30
  %36 = bitcast %"class.base::Location"* %5 to i8*
  call void @llvm.lifetime.start.p0i8(i64 32, i8* nonnull %36) #7
  call void @_ZN4base8Location7CurrentEPKcS2_i(%"class.base::Location"* nonnull sret %5, i8* getelementptr inbounds ([11 x i8], [11 x i8]* @.str.3, i64 0, i64 0), i8* getelementptr inbounds ([57 x i8], [57 x i8]* @.str, i64 0, i64 0), i32 61) #7
  call void @_ZN5media6StatusC1ENS_10StatusCodeEN4base16BasicStringPieceIcNSt3__111char_traitsIcEEEERKNS2_8LocationE(%"class.media::Status"* %0, i32 1798, i8* getelementptr inbounds ([1 x i8], [1 x i8]* @.str.2, i64 0, i64 0), i64 0, %"class.base::Location"* nonnull dereferenceable(32) %5) #7
  call void @llvm.lifetime.end.p0i8(i64 32, i8* nonnull %36) #7
  br label %61

37:                                               ; preds = %25
  %38 = getelementptr inbounds %"class.media::VaapiPictureNativePixmapEgl", %"class.media::VaapiPictureNativePixmapEgl"* %1, i64 0, i32 0, i32 0, i32 3, i32 0, i32 0, i32 0, i32 0
  %39 = load %"class.base::internal::BindStateBase"*, %"class.base::internal::BindStateBase"** %38, align 8
  %40 = icmp eq %"class.base::internal::BindStateBase"* %39, null
  br i1 %40, label %60, label %41

41:                                               ; preds = %37
  %42 = getelementptr inbounds %"class.media::VaapiPictureNativePixmapEgl", %"class.media::VaapiPictureNativePixmapEgl"* %1, i64 0, i32 0, i32 0, i32 7
  %43 = load i32, i32* %42, align 4
  %44 = getelementptr inbounds %"class.media::VaapiPictureNativePixmapEgl", %"class.media::VaapiPictureNativePixmapEgl"* %1, i64 0, i32 0, i32 0, i32 8
  %45 = load i32, i32* %44, align 8
  %46 = getelementptr inbounds %"class.media::VaapiPictureNativePixmapEgl", %"class.media::VaapiPictureNativePixmapEgl"* %1, i64 0, i32 0, i32 1
  %47 = getelementptr inbounds %"class.base::internal::BindStateBase", %"class.base::internal::BindStateBase"* %39, i64 0, i32 1
  %48 = bitcast void ()** %47 to i1 (%"class.base::internal::BindStateBase"*, i32, i32, %class.scoped_refptr.9*, i1)**
  %49 = load i1 (%"class.base::internal::BindStateBase"*, i32, i32, %class.scoped_refptr.9*, i1)*, i1 (%"class.base::internal::BindStateBase"*, i32, i32, %class.scoped_refptr.9*, i1)** %48, align 8
  %50 = tail call zeroext i1 %49(%"class.base::internal::BindStateBase"* nonnull %39, i32 %43, i32 %45, %class.scoped_refptr.9* dereferenceable(8) %46, i1 zeroext true) #7
  br i1 %50, label %60, label %51

51:                                               ; preds = %41
  %52 = tail call zeroext i1 @_ZN7logging22ShouldCreateLogMessageEi(i32 2) #7
  br i1 %52, label %53, label %58

53:                                               ; preds = %51
  %54 = bitcast %"class.logging::LogMessage"* %6 to i8*
  call void @llvm.lifetime.start.p0i8(i64 304, i8* nonnull %54) #7
  call void @_ZN7logging10LogMessageC1EPKcii(%"class.logging::LogMessage"* nonnull %6, i8* getelementptr inbounds ([57 x i8], [57 x i8]* @.str, i64 0, i64 0), i32 67, i32 2) #7
  %55 = getelementptr inbounds %"class.logging::LogMessage", %"class.logging::LogMessage"* %6, i64 0, i32 2
  %56 = bitcast %"class.std::__1::basic_ostringstream"* %55 to %"class.std::__1::basic_ostream"*
  %57 = call dereferenceable(160) %"class.std::__1::basic_ostream"* @_ZNSt3__124__put_character_sequenceIcNS_11char_traitsIcEEEERNS_13basic_ostreamIT_T0_EES7_PKS4_m(%"class.std::__1::basic_ostream"* dereferenceable(160) %56, i8* getelementptr inbounds ([33 x i8], [33 x i8]* @.str.4, i64 0, i64 0), i64 32) #7
  call void @_ZN7logging10LogMessageD1Ev(%"class.logging::LogMessage"* nonnull %6) #7
  call void @llvm.lifetime.end.p0i8(i64 304, i8* nonnull %54) #7
  br label %58

58:                                               ; preds = %51, %53
  %59 = bitcast %"class.base::Location"* %7 to i8*
  call void @llvm.lifetime.start.p0i8(i64 32, i8* nonnull %59) #7
  call void @_ZN4base8Location7CurrentEPKcS2_i(%"class.base::Location"* nonnull sret %7, i8* getelementptr inbounds ([11 x i8], [11 x i8]* @.str.3, i64 0, i64 0), i8* getelementptr inbounds ([57 x i8], [57 x i8]* @.str, i64 0, i64 0), i32 68) #7
  call void @_ZN5media6StatusC1ENS_10StatusCodeEN4base16BasicStringPieceIcNSt3__111char_traitsIcEEEERKNS2_8LocationE(%"class.media::Status"* %0, i32 1801, i8* getelementptr inbounds ([1 x i8], [1 x i8]* @.str.2, i64 0, i64 0), i64 0, %"class.base::Location"* nonnull dereferenceable(32) %7) #7
  call void @llvm.lifetime.end.p0i8(i64 32, i8* nonnull %59) #7
  br label %61

60:                                               ; preds = %37, %41
  tail call void @_ZN5media8OkStatusEv(%"class.media::Status"* sret %0) #7
  br label %61

61:                                               ; preds = %35, %58, %60
  ret void
}

declare %"class.media::VASurface"* @_ZN5media12VaapiWrapper24CreateVASurfaceForPixmapE13scoped_refptrIN3gfx12NativePixmapEE(%"class.media::VaapiWrapper"*, %"class.gfx::NativePixmap"*) local_unnamed_addr #1

declare zeroext i1 @_ZN7logging22ShouldCreateLogMessageEi(i32) local_unnamed_addr #1

; Function Attrs: argmemonly nounwind
declare void @llvm.lifetime.start.p0i8(i64 immarg, i8* nocapture) #4

declare void @_ZN7logging10LogMessageC1EPKcii(%"class.logging::LogMessage"*, i8*, i32, i32) unnamed_addr #1

; Function Attrs: nounwind
declare void @_ZN7logging10LogMessageD1Ev(%"class.logging::LogMessage"*) unnamed_addr #2

; Function Attrs: argmemonly nounwind
declare void @llvm.lifetime.end.p0i8(i64 immarg, i8* nocapture) #4

declare void @_ZN4base8Location7CurrentEPKcS2_i(%"class.base::Location"* sret, i8*, i8*, i32) local_unnamed_addr #1

declare void @_ZN5media6StatusC1ENS_10StatusCodeEN4base16BasicStringPieceIcNSt3__111char_traitsIcEEEERKNS2_8LocationE(%"class.media::Status"*, i32, i8*, i64, %"class.base::Location"* dereferenceable(32)) unnamed_addr #1

declare void @_ZN5media8OkStatusEv(%"class.media::Status"* sret) local_unnamed_addr #1

; Function Attrs: nounwind ssp uwtable
define hidden void @_ZN5media27VaapiPictureNativePixmapEgl8AllocateEN3gfx12BufferFormatE(%"class.media::Status"* noalias sret, %"class.media::VaapiPictureNativePixmapEgl"*, i32) unnamed_addr #0 align 2 {
  %4 = alloca %"class.base::Location", align 8
  %5 = alloca %"class.base::Location", align 8
  %6 = alloca %"struct.gfx::NativePixmapHandle", align 8
  %7 = alloca %"class.base::Location", align 8
  %8 = alloca %"class.base::Location", align 8
  %9 = alloca %"struct.gfx::NativePixmapHandle", align 8
  %10 = alloca %"class.base::Location", align 8
  %11 = alloca %"class.base::Location", align 8
  %12 = getelementptr inbounds %"class.media::VaapiPictureNativePixmapEgl", %"class.media::VaapiPictureNativePixmapEgl"* %1, i64 0, i32 0, i32 0, i32 2, i32 0, i32 0, i32 0, i32 0
  %13 = load %"class.base::internal::BindStateBase"*, %"class.base::internal::BindStateBase"** %12, align 8
  %14 = icmp eq %"class.base::internal::BindStateBase"* %13, null
  br i1 %14, label %22, label %15

15:                                               ; preds = %3
  %16 = getelementptr inbounds %"class.base::internal::BindStateBase", %"class.base::internal::BindStateBase"* %13, i64 0, i32 1
  %17 = bitcast void ()** %16 to i1 (%"class.base::internal::BindStateBase"*)**
  %18 = load i1 (%"class.base::internal::BindStateBase"*)*, i1 (%"class.base::internal::BindStateBase"*)** %17, align 8
  %19 = tail call zeroext i1 %18(%"class.base::internal::BindStateBase"* nonnull %13) #7
  br i1 %19, label %22, label %20

20:                                               ; preds = %15
  %21 = bitcast %"class.base::Location"* %4 to i8*
  call void @llvm.lifetime.start.p0i8(i64 32, i8* nonnull %21) #7
  call void @_ZN4base8Location7CurrentEPKcS2_i(%"class.base::Location"* nonnull sret %4, i8* getelementptr inbounds ([9 x i8], [9 x i8]* @.str.5, i64 0, i64 0), i8* getelementptr inbounds ([57 x i8], [57 x i8]* @.str, i64 0, i64 0), i32 78) #7
  call void @_ZN5media6StatusC1ENS_10StatusCodeEN4base16BasicStringPieceIcNSt3__111char_traitsIcEEEERKNS2_8LocationE(%"class.media::Status"* %0, i32 1793, i8* getelementptr inbounds ([1 x i8], [1 x i8]* @.str.2, i64 0, i64 0), i64 0, %"class.base::Location"* nonnull dereferenceable(32) %4) #7
  call void @llvm.lifetime.end.p0i8(i64 32, i8* nonnull %21) #7
  br label %128

22:                                               ; preds = %3, %15
  %23 = getelementptr inbounds %"class.media::VaapiPictureNativePixmapEgl", %"class.media::VaapiPictureNativePixmapEgl"* %1, i64 0, i32 0, i32 0, i32 5
  %24 = tail call i8* @_Znwm(i64 120) #8
  %25 = bitcast i8* %24 to %"class.gl::GLImageNativePixmap"*
  tail call void @_ZN2gl19GLImageNativePixmapC1ERKN3gfx4SizeENS1_12BufferFormatE(%"class.gl::GLImageNativePixmap"* nonnull %25, %"class.gfx::Size"* dereferenceable(8) %23, i32 %2) #7
  %26 = getelementptr inbounds i8, i8* %24, i64 8
  %27 = bitcast i8* %26 to %"class.base::subtle::RefCountedBase"*
  tail call void @_ZNK4base6subtle14RefCountedBase10AddRefImplEv(%"class.base::subtle::RefCountedBase"* %27) #7
  %28 = getelementptr inbounds %"class.media::VaapiPictureNativePixmapEgl", %"class.media::VaapiPictureNativePixmapEgl"* %1, i64 0, i32 0, i32 0, i32 6
  %29 = load i32, i32* %28, align 8
  %30 = tail call zeroext i1 @_ZN2gl19GLImageNativePixmap21InitializeFromTextureEj(%"class.gl::GLImageNativePixmap"* nonnull %25, i32 %29) #7
  br i1 %30, label %33, label %31

31:                                               ; preds = %22
  %32 = bitcast %"class.base::Location"* %5 to i8*
  call void @llvm.lifetime.start.p0i8(i64 32, i8* nonnull %32) #7
  call void @_ZN4base8Location7CurrentEPKcS2_i(%"class.base::Location"* nonnull sret %5, i8* getelementptr inbounds ([9 x i8], [9 x i8]* @.str.5, i64 0, i64 0), i8* getelementptr inbounds ([57 x i8], [57 x i8]* @.str, i64 0, i64 0), i32 86) #7
  call void @_ZN5media6StatusC1ENS_10StatusCodeEN4base16BasicStringPieceIcNSt3__111char_traitsIcEEEERKNS2_8LocationE(%"class.media::Status"* %0, i32 1799, i8* getelementptr inbounds ([1 x i8], [1 x i8]* @.str.2, i64 0, i64 0), i64 0, %"class.base::Location"* nonnull dereferenceable(32) %5) #7
  br label %117

33:                                               ; preds = %22
  %34 = bitcast %"struct.gfx::NativePixmapHandle"* %6 to i8*
  call void @llvm.lifetime.start.p0i8(i64 32, i8* nonnull %34) #7
  %35 = getelementptr inbounds %"struct.gfx::NativePixmapHandle", %"struct.gfx::NativePixmapHandle"* %6, i64 0, i32 0, i32 0, i32 0
  %36 = getelementptr inbounds %"struct.gfx::NativePixmapHandle", %"struct.gfx::NativePixmapHandle"* %6, i64 0, i32 0, i32 0, i32 1
  %37 = bitcast %"struct.gfx::NativePixmapHandle"* %6 to i8*
  call void @llvm.memset.p0i8.i64(i8* nonnull align 8 %37, i8 -86, i64 32, i1 false)
  call void @_ZN2gl19GLImageNativePixmap12ExportHandleEv(%"struct.gfx::NativePixmapHandle"* nonnull sret %6, %"class.gl::GLImageNativePixmap"* nonnull %25) #7
  %38 = bitcast %"struct.gfx::NativePixmapPlane"** %36 to i64*
  %39 = load i64, i64* %38, align 8
  %40 = bitcast %"struct.gfx::NativePixmapHandle"* %6 to i64*
  %41 = load i64, i64* %40, align 8
  %42 = icmp eq i64 %39, %41
  br i1 %42, label %43, label %45

43:                                               ; preds = %33
  %44 = bitcast %"class.base::Location"* %7 to i8*
  call void @llvm.lifetime.start.p0i8(i64 32, i8* nonnull %44) #7
  call void @_ZN4base8Location7CurrentEPKcS2_i(%"class.base::Location"* nonnull sret %7, i8* getelementptr inbounds ([9 x i8], [9 x i8]* @.str.5, i64 0, i64 0), i8* getelementptr inbounds ([57 x i8], [57 x i8]* @.str, i64 0, i64 0), i32 93) #7
  call void @_ZN5media6StatusC1ENS_10StatusCodeEN4base16BasicStringPieceIcNSt3__111char_traitsIcEEEERKNS2_8LocationE(%"class.media::Status"* %0, i32 1803, i8* getelementptr inbounds ([1 x i8], [1 x i8]* @.str.2, i64 0, i64 0), i64 0, %"class.base::Location"* nonnull dereferenceable(32) %7) #7
  call void @llvm.lifetime.end.p0i8(i64 32, i8* nonnull %44) #7
  br label %116

45:                                               ; preds = %33
  %46 = inttoptr i64 %41 to %"struct.gfx::NativePixmapPlane"*
  %47 = getelementptr inbounds %"class.media::VaapiPictureNativePixmapEgl", %"class.media::VaapiPictureNativePixmapEgl"* %1, i64 0, i32 0, i32 0, i32 4
  %48 = getelementptr inbounds %"class.gfx::Size", %"class.gfx::Size"* %47, i64 0, i32 0
  %49 = load i32, i32* %48, align 4
  %50 = getelementptr inbounds %"struct.gfx::NativePixmapPlane", %"struct.gfx::NativePixmapPlane"* %46, i64 0, i32 0
  %51 = load i32, i32* %50, align 8
  %52 = icmp sgt i32 %49, %51
  br i1 %52, label %60, label %53

53:                                               ; preds = %45
  %54 = call i32 @_ZNK3gfx4Size7GetAreaEv(%"class.gfx::Size"* %47) #7
  %55 = load %"struct.gfx::NativePixmapPlane"*, %"struct.gfx::NativePixmapPlane"** %35, align 8
  %56 = getelementptr inbounds %"struct.gfx::NativePixmapPlane", %"struct.gfx::NativePixmapPlane"* %55, i64 0, i32 2
  %57 = load i64, i64* %56, align 8
  %58 = trunc i64 %57 to i32
  %59 = icmp sgt i32 %54, %58
  br i1 %59, label %60, label %62

60:                                               ; preds = %53, %45
  %61 = bitcast %"class.base::Location"* %8 to i8*
  call void @llvm.lifetime.start.p0i8(i64 32, i8* nonnull %61) #7
  call void @_ZN4base8Location7CurrentEPKcS2_i(%"class.base::Location"* nonnull sret %8, i8* getelementptr inbounds ([9 x i8], [9 x i8]* @.str.5, i64 0, i64 0), i8* getelementptr inbounds ([57 x i8], [57 x i8]* @.str, i64 0, i64 0), i32 101) #7
  call void @_ZN5media6StatusC1ENS_10StatusCodeEN4base16BasicStringPieceIcNSt3__111char_traitsIcEEEERKNS2_8LocationE(%"class.media::Status"* %0, i32 1804, i8* getelementptr inbounds ([1 x i8], [1 x i8]* @.str.2, i64 0, i64 0), i64 0, %"class.base::Location"* nonnull dereferenceable(32) %8) #7
  call void @llvm.lifetime.end.p0i8(i64 32, i8* nonnull %61) #7
  br label %116

62:                                               ; preds = %53
  %63 = call i8* @_Znwm(i64 56) #8
  %64 = bitcast i8* %63 to %"class.gfx::NativePixmapDmaBuf"*
  call void @_ZN3gfx18NativePixmapHandleC1EOS0_(%"struct.gfx::NativePixmapHandle"* nonnull %9, %"struct.gfx::NativePixmapHandle"* nonnull dereferenceable(32) %6) #7
  call void @_ZN3gfx18NativePixmapDmaBufC1ERKNS_4SizeENS_12BufferFormatENS_18NativePixmapHandleE(%"class.gfx::NativePixmapDmaBuf"* nonnull %64, %"class.gfx::Size"* dereferenceable(8) %47, i32 %2, %"struct.gfx::NativePixmapHandle"* nonnull %9) #7
  %65 = bitcast i8* %63 to %"class.gfx::NativePixmap"*
  %66 = getelementptr inbounds i8, i8* %63, i64 8
  %67 = bitcast i8* %66 to i32*
  %68 = atomicrmw add i32* %67, i32 1 monotonic
  call void @_ZN3gfx18NativePixmapHandleD1Ev(%"struct.gfx::NativePixmapHandle"* nonnull %9) #7
  %69 = bitcast i8* %63 to i1 (%"class.gfx::NativePixmap"*)***
  %70 = load i1 (%"class.gfx::NativePixmap"*)**, i1 (%"class.gfx::NativePixmap"*)*** %69, align 8
  %71 = load i1 (%"class.gfx::NativePixmap"*)*, i1 (%"class.gfx::NativePixmap"*)** %70, align 8
  %72 = call zeroext i1 %71(%"class.gfx::NativePixmap"* nonnull %65) #7
  br i1 %72, label %75, label %73

73:                                               ; preds = %62
  %74 = bitcast %"class.base::Location"* %10 to i8*
  call void @llvm.lifetime.start.p0i8(i64 32, i8* nonnull %74) #7
  call void @_ZN4base8Location7CurrentEPKcS2_i(%"class.base::Location"* nonnull sret %10, i8* getelementptr inbounds ([9 x i8], [9 x i8]* @.str.5, i64 0, i64 0), i8* getelementptr inbounds ([57 x i8], [57 x i8]* @.str, i64 0, i64 0), i32 110) #7
  call void @_ZN5media6StatusC1ENS_10StatusCodeEN4base16BasicStringPieceIcNSt3__111char_traitsIcEEEERKNS2_8LocationE(%"class.media::Status"* %0, i32 1795, i8* getelementptr inbounds ([1 x i8], [1 x i8]* @.str.2, i64 0, i64 0), i64 0, %"class.base::Location"* nonnull dereferenceable(32) %10) #7
  br label %107

75:                                               ; preds = %62
  %76 = bitcast i8* %24 to %"class.gl::GLImageEGL"*
  %77 = getelementptr inbounds %"class.media::VaapiPictureNativePixmapEgl", %"class.media::VaapiPictureNativePixmapEgl"* %1, i64 0, i32 0, i32 0, i32 8
  %78 = load i32, i32* %77, align 8
  %79 = bitcast i8* %24 to i1 (%"class.gl::GLImageEGL"*, i32)***
  %80 = load i1 (%"class.gl::GLImageEGL"*, i32)**, i1 (%"class.gl::GLImageEGL"*, i32)*** %79, align 8
  %81 = getelementptr inbounds i1 (%"class.gl::GLImageEGL"*, i32)*, i1 (%"class.gl::GLImageEGL"*, i32)** %80, i64 5
  %82 = load i1 (%"class.gl::GLImageEGL"*, i32)*, i1 (%"class.gl::GLImageEGL"*, i32)** %81, align 8
  %83 = call zeroext i1 %82(%"class.gl::GLImageEGL"* nonnull %76, i32 %78) #7
  br i1 %83, label %86, label %84

84:                                               ; preds = %75
  %85 = bitcast %"class.base::Location"* %11 to i8*
  call void @llvm.lifetime.start.p0i8(i64 32, i8* nonnull %85) #7
  call void @_ZN4base8Location7CurrentEPKcS2_i(%"class.base::Location"* nonnull sret %11, i8* getelementptr inbounds ([9 x i8], [9 x i8]* @.str.5, i64 0, i64 0), i8* getelementptr inbounds ([57 x i8], [57 x i8]* @.str, i64 0, i64 0), i32 115) #7
  call void @_ZN5media6StatusC1ENS_10StatusCodeEN4base16BasicStringPieceIcNSt3__111char_traitsIcEEEERKNS2_8LocationE(%"class.media::Status"* %0, i32 1801, i8* getelementptr inbounds ([1 x i8], [1 x i8]* @.str.2, i64 0, i64 0), i64 0, %"class.base::Location"* nonnull dereferenceable(32) %11) #7
  br label %107

86:                                               ; preds = %75
  call void @_ZNK4base6subtle14RefCountedBase10AddRefImplEv(%"class.base::subtle::RefCountedBase"* %27) #7
  %87 = getelementptr inbounds %"class.media::VaapiPictureNativePixmapEgl", %"class.media::VaapiPictureNativePixmapEgl"* %1, i64 0, i32 0, i32 1
  %88 = ptrtoint i8* %24 to i64
  %89 = bitcast %class.scoped_refptr.9* %87 to i64*
  %90 = getelementptr inbounds %class.scoped_refptr.9, %class.scoped_refptr.9* %87, i64 0, i32 0
  %91 = load %"class.gl::GLImage"*, %"class.gl::GLImage"** %90, align 8
  store i64 %88, i64* %89, align 8
  %92 = icmp eq %"class.gl::GLImage"* %91, null
  br i1 %92, label %106, label %93

93:                                               ; preds = %86
  %94 = getelementptr inbounds %"class.gl::GLImage", %"class.gl::GLImage"* %91, i64 0, i32 1
  %95 = getelementptr inbounds %"class.base::RefCounted", %"class.base::RefCounted"* %94, i64 0, i32 0
  call void @_ZNK4base6subtle14RefCountedBase11ReleaseImplEv(%"class.base::subtle::RefCountedBase"* %95) #7
  %96 = getelementptr inbounds %"class.base::RefCounted", %"class.base::RefCounted"* %94, i64 0, i32 0, i32 0
  %97 = load i32, i32* %96, align 4
  %98 = icmp eq i32 %97, 0
  br i1 %98, label %99, label %106

99:                                               ; preds = %93
  %100 = getelementptr inbounds %"class.base::RefCounted", %"class.base::RefCounted"* %94, i64 -2
  %101 = bitcast %"class.base::RefCounted"* %100 to %"class.gl::GLImage"*
  %102 = bitcast %"class.base::RefCounted"* %100 to void (%"class.gl::GLImage"*)***
  %103 = load void (%"class.gl::GLImage"*)**, void (%"class.gl::GLImage"*)*** %102, align 8
  %104 = getelementptr inbounds void (%"class.gl::GLImage"*)*, void (%"class.gl::GLImage"*)** %103, i64 21
  %105 = load void (%"class.gl::GLImage"*)*, void (%"class.gl::GLImage"*)** %104, align 8
  call void %105(%"class.gl::GLImage"* nonnull %101) #7
  br label %106

106:                                              ; preds = %99, %93, %86
  call void @_ZN5media27VaapiPictureNativePixmapEgl10InitializeE13scoped_refptrIN3gfx12NativePixmapEE(%"class.media::Status"* sret %0, %"class.media::VaapiPictureNativePixmapEgl"* %1, %"class.gfx::NativePixmap"* nonnull %65)
  br label %116

107:                                              ; preds = %73, %84
  %108 = phi i8* [ %74, %73 ], [ %85, %84 ]
  call void @llvm.lifetime.end.p0i8(i64 32, i8* nonnull %108) #7
  %109 = atomicrmw sub i32* %67, i32 1 acq_rel
  %110 = icmp eq i32 %109, 1
  br i1 %110, label %111, label %116

111:                                              ; preds = %107
  %112 = bitcast i8* %63 to void (%"class.gfx::NativePixmap"*)***
  %113 = load void (%"class.gfx::NativePixmap"*)**, void (%"class.gfx::NativePixmap"*)*** %112, align 8
  %114 = getelementptr inbounds void (%"class.gfx::NativePixmap"*)*, void (%"class.gfx::NativePixmap"*)** %113, i64 13
  %115 = load void (%"class.gfx::NativePixmap"*)*, void (%"class.gfx::NativePixmap"*)** %114, align 8
  call void %115(%"class.gfx::NativePixmap"* nonnull %65) #7
  br label %116

116:                                              ; preds = %111, %107, %106, %60, %43
  call void @_ZN3gfx18NativePixmapHandleD1Ev(%"struct.gfx::NativePixmapHandle"* nonnull %6) #7
  br label %117

117:                                              ; preds = %31, %116
  %118 = phi i8* [ %32, %31 ], [ %34, %116 ]
  call void @llvm.lifetime.end.p0i8(i64 32, i8* nonnull %118) #7
  call void @_ZNK4base6subtle14RefCountedBase11ReleaseImplEv(%"class.base::subtle::RefCountedBase"* %27) #7
  %119 = bitcast i8* %26 to i32*
  %120 = load i32, i32* %119, align 4
  %121 = icmp eq i32 %120, 0
  br i1 %121, label %122, label %128

122:                                              ; preds = %117
  %123 = bitcast i8* %24 to %"class.gl::GLImage"*
  %124 = bitcast i8* %24 to void (%"class.gl::GLImage"*)***
  %125 = load void (%"class.gl::GLImage"*)**, void (%"class.gl::GLImage"*)*** %124, align 8
  %126 = getelementptr inbounds void (%"class.gl::GLImage"*)*, void (%"class.gl::GLImage"*)** %125, i64 21
  %127 = load void (%"class.gl::GLImage"*)*, void (%"class.gl::GLImage"*)** %126, align 8
  call void %127(%"class.gl::GLImage"* nonnull %123) #7
  br label %128

128:                                              ; preds = %122, %117, %20
  ret void
}

declare zeroext i1 @_ZN2gl19GLImageNativePixmap21InitializeFromTextureEj(%"class.gl::GLImageNativePixmap"*, i32) local_unnamed_addr #1

declare void @_ZN2gl19GLImageNativePixmap12ExportHandleEv(%"struct.gfx::NativePixmapHandle"* sret, %"class.gl::GLImageNativePixmap"*) local_unnamed_addr #1

declare i32 @_ZNK3gfx4Size7GetAreaEv(%"class.gfx::Size"*) local_unnamed_addr #1

; Function Attrs: nobuiltin nofree
declare noalias nonnull i8* @_Znwm(i64) local_unnamed_addr #5

declare void @_ZN3gfx18NativePixmapHandleC1EOS0_(%"struct.gfx::NativePixmapHandle"*, %"struct.gfx::NativePixmapHandle"* dereferenceable(32)) unnamed_addr #1

declare void @_ZN3gfx18NativePixmapDmaBufC1ERKNS_4SizeENS_12BufferFormatENS_18NativePixmapHandleE(%"class.gfx::NativePixmapDmaBuf"*, %"class.gfx::Size"* dereferenceable(8), i32, %"struct.gfx::NativePixmapHandle"*) unnamed_addr #1

; Function Attrs: nounwind
declare void @_ZN3gfx18NativePixmapHandleD1Ev(%"struct.gfx::NativePixmapHandle"*) unnamed_addr #2

; Function Attrs: norecurse nounwind readnone ssp uwtable
define hidden zeroext i1 @_ZN5media27VaapiPictureNativePixmapEgl27ImportGpuMemoryBufferHandleEN3gfx12BufferFormatENS1_21GpuMemoryBufferHandleE(%"class.media::VaapiPictureNativePixmapEgl"* nocapture readnone, i32, %"struct.gfx::GpuMemoryBufferHandle"* nocapture readnone) unnamed_addr #6 align 2 {
  ret i1 false
}

declare zeroext i1 @_ZNK5media24VaapiPictureNativePixmap12AllowOverlayEv(%"class.media::VaapiPictureNativePixmap"*) unnamed_addr #1

declare zeroext i1 @_ZN5media24VaapiPictureNativePixmap19DownloadFromSurfaceE13scoped_refptrINS_9VASurfaceEE(%"class.media::VaapiPictureNativePixmap"*, %"class.media::VASurface"*) unnamed_addr #1

declare i32 @_ZNK5media24VaapiPictureNativePixmap13va_surface_idEv(%"class.media::VaapiPictureNativePixmap"*) unnamed_addr #1

; Function Attrs: nounwind ssp uwtable
define linkonce_odr hidden dereferenceable(160) %"class.std::__1::basic_ostream"* @_ZNSt3__124__put_character_sequenceIcNS_11char_traitsIcEEEERNS_13basic_ostreamIT_T0_EES7_PKS4_m(%"class.std::__1::basic_ostream"* dereferenceable(160), i8*, i64) local_unnamed_addr #0 comdat {
  %4 = alloca %"class.std::__1::locale", align 8
  %5 = alloca %"class.std::__1::basic_ostream<char, std::__1::char_traits<char> >::sentry", align 8
  %6 = getelementptr inbounds %"class.std::__1::basic_ostream<char, std::__1::char_traits<char> >::sentry", %"class.std::__1::basic_ostream<char, std::__1::char_traits<char> >::sentry"* %5, i64 0, i32 0
  call void @llvm.lifetime.start.p0i8(i64 16, i8* nonnull %6) #7
  call void @llvm.memset.p0i8.i64(i8* nonnull align 8 %6, i8 -86, i64 16, i1 false)
  call void @_ZNSt3__113basic_ostreamIcNS_11char_traitsIcEEE6sentryC1ERS3_(%"class.std::__1::basic_ostream<char, std::__1::char_traits<char> >::sentry"* nonnull %5, %"class.std::__1::basic_ostream"* dereferenceable(160) %0) #7
  %7 = load i8, i8* %6, align 8, !range !2
  %8 = icmp eq i8 %7, 0
  br i1 %8, label %58, label %9

9:                                                ; preds = %3
  %10 = bitcast %"class.std::__1::basic_ostream"* %0 to i8**
  %11 = load i8*, i8** %10, align 8
  %12 = getelementptr i8, i8* %11, i64 -24
  %13 = bitcast i8* %12 to i64*
  %14 = load i64, i64* %13, align 8
  %15 = bitcast %"class.std::__1::basic_ostream"* %0 to i8*
  %16 = getelementptr inbounds i8, i8* %15, i64 %14
  %17 = getelementptr inbounds i8, i8* %16, i64 40
  %18 = bitcast i8* %17 to %"class.std::__1::basic_streambuf"**
  %19 = load %"class.std::__1::basic_streambuf"*, %"class.std::__1::basic_streambuf"** %18, align 8
  %20 = bitcast i8* %16 to %"class.std::__1::ios_base"*
  %21 = getelementptr inbounds i8, i8* %16, i64 8
  %22 = bitcast i8* %21 to i32*
  %23 = load i32, i32* %22, align 8
  %24 = and i32 %23, 176
  %25 = icmp eq i32 %24, 32
  %26 = getelementptr inbounds i8, i8* %1, i64 %2
  %27 = select i1 %25, i8* %26, i8* %1
  %28 = getelementptr inbounds i8, i8* %16, i64 144
  %29 = bitcast i8* %28 to i32*
  %30 = load i32, i32* %29, align 8
  %31 = icmp eq i32 %30, -1
  br i1 %31, label %32, label %42

32:                                               ; preds = %9
  %33 = bitcast %"class.std::__1::locale"* %4 to i8*
  call void @llvm.lifetime.start.p0i8(i64 8, i8* nonnull %33) #7
  call void @_ZNKSt3__18ios_base6getlocEv(%"class.std::__1::locale"* nonnull sret %4, %"class.std::__1::ios_base"* %20) #7
  %34 = call %"class.std::__1::locale::facet"* @_ZNKSt3__16locale9use_facetERNS0_2idE(%"class.std::__1::locale"* nonnull %4, %"class.std::__1::locale::id"* nonnull dereferenceable(16) @_ZNSt3__15ctypeIcE2idE) #7
  %35 = bitcast %"class.std::__1::locale::facet"* %34 to %"class.std::__1::ctype"*
  %36 = bitcast %"class.std::__1::locale::facet"* %34 to i8 (%"class.std::__1::ctype"*, i8)***
  %37 = load i8 (%"class.std::__1::ctype"*, i8)**, i8 (%"class.std::__1::ctype"*, i8)*** %36, align 8
  %38 = getelementptr inbounds i8 (%"class.std::__1::ctype"*, i8)*, i8 (%"class.std::__1::ctype"*, i8)** %37, i64 7
  %39 = load i8 (%"class.std::__1::ctype"*, i8)*, i8 (%"class.std::__1::ctype"*, i8)** %38, align 8
  %40 = call signext i8 %39(%"class.std::__1::ctype"* %35, i8 signext 32) #7
  call void @_ZNSt3__16localeD1Ev(%"class.std::__1::locale"* nonnull %4) #7
  call void @llvm.lifetime.end.p0i8(i64 8, i8* nonnull %33) #7
  %41 = sext i8 %40 to i32
  store i32 %41, i32* %29, align 8
  br label %42

42:                                               ; preds = %9, %32
  %43 = phi i32 [ %41, %32 ], [ %30, %9 ]
  %44 = trunc i32 %43 to i8
  %45 = call %"class.std::__1::basic_streambuf"* @_ZNSt3__116__pad_and_outputIcNS_11char_traitsIcEEEENS_19ostreambuf_iteratorIT_T0_EES6_PKS4_S8_S8_RNS_8ios_baseES4_(%"class.std::__1::basic_streambuf"* %19, i8* %1, i8* %27, i8* %26, %"class.std::__1::ios_base"* dereferenceable(136) %20, i8 signext %44)
  %46 = icmp eq %"class.std::__1::basic_streambuf"* %45, null
  br i1 %46, label %47, label %58

47:                                               ; preds = %42
  %48 = load i8*, i8** %10, align 8
  %49 = getelementptr i8, i8* %48, i64 -24
  %50 = bitcast i8* %49 to i64*
  %51 = load i64, i64* %50, align 8
  %52 = getelementptr inbounds i8, i8* %15, i64 %51
  %53 = bitcast i8* %52 to %"class.std::__1::ios_base"*
  %54 = getelementptr inbounds i8, i8* %52, i64 32
  %55 = bitcast i8* %54 to i32*
  %56 = load i32, i32* %55, align 8
  %57 = or i32 %56, 5
  call void @_ZNSt3__18ios_base5clearEj(%"class.std::__1::ios_base"* %53, i32 %57) #7
  br label %58

58:                                               ; preds = %3, %42, %47
  call void @_ZNSt3__113basic_ostreamIcNS_11char_traitsIcEEE6sentryD1Ev(%"class.std::__1::basic_ostream<char, std::__1::char_traits<char> >::sentry"* nonnull %5) #7
  call void @llvm.lifetime.end.p0i8(i64 16, i8* nonnull %6) #7
  ret %"class.std::__1::basic_ostream"* %0
}

declare void @_ZNSt3__113basic_ostreamIcNS_11char_traitsIcEEE6sentryC1ERS3_(%"class.std::__1::basic_ostream<char, std::__1::char_traits<char> >::sentry"*, %"class.std::__1::basic_ostream"* dereferenceable(160)) unnamed_addr #1

; Function Attrs: nounwind ssp uwtable
define linkonce_odr hidden %"class.std::__1::basic_streambuf"* @_ZNSt3__116__pad_and_outputIcNS_11char_traitsIcEEEENS_19ostreambuf_iteratorIT_T0_EES6_PKS4_S8_S8_RNS_8ios_baseES4_(%"class.std::__1::basic_streambuf"*, i8*, i8*, i8*, %"class.std::__1::ios_base"* dereferenceable(136), i8 signext) local_unnamed_addr #0 comdat {
  %7 = alloca %"class.std::__1::basic_string", align 8
  %8 = icmp eq %"class.std::__1::basic_streambuf"* %0, null
  br i1 %8, label %78, label %9

9:                                                ; preds = %6
  %10 = ptrtoint i8* %3 to i64
  %11 = ptrtoint i8* %1 to i64
  %12 = sub i64 %10, %11
  %13 = getelementptr inbounds %"class.std::__1::ios_base", %"class.std::__1::ios_base"* %4, i64 0, i32 3
  %14 = load i64, i64* %13, align 8
  %15 = icmp sgt i64 %14, %12
  %16 = sub nsw i64 %14, %12
  %17 = select i1 %15, i64 %16, i64 0
  %18 = ptrtoint i8* %2 to i64
  %19 = sub i64 %18, %11
  %20 = icmp sgt i64 %19, 0
  br i1 %20, label %21, label %28

21:                                               ; preds = %9
  %22 = bitcast %"class.std::__1::basic_streambuf"* %0 to i64 (%"class.std::__1::basic_streambuf"*, i8*, i64)***
  %23 = load i64 (%"class.std::__1::basic_streambuf"*, i8*, i64)**, i64 (%"class.std::__1::basic_streambuf"*, i8*, i64)*** %22, align 8
  %24 = getelementptr inbounds i64 (%"class.std::__1::basic_streambuf"*, i8*, i64)*, i64 (%"class.std::__1::basic_streambuf"*, i8*, i64)** %23, i64 12
  %25 = load i64 (%"class.std::__1::basic_streambuf"*, i8*, i64)*, i64 (%"class.std::__1::basic_streambuf"*, i8*, i64)** %24, align 8
  %26 = tail call i64 %25(%"class.std::__1::basic_streambuf"* nonnull %0, i8* %1, i64 %19) #7
  %27 = icmp eq i64 %26, %19
  br i1 %27, label %28, label %78

28:                                               ; preds = %21, %9
  %29 = icmp sgt i64 %17, 0
  br i1 %29, label %30, label %67

30:                                               ; preds = %28
  %31 = bitcast %"class.std::__1::basic_string"* %7 to i8*
  call void @llvm.lifetime.start.p0i8(i64 24, i8* nonnull %31) #7
  %32 = getelementptr inbounds %"class.std::__1::basic_string", %"class.std::__1::basic_string"* %7, i64 0, i32 0, i32 0, i32 0, i32 0, i32 0, i32 0
  %33 = icmp ult i64 %17, 23
  %34 = bitcast %"class.std::__1::basic_string"* %7 to i8*
  call void @llvm.memset.p0i8.i64(i8* nonnull align 8 %34, i8 -86, i64 24, i1 false)
  br i1 %33, label %43, label %35

35:                                               ; preds = %30
  %36 = getelementptr inbounds %"class.std::__1::basic_string", %"class.std::__1::basic_string"* %7, i64 0, i32 0, i32 0, i32 0, i32 0, i32 0, i32 2
  %37 = getelementptr inbounds %"class.std::__1::basic_string", %"class.std::__1::basic_string"* %7, i64 0, i32 0, i32 0, i32 0, i32 0, i32 0, i32 1
  %38 = add nuw i64 %17, 16
  %39 = and i64 %38, -16
  %40 = tail call i8* @_Znwm(i64 %39) #8
  store i8* %40, i8** %32, align 8
  %41 = or i64 %39, -9223372036854775808
  store i64 %41, i64* %36, align 8
  store i64 %17, i64* %37, align 8
  %42 = bitcast %"class.std::__1::basic_string"* %7 to %"struct.std::__1::basic_string<char, std::__1::char_traits<char>, std::__1::allocator<char> >::__short"*
  br label %47

43:                                               ; preds = %30
  %44 = trunc i64 %17 to i8
  %45 = bitcast %"class.std::__1::basic_string"* %7 to %"struct.std::__1::basic_string<char, std::__1::char_traits<char>, std::__1::allocator<char> >::__short"*
  %46 = getelementptr inbounds %"struct.std::__1::basic_string<char, std::__1::char_traits<char>, std::__1::allocator<char> >::__short", %"struct.std::__1::basic_string<char, std::__1::char_traits<char>, std::__1::allocator<char> >::__short"* %45, i64 0, i32 1, i32 0
  store i8 %44, i8* %46, align 1
  br label %47

47:                                               ; preds = %35, %43
  %48 = phi %"struct.std::__1::basic_string<char, std::__1::char_traits<char>, std::__1::allocator<char> >::__short"* [ %42, %35 ], [ %45, %43 ]
  %49 = phi i8* [ %40, %35 ], [ %31, %43 ]
  call void @llvm.memset.p0i8.i64(i8* nonnull align 1 %49, i8 %5, i64 %17, i1 false) #7
  %50 = getelementptr inbounds i8, i8* %49, i64 %17
  store i8 0, i8* %50, align 1
  %51 = getelementptr inbounds %"struct.std::__1::basic_string<char, std::__1::char_traits<char>, std::__1::allocator<char> >::__short", %"struct.std::__1::basic_string<char, std::__1::char_traits<char>, std::__1::allocator<char> >::__short"* %48, i64 0, i32 1, i32 0
  %52 = load i8, i8* %51, align 1
  %53 = icmp slt i8 %52, 0
  %54 = load i8*, i8** %32, align 8
  %55 = select i1 %53, i8* %54, i8* %31
  %56 = bitcast %"class.std::__1::basic_streambuf"* %0 to i64 (%"class.std::__1::basic_streambuf"*, i8*, i64)***
  %57 = load i64 (%"class.std::__1::basic_streambuf"*, i8*, i64)**, i64 (%"class.std::__1::basic_streambuf"*, i8*, i64)*** %56, align 8
  %58 = getelementptr inbounds i64 (%"class.std::__1::basic_streambuf"*, i8*, i64)*, i64 (%"class.std::__1::basic_streambuf"*, i8*, i64)** %57, i64 12
  %59 = load i64 (%"class.std::__1::basic_streambuf"*, i8*, i64)*, i64 (%"class.std::__1::basic_streambuf"*, i8*, i64)** %58, align 8
  %60 = call i64 %59(%"class.std::__1::basic_streambuf"* nonnull %0, i8* %55, i64 %17) #7
  %61 = icmp eq i64 %60, %17
  %62 = load i8, i8* %51, align 1
  %63 = icmp slt i8 %62, 0
  br i1 %63, label %64, label %66

64:                                               ; preds = %47
  %65 = load i8*, i8** %32, align 8
  call void @_ZdlPv(i8* %65) #8
  br label %66

66:                                               ; preds = %47, %64
  call void @llvm.lifetime.end.p0i8(i64 24, i8* nonnull %31) #7
  br i1 %61, label %67, label %78

67:                                               ; preds = %66, %28
  %68 = sub i64 %10, %18
  %69 = icmp sgt i64 %68, 0
  br i1 %69, label %70, label %77

70:                                               ; preds = %67
  %71 = bitcast %"class.std::__1::basic_streambuf"* %0 to i64 (%"class.std::__1::basic_streambuf"*, i8*, i64)***
  %72 = load i64 (%"class.std::__1::basic_streambuf"*, i8*, i64)**, i64 (%"class.std::__1::basic_streambuf"*, i8*, i64)*** %71, align 8
  %73 = getelementptr inbounds i64 (%"class.std::__1::basic_streambuf"*, i8*, i64)*, i64 (%"class.std::__1::basic_streambuf"*, i8*, i64)** %72, i64 12
  %74 = load i64 (%"class.std::__1::basic_streambuf"*, i8*, i64)*, i64 (%"class.std::__1::basic_streambuf"*, i8*, i64)** %73, align 8
  %75 = call i64 %74(%"class.std::__1::basic_streambuf"* nonnull %0, i8* %2, i64 %68) #7
  %76 = icmp eq i64 %75, %68
  br i1 %76, label %77, label %78

77:                                               ; preds = %70, %67
  store i64 0, i64* %13, align 8
  br label %78

78:                                               ; preds = %77, %66, %21, %70, %6
  %79 = phi %"class.std::__1::basic_streambuf"* [ null, %6 ], [ %0, %77 ], [ null, %66 ], [ null, %21 ], [ null, %70 ]
  ret %"class.std::__1::basic_streambuf"* %79
}

; Function Attrs: nounwind
declare void @_ZNSt3__113basic_ostreamIcNS_11char_traitsIcEEE6sentryD1Ev(%"class.std::__1::basic_ostream<char, std::__1::char_traits<char> >::sentry"*) unnamed_addr #2

; Function Attrs: argmemonly nounwind
declare void @llvm.memset.p0i8.i64(i8* nocapture writeonly, i8, i64, i1 immarg) #4

declare void @_ZNKSt3__18ios_base6getlocEv(%"class.std::__1::locale"* sret, %"class.std::__1::ios_base"*) local_unnamed_addr #1

; Function Attrs: nounwind
declare void @_ZNSt3__16localeD1Ev(%"class.std::__1::locale"*) unnamed_addr #2

declare %"class.std::__1::locale::facet"* @_ZNKSt3__16locale9use_facetERNS0_2idE(%"class.std::__1::locale"*, %"class.std::__1::locale::id"* dereferenceable(16)) local_unnamed_addr #1

declare void @_ZNSt3__18ios_base5clearEj(%"class.std::__1::ios_base"*, i32) local_unnamed_addr #1

; Function Attrs: nounwind
declare void @_ZN5media9VASurfaceD1Ev(%"class.media::VASurface"*) unnamed_addr #2

declare void @_ZN2gl19GLImageNativePixmapC1ERKN3gfx4SizeENS1_12BufferFormatE(%"class.gl::GLImageNativePixmap"*, %"class.gfx::Size"* dereferenceable(8), i32) unnamed_addr #1

declare void @_ZNK4base6subtle14RefCountedBase10AddRefImplEv(%"class.base::subtle::RefCountedBase"*) local_unnamed_addr #1

declare void @_ZNK4base6subtle14RefCountedBase11ReleaseImplEv(%"class.base::subtle::RefCountedBase"*) local_unnamed_addr #1

attributes #0 = { nounwind ssp uwtable "correctly-rounded-divide-sqrt-fp-math"="false" "disable-tail-calls"="false" "less-precise-fpmad"="false" "min-legal-vector-width"="0" "no-frame-pointer-elim"="false" "no-frame-pointer-elim-non-leaf" "no-infs-fp-math"="false" "no-jump-tables"="false" "no-nans-fp-math"="false" "no-signed-zeros-fp-math"="false" "no-trapping-math"="false" "null-pointer-is-valid"="true" "stack-protector-buffer-size"="4" "target-cpu"="x86-64" "target-features"="+cx8,+fxsr,+mmx,+sse,+sse2,+sse3,+x87" "unsafe-fp-math"="false" "use-soft-float"="false" }
attributes #1 = { "correctly-rounded-divide-sqrt-fp-math"="false" "disable-tail-calls"="false" "less-precise-fpmad"="false" "no-frame-pointer-elim"="false" "no-frame-pointer-elim-non-leaf" "no-infs-fp-math"="false" "no-nans-fp-math"="false" "no-signed-zeros-fp-math"="false" "no-trapping-math"="false" "null-pointer-is-valid"="true" "stack-protector-buffer-size"="4" "target-cpu"="x86-64" "target-features"="+cx8,+fxsr,+mmx,+sse,+sse2,+sse3,+x87" "unsafe-fp-math"="false" "use-soft-float"="false" }
attributes #2 = { nounwind "correctly-rounded-divide-sqrt-fp-math"="false" "disable-tail-calls"="false" "less-precise-fpmad"="false" "no-frame-pointer-elim"="false" "no-frame-pointer-elim-non-leaf" "no-infs-fp-math"="false" "no-nans-fp-math"="false" "no-signed-zeros-fp-math"="false" "no-trapping-math"="false" "null-pointer-is-valid"="true" "stack-protector-buffer-size"="4" "target-cpu"="x86-64" "target-features"="+cx8,+fxsr,+mmx,+sse,+sse2,+sse3,+x87" "unsafe-fp-math"="false" "use-soft-float"="false" }
attributes #3 = { nobuiltin nounwind "correctly-rounded-divide-sqrt-fp-math"="false" "disable-tail-calls"="false" "less-precise-fpmad"="false" "no-frame-pointer-elim"="false" "no-frame-pointer-elim-non-leaf" "no-infs-fp-math"="false" "no-nans-fp-math"="false" "no-signed-zeros-fp-math"="false" "no-trapping-math"="false" "null-pointer-is-valid"="true" "stack-protector-buffer-size"="4" "target-cpu"="x86-64" "target-features"="+cx8,+fxsr,+mmx,+sse,+sse2,+sse3,+x87" "unsafe-fp-math"="false" "use-soft-float"="false" }
attributes #4 = { argmemonly nounwind }
attributes #5 = { nobuiltin nofree "correctly-rounded-divide-sqrt-fp-math"="false" "disable-tail-calls"="false" "less-precise-fpmad"="false" "no-frame-pointer-elim"="false" "no-frame-pointer-elim-non-leaf" "no-infs-fp-math"="false" "no-nans-fp-math"="false" "no-signed-zeros-fp-math"="false" "no-trapping-math"="false" "null-pointer-is-valid"="true" "stack-protector-buffer-size"="4" "target-cpu"="x86-64" "target-features"="+cx8,+fxsr,+mmx,+sse,+sse2,+sse3,+x87" "unsafe-fp-math"="false" "use-soft-float"="false" }
attributes #6 = { norecurse nounwind readnone ssp uwtable "correctly-rounded-divide-sqrt-fp-math"="false" "disable-tail-calls"="false" "less-precise-fpmad"="false" "min-legal-vector-width"="0" "no-frame-pointer-elim"="false" "no-frame-pointer-elim-non-leaf" "no-infs-fp-math"="false" "no-jump-tables"="false" "no-nans-fp-math"="false" "no-signed-zeros-fp-math"="false" "no-trapping-math"="false" "null-pointer-is-valid"="true" "stack-protector-buffer-size"="4" "target-cpu"="x86-64" "target-features"="+cx8,+fxsr,+mmx,+sse,+sse2,+sse3,+x87" "unsafe-fp-math"="false" "use-soft-float"="false" }
attributes #7 = { nounwind }
attributes #8 = { builtin nounwind }

!llvm.module.flags = !{!0, !1}

!0 = !{i32 1, !"wchar_size", i32 4}
!1 = !{i32 7, !"PIC Level", i32 2}
!2 = !{i8 0, i8 2}
