; ModuleID = 'gen/third_party/blink/public/mojom/webauthn/virtual_authenticator.mojom-blink-test-utils.cc'
source_filename = "gen/third_party/blink/public/mojom/webauthn/virtual_authenticator.mojom-blink-test-utils.cc"
target datalayout = "e-m:e-i64:64-f80:128-n8:16:32:64-S128"
target triple = "x86_64-unknown-linux-gnu"

module asm ".symver exp, exp@GLIBC_2.2.5"
module asm ".symver exp2, exp2@GLIBC_2.2.5"
module asm ".symver exp2f, exp2f@GLIBC_2.2.5"
module asm ".symver expf, expf@GLIBC_2.2.5"
module asm ".symver lgamma, lgamma@GLIBC_2.2.5"
module asm ".symver lgammaf, lgammaf@GLIBC_2.2.5"
module asm ".symver lgammal, lgammal@GLIBC_2.2.5"
module asm ".symver log, log@GLIBC_2.2.5"
module asm ".symver log2, log2@GLIBC_2.2.5"
module asm ".symver log2f, log2f@GLIBC_2.2.5"
module asm ".symver logf, logf@GLIBC_2.2.5"
module asm ".symver pow, pow@GLIBC_2.2.5"
module asm ".symver powf, powf@GLIBC_2.2.5"

%"class.blink::test::mojom::blink::VirtualAuthenticatorAsyncWaiter" = type { %"class.blink::test::mojom::blink::VirtualAuthenticator"* }
%"class.blink::test::mojom::blink::VirtualAuthenticator" = type { i32 (...)** }
%"class.blink::test::mojom::blink::VirtualAuthenticatorManagerAsyncWaiter" = type { %"class.blink::test::mojom::blink::VirtualAuthenticatorManager"* }
%"class.blink::test::mojom::blink::VirtualAuthenticatorManager" = type { i32 (...)** }
%"class.blink::test::mojom::blink::VirtualAuthenticatorInterceptorForTesting" = type { %"class.blink::test::mojom::blink::VirtualAuthenticator" }
%"class.base::OnceCallback" = type { %"class.base::internal::CallbackBase" }
%"class.base::internal::CallbackBase" = type { %class.scoped_refptr }
%class.scoped_refptr = type { %"class.base::internal::BindStateBase"* }
%"class.base::internal::BindStateBase" = type { %"class.base::RefCountedThreadSafe", void ()*, void (%"class.base::internal::BindStateBase"*)*, i1 (%"class.base::internal::BindStateBase"*, i32)* }
%"class.base::RefCountedThreadSafe" = type { %"class.base::subtle::RefCountedThreadSafeBase" }
%"class.base::subtle::RefCountedThreadSafeBase" = type { %"class.base::AtomicRefCount" }
%"class.base::AtomicRefCount" = type { %"struct.std::__1::atomic" }
%"struct.std::__1::atomic" = type { %"struct.std::__1::__atomic_base" }
%"struct.std::__1::__atomic_base" = type { %"struct.std::__1::__atomic_base.0" }
%"struct.std::__1::__atomic_base.0" = type { %"struct.std::__1::__cxx_atomic_impl" }
%"struct.std::__1::__cxx_atomic_impl" = type { %"struct.std::__1::__cxx_atomic_base_impl" }
%"struct.std::__1::__cxx_atomic_base_impl" = type { i32 }
%"class.mojo::StructPtr" = type { %"class.std::__1::unique_ptr" }
%"class.std::__1::unique_ptr" = type { %"class.std::__1::__compressed_pair" }
%"class.std::__1::__compressed_pair" = type { %"struct.std::__1::__compressed_pair_elem" }
%"struct.std::__1::__compressed_pair_elem" = type { %"class.blink::test::mojom::blink::RegisteredKey"* }
%"class.blink::test::mojom::blink::RegisteredKey" = type <{ %"class.WTF::Vector", %"class.WTF::String", %"class.WTF::Vector", i32, [4 x i8] }>
%"class.WTF::String" = type { %class.scoped_refptr.1 }
%class.scoped_refptr.1 = type { %"class.WTF::StringImpl"* }
%"class.WTF::StringImpl" = type { i32, i32, %"struct.std::__1::atomic.2" }
%"struct.std::__1::atomic.2" = type { %"struct.std::__1::__atomic_base.3" }
%"struct.std::__1::__atomic_base.3" = type { %"struct.std::__1::__atomic_base.4" }
%"struct.std::__1::__atomic_base.4" = type { %"struct.std::__1::__cxx_atomic_impl.5" }
%"struct.std::__1::__cxx_atomic_impl.5" = type { %"struct.std::__1::__cxx_atomic_base_impl.6" }
%"struct.std::__1::__cxx_atomic_base_impl.6" = type { i32 }
%"class.WTF::Vector" = type { %"class.WTF::VectorBuffer" }
%"class.WTF::VectorBuffer" = type { %"class.WTF::VectorBufferBase" }
%"class.WTF::VectorBufferBase" = type { i8*, i32, i32 }
%"class.base::OnceCallback.8" = type { %"class.base::internal::CallbackBase" }
%"class.base::OnceCallback.9" = type { %"class.base::internal::CallbackBase" }
%"class.base::OnceCallback.10" = type { %"class.base::internal::CallbackBase" }
%"class.base::OnceCallback.11" = type { %"class.base::internal::CallbackBase" }
%"class.base::RunLoop" = type { %"class.base::RunLoop::Delegate"*, i32, i8, i8, i8, i8, i8, %class.scoped_refptr.22, %"class.base::WeakPtrFactory" }
%"class.base::RunLoop::Delegate" = type <{ i32 (...)**, %"class.std::__1::stack", %"class.base::ObserverList", i8, [7 x i8] }>
%"class.std::__1::stack" = type { %"class.std::__1::vector" }
%"class.std::__1::vector" = type { %"class.std::__1::__vector_base" }
%"class.std::__1::__vector_base" = type { %"class.base::RunLoop"**, %"class.base::RunLoop"**, %"class.std::__1::__compressed_pair.12" }
%"class.std::__1::__compressed_pair.12" = type { %"struct.std::__1::__compressed_pair_elem.13" }
%"struct.std::__1::__compressed_pair_elem.13" = type { %"class.base::RunLoop"** }
%"class.base::ObserverList" = type <{ %"class.std::__1::vector.15", %"class.base::LinkedList", i64, i32, [4 x i8] }>
%"class.std::__1::vector.15" = type { %"class.std::__1::__vector_base.16" }
%"class.std::__1::__vector_base.16" = type { %"class.base::internal::UncheckedObserverAdapter"*, %"class.base::internal::UncheckedObserverAdapter"*, %"class.std::__1::__compressed_pair.17" }
%"class.base::internal::UncheckedObserverAdapter" = type { i8* }
%"class.std::__1::__compressed_pair.17" = type { %"struct.std::__1::__compressed_pair_elem.18" }
%"struct.std::__1::__compressed_pair_elem.18" = type { %"class.base::internal::UncheckedObserverAdapter"* }
%"class.base::LinkedList" = type { %"class.base::LinkNode" }
%"class.base::LinkNode" = type { %"class.base::internal::LinkNodeBase" }
%"class.base::internal::LinkNodeBase" = type { %"class.base::internal::LinkNodeBase"*, %"class.base::internal::LinkNodeBase"* }
%class.scoped_refptr.22 = type { %"class.base::SingleThreadTaskRunner"* }
%"class.base::SingleThreadTaskRunner" = type { %"class.base::SequencedTaskRunner.base", [4 x i8] }
%"class.base::SequencedTaskRunner.base" = type { %"class.base::TaskRunner.base" }
%"class.base::TaskRunner.base" = type <{ i32 (...)**, %"class.base::RefCountedThreadSafe.23" }>
%"class.base::RefCountedThreadSafe.23" = type { %"class.base::subtle::RefCountedThreadSafeBase" }
%"class.base::WeakPtrFactory" = type { %"class.base::internal::WeakPtrFactoryBase" }
%"class.base::internal::WeakPtrFactoryBase" = type { %"class.base::internal::WeakReferenceOwner", i64 }
%"class.base::internal::WeakReferenceOwner" = type { %class.scoped_refptr.24 }
%class.scoped_refptr.24 = type { %"class.base::internal::WeakReference::Flag"* }
%"class.base::internal::WeakReference::Flag" = type <{ %"class.base::RefCountedThreadSafe.25", %"class.base::AtomicFlag", [3 x i8] }>
%"class.base::RefCountedThreadSafe.25" = type { %"class.base::subtle::RefCountedThreadSafeBase" }
%"class.base::AtomicFlag" = type { %"struct.std::__1::atomic.26" }
%"struct.std::__1::atomic.26" = type { %"struct.std::__1::__atomic_base.27" }
%"struct.std::__1::__atomic_base.27" = type { %"struct.std::__1::__atomic_base.28" }
%"struct.std::__1::__atomic_base.28" = type { %"struct.std::__1::__cxx_atomic_impl.29" }
%"struct.std::__1::__cxx_atomic_impl.29" = type { %"struct.std::__1::__cxx_atomic_base_impl.30" }
%"struct.std::__1::__cxx_atomic_base_impl.30" = type { i8 }
%"class.base::Location" = type { i8*, i8*, i32, i8* }
%"class.WTF::Vector.33" = type { %"class.WTF::VectorBuffer.34" }
%"class.WTF::VectorBuffer.34" = type { %"class.WTF::VectorBufferBase.35" }
%"class.WTF::VectorBufferBase.35" = type { %"class.mojo::StructPtr"*, i32, i32 }
%"class.absl::optional" = type { %"class.absl::optional_internal::optional_data" }
%"class.absl::optional_internal::optional_data" = type { %"class.absl::optional_internal::optional_data_base" }
%"class.absl::optional_internal::optional_data_base" = type { %"class.absl::optional_internal::optional_data_dtor_base" }
%"class.absl::optional_internal::optional_data_dtor_base" = type { i8, %union.anon }
%union.anon = type { %"class.WTF::Vector" }
%"class.blink::test::mojom::blink::VirtualAuthenticatorManagerInterceptorForTesting" = type { %"class.blink::test::mojom::blink::VirtualAuthenticatorManager" }
%"class.mojo::StructPtr.50" = type { %"class.std::__1::unique_ptr.51" }
%"class.std::__1::unique_ptr.51" = type { %"class.std::__1::__compressed_pair.52" }
%"class.std::__1::__compressed_pair.52" = type { %"struct.std::__1::__compressed_pair_elem.53" }
%"struct.std::__1::__compressed_pair_elem.53" = type { %"class.blink::test::mojom::blink::VirtualAuthenticatorOptions"* }
%"class.blink::test::mojom::blink::VirtualAuthenticatorOptions" = type <{ i32, i32, i32, i32, i8, i8, i8, i8, i8, [3 x i8] }>
%"class.base::OnceCallback.57" = type { %"class.base::internal::CallbackBase" }
%"class.base::OnceCallback.58" = type { %"class.base::internal::CallbackBase" }
%"class.mojo::PendingRemote" = type { %"struct.mojo::internal::PendingRemoteState" }
%"struct.mojo::internal::PendingRemoteState" = type { %"class.mojo::ScopedHandleBase", i32 }
%"class.mojo::ScopedHandleBase" = type { %"class.mojo::MessagePipeHandle" }
%"class.mojo::MessagePipeHandle" = type { %"class.mojo::Handle" }
%"class.mojo::Handle" = type { i32 }
%"class.WTF::Vector.61" = type { %"class.WTF::VectorBuffer.62" }
%"class.WTF::VectorBuffer.62" = type { %"class.WTF::VectorBufferBase.63" }
%"class.WTF::VectorBufferBase.63" = type { %"class.mojo::PendingRemote"*, i32, i32 }
%"class.logging::CheckOpResult" = type { i8* }
%"class.logging::CheckError" = type { %"class.logging::LogMessage"* }
%"class.logging::LogMessage" = type { i32 (...)**, i32, %"class.std::__1::basic_ostringstream", i64, i8*, i32, %"class.base::ScopedClearLastErrorBase" }
%"class.std::__1::basic_ostringstream" = type { %"class.std::__1::basic_ostream.base", %"class.std::__1::basic_stringbuf", %"class.std::__1::basic_ios.base" }
%"class.std::__1::basic_ostream.base" = type { i32 (...)** }
%"class.std::__1::basic_stringbuf" = type <{ %"class.std::__1::basic_streambuf", %"class.std::__1::basic_string", i8*, i32, [4 x i8] }>
%"class.std::__1::basic_streambuf" = type { i32 (...)**, %"class.std::__1::locale", i8*, i8*, i8*, i8*, i8*, i8* }
%"class.std::__1::locale" = type { %"class.std::__1::locale::__imp"* }
%"class.std::__1::locale::__imp" = type opaque
%"class.std::__1::basic_string" = type { %"class.std::__1::__compressed_pair.101" }
%"class.std::__1::__compressed_pair.101" = type { %"struct.std::__1::__compressed_pair_elem.102" }
%"struct.std::__1::__compressed_pair_elem.102" = type { %"struct.std::__1::basic_string<char, std::__1::char_traits<char>, std::__1::allocator<char> >::__rep" }
%"struct.std::__1::basic_string<char, std::__1::char_traits<char>, std::__1::allocator<char> >::__rep" = type { %union.anon.103 }
%union.anon.103 = type { %"struct.std::__1::basic_string<char, std::__1::char_traits<char>, std::__1::allocator<char> >::__long" }
%"struct.std::__1::basic_string<char, std::__1::char_traits<char>, std::__1::allocator<char> >::__long" = type { i8*, i64, i64 }
%"class.std::__1::basic_ios.base" = type <{ %"class.std::__1::ios_base", %"class.std::__1::basic_ostream"*, i32 }>
%"class.std::__1::ios_base" = type { i32 (...)**, i32, i64, i64, i32, i32, i8*, i8*, void (i32, %"class.std::__1::ios_base"*, i32)**, i32*, i64, i64, i64*, i64, i64, i8**, i64, i64 }
%"class.std::__1::basic_ostream" = type { i32 (...)**, %"class.std::__1::basic_ios.base" }
%"class.base::ScopedClearLastErrorBase" = type { i32 }

$_ZN5blink4test5mojom5blink20VirtualAuthenticatorD2Ev = comdat any

$_ZN5blink4test5mojom5blink41VirtualAuthenticatorInterceptorForTestingD0Ev = comdat any

$_ZN5blink4test5mojom5blink27VirtualAuthenticatorManagerD2Ev = comdat any

$_ZN5blink4test5mojom5blink48VirtualAuthenticatorManagerInterceptorForTestingD0Ev = comdat any

$_ZN4absl17optional_internal13optional_dataIN3WTF6VectorIhLj0ENS2_18PartitionAllocatorEEELb0EEaSERKS6_ = comdat any

$_ZN3WTF6VectorIhLj0ENS_18PartitionAllocatorEEaSERKS2_ = comdat any

$_ZN3WTF18PartitionAllocator13QuantizedSizeIhEEmm = comdat any

@.str = private unnamed_addr constant [12 x i8] c"GetUniqueId\00", align 1
@.str.1 = private unnamed_addr constant [92 x i8] c"gen/third_party/blink/public/mojom/webauthn/virtual_authenticator.mojom-blink-test-utils.cc\00", align 1
@.str.2 = private unnamed_addr constant [16 x i8] c"AddRegistration\00", align 1
@.str.3 = private unnamed_addr constant [17 x i8] c"GetRegistrations\00", align 1
@.str.4 = private unnamed_addr constant [19 x i8] c"RemoveRegistration\00", align 1
@.str.5 = private unnamed_addr constant [19 x i8] c"ClearRegistrations\00", align 1
@.str.6 = private unnamed_addr constant [13 x i8] c"GetLargeBlob\00", align 1
@.str.7 = private unnamed_addr constant [13 x i8] c"SetLargeBlob\00", align 1
@.str.8 = private unnamed_addr constant [16 x i8] c"SetUserVerified\00", align 1
@.str.9 = private unnamed_addr constant [20 x i8] c"CreateAuthenticator\00", align 1
@.str.10 = private unnamed_addr constant [18 x i8] c"GetAuthenticators\00", align 1
@.str.11 = private unnamed_addr constant [20 x i8] c"RemoveAuthenticator\00", align 1
@.str.12 = private unnamed_addr constant [20 x i8] c"ClearAuthenticators\00", align 1
@_ZTVN5blink4test5mojom5blink41VirtualAuthenticatorInterceptorForTestingE = hidden unnamed_addr constant { [13 x i8*] } { [13 x i8*] [i8* null, i8* null, i8* bitcast (void (%"class.blink::test::mojom::blink::VirtualAuthenticator"*)* @_ZN5blink4test5mojom5blink20VirtualAuthenticatorD2Ev to i8*), i8* bitcast (void (%"class.blink::test::mojom::blink::VirtualAuthenticatorInterceptorForTesting"*)* @_ZN5blink4test5mojom5blink41VirtualAuthenticatorInterceptorForTestingD0Ev to i8*), i8* bitcast (void (%"class.blink::test::mojom::blink::VirtualAuthenticatorInterceptorForTesting"*, %"class.base::OnceCallback"*)* @_ZN5blink4test5mojom5blink41VirtualAuthenticatorInterceptorForTesting11GetUniqueIdEN4base12OnceCallbackIFvRKN3WTF6StringEEEE to i8*), i8* bitcast (void (%"class.blink::test::mojom::blink::VirtualAuthenticatorInterceptorForTesting"*, %"class.mojo::StructPtr"*, %"class.base::OnceCallback.8"*)* @_ZN5blink4test5mojom5blink41VirtualAuthenticatorInterceptorForTesting15AddRegistrationEN4mojo9StructPtrINS2_13RegisteredKeyEEEN4base12OnceCallbackIFvbEEE to i8*), i8* bitcast (void (%"class.blink::test::mojom::blink::VirtualAuthenticatorInterceptorForTesting"*, %"class.base::OnceCallback.9"*)* @_ZN5blink4test5mojom5blink41VirtualAuthenticatorInterceptorForTesting16GetRegistrationsEN4base12OnceCallbackIFvN3WTF6VectorIN4mojo9StructPtrINS2_13RegisteredKeyEEELj0ENS6_18PartitionAllocatorEEEEEE to i8*), i8* bitcast (void (%"class.blink::test::mojom::blink::VirtualAuthenticatorInterceptorForTesting"*, %"class.WTF::Vector"*, %"class.base::OnceCallback.8"*)* @_ZN5blink4test5mojom5blink41VirtualAuthenticatorInterceptorForTesting18RemoveRegistrationERKN3WTF6VectorIhLj0ENS4_18PartitionAllocatorEEEN4base12OnceCallbackIFvbEEE to i8*), i8* bitcast (void (%"class.blink::test::mojom::blink::VirtualAuthenticatorInterceptorForTesting"*, %"class.base::OnceCallback.10"*)* @_ZN5blink4test5mojom5blink41VirtualAuthenticatorInterceptorForTesting18ClearRegistrationsEN4base12OnceCallbackIFvvEEE to i8*), i8* bitcast (void (%"class.blink::test::mojom::blink::VirtualAuthenticatorInterceptorForTesting"*, %"class.WTF::Vector"*, %"class.base::OnceCallback.11"*)* @_ZN5blink4test5mojom5blink41VirtualAuthenticatorInterceptorForTesting12GetLargeBlobERKN3WTF6VectorIhLj0ENS4_18PartitionAllocatorEEEN4base12OnceCallbackIFvRKN4absl8optionalIS7_EEEEE to i8*), i8* bitcast (void (%"class.blink::test::mojom::blink::VirtualAuthenticatorInterceptorForTesting"*, %"class.WTF::Vector"*, %"class.WTF::Vector"*, %"class.base::OnceCallback.8"*)* @_ZN5blink4test5mojom5blink41VirtualAuthenticatorInterceptorForTesting12SetLargeBlobERKN3WTF6VectorIhLj0ENS4_18PartitionAllocatorEEES9_N4base12OnceCallbackIFvbEEE to i8*), i8* bitcast (void (%"class.blink::test::mojom::blink::VirtualAuthenticatorInterceptorForTesting"*, i1, %"class.base::OnceCallback.10"*)* @_ZN5blink4test5mojom5blink41VirtualAuthenticatorInterceptorForTesting15SetUserVerifiedEbN4base12OnceCallbackIFvvEEE to i8*), i8* bitcast (void ()* @__cxa_pure_virtual to i8*)] }, align 8
@_ZTVN5blink4test5mojom5blink48VirtualAuthenticatorManagerInterceptorForTestingE = hidden unnamed_addr constant { [9 x i8*] } { [9 x i8*] [i8* null, i8* null, i8* bitcast (void (%"class.blink::test::mojom::blink::VirtualAuthenticatorManager"*)* @_ZN5blink4test5mojom5blink27VirtualAuthenticatorManagerD2Ev to i8*), i8* bitcast (void (%"class.blink::test::mojom::blink::VirtualAuthenticatorManagerInterceptorForTesting"*)* @_ZN5blink4test5mojom5blink48VirtualAuthenticatorManagerInterceptorForTestingD0Ev to i8*), i8* bitcast (void (%"class.blink::test::mojom::blink::VirtualAuthenticatorManagerInterceptorForTesting"*, %"class.mojo::StructPtr.50"*, %"class.base::OnceCallback.57"*)* @_ZN5blink4test5mojom5blink48VirtualAuthenticatorManagerInterceptorForTesting19CreateAuthenticatorEN4mojo9StructPtrINS2_27VirtualAuthenticatorOptionsEEEN4base12OnceCallbackIFvNS4_13PendingRemoteINS2_20VirtualAuthenticatorEEEEEE to i8*), i8* bitcast (void (%"class.blink::test::mojom::blink::VirtualAuthenticatorManagerInterceptorForTesting"*, %"class.base::OnceCallback.58"*)* @_ZN5blink4test5mojom5blink48VirtualAuthenticatorManagerInterceptorForTesting17GetAuthenticatorsEN4base12OnceCallbackIFvN3WTF6VectorIN4mojo13PendingRemoteINS2_20VirtualAuthenticatorEEELj0ENS6_18PartitionAllocatorEEEEEE to i8*), i8* bitcast (void (%"class.blink::test::mojom::blink::VirtualAuthenticatorManagerInterceptorForTesting"*, %"class.WTF::String"*, %"class.base::OnceCallback.8"*)* @_ZN5blink4test5mojom5blink48VirtualAuthenticatorManagerInterceptorForTesting19RemoveAuthenticatorERKN3WTF6StringEN4base12OnceCallbackIFvbEEE to i8*), i8* bitcast (void (%"class.blink::test::mojom::blink::VirtualAuthenticatorManagerInterceptorForTesting"*, %"class.base::OnceCallback.10"*)* @_ZN5blink4test5mojom5blink48VirtualAuthenticatorManagerInterceptorForTesting19ClearAuthenticatorsEN4base12OnceCallbackIFvvEEE to i8*), i8* bitcast (void ()* @__cxa_pure_virtual to i8*)] }, align 8
@.str.13 = private unnamed_addr constant [44 x i8] c"count <= MaxElementCountInBackingStore<T>()\00", align 1
@.str.14 = private unnamed_addr constant [78 x i8] c"../../third_party/blink/renderer/platform/wtf/allocator/partition_allocator.h\00", align 1
@__PRETTY_FUNCTION__._ZN3WTF21GetStringWithTypeNameIhEEPKcv = private unnamed_addr constant [61 x i8] c"const char *WTF::GetStringWithTypeName() [T = unsigned char]\00", align 1

@_ZN5blink4test5mojom5blink31VirtualAuthenticatorAsyncWaiterC1EPNS2_20VirtualAuthenticatorE = hidden unnamed_addr alias void (%"class.blink::test::mojom::blink::VirtualAuthenticatorAsyncWaiter"*, %"class.blink::test::mojom::blink::VirtualAuthenticator"*), void (%"class.blink::test::mojom::blink::VirtualAuthenticatorAsyncWaiter"*, %"class.blink::test::mojom::blink::VirtualAuthenticator"*)* @_ZN5blink4test5mojom5blink31VirtualAuthenticatorAsyncWaiterC2EPNS2_20VirtualAuthenticatorE
@_ZN5blink4test5mojom5blink31VirtualAuthenticatorAsyncWaiterD1Ev = hidden unnamed_addr alias void (%"class.blink::test::mojom::blink::VirtualAuthenticatorAsyncWaiter"*), void (%"class.blink::test::mojom::blink::VirtualAuthenticatorAsyncWaiter"*)* @_ZN5blink4test5mojom5blink31VirtualAuthenticatorAsyncWaiterD2Ev
@_ZN5blink4test5mojom5blink38VirtualAuthenticatorManagerAsyncWaiterC1EPNS2_27VirtualAuthenticatorManagerE = hidden unnamed_addr alias void (%"class.blink::test::mojom::blink::VirtualAuthenticatorManagerAsyncWaiter"*, %"class.blink::test::mojom::blink::VirtualAuthenticatorManager"*), void (%"class.blink::test::mojom::blink::VirtualAuthenticatorManagerAsyncWaiter"*, %"class.blink::test::mojom::blink::VirtualAuthenticatorManager"*)* @_ZN5blink4test5mojom5blink38VirtualAuthenticatorManagerAsyncWaiterC2EPNS2_27VirtualAuthenticatorManagerE
@_ZN5blink4test5mojom5blink38VirtualAuthenticatorManagerAsyncWaiterD1Ev = hidden unnamed_addr alias void (%"class.blink::test::mojom::blink::VirtualAuthenticatorManagerAsyncWaiter"*), void (%"class.blink::test::mojom::blink::VirtualAuthenticatorManagerAsyncWaiter"*)* @_ZN5blink4test5mojom5blink38VirtualAuthenticatorManagerAsyncWaiterD2Ev

; Function Attrs: nounwind ssp uwtable
define hidden void @_ZN5blink4test5mojom5blink41VirtualAuthenticatorInterceptorForTesting11GetUniqueIdEN4base12OnceCallbackIFvRKN3WTF6StringEEEE(%"class.blink::test::mojom::blink::VirtualAuthenticatorInterceptorForTesting"*, %"class.base::OnceCallback"* nocapture) unnamed_addr #0 align 2 {
  %3 = alloca %"class.base::OnceCallback", align 8
  %4 = bitcast %"class.blink::test::mojom::blink::VirtualAuthenticatorInterceptorForTesting"* %0 to %"class.blink::test::mojom::blink::VirtualAuthenticator"* (%"class.blink::test::mojom::blink::VirtualAuthenticatorInterceptorForTesting"*)***
  %5 = load %"class.blink::test::mojom::blink::VirtualAuthenticator"* (%"class.blink::test::mojom::blink::VirtualAuthenticatorInterceptorForTesting"*)**, %"class.blink::test::mojom::blink::VirtualAuthenticator"* (%"class.blink::test::mojom::blink::VirtualAuthenticatorInterceptorForTesting"*)*** %4, align 8
  %6 = getelementptr inbounds %"class.blink::test::mojom::blink::VirtualAuthenticator"* (%"class.blink::test::mojom::blink::VirtualAuthenticatorInterceptorForTesting"*)*, %"class.blink::test::mojom::blink::VirtualAuthenticator"* (%"class.blink::test::mojom::blink::VirtualAuthenticatorInterceptorForTesting"*)** %5, i64 10
  %7 = load %"class.blink::test::mojom::blink::VirtualAuthenticator"* (%"class.blink::test::mojom::blink::VirtualAuthenticatorInterceptorForTesting"*)*, %"class.blink::test::mojom::blink::VirtualAuthenticator"* (%"class.blink::test::mojom::blink::VirtualAuthenticatorInterceptorForTesting"*)** %6, align 8
  %8 = tail call %"class.blink::test::mojom::blink::VirtualAuthenticator"* %7(%"class.blink::test::mojom::blink::VirtualAuthenticatorInterceptorForTesting"* %0) #11
  %9 = getelementptr inbounds %"class.base::OnceCallback", %"class.base::OnceCallback"* %1, i64 0, i32 0, i32 0, i32 0
  %10 = bitcast %"class.base::OnceCallback"* %1 to i64*
  %11 = load i64, i64* %10, align 8
  %12 = bitcast %"class.base::OnceCallback"* %3 to i64*
  store i64 %11, i64* %12, align 8
  store %"class.base::internal::BindStateBase"* null, %"class.base::internal::BindStateBase"** %9, align 8
  %13 = bitcast %"class.blink::test::mojom::blink::VirtualAuthenticator"* %8 to void (%"class.blink::test::mojom::blink::VirtualAuthenticator"*, %"class.base::OnceCallback"*)***
  %14 = load void (%"class.blink::test::mojom::blink::VirtualAuthenticator"*, %"class.base::OnceCallback"*)**, void (%"class.blink::test::mojom::blink::VirtualAuthenticator"*, %"class.base::OnceCallback"*)*** %13, align 8
  %15 = getelementptr inbounds void (%"class.blink::test::mojom::blink::VirtualAuthenticator"*, %"class.base::OnceCallback"*)*, void (%"class.blink::test::mojom::blink::VirtualAuthenticator"*, %"class.base::OnceCallback"*)** %14, i64 2
  %16 = load void (%"class.blink::test::mojom::blink::VirtualAuthenticator"*, %"class.base::OnceCallback"*)*, void (%"class.blink::test::mojom::blink::VirtualAuthenticator"*, %"class.base::OnceCallback"*)** %15, align 8
  call void %16(%"class.blink::test::mojom::blink::VirtualAuthenticator"* %8, %"class.base::OnceCallback"* nonnull %3) #11
  %17 = getelementptr inbounds %"class.base::OnceCallback", %"class.base::OnceCallback"* %3, i64 0, i32 0
  call void @_ZN4base8internal12CallbackBaseD2Ev(%"class.base::internal::CallbackBase"* nonnull %17) #11
  ret void
}

; Function Attrs: nounwind ssp uwtable
define hidden void @_ZN5blink4test5mojom5blink41VirtualAuthenticatorInterceptorForTesting15AddRegistrationEN4mojo9StructPtrINS2_13RegisteredKeyEEEN4base12OnceCallbackIFvbEEE(%"class.blink::test::mojom::blink::VirtualAuthenticatorInterceptorForTesting"*, %"class.mojo::StructPtr"* nocapture, %"class.base::OnceCallback.8"* nocapture) unnamed_addr #0 align 2 {
  %4 = alloca %"class.mojo::StructPtr", align 8
  %5 = alloca %"class.base::OnceCallback.8", align 8
  %6 = bitcast %"class.blink::test::mojom::blink::VirtualAuthenticatorInterceptorForTesting"* %0 to %"class.blink::test::mojom::blink::VirtualAuthenticator"* (%"class.blink::test::mojom::blink::VirtualAuthenticatorInterceptorForTesting"*)***
  %7 = load %"class.blink::test::mojom::blink::VirtualAuthenticator"* (%"class.blink::test::mojom::blink::VirtualAuthenticatorInterceptorForTesting"*)**, %"class.blink::test::mojom::blink::VirtualAuthenticator"* (%"class.blink::test::mojom::blink::VirtualAuthenticatorInterceptorForTesting"*)*** %6, align 8
  %8 = getelementptr inbounds %"class.blink::test::mojom::blink::VirtualAuthenticator"* (%"class.blink::test::mojom::blink::VirtualAuthenticatorInterceptorForTesting"*)*, %"class.blink::test::mojom::blink::VirtualAuthenticator"* (%"class.blink::test::mojom::blink::VirtualAuthenticatorInterceptorForTesting"*)** %7, i64 10
  %9 = load %"class.blink::test::mojom::blink::VirtualAuthenticator"* (%"class.blink::test::mojom::blink::VirtualAuthenticatorInterceptorForTesting"*)*, %"class.blink::test::mojom::blink::VirtualAuthenticator"* (%"class.blink::test::mojom::blink::VirtualAuthenticatorInterceptorForTesting"*)** %8, align 8
  %10 = tail call %"class.blink::test::mojom::blink::VirtualAuthenticator"* %9(%"class.blink::test::mojom::blink::VirtualAuthenticatorInterceptorForTesting"* %0) #11
  %11 = bitcast %"class.mojo::StructPtr"* %4 to i64*
  %12 = getelementptr inbounds %"class.mojo::StructPtr", %"class.mojo::StructPtr"* %4, i64 0, i32 0, i32 0, i32 0, i32 0
  %13 = bitcast %"class.mojo::StructPtr"* %1 to i64*
  %14 = load i64, i64* %13, align 8
  store i64 %14, i64* %11, align 8
  store i64 0, i64* %13, align 8
  %15 = getelementptr inbounds %"class.base::OnceCallback.8", %"class.base::OnceCallback.8"* %2, i64 0, i32 0, i32 0, i32 0
  %16 = bitcast %"class.base::OnceCallback.8"* %2 to i64*
  %17 = load i64, i64* %16, align 8
  %18 = bitcast %"class.base::OnceCallback.8"* %5 to i64*
  store i64 %17, i64* %18, align 8
  store %"class.base::internal::BindStateBase"* null, %"class.base::internal::BindStateBase"** %15, align 8
  %19 = bitcast %"class.blink::test::mojom::blink::VirtualAuthenticator"* %10 to void (%"class.blink::test::mojom::blink::VirtualAuthenticator"*, %"class.mojo::StructPtr"*, %"class.base::OnceCallback.8"*)***
  %20 = load void (%"class.blink::test::mojom::blink::VirtualAuthenticator"*, %"class.mojo::StructPtr"*, %"class.base::OnceCallback.8"*)**, void (%"class.blink::test::mojom::blink::VirtualAuthenticator"*, %"class.mojo::StructPtr"*, %"class.base::OnceCallback.8"*)*** %19, align 8
  %21 = getelementptr inbounds void (%"class.blink::test::mojom::blink::VirtualAuthenticator"*, %"class.mojo::StructPtr"*, %"class.base::OnceCallback.8"*)*, void (%"class.blink::test::mojom::blink::VirtualAuthenticator"*, %"class.mojo::StructPtr"*, %"class.base::OnceCallback.8"*)** %20, i64 3
  %22 = load void (%"class.blink::test::mojom::blink::VirtualAuthenticator"*, %"class.mojo::StructPtr"*, %"class.base::OnceCallback.8"*)*, void (%"class.blink::test::mojom::blink::VirtualAuthenticator"*, %"class.mojo::StructPtr"*, %"class.base::OnceCallback.8"*)** %21, align 8
  call void %22(%"class.blink::test::mojom::blink::VirtualAuthenticator"* %10, %"class.mojo::StructPtr"* nonnull %4, %"class.base::OnceCallback.8"* nonnull %5) #11
  %23 = getelementptr inbounds %"class.base::OnceCallback.8", %"class.base::OnceCallback.8"* %5, i64 0, i32 0
  call void @_ZN4base8internal12CallbackBaseD2Ev(%"class.base::internal::CallbackBase"* nonnull %23) #11
  %24 = load %"class.blink::test::mojom::blink::RegisteredKey"*, %"class.blink::test::mojom::blink::RegisteredKey"** %12, align 8
  store %"class.blink::test::mojom::blink::RegisteredKey"* null, %"class.blink::test::mojom::blink::RegisteredKey"** %12, align 8
  %25 = icmp eq %"class.blink::test::mojom::blink::RegisteredKey"* %24, null
  br i1 %25, label %28, label %26

26:                                               ; preds = %3
  call void @_ZN5blink4test5mojom5blink13RegisteredKeyD1Ev(%"class.blink::test::mojom::blink::RegisteredKey"* nonnull %24) #11
  %27 = bitcast %"class.blink::test::mojom::blink::RegisteredKey"* %24 to i8*
  call void @_ZdlPv(i8* %27) #12
  br label %28

28:                                               ; preds = %3, %26
  ret void
}

; Function Attrs: nounwind ssp uwtable
define hidden void @_ZN5blink4test5mojom5blink41VirtualAuthenticatorInterceptorForTesting16GetRegistrationsEN4base12OnceCallbackIFvN3WTF6VectorIN4mojo9StructPtrINS2_13RegisteredKeyEEELj0ENS6_18PartitionAllocatorEEEEEE(%"class.blink::test::mojom::blink::VirtualAuthenticatorInterceptorForTesting"*, %"class.base::OnceCallback.9"* nocapture) unnamed_addr #0 align 2 {
  %3 = alloca %"class.base::OnceCallback.9", align 8
  %4 = bitcast %"class.blink::test::mojom::blink::VirtualAuthenticatorInterceptorForTesting"* %0 to %"class.blink::test::mojom::blink::VirtualAuthenticator"* (%"class.blink::test::mojom::blink::VirtualAuthenticatorInterceptorForTesting"*)***
  %5 = load %"class.blink::test::mojom::blink::VirtualAuthenticator"* (%"class.blink::test::mojom::blink::VirtualAuthenticatorInterceptorForTesting"*)**, %"class.blink::test::mojom::blink::VirtualAuthenticator"* (%"class.blink::test::mojom::blink::VirtualAuthenticatorInterceptorForTesting"*)*** %4, align 8
  %6 = getelementptr inbounds %"class.blink::test::mojom::blink::VirtualAuthenticator"* (%"class.blink::test::mojom::blink::VirtualAuthenticatorInterceptorForTesting"*)*, %"class.blink::test::mojom::blink::VirtualAuthenticator"* (%"class.blink::test::mojom::blink::VirtualAuthenticatorInterceptorForTesting"*)** %5, i64 10
  %7 = load %"class.blink::test::mojom::blink::VirtualAuthenticator"* (%"class.blink::test::mojom::blink::VirtualAuthenticatorInterceptorForTesting"*)*, %"class.blink::test::mojom::blink::VirtualAuthenticator"* (%"class.blink::test::mojom::blink::VirtualAuthenticatorInterceptorForTesting"*)** %6, align 8
  %8 = tail call %"class.blink::test::mojom::blink::VirtualAuthenticator"* %7(%"class.blink::test::mojom::blink::VirtualAuthenticatorInterceptorForTesting"* %0) #11
  %9 = getelementptr inbounds %"class.base::OnceCallback.9", %"class.base::OnceCallback.9"* %1, i64 0, i32 0, i32 0, i32 0
  %10 = bitcast %"class.base::OnceCallback.9"* %1 to i64*
  %11 = load i64, i64* %10, align 8
  %12 = bitcast %"class.base::OnceCallback.9"* %3 to i64*
  store i64 %11, i64* %12, align 8
  store %"class.base::internal::BindStateBase"* null, %"class.base::internal::BindStateBase"** %9, align 8
  %13 = bitcast %"class.blink::test::mojom::blink::VirtualAuthenticator"* %8 to void (%"class.blink::test::mojom::blink::VirtualAuthenticator"*, %"class.base::OnceCallback.9"*)***
  %14 = load void (%"class.blink::test::mojom::blink::VirtualAuthenticator"*, %"class.base::OnceCallback.9"*)**, void (%"class.blink::test::mojom::blink::VirtualAuthenticator"*, %"class.base::OnceCallback.9"*)*** %13, align 8
  %15 = getelementptr inbounds void (%"class.blink::test::mojom::blink::VirtualAuthenticator"*, %"class.base::OnceCallback.9"*)*, void (%"class.blink::test::mojom::blink::VirtualAuthenticator"*, %"class.base::OnceCallback.9"*)** %14, i64 4
  %16 = load void (%"class.blink::test::mojom::blink::VirtualAuthenticator"*, %"class.base::OnceCallback.9"*)*, void (%"class.blink::test::mojom::blink::VirtualAuthenticator"*, %"class.base::OnceCallback.9"*)** %15, align 8
  call void %16(%"class.blink::test::mojom::blink::VirtualAuthenticator"* %8, %"class.base::OnceCallback.9"* nonnull %3) #11
  %17 = getelementptr inbounds %"class.base::OnceCallback.9", %"class.base::OnceCallback.9"* %3, i64 0, i32 0
  call void @_ZN4base8internal12CallbackBaseD2Ev(%"class.base::internal::CallbackBase"* nonnull %17) #11
  ret void
}

; Function Attrs: nounwind ssp uwtable
define hidden void @_ZN5blink4test5mojom5blink41VirtualAuthenticatorInterceptorForTesting18RemoveRegistrationERKN3WTF6VectorIhLj0ENS4_18PartitionAllocatorEEEN4base12OnceCallbackIFvbEEE(%"class.blink::test::mojom::blink::VirtualAuthenticatorInterceptorForTesting"*, %"class.WTF::Vector"* dereferenceable(16), %"class.base::OnceCallback.8"* nocapture) unnamed_addr #0 align 2 {
  %4 = alloca %"class.base::OnceCallback.8", align 8
  %5 = bitcast %"class.blink::test::mojom::blink::VirtualAuthenticatorInterceptorForTesting"* %0 to %"class.blink::test::mojom::blink::VirtualAuthenticator"* (%"class.blink::test::mojom::blink::VirtualAuthenticatorInterceptorForTesting"*)***
  %6 = load %"class.blink::test::mojom::blink::VirtualAuthenticator"* (%"class.blink::test::mojom::blink::VirtualAuthenticatorInterceptorForTesting"*)**, %"class.blink::test::mojom::blink::VirtualAuthenticator"* (%"class.blink::test::mojom::blink::VirtualAuthenticatorInterceptorForTesting"*)*** %5, align 8
  %7 = getelementptr inbounds %"class.blink::test::mojom::blink::VirtualAuthenticator"* (%"class.blink::test::mojom::blink::VirtualAuthenticatorInterceptorForTesting"*)*, %"class.blink::test::mojom::blink::VirtualAuthenticator"* (%"class.blink::test::mojom::blink::VirtualAuthenticatorInterceptorForTesting"*)** %6, i64 10
  %8 = load %"class.blink::test::mojom::blink::VirtualAuthenticator"* (%"class.blink::test::mojom::blink::VirtualAuthenticatorInterceptorForTesting"*)*, %"class.blink::test::mojom::blink::VirtualAuthenticator"* (%"class.blink::test::mojom::blink::VirtualAuthenticatorInterceptorForTesting"*)** %7, align 8
  %9 = tail call %"class.blink::test::mojom::blink::VirtualAuthenticator"* %8(%"class.blink::test::mojom::blink::VirtualAuthenticatorInterceptorForTesting"* %0) #11
  %10 = getelementptr inbounds %"class.base::OnceCallback.8", %"class.base::OnceCallback.8"* %2, i64 0, i32 0, i32 0, i32 0
  %11 = bitcast %"class.base::OnceCallback.8"* %2 to i64*
  %12 = load i64, i64* %11, align 8
  %13 = bitcast %"class.base::OnceCallback.8"* %4 to i64*
  store i64 %12, i64* %13, align 8
  store %"class.base::internal::BindStateBase"* null, %"class.base::internal::BindStateBase"** %10, align 8
  %14 = bitcast %"class.blink::test::mojom::blink::VirtualAuthenticator"* %9 to void (%"class.blink::test::mojom::blink::VirtualAuthenticator"*, %"class.WTF::Vector"*, %"class.base::OnceCallback.8"*)***
  %15 = load void (%"class.blink::test::mojom::blink::VirtualAuthenticator"*, %"class.WTF::Vector"*, %"class.base::OnceCallback.8"*)**, void (%"class.blink::test::mojom::blink::VirtualAuthenticator"*, %"class.WTF::Vector"*, %"class.base::OnceCallback.8"*)*** %14, align 8
  %16 = getelementptr inbounds void (%"class.blink::test::mojom::blink::VirtualAuthenticator"*, %"class.WTF::Vector"*, %"class.base::OnceCallback.8"*)*, void (%"class.blink::test::mojom::blink::VirtualAuthenticator"*, %"class.WTF::Vector"*, %"class.base::OnceCallback.8"*)** %15, i64 5
  %17 = load void (%"class.blink::test::mojom::blink::VirtualAuthenticator"*, %"class.WTF::Vector"*, %"class.base::OnceCallback.8"*)*, void (%"class.blink::test::mojom::blink::VirtualAuthenticator"*, %"class.WTF::Vector"*, %"class.base::OnceCallback.8"*)** %16, align 8
  call void %17(%"class.blink::test::mojom::blink::VirtualAuthenticator"* %9, %"class.WTF::Vector"* dereferenceable(16) %1, %"class.base::OnceCallback.8"* nonnull %4) #11
  %18 = getelementptr inbounds %"class.base::OnceCallback.8", %"class.base::OnceCallback.8"* %4, i64 0, i32 0
  call void @_ZN4base8internal12CallbackBaseD2Ev(%"class.base::internal::CallbackBase"* nonnull %18) #11
  ret void
}

; Function Attrs: nounwind ssp uwtable
define hidden void @_ZN5blink4test5mojom5blink41VirtualAuthenticatorInterceptorForTesting18ClearRegistrationsEN4base12OnceCallbackIFvvEEE(%"class.blink::test::mojom::blink::VirtualAuthenticatorInterceptorForTesting"*, %"class.base::OnceCallback.10"* nocapture) unnamed_addr #0 align 2 {
  %3 = alloca %"class.base::OnceCallback.10", align 8
  %4 = bitcast %"class.blink::test::mojom::blink::VirtualAuthenticatorInterceptorForTesting"* %0 to %"class.blink::test::mojom::blink::VirtualAuthenticator"* (%"class.blink::test::mojom::blink::VirtualAuthenticatorInterceptorForTesting"*)***
  %5 = load %"class.blink::test::mojom::blink::VirtualAuthenticator"* (%"class.blink::test::mojom::blink::VirtualAuthenticatorInterceptorForTesting"*)**, %"class.blink::test::mojom::blink::VirtualAuthenticator"* (%"class.blink::test::mojom::blink::VirtualAuthenticatorInterceptorForTesting"*)*** %4, align 8
  %6 = getelementptr inbounds %"class.blink::test::mojom::blink::VirtualAuthenticator"* (%"class.blink::test::mojom::blink::VirtualAuthenticatorInterceptorForTesting"*)*, %"class.blink::test::mojom::blink::VirtualAuthenticator"* (%"class.blink::test::mojom::blink::VirtualAuthenticatorInterceptorForTesting"*)** %5, i64 10
  %7 = load %"class.blink::test::mojom::blink::VirtualAuthenticator"* (%"class.blink::test::mojom::blink::VirtualAuthenticatorInterceptorForTesting"*)*, %"class.blink::test::mojom::blink::VirtualAuthenticator"* (%"class.blink::test::mojom::blink::VirtualAuthenticatorInterceptorForTesting"*)** %6, align 8
  %8 = tail call %"class.blink::test::mojom::blink::VirtualAuthenticator"* %7(%"class.blink::test::mojom::blink::VirtualAuthenticatorInterceptorForTesting"* %0) #11
  %9 = getelementptr inbounds %"class.base::OnceCallback.10", %"class.base::OnceCallback.10"* %1, i64 0, i32 0, i32 0, i32 0
  %10 = bitcast %"class.base::OnceCallback.10"* %1 to i64*
  %11 = load i64, i64* %10, align 8
  %12 = bitcast %"class.base::OnceCallback.10"* %3 to i64*
  store i64 %11, i64* %12, align 8
  store %"class.base::internal::BindStateBase"* null, %"class.base::internal::BindStateBase"** %9, align 8
  %13 = bitcast %"class.blink::test::mojom::blink::VirtualAuthenticator"* %8 to void (%"class.blink::test::mojom::blink::VirtualAuthenticator"*, %"class.base::OnceCallback.10"*)***
  %14 = load void (%"class.blink::test::mojom::blink::VirtualAuthenticator"*, %"class.base::OnceCallback.10"*)**, void (%"class.blink::test::mojom::blink::VirtualAuthenticator"*, %"class.base::OnceCallback.10"*)*** %13, align 8
  %15 = getelementptr inbounds void (%"class.blink::test::mojom::blink::VirtualAuthenticator"*, %"class.base::OnceCallback.10"*)*, void (%"class.blink::test::mojom::blink::VirtualAuthenticator"*, %"class.base::OnceCallback.10"*)** %14, i64 6
  %16 = load void (%"class.blink::test::mojom::blink::VirtualAuthenticator"*, %"class.base::OnceCallback.10"*)*, void (%"class.blink::test::mojom::blink::VirtualAuthenticator"*, %"class.base::OnceCallback.10"*)** %15, align 8
  call void %16(%"class.blink::test::mojom::blink::VirtualAuthenticator"* %8, %"class.base::OnceCallback.10"* nonnull %3) #11
  %17 = getelementptr inbounds %"class.base::OnceCallback.10", %"class.base::OnceCallback.10"* %3, i64 0, i32 0
  call void @_ZN4base8internal12CallbackBaseD2Ev(%"class.base::internal::CallbackBase"* nonnull %17) #11
  ret void
}

; Function Attrs: nounwind ssp uwtable
define hidden void @_ZN5blink4test5mojom5blink41VirtualAuthenticatorInterceptorForTesting12GetLargeBlobERKN3WTF6VectorIhLj0ENS4_18PartitionAllocatorEEEN4base12OnceCallbackIFvRKN4absl8optionalIS7_EEEEE(%"class.blink::test::mojom::blink::VirtualAuthenticatorInterceptorForTesting"*, %"class.WTF::Vector"* dereferenceable(16), %"class.base::OnceCallback.11"* nocapture) unnamed_addr #0 align 2 {
  %4 = alloca %"class.base::OnceCallback.11", align 8
  %5 = bitcast %"class.blink::test::mojom::blink::VirtualAuthenticatorInterceptorForTesting"* %0 to %"class.blink::test::mojom::blink::VirtualAuthenticator"* (%"class.blink::test::mojom::blink::VirtualAuthenticatorInterceptorForTesting"*)***
  %6 = load %"class.blink::test::mojom::blink::VirtualAuthenticator"* (%"class.blink::test::mojom::blink::VirtualAuthenticatorInterceptorForTesting"*)**, %"class.blink::test::mojom::blink::VirtualAuthenticator"* (%"class.blink::test::mojom::blink::VirtualAuthenticatorInterceptorForTesting"*)*** %5, align 8
  %7 = getelementptr inbounds %"class.blink::test::mojom::blink::VirtualAuthenticator"* (%"class.blink::test::mojom::blink::VirtualAuthenticatorInterceptorForTesting"*)*, %"class.blink::test::mojom::blink::VirtualAuthenticator"* (%"class.blink::test::mojom::blink::VirtualAuthenticatorInterceptorForTesting"*)** %6, i64 10
  %8 = load %"class.blink::test::mojom::blink::VirtualAuthenticator"* (%"class.blink::test::mojom::blink::VirtualAuthenticatorInterceptorForTesting"*)*, %"class.blink::test::mojom::blink::VirtualAuthenticator"* (%"class.blink::test::mojom::blink::VirtualAuthenticatorInterceptorForTesting"*)** %7, align 8
  %9 = tail call %"class.blink::test::mojom::blink::VirtualAuthenticator"* %8(%"class.blink::test::mojom::blink::VirtualAuthenticatorInterceptorForTesting"* %0) #11
  %10 = getelementptr inbounds %"class.base::OnceCallback.11", %"class.base::OnceCallback.11"* %2, i64 0, i32 0, i32 0, i32 0
  %11 = bitcast %"class.base::OnceCallback.11"* %2 to i64*
  %12 = load i64, i64* %11, align 8
  %13 = bitcast %"class.base::OnceCallback.11"* %4 to i64*
  store i64 %12, i64* %13, align 8
  store %"class.base::internal::BindStateBase"* null, %"class.base::internal::BindStateBase"** %10, align 8
  %14 = bitcast %"class.blink::test::mojom::blink::VirtualAuthenticator"* %9 to void (%"class.blink::test::mojom::blink::VirtualAuthenticator"*, %"class.WTF::Vector"*, %"class.base::OnceCallback.11"*)***
  %15 = load void (%"class.blink::test::mojom::blink::VirtualAuthenticator"*, %"class.WTF::Vector"*, %"class.base::OnceCallback.11"*)**, void (%"class.blink::test::mojom::blink::VirtualAuthenticator"*, %"class.WTF::Vector"*, %"class.base::OnceCallback.11"*)*** %14, align 8
  %16 = getelementptr inbounds void (%"class.blink::test::mojom::blink::VirtualAuthenticator"*, %"class.WTF::Vector"*, %"class.base::OnceCallback.11"*)*, void (%"class.blink::test::mojom::blink::VirtualAuthenticator"*, %"class.WTF::Vector"*, %"class.base::OnceCallback.11"*)** %15, i64 7
  %17 = load void (%"class.blink::test::mojom::blink::VirtualAuthenticator"*, %"class.WTF::Vector"*, %"class.base::OnceCallback.11"*)*, void (%"class.blink::test::mojom::blink::VirtualAuthenticator"*, %"class.WTF::Vector"*, %"class.base::OnceCallback.11"*)** %16, align 8
  call void %17(%"class.blink::test::mojom::blink::VirtualAuthenticator"* %9, %"class.WTF::Vector"* dereferenceable(16) %1, %"class.base::OnceCallback.11"* nonnull %4) #11
  %18 = getelementptr inbounds %"class.base::OnceCallback.11", %"class.base::OnceCallback.11"* %4, i64 0, i32 0
  call void @_ZN4base8internal12CallbackBaseD2Ev(%"class.base::internal::CallbackBase"* nonnull %18) #11
  ret void
}

; Function Attrs: nounwind
declare void @_ZN4base8internal12CallbackBaseD2Ev(%"class.base::internal::CallbackBase"*) unnamed_addr #1

; Function Attrs: nounwind ssp uwtable
define hidden void @_ZN5blink4test5mojom5blink41VirtualAuthenticatorInterceptorForTesting12SetLargeBlobERKN3WTF6VectorIhLj0ENS4_18PartitionAllocatorEEES9_N4base12OnceCallbackIFvbEEE(%"class.blink::test::mojom::blink::VirtualAuthenticatorInterceptorForTesting"*, %"class.WTF::Vector"* dereferenceable(16), %"class.WTF::Vector"* dereferenceable(16), %"class.base::OnceCallback.8"* nocapture) unnamed_addr #0 align 2 {
  %5 = alloca %"class.base::OnceCallback.8", align 8
  %6 = bitcast %"class.blink::test::mojom::blink::VirtualAuthenticatorInterceptorForTesting"* %0 to %"class.blink::test::mojom::blink::VirtualAuthenticator"* (%"class.blink::test::mojom::blink::VirtualAuthenticatorInterceptorForTesting"*)***
  %7 = load %"class.blink::test::mojom::blink::VirtualAuthenticator"* (%"class.blink::test::mojom::blink::VirtualAuthenticatorInterceptorForTesting"*)**, %"class.blink::test::mojom::blink::VirtualAuthenticator"* (%"class.blink::test::mojom::blink::VirtualAuthenticatorInterceptorForTesting"*)*** %6, align 8
  %8 = getelementptr inbounds %"class.blink::test::mojom::blink::VirtualAuthenticator"* (%"class.blink::test::mojom::blink::VirtualAuthenticatorInterceptorForTesting"*)*, %"class.blink::test::mojom::blink::VirtualAuthenticator"* (%"class.blink::test::mojom::blink::VirtualAuthenticatorInterceptorForTesting"*)** %7, i64 10
  %9 = load %"class.blink::test::mojom::blink::VirtualAuthenticator"* (%"class.blink::test::mojom::blink::VirtualAuthenticatorInterceptorForTesting"*)*, %"class.blink::test::mojom::blink::VirtualAuthenticator"* (%"class.blink::test::mojom::blink::VirtualAuthenticatorInterceptorForTesting"*)** %8, align 8
  %10 = tail call %"class.blink::test::mojom::blink::VirtualAuthenticator"* %9(%"class.blink::test::mojom::blink::VirtualAuthenticatorInterceptorForTesting"* %0) #11
  %11 = getelementptr inbounds %"class.base::OnceCallback.8", %"class.base::OnceCallback.8"* %3, i64 0, i32 0, i32 0, i32 0
  %12 = bitcast %"class.base::OnceCallback.8"* %3 to i64*
  %13 = load i64, i64* %12, align 8
  %14 = bitcast %"class.base::OnceCallback.8"* %5 to i64*
  store i64 %13, i64* %14, align 8
  store %"class.base::internal::BindStateBase"* null, %"class.base::internal::BindStateBase"** %11, align 8
  %15 = bitcast %"class.blink::test::mojom::blink::VirtualAuthenticator"* %10 to void (%"class.blink::test::mojom::blink::VirtualAuthenticator"*, %"class.WTF::Vector"*, %"class.WTF::Vector"*, %"class.base::OnceCallback.8"*)***
  %16 = load void (%"class.blink::test::mojom::blink::VirtualAuthenticator"*, %"class.WTF::Vector"*, %"class.WTF::Vector"*, %"class.base::OnceCallback.8"*)**, void (%"class.blink::test::mojom::blink::VirtualAuthenticator"*, %"class.WTF::Vector"*, %"class.WTF::Vector"*, %"class.base::OnceCallback.8"*)*** %15, align 8
  %17 = getelementptr inbounds void (%"class.blink::test::mojom::blink::VirtualAuthenticator"*, %"class.WTF::Vector"*, %"class.WTF::Vector"*, %"class.base::OnceCallback.8"*)*, void (%"class.blink::test::mojom::blink::VirtualAuthenticator"*, %"class.WTF::Vector"*, %"class.WTF::Vector"*, %"class.base::OnceCallback.8"*)** %16, i64 8
  %18 = load void (%"class.blink::test::mojom::blink::VirtualAuthenticator"*, %"class.WTF::Vector"*, %"class.WTF::Vector"*, %"class.base::OnceCallback.8"*)*, void (%"class.blink::test::mojom::blink::VirtualAuthenticator"*, %"class.WTF::Vector"*, %"class.WTF::Vector"*, %"class.base::OnceCallback.8"*)** %17, align 8
  call void %18(%"class.blink::test::mojom::blink::VirtualAuthenticator"* %10, %"class.WTF::Vector"* dereferenceable(16) %1, %"class.WTF::Vector"* dereferenceable(16) %2, %"class.base::OnceCallback.8"* nonnull %5) #11
  %19 = getelementptr inbounds %"class.base::OnceCallback.8", %"class.base::OnceCallback.8"* %5, i64 0, i32 0
  call void @_ZN4base8internal12CallbackBaseD2Ev(%"class.base::internal::CallbackBase"* nonnull %19) #11
  ret void
}

; Function Attrs: nounwind ssp uwtable
define hidden void @_ZN5blink4test5mojom5blink41VirtualAuthenticatorInterceptorForTesting15SetUserVerifiedEbN4base12OnceCallbackIFvvEEE(%"class.blink::test::mojom::blink::VirtualAuthenticatorInterceptorForTesting"*, i1 zeroext, %"class.base::OnceCallback.10"* nocapture) unnamed_addr #0 align 2 {
  %4 = alloca %"class.base::OnceCallback.10", align 8
  %5 = bitcast %"class.blink::test::mojom::blink::VirtualAuthenticatorInterceptorForTesting"* %0 to %"class.blink::test::mojom::blink::VirtualAuthenticator"* (%"class.blink::test::mojom::blink::VirtualAuthenticatorInterceptorForTesting"*)***
  %6 = load %"class.blink::test::mojom::blink::VirtualAuthenticator"* (%"class.blink::test::mojom::blink::VirtualAuthenticatorInterceptorForTesting"*)**, %"class.blink::test::mojom::blink::VirtualAuthenticator"* (%"class.blink::test::mojom::blink::VirtualAuthenticatorInterceptorForTesting"*)*** %5, align 8
  %7 = getelementptr inbounds %"class.blink::test::mojom::blink::VirtualAuthenticator"* (%"class.blink::test::mojom::blink::VirtualAuthenticatorInterceptorForTesting"*)*, %"class.blink::test::mojom::blink::VirtualAuthenticator"* (%"class.blink::test::mojom::blink::VirtualAuthenticatorInterceptorForTesting"*)** %6, i64 10
  %8 = load %"class.blink::test::mojom::blink::VirtualAuthenticator"* (%"class.blink::test::mojom::blink::VirtualAuthenticatorInterceptorForTesting"*)*, %"class.blink::test::mojom::blink::VirtualAuthenticator"* (%"class.blink::test::mojom::blink::VirtualAuthenticatorInterceptorForTesting"*)** %7, align 8
  %9 = tail call %"class.blink::test::mojom::blink::VirtualAuthenticator"* %8(%"class.blink::test::mojom::blink::VirtualAuthenticatorInterceptorForTesting"* %0) #11
  %10 = getelementptr inbounds %"class.base::OnceCallback.10", %"class.base::OnceCallback.10"* %2, i64 0, i32 0, i32 0, i32 0
  %11 = bitcast %"class.base::OnceCallback.10"* %2 to i64*
  %12 = load i64, i64* %11, align 8
  %13 = bitcast %"class.base::OnceCallback.10"* %4 to i64*
  store i64 %12, i64* %13, align 8
  store %"class.base::internal::BindStateBase"* null, %"class.base::internal::BindStateBase"** %10, align 8
  %14 = bitcast %"class.blink::test::mojom::blink::VirtualAuthenticator"* %9 to void (%"class.blink::test::mojom::blink::VirtualAuthenticator"*, i1, %"class.base::OnceCallback.10"*)***
  %15 = load void (%"class.blink::test::mojom::blink::VirtualAuthenticator"*, i1, %"class.base::OnceCallback.10"*)**, void (%"class.blink::test::mojom::blink::VirtualAuthenticator"*, i1, %"class.base::OnceCallback.10"*)*** %14, align 8
  %16 = getelementptr inbounds void (%"class.blink::test::mojom::blink::VirtualAuthenticator"*, i1, %"class.base::OnceCallback.10"*)*, void (%"class.blink::test::mojom::blink::VirtualAuthenticator"*, i1, %"class.base::OnceCallback.10"*)** %15, i64 9
  %17 = load void (%"class.blink::test::mojom::blink::VirtualAuthenticator"*, i1, %"class.base::OnceCallback.10"*)*, void (%"class.blink::test::mojom::blink::VirtualAuthenticator"*, i1, %"class.base::OnceCallback.10"*)** %16, align 8
  call void %17(%"class.blink::test::mojom::blink::VirtualAuthenticator"* %9, i1 zeroext %1, %"class.base::OnceCallback.10"* nonnull %4) #11
  %18 = getelementptr inbounds %"class.base::OnceCallback.10", %"class.base::OnceCallback.10"* %4, i64 0, i32 0
  call void @_ZN4base8internal12CallbackBaseD2Ev(%"class.base::internal::CallbackBase"* nonnull %18) #11
  ret void
}

; Function Attrs: nofree norecurse nounwind ssp uwtable writeonly
define hidden void @_ZN5blink4test5mojom5blink31VirtualAuthenticatorAsyncWaiterC2EPNS2_20VirtualAuthenticatorE(%"class.blink::test::mojom::blink::VirtualAuthenticatorAsyncWaiter"* nocapture, %"class.blink::test::mojom::blink::VirtualAuthenticator"*) unnamed_addr #2 align 2 {
  %3 = getelementptr inbounds %"class.blink::test::mojom::blink::VirtualAuthenticatorAsyncWaiter", %"class.blink::test::mojom::blink::VirtualAuthenticatorAsyncWaiter"* %0, i64 0, i32 0
  store %"class.blink::test::mojom::blink::VirtualAuthenticator"* %1, %"class.blink::test::mojom::blink::VirtualAuthenticator"** %3, align 8
  ret void
}

; Function Attrs: norecurse nounwind readnone ssp uwtable
define hidden void @_ZN5blink4test5mojom5blink31VirtualAuthenticatorAsyncWaiterD2Ev(%"class.blink::test::mojom::blink::VirtualAuthenticatorAsyncWaiter"* nocapture) unnamed_addr #3 align 2 {
  ret void
}

; Function Attrs: nounwind ssp uwtable
define hidden void @_ZN5blink4test5mojom5blink31VirtualAuthenticatorAsyncWaiter11GetUniqueIdEPN3WTF6StringE(%"class.blink::test::mojom::blink::VirtualAuthenticatorAsyncWaiter"* nocapture readonly, %"class.WTF::String"*) local_unnamed_addr #0 align 2 {
  %3 = alloca %"class.base::RunLoop", align 8
  %4 = alloca %"class.base::OnceCallback", align 8
  %5 = alloca %"class.base::Location", align 8
  %6 = ptrtoint %"class.WTF::String"* %1 to i64
  %7 = bitcast %"class.base::RunLoop"* %3 to i8*
  call void @llvm.lifetime.start.p0i8(i64 48, i8* nonnull %7) #11
  call void @llvm.memset.p0i8.i64(i8* nonnull align 8 %7, i8 -86, i64 48, i1 false)
  call void @_ZN4base7RunLoopC1ENS0_4TypeE(%"class.base::RunLoop"* nonnull %3, i32 0) #11
  %8 = getelementptr inbounds %"class.blink::test::mojom::blink::VirtualAuthenticatorAsyncWaiter", %"class.blink::test::mojom::blink::VirtualAuthenticatorAsyncWaiter"* %0, i64 0, i32 0
  %9 = load %"class.blink::test::mojom::blink::VirtualAuthenticator"*, %"class.blink::test::mojom::blink::VirtualAuthenticator"** %8, align 8
  %10 = ptrtoint %"class.base::RunLoop"* %3 to i64
  %11 = call i8* @_Znwm(i64 56) #12, !noalias !2
  %12 = bitcast i8* %11 to %"class.base::internal::BindStateBase"*
  call void @_ZN4base8internal13BindStateBaseC2EPFvvEPFvPKS1_E(%"class.base::internal::BindStateBase"* nonnull %12, void ()* bitcast (void (%"class.base::internal::BindStateBase"*, %"class.WTF::String"*)* @"_ZN4base8internal7InvokerINS0_9BindStateIZN5blink4test5mojom5blink31VirtualAuthenticatorAsyncWaiter11GetUniqueIdEPN3WTF6StringEE3$_0JPNS_7RunLoopESA_EEEFvRKS9_EE7RunOnceEPNS0_13BindStateBaseESG_" to void ()*), void (%"class.base::internal::BindStateBase"*)* nonnull @"_ZN4base8internal9BindStateIZN5blink4test5mojom5blink31VirtualAuthenticatorAsyncWaiter11GetUniqueIdEPN3WTF6StringEE3$_0JPNS_7RunLoopES9_EE7DestroyEPKNS0_13BindStateBaseE") #11, !noalias !2
  %13 = getelementptr inbounds i8, i8* %11, i64 40
  %14 = bitcast i8* %13 to i64*
  store i64 %10, i64* %14, align 8, !noalias !2
  %15 = getelementptr inbounds i8, i8* %11, i64 48
  %16 = bitcast i8* %15 to i64*
  store i64 %6, i64* %16, align 8, !noalias !2
  %17 = bitcast %"class.base::OnceCallback"* %4 to i8**
  store i8* %11, i8** %17, align 8, !alias.scope !2
  %18 = bitcast %"class.blink::test::mojom::blink::VirtualAuthenticator"* %9 to void (%"class.blink::test::mojom::blink::VirtualAuthenticator"*, %"class.base::OnceCallback"*)***
  %19 = load void (%"class.blink::test::mojom::blink::VirtualAuthenticator"*, %"class.base::OnceCallback"*)**, void (%"class.blink::test::mojom::blink::VirtualAuthenticator"*, %"class.base::OnceCallback"*)*** %18, align 8
  %20 = getelementptr inbounds void (%"class.blink::test::mojom::blink::VirtualAuthenticator"*, %"class.base::OnceCallback"*)*, void (%"class.blink::test::mojom::blink::VirtualAuthenticator"*, %"class.base::OnceCallback"*)** %19, i64 2
  %21 = load void (%"class.blink::test::mojom::blink::VirtualAuthenticator"*, %"class.base::OnceCallback"*)*, void (%"class.blink::test::mojom::blink::VirtualAuthenticator"*, %"class.base::OnceCallback"*)** %20, align 8
  call void %21(%"class.blink::test::mojom::blink::VirtualAuthenticator"* %9, %"class.base::OnceCallback"* nonnull %4) #11
  %22 = getelementptr inbounds %"class.base::OnceCallback", %"class.base::OnceCallback"* %4, i64 0, i32 0
  call void @_ZN4base8internal12CallbackBaseD2Ev(%"class.base::internal::CallbackBase"* nonnull %22) #11
  %23 = bitcast %"class.base::Location"* %5 to i8*
  call void @llvm.lifetime.start.p0i8(i64 32, i8* nonnull %23) #11
  call void @_ZN4base8Location7CurrentEPKcS2_i(%"class.base::Location"* nonnull sret %5, i8* getelementptr inbounds ([12 x i8], [12 x i8]* @.str, i64 0, i64 0), i8* getelementptr inbounds ([92 x i8], [92 x i8]* @.str.1, i64 0, i64 0), i32 77) #11
  call void @_ZN4base7RunLoop3RunERKNS_8LocationE(%"class.base::RunLoop"* nonnull %3, %"class.base::Location"* nonnull dereferenceable(32) %5) #11
  call void @llvm.lifetime.end.p0i8(i64 32, i8* nonnull %23) #11
  call void @_ZN4base7RunLoopD1Ev(%"class.base::RunLoop"* nonnull %3) #11
  call void @llvm.lifetime.end.p0i8(i64 48, i8* nonnull %7) #11
  ret void
}

; Function Attrs: argmemonly nounwind
declare void @llvm.lifetime.start.p0i8(i64 immarg, i8* nocapture) #4

; Function Attrs: argmemonly nounwind
declare void @llvm.memset.p0i8.i64(i8* nocapture writeonly, i8, i64, i1 immarg) #4

declare void @_ZN4base7RunLoopC1ENS0_4TypeE(%"class.base::RunLoop"*, i32) unnamed_addr #5

; Function Attrs: argmemonly nounwind
declare void @llvm.lifetime.end.p0i8(i64 immarg, i8* nocapture) #4

declare void @_ZN4base7RunLoop3RunERKNS_8LocationE(%"class.base::RunLoop"*, %"class.base::Location"* dereferenceable(32)) local_unnamed_addr #5

declare void @_ZN4base8Location7CurrentEPKcS2_i(%"class.base::Location"* sret, i8*, i8*, i32) local_unnamed_addr #5

; Function Attrs: nounwind
declare void @_ZN4base7RunLoopD1Ev(%"class.base::RunLoop"*) unnamed_addr #1

; Function Attrs: nounwind ssp uwtable
define hidden void @_ZN5blink4test5mojom5blink31VirtualAuthenticatorAsyncWaiter15AddRegistrationEN4mojo9StructPtrINS2_13RegisteredKeyEEEPb(%"class.blink::test::mojom::blink::VirtualAuthenticatorAsyncWaiter"* nocapture readonly, %"class.mojo::StructPtr"* nocapture, i8*) local_unnamed_addr #0 align 2 {
  %4 = alloca %"class.base::RunLoop", align 8
  %5 = alloca %"class.mojo::StructPtr", align 8
  %6 = alloca %"class.base::OnceCallback.8", align 8
  %7 = alloca %"class.base::Location", align 8
  %8 = ptrtoint i8* %2 to i64
  %9 = bitcast %"class.base::RunLoop"* %4 to i8*
  call void @llvm.lifetime.start.p0i8(i64 48, i8* nonnull %9) #11
  call void @llvm.memset.p0i8.i64(i8* nonnull align 8 %9, i8 -86, i64 48, i1 false)
  call void @_ZN4base7RunLoopC1ENS0_4TypeE(%"class.base::RunLoop"* nonnull %4, i32 0) #11
  %10 = getelementptr inbounds %"class.blink::test::mojom::blink::VirtualAuthenticatorAsyncWaiter", %"class.blink::test::mojom::blink::VirtualAuthenticatorAsyncWaiter"* %0, i64 0, i32 0
  %11 = load %"class.blink::test::mojom::blink::VirtualAuthenticator"*, %"class.blink::test::mojom::blink::VirtualAuthenticator"** %10, align 8
  %12 = bitcast %"class.mojo::StructPtr"* %5 to i64*
  %13 = getelementptr inbounds %"class.mojo::StructPtr", %"class.mojo::StructPtr"* %5, i64 0, i32 0, i32 0, i32 0, i32 0
  %14 = bitcast %"class.mojo::StructPtr"* %1 to i64*
  %15 = load i64, i64* %14, align 8
  store i64 %15, i64* %12, align 8
  store i64 0, i64* %14, align 8
  %16 = ptrtoint %"class.base::RunLoop"* %4 to i64
  %17 = call i8* @_Znwm(i64 56) #12, !noalias !7
  %18 = bitcast i8* %17 to %"class.base::internal::BindStateBase"*
  call void @_ZN4base8internal13BindStateBaseC2EPFvvEPFvPKS1_E(%"class.base::internal::BindStateBase"* nonnull %18, void ()* bitcast (void (%"class.base::internal::BindStateBase"*, i1)* @"_ZN4base8internal7InvokerINS0_9BindStateIZN5blink4test5mojom5blink31VirtualAuthenticatorAsyncWaiter15AddRegistrationEN4mojo9StructPtrINS6_13RegisteredKeyEEEPbE3$_1JPNS_7RunLoopESC_EEEFvbEE7RunOnceEPNS0_13BindStateBaseEb" to void ()*), void (%"class.base::internal::BindStateBase"*)* nonnull @"_ZN4base8internal9BindStateIZN5blink4test5mojom5blink31VirtualAuthenticatorAsyncWaiter15AddRegistrationEN4mojo9StructPtrINS5_13RegisteredKeyEEEPbE3$_1JPNS_7RunLoopESB_EE7DestroyEPKNS0_13BindStateBaseE") #11, !noalias !7
  %19 = getelementptr inbounds i8, i8* %17, i64 40
  %20 = bitcast i8* %19 to i64*
  store i64 %16, i64* %20, align 8, !noalias !7
  %21 = getelementptr inbounds i8, i8* %17, i64 48
  %22 = bitcast i8* %21 to i64*
  store i64 %8, i64* %22, align 8, !noalias !7
  %23 = bitcast %"class.base::OnceCallback.8"* %6 to i8**
  store i8* %17, i8** %23, align 8, !alias.scope !7
  %24 = bitcast %"class.blink::test::mojom::blink::VirtualAuthenticator"* %11 to void (%"class.blink::test::mojom::blink::VirtualAuthenticator"*, %"class.mojo::StructPtr"*, %"class.base::OnceCallback.8"*)***
  %25 = load void (%"class.blink::test::mojom::blink::VirtualAuthenticator"*, %"class.mojo::StructPtr"*, %"class.base::OnceCallback.8"*)**, void (%"class.blink::test::mojom::blink::VirtualAuthenticator"*, %"class.mojo::StructPtr"*, %"class.base::OnceCallback.8"*)*** %24, align 8
  %26 = getelementptr inbounds void (%"class.blink::test::mojom::blink::VirtualAuthenticator"*, %"class.mojo::StructPtr"*, %"class.base::OnceCallback.8"*)*, void (%"class.blink::test::mojom::blink::VirtualAuthenticator"*, %"class.mojo::StructPtr"*, %"class.base::OnceCallback.8"*)** %25, i64 3
  %27 = load void (%"class.blink::test::mojom::blink::VirtualAuthenticator"*, %"class.mojo::StructPtr"*, %"class.base::OnceCallback.8"*)*, void (%"class.blink::test::mojom::blink::VirtualAuthenticator"*, %"class.mojo::StructPtr"*, %"class.base::OnceCallback.8"*)** %26, align 8
  call void %27(%"class.blink::test::mojom::blink::VirtualAuthenticator"* %11, %"class.mojo::StructPtr"* nonnull %5, %"class.base::OnceCallback.8"* nonnull %6) #11
  %28 = getelementptr inbounds %"class.base::OnceCallback.8", %"class.base::OnceCallback.8"* %6, i64 0, i32 0
  call void @_ZN4base8internal12CallbackBaseD2Ev(%"class.base::internal::CallbackBase"* nonnull %28) #11
  %29 = load %"class.blink::test::mojom::blink::RegisteredKey"*, %"class.blink::test::mojom::blink::RegisteredKey"** %13, align 8
  store %"class.blink::test::mojom::blink::RegisteredKey"* null, %"class.blink::test::mojom::blink::RegisteredKey"** %13, align 8
  %30 = icmp eq %"class.blink::test::mojom::blink::RegisteredKey"* %29, null
  br i1 %30, label %33, label %31

31:                                               ; preds = %3
  call void @_ZN5blink4test5mojom5blink13RegisteredKeyD1Ev(%"class.blink::test::mojom::blink::RegisteredKey"* nonnull %29) #11
  %32 = bitcast %"class.blink::test::mojom::blink::RegisteredKey"* %29 to i8*
  call void @_ZdlPv(i8* %32) #12
  br label %33

33:                                               ; preds = %3, %31
  %34 = bitcast %"class.base::Location"* %7 to i8*
  call void @llvm.lifetime.start.p0i8(i64 32, i8* nonnull %34) #11
  call void @_ZN4base8Location7CurrentEPKcS2_i(%"class.base::Location"* nonnull sret %7, i8* getelementptr inbounds ([16 x i8], [16 x i8]* @.str.2, i64 0, i64 0), i8* getelementptr inbounds ([92 x i8], [92 x i8]* @.str.1, i64 0, i64 0), i32 92) #11
  call void @_ZN4base7RunLoop3RunERKNS_8LocationE(%"class.base::RunLoop"* nonnull %4, %"class.base::Location"* nonnull dereferenceable(32) %7) #11
  call void @llvm.lifetime.end.p0i8(i64 32, i8* nonnull %34) #11
  call void @_ZN4base7RunLoopD1Ev(%"class.base::RunLoop"* nonnull %4) #11
  call void @llvm.lifetime.end.p0i8(i64 48, i8* nonnull %9) #11
  ret void
}

; Function Attrs: nounwind ssp uwtable
define hidden void @_ZN5blink4test5mojom5blink31VirtualAuthenticatorAsyncWaiter16GetRegistrationsEPN3WTF6VectorIN4mojo9StructPtrINS2_13RegisteredKeyEEELj0ENS4_18PartitionAllocatorEEE(%"class.blink::test::mojom::blink::VirtualAuthenticatorAsyncWaiter"* nocapture readonly, %"class.WTF::Vector.33"*) local_unnamed_addr #0 align 2 {
  %3 = alloca %"class.base::RunLoop", align 8
  %4 = alloca %"class.base::OnceCallback.9", align 8
  %5 = alloca %"class.base::Location", align 8
  %6 = ptrtoint %"class.WTF::Vector.33"* %1 to i64
  %7 = bitcast %"class.base::RunLoop"* %3 to i8*
  call void @llvm.lifetime.start.p0i8(i64 48, i8* nonnull %7) #11
  call void @llvm.memset.p0i8.i64(i8* nonnull align 8 %7, i8 -86, i64 48, i1 false)
  call void @_ZN4base7RunLoopC1ENS0_4TypeE(%"class.base::RunLoop"* nonnull %3, i32 0) #11
  %8 = getelementptr inbounds %"class.blink::test::mojom::blink::VirtualAuthenticatorAsyncWaiter", %"class.blink::test::mojom::blink::VirtualAuthenticatorAsyncWaiter"* %0, i64 0, i32 0
  %9 = load %"class.blink::test::mojom::blink::VirtualAuthenticator"*, %"class.blink::test::mojom::blink::VirtualAuthenticator"** %8, align 8
  %10 = ptrtoint %"class.base::RunLoop"* %3 to i64
  %11 = call i8* @_Znwm(i64 56) #12, !noalias !12
  %12 = bitcast i8* %11 to %"class.base::internal::BindStateBase"*
  call void @_ZN4base8internal13BindStateBaseC2EPFvvEPFvPKS1_E(%"class.base::internal::BindStateBase"* nonnull %12, void ()* bitcast (void (%"class.base::internal::BindStateBase"*, %"class.WTF::Vector.33"*)* @"_ZN4base8internal7InvokerINS0_9BindStateIZN5blink4test5mojom5blink31VirtualAuthenticatorAsyncWaiter16GetRegistrationsEPN3WTF6VectorIN4mojo9StructPtrINS6_13RegisteredKeyEEELj0ENS8_18PartitionAllocatorEEEE3$_2JPNS_7RunLoopESG_EEEFvSF_EE7RunOnceEPNS0_13BindStateBaseEOSF_" to void ()*), void (%"class.base::internal::BindStateBase"*)* nonnull @"_ZN4base8internal9BindStateIZN5blink4test5mojom5blink31VirtualAuthenticatorAsyncWaiter16GetRegistrationsEPN3WTF6VectorIN4mojo9StructPtrINS5_13RegisteredKeyEEELj0ENS7_18PartitionAllocatorEEEE3$_2JPNS_7RunLoopESF_EE7DestroyEPKNS0_13BindStateBaseE") #11, !noalias !12
  %13 = getelementptr inbounds i8, i8* %11, i64 40
  %14 = bitcast i8* %13 to i64*
  store i64 %10, i64* %14, align 8, !noalias !12
  %15 = getelementptr inbounds i8, i8* %11, i64 48
  %16 = bitcast i8* %15 to i64*
  store i64 %6, i64* %16, align 8, !noalias !12
  %17 = bitcast %"class.base::OnceCallback.9"* %4 to i8**
  store i8* %11, i8** %17, align 8, !alias.scope !12
  %18 = bitcast %"class.blink::test::mojom::blink::VirtualAuthenticator"* %9 to void (%"class.blink::test::mojom::blink::VirtualAuthenticator"*, %"class.base::OnceCallback.9"*)***
  %19 = load void (%"class.blink::test::mojom::blink::VirtualAuthenticator"*, %"class.base::OnceCallback.9"*)**, void (%"class.blink::test::mojom::blink::VirtualAuthenticator"*, %"class.base::OnceCallback.9"*)*** %18, align 8
  %20 = getelementptr inbounds void (%"class.blink::test::mojom::blink::VirtualAuthenticator"*, %"class.base::OnceCallback.9"*)*, void (%"class.blink::test::mojom::blink::VirtualAuthenticator"*, %"class.base::OnceCallback.9"*)** %19, i64 4
  %21 = load void (%"class.blink::test::mojom::blink::VirtualAuthenticator"*, %"class.base::OnceCallback.9"*)*, void (%"class.blink::test::mojom::blink::VirtualAuthenticator"*, %"class.base::OnceCallback.9"*)** %20, align 8
  call void %21(%"class.blink::test::mojom::blink::VirtualAuthenticator"* %9, %"class.base::OnceCallback.9"* nonnull %4) #11
  %22 = getelementptr inbounds %"class.base::OnceCallback.9", %"class.base::OnceCallback.9"* %4, i64 0, i32 0
  call void @_ZN4base8internal12CallbackBaseD2Ev(%"class.base::internal::CallbackBase"* nonnull %22) #11
  %23 = bitcast %"class.base::Location"* %5 to i8*
  call void @llvm.lifetime.start.p0i8(i64 32, i8* nonnull %23) #11
  call void @_ZN4base8Location7CurrentEPKcS2_i(%"class.base::Location"* nonnull sret %5, i8* getelementptr inbounds ([17 x i8], [17 x i8]* @.str.3, i64 0, i64 0), i8* getelementptr inbounds ([92 x i8], [92 x i8]* @.str.1, i64 0, i64 0), i32 107) #11
  call void @_ZN4base7RunLoop3RunERKNS_8LocationE(%"class.base::RunLoop"* nonnull %3, %"class.base::Location"* nonnull dereferenceable(32) %5) #11
  call void @llvm.lifetime.end.p0i8(i64 32, i8* nonnull %23) #11
  call void @_ZN4base7RunLoopD1Ev(%"class.base::RunLoop"* nonnull %3) #11
  call void @llvm.lifetime.end.p0i8(i64 48, i8* nonnull %7) #11
  ret void
}

; Function Attrs: nounwind ssp uwtable
define hidden void @_ZN5blink4test5mojom5blink31VirtualAuthenticatorAsyncWaiter18RemoveRegistrationERKN3WTF6VectorIhLj0ENS4_18PartitionAllocatorEEEPb(%"class.blink::test::mojom::blink::VirtualAuthenticatorAsyncWaiter"* nocapture readonly, %"class.WTF::Vector"* dereferenceable(16), i8*) local_unnamed_addr #0 align 2 {
  %4 = alloca %"class.base::RunLoop", align 8
  %5 = alloca %"class.base::OnceCallback.8", align 8
  %6 = alloca %"class.base::Location", align 8
  %7 = ptrtoint i8* %2 to i64
  %8 = bitcast %"class.base::RunLoop"* %4 to i8*
  call void @llvm.lifetime.start.p0i8(i64 48, i8* nonnull %8) #11
  call void @llvm.memset.p0i8.i64(i8* nonnull align 8 %8, i8 -86, i64 48, i1 false)
  call void @_ZN4base7RunLoopC1ENS0_4TypeE(%"class.base::RunLoop"* nonnull %4, i32 0) #11
  %9 = getelementptr inbounds %"class.blink::test::mojom::blink::VirtualAuthenticatorAsyncWaiter", %"class.blink::test::mojom::blink::VirtualAuthenticatorAsyncWaiter"* %0, i64 0, i32 0
  %10 = load %"class.blink::test::mojom::blink::VirtualAuthenticator"*, %"class.blink::test::mojom::blink::VirtualAuthenticator"** %9, align 8
  %11 = ptrtoint %"class.base::RunLoop"* %4 to i64
  %12 = call i8* @_Znwm(i64 56) #12, !noalias !17
  %13 = bitcast i8* %12 to %"class.base::internal::BindStateBase"*
  call void @_ZN4base8internal13BindStateBaseC2EPFvvEPFvPKS1_E(%"class.base::internal::BindStateBase"* nonnull %13, void ()* bitcast (void (%"class.base::internal::BindStateBase"*, i1)* @"_ZN4base8internal7InvokerINS0_9BindStateIZN5blink4test5mojom5blink31VirtualAuthenticatorAsyncWaiter18RemoveRegistrationERKN3WTF6VectorIhLj0ENS8_18PartitionAllocatorEEEPbE3$_3JPNS_7RunLoopESE_EEEFvbEE7RunOnceEPNS0_13BindStateBaseEb" to void ()*), void (%"class.base::internal::BindStateBase"*)* nonnull @"_ZN4base8internal9BindStateIZN5blink4test5mojom5blink31VirtualAuthenticatorAsyncWaiter18RemoveRegistrationERKN3WTF6VectorIhLj0ENS7_18PartitionAllocatorEEEPbE3$_3JPNS_7RunLoopESD_EE7DestroyEPKNS0_13BindStateBaseE") #11, !noalias !17
  %14 = getelementptr inbounds i8, i8* %12, i64 40
  %15 = bitcast i8* %14 to i64*
  store i64 %11, i64* %15, align 8, !noalias !17
  %16 = getelementptr inbounds i8, i8* %12, i64 48
  %17 = bitcast i8* %16 to i64*
  store i64 %7, i64* %17, align 8, !noalias !17
  %18 = bitcast %"class.base::OnceCallback.8"* %5 to i8**
  store i8* %12, i8** %18, align 8, !alias.scope !17
  %19 = bitcast %"class.blink::test::mojom::blink::VirtualAuthenticator"* %10 to void (%"class.blink::test::mojom::blink::VirtualAuthenticator"*, %"class.WTF::Vector"*, %"class.base::OnceCallback.8"*)***
  %20 = load void (%"class.blink::test::mojom::blink::VirtualAuthenticator"*, %"class.WTF::Vector"*, %"class.base::OnceCallback.8"*)**, void (%"class.blink::test::mojom::blink::VirtualAuthenticator"*, %"class.WTF::Vector"*, %"class.base::OnceCallback.8"*)*** %19, align 8
  %21 = getelementptr inbounds void (%"class.blink::test::mojom::blink::VirtualAuthenticator"*, %"class.WTF::Vector"*, %"class.base::OnceCallback.8"*)*, void (%"class.blink::test::mojom::blink::VirtualAuthenticator"*, %"class.WTF::Vector"*, %"class.base::OnceCallback.8"*)** %20, i64 5
  %22 = load void (%"class.blink::test::mojom::blink::VirtualAuthenticator"*, %"class.WTF::Vector"*, %"class.base::OnceCallback.8"*)*, void (%"class.blink::test::mojom::blink::VirtualAuthenticator"*, %"class.WTF::Vector"*, %"class.base::OnceCallback.8"*)** %21, align 8
  call void %22(%"class.blink::test::mojom::blink::VirtualAuthenticator"* %10, %"class.WTF::Vector"* dereferenceable(16) %1, %"class.base::OnceCallback.8"* nonnull %5) #11
  %23 = getelementptr inbounds %"class.base::OnceCallback.8", %"class.base::OnceCallback.8"* %5, i64 0, i32 0
  call void @_ZN4base8internal12CallbackBaseD2Ev(%"class.base::internal::CallbackBase"* nonnull %23) #11
  %24 = bitcast %"class.base::Location"* %6 to i8*
  call void @llvm.lifetime.start.p0i8(i64 32, i8* nonnull %24) #11
  call void @_ZN4base8Location7CurrentEPKcS2_i(%"class.base::Location"* nonnull sret %6, i8* getelementptr inbounds ([19 x i8], [19 x i8]* @.str.4, i64 0, i64 0), i8* getelementptr inbounds ([92 x i8], [92 x i8]* @.str.1, i64 0, i64 0), i32 122) #11
  call void @_ZN4base7RunLoop3RunERKNS_8LocationE(%"class.base::RunLoop"* nonnull %4, %"class.base::Location"* nonnull dereferenceable(32) %6) #11
  call void @llvm.lifetime.end.p0i8(i64 32, i8* nonnull %24) #11
  call void @_ZN4base7RunLoopD1Ev(%"class.base::RunLoop"* nonnull %4) #11
  call void @llvm.lifetime.end.p0i8(i64 48, i8* nonnull %8) #11
  ret void
}

; Function Attrs: nounwind ssp uwtable
define hidden void @_ZN5blink4test5mojom5blink31VirtualAuthenticatorAsyncWaiter18ClearRegistrationsEv(%"class.blink::test::mojom::blink::VirtualAuthenticatorAsyncWaiter"* nocapture readonly) local_unnamed_addr #0 align 2 {
  %2 = alloca %"class.base::RunLoop", align 8
  %3 = alloca %"class.base::OnceCallback.10", align 8
  %4 = alloca %"class.base::Location", align 8
  %5 = bitcast %"class.base::RunLoop"* %2 to i8*
  call void @llvm.lifetime.start.p0i8(i64 48, i8* nonnull %5) #11
  call void @llvm.memset.p0i8.i64(i8* nonnull align 8 %5, i8 -86, i64 48, i1 false)
  call void @_ZN4base7RunLoopC1ENS0_4TypeE(%"class.base::RunLoop"* nonnull %2, i32 0) #11
  %6 = getelementptr inbounds %"class.blink::test::mojom::blink::VirtualAuthenticatorAsyncWaiter", %"class.blink::test::mojom::blink::VirtualAuthenticatorAsyncWaiter"* %0, i64 0, i32 0
  %7 = load %"class.blink::test::mojom::blink::VirtualAuthenticator"*, %"class.blink::test::mojom::blink::VirtualAuthenticator"** %6, align 8
  %8 = ptrtoint %"class.base::RunLoop"* %2 to i64
  %9 = call i8* @_Znwm(i64 48) #12, !noalias !22
  %10 = bitcast i8* %9 to %"class.base::internal::BindStateBase"*
  call void @_ZN4base8internal13BindStateBaseC2EPFvvEPFvPKS1_E(%"class.base::internal::BindStateBase"* nonnull %10, void ()* bitcast (void (%"class.base::internal::BindStateBase"*)* @"_ZN4base8internal7InvokerINS0_9BindStateIZN5blink4test5mojom5blink31VirtualAuthenticatorAsyncWaiter18ClearRegistrationsEvE3$_4JPNS_7RunLoopEEEEFvvEE7RunOnceEPNS0_13BindStateBaseE" to void ()*), void (%"class.base::internal::BindStateBase"*)* nonnull @"_ZN4base8internal9BindStateIZN5blink4test5mojom5blink31VirtualAuthenticatorAsyncWaiter18ClearRegistrationsEvE3$_4JPNS_7RunLoopEEE7DestroyEPKNS0_13BindStateBaseE") #11, !noalias !22
  %11 = getelementptr inbounds i8, i8* %9, i64 40
  %12 = bitcast i8* %11 to i64*
  store i64 %8, i64* %12, align 8, !noalias !22
  %13 = bitcast %"class.base::OnceCallback.10"* %3 to i8**
  store i8* %9, i8** %13, align 8, !alias.scope !22
  %14 = bitcast %"class.blink::test::mojom::blink::VirtualAuthenticator"* %7 to void (%"class.blink::test::mojom::blink::VirtualAuthenticator"*, %"class.base::OnceCallback.10"*)***
  %15 = load void (%"class.blink::test::mojom::blink::VirtualAuthenticator"*, %"class.base::OnceCallback.10"*)**, void (%"class.blink::test::mojom::blink::VirtualAuthenticator"*, %"class.base::OnceCallback.10"*)*** %14, align 8
  %16 = getelementptr inbounds void (%"class.blink::test::mojom::blink::VirtualAuthenticator"*, %"class.base::OnceCallback.10"*)*, void (%"class.blink::test::mojom::blink::VirtualAuthenticator"*, %"class.base::OnceCallback.10"*)** %15, i64 6
  %17 = load void (%"class.blink::test::mojom::blink::VirtualAuthenticator"*, %"class.base::OnceCallback.10"*)*, void (%"class.blink::test::mojom::blink::VirtualAuthenticator"*, %"class.base::OnceCallback.10"*)** %16, align 8
  call void %17(%"class.blink::test::mojom::blink::VirtualAuthenticator"* %7, %"class.base::OnceCallback.10"* nonnull %3) #11
  %18 = getelementptr inbounds %"class.base::OnceCallback.10", %"class.base::OnceCallback.10"* %3, i64 0, i32 0
  call void @_ZN4base8internal12CallbackBaseD2Ev(%"class.base::internal::CallbackBase"* nonnull %18) #11
  %19 = bitcast %"class.base::Location"* %4 to i8*
  call void @llvm.lifetime.start.p0i8(i64 32, i8* nonnull %19) #11
  call void @_ZN4base8Location7CurrentEPKcS2_i(%"class.base::Location"* nonnull sret %4, i8* getelementptr inbounds ([19 x i8], [19 x i8]* @.str.5, i64 0, i64 0), i8* getelementptr inbounds ([92 x i8], [92 x i8]* @.str.1, i64 0, i64 0), i32 133) #11
  call void @_ZN4base7RunLoop3RunERKNS_8LocationE(%"class.base::RunLoop"* nonnull %2, %"class.base::Location"* nonnull dereferenceable(32) %4) #11
  call void @llvm.lifetime.end.p0i8(i64 32, i8* nonnull %19) #11
  call void @_ZN4base7RunLoopD1Ev(%"class.base::RunLoop"* nonnull %2) #11
  call void @llvm.lifetime.end.p0i8(i64 48, i8* nonnull %5) #11
  ret void
}

; Function Attrs: nounwind ssp uwtable
define hidden void @_ZN5blink4test5mojom5blink31VirtualAuthenticatorAsyncWaiter12GetLargeBlobERKN3WTF6VectorIhLj0ENS4_18PartitionAllocatorEEEPN4absl8optionalIS7_EE(%"class.blink::test::mojom::blink::VirtualAuthenticatorAsyncWaiter"* nocapture readonly, %"class.WTF::Vector"* dereferenceable(16), %"class.absl::optional"*) local_unnamed_addr #0 align 2 {
  %4 = alloca %"class.base::RunLoop", align 8
  %5 = alloca %"class.base::OnceCallback.11", align 8
  %6 = alloca %"class.base::Location", align 8
  %7 = ptrtoint %"class.absl::optional"* %2 to i64
  %8 = bitcast %"class.base::RunLoop"* %4 to i8*
  call void @llvm.lifetime.start.p0i8(i64 48, i8* nonnull %8) #11
  call void @llvm.memset.p0i8.i64(i8* nonnull align 8 %8, i8 -86, i64 48, i1 false)
  call void @_ZN4base7RunLoopC1ENS0_4TypeE(%"class.base::RunLoop"* nonnull %4, i32 0) #11
  %9 = getelementptr inbounds %"class.blink::test::mojom::blink::VirtualAuthenticatorAsyncWaiter", %"class.blink::test::mojom::blink::VirtualAuthenticatorAsyncWaiter"* %0, i64 0, i32 0
  %10 = load %"class.blink::test::mojom::blink::VirtualAuthenticator"*, %"class.blink::test::mojom::blink::VirtualAuthenticator"** %9, align 8
  %11 = ptrtoint %"class.base::RunLoop"* %4 to i64
  %12 = call i8* @_Znwm(i64 56) #12, !noalias !27
  %13 = bitcast i8* %12 to %"class.base::internal::BindStateBase"*
  call void @_ZN4base8internal13BindStateBaseC2EPFvvEPFvPKS1_E(%"class.base::internal::BindStateBase"* nonnull %13, void ()* bitcast (void (%"class.base::internal::BindStateBase"*, %"class.absl::optional"*)* @"_ZN4base8internal7InvokerINS0_9BindStateIZN5blink4test5mojom5blink31VirtualAuthenticatorAsyncWaiter12GetLargeBlobERKN3WTF6VectorIhLj0ENS8_18PartitionAllocatorEEEPN4absl8optionalISB_EEE3$_5JPNS_7RunLoopESH_EEEFvRKSG_EE7RunOnceEPNS0_13BindStateBaseESN_" to void ()*), void (%"class.base::internal::BindStateBase"*)* nonnull @"_ZN4base8internal9BindStateIZN5blink4test5mojom5blink31VirtualAuthenticatorAsyncWaiter12GetLargeBlobERKN3WTF6VectorIhLj0ENS7_18PartitionAllocatorEEEPN4absl8optionalISA_EEE3$_5JPNS_7RunLoopESG_EE7DestroyEPKNS0_13BindStateBaseE") #11, !noalias !27
  %14 = getelementptr inbounds i8, i8* %12, i64 40
  %15 = bitcast i8* %14 to i64*
  store i64 %11, i64* %15, align 8, !noalias !27
  %16 = getelementptr inbounds i8, i8* %12, i64 48
  %17 = bitcast i8* %16 to i64*
  store i64 %7, i64* %17, align 8, !noalias !27
  %18 = bitcast %"class.base::OnceCallback.11"* %5 to i8**
  store i8* %12, i8** %18, align 8, !alias.scope !27
  %19 = bitcast %"class.blink::test::mojom::blink::VirtualAuthenticator"* %10 to void (%"class.blink::test::mojom::blink::VirtualAuthenticator"*, %"class.WTF::Vector"*, %"class.base::OnceCallback.11"*)***
  %20 = load void (%"class.blink::test::mojom::blink::VirtualAuthenticator"*, %"class.WTF::Vector"*, %"class.base::OnceCallback.11"*)**, void (%"class.blink::test::mojom::blink::VirtualAuthenticator"*, %"class.WTF::Vector"*, %"class.base::OnceCallback.11"*)*** %19, align 8
  %21 = getelementptr inbounds void (%"class.blink::test::mojom::blink::VirtualAuthenticator"*, %"class.WTF::Vector"*, %"class.base::OnceCallback.11"*)*, void (%"class.blink::test::mojom::blink::VirtualAuthenticator"*, %"class.WTF::Vector"*, %"class.base::OnceCallback.11"*)** %20, i64 7
  %22 = load void (%"class.blink::test::mojom::blink::VirtualAuthenticator"*, %"class.WTF::Vector"*, %"class.base::OnceCallback.11"*)*, void (%"class.blink::test::mojom::blink::VirtualAuthenticator"*, %"class.WTF::Vector"*, %"class.base::OnceCallback.11"*)** %21, align 8
  call void %22(%"class.blink::test::mojom::blink::VirtualAuthenticator"* %10, %"class.WTF::Vector"* dereferenceable(16) %1, %"class.base::OnceCallback.11"* nonnull %5) #11
  %23 = getelementptr inbounds %"class.base::OnceCallback.11", %"class.base::OnceCallback.11"* %5, i64 0, i32 0
  call void @_ZN4base8internal12CallbackBaseD2Ev(%"class.base::internal::CallbackBase"* nonnull %23) #11
  %24 = bitcast %"class.base::Location"* %6 to i8*
  call void @llvm.lifetime.start.p0i8(i64 32, i8* nonnull %24) #11
  call void @_ZN4base8Location7CurrentEPKcS2_i(%"class.base::Location"* nonnull sret %6, i8* getelementptr inbounds ([13 x i8], [13 x i8]* @.str.6, i64 0, i64 0), i8* getelementptr inbounds ([92 x i8], [92 x i8]* @.str.1, i64 0, i64 0), i32 148) #11
  call void @_ZN4base7RunLoop3RunERKNS_8LocationE(%"class.base::RunLoop"* nonnull %4, %"class.base::Location"* nonnull dereferenceable(32) %6) #11
  call void @llvm.lifetime.end.p0i8(i64 32, i8* nonnull %24) #11
  call void @_ZN4base7RunLoopD1Ev(%"class.base::RunLoop"* nonnull %4) #11
  call void @llvm.lifetime.end.p0i8(i64 48, i8* nonnull %8) #11
  ret void
}

; Function Attrs: nounwind ssp uwtable
define hidden void @_ZN5blink4test5mojom5blink31VirtualAuthenticatorAsyncWaiter12SetLargeBlobERKN3WTF6VectorIhLj0ENS4_18PartitionAllocatorEEES9_Pb(%"class.blink::test::mojom::blink::VirtualAuthenticatorAsyncWaiter"* nocapture readonly, %"class.WTF::Vector"* dereferenceable(16), %"class.WTF::Vector"* dereferenceable(16), i8*) local_unnamed_addr #0 align 2 {
  %5 = alloca %"class.base::RunLoop", align 8
  %6 = alloca %"class.base::OnceCallback.8", align 8
  %7 = alloca %"class.base::Location", align 8
  %8 = ptrtoint i8* %3 to i64
  %9 = bitcast %"class.base::RunLoop"* %5 to i8*
  call void @llvm.lifetime.start.p0i8(i64 48, i8* nonnull %9) #11
  call void @llvm.memset.p0i8.i64(i8* nonnull align 8 %9, i8 -86, i64 48, i1 false)
  call void @_ZN4base7RunLoopC1ENS0_4TypeE(%"class.base::RunLoop"* nonnull %5, i32 0) #11
  %10 = getelementptr inbounds %"class.blink::test::mojom::blink::VirtualAuthenticatorAsyncWaiter", %"class.blink::test::mojom::blink::VirtualAuthenticatorAsyncWaiter"* %0, i64 0, i32 0
  %11 = load %"class.blink::test::mojom::blink::VirtualAuthenticator"*, %"class.blink::test::mojom::blink::VirtualAuthenticator"** %10, align 8
  %12 = ptrtoint %"class.base::RunLoop"* %5 to i64
  %13 = call i8* @_Znwm(i64 56) #12, !noalias !32
  %14 = bitcast i8* %13 to %"class.base::internal::BindStateBase"*
  call void @_ZN4base8internal13BindStateBaseC2EPFvvEPFvPKS1_E(%"class.base::internal::BindStateBase"* nonnull %14, void ()* bitcast (void (%"class.base::internal::BindStateBase"*, i1)* @"_ZN4base8internal7InvokerINS0_9BindStateIZN5blink4test5mojom5blink31VirtualAuthenticatorAsyncWaiter12SetLargeBlobERKN3WTF6VectorIhLj0ENS8_18PartitionAllocatorEEESD_PbE3$_6JPNS_7RunLoopESE_EEEFvbEE7RunOnceEPNS0_13BindStateBaseEb" to void ()*), void (%"class.base::internal::BindStateBase"*)* nonnull @"_ZN4base8internal9BindStateIZN5blink4test5mojom5blink31VirtualAuthenticatorAsyncWaiter12SetLargeBlobERKN3WTF6VectorIhLj0ENS7_18PartitionAllocatorEEESC_PbE3$_6JPNS_7RunLoopESD_EE7DestroyEPKNS0_13BindStateBaseE") #11, !noalias !32
  %15 = getelementptr inbounds i8, i8* %13, i64 40
  %16 = bitcast i8* %15 to i64*
  store i64 %12, i64* %16, align 8, !noalias !32
  %17 = getelementptr inbounds i8, i8* %13, i64 48
  %18 = bitcast i8* %17 to i64*
  store i64 %8, i64* %18, align 8, !noalias !32
  %19 = bitcast %"class.base::OnceCallback.8"* %6 to i8**
  store i8* %13, i8** %19, align 8, !alias.scope !32
  %20 = bitcast %"class.blink::test::mojom::blink::VirtualAuthenticator"* %11 to void (%"class.blink::test::mojom::blink::VirtualAuthenticator"*, %"class.WTF::Vector"*, %"class.WTF::Vector"*, %"class.base::OnceCallback.8"*)***
  %21 = load void (%"class.blink::test::mojom::blink::VirtualAuthenticator"*, %"class.WTF::Vector"*, %"class.WTF::Vector"*, %"class.base::OnceCallback.8"*)**, void (%"class.blink::test::mojom::blink::VirtualAuthenticator"*, %"class.WTF::Vector"*, %"class.WTF::Vector"*, %"class.base::OnceCallback.8"*)*** %20, align 8
  %22 = getelementptr inbounds void (%"class.blink::test::mojom::blink::VirtualAuthenticator"*, %"class.WTF::Vector"*, %"class.WTF::Vector"*, %"class.base::OnceCallback.8"*)*, void (%"class.blink::test::mojom::blink::VirtualAuthenticator"*, %"class.WTF::Vector"*, %"class.WTF::Vector"*, %"class.base::OnceCallback.8"*)** %21, i64 8
  %23 = load void (%"class.blink::test::mojom::blink::VirtualAuthenticator"*, %"class.WTF::Vector"*, %"class.WTF::Vector"*, %"class.base::OnceCallback.8"*)*, void (%"class.blink::test::mojom::blink::VirtualAuthenticator"*, %"class.WTF::Vector"*, %"class.WTF::Vector"*, %"class.base::OnceCallback.8"*)** %22, align 8
  call void %23(%"class.blink::test::mojom::blink::VirtualAuthenticator"* %11, %"class.WTF::Vector"* dereferenceable(16) %1, %"class.WTF::Vector"* dereferenceable(16) %2, %"class.base::OnceCallback.8"* nonnull %6) #11
  %24 = getelementptr inbounds %"class.base::OnceCallback.8", %"class.base::OnceCallback.8"* %6, i64 0, i32 0
  call void @_ZN4base8internal12CallbackBaseD2Ev(%"class.base::internal::CallbackBase"* nonnull %24) #11
  %25 = bitcast %"class.base::Location"* %7 to i8*
  call void @llvm.lifetime.start.p0i8(i64 32, i8* nonnull %25) #11
  call void @_ZN4base8Location7CurrentEPKcS2_i(%"class.base::Location"* nonnull sret %7, i8* getelementptr inbounds ([13 x i8], [13 x i8]* @.str.7, i64 0, i64 0), i8* getelementptr inbounds ([92 x i8], [92 x i8]* @.str.1, i64 0, i64 0), i32 163) #11
  call void @_ZN4base7RunLoop3RunERKNS_8LocationE(%"class.base::RunLoop"* nonnull %5, %"class.base::Location"* nonnull dereferenceable(32) %7) #11
  call void @llvm.lifetime.end.p0i8(i64 32, i8* nonnull %25) #11
  call void @_ZN4base7RunLoopD1Ev(%"class.base::RunLoop"* nonnull %5) #11
  call void @llvm.lifetime.end.p0i8(i64 48, i8* nonnull %9) #11
  ret void
}

; Function Attrs: nounwind ssp uwtable
define hidden void @_ZN5blink4test5mojom5blink31VirtualAuthenticatorAsyncWaiter15SetUserVerifiedEb(%"class.blink::test::mojom::blink::VirtualAuthenticatorAsyncWaiter"* nocapture readonly, i1 zeroext) local_unnamed_addr #0 align 2 {
  %3 = alloca %"class.base::RunLoop", align 8
  %4 = alloca %"class.base::OnceCallback.10", align 8
  %5 = alloca %"class.base::Location", align 8
  %6 = bitcast %"class.base::RunLoop"* %3 to i8*
  call void @llvm.lifetime.start.p0i8(i64 48, i8* nonnull %6) #11
  call void @llvm.memset.p0i8.i64(i8* nonnull align 8 %6, i8 -86, i64 48, i1 false)
  call void @_ZN4base7RunLoopC1ENS0_4TypeE(%"class.base::RunLoop"* nonnull %3, i32 0) #11
  %7 = getelementptr inbounds %"class.blink::test::mojom::blink::VirtualAuthenticatorAsyncWaiter", %"class.blink::test::mojom::blink::VirtualAuthenticatorAsyncWaiter"* %0, i64 0, i32 0
  %8 = load %"class.blink::test::mojom::blink::VirtualAuthenticator"*, %"class.blink::test::mojom::blink::VirtualAuthenticator"** %7, align 8
  %9 = ptrtoint %"class.base::RunLoop"* %3 to i64
  %10 = call i8* @_Znwm(i64 48) #12, !noalias !37
  %11 = bitcast i8* %10 to %"class.base::internal::BindStateBase"*
  call void @_ZN4base8internal13BindStateBaseC2EPFvvEPFvPKS1_E(%"class.base::internal::BindStateBase"* nonnull %11, void ()* bitcast (void (%"class.base::internal::BindStateBase"*)* @"_ZN4base8internal7InvokerINS0_9BindStateIZN5blink4test5mojom5blink31VirtualAuthenticatorAsyncWaiter15SetUserVerifiedEbE3$_7JPNS_7RunLoopEEEEFvvEE7RunOnceEPNS0_13BindStateBaseE" to void ()*), void (%"class.base::internal::BindStateBase"*)* nonnull @"_ZN4base8internal9BindStateIZN5blink4test5mojom5blink31VirtualAuthenticatorAsyncWaiter15SetUserVerifiedEbE3$_7JPNS_7RunLoopEEE7DestroyEPKNS0_13BindStateBaseE") #11, !noalias !37
  %12 = getelementptr inbounds i8, i8* %10, i64 40
  %13 = bitcast i8* %12 to i64*
  store i64 %9, i64* %13, align 8, !noalias !37
  %14 = bitcast %"class.base::OnceCallback.10"* %4 to i8**
  store i8* %10, i8** %14, align 8, !alias.scope !37
  %15 = bitcast %"class.blink::test::mojom::blink::VirtualAuthenticator"* %8 to void (%"class.blink::test::mojom::blink::VirtualAuthenticator"*, i1, %"class.base::OnceCallback.10"*)***
  %16 = load void (%"class.blink::test::mojom::blink::VirtualAuthenticator"*, i1, %"class.base::OnceCallback.10"*)**, void (%"class.blink::test::mojom::blink::VirtualAuthenticator"*, i1, %"class.base::OnceCallback.10"*)*** %15, align 8
  %17 = getelementptr inbounds void (%"class.blink::test::mojom::blink::VirtualAuthenticator"*, i1, %"class.base::OnceCallback.10"*)*, void (%"class.blink::test::mojom::blink::VirtualAuthenticator"*, i1, %"class.base::OnceCallback.10"*)** %16, i64 9
  %18 = load void (%"class.blink::test::mojom::blink::VirtualAuthenticator"*, i1, %"class.base::OnceCallback.10"*)*, void (%"class.blink::test::mojom::blink::VirtualAuthenticator"*, i1, %"class.base::OnceCallback.10"*)** %17, align 8
  call void %18(%"class.blink::test::mojom::blink::VirtualAuthenticator"* %8, i1 zeroext %1, %"class.base::OnceCallback.10"* nonnull %4) #11
  %19 = getelementptr inbounds %"class.base::OnceCallback.10", %"class.base::OnceCallback.10"* %4, i64 0, i32 0
  call void @_ZN4base8internal12CallbackBaseD2Ev(%"class.base::internal::CallbackBase"* nonnull %19) #11
  %20 = bitcast %"class.base::Location"* %5 to i8*
  call void @llvm.lifetime.start.p0i8(i64 32, i8* nonnull %20) #11
  call void @_ZN4base8Location7CurrentEPKcS2_i(%"class.base::Location"* nonnull sret %5, i8* getelementptr inbounds ([16 x i8], [16 x i8]* @.str.8, i64 0, i64 0), i8* getelementptr inbounds ([92 x i8], [92 x i8]* @.str.1, i64 0, i64 0), i32 174) #11
  call void @_ZN4base7RunLoop3RunERKNS_8LocationE(%"class.base::RunLoop"* nonnull %3, %"class.base::Location"* nonnull dereferenceable(32) %5) #11
  call void @llvm.lifetime.end.p0i8(i64 32, i8* nonnull %20) #11
  call void @_ZN4base7RunLoopD1Ev(%"class.base::RunLoop"* nonnull %3) #11
  call void @llvm.lifetime.end.p0i8(i64 48, i8* nonnull %6) #11
  ret void
}

; Function Attrs: nounwind ssp uwtable
define hidden void @_ZN5blink4test5mojom5blink48VirtualAuthenticatorManagerInterceptorForTesting19CreateAuthenticatorEN4mojo9StructPtrINS2_27VirtualAuthenticatorOptionsEEEN4base12OnceCallbackIFvNS4_13PendingRemoteINS2_20VirtualAuthenticatorEEEEEE(%"class.blink::test::mojom::blink::VirtualAuthenticatorManagerInterceptorForTesting"*, %"class.mojo::StructPtr.50"* nocapture, %"class.base::OnceCallback.57"* nocapture) unnamed_addr #0 align 2 {
  %4 = alloca %"class.mojo::StructPtr.50", align 8
  %5 = alloca %"class.base::OnceCallback.57", align 8
  %6 = bitcast %"class.blink::test::mojom::blink::VirtualAuthenticatorManagerInterceptorForTesting"* %0 to %"class.blink::test::mojom::blink::VirtualAuthenticatorManager"* (%"class.blink::test::mojom::blink::VirtualAuthenticatorManagerInterceptorForTesting"*)***
  %7 = load %"class.blink::test::mojom::blink::VirtualAuthenticatorManager"* (%"class.blink::test::mojom::blink::VirtualAuthenticatorManagerInterceptorForTesting"*)**, %"class.blink::test::mojom::blink::VirtualAuthenticatorManager"* (%"class.blink::test::mojom::blink::VirtualAuthenticatorManagerInterceptorForTesting"*)*** %6, align 8
  %8 = getelementptr inbounds %"class.blink::test::mojom::blink::VirtualAuthenticatorManager"* (%"class.blink::test::mojom::blink::VirtualAuthenticatorManagerInterceptorForTesting"*)*, %"class.blink::test::mojom::blink::VirtualAuthenticatorManager"* (%"class.blink::test::mojom::blink::VirtualAuthenticatorManagerInterceptorForTesting"*)** %7, i64 6
  %9 = load %"class.blink::test::mojom::blink::VirtualAuthenticatorManager"* (%"class.blink::test::mojom::blink::VirtualAuthenticatorManagerInterceptorForTesting"*)*, %"class.blink::test::mojom::blink::VirtualAuthenticatorManager"* (%"class.blink::test::mojom::blink::VirtualAuthenticatorManagerInterceptorForTesting"*)** %8, align 8
  %10 = tail call %"class.blink::test::mojom::blink::VirtualAuthenticatorManager"* %9(%"class.blink::test::mojom::blink::VirtualAuthenticatorManagerInterceptorForTesting"* %0) #11
  %11 = bitcast %"class.mojo::StructPtr.50"* %4 to i64*
  %12 = getelementptr inbounds %"class.mojo::StructPtr.50", %"class.mojo::StructPtr.50"* %4, i64 0, i32 0, i32 0, i32 0, i32 0
  %13 = bitcast %"class.mojo::StructPtr.50"* %1 to i64*
  %14 = load i64, i64* %13, align 8
  store i64 %14, i64* %11, align 8
  store i64 0, i64* %13, align 8
  %15 = getelementptr inbounds %"class.base::OnceCallback.57", %"class.base::OnceCallback.57"* %2, i64 0, i32 0, i32 0, i32 0
  %16 = bitcast %"class.base::OnceCallback.57"* %2 to i64*
  %17 = load i64, i64* %16, align 8
  %18 = bitcast %"class.base::OnceCallback.57"* %5 to i64*
  store i64 %17, i64* %18, align 8
  store %"class.base::internal::BindStateBase"* null, %"class.base::internal::BindStateBase"** %15, align 8
  %19 = bitcast %"class.blink::test::mojom::blink::VirtualAuthenticatorManager"* %10 to void (%"class.blink::test::mojom::blink::VirtualAuthenticatorManager"*, %"class.mojo::StructPtr.50"*, %"class.base::OnceCallback.57"*)***
  %20 = load void (%"class.blink::test::mojom::blink::VirtualAuthenticatorManager"*, %"class.mojo::StructPtr.50"*, %"class.base::OnceCallback.57"*)**, void (%"class.blink::test::mojom::blink::VirtualAuthenticatorManager"*, %"class.mojo::StructPtr.50"*, %"class.base::OnceCallback.57"*)*** %19, align 8
  %21 = getelementptr inbounds void (%"class.blink::test::mojom::blink::VirtualAuthenticatorManager"*, %"class.mojo::StructPtr.50"*, %"class.base::OnceCallback.57"*)*, void (%"class.blink::test::mojom::blink::VirtualAuthenticatorManager"*, %"class.mojo::StructPtr.50"*, %"class.base::OnceCallback.57"*)** %20, i64 2
  %22 = load void (%"class.blink::test::mojom::blink::VirtualAuthenticatorManager"*, %"class.mojo::StructPtr.50"*, %"class.base::OnceCallback.57"*)*, void (%"class.blink::test::mojom::blink::VirtualAuthenticatorManager"*, %"class.mojo::StructPtr.50"*, %"class.base::OnceCallback.57"*)** %21, align 8
  call void %22(%"class.blink::test::mojom::blink::VirtualAuthenticatorManager"* %10, %"class.mojo::StructPtr.50"* nonnull %4, %"class.base::OnceCallback.57"* nonnull %5) #11
  %23 = getelementptr inbounds %"class.base::OnceCallback.57", %"class.base::OnceCallback.57"* %5, i64 0, i32 0
  call void @_ZN4base8internal12CallbackBaseD2Ev(%"class.base::internal::CallbackBase"* nonnull %23) #11
  %24 = load %"class.blink::test::mojom::blink::VirtualAuthenticatorOptions"*, %"class.blink::test::mojom::blink::VirtualAuthenticatorOptions"** %12, align 8
  store %"class.blink::test::mojom::blink::VirtualAuthenticatorOptions"* null, %"class.blink::test::mojom::blink::VirtualAuthenticatorOptions"** %12, align 8
  %25 = icmp eq %"class.blink::test::mojom::blink::VirtualAuthenticatorOptions"* %24, null
  br i1 %25, label %28, label %26

26:                                               ; preds = %3
  call void @_ZN5blink4test5mojom5blink27VirtualAuthenticatorOptionsD1Ev(%"class.blink::test::mojom::blink::VirtualAuthenticatorOptions"* nonnull %24) #11
  %27 = bitcast %"class.blink::test::mojom::blink::VirtualAuthenticatorOptions"* %24 to i8*
  call void @_ZdlPv(i8* %27) #12
  br label %28

28:                                               ; preds = %3, %26
  ret void
}

; Function Attrs: nounwind ssp uwtable
define hidden void @_ZN5blink4test5mojom5blink48VirtualAuthenticatorManagerInterceptorForTesting17GetAuthenticatorsEN4base12OnceCallbackIFvN3WTF6VectorIN4mojo13PendingRemoteINS2_20VirtualAuthenticatorEEELj0ENS6_18PartitionAllocatorEEEEEE(%"class.blink::test::mojom::blink::VirtualAuthenticatorManagerInterceptorForTesting"*, %"class.base::OnceCallback.58"* nocapture) unnamed_addr #0 align 2 {
  %3 = alloca %"class.base::OnceCallback.58", align 8
  %4 = bitcast %"class.blink::test::mojom::blink::VirtualAuthenticatorManagerInterceptorForTesting"* %0 to %"class.blink::test::mojom::blink::VirtualAuthenticatorManager"* (%"class.blink::test::mojom::blink::VirtualAuthenticatorManagerInterceptorForTesting"*)***
  %5 = load %"class.blink::test::mojom::blink::VirtualAuthenticatorManager"* (%"class.blink::test::mojom::blink::VirtualAuthenticatorManagerInterceptorForTesting"*)**, %"class.blink::test::mojom::blink::VirtualAuthenticatorManager"* (%"class.blink::test::mojom::blink::VirtualAuthenticatorManagerInterceptorForTesting"*)*** %4, align 8
  %6 = getelementptr inbounds %"class.blink::test::mojom::blink::VirtualAuthenticatorManager"* (%"class.blink::test::mojom::blink::VirtualAuthenticatorManagerInterceptorForTesting"*)*, %"class.blink::test::mojom::blink::VirtualAuthenticatorManager"* (%"class.blink::test::mojom::blink::VirtualAuthenticatorManagerInterceptorForTesting"*)** %5, i64 6
  %7 = load %"class.blink::test::mojom::blink::VirtualAuthenticatorManager"* (%"class.blink::test::mojom::blink::VirtualAuthenticatorManagerInterceptorForTesting"*)*, %"class.blink::test::mojom::blink::VirtualAuthenticatorManager"* (%"class.blink::test::mojom::blink::VirtualAuthenticatorManagerInterceptorForTesting"*)** %6, align 8
  %8 = tail call %"class.blink::test::mojom::blink::VirtualAuthenticatorManager"* %7(%"class.blink::test::mojom::blink::VirtualAuthenticatorManagerInterceptorForTesting"* %0) #11
  %9 = getelementptr inbounds %"class.base::OnceCallback.58", %"class.base::OnceCallback.58"* %1, i64 0, i32 0, i32 0, i32 0
  %10 = bitcast %"class.base::OnceCallback.58"* %1 to i64*
  %11 = load i64, i64* %10, align 8
  %12 = bitcast %"class.base::OnceCallback.58"* %3 to i64*
  store i64 %11, i64* %12, align 8
  store %"class.base::internal::BindStateBase"* null, %"class.base::internal::BindStateBase"** %9, align 8
  %13 = bitcast %"class.blink::test::mojom::blink::VirtualAuthenticatorManager"* %8 to void (%"class.blink::test::mojom::blink::VirtualAuthenticatorManager"*, %"class.base::OnceCallback.58"*)***
  %14 = load void (%"class.blink::test::mojom::blink::VirtualAuthenticatorManager"*, %"class.base::OnceCallback.58"*)**, void (%"class.blink::test::mojom::blink::VirtualAuthenticatorManager"*, %"class.base::OnceCallback.58"*)*** %13, align 8
  %15 = getelementptr inbounds void (%"class.blink::test::mojom::blink::VirtualAuthenticatorManager"*, %"class.base::OnceCallback.58"*)*, void (%"class.blink::test::mojom::blink::VirtualAuthenticatorManager"*, %"class.base::OnceCallback.58"*)** %14, i64 3
  %16 = load void (%"class.blink::test::mojom::blink::VirtualAuthenticatorManager"*, %"class.base::OnceCallback.58"*)*, void (%"class.blink::test::mojom::blink::VirtualAuthenticatorManager"*, %"class.base::OnceCallback.58"*)** %15, align 8
  call void %16(%"class.blink::test::mojom::blink::VirtualAuthenticatorManager"* %8, %"class.base::OnceCallback.58"* nonnull %3) #11
  %17 = getelementptr inbounds %"class.base::OnceCallback.58", %"class.base::OnceCallback.58"* %3, i64 0, i32 0
  call void @_ZN4base8internal12CallbackBaseD2Ev(%"class.base::internal::CallbackBase"* nonnull %17) #11
  ret void
}

; Function Attrs: nounwind ssp uwtable
define hidden void @_ZN5blink4test5mojom5blink48VirtualAuthenticatorManagerInterceptorForTesting19RemoveAuthenticatorERKN3WTF6StringEN4base12OnceCallbackIFvbEEE(%"class.blink::test::mojom::blink::VirtualAuthenticatorManagerInterceptorForTesting"*, %"class.WTF::String"* dereferenceable(8), %"class.base::OnceCallback.8"* nocapture) unnamed_addr #0 align 2 {
  %4 = alloca %"class.base::OnceCallback.8", align 8
  %5 = bitcast %"class.blink::test::mojom::blink::VirtualAuthenticatorManagerInterceptorForTesting"* %0 to %"class.blink::test::mojom::blink::VirtualAuthenticatorManager"* (%"class.blink::test::mojom::blink::VirtualAuthenticatorManagerInterceptorForTesting"*)***
  %6 = load %"class.blink::test::mojom::blink::VirtualAuthenticatorManager"* (%"class.blink::test::mojom::blink::VirtualAuthenticatorManagerInterceptorForTesting"*)**, %"class.blink::test::mojom::blink::VirtualAuthenticatorManager"* (%"class.blink::test::mojom::blink::VirtualAuthenticatorManagerInterceptorForTesting"*)*** %5, align 8
  %7 = getelementptr inbounds %"class.blink::test::mojom::blink::VirtualAuthenticatorManager"* (%"class.blink::test::mojom::blink::VirtualAuthenticatorManagerInterceptorForTesting"*)*, %"class.blink::test::mojom::blink::VirtualAuthenticatorManager"* (%"class.blink::test::mojom::blink::VirtualAuthenticatorManagerInterceptorForTesting"*)** %6, i64 6
  %8 = load %"class.blink::test::mojom::blink::VirtualAuthenticatorManager"* (%"class.blink::test::mojom::blink::VirtualAuthenticatorManagerInterceptorForTesting"*)*, %"class.blink::test::mojom::blink::VirtualAuthenticatorManager"* (%"class.blink::test::mojom::blink::VirtualAuthenticatorManagerInterceptorForTesting"*)** %7, align 8
  %9 = tail call %"class.blink::test::mojom::blink::VirtualAuthenticatorManager"* %8(%"class.blink::test::mojom::blink::VirtualAuthenticatorManagerInterceptorForTesting"* %0) #11
  %10 = getelementptr inbounds %"class.base::OnceCallback.8", %"class.base::OnceCallback.8"* %2, i64 0, i32 0, i32 0, i32 0
  %11 = bitcast %"class.base::OnceCallback.8"* %2 to i64*
  %12 = load i64, i64* %11, align 8
  %13 = bitcast %"class.base::OnceCallback.8"* %4 to i64*
  store i64 %12, i64* %13, align 8
  store %"class.base::internal::BindStateBase"* null, %"class.base::internal::BindStateBase"** %10, align 8
  %14 = bitcast %"class.blink::test::mojom::blink::VirtualAuthenticatorManager"* %9 to void (%"class.blink::test::mojom::blink::VirtualAuthenticatorManager"*, %"class.WTF::String"*, %"class.base::OnceCallback.8"*)***
  %15 = load void (%"class.blink::test::mojom::blink::VirtualAuthenticatorManager"*, %"class.WTF::String"*, %"class.base::OnceCallback.8"*)**, void (%"class.blink::test::mojom::blink::VirtualAuthenticatorManager"*, %"class.WTF::String"*, %"class.base::OnceCallback.8"*)*** %14, align 8
  %16 = getelementptr inbounds void (%"class.blink::test::mojom::blink::VirtualAuthenticatorManager"*, %"class.WTF::String"*, %"class.base::OnceCallback.8"*)*, void (%"class.blink::test::mojom::blink::VirtualAuthenticatorManager"*, %"class.WTF::String"*, %"class.base::OnceCallback.8"*)** %15, i64 4
  %17 = load void (%"class.blink::test::mojom::blink::VirtualAuthenticatorManager"*, %"class.WTF::String"*, %"class.base::OnceCallback.8"*)*, void (%"class.blink::test::mojom::blink::VirtualAuthenticatorManager"*, %"class.WTF::String"*, %"class.base::OnceCallback.8"*)** %16, align 8
  call void %17(%"class.blink::test::mojom::blink::VirtualAuthenticatorManager"* %9, %"class.WTF::String"* dereferenceable(8) %1, %"class.base::OnceCallback.8"* nonnull %4) #11
  %18 = getelementptr inbounds %"class.base::OnceCallback.8", %"class.base::OnceCallback.8"* %4, i64 0, i32 0
  call void @_ZN4base8internal12CallbackBaseD2Ev(%"class.base::internal::CallbackBase"* nonnull %18) #11
  ret void
}

; Function Attrs: nounwind ssp uwtable
define hidden void @_ZN5blink4test5mojom5blink48VirtualAuthenticatorManagerInterceptorForTesting19ClearAuthenticatorsEN4base12OnceCallbackIFvvEEE(%"class.blink::test::mojom::blink::VirtualAuthenticatorManagerInterceptorForTesting"*, %"class.base::OnceCallback.10"* nocapture) unnamed_addr #0 align 2 {
  %3 = alloca %"class.base::OnceCallback.10", align 8
  %4 = bitcast %"class.blink::test::mojom::blink::VirtualAuthenticatorManagerInterceptorForTesting"* %0 to %"class.blink::test::mojom::blink::VirtualAuthenticatorManager"* (%"class.blink::test::mojom::blink::VirtualAuthenticatorManagerInterceptorForTesting"*)***
  %5 = load %"class.blink::test::mojom::blink::VirtualAuthenticatorManager"* (%"class.blink::test::mojom::blink::VirtualAuthenticatorManagerInterceptorForTesting"*)**, %"class.blink::test::mojom::blink::VirtualAuthenticatorManager"* (%"class.blink::test::mojom::blink::VirtualAuthenticatorManagerInterceptorForTesting"*)*** %4, align 8
  %6 = getelementptr inbounds %"class.blink::test::mojom::blink::VirtualAuthenticatorManager"* (%"class.blink::test::mojom::blink::VirtualAuthenticatorManagerInterceptorForTesting"*)*, %"class.blink::test::mojom::blink::VirtualAuthenticatorManager"* (%"class.blink::test::mojom::blink::VirtualAuthenticatorManagerInterceptorForTesting"*)** %5, i64 6
  %7 = load %"class.blink::test::mojom::blink::VirtualAuthenticatorManager"* (%"class.blink::test::mojom::blink::VirtualAuthenticatorManagerInterceptorForTesting"*)*, %"class.blink::test::mojom::blink::VirtualAuthenticatorManager"* (%"class.blink::test::mojom::blink::VirtualAuthenticatorManagerInterceptorForTesting"*)** %6, align 8
  %8 = tail call %"class.blink::test::mojom::blink::VirtualAuthenticatorManager"* %7(%"class.blink::test::mojom::blink::VirtualAuthenticatorManagerInterceptorForTesting"* %0) #11
  %9 = getelementptr inbounds %"class.base::OnceCallback.10", %"class.base::OnceCallback.10"* %1, i64 0, i32 0, i32 0, i32 0
  %10 = bitcast %"class.base::OnceCallback.10"* %1 to i64*
  %11 = load i64, i64* %10, align 8
  %12 = bitcast %"class.base::OnceCallback.10"* %3 to i64*
  store i64 %11, i64* %12, align 8
  store %"class.base::internal::BindStateBase"* null, %"class.base::internal::BindStateBase"** %9, align 8
  %13 = bitcast %"class.blink::test::mojom::blink::VirtualAuthenticatorManager"* %8 to void (%"class.blink::test::mojom::blink::VirtualAuthenticatorManager"*, %"class.base::OnceCallback.10"*)***
  %14 = load void (%"class.blink::test::mojom::blink::VirtualAuthenticatorManager"*, %"class.base::OnceCallback.10"*)**, void (%"class.blink::test::mojom::blink::VirtualAuthenticatorManager"*, %"class.base::OnceCallback.10"*)*** %13, align 8
  %15 = getelementptr inbounds void (%"class.blink::test::mojom::blink::VirtualAuthenticatorManager"*, %"class.base::OnceCallback.10"*)*, void (%"class.blink::test::mojom::blink::VirtualAuthenticatorManager"*, %"class.base::OnceCallback.10"*)** %14, i64 5
  %16 = load void (%"class.blink::test::mojom::blink::VirtualAuthenticatorManager"*, %"class.base::OnceCallback.10"*)*, void (%"class.blink::test::mojom::blink::VirtualAuthenticatorManager"*, %"class.base::OnceCallback.10"*)** %15, align 8
  call void %16(%"class.blink::test::mojom::blink::VirtualAuthenticatorManager"* %8, %"class.base::OnceCallback.10"* nonnull %3) #11
  %17 = getelementptr inbounds %"class.base::OnceCallback.10", %"class.base::OnceCallback.10"* %3, i64 0, i32 0
  call void @_ZN4base8internal12CallbackBaseD2Ev(%"class.base::internal::CallbackBase"* nonnull %17) #11
  ret void
}

; Function Attrs: nofree norecurse nounwind ssp uwtable writeonly
define hidden void @_ZN5blink4test5mojom5blink38VirtualAuthenticatorManagerAsyncWaiterC2EPNS2_27VirtualAuthenticatorManagerE(%"class.blink::test::mojom::blink::VirtualAuthenticatorManagerAsyncWaiter"* nocapture, %"class.blink::test::mojom::blink::VirtualAuthenticatorManager"*) unnamed_addr #2 align 2 {
  %3 = getelementptr inbounds %"class.blink::test::mojom::blink::VirtualAuthenticatorManagerAsyncWaiter", %"class.blink::test::mojom::blink::VirtualAuthenticatorManagerAsyncWaiter"* %0, i64 0, i32 0
  store %"class.blink::test::mojom::blink::VirtualAuthenticatorManager"* %1, %"class.blink::test::mojom::blink::VirtualAuthenticatorManager"** %3, align 8
  ret void
}

; Function Attrs: norecurse nounwind readnone ssp uwtable
define hidden void @_ZN5blink4test5mojom5blink38VirtualAuthenticatorManagerAsyncWaiterD2Ev(%"class.blink::test::mojom::blink::VirtualAuthenticatorManagerAsyncWaiter"* nocapture) unnamed_addr #3 align 2 {
  ret void
}

; Function Attrs: nounwind ssp uwtable
define hidden void @_ZN5blink4test5mojom5blink38VirtualAuthenticatorManagerAsyncWaiter19CreateAuthenticatorEN4mojo9StructPtrINS2_27VirtualAuthenticatorOptionsEEEPNS4_13PendingRemoteINS2_20VirtualAuthenticatorEEE(%"class.blink::test::mojom::blink::VirtualAuthenticatorManagerAsyncWaiter"* nocapture readonly, %"class.mojo::StructPtr.50"* nocapture, %"class.mojo::PendingRemote"*) local_unnamed_addr #0 align 2 {
  %4 = alloca %"class.base::RunLoop", align 8
  %5 = alloca %"class.mojo::StructPtr.50", align 8
  %6 = alloca %"class.base::OnceCallback.57", align 8
  %7 = alloca %"class.base::Location", align 8
  %8 = ptrtoint %"class.mojo::PendingRemote"* %2 to i64
  %9 = bitcast %"class.base::RunLoop"* %4 to i8*
  call void @llvm.lifetime.start.p0i8(i64 48, i8* nonnull %9) #11
  call void @llvm.memset.p0i8.i64(i8* nonnull align 8 %9, i8 -86, i64 48, i1 false)
  call void @_ZN4base7RunLoopC1ENS0_4TypeE(%"class.base::RunLoop"* nonnull %4, i32 0) #11
  %10 = getelementptr inbounds %"class.blink::test::mojom::blink::VirtualAuthenticatorManagerAsyncWaiter", %"class.blink::test::mojom::blink::VirtualAuthenticatorManagerAsyncWaiter"* %0, i64 0, i32 0
  %11 = load %"class.blink::test::mojom::blink::VirtualAuthenticatorManager"*, %"class.blink::test::mojom::blink::VirtualAuthenticatorManager"** %10, align 8
  %12 = bitcast %"class.mojo::StructPtr.50"* %5 to i64*
  %13 = getelementptr inbounds %"class.mojo::StructPtr.50", %"class.mojo::StructPtr.50"* %5, i64 0, i32 0, i32 0, i32 0, i32 0
  %14 = bitcast %"class.mojo::StructPtr.50"* %1 to i64*
  %15 = load i64, i64* %14, align 8
  store i64 %15, i64* %12, align 8
  store i64 0, i64* %14, align 8
  %16 = ptrtoint %"class.base::RunLoop"* %4 to i64
  %17 = call i8* @_Znwm(i64 56) #12, !noalias !42
  %18 = bitcast i8* %17 to %"class.base::internal::BindStateBase"*
  call void @_ZN4base8internal13BindStateBaseC2EPFvvEPFvPKS1_E(%"class.base::internal::BindStateBase"* nonnull %18, void ()* bitcast (void (%"class.base::internal::BindStateBase"*, %"class.mojo::PendingRemote"*)* @"_ZN4base8internal7InvokerINS0_9BindStateIZN5blink4test5mojom5blink38VirtualAuthenticatorManagerAsyncWaiter19CreateAuthenticatorEN4mojo9StructPtrINS6_27VirtualAuthenticatorOptionsEEEPNS8_13PendingRemoteINS6_20VirtualAuthenticatorEEEE3$_8JPNS_7RunLoopESF_EEEFvSE_EE7RunOnceEPNS0_13BindStateBaseEOSE_" to void ()*), void (%"class.base::internal::BindStateBase"*)* nonnull @"_ZN4base8internal9BindStateIZN5blink4test5mojom5blink38VirtualAuthenticatorManagerAsyncWaiter19CreateAuthenticatorEN4mojo9StructPtrINS5_27VirtualAuthenticatorOptionsEEEPNS7_13PendingRemoteINS5_20VirtualAuthenticatorEEEE3$_8JPNS_7RunLoopESE_EE7DestroyEPKNS0_13BindStateBaseE") #11, !noalias !42
  %19 = getelementptr inbounds i8, i8* %17, i64 40
  %20 = bitcast i8* %19 to i64*
  store i64 %16, i64* %20, align 8, !noalias !42
  %21 = getelementptr inbounds i8, i8* %17, i64 48
  %22 = bitcast i8* %21 to i64*
  store i64 %8, i64* %22, align 8, !noalias !42
  %23 = bitcast %"class.base::OnceCallback.57"* %6 to i8**
  store i8* %17, i8** %23, align 8, !alias.scope !42
  %24 = bitcast %"class.blink::test::mojom::blink::VirtualAuthenticatorManager"* %11 to void (%"class.blink::test::mojom::blink::VirtualAuthenticatorManager"*, %"class.mojo::StructPtr.50"*, %"class.base::OnceCallback.57"*)***
  %25 = load void (%"class.blink::test::mojom::blink::VirtualAuthenticatorManager"*, %"class.mojo::StructPtr.50"*, %"class.base::OnceCallback.57"*)**, void (%"class.blink::test::mojom::blink::VirtualAuthenticatorManager"*, %"class.mojo::StructPtr.50"*, %"class.base::OnceCallback.57"*)*** %24, align 8
  %26 = getelementptr inbounds void (%"class.blink::test::mojom::blink::VirtualAuthenticatorManager"*, %"class.mojo::StructPtr.50"*, %"class.base::OnceCallback.57"*)*, void (%"class.blink::test::mojom::blink::VirtualAuthenticatorManager"*, %"class.mojo::StructPtr.50"*, %"class.base::OnceCallback.57"*)** %25, i64 2
  %27 = load void (%"class.blink::test::mojom::blink::VirtualAuthenticatorManager"*, %"class.mojo::StructPtr.50"*, %"class.base::OnceCallback.57"*)*, void (%"class.blink::test::mojom::blink::VirtualAuthenticatorManager"*, %"class.mojo::StructPtr.50"*, %"class.base::OnceCallback.57"*)** %26, align 8
  call void %27(%"class.blink::test::mojom::blink::VirtualAuthenticatorManager"* %11, %"class.mojo::StructPtr.50"* nonnull %5, %"class.base::OnceCallback.57"* nonnull %6) #11
  %28 = getelementptr inbounds %"class.base::OnceCallback.57", %"class.base::OnceCallback.57"* %6, i64 0, i32 0
  call void @_ZN4base8internal12CallbackBaseD2Ev(%"class.base::internal::CallbackBase"* nonnull %28) #11
  %29 = load %"class.blink::test::mojom::blink::VirtualAuthenticatorOptions"*, %"class.blink::test::mojom::blink::VirtualAuthenticatorOptions"** %13, align 8
  store %"class.blink::test::mojom::blink::VirtualAuthenticatorOptions"* null, %"class.blink::test::mojom::blink::VirtualAuthenticatorOptions"** %13, align 8
  %30 = icmp eq %"class.blink::test::mojom::blink::VirtualAuthenticatorOptions"* %29, null
  br i1 %30, label %33, label %31

31:                                               ; preds = %3
  call void @_ZN5blink4test5mojom5blink27VirtualAuthenticatorOptionsD1Ev(%"class.blink::test::mojom::blink::VirtualAuthenticatorOptions"* nonnull %29) #11
  %32 = bitcast %"class.blink::test::mojom::blink::VirtualAuthenticatorOptions"* %29 to i8*
  call void @_ZdlPv(i8* %32) #12
  br label %33

33:                                               ; preds = %3, %31
  %34 = bitcast %"class.base::Location"* %7 to i8*
  call void @llvm.lifetime.start.p0i8(i64 32, i8* nonnull %34) #11
  call void @_ZN4base8Location7CurrentEPKcS2_i(%"class.base::Location"* nonnull sret %7, i8* getelementptr inbounds ([20 x i8], [20 x i8]* @.str.9, i64 0, i64 0), i8* getelementptr inbounds ([92 x i8], [92 x i8]* @.str.1, i64 0, i64 0), i32 209) #11
  call void @_ZN4base7RunLoop3RunERKNS_8LocationE(%"class.base::RunLoop"* nonnull %4, %"class.base::Location"* nonnull dereferenceable(32) %7) #11
  call void @llvm.lifetime.end.p0i8(i64 32, i8* nonnull %34) #11
  call void @_ZN4base7RunLoopD1Ev(%"class.base::RunLoop"* nonnull %4) #11
  call void @llvm.lifetime.end.p0i8(i64 48, i8* nonnull %9) #11
  ret void
}

; Function Attrs: nounwind ssp uwtable
define hidden void @_ZN5blink4test5mojom5blink38VirtualAuthenticatorManagerAsyncWaiter17GetAuthenticatorsEPN3WTF6VectorIN4mojo13PendingRemoteINS2_20VirtualAuthenticatorEEELj0ENS4_18PartitionAllocatorEEE(%"class.blink::test::mojom::blink::VirtualAuthenticatorManagerAsyncWaiter"* nocapture readonly, %"class.WTF::Vector.61"*) local_unnamed_addr #0 align 2 {
  %3 = alloca %"class.base::RunLoop", align 8
  %4 = alloca %"class.base::OnceCallback.58", align 8
  %5 = alloca %"class.base::Location", align 8
  %6 = ptrtoint %"class.WTF::Vector.61"* %1 to i64
  %7 = bitcast %"class.base::RunLoop"* %3 to i8*
  call void @llvm.lifetime.start.p0i8(i64 48, i8* nonnull %7) #11
  call void @llvm.memset.p0i8.i64(i8* nonnull align 8 %7, i8 -86, i64 48, i1 false)
  call void @_ZN4base7RunLoopC1ENS0_4TypeE(%"class.base::RunLoop"* nonnull %3, i32 0) #11
  %8 = getelementptr inbounds %"class.blink::test::mojom::blink::VirtualAuthenticatorManagerAsyncWaiter", %"class.blink::test::mojom::blink::VirtualAuthenticatorManagerAsyncWaiter"* %0, i64 0, i32 0
  %9 = load %"class.blink::test::mojom::blink::VirtualAuthenticatorManager"*, %"class.blink::test::mojom::blink::VirtualAuthenticatorManager"** %8, align 8
  %10 = ptrtoint %"class.base::RunLoop"* %3 to i64
  %11 = call i8* @_Znwm(i64 56) #12, !noalias !47
  %12 = bitcast i8* %11 to %"class.base::internal::BindStateBase"*
  call void @_ZN4base8internal13BindStateBaseC2EPFvvEPFvPKS1_E(%"class.base::internal::BindStateBase"* nonnull %12, void ()* bitcast (void (%"class.base::internal::BindStateBase"*, %"class.WTF::Vector.61"*)* @"_ZN4base8internal7InvokerINS0_9BindStateIZN5blink4test5mojom5blink38VirtualAuthenticatorManagerAsyncWaiter17GetAuthenticatorsEPN3WTF6VectorIN4mojo13PendingRemoteINS6_20VirtualAuthenticatorEEELj0ENS8_18PartitionAllocatorEEEE3$_9JPNS_7RunLoopESG_EEEFvSF_EE7RunOnceEPNS0_13BindStateBaseEOSF_" to void ()*), void (%"class.base::internal::BindStateBase"*)* nonnull @"_ZN4base8internal9BindStateIZN5blink4test5mojom5blink38VirtualAuthenticatorManagerAsyncWaiter17GetAuthenticatorsEPN3WTF6VectorIN4mojo13PendingRemoteINS5_20VirtualAuthenticatorEEELj0ENS7_18PartitionAllocatorEEEE3$_9JPNS_7RunLoopESF_EE7DestroyEPKNS0_13BindStateBaseE") #11, !noalias !47
  %13 = getelementptr inbounds i8, i8* %11, i64 40
  %14 = bitcast i8* %13 to i64*
  store i64 %10, i64* %14, align 8, !noalias !47
  %15 = getelementptr inbounds i8, i8* %11, i64 48
  %16 = bitcast i8* %15 to i64*
  store i64 %6, i64* %16, align 8, !noalias !47
  %17 = bitcast %"class.base::OnceCallback.58"* %4 to i8**
  store i8* %11, i8** %17, align 8, !alias.scope !47
  %18 = bitcast %"class.blink::test::mojom::blink::VirtualAuthenticatorManager"* %9 to void (%"class.blink::test::mojom::blink::VirtualAuthenticatorManager"*, %"class.base::OnceCallback.58"*)***
  %19 = load void (%"class.blink::test::mojom::blink::VirtualAuthenticatorManager"*, %"class.base::OnceCallback.58"*)**, void (%"class.blink::test::mojom::blink::VirtualAuthenticatorManager"*, %"class.base::OnceCallback.58"*)*** %18, align 8
  %20 = getelementptr inbounds void (%"class.blink::test::mojom::blink::VirtualAuthenticatorManager"*, %"class.base::OnceCallback.58"*)*, void (%"class.blink::test::mojom::blink::VirtualAuthenticatorManager"*, %"class.base::OnceCallback.58"*)** %19, i64 3
  %21 = load void (%"class.blink::test::mojom::blink::VirtualAuthenticatorManager"*, %"class.base::OnceCallback.58"*)*, void (%"class.blink::test::mojom::blink::VirtualAuthenticatorManager"*, %"class.base::OnceCallback.58"*)** %20, align 8
  call void %21(%"class.blink::test::mojom::blink::VirtualAuthenticatorManager"* %9, %"class.base::OnceCallback.58"* nonnull %4) #11
  %22 = getelementptr inbounds %"class.base::OnceCallback.58", %"class.base::OnceCallback.58"* %4, i64 0, i32 0
  call void @_ZN4base8internal12CallbackBaseD2Ev(%"class.base::internal::CallbackBase"* nonnull %22) #11
  %23 = bitcast %"class.base::Location"* %5 to i8*
  call void @llvm.lifetime.start.p0i8(i64 32, i8* nonnull %23) #11
  call void @_ZN4base8Location7CurrentEPKcS2_i(%"class.base::Location"* nonnull sret %5, i8* getelementptr inbounds ([18 x i8], [18 x i8]* @.str.10, i64 0, i64 0), i8* getelementptr inbounds ([92 x i8], [92 x i8]* @.str.1, i64 0, i64 0), i32 224) #11
  call void @_ZN4base7RunLoop3RunERKNS_8LocationE(%"class.base::RunLoop"* nonnull %3, %"class.base::Location"* nonnull dereferenceable(32) %5) #11
  call void @llvm.lifetime.end.p0i8(i64 32, i8* nonnull %23) #11
  call void @_ZN4base7RunLoopD1Ev(%"class.base::RunLoop"* nonnull %3) #11
  call void @llvm.lifetime.end.p0i8(i64 48, i8* nonnull %7) #11
  ret void
}

; Function Attrs: nounwind ssp uwtable
define hidden void @_ZN5blink4test5mojom5blink38VirtualAuthenticatorManagerAsyncWaiter19RemoveAuthenticatorERKN3WTF6StringEPb(%"class.blink::test::mojom::blink::VirtualAuthenticatorManagerAsyncWaiter"* nocapture readonly, %"class.WTF::String"* dereferenceable(8), i8*) local_unnamed_addr #0 align 2 {
  %4 = alloca %"class.base::RunLoop", align 8
  %5 = alloca %"class.base::OnceCallback.8", align 8
  %6 = alloca %"class.base::Location", align 8
  %7 = ptrtoint i8* %2 to i64
  %8 = bitcast %"class.base::RunLoop"* %4 to i8*
  call void @llvm.lifetime.start.p0i8(i64 48, i8* nonnull %8) #11
  call void @llvm.memset.p0i8.i64(i8* nonnull align 8 %8, i8 -86, i64 48, i1 false)
  call void @_ZN4base7RunLoopC1ENS0_4TypeE(%"class.base::RunLoop"* nonnull %4, i32 0) #11
  %9 = getelementptr inbounds %"class.blink::test::mojom::blink::VirtualAuthenticatorManagerAsyncWaiter", %"class.blink::test::mojom::blink::VirtualAuthenticatorManagerAsyncWaiter"* %0, i64 0, i32 0
  %10 = load %"class.blink::test::mojom::blink::VirtualAuthenticatorManager"*, %"class.blink::test::mojom::blink::VirtualAuthenticatorManager"** %9, align 8
  %11 = ptrtoint %"class.base::RunLoop"* %4 to i64
  %12 = call i8* @_Znwm(i64 56) #12, !noalias !52
  %13 = bitcast i8* %12 to %"class.base::internal::BindStateBase"*
  call void @_ZN4base8internal13BindStateBaseC2EPFvvEPFvPKS1_E(%"class.base::internal::BindStateBase"* nonnull %13, void ()* bitcast (void (%"class.base::internal::BindStateBase"*, i1)* @"_ZN4base8internal7InvokerINS0_9BindStateIZN5blink4test5mojom5blink38VirtualAuthenticatorManagerAsyncWaiter19RemoveAuthenticatorERKN3WTF6StringEPbE4$_10JPNS_7RunLoopESC_EEEFvbEE7RunOnceEPNS0_13BindStateBaseEb" to void ()*), void (%"class.base::internal::BindStateBase"*)* nonnull @"_ZN4base8internal9BindStateIZN5blink4test5mojom5blink38VirtualAuthenticatorManagerAsyncWaiter19RemoveAuthenticatorERKN3WTF6StringEPbE4$_10JPNS_7RunLoopESB_EE7DestroyEPKNS0_13BindStateBaseE") #11, !noalias !52
  %14 = getelementptr inbounds i8, i8* %12, i64 40
  %15 = bitcast i8* %14 to i64*
  store i64 %11, i64* %15, align 8, !noalias !52
  %16 = getelementptr inbounds i8, i8* %12, i64 48
  %17 = bitcast i8* %16 to i64*
  store i64 %7, i64* %17, align 8, !noalias !52
  %18 = bitcast %"class.base::OnceCallback.8"* %5 to i8**
  store i8* %12, i8** %18, align 8, !alias.scope !52
  %19 = bitcast %"class.blink::test::mojom::blink::VirtualAuthenticatorManager"* %10 to void (%"class.blink::test::mojom::blink::VirtualAuthenticatorManager"*, %"class.WTF::String"*, %"class.base::OnceCallback.8"*)***
  %20 = load void (%"class.blink::test::mojom::blink::VirtualAuthenticatorManager"*, %"class.WTF::String"*, %"class.base::OnceCallback.8"*)**, void (%"class.blink::test::mojom::blink::VirtualAuthenticatorManager"*, %"class.WTF::String"*, %"class.base::OnceCallback.8"*)*** %19, align 8
  %21 = getelementptr inbounds void (%"class.blink::test::mojom::blink::VirtualAuthenticatorManager"*, %"class.WTF::String"*, %"class.base::OnceCallback.8"*)*, void (%"class.blink::test::mojom::blink::VirtualAuthenticatorManager"*, %"class.WTF::String"*, %"class.base::OnceCallback.8"*)** %20, i64 4
  %22 = load void (%"class.blink::test::mojom::blink::VirtualAuthenticatorManager"*, %"class.WTF::String"*, %"class.base::OnceCallback.8"*)*, void (%"class.blink::test::mojom::blink::VirtualAuthenticatorManager"*, %"class.WTF::String"*, %"class.base::OnceCallback.8"*)** %21, align 8
  call void %22(%"class.blink::test::mojom::blink::VirtualAuthenticatorManager"* %10, %"class.WTF::String"* dereferenceable(8) %1, %"class.base::OnceCallback.8"* nonnull %5) #11
  %23 = getelementptr inbounds %"class.base::OnceCallback.8", %"class.base::OnceCallback.8"* %5, i64 0, i32 0
  call void @_ZN4base8internal12CallbackBaseD2Ev(%"class.base::internal::CallbackBase"* nonnull %23) #11
  %24 = bitcast %"class.base::Location"* %6 to i8*
  call void @llvm.lifetime.start.p0i8(i64 32, i8* nonnull %24) #11
  call void @_ZN4base8Location7CurrentEPKcS2_i(%"class.base::Location"* nonnull sret %6, i8* getelementptr inbounds ([20 x i8], [20 x i8]* @.str.11, i64 0, i64 0), i8* getelementptr inbounds ([92 x i8], [92 x i8]* @.str.1, i64 0, i64 0), i32 239) #11
  call void @_ZN4base7RunLoop3RunERKNS_8LocationE(%"class.base::RunLoop"* nonnull %4, %"class.base::Location"* nonnull dereferenceable(32) %6) #11
  call void @llvm.lifetime.end.p0i8(i64 32, i8* nonnull %24) #11
  call void @_ZN4base7RunLoopD1Ev(%"class.base::RunLoop"* nonnull %4) #11
  call void @llvm.lifetime.end.p0i8(i64 48, i8* nonnull %8) #11
  ret void
}

; Function Attrs: nounwind ssp uwtable
define hidden void @_ZN5blink4test5mojom5blink38VirtualAuthenticatorManagerAsyncWaiter19ClearAuthenticatorsEv(%"class.blink::test::mojom::blink::VirtualAuthenticatorManagerAsyncWaiter"* nocapture readonly) local_unnamed_addr #0 align 2 {
  %2 = alloca %"class.base::RunLoop", align 8
  %3 = alloca %"class.base::OnceCallback.10", align 8
  %4 = alloca %"class.base::Location", align 8
  %5 = bitcast %"class.base::RunLoop"* %2 to i8*
  call void @llvm.lifetime.start.p0i8(i64 48, i8* nonnull %5) #11
  call void @llvm.memset.p0i8.i64(i8* nonnull align 8 %5, i8 -86, i64 48, i1 false)
  call void @_ZN4base7RunLoopC1ENS0_4TypeE(%"class.base::RunLoop"* nonnull %2, i32 0) #11
  %6 = getelementptr inbounds %"class.blink::test::mojom::blink::VirtualAuthenticatorManagerAsyncWaiter", %"class.blink::test::mojom::blink::VirtualAuthenticatorManagerAsyncWaiter"* %0, i64 0, i32 0
  %7 = load %"class.blink::test::mojom::blink::VirtualAuthenticatorManager"*, %"class.blink::test::mojom::blink::VirtualAuthenticatorManager"** %6, align 8
  %8 = ptrtoint %"class.base::RunLoop"* %2 to i64
  %9 = call i8* @_Znwm(i64 48) #12, !noalias !57
  %10 = bitcast i8* %9 to %"class.base::internal::BindStateBase"*
  call void @_ZN4base8internal13BindStateBaseC2EPFvvEPFvPKS1_E(%"class.base::internal::BindStateBase"* nonnull %10, void ()* bitcast (void (%"class.base::internal::BindStateBase"*)* @"_ZN4base8internal7InvokerINS0_9BindStateIZN5blink4test5mojom5blink38VirtualAuthenticatorManagerAsyncWaiter19ClearAuthenticatorsEvE4$_11JPNS_7RunLoopEEEEFvvEE7RunOnceEPNS0_13BindStateBaseE" to void ()*), void (%"class.base::internal::BindStateBase"*)* nonnull @"_ZN4base8internal9BindStateIZN5blink4test5mojom5blink38VirtualAuthenticatorManagerAsyncWaiter19ClearAuthenticatorsEvE4$_11JPNS_7RunLoopEEE7DestroyEPKNS0_13BindStateBaseE") #11, !noalias !57
  %11 = getelementptr inbounds i8, i8* %9, i64 40
  %12 = bitcast i8* %11 to i64*
  store i64 %8, i64* %12, align 8, !noalias !57
  %13 = bitcast %"class.base::OnceCallback.10"* %3 to i8**
  store i8* %9, i8** %13, align 8, !alias.scope !57
  %14 = bitcast %"class.blink::test::mojom::blink::VirtualAuthenticatorManager"* %7 to void (%"class.blink::test::mojom::blink::VirtualAuthenticatorManager"*, %"class.base::OnceCallback.10"*)***
  %15 = load void (%"class.blink::test::mojom::blink::VirtualAuthenticatorManager"*, %"class.base::OnceCallback.10"*)**, void (%"class.blink::test::mojom::blink::VirtualAuthenticatorManager"*, %"class.base::OnceCallback.10"*)*** %14, align 8
  %16 = getelementptr inbounds void (%"class.blink::test::mojom::blink::VirtualAuthenticatorManager"*, %"class.base::OnceCallback.10"*)*, void (%"class.blink::test::mojom::blink::VirtualAuthenticatorManager"*, %"class.base::OnceCallback.10"*)** %15, i64 5
  %17 = load void (%"class.blink::test::mojom::blink::VirtualAuthenticatorManager"*, %"class.base::OnceCallback.10"*)*, void (%"class.blink::test::mojom::blink::VirtualAuthenticatorManager"*, %"class.base::OnceCallback.10"*)** %16, align 8
  call void %17(%"class.blink::test::mojom::blink::VirtualAuthenticatorManager"* %7, %"class.base::OnceCallback.10"* nonnull %3) #11
  %18 = getelementptr inbounds %"class.base::OnceCallback.10", %"class.base::OnceCallback.10"* %3, i64 0, i32 0
  call void @_ZN4base8internal12CallbackBaseD2Ev(%"class.base::internal::CallbackBase"* nonnull %18) #11
  %19 = bitcast %"class.base::Location"* %4 to i8*
  call void @llvm.lifetime.start.p0i8(i64 32, i8* nonnull %19) #11
  call void @_ZN4base8Location7CurrentEPKcS2_i(%"class.base::Location"* nonnull sret %4, i8* getelementptr inbounds ([20 x i8], [20 x i8]* @.str.12, i64 0, i64 0), i8* getelementptr inbounds ([92 x i8], [92 x i8]* @.str.1, i64 0, i64 0), i32 250) #11
  call void @_ZN4base7RunLoop3RunERKNS_8LocationE(%"class.base::RunLoop"* nonnull %2, %"class.base::Location"* nonnull dereferenceable(32) %4) #11
  call void @llvm.lifetime.end.p0i8(i64 32, i8* nonnull %19) #11
  call void @_ZN4base7RunLoopD1Ev(%"class.base::RunLoop"* nonnull %2) #11
  call void @llvm.lifetime.end.p0i8(i64 48, i8* nonnull %5) #11
  ret void
}

; Function Attrs: nounwind ssp uwtable
define linkonce_odr hidden void @_ZN5blink4test5mojom5blink20VirtualAuthenticatorD2Ev(%"class.blink::test::mojom::blink::VirtualAuthenticator"*) unnamed_addr #0 comdat align 2 {
  ret void
}

; Function Attrs: inlinehint nounwind ssp uwtable
define linkonce_odr hidden void @_ZN5blink4test5mojom5blink41VirtualAuthenticatorInterceptorForTestingD0Ev(%"class.blink::test::mojom::blink::VirtualAuthenticatorInterceptorForTesting"*) unnamed_addr #6 comdat align 2 {
  tail call void @llvm.trap() #13
  unreachable
}

declare void @__cxa_pure_virtual() unnamed_addr

; Function Attrs: nounwind ssp uwtable
define linkonce_odr hidden void @_ZN5blink4test5mojom5blink27VirtualAuthenticatorManagerD2Ev(%"class.blink::test::mojom::blink::VirtualAuthenticatorManager"*) unnamed_addr #0 comdat align 2 {
  ret void
}

; Function Attrs: inlinehint nounwind ssp uwtable
define linkonce_odr hidden void @_ZN5blink4test5mojom5blink48VirtualAuthenticatorManagerInterceptorForTestingD0Ev(%"class.blink::test::mojom::blink::VirtualAuthenticatorManagerInterceptorForTesting"*) unnamed_addr #6 comdat align 2 {
  tail call void @llvm.trap() #13
  unreachable
}

; Function Attrs: nounwind
declare void @_ZN5blink4test5mojom5blink13RegisteredKeyD1Ev(%"class.blink::test::mojom::blink::RegisteredKey"*) unnamed_addr #1

; Function Attrs: nobuiltin nounwind
declare void @_ZdlPv(i8*) local_unnamed_addr #7

; Function Attrs: nounwind
declare void @_ZN5blink4test5mojom5blink27VirtualAuthenticatorOptionsD1Ev(%"class.blink::test::mojom::blink::VirtualAuthenticatorOptions"*) unnamed_addr #1

; Function Attrs: cold noreturn nounwind
declare void @llvm.trap() #8

; Function Attrs: nounwind ssp uwtable
define internal void @"_ZN4base8internal7InvokerINS0_9BindStateIZN5blink4test5mojom5blink31VirtualAuthenticatorAsyncWaiter11GetUniqueIdEPN3WTF6StringEE3$_0JPNS_7RunLoopESA_EEEFvRKS9_EE7RunOnceEPNS0_13BindStateBaseESG_"(%"class.base::internal::BindStateBase"* nocapture readonly, %"class.WTF::String"* nocapture readonly dereferenceable(8)) #0 align 2 {
  %3 = getelementptr inbounds %"class.base::internal::BindStateBase", %"class.base::internal::BindStateBase"* %0, i64 1, i32 1
  %4 = bitcast void ()** %3 to %"class.base::RunLoop"**
  %5 = getelementptr inbounds void ()*, void ()** %3, i64 1
  %6 = bitcast void ()** %5 to %"class.WTF::String"**
  %7 = load %"class.base::RunLoop"*, %"class.base::RunLoop"** %4, align 8
  %8 = load %"class.WTF::String"*, %"class.WTF::String"** %6, align 8
  %9 = getelementptr inbounds %"class.WTF::String", %"class.WTF::String"* %1, i64 0, i32 0, i32 0
  %10 = load %"class.WTF::StringImpl"*, %"class.WTF::StringImpl"** %9, align 8
  %11 = icmp eq %"class.WTF::StringImpl"* %10, null
  br i1 %11, label %29, label %12

12:                                               ; preds = %2
  %13 = getelementptr inbounds %"class.WTF::StringImpl", %"class.WTF::StringImpl"* %10, i64 0, i32 2, i32 0, i32 0, i32 0, i32 0, i32 0
  %14 = load atomic i32, i32* %13 monotonic, align 4
  %15 = and i32 %14, 2
  %16 = icmp eq i32 %15, 0
  br i1 %16, label %17, label %29

17:                                               ; preds = %12
  %18 = getelementptr inbounds %"class.WTF::StringImpl", %"class.WTF::StringImpl"* %10, i64 0, i32 0
  %19 = load i32, i32* %18, align 4
  %20 = zext i32 %19 to i33
  %21 = tail call { i33, i1 } @llvm.sadd.with.overflow.i33(i33 %20, i33 1) #11
  %22 = extractvalue { i33, i1 } %21, 1
  %23 = extractvalue { i33, i1 } %21, 0
  %24 = icmp slt i33 %23, 0
  %25 = or i1 %22, %24
  br i1 %25, label %26, label %27, !prof !62

26:                                               ; preds = %17
  tail call void @llvm.trap() #11
  unreachable

27:                                               ; preds = %17
  %28 = trunc i33 %23 to i32
  store i32 %28, i32* %18, align 4
  br label %29

29:                                               ; preds = %27, %12, %2
  %30 = ptrtoint %"class.WTF::StringImpl"* %10 to i64
  %31 = bitcast %"class.WTF::String"* %8 to i64*
  %32 = getelementptr inbounds %"class.WTF::String", %"class.WTF::String"* %8, i64 0, i32 0, i32 0
  %33 = load %"class.WTF::StringImpl"*, %"class.WTF::StringImpl"** %32, align 8
  store i64 %30, i64* %31, align 8
  %34 = icmp eq %"class.WTF::StringImpl"* %33, null
  br i1 %34, label %48, label %35

35:                                               ; preds = %29
  %36 = getelementptr inbounds %"class.WTF::StringImpl", %"class.WTF::StringImpl"* %33, i64 0, i32 2, i32 0, i32 0, i32 0, i32 0, i32 0
  %37 = load atomic i32, i32* %36 monotonic, align 4
  %38 = and i32 %37, 2
  %39 = icmp eq i32 %38, 0
  %40 = getelementptr inbounds %"class.WTF::StringImpl", %"class.WTF::StringImpl"* %33, i64 0, i32 0
  %41 = load i32, i32* %40, align 4
  br i1 %39, label %42, label %44

42:                                               ; preds = %35
  %43 = add i32 %41, -1
  store i32 %43, i32* %40, align 4
  br label %44

44:                                               ; preds = %42, %35
  %45 = phi i32 [ %43, %42 ], [ %41, %35 ]
  %46 = icmp eq i32 %45, 0
  br i1 %46, label %47, label %48

47:                                               ; preds = %44
  tail call void @_ZNK3WTF10StringImpl18DestroyIfNotStaticEv(%"class.WTF::StringImpl"* nonnull %33) #11
  br label %48

48:                                               ; preds = %29, %44, %47
  tail call void @_ZN4base7RunLoop4QuitEv(%"class.base::RunLoop"* %7) #11
  ret void
}

declare void @_ZN4base7RunLoop4QuitEv(%"class.base::RunLoop"*) local_unnamed_addr #5

declare void @_ZNK3WTF10StringImpl18DestroyIfNotStaticEv(%"class.WTF::StringImpl"*) local_unnamed_addr #5

; Function Attrs: nounwind readnone speculatable
declare { i33, i1 } @llvm.sadd.with.overflow.i33(i33, i33) #9

; Function Attrs: nobuiltin nofree
declare noalias nonnull i8* @_Znwm(i64) local_unnamed_addr #10

; Function Attrs: nounwind ssp uwtable
define internal void @"_ZN4base8internal9BindStateIZN5blink4test5mojom5blink31VirtualAuthenticatorAsyncWaiter11GetUniqueIdEPN3WTF6StringEE3$_0JPNS_7RunLoopES9_EE7DestroyEPKNS0_13BindStateBaseE"(%"class.base::internal::BindStateBase"*) #0 align 2 {
  %2 = icmp eq %"class.base::internal::BindStateBase"* %0, null
  br i1 %2, label %5, label %3

3:                                                ; preds = %1
  %4 = bitcast %"class.base::internal::BindStateBase"* %0 to i8*
  tail call void @_ZdlPv(i8* %4) #12
  br label %5

5:                                                ; preds = %3, %1
  ret void
}

declare void @_ZN4base8internal13BindStateBaseC2EPFvvEPFvPKS1_E(%"class.base::internal::BindStateBase"*, void ()*, void (%"class.base::internal::BindStateBase"*)*) unnamed_addr #5

; Function Attrs: nounwind ssp uwtable
define internal void @"_ZN4base8internal7InvokerINS0_9BindStateIZN5blink4test5mojom5blink31VirtualAuthenticatorAsyncWaiter15AddRegistrationEN4mojo9StructPtrINS6_13RegisteredKeyEEEPbE3$_1JPNS_7RunLoopESC_EEEFvbEE7RunOnceEPNS0_13BindStateBaseEb"(%"class.base::internal::BindStateBase"* nocapture readonly, i1 zeroext) #0 align 2 {
  %3 = zext i1 %1 to i8
  %4 = getelementptr inbounds %"class.base::internal::BindStateBase", %"class.base::internal::BindStateBase"* %0, i64 1, i32 1
  %5 = bitcast void ()** %4 to %"class.base::RunLoop"**
  %6 = getelementptr inbounds void ()*, void ()** %4, i64 1
  %7 = bitcast void ()** %6 to i8**
  %8 = load %"class.base::RunLoop"*, %"class.base::RunLoop"** %5, align 8
  %9 = load i8*, i8** %7, align 8
  store i8 %3, i8* %9, align 1
  tail call void @_ZN4base7RunLoop4QuitEv(%"class.base::RunLoop"* %8) #11
  ret void
}

; Function Attrs: nounwind ssp uwtable
define internal void @"_ZN4base8internal9BindStateIZN5blink4test5mojom5blink31VirtualAuthenticatorAsyncWaiter15AddRegistrationEN4mojo9StructPtrINS5_13RegisteredKeyEEEPbE3$_1JPNS_7RunLoopESB_EE7DestroyEPKNS0_13BindStateBaseE"(%"class.base::internal::BindStateBase"*) #0 align 2 {
  %2 = icmp eq %"class.base::internal::BindStateBase"* %0, null
  br i1 %2, label %5, label %3

3:                                                ; preds = %1
  %4 = bitcast %"class.base::internal::BindStateBase"* %0 to i8*
  tail call void @_ZdlPv(i8* %4) #12
  br label %5

5:                                                ; preds = %3, %1
  ret void
}

; Function Attrs: nounwind ssp uwtable
define internal void @"_ZN4base8internal7InvokerINS0_9BindStateIZN5blink4test5mojom5blink31VirtualAuthenticatorAsyncWaiter16GetRegistrationsEPN3WTF6VectorIN4mojo9StructPtrINS6_13RegisteredKeyEEELj0ENS8_18PartitionAllocatorEEEE3$_2JPNS_7RunLoopESG_EEEFvSF_EE7RunOnceEPNS0_13BindStateBaseEOSF_"(%"class.base::internal::BindStateBase"* nocapture readonly, %"class.WTF::Vector.33"* nocapture dereferenceable(16)) #0 align 2 {
  %3 = getelementptr inbounds %"class.base::internal::BindStateBase", %"class.base::internal::BindStateBase"* %0, i64 1, i32 1
  %4 = bitcast void ()** %3 to %"class.base::RunLoop"**
  %5 = getelementptr inbounds void ()*, void ()** %3, i64 1
  %6 = bitcast void ()** %5 to %"class.WTF::Vector.33"**
  %7 = load %"class.base::RunLoop"*, %"class.base::RunLoop"** %4, align 8
  %8 = load %"class.WTF::Vector.33"*, %"class.WTF::Vector.33"** %6, align 8
  %9 = bitcast %"class.WTF::Vector.33"* %1 to i64*
  %10 = load i64, i64* %9, align 8
  store atomic i64 0, i64* %9 monotonic, align 8
  %11 = getelementptr inbounds %"class.WTF::Vector.33", %"class.WTF::Vector.33"* %1, i64 0, i32 0, i32 0, i32 1
  %12 = load i32, i32* %11, align 4
  store i32 0, i32* %11, align 4
  %13 = getelementptr inbounds %"class.WTF::Vector.33", %"class.WTF::Vector.33"* %1, i64 0, i32 0, i32 0, i32 2
  %14 = load i32, i32* %13, align 4
  store i32 0, i32* %13, align 4
  %15 = bitcast %"class.WTF::Vector.33"* %8 to i64*
  %16 = load i64, i64* %15, align 8
  store atomic i64 %10, i64* %15 monotonic, align 8
  %17 = getelementptr inbounds %"class.WTF::Vector.33", %"class.WTF::Vector.33"* %8, i64 0, i32 0, i32 0, i32 1
  store i32 %12, i32* %17, align 4
  %18 = getelementptr inbounds %"class.WTF::Vector.33", %"class.WTF::Vector.33"* %8, i64 0, i32 0, i32 0, i32 2
  %19 = load i32, i32* %18, align 4
  store i32 %14, i32* %18, align 4
  tail call void @_ZN4base7RunLoop4QuitEv(%"class.base::RunLoop"* %7) #11
  %20 = inttoptr i64 %16 to %"class.mojo::StructPtr"*
  %21 = icmp eq i64 %16, 0
  br i1 %21, label %39, label %22, !prof !63

22:                                               ; preds = %2
  %23 = icmp eq i32 %19, 0
  br i1 %23, label %37, label %24, !prof !62

24:                                               ; preds = %22
  %25 = zext i32 %19 to i64
  %26 = getelementptr inbounds %"class.mojo::StructPtr", %"class.mojo::StructPtr"* %20, i64 %25
  br label %27

27:                                               ; preds = %34, %24
  %28 = phi %"class.mojo::StructPtr"* [ %35, %34 ], [ %20, %24 ]
  %29 = getelementptr inbounds %"class.mojo::StructPtr", %"class.mojo::StructPtr"* %28, i64 0, i32 0, i32 0, i32 0, i32 0
  %30 = load %"class.blink::test::mojom::blink::RegisteredKey"*, %"class.blink::test::mojom::blink::RegisteredKey"** %29, align 8
  store %"class.blink::test::mojom::blink::RegisteredKey"* null, %"class.blink::test::mojom::blink::RegisteredKey"** %29, align 8
  %31 = icmp eq %"class.blink::test::mojom::blink::RegisteredKey"* %30, null
  br i1 %31, label %34, label %32

32:                                               ; preds = %27
  tail call void @_ZN5blink4test5mojom5blink13RegisteredKeyD1Ev(%"class.blink::test::mojom::blink::RegisteredKey"* nonnull %30) #11
  %33 = bitcast %"class.blink::test::mojom::blink::RegisteredKey"* %30 to i8*
  tail call void @_ZdlPv(i8* %33) #12
  br label %34

34:                                               ; preds = %32, %27
  %35 = getelementptr inbounds %"class.mojo::StructPtr", %"class.mojo::StructPtr"* %28, i64 1
  %36 = icmp eq %"class.mojo::StructPtr"* %35, %26
  br i1 %36, label %37, label %27

37:                                               ; preds = %34, %22
  %38 = inttoptr i64 %16 to i8*
  tail call void @_ZN3WTF18PartitionAllocator11FreeBackingEPv(i8* %38) #11
  br label %39

39:                                               ; preds = %2, %37
  ret void
}

declare void @_ZN3WTF18PartitionAllocator11FreeBackingEPv(i8*) local_unnamed_addr #5

; Function Attrs: nounwind ssp uwtable
define internal void @"_ZN4base8internal9BindStateIZN5blink4test5mojom5blink31VirtualAuthenticatorAsyncWaiter16GetRegistrationsEPN3WTF6VectorIN4mojo9StructPtrINS5_13RegisteredKeyEEELj0ENS7_18PartitionAllocatorEEEE3$_2JPNS_7RunLoopESF_EE7DestroyEPKNS0_13BindStateBaseE"(%"class.base::internal::BindStateBase"*) #0 align 2 {
  %2 = icmp eq %"class.base::internal::BindStateBase"* %0, null
  br i1 %2, label %5, label %3

3:                                                ; preds = %1
  %4 = bitcast %"class.base::internal::BindStateBase"* %0 to i8*
  tail call void @_ZdlPv(i8* %4) #12
  br label %5

5:                                                ; preds = %3, %1
  ret void
}

; Function Attrs: nounwind ssp uwtable
define internal void @"_ZN4base8internal7InvokerINS0_9BindStateIZN5blink4test5mojom5blink31VirtualAuthenticatorAsyncWaiter18RemoveRegistrationERKN3WTF6VectorIhLj0ENS8_18PartitionAllocatorEEEPbE3$_3JPNS_7RunLoopESE_EEEFvbEE7RunOnceEPNS0_13BindStateBaseEb"(%"class.base::internal::BindStateBase"* nocapture readonly, i1 zeroext) #0 align 2 {
  %3 = zext i1 %1 to i8
  %4 = getelementptr inbounds %"class.base::internal::BindStateBase", %"class.base::internal::BindStateBase"* %0, i64 1, i32 1
  %5 = bitcast void ()** %4 to %"class.base::RunLoop"**
  %6 = getelementptr inbounds void ()*, void ()** %4, i64 1
  %7 = bitcast void ()** %6 to i8**
  %8 = load %"class.base::RunLoop"*, %"class.base::RunLoop"** %5, align 8
  %9 = load i8*, i8** %7, align 8
  store i8 %3, i8* %9, align 1
  tail call void @_ZN4base7RunLoop4QuitEv(%"class.base::RunLoop"* %8) #11
  ret void
}

; Function Attrs: nounwind ssp uwtable
define internal void @"_ZN4base8internal9BindStateIZN5blink4test5mojom5blink31VirtualAuthenticatorAsyncWaiter18RemoveRegistrationERKN3WTF6VectorIhLj0ENS7_18PartitionAllocatorEEEPbE3$_3JPNS_7RunLoopESD_EE7DestroyEPKNS0_13BindStateBaseE"(%"class.base::internal::BindStateBase"*) #0 align 2 {
  %2 = icmp eq %"class.base::internal::BindStateBase"* %0, null
  br i1 %2, label %5, label %3

3:                                                ; preds = %1
  %4 = bitcast %"class.base::internal::BindStateBase"* %0 to i8*
  tail call void @_ZdlPv(i8* %4) #12
  br label %5

5:                                                ; preds = %3, %1
  ret void
}

; Function Attrs: nounwind ssp uwtable
define internal void @"_ZN4base8internal7InvokerINS0_9BindStateIZN5blink4test5mojom5blink31VirtualAuthenticatorAsyncWaiter18ClearRegistrationsEvE3$_4JPNS_7RunLoopEEEEFvvEE7RunOnceEPNS0_13BindStateBaseE"(%"class.base::internal::BindStateBase"* nocapture readonly) #0 align 2 {
  %2 = getelementptr inbounds %"class.base::internal::BindStateBase", %"class.base::internal::BindStateBase"* %0, i64 1, i32 1
  %3 = bitcast void ()** %2 to %"class.base::RunLoop"**
  %4 = load %"class.base::RunLoop"*, %"class.base::RunLoop"** %3, align 8
  tail call void @_ZN4base7RunLoop4QuitEv(%"class.base::RunLoop"* %4) #11
  ret void
}

; Function Attrs: nounwind ssp uwtable
define internal void @"_ZN4base8internal9BindStateIZN5blink4test5mojom5blink31VirtualAuthenticatorAsyncWaiter18ClearRegistrationsEvE3$_4JPNS_7RunLoopEEE7DestroyEPKNS0_13BindStateBaseE"(%"class.base::internal::BindStateBase"*) #0 align 2 {
  %2 = icmp eq %"class.base::internal::BindStateBase"* %0, null
  br i1 %2, label %5, label %3

3:                                                ; preds = %1
  %4 = bitcast %"class.base::internal::BindStateBase"* %0 to i8*
  tail call void @_ZdlPv(i8* %4) #12
  br label %5

5:                                                ; preds = %3, %1
  ret void
}

; Function Attrs: nounwind ssp uwtable
define internal void @"_ZN4base8internal7InvokerINS0_9BindStateIZN5blink4test5mojom5blink31VirtualAuthenticatorAsyncWaiter12GetLargeBlobERKN3WTF6VectorIhLj0ENS8_18PartitionAllocatorEEEPN4absl8optionalISB_EEE3$_5JPNS_7RunLoopESH_EEEFvRKSG_EE7RunOnceEPNS0_13BindStateBaseESN_"(%"class.base::internal::BindStateBase"* nocapture readonly, %"class.absl::optional"* dereferenceable(24)) #0 align 2 {
  %3 = getelementptr inbounds %"class.base::internal::BindStateBase", %"class.base::internal::BindStateBase"* %0, i64 1, i32 1
  %4 = bitcast void ()** %3 to %"class.base::RunLoop"**
  %5 = getelementptr inbounds void ()*, void ()** %3, i64 1
  %6 = bitcast void ()** %5 to %"class.absl::optional"**
  %7 = load %"class.base::RunLoop"*, %"class.base::RunLoop"** %4, align 8
  %8 = load %"class.absl::optional"*, %"class.absl::optional"** %6, align 8
  %9 = getelementptr inbounds %"class.absl::optional", %"class.absl::optional"* %8, i64 0, i32 0
  %10 = getelementptr inbounds %"class.absl::optional", %"class.absl::optional"* %1, i64 0, i32 0
  %11 = tail call dereferenceable(24) %"class.absl::optional_internal::optional_data"* @_ZN4absl17optional_internal13optional_dataIN3WTF6VectorIhLj0ENS2_18PartitionAllocatorEEELb0EEaSERKS6_(%"class.absl::optional_internal::optional_data"* %9, %"class.absl::optional_internal::optional_data"* dereferenceable(24) %10) #11
  tail call void @_ZN4base7RunLoop4QuitEv(%"class.base::RunLoop"* %7) #11
  ret void
}

; Function Attrs: nounwind ssp uwtable
define linkonce_odr hidden dereferenceable(24) %"class.absl::optional_internal::optional_data"* @_ZN4absl17optional_internal13optional_dataIN3WTF6VectorIhLj0ENS2_18PartitionAllocatorEEELb0EEaSERKS6_(%"class.absl::optional_internal::optional_data"*, %"class.absl::optional_internal::optional_data"* dereferenceable(24)) local_unnamed_addr #0 comdat align 2 {
  %3 = getelementptr inbounds %"class.absl::optional_internal::optional_data", %"class.absl::optional_internal::optional_data"* %1, i64 0, i32 0, i32 0, i32 0
  %4 = load i8, i8* %3, align 8, !range !64
  %5 = icmp eq i8 %4, 0
  br i1 %5, label %41, label %6

6:                                                ; preds = %2
  %7 = getelementptr inbounds %"class.absl::optional_internal::optional_data", %"class.absl::optional_internal::optional_data"* %1, i64 0, i32 0, i32 0, i32 1, i32 0
  %8 = getelementptr inbounds %"class.absl::optional_internal::optional_data", %"class.absl::optional_internal::optional_data"* %0, i64 0, i32 0, i32 0, i32 0
  %9 = load i8, i8* %8, align 8, !range !64
  %10 = icmp eq i8 %9, 0
  %11 = getelementptr inbounds %"class.absl::optional_internal::optional_data", %"class.absl::optional_internal::optional_data"* %0, i64 0, i32 0, i32 0, i32 1, i32 0
  br i1 %10, label %14, label %12

12:                                               ; preds = %6
  %13 = tail call dereferenceable(16) %"class.WTF::Vector"* @_ZN3WTF6VectorIhLj0ENS_18PartitionAllocatorEEaSERKS2_(%"class.WTF::Vector"* %11, %"class.WTF::Vector"* dereferenceable(16) %7) #11
  br label %56

14:                                               ; preds = %6
  %15 = getelementptr inbounds %"class.absl::optional_internal::optional_data", %"class.absl::optional_internal::optional_data"* %1, i64 0, i32 0, i32 0, i32 1, i32 0, i32 0, i32 0, i32 1
  %16 = load i32, i32* %15, align 8
  %17 = getelementptr inbounds %"class.WTF::Vector", %"class.WTF::Vector"* %11, i64 0, i32 0, i32 0, i32 0
  store i8* null, i8** %17, align 8
  %18 = getelementptr inbounds %"class.absl::optional_internal::optional_data", %"class.absl::optional_internal::optional_data"* %0, i64 0, i32 0, i32 0, i32 1, i32 0, i32 0, i32 0, i32 1
  store i32 0, i32* %18, align 8
  %19 = icmp eq i32 %16, 0
  br i1 %19, label %27, label %20

20:                                               ; preds = %14
  %21 = zext i32 %16 to i64
  %22 = tail call i64 @_ZN3WTF18PartitionAllocator13QuantizedSizeIhEEmm(i64 %21) #11
  %23 = tail call i8* @_ZN3WTF18PartitionAllocator15AllocateBackingEmPKc(i64 %22, i8* getelementptr inbounds ([61 x i8], [61 x i8]* @__PRETTY_FUNCTION__._ZN3WTF21GetStringWithTypeNameIhEEPKcv, i64 0, i64 0)) #11
  %24 = ptrtoint i8* %23 to i64
  %25 = bitcast %"class.WTF::Vector"* %11 to i64*
  store atomic i64 %24, i64* %25 monotonic, align 8
  %26 = trunc i64 %22 to i32
  store i32 %26, i32* %18, align 8
  br label %27

27:                                               ; preds = %20, %14
  %28 = phi i8* [ null, %14 ], [ %23, %20 ]
  %29 = getelementptr inbounds %"class.absl::optional_internal::optional_data", %"class.absl::optional_internal::optional_data"* %1, i64 0, i32 0, i32 0, i32 1, i32 0, i32 0, i32 0, i32 2
  %30 = load i32, i32* %29, align 4
  %31 = getelementptr inbounds %"class.absl::optional_internal::optional_data", %"class.absl::optional_internal::optional_data"* %0, i64 0, i32 0, i32 0, i32 1, i32 0, i32 0, i32 0, i32 2
  store i32 %30, i32* %31, align 4
  %32 = getelementptr inbounds %"class.WTF::Vector", %"class.WTF::Vector"* %7, i64 0, i32 0, i32 0, i32 0
  %33 = load i8*, i8** %32, align 8
  %34 = icmp ne i8* %28, null
  %35 = icmp ne i8* %33, null
  %36 = and i1 %34, %35
  br i1 %36, label %37, label %40, !prof !63

37:                                               ; preds = %27
  %38 = load i32, i32* %29, align 4
  %39 = zext i32 %38 to i64
  tail call void @llvm.memcpy.p0i8.p0i8.i64(i8* nonnull align 1 %28, i8* nonnull align 1 %33, i64 %39, i1 false) #11
  br label %40

40:                                               ; preds = %37, %27
  store i8 1, i8* %8, align 8
  br label %56

41:                                               ; preds = %2
  %42 = getelementptr inbounds %"class.absl::optional_internal::optional_data", %"class.absl::optional_internal::optional_data"* %0, i64 0, i32 0, i32 0, i32 0
  %43 = load i8, i8* %42, align 8, !range !64
  %44 = icmp eq i8 %43, 0
  br i1 %44, label %56, label %45

45:                                               ; preds = %41
  %46 = getelementptr inbounds %"class.absl::optional_internal::optional_data", %"class.absl::optional_internal::optional_data"* %0, i64 0, i32 0, i32 0, i32 1, i32 0, i32 0, i32 0, i32 0
  %47 = load i8*, i8** %46, align 8
  %48 = icmp eq i8* %47, null
  br i1 %48, label %55, label %49, !prof !63

49:                                               ; preds = %45
  %50 = getelementptr inbounds %"class.absl::optional_internal::optional_data", %"class.absl::optional_internal::optional_data"* %0, i64 0, i32 0, i32 0, i32 1, i32 0, i32 0, i32 0, i32 2
  %51 = load i32, i32* %50, align 4
  %52 = icmp eq i32 %51, 0
  br i1 %52, label %54, label %53, !prof !62

53:                                               ; preds = %49
  store i32 0, i32* %50, align 4
  br label %54

54:                                               ; preds = %53, %49
  tail call void @_ZN3WTF18PartitionAllocator11FreeBackingEPv(i8* nonnull %47) #11
  store i8* null, i8** %46, align 8
  br label %55

55:                                               ; preds = %54, %45
  store i8 0, i8* %42, align 8
  br label %56

56:                                               ; preds = %55, %41, %40, %12
  ret %"class.absl::optional_internal::optional_data"* %0
}

; Function Attrs: nounwind ssp uwtable
define linkonce_odr hidden dereferenceable(16) %"class.WTF::Vector"* @_ZN3WTF6VectorIhLj0ENS_18PartitionAllocatorEEaSERKS2_(%"class.WTF::Vector"*, %"class.WTF::Vector"* dereferenceable(16)) local_unnamed_addr #0 comdat align 2 {
  %3 = icmp eq %"class.WTF::Vector"* %1, %0
  br i1 %3, label %79, label %4, !prof !62

4:                                                ; preds = %2
  %5 = getelementptr inbounds %"class.WTF::Vector", %"class.WTF::Vector"* %0, i64 0, i32 0, i32 0, i32 2
  %6 = load i32, i32* %5, align 4
  %7 = getelementptr inbounds %"class.WTF::Vector", %"class.WTF::Vector"* %1, i64 0, i32 0, i32 0, i32 2
  %8 = load i32, i32* %7, align 4
  %9 = icmp ugt i32 %6, %8
  br i1 %9, label %10, label %11

10:                                               ; preds = %4
  store i32 %8, i32* %5, align 4
  br label %54

11:                                               ; preds = %4
  %12 = getelementptr inbounds %"class.WTF::Vector", %"class.WTF::Vector"* %0, i64 0, i32 0, i32 0, i32 1
  %13 = load i32, i32* %12, align 8
  %14 = icmp ugt i32 %8, %13
  br i1 %14, label %15, label %54

15:                                               ; preds = %11
  %16 = icmp eq i32 %13, 0
  br i1 %16, label %26, label %17

17:                                               ; preds = %15
  %18 = icmp eq i32 %6, 0
  br i1 %18, label %20, label %19

19:                                               ; preds = %17
  store i32 0, i32* %5, align 4
  br label %20

20:                                               ; preds = %19, %17
  %21 = getelementptr inbounds %"class.WTF::Vector", %"class.WTF::Vector"* %0, i64 0, i32 0, i32 0, i32 0
  %22 = load i8*, i8** %21, align 8
  %23 = bitcast %"class.WTF::Vector"* %0 to i64*
  store atomic i64 0, i64* %23 monotonic, align 8
  store i32 0, i32* %12, align 8
  tail call void @_ZN3WTF18PartitionAllocator11FreeBackingEPv(i8* %22) #11
  %24 = load i32, i32* %7, align 4
  %25 = load i32, i32* %12, align 8
  br label %26

26:                                               ; preds = %15, %20
  %27 = phi i32 [ 0, %15 ], [ %25, %20 ]
  %28 = phi i32 [ %8, %15 ], [ %24, %20 ]
  %29 = icmp ult i32 %27, %28
  br i1 %29, label %30, label %54, !prof !63

30:                                               ; preds = %26
  %31 = getelementptr inbounds %"class.WTF::Vector", %"class.WTF::Vector"* %0, i64 0, i32 0, i32 0, i32 0
  %32 = load i8*, i8** %31, align 8
  %33 = icmp eq i8* %32, null
  %34 = zext i32 %28 to i64
  %35 = tail call i64 @_ZN3WTF18PartitionAllocator13QuantizedSizeIhEEmm(i64 %34) #11
  %36 = tail call i8* @_ZN3WTF18PartitionAllocator15AllocateBackingEmPKc(i64 %35, i8* getelementptr inbounds ([61 x i8], [61 x i8]* @__PRETTY_FUNCTION__._ZN3WTF21GetStringWithTypeNameIhEEPKcv, i64 0, i64 0)) #11
  %37 = ptrtoint i8* %36 to i64
  br i1 %33, label %38, label %41

38:                                               ; preds = %30
  %39 = bitcast %"class.WTF::Vector"* %0 to i64*
  store atomic i64 %37, i64* %39 monotonic, align 8
  %40 = trunc i64 %35 to i32
  store i32 %40, i32* %12, align 8
  br label %54

41:                                               ; preds = %30
  %42 = load i8*, i8** %31, align 8
  %43 = icmp ne i8* %36, null
  %44 = icmp ne i8* %42, null
  %45 = and i1 %43, %44
  br i1 %45, label %46, label %50, !prof !63

46:                                               ; preds = %41
  %47 = load i32, i32* %5, align 4
  %48 = zext i32 %47 to i64
  tail call void @llvm.memcpy.p0i8.p0i8.i64(i8* nonnull align 1 %36, i8* nonnull align 1 %42, i64 %48, i1 false) #11
  %49 = load i8*, i8** %31, align 8
  br label %50

50:                                               ; preds = %46, %41
  %51 = phi i8* [ %42, %41 ], [ %49, %46 ]
  tail call void @_ZN3WTF18PartitionAllocator11FreeBackingEPv(i8* %51) #11
  %52 = bitcast %"class.WTF::Vector"* %0 to i64*
  store atomic i64 %37, i64* %52 monotonic, align 8
  %53 = trunc i64 %35 to i32
  store i32 %53, i32* %12, align 8
  br label %54

54:                                               ; preds = %50, %38, %26, %11, %10
  %55 = getelementptr inbounds %"class.WTF::Vector", %"class.WTF::Vector"* %1, i64 0, i32 0, i32 0, i32 0
  %56 = load i8*, i8** %55, align 8
  %57 = load i32, i32* %5, align 4
  %58 = zext i32 %57 to i64
  %59 = getelementptr inbounds %"class.WTF::Vector", %"class.WTF::Vector"* %0, i64 0, i32 0, i32 0, i32 0
  %60 = load i8*, i8** %59, align 8
  tail call void @llvm.memcpy.p0i8.p0i8.i64(i8* align 1 %60, i8* align 1 %56, i64 %58, i1 false) #11
  %61 = load i8*, i8** %55, align 8
  %62 = load i32, i32* %5, align 4
  %63 = zext i32 %62 to i64
  %64 = getelementptr inbounds i8, i8* %61, i64 %63
  %65 = load i8*, i8** %59, align 8
  %66 = getelementptr inbounds i8, i8* %65, i64 %63
  %67 = icmp ne i8* %66, null
  %68 = icmp ne i8* %64, null
  %69 = and i1 %68, %67
  br i1 %69, label %70, label %77, !prof !63

70:                                               ; preds = %54
  %71 = load i32, i32* %7, align 4
  %72 = zext i32 %71 to i64
  %73 = getelementptr inbounds i8, i8* %61, i64 %72
  %74 = ptrtoint i8* %73 to i64
  %75 = ptrtoint i8* %64 to i64
  %76 = sub i64 %74, %75
  tail call void @llvm.memcpy.p0i8.p0i8.i64(i8* nonnull align 1 %66, i8* nonnull align 1 %64, i64 %76, i1 false) #11
  br label %77

77:                                               ; preds = %54, %70
  %78 = load i32, i32* %7, align 4
  store i32 %78, i32* %5, align 4
  br label %79

79:                                               ; preds = %2, %77
  ret %"class.WTF::Vector"* %0
}

; Function Attrs: nounwind ssp uwtable
define linkonce_odr hidden i64 @_ZN3WTF18PartitionAllocator13QuantizedSizeIhEEmm(i64) local_unnamed_addr #0 comdat align 2 {
  %2 = alloca %"class.logging::CheckOpResult", align 8
  %3 = alloca %"class.logging::CheckOpResult", align 8
  %4 = alloca %"class.logging::CheckError", align 8
  %5 = bitcast %"class.logging::CheckOpResult"* %3 to i8*
  call void @llvm.lifetime.start.p0i8(i64 8, i8* nonnull %5) #11
  %6 = getelementptr inbounds %"class.logging::CheckOpResult", %"class.logging::CheckOpResult"* %3, i64 0, i32 0
  store i8* inttoptr (i64 -6148914691236517206 to i8*), i8** %6, align 8
  %7 = bitcast %"class.logging::CheckOpResult"* %2 to i8*
  call void @llvm.lifetime.start.p0i8(i64 8, i8* nonnull %7)
  %8 = icmp ugt i64 %0, 2145386496
  br i1 %8, label %10, label %9

9:                                                ; preds = %1
  call void @llvm.lifetime.end.p0i8(i64 8, i8* nonnull %7)
  store i8* null, i8** %6, align 8
  br label %19

10:                                               ; preds = %1
  %11 = tail call i8* @_ZN7logging15CheckOpValueStrEm(i64 %0) #11
  %12 = tail call i8* @_ZN7logging15CheckOpValueStrEm(i64 2145386496) #11
  call void @_ZN7logging13CheckOpResultC1EPKcPcS3_(%"class.logging::CheckOpResult"* nonnull %2, i8* getelementptr inbounds ([44 x i8], [44 x i8]* @.str.13, i64 0, i64 0), i8* %11, i8* %12) #11
  %13 = getelementptr inbounds %"class.logging::CheckOpResult", %"class.logging::CheckOpResult"* %2, i64 0, i32 0
  %14 = load i8*, i8** %13, align 8
  call void @llvm.lifetime.end.p0i8(i64 8, i8* nonnull %7)
  store i8* %14, i8** %6, align 8
  %15 = icmp eq i8* %14, null
  br i1 %15, label %19, label %16

16:                                               ; preds = %10
  %17 = bitcast %"class.logging::CheckError"* %4 to i8*
  call void @llvm.lifetime.start.p0i8(i64 8, i8* nonnull %17) #11
  call void @_ZN7logging10CheckError7CheckOpEPKciPNS_13CheckOpResultE(%"class.logging::CheckError"* nonnull sret %4, i8* getelementptr inbounds ([78 x i8], [78 x i8]* @.str.14, i64 0, i64 0), i32 31, %"class.logging::CheckOpResult"* nonnull %3) #11
  %18 = call dereferenceable(160) %"class.std::__1::basic_ostream"* @_ZN7logging10CheckError6streamEv(%"class.logging::CheckError"* nonnull %4) #11
  call void @_ZN7logging10CheckErrorD1Ev(%"class.logging::CheckError"* nonnull %4) #11
  call void @llvm.lifetime.end.p0i8(i64 8, i8* nonnull %17) #11
  br label %19

19:                                               ; preds = %9, %10, %16
  call void @llvm.lifetime.end.p0i8(i64 8, i8* nonnull %5) #11
  %20 = call i64 @_ZN3WTF10Partitions23BufferPotentialCapacityEm(i64 %0) #11
  ret i64 %20
}

declare void @_ZN7logging10CheckError7CheckOpEPKciPNS_13CheckOpResultE(%"class.logging::CheckError"* sret, i8*, i32, %"class.logging::CheckOpResult"*) local_unnamed_addr #5

declare dereferenceable(160) %"class.std::__1::basic_ostream"* @_ZN7logging10CheckError6streamEv(%"class.logging::CheckError"*) local_unnamed_addr #5

; Function Attrs: nounwind
declare void @_ZN7logging10CheckErrorD1Ev(%"class.logging::CheckError"*) unnamed_addr #1

declare i64 @_ZN3WTF10Partitions23BufferPotentialCapacityEm(i64) local_unnamed_addr #5

declare i8* @_ZN7logging15CheckOpValueStrEm(i64) local_unnamed_addr #5

declare void @_ZN7logging13CheckOpResultC1EPKcPcS3_(%"class.logging::CheckOpResult"*, i8*, i8*, i8*) unnamed_addr #5

; Function Attrs: argmemonly nounwind
declare void @llvm.memcpy.p0i8.p0i8.i64(i8* nocapture writeonly, i8* nocapture readonly, i64, i1 immarg) #4

declare i8* @_ZN3WTF18PartitionAllocator15AllocateBackingEmPKc(i64, i8*) local_unnamed_addr #5

; Function Attrs: nounwind ssp uwtable
define internal void @"_ZN4base8internal9BindStateIZN5blink4test5mojom5blink31VirtualAuthenticatorAsyncWaiter12GetLargeBlobERKN3WTF6VectorIhLj0ENS7_18PartitionAllocatorEEEPN4absl8optionalISA_EEE3$_5JPNS_7RunLoopESG_EE7DestroyEPKNS0_13BindStateBaseE"(%"class.base::internal::BindStateBase"*) #0 align 2 {
  %2 = icmp eq %"class.base::internal::BindStateBase"* %0, null
  br i1 %2, label %5, label %3

3:                                                ; preds = %1
  %4 = bitcast %"class.base::internal::BindStateBase"* %0 to i8*
  tail call void @_ZdlPv(i8* %4) #12
  br label %5

5:                                                ; preds = %3, %1
  ret void
}

; Function Attrs: nounwind ssp uwtable
define internal void @"_ZN4base8internal7InvokerINS0_9BindStateIZN5blink4test5mojom5blink31VirtualAuthenticatorAsyncWaiter12SetLargeBlobERKN3WTF6VectorIhLj0ENS8_18PartitionAllocatorEEESD_PbE3$_6JPNS_7RunLoopESE_EEEFvbEE7RunOnceEPNS0_13BindStateBaseEb"(%"class.base::internal::BindStateBase"* nocapture readonly, i1 zeroext) #0 align 2 {
  %3 = zext i1 %1 to i8
  %4 = getelementptr inbounds %"class.base::internal::BindStateBase", %"class.base::internal::BindStateBase"* %0, i64 1, i32 1
  %5 = bitcast void ()** %4 to %"class.base::RunLoop"**
  %6 = getelementptr inbounds void ()*, void ()** %4, i64 1
  %7 = bitcast void ()** %6 to i8**
  %8 = load %"class.base::RunLoop"*, %"class.base::RunLoop"** %5, align 8
  %9 = load i8*, i8** %7, align 8
  store i8 %3, i8* %9, align 1
  tail call void @_ZN4base7RunLoop4QuitEv(%"class.base::RunLoop"* %8) #11
  ret void
}

; Function Attrs: nounwind ssp uwtable
define internal void @"_ZN4base8internal9BindStateIZN5blink4test5mojom5blink31VirtualAuthenticatorAsyncWaiter12SetLargeBlobERKN3WTF6VectorIhLj0ENS7_18PartitionAllocatorEEESC_PbE3$_6JPNS_7RunLoopESD_EE7DestroyEPKNS0_13BindStateBaseE"(%"class.base::internal::BindStateBase"*) #0 align 2 {
  %2 = icmp eq %"class.base::internal::BindStateBase"* %0, null
  br i1 %2, label %5, label %3

3:                                                ; preds = %1
  %4 = bitcast %"class.base::internal::BindStateBase"* %0 to i8*
  tail call void @_ZdlPv(i8* %4) #12
  br label %5

5:                                                ; preds = %3, %1
  ret void
}

; Function Attrs: nounwind ssp uwtable
define internal void @"_ZN4base8internal7InvokerINS0_9BindStateIZN5blink4test5mojom5blink31VirtualAuthenticatorAsyncWaiter15SetUserVerifiedEbE3$_7JPNS_7RunLoopEEEEFvvEE7RunOnceEPNS0_13BindStateBaseE"(%"class.base::internal::BindStateBase"* nocapture readonly) #0 align 2 {
  %2 = getelementptr inbounds %"class.base::internal::BindStateBase", %"class.base::internal::BindStateBase"* %0, i64 1, i32 1
  %3 = bitcast void ()** %2 to %"class.base::RunLoop"**
  %4 = load %"class.base::RunLoop"*, %"class.base::RunLoop"** %3, align 8
  tail call void @_ZN4base7RunLoop4QuitEv(%"class.base::RunLoop"* %4) #11
  ret void
}

; Function Attrs: nounwind ssp uwtable
define internal void @"_ZN4base8internal9BindStateIZN5blink4test5mojom5blink31VirtualAuthenticatorAsyncWaiter15SetUserVerifiedEbE3$_7JPNS_7RunLoopEEE7DestroyEPKNS0_13BindStateBaseE"(%"class.base::internal::BindStateBase"*) #0 align 2 {
  %2 = icmp eq %"class.base::internal::BindStateBase"* %0, null
  br i1 %2, label %5, label %3

3:                                                ; preds = %1
  %4 = bitcast %"class.base::internal::BindStateBase"* %0 to i8*
  tail call void @_ZdlPv(i8* %4) #12
  br label %5

5:                                                ; preds = %3, %1
  ret void
}

; Function Attrs: nounwind ssp uwtable
define internal void @"_ZN4base8internal7InvokerINS0_9BindStateIZN5blink4test5mojom5blink38VirtualAuthenticatorManagerAsyncWaiter19CreateAuthenticatorEN4mojo9StructPtrINS6_27VirtualAuthenticatorOptionsEEEPNS8_13PendingRemoteINS6_20VirtualAuthenticatorEEEE3$_8JPNS_7RunLoopESF_EEEFvSE_EE7RunOnceEPNS0_13BindStateBaseEOSE_"(%"class.base::internal::BindStateBase"* nocapture readonly, %"class.mojo::PendingRemote"* dereferenceable(8)) #0 align 2 {
  %3 = alloca %"class.mojo::PendingRemote", align 4
  %4 = getelementptr inbounds %"class.base::internal::BindStateBase", %"class.base::internal::BindStateBase"* %0, i64 1, i32 1
  %5 = bitcast void ()** %4 to %"class.base::RunLoop"**
  %6 = getelementptr inbounds void ()*, void ()** %4, i64 1
  %7 = bitcast void ()** %6 to %"class.mojo::PendingRemote"**
  %8 = bitcast %"class.mojo::PendingRemote"* %3 to i8*
  call void @llvm.lifetime.start.p0i8(i64 8, i8* nonnull %8) #11
  %9 = load %"class.base::RunLoop"*, %"class.base::RunLoop"** %5, align 8
  %10 = load %"class.mojo::PendingRemote"*, %"class.mojo::PendingRemote"** %7, align 8
  %11 = getelementptr inbounds %"class.mojo::PendingRemote", %"class.mojo::PendingRemote"* %3, i64 0, i32 0
  %12 = getelementptr inbounds %"class.mojo::PendingRemote", %"class.mojo::PendingRemote"* %1, i64 0, i32 0
  call void @_ZN4mojo8internal18PendingRemoteStateC1EOS1_(%"struct.mojo::internal::PendingRemoteState"* nonnull %11, %"struct.mojo::internal::PendingRemoteState"* dereferenceable(8) %12) #11
  %13 = getelementptr inbounds %"class.mojo::PendingRemote", %"class.mojo::PendingRemote"* %10, i64 0, i32 0
  %14 = call dereferenceable(8) %"struct.mojo::internal::PendingRemoteState"* @_ZN4mojo8internal18PendingRemoteStateaSEOS1_(%"struct.mojo::internal::PendingRemoteState"* %13, %"struct.mojo::internal::PendingRemoteState"* nonnull dereferenceable(8) %11) #11
  call void @_ZN4base7RunLoop4QuitEv(%"class.base::RunLoop"* %9) #11
  call void @_ZN4mojo8internal18PendingRemoteStateD1Ev(%"struct.mojo::internal::PendingRemoteState"* nonnull %11) #11
  call void @llvm.lifetime.end.p0i8(i64 8, i8* nonnull %8) #11
  ret void
}

; Function Attrs: nounwind
declare dereferenceable(8) %"struct.mojo::internal::PendingRemoteState"* @_ZN4mojo8internal18PendingRemoteStateaSEOS1_(%"struct.mojo::internal::PendingRemoteState"*, %"struct.mojo::internal::PendingRemoteState"* dereferenceable(8)) local_unnamed_addr #1

; Function Attrs: nounwind
declare void @_ZN4mojo8internal18PendingRemoteStateC1EOS1_(%"struct.mojo::internal::PendingRemoteState"*, %"struct.mojo::internal::PendingRemoteState"* dereferenceable(8)) unnamed_addr #1

; Function Attrs: nounwind
declare void @_ZN4mojo8internal18PendingRemoteStateD1Ev(%"struct.mojo::internal::PendingRemoteState"*) unnamed_addr #1

; Function Attrs: nounwind ssp uwtable
define internal void @"_ZN4base8internal9BindStateIZN5blink4test5mojom5blink38VirtualAuthenticatorManagerAsyncWaiter19CreateAuthenticatorEN4mojo9StructPtrINS5_27VirtualAuthenticatorOptionsEEEPNS7_13PendingRemoteINS5_20VirtualAuthenticatorEEEE3$_8JPNS_7RunLoopESE_EE7DestroyEPKNS0_13BindStateBaseE"(%"class.base::internal::BindStateBase"*) #0 align 2 {
  %2 = icmp eq %"class.base::internal::BindStateBase"* %0, null
  br i1 %2, label %5, label %3

3:                                                ; preds = %1
  %4 = bitcast %"class.base::internal::BindStateBase"* %0 to i8*
  tail call void @_ZdlPv(i8* %4) #12
  br label %5

5:                                                ; preds = %3, %1
  ret void
}

; Function Attrs: nounwind ssp uwtable
define internal void @"_ZN4base8internal7InvokerINS0_9BindStateIZN5blink4test5mojom5blink38VirtualAuthenticatorManagerAsyncWaiter17GetAuthenticatorsEPN3WTF6VectorIN4mojo13PendingRemoteINS6_20VirtualAuthenticatorEEELj0ENS8_18PartitionAllocatorEEEE3$_9JPNS_7RunLoopESG_EEEFvSF_EE7RunOnceEPNS0_13BindStateBaseEOSF_"(%"class.base::internal::BindStateBase"* nocapture readonly, %"class.WTF::Vector.61"* nocapture dereferenceable(16)) #0 align 2 {
  %3 = getelementptr inbounds %"class.base::internal::BindStateBase", %"class.base::internal::BindStateBase"* %0, i64 1, i32 1
  %4 = bitcast void ()** %3 to %"class.base::RunLoop"**
  %5 = getelementptr inbounds void ()*, void ()** %3, i64 1
  %6 = bitcast void ()** %5 to %"class.WTF::Vector.61"**
  %7 = load %"class.base::RunLoop"*, %"class.base::RunLoop"** %4, align 8
  %8 = load %"class.WTF::Vector.61"*, %"class.WTF::Vector.61"** %6, align 8
  %9 = bitcast %"class.WTF::Vector.61"* %1 to i64*
  %10 = load i64, i64* %9, align 8
  store atomic i64 0, i64* %9 monotonic, align 8
  %11 = getelementptr inbounds %"class.WTF::Vector.61", %"class.WTF::Vector.61"* %1, i64 0, i32 0, i32 0, i32 1
  %12 = load i32, i32* %11, align 4
  store i32 0, i32* %11, align 4
  %13 = getelementptr inbounds %"class.WTF::Vector.61", %"class.WTF::Vector.61"* %1, i64 0, i32 0, i32 0, i32 2
  %14 = load i32, i32* %13, align 4
  store i32 0, i32* %13, align 4
  %15 = bitcast %"class.WTF::Vector.61"* %8 to i64*
  %16 = load i64, i64* %15, align 8
  store atomic i64 %10, i64* %15 monotonic, align 8
  %17 = getelementptr inbounds %"class.WTF::Vector.61", %"class.WTF::Vector.61"* %8, i64 0, i32 0, i32 0, i32 1
  store i32 %12, i32* %17, align 4
  %18 = getelementptr inbounds %"class.WTF::Vector.61", %"class.WTF::Vector.61"* %8, i64 0, i32 0, i32 0, i32 2
  %19 = load i32, i32* %18, align 4
  store i32 %14, i32* %18, align 4
  tail call void @_ZN4base7RunLoop4QuitEv(%"class.base::RunLoop"* %7) #11
  %20 = inttoptr i64 %16 to %"class.mojo::PendingRemote"*
  %21 = icmp eq i64 %16, 0
  br i1 %21, label %34, label %22, !prof !63

22:                                               ; preds = %2
  %23 = icmp eq i32 %19, 0
  br i1 %23, label %32, label %24, !prof !62

24:                                               ; preds = %22
  %25 = zext i32 %19 to i64
  %26 = getelementptr inbounds %"class.mojo::PendingRemote", %"class.mojo::PendingRemote"* %20, i64 %25
  br label %27

27:                                               ; preds = %27, %24
  %28 = phi %"class.mojo::PendingRemote"* [ %30, %27 ], [ %20, %24 ]
  %29 = getelementptr inbounds %"class.mojo::PendingRemote", %"class.mojo::PendingRemote"* %28, i64 0, i32 0
  tail call void @_ZN4mojo8internal18PendingRemoteStateD1Ev(%"struct.mojo::internal::PendingRemoteState"* %29) #11
  %30 = getelementptr inbounds %"class.mojo::PendingRemote", %"class.mojo::PendingRemote"* %28, i64 1
  %31 = icmp eq %"class.mojo::PendingRemote"* %30, %26
  br i1 %31, label %32, label %27

32:                                               ; preds = %27, %22
  %33 = inttoptr i64 %16 to i8*
  tail call void @_ZN3WTF18PartitionAllocator11FreeBackingEPv(i8* %33) #11
  br label %34

34:                                               ; preds = %2, %32
  ret void
}

; Function Attrs: nounwind ssp uwtable
define internal void @"_ZN4base8internal9BindStateIZN5blink4test5mojom5blink38VirtualAuthenticatorManagerAsyncWaiter17GetAuthenticatorsEPN3WTF6VectorIN4mojo13PendingRemoteINS5_20VirtualAuthenticatorEEELj0ENS7_18PartitionAllocatorEEEE3$_9JPNS_7RunLoopESF_EE7DestroyEPKNS0_13BindStateBaseE"(%"class.base::internal::BindStateBase"*) #0 align 2 {
  %2 = icmp eq %"class.base::internal::BindStateBase"* %0, null
  br i1 %2, label %5, label %3

3:                                                ; preds = %1
  %4 = bitcast %"class.base::internal::BindStateBase"* %0 to i8*
  tail call void @_ZdlPv(i8* %4) #12
  br label %5

5:                                                ; preds = %3, %1
  ret void
}

; Function Attrs: nounwind ssp uwtable
define internal void @"_ZN4base8internal7InvokerINS0_9BindStateIZN5blink4test5mojom5blink38VirtualAuthenticatorManagerAsyncWaiter19RemoveAuthenticatorERKN3WTF6StringEPbE4$_10JPNS_7RunLoopESC_EEEFvbEE7RunOnceEPNS0_13BindStateBaseEb"(%"class.base::internal::BindStateBase"* nocapture readonly, i1 zeroext) #0 align 2 {
  %3 = zext i1 %1 to i8
  %4 = getelementptr inbounds %"class.base::internal::BindStateBase", %"class.base::internal::BindStateBase"* %0, i64 1, i32 1
  %5 = bitcast void ()** %4 to %"class.base::RunLoop"**
  %6 = getelementptr inbounds void ()*, void ()** %4, i64 1
  %7 = bitcast void ()** %6 to i8**
  %8 = load %"class.base::RunLoop"*, %"class.base::RunLoop"** %5, align 8
  %9 = load i8*, i8** %7, align 8
  store i8 %3, i8* %9, align 1
  tail call void @_ZN4base7RunLoop4QuitEv(%"class.base::RunLoop"* %8) #11
  ret void
}

; Function Attrs: nounwind ssp uwtable
define internal void @"_ZN4base8internal9BindStateIZN5blink4test5mojom5blink38VirtualAuthenticatorManagerAsyncWaiter19RemoveAuthenticatorERKN3WTF6StringEPbE4$_10JPNS_7RunLoopESB_EE7DestroyEPKNS0_13BindStateBaseE"(%"class.base::internal::BindStateBase"*) #0 align 2 {
  %2 = icmp eq %"class.base::internal::BindStateBase"* %0, null
  br i1 %2, label %5, label %3

3:                                                ; preds = %1
  %4 = bitcast %"class.base::internal::BindStateBase"* %0 to i8*
  tail call void @_ZdlPv(i8* %4) #12
  br label %5

5:                                                ; preds = %3, %1
  ret void
}

; Function Attrs: nounwind ssp uwtable
define internal void @"_ZN4base8internal7InvokerINS0_9BindStateIZN5blink4test5mojom5blink38VirtualAuthenticatorManagerAsyncWaiter19ClearAuthenticatorsEvE4$_11JPNS_7RunLoopEEEEFvvEE7RunOnceEPNS0_13BindStateBaseE"(%"class.base::internal::BindStateBase"* nocapture readonly) #0 align 2 {
  %2 = getelementptr inbounds %"class.base::internal::BindStateBase", %"class.base::internal::BindStateBase"* %0, i64 1, i32 1
  %3 = bitcast void ()** %2 to %"class.base::RunLoop"**
  %4 = load %"class.base::RunLoop"*, %"class.base::RunLoop"** %3, align 8
  tail call void @_ZN4base7RunLoop4QuitEv(%"class.base::RunLoop"* %4) #11
  ret void
}

; Function Attrs: nounwind ssp uwtable
define internal void @"_ZN4base8internal9BindStateIZN5blink4test5mojom5blink38VirtualAuthenticatorManagerAsyncWaiter19ClearAuthenticatorsEvE4$_11JPNS_7RunLoopEEE7DestroyEPKNS0_13BindStateBaseE"(%"class.base::internal::BindStateBase"*) #0 align 2 {
  %2 = icmp eq %"class.base::internal::BindStateBase"* %0, null
  br i1 %2, label %5, label %3

3:                                                ; preds = %1
  %4 = bitcast %"class.base::internal::BindStateBase"* %0 to i8*
  tail call void @_ZdlPv(i8* %4) #12
  br label %5

5:                                                ; preds = %3, %1
  ret void
}

attributes #0 = { nounwind ssp uwtable "correctly-rounded-divide-sqrt-fp-math"="false" "disable-tail-calls"="false" "less-precise-fpmad"="false" "min-legal-vector-width"="0" "no-frame-pointer-elim"="false" "no-frame-pointer-elim-non-leaf" "no-infs-fp-math"="false" "no-jump-tables"="false" "no-nans-fp-math"="false" "no-signed-zeros-fp-math"="false" "no-trapping-math"="false" "null-pointer-is-valid"="true" "stack-protector-buffer-size"="4" "target-cpu"="x86-64" "target-features"="+cx8,+fxsr,+mmx,+sse,+sse2,+sse3,+x87" "unsafe-fp-math"="false" "use-soft-float"="false" }
attributes #1 = { nounwind "correctly-rounded-divide-sqrt-fp-math"="false" "disable-tail-calls"="false" "less-precise-fpmad"="false" "no-frame-pointer-elim"="false" "no-frame-pointer-elim-non-leaf" "no-infs-fp-math"="false" "no-nans-fp-math"="false" "no-signed-zeros-fp-math"="false" "no-trapping-math"="false" "null-pointer-is-valid"="true" "stack-protector-buffer-size"="4" "target-cpu"="x86-64" "target-features"="+cx8,+fxsr,+mmx,+sse,+sse2,+sse3,+x87" "unsafe-fp-math"="false" "use-soft-float"="false" }
attributes #2 = { nofree norecurse nounwind ssp uwtable writeonly "correctly-rounded-divide-sqrt-fp-math"="false" "disable-tail-calls"="false" "less-precise-fpmad"="false" "min-legal-vector-width"="0" "no-frame-pointer-elim"="false" "no-frame-pointer-elim-non-leaf" "no-infs-fp-math"="false" "no-jump-tables"="false" "no-nans-fp-math"="false" "no-signed-zeros-fp-math"="false" "no-trapping-math"="false" "null-pointer-is-valid"="true" "stack-protector-buffer-size"="4" "target-cpu"="x86-64" "target-features"="+cx8,+fxsr,+mmx,+sse,+sse2,+sse3,+x87" "unsafe-fp-math"="false" "use-soft-float"="false" }
attributes #3 = { norecurse nounwind readnone ssp uwtable "correctly-rounded-divide-sqrt-fp-math"="false" "disable-tail-calls"="false" "less-precise-fpmad"="false" "min-legal-vector-width"="0" "no-frame-pointer-elim"="false" "no-frame-pointer-elim-non-leaf" "no-infs-fp-math"="false" "no-jump-tables"="false" "no-nans-fp-math"="false" "no-signed-zeros-fp-math"="false" "no-trapping-math"="false" "null-pointer-is-valid"="true" "stack-protector-buffer-size"="4" "target-cpu"="x86-64" "target-features"="+cx8,+fxsr,+mmx,+sse,+sse2,+sse3,+x87" "unsafe-fp-math"="false" "use-soft-float"="false" }
attributes #4 = { argmemonly nounwind }
attributes #5 = { "correctly-rounded-divide-sqrt-fp-math"="false" "disable-tail-calls"="false" "less-precise-fpmad"="false" "no-frame-pointer-elim"="false" "no-frame-pointer-elim-non-leaf" "no-infs-fp-math"="false" "no-nans-fp-math"="false" "no-signed-zeros-fp-math"="false" "no-trapping-math"="false" "null-pointer-is-valid"="true" "stack-protector-buffer-size"="4" "target-cpu"="x86-64" "target-features"="+cx8,+fxsr,+mmx,+sse,+sse2,+sse3,+x87" "unsafe-fp-math"="false" "use-soft-float"="false" }
attributes #6 = { inlinehint nounwind ssp uwtable "correctly-rounded-divide-sqrt-fp-math"="false" "disable-tail-calls"="false" "less-precise-fpmad"="false" "min-legal-vector-width"="0" "no-frame-pointer-elim"="false" "no-frame-pointer-elim-non-leaf" "no-infs-fp-math"="false" "no-jump-tables"="false" "no-nans-fp-math"="false" "no-signed-zeros-fp-math"="false" "no-trapping-math"="false" "null-pointer-is-valid"="true" "stack-protector-buffer-size"="4" "target-cpu"="x86-64" "target-features"="+cx8,+fxsr,+mmx,+sse,+sse2,+sse3,+x87" "unsafe-fp-math"="false" "use-soft-float"="false" }
attributes #7 = { nobuiltin nounwind "correctly-rounded-divide-sqrt-fp-math"="false" "disable-tail-calls"="false" "less-precise-fpmad"="false" "no-frame-pointer-elim"="false" "no-frame-pointer-elim-non-leaf" "no-infs-fp-math"="false" "no-nans-fp-math"="false" "no-signed-zeros-fp-math"="false" "no-trapping-math"="false" "null-pointer-is-valid"="true" "stack-protector-buffer-size"="4" "target-cpu"="x86-64" "target-features"="+cx8,+fxsr,+mmx,+sse,+sse2,+sse3,+x87" "unsafe-fp-math"="false" "use-soft-float"="false" }
attributes #8 = { cold noreturn nounwind }
attributes #9 = { nounwind readnone speculatable }
attributes #10 = { nobuiltin nofree "correctly-rounded-divide-sqrt-fp-math"="false" "disable-tail-calls"="false" "less-precise-fpmad"="false" "no-frame-pointer-elim"="false" "no-frame-pointer-elim-non-leaf" "no-infs-fp-math"="false" "no-nans-fp-math"="false" "no-signed-zeros-fp-math"="false" "no-trapping-math"="false" "null-pointer-is-valid"="true" "stack-protector-buffer-size"="4" "target-cpu"="x86-64" "target-features"="+cx8,+fxsr,+mmx,+sse,+sse2,+sse3,+x87" "unsafe-fp-math"="false" "use-soft-float"="false" }
attributes #11 = { nounwind }
attributes #12 = { builtin nounwind }
attributes #13 = { noreturn nounwind }

!llvm.module.flags = !{!0, !1}

!0 = !{i32 1, !"wchar_size", i32 4}
!1 = !{i32 7, !"PIC Level", i32 2}
!2 = !{!3, !5}
!3 = distinct !{!3, !4, !"_ZN4base8internal8BindImplINS_12OnceCallbackEZN5blink4test5mojom5blink31VirtualAuthenticatorAsyncWaiter11GetUniqueIdEPN3WTF6StringEE3$_0JPNS_7RunLoopERSA_EEEDcOT0_DpOT1_: argument 0"}
!4 = distinct !{!4, !"_ZN4base8internal8BindImplINS_12OnceCallbackEZN5blink4test5mojom5blink31VirtualAuthenticatorAsyncWaiter11GetUniqueIdEPN3WTF6StringEE3$_0JPNS_7RunLoopERSA_EEEDcOT0_DpOT1_"}
!5 = distinct !{!5, !6, !"_ZN4base8BindOnceIZN5blink4test5mojom5blink31VirtualAuthenticatorAsyncWaiter11GetUniqueIdEPN3WTF6StringEE3$_0JPNS_7RunLoopERS8_EEENS_12OnceCallbackINS_8internal14BindTypeHelperIT_JDpT0_EE14UnboundRunTypeEEEOSG_DpOSH_: argument 0"}
!6 = distinct !{!6, !"_ZN4base8BindOnceIZN5blink4test5mojom5blink31VirtualAuthenticatorAsyncWaiter11GetUniqueIdEPN3WTF6StringEE3$_0JPNS_7RunLoopERS8_EEENS_12OnceCallbackINS_8internal14BindTypeHelperIT_JDpT0_EE14UnboundRunTypeEEEOSG_DpOSH_"}
!7 = !{!8, !10}
!8 = distinct !{!8, !9, !"_ZN4base8internal8BindImplINS_12OnceCallbackEZN5blink4test5mojom5blink31VirtualAuthenticatorAsyncWaiter15AddRegistrationEN4mojo9StructPtrINS6_13RegisteredKeyEEEPbE3$_1JPNS_7RunLoopERSC_EEEDcOT0_DpOT1_: argument 0"}
!9 = distinct !{!9, !"_ZN4base8internal8BindImplINS_12OnceCallbackEZN5blink4test5mojom5blink31VirtualAuthenticatorAsyncWaiter15AddRegistrationEN4mojo9StructPtrINS6_13RegisteredKeyEEEPbE3$_1JPNS_7RunLoopERSC_EEEDcOT0_DpOT1_"}
!10 = distinct !{!10, !11, !"_ZN4base8BindOnceIZN5blink4test5mojom5blink31VirtualAuthenticatorAsyncWaiter15AddRegistrationEN4mojo9StructPtrINS4_13RegisteredKeyEEEPbE3$_1JPNS_7RunLoopERSA_EEENS_12OnceCallbackINS_8internal14BindTypeHelperIT_JDpT0_EE14UnboundRunTypeEEEOSI_DpOSJ_: argument 0"}
!11 = distinct !{!11, !"_ZN4base8BindOnceIZN5blink4test5mojom5blink31VirtualAuthenticatorAsyncWaiter15AddRegistrationEN4mojo9StructPtrINS4_13RegisteredKeyEEEPbE3$_1JPNS_7RunLoopERSA_EEENS_12OnceCallbackINS_8internal14BindTypeHelperIT_JDpT0_EE14UnboundRunTypeEEEOSI_DpOSJ_"}
!12 = !{!13, !15}
!13 = distinct !{!13, !14, !"_ZN4base8internal8BindImplINS_12OnceCallbackEZN5blink4test5mojom5blink31VirtualAuthenticatorAsyncWaiter16GetRegistrationsEPN3WTF6VectorIN4mojo9StructPtrINS6_13RegisteredKeyEEELj0ENS8_18PartitionAllocatorEEEE3$_2JPNS_7RunLoopERSG_EEEDcOT0_DpOT1_: argument 0"}
!14 = distinct !{!14, !"_ZN4base8internal8BindImplINS_12OnceCallbackEZN5blink4test5mojom5blink31VirtualAuthenticatorAsyncWaiter16GetRegistrationsEPN3WTF6VectorIN4mojo9StructPtrINS6_13RegisteredKeyEEELj0ENS8_18PartitionAllocatorEEEE3$_2JPNS_7RunLoopERSG_EEEDcOT0_DpOT1_"}
!15 = distinct !{!15, !16, !"_ZN4base8BindOnceIZN5blink4test5mojom5blink31VirtualAuthenticatorAsyncWaiter16GetRegistrationsEPN3WTF6VectorIN4mojo9StructPtrINS4_13RegisteredKeyEEELj0ENS6_18PartitionAllocatorEEEE3$_2JPNS_7RunLoopERSE_EEENS_12OnceCallbackINS_8internal14BindTypeHelperIT_JDpT0_EE14UnboundRunTypeEEEOSM_DpOSN_: argument 0"}
!16 = distinct !{!16, !"_ZN4base8BindOnceIZN5blink4test5mojom5blink31VirtualAuthenticatorAsyncWaiter16GetRegistrationsEPN3WTF6VectorIN4mojo9StructPtrINS4_13RegisteredKeyEEELj0ENS6_18PartitionAllocatorEEEE3$_2JPNS_7RunLoopERSE_EEENS_12OnceCallbackINS_8internal14BindTypeHelperIT_JDpT0_EE14UnboundRunTypeEEEOSM_DpOSN_"}
!17 = !{!18, !20}
!18 = distinct !{!18, !19, !"_ZN4base8internal8BindImplINS_12OnceCallbackEZN5blink4test5mojom5blink31VirtualAuthenticatorAsyncWaiter18RemoveRegistrationERKN3WTF6VectorIhLj0ENS8_18PartitionAllocatorEEEPbE3$_3JPNS_7RunLoopERSE_EEEDcOT0_DpOT1_: argument 0"}
!19 = distinct !{!19, !"_ZN4base8internal8BindImplINS_12OnceCallbackEZN5blink4test5mojom5blink31VirtualAuthenticatorAsyncWaiter18RemoveRegistrationERKN3WTF6VectorIhLj0ENS8_18PartitionAllocatorEEEPbE3$_3JPNS_7RunLoopERSE_EEEDcOT0_DpOT1_"}
!20 = distinct !{!20, !21, !"_ZN4base8BindOnceIZN5blink4test5mojom5blink31VirtualAuthenticatorAsyncWaiter18RemoveRegistrationERKN3WTF6VectorIhLj0ENS6_18PartitionAllocatorEEEPbE3$_3JPNS_7RunLoopERSC_EEENS_12OnceCallbackINS_8internal14BindTypeHelperIT_JDpT0_EE14UnboundRunTypeEEEOSK_DpOSL_: argument 0"}
!21 = distinct !{!21, !"_ZN4base8BindOnceIZN5blink4test5mojom5blink31VirtualAuthenticatorAsyncWaiter18RemoveRegistrationERKN3WTF6VectorIhLj0ENS6_18PartitionAllocatorEEEPbE3$_3JPNS_7RunLoopERSC_EEENS_12OnceCallbackINS_8internal14BindTypeHelperIT_JDpT0_EE14UnboundRunTypeEEEOSK_DpOSL_"}
!22 = !{!23, !25}
!23 = distinct !{!23, !24, !"_ZN4base8internal8BindImplINS_12OnceCallbackEZN5blink4test5mojom5blink31VirtualAuthenticatorAsyncWaiter18ClearRegistrationsEvE3$_4JPNS_7RunLoopEEEEDcOT0_DpOT1_: argument 0"}
!24 = distinct !{!24, !"_ZN4base8internal8BindImplINS_12OnceCallbackEZN5blink4test5mojom5blink31VirtualAuthenticatorAsyncWaiter18ClearRegistrationsEvE3$_4JPNS_7RunLoopEEEEDcOT0_DpOT1_"}
!25 = distinct !{!25, !26, !"_ZN4base8BindOnceIZN5blink4test5mojom5blink31VirtualAuthenticatorAsyncWaiter18ClearRegistrationsEvE3$_4JPNS_7RunLoopEEEENS_12OnceCallbackINS_8internal14BindTypeHelperIT_JDpT0_EE14UnboundRunTypeEEEOSC_DpOSD_: argument 0"}
!26 = distinct !{!26, !"_ZN4base8BindOnceIZN5blink4test5mojom5blink31VirtualAuthenticatorAsyncWaiter18ClearRegistrationsEvE3$_4JPNS_7RunLoopEEEENS_12OnceCallbackINS_8internal14BindTypeHelperIT_JDpT0_EE14UnboundRunTypeEEEOSC_DpOSD_"}
!27 = !{!28, !30}
!28 = distinct !{!28, !29, !"_ZN4base8internal8BindImplINS_12OnceCallbackEZN5blink4test5mojom5blink31VirtualAuthenticatorAsyncWaiter12GetLargeBlobERKN3WTF6VectorIhLj0ENS8_18PartitionAllocatorEEEPN4absl8optionalISB_EEE3$_5JPNS_7RunLoopERSH_EEEDcOT0_DpOT1_: argument 0"}
!29 = distinct !{!29, !"_ZN4base8internal8BindImplINS_12OnceCallbackEZN5blink4test5mojom5blink31VirtualAuthenticatorAsyncWaiter12GetLargeBlobERKN3WTF6VectorIhLj0ENS8_18PartitionAllocatorEEEPN4absl8optionalISB_EEE3$_5JPNS_7RunLoopERSH_EEEDcOT0_DpOT1_"}
!30 = distinct !{!30, !31, !"_ZN4base8BindOnceIZN5blink4test5mojom5blink31VirtualAuthenticatorAsyncWaiter12GetLargeBlobERKN3WTF6VectorIhLj0ENS6_18PartitionAllocatorEEEPN4absl8optionalIS9_EEE3$_5JPNS_7RunLoopERSF_EEENS_12OnceCallbackINS_8internal14BindTypeHelperIT_JDpT0_EE14UnboundRunTypeEEEOSN_DpOSO_: argument 0"}
!31 = distinct !{!31, !"_ZN4base8BindOnceIZN5blink4test5mojom5blink31VirtualAuthenticatorAsyncWaiter12GetLargeBlobERKN3WTF6VectorIhLj0ENS6_18PartitionAllocatorEEEPN4absl8optionalIS9_EEE3$_5JPNS_7RunLoopERSF_EEENS_12OnceCallbackINS_8internal14BindTypeHelperIT_JDpT0_EE14UnboundRunTypeEEEOSN_DpOSO_"}
!32 = !{!33, !35}
!33 = distinct !{!33, !34, !"_ZN4base8internal8BindImplINS_12OnceCallbackEZN5blink4test5mojom5blink31VirtualAuthenticatorAsyncWaiter12SetLargeBlobERKN3WTF6VectorIhLj0ENS8_18PartitionAllocatorEEESD_PbE3$_6JPNS_7RunLoopERSE_EEEDcOT0_DpOT1_: argument 0"}
!34 = distinct !{!34, !"_ZN4base8internal8BindImplINS_12OnceCallbackEZN5blink4test5mojom5blink31VirtualAuthenticatorAsyncWaiter12SetLargeBlobERKN3WTF6VectorIhLj0ENS8_18PartitionAllocatorEEESD_PbE3$_6JPNS_7RunLoopERSE_EEEDcOT0_DpOT1_"}
!35 = distinct !{!35, !36, !"_ZN4base8BindOnceIZN5blink4test5mojom5blink31VirtualAuthenticatorAsyncWaiter12SetLargeBlobERKN3WTF6VectorIhLj0ENS6_18PartitionAllocatorEEESB_PbE3$_6JPNS_7RunLoopERSC_EEENS_12OnceCallbackINS_8internal14BindTypeHelperIT_JDpT0_EE14UnboundRunTypeEEEOSK_DpOSL_: argument 0"}
!36 = distinct !{!36, !"_ZN4base8BindOnceIZN5blink4test5mojom5blink31VirtualAuthenticatorAsyncWaiter12SetLargeBlobERKN3WTF6VectorIhLj0ENS6_18PartitionAllocatorEEESB_PbE3$_6JPNS_7RunLoopERSC_EEENS_12OnceCallbackINS_8internal14BindTypeHelperIT_JDpT0_EE14UnboundRunTypeEEEOSK_DpOSL_"}
!37 = !{!38, !40}
!38 = distinct !{!38, !39, !"_ZN4base8internal8BindImplINS_12OnceCallbackEZN5blink4test5mojom5blink31VirtualAuthenticatorAsyncWaiter15SetUserVerifiedEbE3$_7JPNS_7RunLoopEEEEDcOT0_DpOT1_: argument 0"}
!39 = distinct !{!39, !"_ZN4base8internal8BindImplINS_12OnceCallbackEZN5blink4test5mojom5blink31VirtualAuthenticatorAsyncWaiter15SetUserVerifiedEbE3$_7JPNS_7RunLoopEEEEDcOT0_DpOT1_"}
!40 = distinct !{!40, !41, !"_ZN4base8BindOnceIZN5blink4test5mojom5blink31VirtualAuthenticatorAsyncWaiter15SetUserVerifiedEbE3$_7JPNS_7RunLoopEEEENS_12OnceCallbackINS_8internal14BindTypeHelperIT_JDpT0_EE14UnboundRunTypeEEEOSC_DpOSD_: argument 0"}
!41 = distinct !{!41, !"_ZN4base8BindOnceIZN5blink4test5mojom5blink31VirtualAuthenticatorAsyncWaiter15SetUserVerifiedEbE3$_7JPNS_7RunLoopEEEENS_12OnceCallbackINS_8internal14BindTypeHelperIT_JDpT0_EE14UnboundRunTypeEEEOSC_DpOSD_"}
!42 = !{!43, !45}
!43 = distinct !{!43, !44, !"_ZN4base8internal8BindImplINS_12OnceCallbackEZN5blink4test5mojom5blink38VirtualAuthenticatorManagerAsyncWaiter19CreateAuthenticatorEN4mojo9StructPtrINS6_27VirtualAuthenticatorOptionsEEEPNS8_13PendingRemoteINS6_20VirtualAuthenticatorEEEE3$_8JPNS_7RunLoopERSF_EEEDcOT0_DpOT1_: argument 0"}
!44 = distinct !{!44, !"_ZN4base8internal8BindImplINS_12OnceCallbackEZN5blink4test5mojom5blink38VirtualAuthenticatorManagerAsyncWaiter19CreateAuthenticatorEN4mojo9StructPtrINS6_27VirtualAuthenticatorOptionsEEEPNS8_13PendingRemoteINS6_20VirtualAuthenticatorEEEE3$_8JPNS_7RunLoopERSF_EEEDcOT0_DpOT1_"}
!45 = distinct !{!45, !46, !"_ZN4base8BindOnceIZN5blink4test5mojom5blink38VirtualAuthenticatorManagerAsyncWaiter19CreateAuthenticatorEN4mojo9StructPtrINS4_27VirtualAuthenticatorOptionsEEEPNS6_13PendingRemoteINS4_20VirtualAuthenticatorEEEE3$_8JPNS_7RunLoopERSD_EEENS_12OnceCallbackINS_8internal14BindTypeHelperIT_JDpT0_EE14UnboundRunTypeEEEOSL_DpOSM_: argument 0"}
!46 = distinct !{!46, !"_ZN4base8BindOnceIZN5blink4test5mojom5blink38VirtualAuthenticatorManagerAsyncWaiter19CreateAuthenticatorEN4mojo9StructPtrINS4_27VirtualAuthenticatorOptionsEEEPNS6_13PendingRemoteINS4_20VirtualAuthenticatorEEEE3$_8JPNS_7RunLoopERSD_EEENS_12OnceCallbackINS_8internal14BindTypeHelperIT_JDpT0_EE14UnboundRunTypeEEEOSL_DpOSM_"}
!47 = !{!48, !50}
!48 = distinct !{!48, !49, !"_ZN4base8internal8BindImplINS_12OnceCallbackEZN5blink4test5mojom5blink38VirtualAuthenticatorManagerAsyncWaiter17GetAuthenticatorsEPN3WTF6VectorIN4mojo13PendingRemoteINS6_20VirtualAuthenticatorEEELj0ENS8_18PartitionAllocatorEEEE3$_9JPNS_7RunLoopERSG_EEEDcOT0_DpOT1_: argument 0"}
!49 = distinct !{!49, !"_ZN4base8internal8BindImplINS_12OnceCallbackEZN5blink4test5mojom5blink38VirtualAuthenticatorManagerAsyncWaiter17GetAuthenticatorsEPN3WTF6VectorIN4mojo13PendingRemoteINS6_20VirtualAuthenticatorEEELj0ENS8_18PartitionAllocatorEEEE3$_9JPNS_7RunLoopERSG_EEEDcOT0_DpOT1_"}
!50 = distinct !{!50, !51, !"_ZN4base8BindOnceIZN5blink4test5mojom5blink38VirtualAuthenticatorManagerAsyncWaiter17GetAuthenticatorsEPN3WTF6VectorIN4mojo13PendingRemoteINS4_20VirtualAuthenticatorEEELj0ENS6_18PartitionAllocatorEEEE3$_9JPNS_7RunLoopERSE_EEENS_12OnceCallbackINS_8internal14BindTypeHelperIT_JDpT0_EE14UnboundRunTypeEEEOSM_DpOSN_: argument 0"}
!51 = distinct !{!51, !"_ZN4base8BindOnceIZN5blink4test5mojom5blink38VirtualAuthenticatorManagerAsyncWaiter17GetAuthenticatorsEPN3WTF6VectorIN4mojo13PendingRemoteINS4_20VirtualAuthenticatorEEELj0ENS6_18PartitionAllocatorEEEE3$_9JPNS_7RunLoopERSE_EEENS_12OnceCallbackINS_8internal14BindTypeHelperIT_JDpT0_EE14UnboundRunTypeEEEOSM_DpOSN_"}
!52 = !{!53, !55}
!53 = distinct !{!53, !54, !"_ZN4base8internal8BindImplINS_12OnceCallbackEZN5blink4test5mojom5blink38VirtualAuthenticatorManagerAsyncWaiter19RemoveAuthenticatorERKN3WTF6StringEPbE4$_10JPNS_7RunLoopERSC_EEEDcOT0_DpOT1_: argument 0"}
!54 = distinct !{!54, !"_ZN4base8internal8BindImplINS_12OnceCallbackEZN5blink4test5mojom5blink38VirtualAuthenticatorManagerAsyncWaiter19RemoveAuthenticatorERKN3WTF6StringEPbE4$_10JPNS_7RunLoopERSC_EEEDcOT0_DpOT1_"}
!55 = distinct !{!55, !56, !"_ZN4base8BindOnceIZN5blink4test5mojom5blink38VirtualAuthenticatorManagerAsyncWaiter19RemoveAuthenticatorERKN3WTF6StringEPbE4$_10JPNS_7RunLoopERSA_EEENS_12OnceCallbackINS_8internal14BindTypeHelperIT_JDpT0_EE14UnboundRunTypeEEEOSI_DpOSJ_: argument 0"}
!56 = distinct !{!56, !"_ZN4base8BindOnceIZN5blink4test5mojom5blink38VirtualAuthenticatorManagerAsyncWaiter19RemoveAuthenticatorERKN3WTF6StringEPbE4$_10JPNS_7RunLoopERSA_EEENS_12OnceCallbackINS_8internal14BindTypeHelperIT_JDpT0_EE14UnboundRunTypeEEEOSI_DpOSJ_"}
!57 = !{!58, !60}
!58 = distinct !{!58, !59, !"_ZN4base8internal8BindImplINS_12OnceCallbackEZN5blink4test5mojom5blink38VirtualAuthenticatorManagerAsyncWaiter19ClearAuthenticatorsEvE4$_11JPNS_7RunLoopEEEEDcOT0_DpOT1_: argument 0"}
!59 = distinct !{!59, !"_ZN4base8internal8BindImplINS_12OnceCallbackEZN5blink4test5mojom5blink38VirtualAuthenticatorManagerAsyncWaiter19ClearAuthenticatorsEvE4$_11JPNS_7RunLoopEEEEDcOT0_DpOT1_"}
!60 = distinct !{!60, !61, !"_ZN4base8BindOnceIZN5blink4test5mojom5blink38VirtualAuthenticatorManagerAsyncWaiter19ClearAuthenticatorsEvE4$_11JPNS_7RunLoopEEEENS_12OnceCallbackINS_8internal14BindTypeHelperIT_JDpT0_EE14UnboundRunTypeEEEOSC_DpOSD_: argument 0"}
!61 = distinct !{!61, !"_ZN4base8BindOnceIZN5blink4test5mojom5blink38VirtualAuthenticatorManagerAsyncWaiter19ClearAuthenticatorsEvE4$_11JPNS_7RunLoopEEEENS_12OnceCallbackINS_8internal14BindTypeHelperIT_JDpT0_EE14UnboundRunTypeEEEOSC_DpOSD_"}
!62 = !{!"branch_weights", i32 1, i32 2000}
!63 = !{!"branch_weights", i32 2000, i32 1}
!64 = !{i8 0, i8 2}
