; ModuleID = '../../media/gpu/vp8_picture.cc'
source_filename = "../../media/gpu/vp8_picture.cc"
target datalayout = "e-m:e-i64:64-f80:128-n8:16:32:64-S128"
target triple = "x86_64-unknown-linux-gnu"

module asm ".symver exp, exp@GLIBC_2.2.5"
module asm ".symver exp2, exp2@GLIBC_2.2.5"
module asm ".symver exp2f, exp2f@GLIBC_2.2.5"
module asm ".symver expf, expf@GLIBC_2.2.5"
module asm ".symver lgamma, lgamma@GLIBC_2.2.5"
module asm ".symver lgammaf, lgammaf@GLIBC_2.2.5"
module asm ".symver lgammal, lgammal@GLIBC_2.2.5"
module asm ".symver log, log@GLIBC_2.2.5"
module asm ".symver log2, log2@GLIBC_2.2.5"
module asm ".symver log2f, log2f@GLIBC_2.2.5"
module asm ".symver logf, logf@GLIBC_2.2.5"
module asm ".symver pow, pow@GLIBC_2.2.5"
module asm ".symver powf, powf@GLIBC_2.2.5"

%"class.media::VP8Picture" = type { %"class.media::CodecPicture.base", %"class.std::__1::unique_ptr.11" }
%"class.media::CodecPicture.base" = type <{ i32 (...)**, %"class.base::RefCountedThreadSafe", i32, %"class.gfx::Rect", %"class.std::__1::unique_ptr", %"class.media::VideoColorSpace" }>
%"class.base::RefCountedThreadSafe" = type { %"class.base::subtle::RefCountedThreadSafeBase" }
%"class.base::subtle::RefCountedThreadSafeBase" = type { %"class.base::AtomicRefCount" }
%"class.base::AtomicRefCount" = type { %"struct.std::__1::atomic" }
%"struct.std::__1::atomic" = type { %"struct.std::__1::__atomic_base" }
%"struct.std::__1::__atomic_base" = type { %"struct.std::__1::__atomic_base.0" }
%"struct.std::__1::__atomic_base.0" = type { %"struct.std::__1::__cxx_atomic_impl" }
%"struct.std::__1::__cxx_atomic_impl" = type { %"struct.std::__1::__cxx_atomic_base_impl" }
%"struct.std::__1::__cxx_atomic_base_impl" = type { i32 }
%"class.gfx::Rect" = type { %"class.gfx::Point", %"class.gfx::Size" }
%"class.gfx::Point" = type { i32, i32 }
%"class.gfx::Size" = type { i32, i32 }
%"class.std::__1::unique_ptr" = type { %"class.std::__1::__compressed_pair" }
%"class.std::__1::__compressed_pair" = type { %"struct.std::__1::__compressed_pair_elem" }
%"struct.std::__1::__compressed_pair_elem" = type { %"class.media::DecryptConfig"* }
%"class.media::DecryptConfig" = type <{ i32, [4 x i8], %"class.std::__1::basic_string", %"class.std::__1::basic_string", %"class.std::__1::vector", %"class.absl::optional", [4 x i8] }>
%"class.std::__1::basic_string" = type { %"class.std::__1::__compressed_pair.1" }
%"class.std::__1::__compressed_pair.1" = type { %"struct.std::__1::__compressed_pair_elem.2" }
%"struct.std::__1::__compressed_pair_elem.2" = type { %"struct.std::__1::basic_string<char, std::__1::char_traits<char>, std::__1::allocator<char> >::__rep" }
%"struct.std::__1::basic_string<char, std::__1::char_traits<char>, std::__1::allocator<char> >::__rep" = type { %union.anon }
%union.anon = type { %"struct.std::__1::basic_string<char, std::__1::char_traits<char>, std::__1::allocator<char> >::__long" }
%"struct.std::__1::basic_string<char, std::__1::char_traits<char>, std::__1::allocator<char> >::__long" = type { i8*, i64, i64 }
%"class.std::__1::vector" = type { %"class.std::__1::__vector_base" }
%"class.std::__1::__vector_base" = type { %"struct.media::SubsampleEntry"*, %"struct.media::SubsampleEntry"*, %"class.std::__1::__compressed_pair.4" }
%"struct.media::SubsampleEntry" = type { i32, i32 }
%"class.std::__1::__compressed_pair.4" = type { %"struct.std::__1::__compressed_pair_elem.5" }
%"struct.std::__1::__compressed_pair_elem.5" = type { %"struct.media::SubsampleEntry"* }
%"class.absl::optional" = type { %"class.absl::optional_internal::optional_data" }
%"class.absl::optional_internal::optional_data" = type { %"class.absl::optional_internal::optional_data_base" }
%"class.absl::optional_internal::optional_data_base" = type { %"class.absl::optional_internal::optional_data_dtor_base" }
%"class.absl::optional_internal::optional_data_dtor_base" = type { i8, %union.anon.9 }
%union.anon.9 = type { %"class.media::EncryptionPattern" }
%"class.media::EncryptionPattern" = type { i32, i32 }
%"class.media::VideoColorSpace" = type { i8, i8, i8, i8 }
%"class.std::__1::unique_ptr.11" = type { %"class.std::__1::__compressed_pair.12" }
%"class.std::__1::__compressed_pair.12" = type { %"struct.std::__1::__compressed_pair_elem.13" }
%"struct.std::__1::__compressed_pair_elem.13" = type { %"struct.media::Vp8FrameHeader"* }
%"struct.media::Vp8FrameHeader" = type <{ i32, i8, i8, i8, i8, i64, i16, i8, i8, i16, i8, i8, %"struct.media::Vp8SegmentationHeader", %"struct.media::Vp8LoopFilterHeader", %"struct.media::Vp8QuantizationHeader", [6 x i8], i64, %"struct.media::Vp8EntropyHeader", i8, i8, i8, i32, i32, i8, i8, i8, i8, i8, i8, i8, i8, i8*, i64, [8 x i64], i64, i64, i8, i8, i8, i8, [4 x i8] }>
%"struct.media::Vp8SegmentationHeader" = type { i8, i8, i8, i32, [4 x i8], [4 x i8], [3 x i8] }
%"struct.media::Vp8LoopFilterHeader" = type { i32, i8, i8, i8, i8, [4 x i8], [4 x i8] }
%"struct.media::Vp8QuantizationHeader" = type { i8, i8, i8, i8, i8, i8 }
%"struct.media::Vp8EntropyHeader" = type { [4 x [8 x [3 x [11 x i8]]]], [4 x i8], [3 x i8], [2 x [19 x i8]] }
%"class.media::CodecPicture" = type <{ i32 (...)**, %"class.base::RefCountedThreadSafe", i32, %"class.gfx::Rect", %"class.std::__1::unique_ptr", %"class.media::VideoColorSpace", [4 x i8] }>
%"class.media::V4L2VP8Picture" = type opaque
%"class.media::VaapiVP8Picture" = type opaque

@_ZTVN5media10VP8PictureE = hidden unnamed_addr constant { [6 x i8*] } { [6 x i8*] [i8* null, i8* null, i8* bitcast (void (%"class.media::VP8Picture"*)* @_ZN5media10VP8PictureD2Ev to i8*), i8* bitcast (void (%"class.media::VP8Picture"*)* @_ZN5media10VP8PictureD0Ev to i8*), i8* bitcast (%"class.media::V4L2VP8Picture"* (%"class.media::VP8Picture"*)* @_ZN5media10VP8Picture16AsV4L2VP8PictureEv to i8*), i8* bitcast (%"class.media::VaapiVP8Picture"* (%"class.media::VP8Picture"*)* @_ZN5media10VP8Picture17AsVaapiVP8PictureEv to i8*)] }, align 8

@_ZN5media10VP8PictureC1Ev = hidden unnamed_addr alias void (%"class.media::VP8Picture"*), void (%"class.media::VP8Picture"*)* @_ZN5media10VP8PictureC2Ev
@_ZN5media10VP8PictureD1Ev = hidden unnamed_addr alias void (%"class.media::VP8Picture"*), void (%"class.media::VP8Picture"*)* @_ZN5media10VP8PictureD2Ev

; Function Attrs: nounwind ssp uwtable
define hidden void @_ZN5media10VP8PictureC2Ev(%"class.media::VP8Picture"*) unnamed_addr #0 align 2 {
  %2 = bitcast %"class.media::VP8Picture"* %0 to %"class.media::CodecPicture"*
  tail call void @_ZN5media12CodecPictureC2Ev(%"class.media::CodecPicture"* %2) #6
  %3 = getelementptr inbounds %"class.media::VP8Picture", %"class.media::VP8Picture"* %0, i64 0, i32 0, i32 0
  store i32 (...)** bitcast (i8** getelementptr inbounds ({ [6 x i8*] }, { [6 x i8*] }* @_ZTVN5media10VP8PictureE, i64 0, inrange i32 0, i64 2) to i32 (...)**), i32 (...)*** %3, align 8
  %4 = getelementptr inbounds %"class.media::VP8Picture", %"class.media::VP8Picture"* %0, i64 0, i32 1
  %5 = tail call i8* @_Znwm(i64 1304) #7
  %6 = bitcast i8* %5 to %"struct.media::Vp8FrameHeader"*
  tail call void @_ZN5media14Vp8FrameHeaderC1Ev(%"struct.media::Vp8FrameHeader"* nonnull %6) #6
  %7 = ptrtoint i8* %5 to i64
  %8 = bitcast %"class.std::__1::unique_ptr.11"* %4 to i64*
  store i64 %7, i64* %8, align 8
  ret void
}

declare void @_ZN5media12CodecPictureC2Ev(%"class.media::CodecPicture"*) unnamed_addr #1

; Function Attrs: nobuiltin nofree
declare noalias nonnull i8* @_Znwm(i64) local_unnamed_addr #2

declare void @_ZN5media14Vp8FrameHeaderC1Ev(%"struct.media::Vp8FrameHeader"*) unnamed_addr #1

; Function Attrs: nounwind ssp uwtable
define hidden void @_ZN5media10VP8PictureD2Ev(%"class.media::VP8Picture"*) unnamed_addr #0 align 2 {
  %2 = getelementptr inbounds %"class.media::VP8Picture", %"class.media::VP8Picture"* %0, i64 0, i32 0, i32 0
  store i32 (...)** bitcast (i8** getelementptr inbounds ({ [6 x i8*] }, { [6 x i8*] }* @_ZTVN5media10VP8PictureE, i64 0, inrange i32 0, i64 2) to i32 (...)**), i32 (...)*** %2, align 8
  %3 = getelementptr inbounds %"class.media::VP8Picture", %"class.media::VP8Picture"* %0, i64 0, i32 1, i32 0, i32 0, i32 0
  %4 = load %"struct.media::Vp8FrameHeader"*, %"struct.media::Vp8FrameHeader"** %3, align 8
  store %"struct.media::Vp8FrameHeader"* null, %"struct.media::Vp8FrameHeader"** %3, align 8
  %5 = icmp eq %"struct.media::Vp8FrameHeader"* %4, null
  br i1 %5, label %8, label %6

6:                                                ; preds = %1
  %7 = bitcast %"struct.media::Vp8FrameHeader"* %4 to i8*
  tail call void @_ZdlPv(i8* %7) #7
  br label %8

8:                                                ; preds = %1, %6
  %9 = bitcast %"class.media::VP8Picture"* %0 to %"class.media::CodecPicture"*
  tail call void @_ZN5media12CodecPictureD2Ev(%"class.media::CodecPicture"* %9) #6
  ret void
}

; Function Attrs: nounwind
declare void @_ZN5media12CodecPictureD2Ev(%"class.media::CodecPicture"*) unnamed_addr #3

; Function Attrs: nounwind ssp uwtable
define hidden void @_ZN5media10VP8PictureD0Ev(%"class.media::VP8Picture"*) unnamed_addr #0 align 2 {
  %2 = getelementptr inbounds %"class.media::VP8Picture", %"class.media::VP8Picture"* %0, i64 0, i32 0, i32 0
  store i32 (...)** bitcast (i8** getelementptr inbounds ({ [6 x i8*] }, { [6 x i8*] }* @_ZTVN5media10VP8PictureE, i64 0, inrange i32 0, i64 2) to i32 (...)**), i32 (...)*** %2, align 8
  %3 = getelementptr inbounds %"class.media::VP8Picture", %"class.media::VP8Picture"* %0, i64 0, i32 1, i32 0, i32 0, i32 0
  %4 = load %"struct.media::Vp8FrameHeader"*, %"struct.media::Vp8FrameHeader"** %3, align 8
  store %"struct.media::Vp8FrameHeader"* null, %"struct.media::Vp8FrameHeader"** %3, align 8
  %5 = icmp eq %"struct.media::Vp8FrameHeader"* %4, null
  br i1 %5, label %8, label %6

6:                                                ; preds = %1
  %7 = bitcast %"struct.media::Vp8FrameHeader"* %4 to i8*
  tail call void @_ZdlPv(i8* %7) #7
  br label %8

8:                                                ; preds = %1, %6
  %9 = bitcast %"class.media::VP8Picture"* %0 to %"class.media::CodecPicture"*
  tail call void @_ZN5media12CodecPictureD2Ev(%"class.media::CodecPicture"* %9) #6
  %10 = bitcast %"class.media::VP8Picture"* %0 to i8*
  tail call void @_ZdlPv(i8* %10) #7
  ret void
}

; Function Attrs: nobuiltin nounwind
declare void @_ZdlPv(i8*) local_unnamed_addr #4

; Function Attrs: norecurse nounwind readnone ssp uwtable
define hidden noalias %"class.media::V4L2VP8Picture"* @_ZN5media10VP8Picture16AsV4L2VP8PictureEv(%"class.media::VP8Picture"* nocapture readnone) unnamed_addr #5 align 2 {
  ret %"class.media::V4L2VP8Picture"* null
}

; Function Attrs: norecurse nounwind readnone ssp uwtable
define hidden noalias %"class.media::VaapiVP8Picture"* @_ZN5media10VP8Picture17AsVaapiVP8PictureEv(%"class.media::VP8Picture"* nocapture readnone) unnamed_addr #5 align 2 {
  ret %"class.media::VaapiVP8Picture"* null
}

attributes #0 = { nounwind ssp uwtable "correctly-rounded-divide-sqrt-fp-math"="false" "disable-tail-calls"="false" "less-precise-fpmad"="false" "min-legal-vector-width"="0" "no-frame-pointer-elim"="false" "no-frame-pointer-elim-non-leaf" "no-infs-fp-math"="false" "no-jump-tables"="false" "no-nans-fp-math"="false" "no-signed-zeros-fp-math"="false" "no-trapping-math"="false" "null-pointer-is-valid"="true" "stack-protector-buffer-size"="4" "target-cpu"="x86-64" "target-features"="+cx8,+fxsr,+mmx,+sse,+sse2,+sse3,+x87" "unsafe-fp-math"="false" "use-soft-float"="false" }
attributes #1 = { "correctly-rounded-divide-sqrt-fp-math"="false" "disable-tail-calls"="false" "less-precise-fpmad"="false" "no-frame-pointer-elim"="false" "no-frame-pointer-elim-non-leaf" "no-infs-fp-math"="false" "no-nans-fp-math"="false" "no-signed-zeros-fp-math"="false" "no-trapping-math"="false" "null-pointer-is-valid"="true" "stack-protector-buffer-size"="4" "target-cpu"="x86-64" "target-features"="+cx8,+fxsr,+mmx,+sse,+sse2,+sse3,+x87" "unsafe-fp-math"="false" "use-soft-float"="false" }
attributes #2 = { nobuiltin nofree "correctly-rounded-divide-sqrt-fp-math"="false" "disable-tail-calls"="false" "less-precise-fpmad"="false" "no-frame-pointer-elim"="false" "no-frame-pointer-elim-non-leaf" "no-infs-fp-math"="false" "no-nans-fp-math"="false" "no-signed-zeros-fp-math"="false" "no-trapping-math"="false" "null-pointer-is-valid"="true" "stack-protector-buffer-size"="4" "target-cpu"="x86-64" "target-features"="+cx8,+fxsr,+mmx,+sse,+sse2,+sse3,+x87" "unsafe-fp-math"="false" "use-soft-float"="false" }
attributes #3 = { nounwind "correctly-rounded-divide-sqrt-fp-math"="false" "disable-tail-calls"="false" "less-precise-fpmad"="false" "no-frame-pointer-elim"="false" "no-frame-pointer-elim-non-leaf" "no-infs-fp-math"="false" "no-nans-fp-math"="false" "no-signed-zeros-fp-math"="false" "no-trapping-math"="false" "null-pointer-is-valid"="true" "stack-protector-buffer-size"="4" "target-cpu"="x86-64" "target-features"="+cx8,+fxsr,+mmx,+sse,+sse2,+sse3,+x87" "unsafe-fp-math"="false" "use-soft-float"="false" }
attributes #4 = { nobuiltin nounwind "correctly-rounded-divide-sqrt-fp-math"="false" "disable-tail-calls"="false" "less-precise-fpmad"="false" "no-frame-pointer-elim"="false" "no-frame-pointer-elim-non-leaf" "no-infs-fp-math"="false" "no-nans-fp-math"="false" "no-signed-zeros-fp-math"="false" "no-trapping-math"="false" "null-pointer-is-valid"="true" "stack-protector-buffer-size"="4" "target-cpu"="x86-64" "target-features"="+cx8,+fxsr,+mmx,+sse,+sse2,+sse3,+x87" "unsafe-fp-math"="false" "use-soft-float"="false" }
attributes #5 = { norecurse nounwind readnone ssp uwtable "correctly-rounded-divide-sqrt-fp-math"="false" "disable-tail-calls"="false" "less-precise-fpmad"="false" "min-legal-vector-width"="0" "no-frame-pointer-elim"="false" "no-frame-pointer-elim-non-leaf" "no-infs-fp-math"="false" "no-jump-tables"="false" "no-nans-fp-math"="false" "no-signed-zeros-fp-math"="false" "no-trapping-math"="false" "null-pointer-is-valid"="true" "stack-protector-buffer-size"="4" "target-cpu"="x86-64" "target-features"="+cx8,+fxsr,+mmx,+sse,+sse2,+sse3,+x87" "unsafe-fp-math"="false" "use-soft-float"="false" }
attributes #6 = { nounwind }
attributes #7 = { builtin nounwind }

!llvm.module.flags = !{!0, !1}

!0 = !{i32 1, !"wchar_size", i32 4}
!1 = !{i32 7, !"PIC Level", i32 2}
