; ModuleID = '../../third_party/blink/renderer/core/html/track/vtt/vtt_element.cc'
source_filename = "../../third_party/blink/renderer/core/html/track/vtt/vtt_element.cc"
target datalayout = "e-m:e-i64:64-f80:128-n8:16:32:64-S128"
target triple = "x86_64-unknown-linux-gnu"

module asm ".symver exp, exp@GLIBC_2.2.5"
module asm ".symver exp2, exp2@GLIBC_2.2.5"
module asm ".symver exp2f, exp2f@GLIBC_2.2.5"
module asm ".symver expf, expf@GLIBC_2.2.5"
module asm ".symver lgamma, lgamma@GLIBC_2.2.5"
module asm ".symver lgammaf, lgammaf@GLIBC_2.2.5"
module asm ".symver lgammal, lgammal@GLIBC_2.2.5"
module asm ".symver log, log@GLIBC_2.2.5"
module asm ".symver log2, log2@GLIBC_2.2.5"
module asm ".symver log2f, log2f@GLIBC_2.2.5"
module asm ".symver logf, logf@GLIBC_2.2.5"
module asm ".symver pow, pow@GLIBC_2.2.5"
module asm ".symver powf, powf@GLIBC_2.2.5"

%"class.blink::HTMLQualifiedName" = type { %"class.blink::QualifiedName" }
%"class.blink::QualifiedName" = type { %class.scoped_refptr }
%class.scoped_refptr = type { %"class.blink::QualifiedName::QualifiedNameImpl"* }
%"class.blink::QualifiedName::QualifiedNameImpl" = type { %"class.WTF::RefCounted", i32, %"class.WTF::AtomicString", %"class.WTF::AtomicString", %"class.WTF::AtomicString", %"class.WTF::AtomicString" }
%"class.WTF::RefCounted" = type { %"class.base::RefCounted" }
%"class.base::RefCounted" = type { %"class.base::subtle::RefCountedBase" }
%"class.base::subtle::RefCountedBase" = type { i32 }
%"class.WTF::AtomicString" = type { %"class.WTF::String" }
%"class.WTF::String" = type { %class.scoped_refptr.6 }
%class.scoped_refptr.6 = type { %"class.WTF::StringImpl"* }
%"class.WTF::StringImpl" = type { i32, i32, %"struct.std::__1::atomic" }
%"struct.std::__1::atomic" = type { %"struct.std::__1::__atomic_base" }
%"struct.std::__1::__atomic_base" = type { %"struct.std::__1::__atomic_base.7" }
%"struct.std::__1::__atomic_base.7" = type { %"struct.std::__1::__cxx_atomic_impl" }
%"struct.std::__1::__cxx_atomic_impl" = type { %"struct.std::__1::__cxx_atomic_base_impl" }
%"struct.std::__1::__cxx_atomic_base_impl" = type { i32 }
%"class.WTF::StaticSingleton" = type { %"class.WTF::StaticSingleton<blink::QualifiedName>::InstanceStorage" }
%"class.WTF::StaticSingleton<blink::QualifiedName>::InstanceStorage" = type { [8 x i8] }
%"struct.blink::WrapperTypeInfo" = type { i16, void (%"class.v8::Isolate"*, %"class.blink::DOMWrapperWorld"*, %"class.v8::Template"*)*, void (%"class.v8::Context"*, %"class.blink::DOMWrapperWorld"*, %"class.v8::Object"*, %"class.v8::Object"*, %"class.v8::Object"*, %"class.v8::Template"*, i64)*, i8*, %"struct.blink::WrapperTypeInfo"*, i8 }
%"class.v8::Isolate" = type { i8 }
%"class.blink::DOMWrapperWorld" = type opaque
%"class.v8::Template" = type { i8 }
%"class.v8::Context" = type { i8 }
%"class.v8::Object" = type { i8 }
%"struct.blink::GCInfo" = type { void (%"class.blink::Visitor"*, i8*)*, void (i8*)*, { i8*, i8 } (i8*)*, i8 }
%"class.blink::Visitor" = type { i32 (...)**, %"class.blink::ThreadState"* }
%"class.blink::ThreadState" = type <{ %"class.std::__1::unique_ptr.404", i32, [4 x i8], %"class.std::__1::unique_ptr.540", %"class.std::__1::unique_ptr.540", i8**, i8, i8, i8, i8, i8, i8, [2 x i8], i64, i64, i32, i32, i32, [4 x i8], %"class.WTF::Deque", %"class.v8::Isolate"*, void (%"class.v8::Isolate"*, %"class.v8::EmbedderGraph"*, i8*)*, %"class.std::__1::unique_ptr.551", %"class.std::__1::unique_ptr.557", %"struct.blink::ThreadState::GCData", %"class.std::__1::unique_ptr.569", %"class.std::__1::unique_ptr.575", %"class.base::JobHandle", %"class.base::JobHandle", %"struct.std::__1::atomic.582", [7 x i8], i64, i8, [7 x i8], i64, %"class.base::TimeTicks", i8, i8, [6 x i8] }>
%"class.std::__1::unique_ptr.404" = type { %"class.std::__1::__compressed_pair.405" }
%"class.std::__1::__compressed_pair.405" = type { %"struct.std::__1::__compressed_pair_elem.406" }
%"struct.std::__1::__compressed_pair_elem.406" = type { %"class.blink::ThreadHeap"* }
%"class.blink::ThreadHeap" = type { %"class.blink::ThreadState"*, %"class.std::__1::unique_ptr.407", %"class.std::__1::unique_ptr.413", %"class.std::__1::unique_ptr.419", %"class.std::__1::unique_ptr.425", %"class.std::__1::unique_ptr.431", %"class.std::__1::unique_ptr.437", %"class.std::__1::unique_ptr.448", %"class.std::__1::unique_ptr.455", %"class.std::__1::unique_ptr.455", %"class.std::__1::unique_ptr.462", %"class.std::__1::unique_ptr.469", %"class.std::__1::unique_ptr.476", %"class.std::__1::unique_ptr.476", %"class.std::__1::unique_ptr.483", %"class.std::__1::unique_ptr.490", %"class.std::__1::unique_ptr.497", %"class.std::__1::unique_ptr.520", %"struct.blink::ThreadHeap::LastAllocatedRegion", [9 x %"class.blink::BaseArena"*], i64, i64 }
%"class.std::__1::unique_ptr.407" = type { %"class.std::__1::__compressed_pair.408" }
%"class.std::__1::__compressed_pair.408" = type { %"struct.std::__1::__compressed_pair_elem.409" }
%"struct.std::__1::__compressed_pair_elem.409" = type { %"class.blink::ThreadHeapStatsCollector"* }
%"class.blink::ThreadHeapStatsCollector" = type opaque
%"class.std::__1::unique_ptr.413" = type { %"class.std::__1::__compressed_pair.414" }
%"class.std::__1::__compressed_pair.414" = type { %"struct.std::__1::__compressed_pair_elem.415" }
%"struct.std::__1::__compressed_pair_elem.415" = type { %"class.blink::RegionTree"* }
%"class.blink::RegionTree" = type opaque
%"class.std::__1::unique_ptr.419" = type { %"class.std::__1::__compressed_pair.420" }
%"class.std::__1::__compressed_pair.420" = type { %"struct.std::__1::__compressed_pair_elem.421" }
%"struct.std::__1::__compressed_pair_elem.421" = type { %"class.blink::PageBloomFilter"* }
%"class.blink::PageBloomFilter" = type opaque
%"class.std::__1::unique_ptr.425" = type { %"class.std::__1::__compressed_pair.426" }
%"class.std::__1::__compressed_pair.426" = type { %"struct.std::__1::__compressed_pair_elem.427" }
%"struct.std::__1::__compressed_pair_elem.427" = type { %"class.blink::PagePool"* }
%"class.blink::PagePool" = type opaque
%"class.std::__1::unique_ptr.431" = type { %"class.std::__1::__compressed_pair.432" }
%"class.std::__1::__compressed_pair.432" = type { %"struct.std::__1::__compressed_pair_elem.433" }
%"struct.std::__1::__compressed_pair_elem.433" = type { %"class.blink::ProcessHeapReporter"* }
%"class.blink::ProcessHeapReporter" = type opaque
%"class.std::__1::unique_ptr.437" = type { %"class.std::__1::__compressed_pair.438" }
%"class.std::__1::__compressed_pair.438" = type { %"struct.std::__1::__compressed_pair_elem.439" }
%"struct.std::__1::__compressed_pair_elem.439" = type { %"class.blink::Worklist"* }
%"class.blink::Worklist" = type { [4 x %"struct.blink::Worklist<blink::TraceDescriptor, 512, 4>::PrivateSegmentHolder"], %"class.blink::Worklist<blink::TraceDescriptor, 512, 4>::GlobalPool" }
%"struct.blink::Worklist<blink::TraceDescriptor, 512, 4>::PrivateSegmentHolder" = type { %"class.blink::Worklist<blink::TraceDescriptor, 512, 4>::Segment"*, %"class.blink::Worklist<blink::TraceDescriptor, 512, 4>::Segment"*, [64 x i8] }
%"class.blink::Worklist<blink::TraceDescriptor, 512, 4>::Segment" = type { %"class.blink::Worklist<blink::TraceDescriptor, 512, 4>::Segment"*, i64, [512 x %"struct.blink::TraceDescriptor"] }
%"struct.blink::TraceDescriptor" = type { i8*, void (%"class.blink::Visitor"*, i8*)* }
%"class.blink::Worklist<blink::TraceDescriptor, 512, 4>::GlobalPool" = type { %"class.base::Lock", %"class.blink::Worklist<blink::TraceDescriptor, 512, 4>::Segment"*, %"struct.std::__1::atomic.440" }
%"class.base::Lock" = type { %"class.base::internal::LockImpl" }
%"class.base::internal::LockImpl" = type { %union.pthread_mutex_t }
%union.pthread_mutex_t = type { %struct.__pthread_mutex_s }
%struct.__pthread_mutex_s = type { i32, i32, i32, i32, i32, i16, i16, %struct.__pthread_internal_list }
%struct.__pthread_internal_list = type { %struct.__pthread_internal_list*, %struct.__pthread_internal_list* }
%"struct.std::__1::atomic.440" = type { %"struct.std::__1::__atomic_base.441" }
%"struct.std::__1::__atomic_base.441" = type { %"struct.std::__1::__atomic_base.442" }
%"struct.std::__1::__atomic_base.442" = type { %"struct.std::__1::__cxx_atomic_impl.443" }
%"struct.std::__1::__cxx_atomic_impl.443" = type { %"struct.std::__1::__cxx_atomic_base_impl.444" }
%"struct.std::__1::__cxx_atomic_base_impl.444" = type { i64 }
%"class.std::__1::unique_ptr.448" = type { %"class.std::__1::__compressed_pair.449" }
%"class.std::__1::__compressed_pair.449" = type { %"struct.std::__1::__compressed_pair_elem.450" }
%"struct.std::__1::__compressed_pair_elem.450" = type { %"class.blink::Worklist.451"* }
%"class.blink::Worklist.451" = type { [4 x %"struct.blink::Worklist<blink::HeapObjectHeader *, 64, 4>::PrivateSegmentHolder"], %"class.blink::Worklist<blink::HeapObjectHeader *, 64, 4>::GlobalPool" }
%"struct.blink::Worklist<blink::HeapObjectHeader *, 64, 4>::PrivateSegmentHolder" = type { %"class.blink::Worklist<blink::HeapObjectHeader *, 64, 4>::Segment"*, %"class.blink::Worklist<blink::HeapObjectHeader *, 64, 4>::Segment"*, [64 x i8] }
%"class.blink::Worklist<blink::HeapObjectHeader *, 64, 4>::Segment" = type opaque
%"class.blink::Worklist<blink::HeapObjectHeader *, 64, 4>::GlobalPool" = type { %"class.base::Lock", %"class.blink::Worklist<blink::HeapObjectHeader *, 64, 4>::Segment"*, %"struct.std::__1::atomic.440" }
%"class.std::__1::unique_ptr.455" = type { %"class.std::__1::__compressed_pair.456" }
%"class.std::__1::__compressed_pair.456" = type { %"struct.std::__1::__compressed_pair_elem.457" }
%"struct.std::__1::__compressed_pair_elem.457" = type { %"class.blink::Worklist.458"* }
%"class.blink::Worklist.458" = type { [4 x %"struct.blink::Worklist<const void *, 16, 4>::PrivateSegmentHolder"], %"class.blink::Worklist<const void *, 16, 4>::GlobalPool" }
%"struct.blink::Worklist<const void *, 16, 4>::PrivateSegmentHolder" = type { %"class.blink::Worklist<const void *, 16, 4>::Segment"*, %"class.blink::Worklist<const void *, 16, 4>::Segment"*, [64 x i8] }
%"class.blink::Worklist<const void *, 16, 4>::Segment" = type { %"class.blink::Worklist<const void *, 16, 4>::Segment"*, i64, [16 x i8*] }
%"class.blink::Worklist<const void *, 16, 4>::GlobalPool" = type { %"class.base::Lock", %"class.blink::Worklist<const void *, 16, 4>::Segment"*, %"struct.std::__1::atomic.440" }
%"class.std::__1::unique_ptr.462" = type { %"class.std::__1::__compressed_pair.463" }
%"class.std::__1::__compressed_pair.463" = type { %"struct.std::__1::__compressed_pair_elem.464" }
%"struct.std::__1::__compressed_pair_elem.464" = type { %"class.blink::Worklist.465"* }
%"class.blink::Worklist.465" = type { [4 x %"struct.blink::Worklist<blink::CustomCallbackItem, 64, 4>::PrivateSegmentHolder"], %"class.blink::Worklist<blink::CustomCallbackItem, 64, 4>::GlobalPool" }
%"struct.blink::Worklist<blink::CustomCallbackItem, 64, 4>::PrivateSegmentHolder" = type { %"class.blink::Worklist<blink::CustomCallbackItem, 64, 4>::Segment"*, %"class.blink::Worklist<blink::CustomCallbackItem, 64, 4>::Segment"*, [64 x i8] }
%"class.blink::Worklist<blink::CustomCallbackItem, 64, 4>::Segment" = type opaque
%"class.blink::Worklist<blink::CustomCallbackItem, 64, 4>::GlobalPool" = type { %"class.base::Lock", %"class.blink::Worklist<blink::CustomCallbackItem, 64, 4>::Segment"*, %"struct.std::__1::atomic.440" }
%"class.std::__1::unique_ptr.469" = type { %"class.std::__1::__compressed_pair.470" }
%"class.std::__1::__compressed_pair.470" = type { %"struct.std::__1::__compressed_pair_elem.471" }
%"struct.std::__1::__compressed_pair_elem.471" = type { %"class.blink::Worklist.472"* }
%"class.blink::Worklist.472" = type { [4 x %"struct.blink::Worklist<const void *const *, 256, 4>::PrivateSegmentHolder"], %"class.blink::Worklist<const void *const *, 256, 4>::GlobalPool" }
%"struct.blink::Worklist<const void *const *, 256, 4>::PrivateSegmentHolder" = type { %"class.blink::Worklist<const void *const *, 256, 4>::Segment"*, %"class.blink::Worklist<const void *const *, 256, 4>::Segment"*, [64 x i8] }
%"class.blink::Worklist<const void *const *, 256, 4>::Segment" = type opaque
%"class.blink::Worklist<const void *const *, 256, 4>::GlobalPool" = type { %"class.base::Lock", %"class.blink::Worklist<const void *const *, 256, 4>::Segment"*, %"struct.std::__1::atomic.440" }
%"class.std::__1::unique_ptr.476" = type { %"class.std::__1::__compressed_pair.477" }
%"class.std::__1::__compressed_pair.477" = type { %"struct.std::__1::__compressed_pair_elem.478" }
%"struct.std::__1::__compressed_pair_elem.478" = type { %"class.blink::Worklist.479"* }
%"class.blink::Worklist.479" = type { [4 x %"struct.blink::Worklist<blink::EphemeronPairItem, 64, 4>::PrivateSegmentHolder"], %"class.blink::Worklist<blink::EphemeronPairItem, 64, 4>::GlobalPool" }
%"struct.blink::Worklist<blink::EphemeronPairItem, 64, 4>::PrivateSegmentHolder" = type { %"class.blink::Worklist<blink::EphemeronPairItem, 64, 4>::Segment"*, %"class.blink::Worklist<blink::EphemeronPairItem, 64, 4>::Segment"*, [64 x i8] }
%"class.blink::Worklist<blink::EphemeronPairItem, 64, 4>::Segment" = type opaque
%"class.blink::Worklist<blink::EphemeronPairItem, 64, 4>::GlobalPool" = type { %"class.base::Lock", %"class.blink::Worklist<blink::EphemeronPairItem, 64, 4>::Segment"*, %"struct.std::__1::atomic.440" }
%"class.std::__1::unique_ptr.483" = type { %"class.std::__1::__compressed_pair.484" }
%"class.std::__1::__compressed_pair.484" = type { %"struct.std::__1::__compressed_pair_elem.485" }
%"struct.std::__1::__compressed_pair_elem.485" = type { %"class.blink::Worklist.486"* }
%"class.blink::Worklist.486" = type { [4 x %"struct.blink::Worklist<const blink::TraceWrapperV8Reference<v8::Value> *, 16, 4>::PrivateSegmentHolder"], %"class.blink::Worklist<const blink::TraceWrapperV8Reference<v8::Value> *, 16, 4>::GlobalPool" }
%"struct.blink::Worklist<const blink::TraceWrapperV8Reference<v8::Value> *, 16, 4>::PrivateSegmentHolder" = type { %"class.blink::Worklist<const blink::TraceWrapperV8Reference<v8::Value> *, 16, 4>::Segment"*, %"class.blink::Worklist<const blink::TraceWrapperV8Reference<v8::Value> *, 16, 4>::Segment"*, [64 x i8] }
%"class.blink::Worklist<const blink::TraceWrapperV8Reference<v8::Value> *, 16, 4>::Segment" = type opaque
%"class.blink::Worklist<const blink::TraceWrapperV8Reference<v8::Value> *, 16, 4>::GlobalPool" = type { %"class.base::Lock", %"class.blink::Worklist<const blink::TraceWrapperV8Reference<v8::Value> *, 16, 4>::Segment"*, %"struct.std::__1::atomic.440" }
%"class.std::__1::unique_ptr.490" = type { %"class.std::__1::__compressed_pair.491" }
%"class.std::__1::__compressed_pair.491" = type { %"struct.std::__1::__compressed_pair_elem.492" }
%"struct.std::__1::__compressed_pair_elem.492" = type { %"class.blink::Worklist.493"* }
%"class.blink::Worklist.493" = type { [4 x %"struct.blink::Worklist<blink::NotSafeToConcurrentlyTraceItem, 64, 4>::PrivateSegmentHolder"], %"class.blink::Worklist<blink::NotSafeToConcurrentlyTraceItem, 64, 4>::GlobalPool" }
%"struct.blink::Worklist<blink::NotSafeToConcurrentlyTraceItem, 64, 4>::PrivateSegmentHolder" = type { %"class.blink::Worklist<blink::NotSafeToConcurrentlyTraceItem, 64, 4>::Segment"*, %"class.blink::Worklist<blink::NotSafeToConcurrentlyTraceItem, 64, 4>::Segment"*, [64 x i8] }
%"class.blink::Worklist<blink::NotSafeToConcurrentlyTraceItem, 64, 4>::Segment" = type { %"class.blink::Worklist<blink::NotSafeToConcurrentlyTraceItem, 64, 4>::Segment"*, i64, [64 x %"struct.blink::NotSafeToConcurrentlyTraceItem"] }
%"struct.blink::NotSafeToConcurrentlyTraceItem" = type { %"struct.blink::TraceDescriptor", i64 }
%"class.blink::Worklist<blink::NotSafeToConcurrentlyTraceItem, 64, 4>::GlobalPool" = type { %"class.base::Lock", %"class.blink::Worklist<blink::NotSafeToConcurrentlyTraceItem, 64, 4>::Segment"*, %"struct.std::__1::atomic.440" }
%"class.std::__1::unique_ptr.497" = type { %"class.std::__1::__compressed_pair.498" }
%"class.std::__1::__compressed_pair.498" = type { %"struct.std::__1::__compressed_pair_elem.499" }
%"struct.std::__1::__compressed_pair_elem.499" = type { %"class.blink::WeakContainersWorklist"* }
%"class.blink::WeakContainersWorklist" = type { %"class.WTF::Mutex", %"class.std::__1::unordered_set" }
%"class.WTF::Mutex" = type { %"class.WTF::MutexBase" }
%"class.WTF::MutexBase" = type { %"struct.WTF::PlatformMutex" }
%"struct.WTF::PlatformMutex" = type { %union.pthread_mutex_t }
%"class.std::__1::unordered_set" = type { %"class.std::__1::__hash_table" }
%"class.std::__1::__hash_table" = type <{ %"class.std::__1::unique_ptr.500", %"class.std::__1::__compressed_pair.507", %"class.std::__1::__compressed_pair.512", %"class.std::__1::__compressed_pair.514", [4 x i8] }>
%"class.std::__1::unique_ptr.500" = type { %"class.std::__1::__compressed_pair.501" }
%"class.std::__1::__compressed_pair.501" = type { %"struct.std::__1::__compressed_pair_elem.502", %"struct.std::__1::__compressed_pair_elem.503" }
%"struct.std::__1::__compressed_pair_elem.502" = type { %"struct.std::__1::__hash_node_base"** }
%"struct.std::__1::__hash_node_base" = type { %"struct.std::__1::__hash_node_base"* }
%"struct.std::__1::__compressed_pair_elem.503" = type { %"class.std::__1::__bucket_list_deallocator" }
%"class.std::__1::__bucket_list_deallocator" = type { %"class.std::__1::__compressed_pair.504" }
%"class.std::__1::__compressed_pair.504" = type { %"struct.std::__1::__compressed_pair_elem.505" }
%"struct.std::__1::__compressed_pair_elem.505" = type { i64 }
%"class.std::__1::__compressed_pair.507" = type { %"struct.std::__1::__compressed_pair_elem.508" }
%"struct.std::__1::__compressed_pair_elem.508" = type { %"struct.std::__1::__hash_node_base" }
%"class.std::__1::__compressed_pair.512" = type { %"struct.std::__1::__compressed_pair_elem.505" }
%"class.std::__1::__compressed_pair.514" = type { %"struct.std::__1::__compressed_pair_elem.515" }
%"struct.std::__1::__compressed_pair_elem.515" = type { float }
%"class.std::__1::unique_ptr.520" = type { %"class.std::__1::__compressed_pair.521" }
%"class.std::__1::__compressed_pair.521" = type { %"struct.std::__1::__compressed_pair_elem.522" }
%"struct.std::__1::__compressed_pair_elem.522" = type { %"class.blink::HeapCompact"* }
%"class.blink::HeapCompact" = type <{ %"class.blink::ThreadHeap"*, %"class.std::__1::unique_ptr.523", i8, [7 x i8], i64, i64, i32, [4 x i8], i64, i8, [7 x i8] }>
%"class.std::__1::unique_ptr.523" = type { %"class.std::__1::__compressed_pair.524" }
%"class.std::__1::__compressed_pair.524" = type { %"struct.std::__1::__compressed_pair_elem.525" }
%"struct.std::__1::__compressed_pair_elem.525" = type { %"class.blink::HeapCompact::MovableObjectFixups"* }
%"class.blink::HeapCompact::MovableObjectFixups" = type opaque
%"struct.blink::ThreadHeap::LastAllocatedRegion" = type { i8*, i64 }
%"class.blink::BaseArena" = type <{ i32 (...)**, %"class.blink::PageStackThreadSafe", %"class.blink::PageStackThreadSafe", %"class.blink::PageStackThreadSafe", %"class.blink::PageStackThreadSafe", %"class.blink::ThreadState"*, i32, [4 x i8] }>
%"class.blink::PageStackThreadSafe" = type { %"class.blink::PageStack", %"class.WTF::Mutex" }
%"class.blink::PageStack" = type { %"class.WTF::Vector.532" }
%"class.WTF::Vector.532" = type { %"class.WTF::VectorBuffer.533" }
%"class.WTF::VectorBuffer.533" = type { %"class.WTF::VectorBufferBase.534" }
%"class.WTF::VectorBufferBase.534" = type { %"class.blink::BasePage"**, i32, i32 }
%"class.blink::BasePage" = type <{ i32 (...)**, %"class.blink::PageMemory"*, %"class.blink::BaseArena"*, %"class.blink::ThreadState"*, i64, i8, i8, i8, [5 x i8] }>
%"class.blink::PageMemory" = type opaque
%"class.std::__1::unique_ptr.540" = type { %"class.std::__1::__compressed_pair.541" }
%"class.std::__1::__compressed_pair.541" = type { %"struct.std::__1::__compressed_pair_elem.542" }
%"struct.std::__1::__compressed_pair_elem.542" = type { %"class.blink::PersistentRegion"* }
%"class.blink::PersistentRegion" = type { %"class.blink::PersistentRegionBase" }
%"class.blink::PersistentRegionBase" = type { %"class.blink::PersistentNode"*, %"struct.blink::PersistentNodeSlots"* }
%"class.blink::PersistentNode" = type { i8*, void (%"class.blink::Visitor"*, i8*)* }
%"struct.blink::PersistentNodeSlots" = type { %"struct.blink::PersistentNodeSlots"*, [256 x %"class.blink::PersistentNode"] }
%"class.WTF::Deque" = type { %"class.WTF::Deque<std::__1::pair<void *, bool (*)(const blink::LivenessBroker &, void *)>, 0, WTF::PartitionAllocator>::BackingBuffer", i32, i32 }
%"class.WTF::Deque<std::__1::pair<void *, bool (*)(const blink::LivenessBroker &, void *)>, 0, WTF::PartitionAllocator>::BackingBuffer" = type { %"class.WTF::VectorBuffer.548" }
%"class.WTF::VectorBuffer.548" = type { %"class.WTF::VectorBufferBase.549" }
%"class.WTF::VectorBufferBase.549" = type { %"struct.std::__1::pair.550"*, i32, i32 }
%"struct.std::__1::pair.550" = type { i8*, i1 (%"class.blink::LivenessBroker"*, i8*)* }
%"class.blink::LivenessBroker" = type { i8 }
%"class.v8::EmbedderGraph" = type opaque
%"class.std::__1::unique_ptr.551" = type { %"class.std::__1::__compressed_pair.552" }
%"class.std::__1::__compressed_pair.552" = type { %"struct.std::__1::__compressed_pair_elem.553" }
%"struct.std::__1::__compressed_pair_elem.553" = type { %"class.blink::UnifiedHeapController"* }
%"class.blink::UnifiedHeapController" = type opaque
%"class.std::__1::unique_ptr.557" = type { %"class.std::__1::__compressed_pair.558" }
%"class.std::__1::__compressed_pair.558" = type { %"struct.std::__1::__compressed_pair_elem.559" }
%"struct.std::__1::__compressed_pair_elem.559" = type { %"class.v8::EmbedderRootsHandler"* }
%"class.v8::EmbedderRootsHandler" = type { i32 (...)** }
%"struct.blink::ThreadState::GCData" = type { i32, i32, i32, i32, %"class.std::__1::unique_ptr.563" }
%"class.std::__1::unique_ptr.563" = type { %"class.std::__1::__compressed_pair.564" }
%"class.std::__1::__compressed_pair.564" = type { %"struct.std::__1::__compressed_pair_elem.565" }
%"struct.std::__1::__compressed_pair_elem.565" = type { %"class.blink::MarkingVisitor"* }
%"class.blink::MarkingVisitor" = type { %"class.blink::MarkingVisitorBase", %"class.blink::MarkingVisitor::RecentlyRetracedWeakContainers" }
%"class.blink::MarkingVisitorBase" = type { %"class.blink::Visitor", %"class.blink::Worklist<blink::TraceDescriptor, 512, 4>::View", %"class.blink::Worklist<blink::HeapObjectHeader *, 64, 4>::View", %"class.blink::Worklist<const void *, 16, 4>::View", %"class.blink::Worklist<blink::CustomCallbackItem, 64, 4>::View", %"class.blink::Worklist<const void *const *, 256, 4>::View", %"class.blink::Worklist<blink::EphemeronPairItem, 64, 4>::View", %"class.blink::Worklist<blink::EphemeronPairItem, 64, 4>::View", %"class.blink::WeakContainersWorklist"*, i64, i32, i32 }
%"class.blink::Worklist<blink::TraceDescriptor, 512, 4>::View" = type <{ %"class.blink::Worklist"*, i32, [4 x i8] }>
%"class.blink::Worklist<blink::HeapObjectHeader *, 64, 4>::View" = type <{ %"class.blink::Worklist.451"*, i32, [4 x i8] }>
%"class.blink::Worklist<const void *, 16, 4>::View" = type <{ %"class.blink::Worklist.458"*, i32, [4 x i8] }>
%"class.blink::Worklist<blink::CustomCallbackItem, 64, 4>::View" = type <{ %"class.blink::Worklist.465"*, i32, [4 x i8] }>
%"class.blink::Worklist<const void *const *, 256, 4>::View" = type <{ %"class.blink::Worklist.472"*, i32, [4 x i8] }>
%"class.blink::Worklist<blink::EphemeronPairItem, 64, 4>::View" = type <{ %"class.blink::Worklist.479"*, i32, [4 x i8] }>
%"class.blink::MarkingVisitor::RecentlyRetracedWeakContainers" = type { %"class.std::__1::vector", i64 }
%"class.std::__1::vector" = type { %"class.std::__1::__vector_base" }
%"class.std::__1::__vector_base" = type { %"class.blink::HeapObjectHeader"**, %"class.blink::HeapObjectHeader"**, %"class.std::__1::__compressed_pair.586" }
%"class.blink::HeapObjectHeader" = type { i32, i16, i16 }
%"class.std::__1::__compressed_pair.586" = type { %"struct.std::__1::__compressed_pair_elem.587" }
%"struct.std::__1::__compressed_pair_elem.587" = type { %"class.blink::HeapObjectHeader"** }
%"class.std::__1::unique_ptr.569" = type { %"class.std::__1::__compressed_pair.570" }
%"class.std::__1::__compressed_pair.570" = type { %"struct.std::__1::__compressed_pair_elem.571" }
%"struct.std::__1::__compressed_pair_elem.571" = type { %"class.blink::ThreadState::IncrementalMarkingScheduler"* }
%"class.blink::ThreadState::IncrementalMarkingScheduler" = type opaque
%"class.std::__1::unique_ptr.575" = type { %"class.std::__1::__compressed_pair.576" }
%"class.std::__1::__compressed_pair.576" = type { %"struct.std::__1::__compressed_pair_elem.577" }
%"struct.std::__1::__compressed_pair_elem.577" = type { %"class.blink::MarkingSchedulingOracle"* }
%"class.blink::MarkingSchedulingOracle" = type opaque
%"class.base::JobHandle" = type { %class.scoped_refptr.581 }
%class.scoped_refptr.581 = type { %"class.base::internal::JobTaskSource"* }
%"class.base::internal::JobTaskSource" = type opaque
%"struct.std::__1::atomic.582" = type { %"struct.std::__1::__atomic_base.583" }
%"struct.std::__1::__atomic_base.583" = type { %"struct.std::__1::__cxx_atomic_impl.584" }
%"struct.std::__1::__cxx_atomic_impl.584" = type { %"struct.std::__1::__cxx_atomic_base_impl.585" }
%"struct.std::__1::__cxx_atomic_base_impl.585" = type { i8 }
%"class.base::TimeTicks" = type { %"class.base::time_internal::TimeBase" }
%"class.base::time_internal::TimeBase" = type { i64 }
%"class.blink::GCInfoTable" = type { %"struct.blink::GCInfo"**, i32, i32, %"class.WTF::Mutex" }
%"class.blink::AtomicEntryFlag" = type { %"struct.std::__1::atomic.135" }
%"struct.std::__1::atomic.135" = type { %"struct.std::__1::__atomic_base.136" }
%"struct.std::__1::__atomic_base.136" = type { %"struct.std::__1::__atomic_base.137" }
%"struct.std::__1::__atomic_base.137" = type { %"struct.std::__1::__cxx_atomic_impl.138" }
%"struct.std::__1::__cxx_atomic_impl.138" = type { %"struct.std::__1::__cxx_atomic_base_impl.139" }
%"struct.std::__1::__cxx_atomic_base_impl.139" = type { i32 }
%"class.blink::VTTElement" = type { %"class.blink::Element", %"class.blink::Member.19", i8, %"class.WTF::AtomicString" }
%"class.blink::Element" = type { %"class.blink::ContainerNode", %"class.blink::Animatable", %"class.blink::QualifiedName", %"class.blink::Member.8" }
%"class.blink::ContainerNode" = type { %"class.blink::Node", %"class.blink::Member", %"class.blink::Member" }
%"class.blink::Node" = type { %"class.blink::EventTarget", i32, %"class.blink::Member", %"class.blink::Member.0", %"class.blink::Member", %"class.blink::Member", %"class.blink::Member.2" }
%"class.blink::EventTarget" = type { %"class.blink::ScriptWrappable" }
%"class.blink::ScriptWrappable" = type { %"class.blink::NameClient", %"class.blink::TraceWrapperV8Reference" }
%"class.blink::NameClient" = type { i32 (...)** }
%"class.blink::TraceWrapperV8Reference" = type { %"class.v8::TracedReference" }
%"class.v8::TracedReference" = type { %"class.v8::BasicTracedReference" }
%"class.v8::BasicTracedReference" = type { %"class.v8::TracedReferenceBase" }
%"class.v8::TracedReferenceBase" = type { i64* }
%"class.blink::Member.0" = type { %"class.blink::MemberBase.1" }
%"class.blink::MemberBase.1" = type { %"class.blink::TreeScope"* }
%"class.blink::TreeScope" = type { %"class.blink::GarbageCollectedMixin", %"class.blink::Member.86", %"class.blink::Member.66", %"class.blink::Member.0", %"class.blink::Member.88", %"class.blink::Member.88", %"class.blink::Member.112", %"class.blink::Member.114", %"class.blink::Member.116", %"class.blink::RadioButtonGroupScope", %"class.blink::Member.121", %"class.blink::HeapVector.42" }
%"class.blink::GarbageCollectedMixin" = type { i32 (...)** }
%"class.blink::Member.86" = type { %"class.blink::MemberBase.87" }
%"class.blink::MemberBase.87" = type { %"class.blink::ContainerNode"* }
%"class.blink::Member.66" = type { %"class.blink::MemberBase.67" }
%"class.blink::MemberBase.67" = type { %"class.blink::Document"* }
%"class.blink::Member.88" = type { %"class.blink::MemberBase.89" }
%"class.blink::MemberBase.89" = type { %"class.blink::TreeOrderedMap"* }
%"class.blink::TreeOrderedMap" = type { %"class.blink::HeapHashMap.92" }
%"class.blink::HeapHashMap.92" = type { %"class.WTF::HashMap.95" }
%"class.WTF::HashMap.95" = type { %"class.WTF::HashTable.96" }
%"class.WTF::HashTable.96" = type <{ %"struct.WTF::KeyValuePair.98"*, i32, i32, i32, [4 x i8] }>
%"struct.WTF::KeyValuePair.98" = type { %"class.WTF::AtomicString", %"class.blink::Member.99" }
%"class.blink::Member.99" = type { %"class.blink::MemberBase.100" }
%"class.blink::MemberBase.100" = type { %"class.blink::TreeOrderedMap::MapEntry"* }
%"class.blink::TreeOrderedMap::MapEntry" = type { %"class.blink::Member.103", i32, %"class.blink::HeapVector.105" }
%"class.blink::Member.103" = type { %"class.blink::MemberBase.104" }
%"class.blink::MemberBase.104" = type { %"class.blink::Element"* }
%"class.blink::HeapVector.105" = type { %"class.WTF::Vector.108" }
%"class.WTF::Vector.108" = type { %"class.WTF::VectorBuffer.109" }
%"class.WTF::VectorBuffer.109" = type { %"class.WTF::VectorBufferBase.110" }
%"class.WTF::VectorBufferBase.110" = type { %"class.blink::Member.103"*, i32, i32 }
%"class.blink::Member.112" = type { %"class.blink::MemberBase.113" }
%"class.blink::MemberBase.113" = type { %"class.blink::IdTargetObserverRegistry"* }
%"class.blink::IdTargetObserverRegistry" = type opaque
%"class.blink::Member.114" = type { %"class.blink::MemberBase.115" }
%"class.blink::MemberBase.115" = type { %"class.blink::ScopedStyleResolver"* }
%"class.blink::ScopedStyleResolver" = type opaque
%"class.blink::Member.116" = type { %"class.blink::MemberBase.117" }
%"class.blink::MemberBase.117" = type { %"class.blink::DOMSelection"* }
%"class.blink::DOMSelection" = type opaque
%"class.blink::RadioButtonGroupScope" = type { %"class.blink::Member.118" }
%"class.blink::Member.118" = type { %"class.blink::MemberBase.119" }
%"class.blink::MemberBase.119" = type { %"class.blink::HeapHashMap.120"* }
%"class.blink::HeapHashMap.120" = type opaque
%"class.blink::Member.121" = type { %"class.blink::MemberBase.122" }
%"class.blink::MemberBase.122" = type { %"class.blink::SVGTreeScopeResources"* }
%"class.blink::SVGTreeScopeResources" = type opaque
%"class.blink::HeapVector.42" = type { %"class.WTF::Vector.45" }
%"class.WTF::Vector.45" = type { %"class.WTF::VectorBuffer.46" }
%"class.WTF::VectorBuffer.46" = type { %"class.WTF::VectorBufferBase.47" }
%"class.WTF::VectorBufferBase.47" = type { %"class.blink::Member.48"*, i32, i32 }
%"class.blink::Member.48" = type { %"class.blink::MemberBase.49" }
%"class.blink::MemberBase.49" = type { %"class.blink::CSSStyleSheet"* }
%"class.blink::CSSStyleSheet" = type { %"class.blink::StyleSheet", %"class.blink::Member.50", i8, i8, i8, i8, i8, %"class.WTF::String", %class.scoped_refptr.52, %"class.WTF::Vector.53", %"class.WTF::Vector.53", %"class.blink::Member", %"class.blink::Member.58", %"class.blink::HeapHashSet", %"class.blink::Member.66", %"class.WTF::HashSet.68", %"class.WTF::TextPosition", %"class.blink::Member.72", %"class.blink::HeapVector.74", %"class.blink::Member.81" }
%"class.blink::StyleSheet" = type { %"class.blink::ScriptWrappable" }
%"class.blink::Member.50" = type { %"class.blink::MemberBase.51" }
%"class.blink::MemberBase.51" = type { %"class.blink::StyleSheetContents"* }
%"class.blink::StyleSheetContents" = type opaque
%class.scoped_refptr.52 = type { %"class.blink::MediaQuerySet"* }
%"class.blink::MediaQuerySet" = type opaque
%"class.WTF::Vector.53" = type { %"class.WTF::VectorBuffer.54" }
%"class.WTF::VectorBuffer.54" = type { %"class.WTF::VectorBufferBase.55" }
%"class.WTF::VectorBufferBase.55" = type { %"class.blink::MediaQueryResult"*, i32, i32 }
%"class.blink::MediaQueryResult" = type opaque
%"class.blink::Member.58" = type { %"class.blink::MemberBase.59" }
%"class.blink::MemberBase.59" = type { %"class.blink::CSSRule"* }
%"class.blink::CSSRule" = type { %"class.blink::ScriptWrappable", i8, %"class.blink::Member.60" }
%"class.blink::Member.60" = type { %"class.blink::MemberBase.61" }
%"class.blink::MemberBase.61" = type { %"class.blink::ScriptWrappable"* }
%"class.blink::HeapHashSet" = type { %"class.WTF::HashSet" }
%"class.WTF::HashSet" = type { %"class.WTF::HashTable.64" }
%"class.WTF::HashTable.64" = type <{ %"class.blink::WeakMember"*, i32, i32, i32, [4 x i8] }>
%"class.blink::WeakMember" = type { %"class.blink::MemberBase.1" }
%"class.WTF::HashSet.68" = type { %"class.WTF::HashTable.69" }
%"class.WTF::HashTable.69" = type <{ %"class.WTF::AtomicString"*, i32, i32, i32, [4 x i8] }>
%"class.WTF::TextPosition" = type { %"class.WTF::OrdinalNumber", %"class.WTF::OrdinalNumber" }
%"class.WTF::OrdinalNumber" = type { i32 }
%"class.blink::Member.72" = type { %"class.blink::MemberBase.73" }
%"class.blink::MemberBase.73" = type { %"class.blink::MediaList"* }
%"class.blink::MediaList" = type opaque
%"class.blink::HeapVector.74" = type { %"class.WTF::Vector.77" }
%"class.WTF::Vector.77" = type { %"class.WTF::VectorBuffer.78" }
%"class.WTF::VectorBuffer.78" = type { %"class.WTF::VectorBufferBase.79" }
%"class.WTF::VectorBufferBase.79" = type { %"class.blink::Member.58"*, i32, i32 }
%"class.blink::Member.81" = type { %"class.blink::MemberBase.82" }
%"class.blink::MemberBase.82" = type { %"class.blink::CSSRuleList"* }
%"class.blink::CSSRuleList" = type opaque
%"class.blink::Member.2" = type { %"class.blink::MemberBase.3" }
%"class.blink::MemberBase.3" = type { %"class.blink::NodeData"* }
%"class.blink::NodeData" = type { i16, %"class.WTF::ConcurrentlyReadBitField" }
%"class.WTF::ConcurrentlyReadBitField" = type { %"class.WTF::SingleThreadedBitField" }
%"class.WTF::SingleThreadedBitField" = type { i16 }
%"class.blink::Member" = type { %"class.blink::MemberBase" }
%"class.blink::MemberBase" = type { %"class.blink::Node"* }
%"class.blink::Animatable" = type { i32 (...)** }
%"class.blink::Member.8" = type { %"class.blink::MemberBase.9" }
%"class.blink::MemberBase.9" = type { %"class.blink::ElementData"* }
%"class.blink::ElementData" = type { %"class.WTF::ConcurrentlyReadBitField.12", %"class.blink::Member.14", %"class.blink::SpaceSplitString", %"class.WTF::AtomicString" }
%"class.WTF::ConcurrentlyReadBitField.12" = type { %"class.WTF::SingleThreadedBitField.13" }
%"class.WTF::SingleThreadedBitField.13" = type { i32 }
%"class.blink::Member.14" = type { %"class.blink::MemberBase.15" }
%"class.blink::MemberBase.15" = type { %"class.blink::CSSPropertyValueSet"* }
%"class.blink::CSSPropertyValueSet" = type opaque
%"class.blink::SpaceSplitString" = type { %class.scoped_refptr.16 }
%class.scoped_refptr.16 = type { %"class.blink::SpaceSplitString::Data"* }
%"class.blink::SpaceSplitString::Data" = type { %"class.WTF::RefCounted.17", %"class.WTF::AtomicString", %"class.WTF::Vector" }
%"class.WTF::RefCounted.17" = type { %"class.base::RefCounted.18" }
%"class.base::RefCounted.18" = type { %"class.base::subtle::RefCountedBase" }
%"class.WTF::Vector" = type { %"class.WTF::VectorBuffer" }
%"class.WTF::VectorBuffer" = type { %"class.WTF::VectorBufferBase", [32 x i8] }
%"class.WTF::VectorBufferBase" = type { %"class.WTF::AtomicString"*, i32, i32 }
%"class.blink::Member.19" = type { %"class.blink::MemberBase.20" }
%"class.blink::MemberBase.20" = type { %"class.blink::TextTrack"* }
%"class.blink::TextTrack" = type <{ %"class.blink::EventTargetWithInlineData", %"class.blink::TrackBase", %"class.blink::Member.40", %"class.blink::Member.40", %"class.blink::HeapVector.42", %"class.blink::Member.84", %"class.WTF::AtomicString", i32, i32, i32, i32, i8, [7 x i8] }>
%"class.blink::EventTargetWithInlineData" = type { %"class.blink::EventTarget", %"class.blink::EventTargetData" }
%"class.blink::EventTargetData" = type { %"class.blink::EventListenerMap", %"class.std::__1::unique_ptr" }
%"class.blink::EventListenerMap" = type { %"class.blink::HeapVector" }
%"class.blink::HeapVector" = type { %"class.WTF::Vector.25" }
%"class.WTF::Vector.25" = type { %"class.WTF::VectorBuffer.26" }
%"class.WTF::VectorBuffer.26" = type { %"class.WTF::VectorBufferBase.27", [32 x i8] }
%"class.WTF::VectorBufferBase.27" = type { %"struct.std::__1::pair"*, i32, i32 }
%"struct.std::__1::pair" = type { %"class.WTF::AtomicString", %"class.blink::Member.28" }
%"class.blink::Member.28" = type { %"class.blink::MemberBase.29" }
%"class.blink::MemberBase.29" = type { %"class.blink::HeapVector.30"* }
%"class.blink::HeapVector.30" = type opaque
%"class.std::__1::unique_ptr" = type { %"class.std::__1::__compressed_pair" }
%"class.std::__1::__compressed_pair" = type { %"struct.std::__1::__compressed_pair_elem" }
%"struct.std::__1::__compressed_pair_elem" = type { %"class.WTF::Vector.33"* }
%"class.WTF::Vector.33" = type opaque
%"class.blink::TrackBase" = type { %"class.blink::Supplementable", i32, %"class.WTF::AtomicString", %"class.WTF::AtomicString", %"class.WTF::AtomicString", %"class.WTF::String", %"class.blink::Member.38" }
%"class.blink::Supplementable" = type { %"class.blink::GarbageCollectedMixin", %"class.blink::HeapHashMap" }
%"class.blink::HeapHashMap" = type { %"class.WTF::HashMap" }
%"class.WTF::HashMap" = type { %"class.WTF::HashTable" }
%"class.WTF::HashTable" = type <{ %"struct.WTF::KeyValuePair"*, i32, i32, i32, [4 x i8] }>
%"struct.WTF::KeyValuePair" = type opaque
%"class.blink::Member.38" = type { %"class.blink::MemberBase.39" }
%"class.blink::MemberBase.39" = type { %"class.blink::HTMLMediaElement"* }
%"class.blink::HTMLMediaElement" = type opaque
%"class.blink::Member.40" = type { %"class.blink::MemberBase.41" }
%"class.blink::MemberBase.41" = type { %"class.blink::TextTrackCueList"* }
%"class.blink::TextTrackCueList" = type opaque
%"class.blink::Member.84" = type { %"class.blink::MemberBase.85" }
%"class.blink::MemberBase.85" = type { %"class.blink::TextTrackList"* }
%"class.blink::TextTrackList" = type opaque
%"class.blink::Document" = type { %"class.blink::ContainerNode", %"class.blink::TreeScope", %"class.blink::UseCounter", %"class.blink::Supplementable.123", i32, %"class.blink::DocumentLifecycle", i8, i8, %"class.WTF::Vector.131", %"class.WTF::Vector.131", i8, i32, %"class.blink::Member.142", %"class.blink::Member.144", %"class.blink::Member.146", %"class.blink::Member.148", %"class.blink::Member.150", %"class.blink::Member.152", i8, %"class.blink::KURL", %"class.blink::KURL", %"class.blink::KURL", %"class.blink::KURL", %"class.blink::KURL", %"class.std::__1::unique_ptr.160", %"class.blink::KURL", %"class.WTF::AtomicString", %"class.WTF::AtomicString", %"class.blink::Member.166", %"class.blink::Member.168", %"class.blink::Member.48", i32, i32, i32, i8, %"class.blink::TaskHandle", %"class.blink::TaskHandle", %"class.WTF::Vector.171", i8, i32, i8, %"class.blink::HeapTaskRunnerTimer", %"class.blink::HeapVector.105", %"class.blink::Member.103", %"class.blink::Member.187", %"class.blink::Member.103", %"class.blink::Member.103", %"class.blink::Member.103", %"class.blink::UserActionElementSet", %"class.blink::Member.196", double, double, i64, i64, %"class.blink::HeapHashSet.198", %"class.blink::HeapHashSet.205", i16, i8, %"class.blink::Member.212", %"class.blink::Member.214", %"class.blink::Member.216", %"class.blink::Member.218", %"class.blink::TextLinkColors", %"class.blink::Member.220", i8, [7 x i8], %"class.blink::HeapHashMap.222", i32, i32, i8, i8, i8, i32, i32, i32, i8, %"class.WTF::String", %"class.WTF::String", %"class.blink::Member.103", %"class.WTF::Vector.229", %"class.blink::Member.234", %"class.blink::Member.236", i8, %"class.blink::Member.103", i8, i32, i8, %"class.base::ElapsedTimer", %"class.blink::Member.238", %"class.blink::HeapVector.240", %"class.std::__1::unique_ptr.248", %"class.WTF::String", %"class.WTF::String", i8, %"class.WTF::AtomicString", %"class.blink::DocumentEncodingData", i8, i8, [6 x i8], %"class.blink::HeapHashSet.254", %"class.blink::LiveNodeListRegistry", %"class.blink::Member.267", %"class.WTF::Vector.269", i8, i8, %"class.std::__1::unique_ptr.274", %"class.blink::NthIndexCache"*, i8, i8, i8, i8, i8, i8, %"class.blink::LayoutView"*, %"class.blink::HeapVector.105", %"class.blink::HeapVector.280", i32, i8, %"class.blink::HeapTaskRunnerTimer", %"class.blink::HeapTaskRunnerTimer", %"class.blink::DocumentTiming", %"class.blink::Member.288", i8, i32, %"class.blink::Member.290", %"class.blink::Member.292", %"class.blink::Member.294", %"class.blink::HeapTaskRunnerTimer", %"class.blink::Member.296", %"class.WTF::HashMap.298", %"class.blink::Member.303", %"class.blink::Member.305", %"class.blink::Member.307", %"class.blink::Member.309", %"class.blink::Member.66", %"class.blink::Member.66", %"class.blink::HeapTaskRunnerTimer", %"class.blink::HeapHashSet.311", i8, i32, %"class.blink::Member.318", %"class.blink::Member.320", i32, %"class.blink::Member.322", %"class.blink::Member.324", %"class.blink::Member.326", %"class.std::__1::unique_ptr.328", i64, %"class.std::__1::unique_ptr.334", i32, i32, %"class.blink::Member.340", %"class.blink::Member.342", %"class.blink::Member.344", i8, i32, i32, i32, i32, i32, i32, i32, i8, i8, %"class.blink::Member.346", %"class.WTF::Vector.348", %"class.WTF::AtomicString", %"class.blink::HeapHashMap.353", %"class.blink::Member.360", %"class.std::__1::unique_ptr.362", %"class.blink::Member.368", i8, i8, %"class.WTF::String", %"class.blink::Member.370", i8, [7 x i8], %"class.blink::HeapHashMap.372", %"class.blink::HeapObserverSet", %"class.blink::Member.386", i8, i8, i8, i8, i8, i8, i8, %"class.blink::Member.388", i32, i8, i8, %"class.blink::WeakMember.390", %"class.blink::Member.391" }
%"class.blink::UseCounter" = type { %"class.blink::GarbageCollectedMixin" }
%"class.blink::Supplementable.123" = type { %"class.blink::GarbageCollectedMixin", %"class.blink::HeapHashMap.124" }
%"class.blink::HeapHashMap.124" = type { %"class.WTF::HashMap.127" }
%"class.WTF::HashMap.127" = type { %"class.WTF::HashTable.128" }
%"class.WTF::HashTable.128" = type <{ %"struct.WTF::KeyValuePair.130"*, i32, i32, i32, [4 x i8] }>
%"struct.WTF::KeyValuePair.130" = type opaque
%"class.blink::DocumentLifecycle" = type <{ i32, i32, i32, i8, i8, [2 x i8] }>
%"class.WTF::Vector.131" = type { %"class.WTF::VectorBuffer.132" }
%"class.WTF::VectorBuffer.132" = type { %"class.WTF::VectorBufferBase.133" }
%"class.WTF::VectorBufferBase.133" = type { %"class.base::OnceCallback"*, i32, i32 }
%"class.base::OnceCallback" = type { %"class.base::internal::CallbackBase" }
%"class.base::internal::CallbackBase" = type { %class.scoped_refptr.134 }
%class.scoped_refptr.134 = type { %"class.base::internal::BindStateBase"* }
%"class.base::internal::BindStateBase" = type { %"class.base::RefCountedThreadSafe", void ()*, void (%"class.base::internal::BindStateBase"*)*, i1 (%"class.base::internal::BindStateBase"*, i32)* }
%"class.base::RefCountedThreadSafe" = type { %"class.base::subtle::RefCountedThreadSafeBase" }
%"class.base::subtle::RefCountedThreadSafeBase" = type { %"class.base::AtomicRefCount" }
%"class.base::AtomicRefCount" = type { %"struct.std::__1::atomic.135" }
%"class.blink::Member.142" = type { %"class.blink::MemberBase.143" }
%"class.blink::MemberBase.143" = type { %"class.blink::LocalDOMWindow"* }
%"class.blink::LocalDOMWindow" = type opaque
%"class.blink::Member.144" = type { %"class.blink::MemberBase.145" }
%"class.blink::MemberBase.145" = type { %"class.blink::ExecutionContext"* }
%"class.blink::ExecutionContext" = type opaque
%"class.blink::Member.146" = type { %"class.blink::MemberBase.147" }
%"class.blink::MemberBase.147" = type { %"class.blink::ResourceFetcher"* }
%"class.blink::ResourceFetcher" = type opaque
%"class.blink::Member.148" = type { %"class.blink::MemberBase.149" }
%"class.blink::MemberBase.149" = type { %"class.blink::DocumentParser"* }
%"class.blink::DocumentParser" = type opaque
%"class.blink::Member.150" = type { %"class.blink::MemberBase.151" }
%"class.blink::MemberBase.151" = type { %"class.blink::ContextFeatures"* }
%"class.blink::ContextFeatures" = type opaque
%"class.blink::Member.152" = type { %"class.blink::MemberBase.153" }
%"class.blink::MemberBase.153" = type { %"class.blink::HttpRefreshScheduler"* }
%"class.blink::HttpRefreshScheduler" = type opaque
%"class.std::__1::unique_ptr.160" = type { %"class.std::__1::__compressed_pair.161" }
%"class.std::__1::__compressed_pair.161" = type { %"struct.std::__1::__compressed_pair_elem.162" }
%"struct.std::__1::__compressed_pair_elem.162" = type { %"class.blink::OriginAccessEntry"* }
%"class.blink::OriginAccessEntry" = type opaque
%"class.blink::KURL" = type { i8, i8, %"class.WTF::String", %"struct.url::Parsed", %"class.WTF::String", %"class.std::__1::unique_ptr.154" }
%"struct.url::Parsed" = type { %"struct.url::Component", %"struct.url::Component", %"struct.url::Component", %"struct.url::Component", %"struct.url::Component", %"struct.url::Component", %"struct.url::Component", %"struct.url::Component", i8, %"struct.url::Parsed"* }
%"struct.url::Component" = type { i32, i32 }
%"class.std::__1::unique_ptr.154" = type { %"class.std::__1::__compressed_pair.155" }
%"class.std::__1::__compressed_pair.155" = type { %"struct.std::__1::__compressed_pair_elem.156" }
%"struct.std::__1::__compressed_pair_elem.156" = type { %"class.blink::KURL"* }
%"class.blink::Member.166" = type { %"class.blink::MemberBase.167" }
%"class.blink::MemberBase.167" = type { %"class.blink::DocumentType"* }
%"class.blink::DocumentType" = type opaque
%"class.blink::Member.168" = type { %"class.blink::MemberBase.169" }
%"class.blink::MemberBase.169" = type { %"class.blink::DOMImplementation"* }
%"class.blink::DOMImplementation" = type opaque
%"class.blink::TaskHandle" = type { %class.scoped_refptr.170 }
%class.scoped_refptr.170 = type { %"class.blink::TaskHandle::Runner"* }
%"class.blink::TaskHandle::Runner" = type opaque
%"class.WTF::Vector.171" = type { %"class.WTF::VectorBuffer.172" }
%"class.WTF::VectorBuffer.172" = type { %"class.WTF::VectorBufferBase.173" }
%"class.WTF::VectorBufferBase.173" = type { %"struct.blink::Document::PendingJavascriptUrl"*, i32, i32 }
%"struct.blink::Document::PendingJavascriptUrl" = type { %"class.blink::KURL", %class.scoped_refptr.174 }
%class.scoped_refptr.174 = type { %"class.blink::DOMWrapperWorld"* }
%"class.blink::Member.187" = type { %"class.blink::MemberBase.188" }
%"class.blink::MemberBase.188" = type { %"class.blink::Range"* }
%"class.blink::Range" = type opaque
%"class.blink::UserActionElementSet" = type { %"class.blink::HeapHashMap.189" }
%"class.blink::HeapHashMap.189" = type { %"class.WTF::HashMap.192" }
%"class.WTF::HashMap.192" = type { %"class.WTF::HashTable.193" }
%"class.WTF::HashTable.193" = type <{ %"struct.WTF::KeyValuePair.195"*, i32, i32, i32, [4 x i8] }>
%"struct.WTF::KeyValuePair.195" = type opaque
%"class.blink::Member.196" = type { %"class.blink::MemberBase.197" }
%"class.blink::MemberBase.197" = type { %"class.blink::RootScrollerController"* }
%"class.blink::RootScrollerController" = type opaque
%"class.blink::HeapHashSet.198" = type { %"class.WTF::HashSet.201" }
%"class.WTF::HashSet.201" = type { %"class.WTF::HashTable.202" }
%"class.WTF::HashTable.202" = type <{ %"class.blink::WeakMember.204"*, i32, i32, i32, [4 x i8] }>
%"class.blink::WeakMember.204" = type opaque
%"class.blink::HeapHashSet.205" = type { %"class.WTF::HashSet.208" }
%"class.WTF::HashSet.208" = type { %"class.WTF::HashTable.209" }
%"class.WTF::HashTable.209" = type <{ %"class.blink::WeakMember.211"*, i32, i32, i32, [4 x i8] }>
%"class.blink::WeakMember.211" = type opaque
%"class.blink::Member.212" = type { %"class.blink::MemberBase.213" }
%"class.blink::MemberBase.213" = type { %"class.blink::ElementIntersectionObserverData"* }
%"class.blink::ElementIntersectionObserverData" = type opaque
%"class.blink::Member.214" = type { %"class.blink::MemberBase.215" }
%"class.blink::MemberBase.215" = type { %"class.blink::StyleEngine"* }
%"class.blink::StyleEngine" = type opaque
%"class.blink::Member.216" = type { %"class.blink::MemberBase.217" }
%"class.blink::MemberBase.217" = type { %"class.blink::StyleSheetList"* }
%"class.blink::StyleSheetList" = type opaque
%"class.blink::Member.218" = type { %"class.blink::MemberBase.219" }
%"class.blink::MemberBase.219" = type { %"class.blink::FormController"* }
%"class.blink::FormController" = type opaque
%"class.blink::TextLinkColors" = type { %"class.blink::Color", %"class.blink::Color", %"class.blink::Color", %"class.blink::Color", i8, i8, i8, i8 }
%"class.blink::Color" = type { i32 }
%"class.blink::Member.220" = type { %"class.blink::MemberBase.221" }
%"class.blink::MemberBase.221" = type { %"class.blink::VisitedLinkState"* }
%"class.blink::VisitedLinkState" = type opaque
%"class.blink::HeapHashMap.222" = type { %"class.WTF::HashMap.225" }
%"class.WTF::HashMap.225" = type { %"class.WTF::HashTable.226" }
%"class.WTF::HashTable.226" = type <{ %"struct.WTF::KeyValuePair.228"*, i32, i32, i32, [4 x i8] }>
%"struct.WTF::KeyValuePair.228" = type opaque
%"class.WTF::Vector.229" = type { %"class.WTF::VectorBuffer.230" }
%"class.WTF::VectorBuffer.230" = type { %"class.WTF::VectorBufferBase.231" }
%"class.WTF::VectorBufferBase.231" = type { %"class.blink::AXContext"**, i32, i32 }
%"class.blink::AXContext" = type opaque
%"class.blink::Member.234" = type { %"class.blink::MemberBase.235" }
%"class.blink::MemberBase.235" = type { %"class.blink::AXObjectCache"* }
%"class.blink::AXObjectCache" = type opaque
%"class.blink::Member.236" = type { %"class.blink::MemberBase.237" }
%"class.blink::MemberBase.237" = type { %"class.blink::DocumentMarkerController"* }
%"class.blink::DocumentMarkerController" = type opaque
%"class.base::ElapsedTimer" = type { %"class.base::TimeTicks" }
%"class.blink::Member.238" = type { %"class.blink::MemberBase.239" }
%"class.blink::MemberBase.239" = type { %"class.blink::ScriptRunner"* }
%"class.blink::ScriptRunner" = type opaque
%"class.blink::HeapVector.240" = type { %"class.WTF::Vector.243" }
%"class.WTF::Vector.243" = type { %"class.WTF::VectorBuffer.244" }
%"class.WTF::VectorBuffer.244" = type { %"class.WTF::VectorBufferBase.245" }
%"class.WTF::VectorBufferBase.245" = type { %"class.blink::Member.246"*, i32, i32 }
%"class.blink::Member.246" = type opaque
%"class.std::__1::unique_ptr.248" = type { %"class.std::__1::__compressed_pair.249" }
%"class.std::__1::__compressed_pair.249" = type { %"struct.std::__1::__compressed_pair_elem.250" }
%"struct.std::__1::__compressed_pair_elem.250" = type { %"class.blink::TransformSource"* }
%"class.blink::TransformSource" = type opaque
%"class.blink::DocumentEncodingData" = type <{ %"class.WTF::TextEncoding", i8, i8, [6 x i8] }>
%"class.WTF::TextEncoding" = type { i8* }
%"class.blink::HeapHashSet.254" = type { %"class.WTF::HashSet.257" }
%"class.WTF::HashSet.257" = type { %"class.WTF::HashTable.258" }
%"class.WTF::HashTable.258" = type <{ %"class.blink::WeakMember.260"*, i32, i32, i32, [4 x i8] }>
%"class.blink::WeakMember.260" = type opaque
%"class.blink::LiveNodeListRegistry" = type <{ %"class.WTF::Vector.261", i32, [4 x i8] }>
%"class.WTF::Vector.261" = type { %"class.WTF::VectorBuffer.262" }
%"class.WTF::VectorBuffer.262" = type { %"class.WTF::VectorBufferBase.263" }
%"class.WTF::VectorBufferBase.263" = type { %"struct.std::__1::pair.264"*, i32, i32 }
%"struct.std::__1::pair.264" = type opaque
%"class.blink::Member.267" = type { %"class.blink::MemberBase.268" }
%"class.blink::MemberBase.268" = type { %"class.blink::SVGDocumentExtensions"* }
%"class.blink::SVGDocumentExtensions" = type opaque
%"class.WTF::Vector.269" = type { %"class.WTF::VectorBuffer.270" }
%"class.WTF::VectorBuffer.270" = type { %"class.WTF::VectorBufferBase.271" }
%"class.WTF::VectorBufferBase.271" = type { %"struct.blink::AnnotatedRegionValue"*, i32, i32 }
%"struct.blink::AnnotatedRegionValue" = type opaque
%"class.std::__1::unique_ptr.274" = type { %"class.std::__1::__compressed_pair.275" }
%"class.std::__1::__compressed_pair.275" = type { %"struct.std::__1::__compressed_pair_elem.276" }
%"struct.std::__1::__compressed_pair_elem.276" = type { %"class.blink::SelectorQueryCache"* }
%"class.blink::SelectorQueryCache" = type opaque
%"class.blink::NthIndexCache" = type opaque
%"class.blink::LayoutView" = type opaque
%"class.blink::HeapVector.280" = type { %"class.WTF::Vector.283" }
%"class.WTF::Vector.283" = type { %"class.WTF::VectorBuffer.284" }
%"class.WTF::VectorBuffer.284" = type { %"class.WTF::VectorBufferBase.285" }
%"class.WTF::VectorBufferBase.285" = type { %"class.blink::Member.286"*, i32, i32 }
%"class.blink::Member.286" = type opaque
%"class.blink::DocumentTiming" = type { %"class.base::TimeTicks", %"class.base::TimeTicks", %"class.base::TimeTicks", %"class.base::TimeTicks", %"class.base::TimeTicks", %"class.blink::Member.66" }
%"class.blink::Member.288" = type { %"class.blink::MemberBase.289" }
%"class.blink::MemberBase.289" = type { %"class.blink::MediaQueryMatcher"* }
%"class.blink::MediaQueryMatcher" = type opaque
%"class.blink::Member.290" = type { %"class.blink::MemberBase.291" }
%"class.blink::MemberBase.291" = type { %"class.blink::ScriptedAnimationController"* }
%"class.blink::ScriptedAnimationController" = type opaque
%"class.blink::Member.292" = type { %"class.blink::MemberBase.293" }
%"class.blink::MemberBase.293" = type { %"class.blink::ScriptedIdleTaskController"* }
%"class.blink::ScriptedIdleTaskController" = type opaque
%"class.blink::Member.294" = type { %"class.blink::MemberBase.295" }
%"class.blink::MemberBase.295" = type { %"class.blink::TextAutosizer"* }
%"class.blink::TextAutosizer" = type opaque
%"class.blink::Member.296" = type { %"class.blink::MemberBase.297" }
%"class.blink::MemberBase.297" = type { %"class.blink::ElementDataCache"* }
%"class.blink::ElementDataCache" = type opaque
%"class.WTF::HashMap.298" = type { %"class.WTF::HashTable.299" }
%"class.WTF::HashTable.299" = type <{ %"struct.WTF::KeyValuePair.302"*, i32, i32, i32, [4 x i8] }>
%"struct.WTF::KeyValuePair.302" = type opaque
%"class.blink::Member.303" = type { %"class.blink::MemberBase.304" }
%"class.blink::MemberBase.304" = type { %"class.blink::DocumentAnimations"* }
%"class.blink::DocumentAnimations" = type opaque
%"class.blink::Member.305" = type { %"class.blink::MemberBase.306" }
%"class.blink::MemberBase.306" = type { %"class.blink::DocumentTimeline"* }
%"class.blink::DocumentTimeline" = type opaque
%"class.blink::Member.307" = type { %"class.blink::MemberBase.308" }
%"class.blink::MemberBase.308" = type { %"class.blink::PendingAnimations"* }
%"class.blink::PendingAnimations" = type opaque
%"class.blink::Member.309" = type { %"class.blink::MemberBase.310" }
%"class.blink::MemberBase.310" = type { %"class.blink::WorkletAnimationController"* }
%"class.blink::WorkletAnimationController" = type opaque
%"class.blink::HeapTaskRunnerTimer" = type { %"class.blink::TimerBase", %"class.blink::WeakMember.186", { i64, i64 } }
%"class.blink::TimerBase" = type { i32 (...)**, %"class.base::TimeTicks", %"class.base::TimeDelta", %"class.base::Location", %class.scoped_refptr.177, %"class.base::WeakPtrFactory" }
%"class.base::TimeDelta" = type { i64 }
%"class.base::Location" = type { i8*, i8*, i32, i8* }
%class.scoped_refptr.177 = type { %"class.base::SingleThreadTaskRunner"* }
%"class.base::SingleThreadTaskRunner" = type { %"class.base::SequencedTaskRunner.base", [4 x i8] }
%"class.base::SequencedTaskRunner.base" = type { %"class.base::TaskRunner.base" }
%"class.base::TaskRunner.base" = type <{ i32 (...)**, %"class.base::RefCountedThreadSafe.178" }>
%"class.base::RefCountedThreadSafe.178" = type { %"class.base::subtle::RefCountedThreadSafeBase" }
%"class.base::WeakPtrFactory" = type { %"class.base::internal::WeakPtrFactoryBase" }
%"class.base::internal::WeakPtrFactoryBase" = type { %"class.base::internal::WeakReferenceOwner", i64 }
%"class.base::internal::WeakReferenceOwner" = type { %class.scoped_refptr.179 }
%class.scoped_refptr.179 = type { %"class.base::internal::WeakReference::Flag"* }
%"class.base::internal::WeakReference::Flag" = type <{ %"class.base::RefCountedThreadSafe.180", %"class.base::AtomicFlag", [3 x i8] }>
%"class.base::RefCountedThreadSafe.180" = type { %"class.base::subtle::RefCountedThreadSafeBase" }
%"class.base::AtomicFlag" = type { %"struct.std::__1::atomic.181" }
%"struct.std::__1::atomic.181" = type { %"struct.std::__1::__atomic_base.182" }
%"struct.std::__1::__atomic_base.182" = type { %"struct.std::__1::__atomic_base.183" }
%"struct.std::__1::__atomic_base.183" = type { %"struct.std::__1::__cxx_atomic_impl.184" }
%"struct.std::__1::__cxx_atomic_impl.184" = type { %"struct.std::__1::__cxx_atomic_base_impl.185" }
%"struct.std::__1::__cxx_atomic_base_impl.185" = type { i8 }
%"class.blink::WeakMember.186" = type { %"class.blink::MemberBase.67" }
%"class.blink::HeapHashSet.311" = type { %"class.WTF::HashSet.314" }
%"class.WTF::HashSet.314" = type { %"class.WTF::HashTable.315" }
%"class.WTF::HashTable.315" = type <{ %"class.blink::Member.317"*, i32, i32, i32, [4 x i8] }>
%"class.blink::Member.317" = type opaque
%"class.blink::Member.318" = type { %"class.blink::MemberBase.319" }
%"class.blink::MemberBase.319" = type { %"class.blink::CanvasFontCache"* }
%"class.blink::CanvasFontCache" = type opaque
%"class.blink::Member.320" = type { %"class.blink::MemberBase.321" }
%"class.blink::MemberBase.321" = type { %"class.blink::IntersectionObserverController"* }
%"class.blink::IntersectionObserverController" = type opaque
%"class.blink::Member.322" = type { %"class.blink::MemberBase.323" }
%"class.blink::MemberBase.323" = type { %"class.blink::SnapCoordinator"* }
%"class.blink::SnapCoordinator" = type opaque
%"class.blink::Member.324" = type { %"class.blink::MemberBase.325" }
%"class.blink::MemberBase.325" = type { %"class.blink::PropertyRegistry"* }
%"class.blink::PropertyRegistry" = type opaque
%"class.blink::Member.326" = type { %"class.blink::MemberBase.327" }
%"class.blink::MemberBase.327" = type { %"class.blink::Document::NetworkStateObserver"* }
%"class.blink::Document::NetworkStateObserver" = type opaque
%"class.std::__1::unique_ptr.328" = type { %"class.std::__1::__compressed_pair.329" }
%"class.std::__1::__compressed_pair.329" = type { %"struct.std::__1::__compressed_pair_elem.330" }
%"struct.std::__1::__compressed_pair_elem.330" = type { %"class.ukm::UkmRecorder"* }
%"class.ukm::UkmRecorder" = type opaque
%"class.std::__1::unique_ptr.334" = type { %"class.std::__1::__compressed_pair.335" }
%"class.std::__1::__compressed_pair.335" = type { %"struct.std::__1::__compressed_pair_elem.336" }
%"struct.std::__1::__compressed_pair_elem.336" = type { %"class.blink::FontMatchingMetrics"* }
%"class.blink::FontMatchingMetrics" = type opaque
%"class.blink::Member.340" = type { %"class.blink::MemberBase.341" }
%"class.blink::MemberBase.341" = type { %"class.blink::DOMFeaturePolicy"* }
%"class.blink::DOMFeaturePolicy" = type opaque
%"class.blink::Member.342" = type { %"class.blink::MemberBase.343" }
%"class.blink::MemberBase.343" = type { %"class.blink::SlotAssignmentEngine"* }
%"class.blink::SlotAssignmentEngine" = type opaque
%"class.blink::Member.344" = type { %"class.blink::MemberBase.345" }
%"class.blink::MemberBase.345" = type { %"class.blink::ViewportData"* }
%"class.blink::ViewportData" = type opaque
%"class.blink::Member.346" = type { %"class.blink::MemberBase.347" }
%"class.blink::MemberBase.347" = type { %"class.blink::LazyLoadImageObserver"* }
%"class.blink::LazyLoadImageObserver" = type opaque
%"class.WTF::Vector.348" = type { %"class.WTF::VectorBuffer.349" }
%"class.WTF::VectorBuffer.349" = type { %"class.WTF::VectorBufferBase.350" }
%"class.WTF::VectorBufferBase.350" = type { i8*, i32, i32 }
%"class.blink::HeapHashMap.353" = type { %"class.WTF::HashMap.356" }
%"class.WTF::HashMap.356" = type { %"class.WTF::HashTable.357" }
%"class.WTF::HashTable.357" = type <{ %"struct.WTF::KeyValuePair.359"*, i32, i32, i32, [4 x i8] }>
%"struct.WTF::KeyValuePair.359" = type opaque
%"class.blink::Member.360" = type { %"class.blink::MemberBase.361" }
%"class.blink::MemberBase.361" = type { %"class.blink::BeforeUnloadEventListener"* }
%"class.blink::BeforeUnloadEventListener" = type opaque
%"class.std::__1::unique_ptr.362" = type { %"class.std::__1::__compressed_pair.363" }
%"class.std::__1::__compressed_pair.363" = type { %"struct.std::__1::__compressed_pair_elem.364" }
%"struct.std::__1::__compressed_pair_elem.364" = type { %"class.blink::DocumentResourceCoordinator"* }
%"class.blink::DocumentResourceCoordinator" = type opaque
%"class.blink::Member.368" = type { %"class.blink::MemberBase.369" }
%"class.blink::MemberBase.369" = type { %"class.blink::CookieJar"* }
%"class.blink::CookieJar" = type opaque
%"class.blink::Member.370" = type { %"class.blink::MemberBase.371" }
%"class.blink::MemberBase.371" = type { %"class.blink::FragmentDirective"* }
%"class.blink::FragmentDirective" = type { %"class.blink::ScriptWrappable" }
%"class.blink::HeapHashMap.372" = type { %"class.WTF::HashMap.375" }
%"class.WTF::HashMap.375" = type { %"class.WTF::HashTable.376" }
%"class.WTF::HashTable.376" = type <{ %"struct.WTF::KeyValuePair.378"*, i32, i32, i32, [4 x i8] }>
%"struct.WTF::KeyValuePair.378" = type opaque
%"class.blink::HeapObserverSet" = type { i32, [4 x i8], %"class.blink::HeapHashSet.379" }
%"class.blink::HeapHashSet.379" = type { %"class.WTF::HashSet.382" }
%"class.WTF::HashSet.382" = type { %"class.WTF::HashTable.383" }
%"class.WTF::HashTable.383" = type <{ %"class.blink::WeakMember.385"*, i32, i32, i32, [4 x i8] }>
%"class.blink::WeakMember.385" = type opaque
%"class.blink::Member.386" = type { %"class.blink::MemberBase.387" }
%"class.blink::MemberBase.387" = type { %"class.blink::DisplayLockDocumentState"* }
%"class.blink::DisplayLockDocumentState" = type opaque
%"class.blink::Member.388" = type { %"class.blink::MemberBase.389" }
%"class.blink::MemberBase.389" = type { %"class.blink::FontPreloadManager"* }
%"class.blink::FontPreloadManager" = type <{ %"class.blink::Member.66", %"class.blink::HeapHashSet.395", i32, [4 x i8], %"class.blink::HeapTaskRunnerTimer.402", %"class.base::TimeDelta", i32, [4 x i8] }>
%"class.blink::HeapHashSet.395" = type { %"class.WTF::HashSet.398" }
%"class.WTF::HashSet.398" = type { %"class.WTF::HashTable.399" }
%"class.WTF::HashTable.399" = type <{ %"class.blink::Member.401"*, i32, i32, i32, [4 x i8] }>
%"class.blink::Member.401" = type opaque
%"class.blink::HeapTaskRunnerTimer.402" = type { %"class.blink::TimerBase", %"class.blink::WeakMember.403", { i64, i64 } }
%"class.blink::WeakMember.403" = type { %"class.blink::MemberBase.389" }
%"class.blink::WeakMember.390" = type { %"class.blink::MemberBase" }
%"class.blink::Member.391" = type { %"class.blink::MemberBase.392" }
%"class.blink::MemberBase.392" = type { %"class.blink::DocumentData"* }
%"class.blink::DocumentData" = type opaque
%"class.blink::HTMLElement" = type { %"class.blink::Element" }
%"class.blink::CreateElementFlags" = type <{ i8, [7 x i8], %"class.blink::Document"*, i8, [7 x i8] }>
%"class.blink::StyleChangeReasonForTracing" = type { i8*, %"class.WTF::AtomicString" }
%"class.v8::Value" = type { i8 }
%"class.blink::ScriptState" = type opaque
%"class.blink::DOMWindow" = type opaque
%"class.blink::MessagePort" = type opaque
%"class.blink::ServiceWorker" = type opaque
%"class.blink::PortalHost" = type opaque
%"class.blink::Event" = type opaque
%"class.blink::EventListener" = type opaque
%"class.blink::AddEventListenerOptionsResolved" = type opaque
%"class.blink::RegisteredEventListener" = type <{ %"class.blink::Member.593", i8, [7 x i8] }>
%"class.blink::Member.593" = type { %"class.blink::MemberBase.594" }
%"class.blink::MemberBase.594" = type { %"class.blink::EventListener"* }
%"class.blink::V8UnionStringOrTrustedScript" = type opaque
%"class.blink::ExceptionState" = type { i32 (...)**, %"class.blink::ExceptionContext", %"class.blink::ExceptionState::ContextScope"*, %"class.v8::Isolate"*, i32, %"class.WTF::String", %"class.blink::TraceWrapperV8Reference.595" }
%"class.blink::ExceptionContext" = type { i16, i16, i8*, i8* }
%"class.blink::ExceptionState::ContextScope" = type { %"class.blink::ExceptionState"*, %"class.blink::ExceptionState::ContextScope"*, %"class.blink::ExceptionContext" }
%"class.blink::TraceWrapperV8Reference.595" = type { %"class.v8::TracedReference.596" }
%"class.v8::TracedReference.596" = type { %"class.v8::BasicTracedReference.597" }
%"class.v8::BasicTracedReference.597" = type { %"class.v8::TracedReferenceBase" }
%"struct.blink::Node::AttachContext" = type <{ %"class.blink::LayoutObject"*, %"class.blink::LayoutObject"*, %"class.blink::LayoutObject"*, i8, i8, i8, i8, [4 x i8] }>
%"class.blink::LayoutObject" = type opaque
%"class.blink::EventDispatchHandlingState" = type opaque
%"class.blink::LayoutBox" = type opaque
%"class.blink::ComputedStyle" = type opaque
%"struct.blink::ContainerNode::ChildrenChange" = type { i8, i8, %"class.blink::Node"*, %"class.blink::Node"*, %"class.blink::Node"*, %"class.blink::HeapVector.598", %"class.WTF::String"* }
%"class.blink::HeapVector.598" = type { %"class.WTF::Vector.601" }
%"class.WTF::Vector.601" = type { %"class.WTF::VectorBuffer.602" }
%"class.WTF::VectorBuffer.602" = type { %"class.WTF::VectorBufferBase.603" }
%"class.WTF::VectorBufferBase.603" = type { %"class.blink::Member"*, i32, i32 }
%"class.WTF::HashMap.605" = type opaque
%"class.blink::MutableCSSPropertyValueSet" = type opaque
%"struct.blink::Element::AttributeModificationParams" = type <{ %"class.blink::QualifiedName"*, %"class.WTF::AtomicString"*, %"class.WTF::AtomicString"*, i32, [4 x i8] }>
%"class.blink::Attribute" = type { %"class.blink::QualifiedName", %"class.WTF::AtomicString" }
%"class.blink::Image" = type opaque
%"struct.blink::FocusParams" = type opaque
%"class.blink::FocusOptions" = type opaque
%"class.blink::InputDeviceCapabilities" = type opaque
%"class.blink::ShadowRoot" = type opaque
%"class.blink::NormalPageArena" = type { %"class.blink::BaseArena.base", [4 x i8], %"class.blink::FreeList", i8*, i64, i64 }
%"class.blink::BaseArena.base" = type <{ i32 (...)**, %"class.blink::PageStackThreadSafe", %"class.blink::PageStackThreadSafe", %"class.blink::PageStackThreadSafe", %"class.blink::PageStackThreadSafe", %"class.blink::ThreadState"*, i32 }>
%"class.blink::FreeList" = type <{ [17 x %"class.blink::FreeListEntry"*], [17 x %"class.blink::FreeListEntry"*], i32, [4 x i8] }>
%"class.blink::FreeListEntry" = type { %"class.blink::HeapObjectHeader", %"class.blink::FreeListEntry"* }
%"class.blink::PlatformAwareObjectStartBitmap" = type { %"class.blink::ObjectStartBitmap" }
%"class.blink::ObjectStartBitmap" = type { i8*, [2048 x i8] }

$_ZN5blink10VTTElement11SetLanguageEN3WTF12AtomicStringE = comdat any

$_ZN5blink10VTTElement18VoiceAttributeNameEv = comdat any

$_ZN5blink10VTTElement17LangAttributeNameEv = comdat any

$_ZN5blink10VTTElementD2Ev = comdat any

$_ZN5blink10VTTElementD0Ev = comdat any

$_ZNK5blink15ScriptWrappable18HasPendingActivityEv = comdat any

$_ZNK5blink11EventTarget17HasEventListenersEv = comdat any

$_ZNK5blink7Element18GetWrapperTypeInfoEv = comdat any

$_ZNK5blink11EventTarget15KeepEventInNodeERKNS_5EventE = comdat any

$_ZNK5blink11EventTarget27IsWindowOrWorkerGlobalScopeEv = comdat any

$_ZNK5blink4Node11GetPseudoIdEv = comdat any

$_ZNK5blink4Node21IsMediaControlElementEv = comdat any

$_ZNK5blink4Node15IsMediaControlsEv = comdat any

$_ZNK5blink4Node14IsMediaElementEv = comdat any

$_ZNK5blink4Node20IsTextTrackContainerEv = comdat any

$_ZNK5blink10VTTElement12IsVTTElementEv = comdat any

$_ZNK5blink4Node15IsAttributeNodeEv = comdat any

$_ZNK5blink4Node19IsCharacterDataNodeEv = comdat any

$_ZNK5blink4Node19IsFrameOwnerElementEv = comdat any

$_ZNK5blink4Node27IsMediaRemotingInterstitialEv = comdat any

$_ZNK5blink4Node30IsPictureInPictureInterstitialEv = comdat any

$_ZNK5blink7Element23CanContainRangeEndPointEv = comdat any

$_ZN5blink4Node11SheetLoadedEv = comdat any

$_ZN5blink4Node43NotifyLoadedSheetAndAllCriticalSubresourcesENS0_22LoadedSheetErrorStatusE = comdat any

$_ZN5blink4Node24StartLoadingDynamicSheetEv = comdat any

$_ZN5blink4Node36DidNotifySubtreeInsertionsToDocumentEv = comdat any

$_ZN5blink4Node23PreDispatchEventHandlerERNS_5EventE = comdat any

$_ZN5blink4Node24PostDispatchEventHandlerERNS_5EventEPNS_26EventDispatchHandlingStateE = comdat any

$_ZN5blink7Element26VirtualEnsureComputedStyleENS_8PseudoIdERKN3WTF12AtomicStringE = comdat any

$_ZNK5blink13ContainerNode20ChildrenCanHaveStyleEv = comdat any

$_ZN5blink7Element36AdditionalPresentationAttributeStyleEv = comdat any

$_ZNK5blink7Element23IsPresentationAttributeERKNS_13QualifiedNameE = comdat any

$_ZN5blink7Element36CollectStyleForPresentationAttributeERKNS_13QualifiedNameERKN3WTF12AtomicStringEPNS_26MutableCSSPropertyValueSetE = comdat any

$_ZNK5blink7Element37HasExtraStyleForPresentationAttributeEv = comdat any

$_ZN5blink7Element41CollectExtraStyleForPresentationAttributeEPNS_26MutableCSSPropertyValueSetE = comdat any

$_ZN5blink7Element31CloneNonAttributePropertiesFromERKS0_NS_17CloneChildrenFlagE = comdat any

$_ZN5blink7Element15AccessKeyActionENS_27SimulatedClickCreationScopeE = comdat any

$_ZNK5blink7Element14IsURLAttributeERKNS_9AttributeE = comdat any

$_ZNK5blink7Element22IsHTMLContentAttributeERKNS_9AttributeE = comdat any

$_ZNK5blink7Element43IsSVGAnimationAttributeSettingJavaScriptURLERKNS_9AttributeE = comdat any

$_ZNK5blink7Element10IsLiveLinkEv = comdat any

$_ZN5blink7Element13ImageContentsEv = comdat any

$_ZNK5blink7Element5titleEv = comdat any

$_ZNK5blink7Element14DefaultToolTipEv = comdat any

$_ZN5blink7Element20BeginParsingChildrenEv = comdat any

$_ZNK5blink7Element25MatchesDefaultPseudoClassEv = comdat any

$_ZNK5blink7Element25MatchesEnabledPseudoClassEv = comdat any

$_ZNK5blink7Element26MatchesReadOnlyPseudoClassEv = comdat any

$_ZNK5blink7Element27MatchesReadWritePseudoClassEv = comdat any

$_ZNK5blink7Element28MatchesValidityPseudoClassesEv = comdat any

$_ZNK5blink7Element25ShouldAppearIndeterminateEv = comdat any

$_ZNK5blink7Element21IsDateTimeEditElementEv = comdat any

$_ZNK5blink7Element22IsDateTimeFieldElementEv = comdat any

$_ZNK5blink7Element24IsPickerIndicatorElementEv = comdat any

$_ZNK5blink7Element20IsFormControlElementEv = comdat any

$_ZNK5blink7Element19IsSpinButtonElementEv = comdat any

$_ZNK5blink7Element13IsTextControlEv = comdat any

$_ZNK5blink7Element21IsOptionalFormControlEv = comdat any

$_ZNK5blink7Element21IsRequiredFormControlEv = comdat any

$_ZNK5blink7Element12willValidateEv = comdat any

$_ZN5blink7Element14IsValidElementEv = comdat any

$_ZNK5blink7Element9IsInRangeEv = comdat any

$_ZNK5blink7Element12IsOutOfRangeEv = comdat any

$_ZNK5blink7Element20IsClearButtonElementEv = comdat any

$_ZNK5blink7Element15IsScriptElementEv = comdat any

$_ZNK5blink7Element21IsVTTCueBackgroundBoxEv = comdat any

$_ZNK5blink7Element20IsSliderThumbElementEv = comdat any

$_ZNK5blink7Element25HasNonInBodyInsertionModeEv = comdat any

$_ZNK5blink7Element21IsDisabledFormControlEv = comdat any

$_ZN5blink7Element20BuildPendingResourceEv = comdat any

$_ZNK5blink7Element11IsAdRelatedEv = comdat any

$_ZNK5blink7Element16GetNamedItemTypeEv = comdat any

$_ZN5blink7Element22ParserDidSetAttributesEv = comdat any

$_ZNK5blink7Element23AreAuthorShadowsAllowedEv = comdat any

$_ZN5blink7Element25DidAddUserAgentShadowRootERNS_10ShadowRootE = comdat any

$_ZNK5blink7Element31AlwaysCreateUserAgentShadowRootEv = comdat any

$_ZNK5blink7Element27TypeShouldForceLegacyLayoutEv = comdat any

$_ZN5blink25MakeGarbageCollectedTraitINS_10VTTElementEE4CallIJNS_11VTTNodeTypeEPNS_8DocumentEEEEPS1_DpOT_ = comdat any

$_ZN5blink10TraceTraitINS_15ScriptWrappableEE5TraceEPNS_7VisitorEPKv = comdat any

$_ZN5blink8internal14FinalizerTraitINS_15ScriptWrappableEE8FinalizeEPv = comdat any

$_ZN5blink9NameTraitINS_15ScriptWrappableEE7GetNameEPKv = comdat any

$_ZN5blink10TraceTraitINS_9TextTrackEE5TraceEPNS_7VisitorEPKv = comdat any

$_ZZN5blink10VTTElement18VoiceAttributeNameEvE12s_voice_attr = comdat any

$_ZGVZN5blink10VTTElement18VoiceAttributeNameEvE12s_voice_attr = comdat any

$_ZZN5blink10VTTElement17LangAttributeNameEvE12s_voice_attr = comdat any

$_ZGVZN5blink10VTTElement17LangAttributeNameEvE12s_voice_attr = comdat any

$_ZZN5blink11GCInfoTraitINS_15ScriptWrappableEE5IndexEvE7kGcInfo = comdat any

$_ZZN5blink11GCInfoTraitINS_15ScriptWrappableEE5IndexEvE13gc_info_index = comdat any

@_ZTVN5blink10VTTElementE = hidden unnamed_addr constant { [157 x i8*], [3 x i8*] } { [157 x i8*] [i8* null, i8* null, i8* bitcast (i8* (%"class.blink::ScriptWrappable"*)* @_ZNK5blink15ScriptWrappable18NameInHeapSnapshotEv to i8*), i8* bitcast (void (%"class.blink::VTTElement"*)* @_ZN5blink10VTTElementD2Ev to i8*), i8* bitcast (void (%"class.blink::VTTElement"*)* @_ZN5blink10VTTElementD0Ev to i8*), i8* bitcast (i1 (%"class.blink::ScriptWrappable"*)* @_ZNK5blink15ScriptWrappable18HasPendingActivityEv to i8*), i8* bitcast (i1 (%"class.blink::EventTarget"*)* @_ZNK5blink11EventTarget17HasEventListenersEv to i8*), i8* bitcast (void (%"class.blink::VTTElement"*, %"class.blink::Visitor"*)* @_ZNK5blink10VTTElement5TraceEPNS_7VisitorE to i8*), i8* bitcast (%"struct.blink::WrapperTypeInfo"* (%"class.blink::Element"*)* @_ZNK5blink7Element18GetWrapperTypeInfoEv to i8*), i8* bitcast (%"class.v8::Value"* (%"class.blink::ScriptWrappable"*, %"class.blink::ScriptState"*)* @_ZN5blink15ScriptWrappable4WrapEPNS_11ScriptStateE to i8*), i8* bitcast (%"class.v8::Object"* (%"class.blink::ScriptWrappable"*, %"class.v8::Isolate"*, %"struct.blink::WrapperTypeInfo"*, %"class.v8::Object"*)* @_ZN5blink15ScriptWrappable20AssociateWithWrapperEPN2v87IsolateEPKNS_15WrapperTypeInfoENS1_5LocalINS1_6ObjectEEE to i8*), i8* bitcast (%"class.WTF::AtomicString"* (%"class.blink::Node"*)* @_ZNK5blink4Node13InterfaceNameEv to i8*), i8* bitcast (%"class.blink::ExecutionContext"* (%"class.blink::Node"*)* @_ZNK5blink4Node19GetExecutionContextEv to i8*), i8* bitcast (%"class.blink::Node"* (%"class.blink::Node"*)* @_ZN5blink4Node6ToNodeEv to i8*), i8* bitcast (%"class.blink::DOMWindow"* (%"class.blink::EventTarget"*)* @_ZNK5blink11EventTarget11ToDOMWindowEv to i8*), i8* bitcast (%"class.blink::LocalDOMWindow"* (%"class.blink::EventTarget"*)* @_ZNK5blink11EventTarget16ToLocalDOMWindowEv to i8*), i8* bitcast (%"class.blink::LocalDOMWindow"* (%"class.blink::EventTarget"*)* @_ZN5blink11EventTarget16ToLocalDOMWindowEv to i8*), i8* bitcast (%"class.blink::MessagePort"* (%"class.blink::EventTarget"*)* @_ZN5blink11EventTarget13ToMessagePortEv to i8*), i8* bitcast (%"class.blink::ServiceWorker"* (%"class.blink::EventTarget"*)* @_ZN5blink11EventTarget15ToServiceWorkerEv to i8*), i8* bitcast (%"class.blink::PortalHost"* (%"class.blink::EventTarget"*)* @_ZN5blink11EventTarget12ToPortalHostEv to i8*), i8* bitcast (void (%"class.blink::Node"*)* @_ZN5blink4Node23RemoveAllEventListenersEv to i8*), i8* bitcast (i1 (%"class.blink::EventTarget"*, %"class.blink::Event"*)* @_ZNK5blink11EventTarget15KeepEventInNodeERKNS_5EventE to i8*), i8* bitcast (i1 (%"class.blink::EventTarget"*)* @_ZNK5blink11EventTarget27IsWindowOrWorkerGlobalScopeEv to i8*), i8* bitcast (i1 (%"class.blink::EventTarget"*, %"class.WTF::AtomicString"*, %"class.blink::EventListener"*, %"class.blink::AddEventListenerOptionsResolved"*)* @_ZN5blink11EventTarget24AddEventListenerInternalERKN3WTF12AtomicStringEPNS_13EventListenerEPKNS_31AddEventListenerOptionsResolvedE to i8*), i8* bitcast (void (%"class.blink::Node"*, %"class.WTF::AtomicString"*, %"class.blink::RegisteredEventListener"*)* @_ZN5blink4Node18AddedEventListenerERKN3WTF12AtomicStringERNS_23RegisteredEventListenerE to i8*), i8* bitcast (void (%"class.blink::Node"*, %"class.WTF::AtomicString"*, %"class.blink::RegisteredEventListener"*)* @_ZN5blink4Node20RemovedEventListenerERKN3WTF12AtomicStringERKNS_23RegisteredEventListenerE to i8*), i8* bitcast (i32 (%"class.blink::Node"*, %"class.blink::Event"*)* @_ZN5blink4Node21DispatchEventInternalERNS_5EventE to i8*), i8* bitcast (%"class.blink::EventTargetData"* (%"class.blink::Node"*)* @_ZN5blink4Node18GetEventTargetDataEv to i8*), i8* bitcast (%"class.blink::EventTargetData"* (%"class.blink::Node"*)* @_ZN5blink4Node21EnsureEventTargetDataEv to i8*), i8* bitcast (%"class.WTF::StringImpl"* (%"class.blink::Element"*)* @_ZNK5blink7Element8nodeNameEv to i8*), i8* bitcast (%"class.WTF::StringImpl"* (%"class.blink::Node"*)* @_ZNK5blink4Node9nodeValueEv to i8*), i8* bitcast (void (%"class.blink::Node"*, %"class.WTF::String"*)* @_ZN5blink4Node12setNodeValueERKN3WTF6StringE to i8*), i8* bitcast (i32 (%"class.blink::Element"*)* @_ZNK5blink7Element11getNodeTypeEv to i8*), i8* bitcast (%"class.blink::Node"* (%"class.blink::Element"*, %"class.blink::Document"*, i32)* @_ZNK5blink7Element5CloneERNS_8DocumentENS_17CloneChildrenFlagE to i8*), i8* bitcast (void (%"class.blink::Node"*, %"class.WTF::String"*)* @_ZN5blink4Node14setTextContentERKN3WTF6StringE to i8*), i8* bitcast (void (%"class.blink::Node"*, %"class.blink::V8UnionStringOrTrustedScript"*, %"class.blink::ExceptionState"*)* @_ZN5blink4Node24setTextContentForBindingEPKNS_28V8UnionStringOrTrustedScriptERNS_14ExceptionStateE to i8*), i8* bitcast (i8 (%"class.blink::Node"*)* @_ZNK5blink4Node11GetPseudoIdEv to i8*), i8* bitcast (i1 (%"class.blink::Node"*)* @_ZNK5blink4Node21IsMediaControlElementEv to i8*), i8* bitcast (i1 (%"class.blink::Node"*)* @_ZNK5blink4Node15IsMediaControlsEv to i8*), i8* bitcast (i1 (%"class.blink::Node"*)* @_ZNK5blink4Node14IsMediaElementEv to i8*), i8* bitcast (i1 (%"class.blink::Node"*)* @_ZNK5blink4Node20IsTextTrackContainerEv to i8*), i8* bitcast (i1 (%"class.blink::VTTElement"*)* @_ZNK5blink10VTTElement12IsVTTElementEv to i8*), i8* bitcast (i1 (%"class.blink::Node"*)* @_ZNK5blink4Node15IsAttributeNodeEv to i8*), i8* bitcast (i1 (%"class.blink::Node"*)* @_ZNK5blink4Node19IsCharacterDataNodeEv to i8*), i8* bitcast (i1 (%"class.blink::Node"*)* @_ZNK5blink4Node19IsFrameOwnerElementEv to i8*), i8* bitcast (i1 (%"class.blink::Node"*)* @_ZNK5blink4Node27IsMediaRemotingInterstitialEv to i8*), i8* bitcast (i1 (%"class.blink::Node"*)* @_ZNK5blink4Node30IsPictureInPictureInterstitialEv to i8*), i8* bitcast (i1 (%"class.blink::Element"*)* @_ZNK5blink7Element23CanContainRangeEndPointEv to i8*), i8* bitcast (i1 (%"class.blink::Node"*)* @_ZN5blink4Node11SheetLoadedEv to i8*), i8* bitcast (void (%"class.blink::Node"*, i32)* @_ZN5blink4Node43NotifyLoadedSheetAndAllCriticalSubresourcesENS0_22LoadedSheetErrorStatusE to i8*), i8* bitcast (void (%"class.blink::Node"*)* @_ZN5blink4Node24StartLoadingDynamicSheetEv to i8*), i8* bitcast (void (%"class.blink::ContainerNode"*, i1, i32)* @_ZN5blink13ContainerNode10SetFocusedEbNS_5mojom9FocusTypeE to i8*), i8* bitcast (void (%"class.blink::ContainerNode"*, i1)* @_ZN5blink13ContainerNode10SetDraggedEb to i8*), i8* bitcast (i1 (%"class.blink::Node"*)* @_ZNK5blink4Node25ShouldHaveFocusAppearanceEv to i8*), i8* bitcast (void ()* @_ZNK5blink13ContainerNode11BoundingBoxEv to i8*), i8* bitcast (i1 (%"class.blink::Element"*, i32)* @_ZNK5blink7Element16ChildTypeAllowedENS_4Node8NodeTypeE to i8*), i8* bitcast (i1 (%"class.blink::Node"*)* @_ZNK5blink4Node17CanStartSelectionEv to i8*), i8* bitcast (void (%"class.blink::Element"*, %"struct.blink::Node::AttachContext"*)* @_ZN5blink7Element16AttachLayoutTreeERNS_4Node13AttachContextE to i8*), i8* bitcast (void (%"class.blink::Element"*, i1)* @_ZN5blink7Element16DetachLayoutTreeEb to i8*), i8* bitcast (i32 (%"class.blink::Element"*, %"class.blink::ContainerNode"*)* @_ZN5blink7Element12InsertedIntoERNS_13ContainerNodeE to i8*), i8* bitcast (void (%"class.blink::Node"*)* @_ZN5blink4Node36DidNotifySubtreeInsertionsToDocumentEv to i8*), i8* bitcast (void (%"class.blink::Element"*, %"class.blink::ContainerNode"*)* @_ZN5blink7Element11RemovedFromERNS_13ContainerNodeE to i8*), i8* bitcast (i1 (%"class.blink::Node"*)* @_ZN5blink4Node28WillRespondToMouseMoveEventsEv to i8*), i8* bitcast (i1 (%"class.blink::Node"*)* @_ZN5blink4Node29WillRespondToMouseClickEventsEv to i8*), i8* bitcast (%"class.blink::EventDispatchHandlingState"* (%"class.blink::Node"*, %"class.blink::Event"*)* @_ZN5blink4Node23PreDispatchEventHandlerERNS_5EventE to i8*), i8* bitcast (void (%"class.blink::Node"*, %"class.blink::Event"*, %"class.blink::EventDispatchHandlingState"*)* @_ZN5blink4Node24PostDispatchEventHandlerERNS_5EventEPNS_26EventDispatchHandlingStateE to i8*), i8* bitcast (void (%"class.blink::Node"*, %"class.blink::Event"*)* @_ZN5blink4Node17HandleLocalEventsERNS_5EventE to i8*), i8* bitcast (void (%"class.blink::Node"*, %"class.blink::Event"*)* @_ZN5blink4Node19DefaultEventHandlerERNS_5EventE to i8*), i8* bitcast (i1 (%"class.blink::Node"*)* @_ZNK5blink4Node21HasActivationBehaviorEv to i8*), i8* bitcast (%"class.blink::LayoutBox"* (%"class.blink::Node"*)* @_ZN5blink4Node13AutoscrollBoxEv to i8*), i8* bitcast (void (%"class.blink::Node"*)* @_ZN5blink4Node14StopAutoscrollEv to i8*), i8* bitcast (void (%"class.blink::Element"*, %"class.blink::Document"*)* @_ZN5blink7Element20DidMoveToNewDocumentERNS_8DocumentE to i8*), i8* bitcast (%"class.WTF::StringImpl"* (%"class.blink::Node"*)* @_ZNK5blink4Node13DebugNodeNameEv to i8*), i8* bitcast (%"class.blink::ComputedStyle"* (%"class.blink::Element"*, i8, %"class.WTF::AtomicString"*)* @_ZN5blink7Element26VirtualEnsureComputedStyleENS_8PseudoIdERKN3WTF12AtomicStringE to i8*), i8* bitcast (void (%"class.blink::Element"*, %"struct.blink::ContainerNode::ChildrenChange"*)* @_ZN5blink7Element15ChildrenChangedERKNS_13ContainerNode14ChildrenChangeE to i8*), i8* bitcast (i1 (%"class.blink::ContainerNode"*)* @_ZNK5blink13ContainerNode42ChildrenChangedAllChildrenRemovedNeedsListEv to i8*), i8* bitcast (i1 (%"class.blink::ContainerNode"*)* @_ZNK5blink13ContainerNode20ChildrenCanHaveStyleEv to i8*), i8* bitcast (%"class.blink::LayoutBox"* (%"class.blink::Element"*)* @_ZNK5blink7Element24GetLayoutBoxForScrollingEv to i8*), i8* bitcast (%"class.blink::Element"* (%"class.blink::Element"*)* @_ZN5blink7Element18GetAnimationTargetEv to i8*), i8* bitcast (%"class.WTF::HashMap.605"* (%"class.blink::Element"*)* @_ZNK5blink7Element24GetCheckedAttributeTypesEv to i8*), i8* bitcast (i32 (%"class.blink::Element"*)* @_ZN5blink7Element11scrollWidthEv to i8*), i8* bitcast (i32 (%"class.blink::Element"*)* @_ZN5blink7Element12scrollHeightEv to i8*), i8* bitcast (%"class.blink::CSSPropertyValueSet"* (%"class.blink::Element"*)* @_ZN5blink7Element36AdditionalPresentationAttributeStyleEv to i8*), i8* bitcast (i1 (%"class.blink::Element"*, %"class.blink::QualifiedName"*)* @_ZNK5blink7Element23IsPresentationAttributeERKNS_13QualifiedNameE to i8*), i8* bitcast (void (%"class.blink::Element"*, %"class.blink::QualifiedName"*, %"class.WTF::AtomicString"*, %"class.blink::MutableCSSPropertyValueSet"*)* @_ZN5blink7Element36CollectStyleForPresentationAttributeERKNS_13QualifiedNameERKN3WTF12AtomicStringEPNS_26MutableCSSPropertyValueSetE to i8*), i8* bitcast (i1 (%"class.blink::Element"*)* @_ZNK5blink7Element37HasExtraStyleForPresentationAttributeEv to i8*), i8* bitcast (void (%"class.blink::Element"*, %"class.blink::MutableCSSPropertyValueSet"*)* @_ZN5blink7Element41CollectExtraStyleForPresentationAttributeEPNS_26MutableCSSPropertyValueSetE to i8*), i8* bitcast (void (%"class.blink::Element"*, %"struct.blink::Element::AttributeModificationParams"*)* @_ZN5blink7Element16AttributeChangedERKNS0_27AttributeModificationParamsE to i8*), i8* bitcast (void (%"class.blink::Element"*, %"struct.blink::Element::AttributeModificationParams"*)* @_ZN5blink7Element14ParseAttributeERKNS0_27AttributeModificationParamsE to i8*), i8* bitcast (i1 (%"class.blink::Element"*, %"class.blink::QualifiedName"*)* @_ZNK5blink7Element21HasLegalLinkAttributeERKNS_13QualifiedNameE to i8*), i8* bitcast (%"class.blink::QualifiedName"* (%"class.blink::Element"*)* @_ZNK5blink7Element24SubResourceAttributeNameEv to i8*), i8* bitcast (void (%"class.blink::Element"*, %"class.blink::Element"*, i32)* @_ZN5blink7Element31CloneNonAttributePropertiesFromERKS0_NS_17CloneChildrenFlagE to i8*), i8* bitcast (%"class.blink::LayoutObject"* (%"class.blink::Element"*, %"class.blink::ComputedStyle"*, i32)* @_ZN5blink7Element18CreateLayoutObjectERKNS_13ComputedStyleENS_12LegacyLayoutE to i8*), i8* bitcast (i1 (%"class.blink::Element"*, %"class.blink::ComputedStyle"*)* @_ZNK5blink7Element20LayoutObjectIsNeededERKNS_13ComputedStyleE to i8*), i8* bitcast (void (%"class.blink::Element"*, i32)* @_ZN5blink7Element15AccessKeyActionENS_27SimulatedClickCreationScopeE to i8*), i8* bitcast (i1 (%"class.blink::Element"*, %"class.blink::Attribute"*)* @_ZNK5blink7Element14IsURLAttributeERKNS_9AttributeE to i8*), i8* bitcast (i1 (%"class.blink::Element"*, %"class.blink::Attribute"*)* @_ZNK5blink7Element22IsHTMLContentAttributeERKNS_9AttributeE to i8*), i8* bitcast (i1 (%"class.blink::Element"*, %"class.blink::Attribute"*)* @_ZNK5blink7Element43IsSVGAnimationAttributeSettingJavaScriptURLERKNS_9AttributeE to i8*), i8* bitcast (i1 (%"class.blink::Element"*)* @_ZNK5blink7Element10IsLiveLinkEv to i8*), i8* bitcast (%"class.WTF::StringImpl"* (%"class.blink::Element"*)* @_ZNK5blink7Element14ImageSourceURLEv to i8*), i8* bitcast (%"class.blink::Image"* (%"class.blink::Element"*)* @_ZN5blink7Element13ImageContentsEv to i8*), i8* bitcast (void (%"class.blink::Element"*, %"struct.blink::FocusParams"*)* @_ZN5blink7Element5focusERKNS_11FocusParamsE to i8*), i8* bitcast (void (%"class.blink::Element"*, i32, %"class.blink::FocusOptions"*)* @_ZN5blink7Element32UpdateFocusAppearanceWithOptionsENS_24SelectionBehaviorOnFocusEPKNS_12FocusOptionsE to i8*), i8* bitcast (void (%"class.blink::Element"*)* @_ZN5blink7Element4blurEv to i8*), i8* bitcast (i1 (%"class.blink::Element"*)* @_ZNK5blink7Element13SupportsFocusEv to i8*), i8* bitcast (i1 (%"class.blink::Element"*)* @_ZNK5blink7Element19IsKeyboardFocusableEv to i8*), i8* bitcast (i1 (%"class.blink::Element"*)* @_ZNK5blink7Element16IsMouseFocusableEv to i8*), i8* bitcast (void (%"class.blink::Element"*, %"class.blink::Element"*, i32, %"class.blink::InputDeviceCapabilities"*)* @_ZN5blink7Element18DispatchFocusEventEPS0_NS_5mojom9FocusTypeEPNS_23InputDeviceCapabilitiesE to i8*), i8* bitcast (void (%"class.blink::Element"*, %"class.blink::Element"*, i32, %"class.blink::InputDeviceCapabilities"*)* @_ZN5blink7Element17DispatchBlurEventEPS0_NS_5mojom9FocusTypeEPNS_23InputDeviceCapabilitiesE to i8*), i8* bitcast (void (%"class.blink::Element"*, %"class.WTF::AtomicString"*, %"class.blink::Element"*, i32, %"class.blink::InputDeviceCapabilities"*)* @_ZN5blink7Element20DispatchFocusInEventERKN3WTF12AtomicStringEPS0_NS_5mojom9FocusTypeEPNS_23InputDeviceCapabilitiesE to i8*), i8* bitcast (%"class.WTF::StringImpl"* (%"class.blink::Element"*)* @_ZNK5blink7Element5titleEv to i8*), i8* bitcast (%"class.WTF::StringImpl"* (%"class.blink::Element"*)* @_ZNK5blink7Element14DefaultToolTipEv to i8*), i8* bitcast (%"class.WTF::AtomicString"* (%"class.blink::Element"*)* @_ZNK5blink7Element14ShadowPseudoIdEv to i8*), i8* bitcast (void (%"class.blink::Element"*)* @_ZN5blink7Element21FinishParsingChildrenEv to i8*), i8* bitcast (void (%"class.blink::Element"*)* @_ZN5blink7Element20BeginParsingChildrenEv to i8*), i8* bitcast (i1 (%"class.blink::Element"*, i8)* @_ZNK5blink7Element24CanGeneratePseudoElementENS_8PseudoIdE to i8*), i8* bitcast (i1 (%"class.blink::Element"*)* @_ZNK5blink7Element25MatchesDefaultPseudoClassEv to i8*), i8* bitcast (i1 (%"class.blink::Element"*)* @_ZNK5blink7Element25MatchesEnabledPseudoClassEv to i8*), i8* bitcast (i1 (%"class.blink::Element"*)* @_ZNK5blink7Element26MatchesReadOnlyPseudoClassEv to i8*), i8* bitcast (i1 (%"class.blink::Element"*)* @_ZNK5blink7Element27MatchesReadWritePseudoClassEv to i8*), i8* bitcast (i1 (%"class.blink::Element"*)* @_ZNK5blink7Element28MatchesValidityPseudoClassesEv to i8*), i8* bitcast (i1 (%"class.blink::Element"*)* @_ZNK5blink7Element25MayTriggerVirtualKeyboardEv to i8*), i8* bitcast (i1 (%"class.blink::Element"*)* @_ZNK5blink7Element25ShouldAppearIndeterminateEv to i8*), i8* bitcast (i1 (%"class.blink::Element"*)* @_ZNK5blink7Element21IsDateTimeEditElementEv to i8*), i8* bitcast (i1 (%"class.blink::Element"*)* @_ZNK5blink7Element22IsDateTimeFieldElementEv to i8*), i8* bitcast (i1 (%"class.blink::Element"*)* @_ZNK5blink7Element24IsPickerIndicatorElementEv to i8*), i8* bitcast (i1 (%"class.blink::Element"*)* @_ZNK5blink7Element20IsFormControlElementEv to i8*), i8* bitcast (i1 (%"class.blink::Element"*)* @_ZNK5blink7Element19IsSpinButtonElementEv to i8*), i8* bitcast (i1 (%"class.blink::Element"*)* @_ZNK5blink7Element13IsTextControlEv to i8*), i8* bitcast (i1 (%"class.blink::Element"*)* @_ZNK5blink7Element21IsOptionalFormControlEv to i8*), i8* bitcast (i1 (%"class.blink::Element"*)* @_ZNK5blink7Element21IsRequiredFormControlEv to i8*), i8* bitcast (i1 (%"class.blink::Element"*)* @_ZNK5blink7Element12willValidateEv to i8*), i8* bitcast (i1 (%"class.blink::Element"*)* @_ZN5blink7Element14IsValidElementEv to i8*), i8* bitcast (i1 (%"class.blink::Element"*)* @_ZNK5blink7Element9IsInRangeEv to i8*), i8* bitcast (i1 (%"class.blink::Element"*)* @_ZNK5blink7Element12IsOutOfRangeEv to i8*), i8* bitcast (i1 (%"class.blink::Element"*)* @_ZNK5blink7Element20IsClearButtonElementEv to i8*), i8* bitcast (i1 (%"class.blink::Element"*)* @_ZNK5blink7Element15IsScriptElementEv to i8*), i8* bitcast (i1 (%"class.blink::Element"*)* @_ZNK5blink7Element21IsVTTCueBackgroundBoxEv to i8*), i8* bitcast (i1 (%"class.blink::Element"*)* @_ZNK5blink7Element20IsSliderThumbElementEv to i8*), i8* bitcast (i1 (%"class.blink::Element"*)* @_ZNK5blink7Element25HasNonInBodyInsertionModeEv to i8*), i8* bitcast (i1 (%"class.blink::Element"*)* @_ZNK5blink7Element21IsDisabledFormControlEv to i8*), i8* bitcast (void (%"class.blink::Element"*)* @_ZN5blink7Element20BuildPendingResourceEv to i8*), i8* bitcast (void (%"class.blink::Element"*, i1)* @_ZN5blink7Element9SetActiveEb to i8*), i8* bitcast (void (%"class.blink::Element"*, i1)* @_ZN5blink7Element10SetHoveredEb to i8*), i8* bitcast (i1 (%"class.blink::Element"*)* @_ZNK5blink7Element11IsAdRelatedEv to i8*), i8* bitcast (void (%"class.blink::Element"*, i64)* @_ZN5blink7Element15WillRecalcStyleENS_17StyleRecalcChangeE to i8*), i8* bitcast (void (%"class.blink::Element"*, i64)* @_ZN5blink7Element14DidRecalcStyleENS_17StyleRecalcChangeE to i8*), i8* bitcast (void ()* @_ZN5blink7Element26CustomStyleForLayoutObjectERKNS_18StyleRecalcContextE to i8*), i8* bitcast (i32 (%"class.blink::Element"*)* @_ZNK5blink7Element16GetNamedItemTypeEv to i8*), i8* bitcast (i1 (%"class.blink::Element"*)* @_ZNK5blink7Element16IsFocusableStyleEv to i8*), i8* bitcast (void (%"class.blink::Element"*)* @_ZN5blink7Element22ParserDidSetAttributesEv to i8*), i8* bitcast (i1 (%"class.blink::Element"*)* @_ZNK5blink7Element23AreAuthorShadowsAllowedEv to i8*), i8* bitcast (void (%"class.blink::Element"*, %"class.blink::ShadowRoot"*)* @_ZN5blink7Element25DidAddUserAgentShadowRootERNS_10ShadowRootE to i8*), i8* bitcast (i1 (%"class.blink::Element"*)* @_ZNK5blink7Element31AlwaysCreateUserAgentShadowRootEv to i8*), i8* bitcast (i32 (%"class.blink::Element"*)* @_ZNK5blink7Element15DefaultTabIndexEv to i8*), i8* bitcast (%"class.blink::Element"* (%"class.blink::VTTElement"*, %"class.blink::Document"*)* @_ZNK5blink10VTTElement33CloneWithoutAttributesAndChildrenERNS_8DocumentE to i8*), i8* bitcast (i1 (%"class.blink::Element"*)* @_ZNK5blink7Element27TypeShouldForceLegacyLayoutEv to i8*)], [3 x i8*] [i8* inttoptr (i64 -80 to i8*), i8* null, i8* bitcast (%"class.blink::Element"* (%"class.blink::Element"*)* @_ZThn80_N5blink7Element18GetAnimationTargetEv to i8*)] }, align 8
@_ZN5blink10html_names8kSpanTagE = external local_unnamed_addr constant %"class.blink::HTMLQualifiedName"*, align 8
@_ZN5blink10html_names10kTitleAttrE = external local_unnamed_addr constant %"class.blink::QualifiedName"*, align 8
@_ZN5blink10html_names9kLangAttrE = external local_unnamed_addr constant %"class.blink::QualifiedName"*, align 8
@_ZN5blink10html_names5kITagE = external local_unnamed_addr constant %"class.blink::HTMLQualifiedName"*, align 8
@_ZN5blink10html_names5kBTagE = external local_unnamed_addr constant %"class.blink::HTMLQualifiedName"*, align 8
@_ZN5blink10html_names5kUTagE = external local_unnamed_addr constant %"class.blink::HTMLQualifiedName"*, align 8
@_ZN5blink10html_names8kRubyTagE = external local_unnamed_addr constant %"class.blink::HTMLQualifiedName"*, align 8
@_ZN5blink10html_names6kRtTagE = external local_unnamed_addr constant %"class.blink::HTMLQualifiedName"*, align 8
@_ZN5blink10html_names10kClassAttrE = external local_unnamed_addr constant %"class.blink::QualifiedName"*, align 8
@_ZN5blink19style_change_reason12kPseudoClassE = external constant [0 x i8], align 1
@_ZN5blink23style_change_extra_data6g_pastE = external local_unnamed_addr constant %"class.WTF::AtomicString"*, align 8
@_ZZN5blinkL17NodeTypeToTagNameENS_11VTTNodeTypeEE7s_c_tag = internal global %"class.WTF::StaticSingleton" zeroinitializer, align 8
@_ZGVZN5blinkL17NodeTypeToTagNameENS_11VTTNodeTypeEE7s_c_tag = internal global i64 0, align 8
@_ZZN5blinkL17NodeTypeToTagNameENS_11VTTNodeTypeEE7s_v_tag = internal global %"class.WTF::StaticSingleton" zeroinitializer, align 8
@_ZGVZN5blinkL17NodeTypeToTagNameENS_11VTTNodeTypeEE7s_v_tag = internal global i64 0, align 8
@_ZZN5blinkL17NodeTypeToTagNameENS_11VTTNodeTypeEE10s_lang_tag = internal global %"class.WTF::StaticSingleton" zeroinitializer, align 8
@_ZGVZN5blinkL17NodeTypeToTagNameENS_11VTTNodeTypeEE10s_lang_tag = internal global i64 0, align 8
@_ZZN5blinkL17NodeTypeToTagNameENS_11VTTNodeTypeEE7s_b_tag = internal global %"class.WTF::StaticSingleton" zeroinitializer, align 8
@_ZGVZN5blinkL17NodeTypeToTagNameENS_11VTTNodeTypeEE7s_b_tag = internal global i64 0, align 8
@_ZZN5blinkL17NodeTypeToTagNameENS_11VTTNodeTypeEE7s_u_tag = internal global %"class.WTF::StaticSingleton" zeroinitializer, align 8
@_ZGVZN5blinkL17NodeTypeToTagNameENS_11VTTNodeTypeEE7s_u_tag = internal global i64 0, align 8
@_ZZN5blinkL17NodeTypeToTagNameENS_11VTTNodeTypeEE7s_i_tag = internal global %"class.WTF::StaticSingleton" zeroinitializer, align 8
@_ZGVZN5blinkL17NodeTypeToTagNameENS_11VTTNodeTypeEE7s_i_tag = internal global i64 0, align 8
@_ZZN5blinkL17NodeTypeToTagNameENS_11VTTNodeTypeEE10s_ruby_tag = internal global %"class.WTF::StaticSingleton" zeroinitializer, align 8
@_ZGVZN5blinkL17NodeTypeToTagNameENS_11VTTNodeTypeEE10s_ruby_tag = internal global i64 0, align 8
@_ZZN5blinkL17NodeTypeToTagNameENS_11VTTNodeTypeEE8s_rt_tag = internal global %"class.WTF::StaticSingleton" zeroinitializer, align 8
@_ZGVZN5blinkL17NodeTypeToTagNameENS_11VTTNodeTypeEE8s_rt_tag = internal global i64 0, align 8
@_ZN3WTF11g_null_atomE = external local_unnamed_addr constant %"class.WTF::AtomicString"*, align 8
@.str = private unnamed_addr constant [2 x i8] c"c\00", align 1
@.str.1 = private unnamed_addr constant [2 x i8] c"v\00", align 1
@.str.2 = private unnamed_addr constant [5 x i8] c"lang\00", align 1
@.str.3 = private unnamed_addr constant [2 x i8] c"b\00", align 1
@.str.4 = private unnamed_addr constant [2 x i8] c"u\00", align 1
@.str.5 = private unnamed_addr constant [2 x i8] c"i\00", align 1
@.str.6 = private unnamed_addr constant [5 x i8] c"ruby\00", align 1
@.str.7 = private unnamed_addr constant [3 x i8] c"rt\00", align 1
@_ZZN5blink10VTTElement18VoiceAttributeNameEvE12s_voice_attr = linkonce_odr hidden global %"class.WTF::StaticSingleton" zeroinitializer, comdat, align 8
@_ZGVZN5blink10VTTElement18VoiceAttributeNameEvE12s_voice_attr = linkonce_odr hidden global i64 0, comdat, align 8
@.str.8 = private unnamed_addr constant [6 x i8] c"voice\00", align 1
@_ZZN5blink10VTTElement17LangAttributeNameEvE12s_voice_attr = linkonce_odr hidden global %"class.WTF::StaticSingleton" zeroinitializer, comdat, align 8
@_ZGVZN5blink10VTTElement17LangAttributeNameEvE12s_voice_attr = linkonce_odr hidden global i64 0, comdat, align 8
@_ZTVN5blink7ElementE = external unnamed_addr constant { [157 x i8*], [3 x i8*] }, align 8
@_ZN5blink7Element18wrapper_type_info_E = external local_unnamed_addr constant %"struct.blink::WrapperTypeInfo"*, align 8
@_ZN5blink11ThreadState26main_thread_state_storage_E = external local_unnamed_addr global [0 x i8], align 1
@_ZZN5blink11GCInfoTraitINS_15ScriptWrappableEE5IndexEvE7kGcInfo = linkonce_odr hidden constant %"struct.blink::GCInfo" { void (%"class.blink::Visitor"*, i8*)* @_ZN5blink10TraceTraitINS_15ScriptWrappableEE5TraceEPNS_7VisitorEPKv, void (i8*)* @_ZN5blink8internal14FinalizerTraitINS_15ScriptWrappableEE8FinalizeEPv, { i8*, i8 } (i8*)* @_ZN5blink9NameTraitINS_15ScriptWrappableEE7GetNameEPKv, i8 1 }, comdat, align 8
@_ZZN5blink11GCInfoTraitINS_15ScriptWrappableEE5IndexEvE13gc_info_index = linkonce_odr hidden global { { i32 } } zeroinitializer, comdat, align 4
@_ZN5blink11GCInfoTable13global_table_E = external local_unnamed_addr global %"class.blink::GCInfoTable"*, align 8
@_ZN5blink11ThreadState25incremental_marking_flag_E = external local_unnamed_addr global %"class.blink::AtomicEntryFlag", align 4

@_ZN5blink10VTTElementC1ENS_11VTTNodeTypeEPNS_8DocumentE = hidden unnamed_addr alias void (%"class.blink::VTTElement"*, i32, %"class.blink::Document"*), void (%"class.blink::VTTElement"*, i32, %"class.blink::Document"*)* @_ZN5blink10VTTElementC2ENS_11VTTNodeTypeEPNS_8DocumentE

; Function Attrs: nounwind ssp uwtable
define hidden void @_ZN5blink10VTTElementC2ENS_11VTTNodeTypeEPNS_8DocumentE(%"class.blink::VTTElement"*, i32, %"class.blink::Document"*) unnamed_addr #0 align 2 {
  %4 = alloca %"class.WTF::AtomicString", align 8
  %5 = alloca %"class.WTF::AtomicString", align 8
  %6 = alloca %"class.WTF::AtomicString", align 8
  %7 = alloca %"class.WTF::AtomicString", align 8
  %8 = alloca %"class.WTF::AtomicString", align 8
  %9 = alloca %"class.WTF::AtomicString", align 8
  %10 = alloca %"class.WTF::AtomicString", align 8
  %11 = alloca %"class.WTF::AtomicString", align 8
  %12 = getelementptr inbounds %"class.blink::VTTElement", %"class.blink::VTTElement"* %0, i64 0, i32 0
  %13 = load atomic i8, i8* bitcast (i64* @_ZGVZN5blinkL17NodeTypeToTagNameENS_11VTTNodeTypeEE7s_c_tag to i8*) acquire, align 8
  %14 = icmp eq i8 %13, 0
  br i1 %14, label %15, label %38, !prof !2

15:                                               ; preds = %3
  %16 = tail call i32 @__cxa_guard_acquire(i64* nonnull @_ZGVZN5blinkL17NodeTypeToTagNameENS_11VTTNodeTypeEE7s_c_tag) #8
  %17 = icmp eq i32 %16, 0
  br i1 %17, label %38, label %18

18:                                               ; preds = %15
  %19 = load %"class.WTF::AtomicString"*, %"class.WTF::AtomicString"** @_ZN3WTF11g_null_atomE, align 8
  %20 = bitcast %"class.WTF::AtomicString"* %11 to i8*
  call void @llvm.lifetime.start.p0i8(i64 8, i8* nonnull %20) #8
  call void @_ZN3WTF12AtomicStringC2EPKhm(%"class.WTF::AtomicString"* nonnull %11, i8* getelementptr inbounds ([2 x i8], [2 x i8]* @.str, i64 0, i64 0), i64 1) #8
  call void @_ZN5blink13QualifiedNameC1ERKN3WTF12AtomicStringES4_S4_(%"class.blink::QualifiedName"* bitcast (%"class.WTF::StaticSingleton"* @_ZZN5blinkL17NodeTypeToTagNameENS_11VTTNodeTypeEE7s_c_tag to %"class.blink::QualifiedName"*), %"class.WTF::AtomicString"* dereferenceable(8) %19, %"class.WTF::AtomicString"* nonnull dereferenceable(8) %11, %"class.WTF::AtomicString"* dereferenceable(8) %19) #8
  %21 = getelementptr inbounds %"class.WTF::AtomicString", %"class.WTF::AtomicString"* %11, i64 0, i32 0, i32 0, i32 0
  %22 = load %"class.WTF::StringImpl"*, %"class.WTF::StringImpl"** %21, align 8
  %23 = icmp eq %"class.WTF::StringImpl"* %22, null
  br i1 %23, label %37, label %24

24:                                               ; preds = %18
  %25 = getelementptr inbounds %"class.WTF::StringImpl", %"class.WTF::StringImpl"* %22, i64 0, i32 2, i32 0, i32 0, i32 0, i32 0, i32 0
  %26 = load atomic i32, i32* %25 monotonic, align 4
  %27 = and i32 %26, 2
  %28 = icmp eq i32 %27, 0
  %29 = getelementptr inbounds %"class.WTF::StringImpl", %"class.WTF::StringImpl"* %22, i64 0, i32 0
  %30 = load i32, i32* %29, align 4
  br i1 %28, label %31, label %33

31:                                               ; preds = %24
  %32 = add i32 %30, -1
  store i32 %32, i32* %29, align 4
  br label %33

33:                                               ; preds = %31, %24
  %34 = phi i32 [ %32, %31 ], [ %30, %24 ]
  %35 = icmp eq i32 %34, 0
  br i1 %35, label %36, label %37

36:                                               ; preds = %33
  call void @_ZNK3WTF10StringImpl18DestroyIfNotStaticEv(%"class.WTF::StringImpl"* nonnull %22) #8
  br label %37

37:                                               ; preds = %36, %33, %18
  call void @llvm.lifetime.end.p0i8(i64 8, i8* nonnull %20) #8
  call void @__cxa_guard_release(i64* nonnull @_ZGVZN5blinkL17NodeTypeToTagNameENS_11VTTNodeTypeEE7s_c_tag) #8
  br label %38

38:                                               ; preds = %37, %15, %3
  %39 = load atomic i8, i8* bitcast (i64* @_ZGVZN5blinkL17NodeTypeToTagNameENS_11VTTNodeTypeEE7s_v_tag to i8*) acquire, align 8
  %40 = icmp eq i8 %39, 0
  br i1 %40, label %41, label %64, !prof !2

41:                                               ; preds = %38
  %42 = call i32 @__cxa_guard_acquire(i64* nonnull @_ZGVZN5blinkL17NodeTypeToTagNameENS_11VTTNodeTypeEE7s_v_tag) #8
  %43 = icmp eq i32 %42, 0
  br i1 %43, label %64, label %44

44:                                               ; preds = %41
  %45 = load %"class.WTF::AtomicString"*, %"class.WTF::AtomicString"** @_ZN3WTF11g_null_atomE, align 8
  %46 = bitcast %"class.WTF::AtomicString"* %10 to i8*
  call void @llvm.lifetime.start.p0i8(i64 8, i8* nonnull %46) #8
  call void @_ZN3WTF12AtomicStringC2EPKhm(%"class.WTF::AtomicString"* nonnull %10, i8* getelementptr inbounds ([2 x i8], [2 x i8]* @.str.1, i64 0, i64 0), i64 1) #8
  call void @_ZN5blink13QualifiedNameC1ERKN3WTF12AtomicStringES4_S4_(%"class.blink::QualifiedName"* bitcast (%"class.WTF::StaticSingleton"* @_ZZN5blinkL17NodeTypeToTagNameENS_11VTTNodeTypeEE7s_v_tag to %"class.blink::QualifiedName"*), %"class.WTF::AtomicString"* dereferenceable(8) %45, %"class.WTF::AtomicString"* nonnull dereferenceable(8) %10, %"class.WTF::AtomicString"* dereferenceable(8) %45) #8
  %47 = getelementptr inbounds %"class.WTF::AtomicString", %"class.WTF::AtomicString"* %10, i64 0, i32 0, i32 0, i32 0
  %48 = load %"class.WTF::StringImpl"*, %"class.WTF::StringImpl"** %47, align 8
  %49 = icmp eq %"class.WTF::StringImpl"* %48, null
  br i1 %49, label %63, label %50

50:                                               ; preds = %44
  %51 = getelementptr inbounds %"class.WTF::StringImpl", %"class.WTF::StringImpl"* %48, i64 0, i32 2, i32 0, i32 0, i32 0, i32 0, i32 0
  %52 = load atomic i32, i32* %51 monotonic, align 4
  %53 = and i32 %52, 2
  %54 = icmp eq i32 %53, 0
  %55 = getelementptr inbounds %"class.WTF::StringImpl", %"class.WTF::StringImpl"* %48, i64 0, i32 0
  %56 = load i32, i32* %55, align 4
  br i1 %54, label %57, label %59

57:                                               ; preds = %50
  %58 = add i32 %56, -1
  store i32 %58, i32* %55, align 4
  br label %59

59:                                               ; preds = %57, %50
  %60 = phi i32 [ %58, %57 ], [ %56, %50 ]
  %61 = icmp eq i32 %60, 0
  br i1 %61, label %62, label %63

62:                                               ; preds = %59
  call void @_ZNK3WTF10StringImpl18DestroyIfNotStaticEv(%"class.WTF::StringImpl"* nonnull %48) #8
  br label %63

63:                                               ; preds = %62, %59, %44
  call void @llvm.lifetime.end.p0i8(i64 8, i8* nonnull %46) #8
  call void @__cxa_guard_release(i64* nonnull @_ZGVZN5blinkL17NodeTypeToTagNameENS_11VTTNodeTypeEE7s_v_tag) #8
  br label %64

64:                                               ; preds = %63, %41, %38
  %65 = load atomic i8, i8* bitcast (i64* @_ZGVZN5blinkL17NodeTypeToTagNameENS_11VTTNodeTypeEE10s_lang_tag to i8*) acquire, align 8
  %66 = icmp eq i8 %65, 0
  br i1 %66, label %67, label %90, !prof !2

67:                                               ; preds = %64
  %68 = call i32 @__cxa_guard_acquire(i64* nonnull @_ZGVZN5blinkL17NodeTypeToTagNameENS_11VTTNodeTypeEE10s_lang_tag) #8
  %69 = icmp eq i32 %68, 0
  br i1 %69, label %90, label %70

70:                                               ; preds = %67
  %71 = load %"class.WTF::AtomicString"*, %"class.WTF::AtomicString"** @_ZN3WTF11g_null_atomE, align 8
  %72 = bitcast %"class.WTF::AtomicString"* %9 to i8*
  call void @llvm.lifetime.start.p0i8(i64 8, i8* nonnull %72) #8
  call void @_ZN3WTF12AtomicStringC2EPKhm(%"class.WTF::AtomicString"* nonnull %9, i8* getelementptr inbounds ([5 x i8], [5 x i8]* @.str.2, i64 0, i64 0), i64 4) #8
  call void @_ZN5blink13QualifiedNameC1ERKN3WTF12AtomicStringES4_S4_(%"class.blink::QualifiedName"* bitcast (%"class.WTF::StaticSingleton"* @_ZZN5blinkL17NodeTypeToTagNameENS_11VTTNodeTypeEE10s_lang_tag to %"class.blink::QualifiedName"*), %"class.WTF::AtomicString"* dereferenceable(8) %71, %"class.WTF::AtomicString"* nonnull dereferenceable(8) %9, %"class.WTF::AtomicString"* dereferenceable(8) %71) #8
  %73 = getelementptr inbounds %"class.WTF::AtomicString", %"class.WTF::AtomicString"* %9, i64 0, i32 0, i32 0, i32 0
  %74 = load %"class.WTF::StringImpl"*, %"class.WTF::StringImpl"** %73, align 8
  %75 = icmp eq %"class.WTF::StringImpl"* %74, null
  br i1 %75, label %89, label %76

76:                                               ; preds = %70
  %77 = getelementptr inbounds %"class.WTF::StringImpl", %"class.WTF::StringImpl"* %74, i64 0, i32 2, i32 0, i32 0, i32 0, i32 0, i32 0
  %78 = load atomic i32, i32* %77 monotonic, align 4
  %79 = and i32 %78, 2
  %80 = icmp eq i32 %79, 0
  %81 = getelementptr inbounds %"class.WTF::StringImpl", %"class.WTF::StringImpl"* %74, i64 0, i32 0
  %82 = load i32, i32* %81, align 4
  br i1 %80, label %83, label %85

83:                                               ; preds = %76
  %84 = add i32 %82, -1
  store i32 %84, i32* %81, align 4
  br label %85

85:                                               ; preds = %83, %76
  %86 = phi i32 [ %84, %83 ], [ %82, %76 ]
  %87 = icmp eq i32 %86, 0
  br i1 %87, label %88, label %89

88:                                               ; preds = %85
  call void @_ZNK3WTF10StringImpl18DestroyIfNotStaticEv(%"class.WTF::StringImpl"* nonnull %74) #8
  br label %89

89:                                               ; preds = %88, %85, %70
  call void @llvm.lifetime.end.p0i8(i64 8, i8* nonnull %72) #8
  call void @__cxa_guard_release(i64* nonnull @_ZGVZN5blinkL17NodeTypeToTagNameENS_11VTTNodeTypeEE10s_lang_tag) #8
  br label %90

90:                                               ; preds = %89, %67, %64
  %91 = load atomic i8, i8* bitcast (i64* @_ZGVZN5blinkL17NodeTypeToTagNameENS_11VTTNodeTypeEE7s_b_tag to i8*) acquire, align 8
  %92 = icmp eq i8 %91, 0
  br i1 %92, label %93, label %116, !prof !2

93:                                               ; preds = %90
  %94 = call i32 @__cxa_guard_acquire(i64* nonnull @_ZGVZN5blinkL17NodeTypeToTagNameENS_11VTTNodeTypeEE7s_b_tag) #8
  %95 = icmp eq i32 %94, 0
  br i1 %95, label %116, label %96

96:                                               ; preds = %93
  %97 = load %"class.WTF::AtomicString"*, %"class.WTF::AtomicString"** @_ZN3WTF11g_null_atomE, align 8
  %98 = bitcast %"class.WTF::AtomicString"* %8 to i8*
  call void @llvm.lifetime.start.p0i8(i64 8, i8* nonnull %98) #8
  call void @_ZN3WTF12AtomicStringC2EPKhm(%"class.WTF::AtomicString"* nonnull %8, i8* getelementptr inbounds ([2 x i8], [2 x i8]* @.str.3, i64 0, i64 0), i64 1) #8
  call void @_ZN5blink13QualifiedNameC1ERKN3WTF12AtomicStringES4_S4_(%"class.blink::QualifiedName"* bitcast (%"class.WTF::StaticSingleton"* @_ZZN5blinkL17NodeTypeToTagNameENS_11VTTNodeTypeEE7s_b_tag to %"class.blink::QualifiedName"*), %"class.WTF::AtomicString"* dereferenceable(8) %97, %"class.WTF::AtomicString"* nonnull dereferenceable(8) %8, %"class.WTF::AtomicString"* dereferenceable(8) %97) #8
  %99 = getelementptr inbounds %"class.WTF::AtomicString", %"class.WTF::AtomicString"* %8, i64 0, i32 0, i32 0, i32 0
  %100 = load %"class.WTF::StringImpl"*, %"class.WTF::StringImpl"** %99, align 8
  %101 = icmp eq %"class.WTF::StringImpl"* %100, null
  br i1 %101, label %115, label %102

102:                                              ; preds = %96
  %103 = getelementptr inbounds %"class.WTF::StringImpl", %"class.WTF::StringImpl"* %100, i64 0, i32 2, i32 0, i32 0, i32 0, i32 0, i32 0
  %104 = load atomic i32, i32* %103 monotonic, align 4
  %105 = and i32 %104, 2
  %106 = icmp eq i32 %105, 0
  %107 = getelementptr inbounds %"class.WTF::StringImpl", %"class.WTF::StringImpl"* %100, i64 0, i32 0
  %108 = load i32, i32* %107, align 4
  br i1 %106, label %109, label %111

109:                                              ; preds = %102
  %110 = add i32 %108, -1
  store i32 %110, i32* %107, align 4
  br label %111

111:                                              ; preds = %109, %102
  %112 = phi i32 [ %110, %109 ], [ %108, %102 ]
  %113 = icmp eq i32 %112, 0
  br i1 %113, label %114, label %115

114:                                              ; preds = %111
  call void @_ZNK3WTF10StringImpl18DestroyIfNotStaticEv(%"class.WTF::StringImpl"* nonnull %100) #8
  br label %115

115:                                              ; preds = %114, %111, %96
  call void @llvm.lifetime.end.p0i8(i64 8, i8* nonnull %98) #8
  call void @__cxa_guard_release(i64* nonnull @_ZGVZN5blinkL17NodeTypeToTagNameENS_11VTTNodeTypeEE7s_b_tag) #8
  br label %116

116:                                              ; preds = %115, %93, %90
  %117 = load atomic i8, i8* bitcast (i64* @_ZGVZN5blinkL17NodeTypeToTagNameENS_11VTTNodeTypeEE7s_u_tag to i8*) acquire, align 8
  %118 = icmp eq i8 %117, 0
  br i1 %118, label %119, label %142, !prof !2

119:                                              ; preds = %116
  %120 = call i32 @__cxa_guard_acquire(i64* nonnull @_ZGVZN5blinkL17NodeTypeToTagNameENS_11VTTNodeTypeEE7s_u_tag) #8
  %121 = icmp eq i32 %120, 0
  br i1 %121, label %142, label %122

122:                                              ; preds = %119
  %123 = load %"class.WTF::AtomicString"*, %"class.WTF::AtomicString"** @_ZN3WTF11g_null_atomE, align 8
  %124 = bitcast %"class.WTF::AtomicString"* %7 to i8*
  call void @llvm.lifetime.start.p0i8(i64 8, i8* nonnull %124) #8
  call void @_ZN3WTF12AtomicStringC2EPKhm(%"class.WTF::AtomicString"* nonnull %7, i8* getelementptr inbounds ([2 x i8], [2 x i8]* @.str.4, i64 0, i64 0), i64 1) #8
  call void @_ZN5blink13QualifiedNameC1ERKN3WTF12AtomicStringES4_S4_(%"class.blink::QualifiedName"* bitcast (%"class.WTF::StaticSingleton"* @_ZZN5blinkL17NodeTypeToTagNameENS_11VTTNodeTypeEE7s_u_tag to %"class.blink::QualifiedName"*), %"class.WTF::AtomicString"* dereferenceable(8) %123, %"class.WTF::AtomicString"* nonnull dereferenceable(8) %7, %"class.WTF::AtomicString"* dereferenceable(8) %123) #8
  %125 = getelementptr inbounds %"class.WTF::AtomicString", %"class.WTF::AtomicString"* %7, i64 0, i32 0, i32 0, i32 0
  %126 = load %"class.WTF::StringImpl"*, %"class.WTF::StringImpl"** %125, align 8
  %127 = icmp eq %"class.WTF::StringImpl"* %126, null
  br i1 %127, label %141, label %128

128:                                              ; preds = %122
  %129 = getelementptr inbounds %"class.WTF::StringImpl", %"class.WTF::StringImpl"* %126, i64 0, i32 2, i32 0, i32 0, i32 0, i32 0, i32 0
  %130 = load atomic i32, i32* %129 monotonic, align 4
  %131 = and i32 %130, 2
  %132 = icmp eq i32 %131, 0
  %133 = getelementptr inbounds %"class.WTF::StringImpl", %"class.WTF::StringImpl"* %126, i64 0, i32 0
  %134 = load i32, i32* %133, align 4
  br i1 %132, label %135, label %137

135:                                              ; preds = %128
  %136 = add i32 %134, -1
  store i32 %136, i32* %133, align 4
  br label %137

137:                                              ; preds = %135, %128
  %138 = phi i32 [ %136, %135 ], [ %134, %128 ]
  %139 = icmp eq i32 %138, 0
  br i1 %139, label %140, label %141

140:                                              ; preds = %137
  call void @_ZNK3WTF10StringImpl18DestroyIfNotStaticEv(%"class.WTF::StringImpl"* nonnull %126) #8
  br label %141

141:                                              ; preds = %140, %137, %122
  call void @llvm.lifetime.end.p0i8(i64 8, i8* nonnull %124) #8
  call void @__cxa_guard_release(i64* nonnull @_ZGVZN5blinkL17NodeTypeToTagNameENS_11VTTNodeTypeEE7s_u_tag) #8
  br label %142

142:                                              ; preds = %141, %119, %116
  %143 = load atomic i8, i8* bitcast (i64* @_ZGVZN5blinkL17NodeTypeToTagNameENS_11VTTNodeTypeEE7s_i_tag to i8*) acquire, align 8
  %144 = icmp eq i8 %143, 0
  br i1 %144, label %145, label %168, !prof !2

145:                                              ; preds = %142
  %146 = call i32 @__cxa_guard_acquire(i64* nonnull @_ZGVZN5blinkL17NodeTypeToTagNameENS_11VTTNodeTypeEE7s_i_tag) #8
  %147 = icmp eq i32 %146, 0
  br i1 %147, label %168, label %148

148:                                              ; preds = %145
  %149 = load %"class.WTF::AtomicString"*, %"class.WTF::AtomicString"** @_ZN3WTF11g_null_atomE, align 8
  %150 = bitcast %"class.WTF::AtomicString"* %6 to i8*
  call void @llvm.lifetime.start.p0i8(i64 8, i8* nonnull %150) #8
  call void @_ZN3WTF12AtomicStringC2EPKhm(%"class.WTF::AtomicString"* nonnull %6, i8* getelementptr inbounds ([2 x i8], [2 x i8]* @.str.5, i64 0, i64 0), i64 1) #8
  call void @_ZN5blink13QualifiedNameC1ERKN3WTF12AtomicStringES4_S4_(%"class.blink::QualifiedName"* bitcast (%"class.WTF::StaticSingleton"* @_ZZN5blinkL17NodeTypeToTagNameENS_11VTTNodeTypeEE7s_i_tag to %"class.blink::QualifiedName"*), %"class.WTF::AtomicString"* dereferenceable(8) %149, %"class.WTF::AtomicString"* nonnull dereferenceable(8) %6, %"class.WTF::AtomicString"* dereferenceable(8) %149) #8
  %151 = getelementptr inbounds %"class.WTF::AtomicString", %"class.WTF::AtomicString"* %6, i64 0, i32 0, i32 0, i32 0
  %152 = load %"class.WTF::StringImpl"*, %"class.WTF::StringImpl"** %151, align 8
  %153 = icmp eq %"class.WTF::StringImpl"* %152, null
  br i1 %153, label %167, label %154

154:                                              ; preds = %148
  %155 = getelementptr inbounds %"class.WTF::StringImpl", %"class.WTF::StringImpl"* %152, i64 0, i32 2, i32 0, i32 0, i32 0, i32 0, i32 0
  %156 = load atomic i32, i32* %155 monotonic, align 4
  %157 = and i32 %156, 2
  %158 = icmp eq i32 %157, 0
  %159 = getelementptr inbounds %"class.WTF::StringImpl", %"class.WTF::StringImpl"* %152, i64 0, i32 0
  %160 = load i32, i32* %159, align 4
  br i1 %158, label %161, label %163

161:                                              ; preds = %154
  %162 = add i32 %160, -1
  store i32 %162, i32* %159, align 4
  br label %163

163:                                              ; preds = %161, %154
  %164 = phi i32 [ %162, %161 ], [ %160, %154 ]
  %165 = icmp eq i32 %164, 0
  br i1 %165, label %166, label %167

166:                                              ; preds = %163
  call void @_ZNK3WTF10StringImpl18DestroyIfNotStaticEv(%"class.WTF::StringImpl"* nonnull %152) #8
  br label %167

167:                                              ; preds = %166, %163, %148
  call void @llvm.lifetime.end.p0i8(i64 8, i8* nonnull %150) #8
  call void @__cxa_guard_release(i64* nonnull @_ZGVZN5blinkL17NodeTypeToTagNameENS_11VTTNodeTypeEE7s_i_tag) #8
  br label %168

168:                                              ; preds = %167, %145, %142
  %169 = load atomic i8, i8* bitcast (i64* @_ZGVZN5blinkL17NodeTypeToTagNameENS_11VTTNodeTypeEE10s_ruby_tag to i8*) acquire, align 8
  %170 = icmp eq i8 %169, 0
  br i1 %170, label %171, label %194, !prof !2

171:                                              ; preds = %168
  %172 = call i32 @__cxa_guard_acquire(i64* nonnull @_ZGVZN5blinkL17NodeTypeToTagNameENS_11VTTNodeTypeEE10s_ruby_tag) #8
  %173 = icmp eq i32 %172, 0
  br i1 %173, label %194, label %174

174:                                              ; preds = %171
  %175 = load %"class.WTF::AtomicString"*, %"class.WTF::AtomicString"** @_ZN3WTF11g_null_atomE, align 8
  %176 = bitcast %"class.WTF::AtomicString"* %5 to i8*
  call void @llvm.lifetime.start.p0i8(i64 8, i8* nonnull %176) #8
  call void @_ZN3WTF12AtomicStringC2EPKhm(%"class.WTF::AtomicString"* nonnull %5, i8* getelementptr inbounds ([5 x i8], [5 x i8]* @.str.6, i64 0, i64 0), i64 4) #8
  call void @_ZN5blink13QualifiedNameC1ERKN3WTF12AtomicStringES4_S4_(%"class.blink::QualifiedName"* bitcast (%"class.WTF::StaticSingleton"* @_ZZN5blinkL17NodeTypeToTagNameENS_11VTTNodeTypeEE10s_ruby_tag to %"class.blink::QualifiedName"*), %"class.WTF::AtomicString"* dereferenceable(8) %175, %"class.WTF::AtomicString"* nonnull dereferenceable(8) %5, %"class.WTF::AtomicString"* dereferenceable(8) %175) #8
  %177 = getelementptr inbounds %"class.WTF::AtomicString", %"class.WTF::AtomicString"* %5, i64 0, i32 0, i32 0, i32 0
  %178 = load %"class.WTF::StringImpl"*, %"class.WTF::StringImpl"** %177, align 8
  %179 = icmp eq %"class.WTF::StringImpl"* %178, null
  br i1 %179, label %193, label %180

180:                                              ; preds = %174
  %181 = getelementptr inbounds %"class.WTF::StringImpl", %"class.WTF::StringImpl"* %178, i64 0, i32 2, i32 0, i32 0, i32 0, i32 0, i32 0
  %182 = load atomic i32, i32* %181 monotonic, align 4
  %183 = and i32 %182, 2
  %184 = icmp eq i32 %183, 0
  %185 = getelementptr inbounds %"class.WTF::StringImpl", %"class.WTF::StringImpl"* %178, i64 0, i32 0
  %186 = load i32, i32* %185, align 4
  br i1 %184, label %187, label %189

187:                                              ; preds = %180
  %188 = add i32 %186, -1
  store i32 %188, i32* %185, align 4
  br label %189

189:                                              ; preds = %187, %180
  %190 = phi i32 [ %188, %187 ], [ %186, %180 ]
  %191 = icmp eq i32 %190, 0
  br i1 %191, label %192, label %193

192:                                              ; preds = %189
  call void @_ZNK3WTF10StringImpl18DestroyIfNotStaticEv(%"class.WTF::StringImpl"* nonnull %178) #8
  br label %193

193:                                              ; preds = %192, %189, %174
  call void @llvm.lifetime.end.p0i8(i64 8, i8* nonnull %176) #8
  call void @__cxa_guard_release(i64* nonnull @_ZGVZN5blinkL17NodeTypeToTagNameENS_11VTTNodeTypeEE10s_ruby_tag) #8
  br label %194

194:                                              ; preds = %193, %171, %168
  %195 = load atomic i8, i8* bitcast (i64* @_ZGVZN5blinkL17NodeTypeToTagNameENS_11VTTNodeTypeEE8s_rt_tag to i8*) acquire, align 8
  %196 = icmp eq i8 %195, 0
  br i1 %196, label %197, label %220, !prof !2

197:                                              ; preds = %194
  %198 = call i32 @__cxa_guard_acquire(i64* nonnull @_ZGVZN5blinkL17NodeTypeToTagNameENS_11VTTNodeTypeEE8s_rt_tag) #8
  %199 = icmp eq i32 %198, 0
  br i1 %199, label %220, label %200

200:                                              ; preds = %197
  %201 = load %"class.WTF::AtomicString"*, %"class.WTF::AtomicString"** @_ZN3WTF11g_null_atomE, align 8
  %202 = bitcast %"class.WTF::AtomicString"* %4 to i8*
  call void @llvm.lifetime.start.p0i8(i64 8, i8* nonnull %202) #8
  call void @_ZN3WTF12AtomicStringC2EPKhm(%"class.WTF::AtomicString"* nonnull %4, i8* getelementptr inbounds ([3 x i8], [3 x i8]* @.str.7, i64 0, i64 0), i64 2) #8
  call void @_ZN5blink13QualifiedNameC1ERKN3WTF12AtomicStringES4_S4_(%"class.blink::QualifiedName"* bitcast (%"class.WTF::StaticSingleton"* @_ZZN5blinkL17NodeTypeToTagNameENS_11VTTNodeTypeEE8s_rt_tag to %"class.blink::QualifiedName"*), %"class.WTF::AtomicString"* dereferenceable(8) %201, %"class.WTF::AtomicString"* nonnull dereferenceable(8) %4, %"class.WTF::AtomicString"* dereferenceable(8) %201) #8
  %203 = getelementptr inbounds %"class.WTF::AtomicString", %"class.WTF::AtomicString"* %4, i64 0, i32 0, i32 0, i32 0
  %204 = load %"class.WTF::StringImpl"*, %"class.WTF::StringImpl"** %203, align 8
  %205 = icmp eq %"class.WTF::StringImpl"* %204, null
  br i1 %205, label %219, label %206

206:                                              ; preds = %200
  %207 = getelementptr inbounds %"class.WTF::StringImpl", %"class.WTF::StringImpl"* %204, i64 0, i32 2, i32 0, i32 0, i32 0, i32 0, i32 0
  %208 = load atomic i32, i32* %207 monotonic, align 4
  %209 = and i32 %208, 2
  %210 = icmp eq i32 %209, 0
  %211 = getelementptr inbounds %"class.WTF::StringImpl", %"class.WTF::StringImpl"* %204, i64 0, i32 0
  %212 = load i32, i32* %211, align 4
  br i1 %210, label %213, label %215

213:                                              ; preds = %206
  %214 = add i32 %212, -1
  store i32 %214, i32* %211, align 4
  br label %215

215:                                              ; preds = %213, %206
  %216 = phi i32 [ %214, %213 ], [ %212, %206 ]
  %217 = icmp eq i32 %216, 0
  br i1 %217, label %218, label %219

218:                                              ; preds = %215
  call void @_ZNK3WTF10StringImpl18DestroyIfNotStaticEv(%"class.WTF::StringImpl"* nonnull %204) #8
  br label %219

219:                                              ; preds = %218, %215, %200
  call void @llvm.lifetime.end.p0i8(i64 8, i8* nonnull %202) #8
  call void @__cxa_guard_release(i64* nonnull @_ZGVZN5blinkL17NodeTypeToTagNameENS_11VTTNodeTypeEE8s_rt_tag) #8
  br label %220

220:                                              ; preds = %219, %197, %194
  switch i32 %1, label %228 [
    i32 8, label %227
    i32 2, label %221
    i32 3, label %222
    i32 4, label %223
    i32 5, label %224
    i32 6, label %225
    i32 7, label %226
  ]

221:                                              ; preds = %220
  br label %228

222:                                              ; preds = %220
  br label %228

223:                                              ; preds = %220
  br label %228

224:                                              ; preds = %220
  br label %228

225:                                              ; preds = %220
  br label %228

226:                                              ; preds = %220
  br label %228

227:                                              ; preds = %220
  br label %228

228:                                              ; preds = %220, %221, %222, %223, %224, %225, %226, %227
  %229 = phi %"class.blink::QualifiedName"* [ bitcast (%"class.WTF::StaticSingleton"* @_ZZN5blinkL17NodeTypeToTagNameENS_11VTTNodeTypeEE7s_v_tag to %"class.blink::QualifiedName"*), %227 ], [ bitcast (%"class.WTF::StaticSingleton"* @_ZZN5blinkL17NodeTypeToTagNameENS_11VTTNodeTypeEE8s_rt_tag to %"class.blink::QualifiedName"*), %226 ], [ bitcast (%"class.WTF::StaticSingleton"* @_ZZN5blinkL17NodeTypeToTagNameENS_11VTTNodeTypeEE10s_ruby_tag to %"class.blink::QualifiedName"*), %225 ], [ bitcast (%"class.WTF::StaticSingleton"* @_ZZN5blinkL17NodeTypeToTagNameENS_11VTTNodeTypeEE7s_u_tag to %"class.blink::QualifiedName"*), %224 ], [ bitcast (%"class.WTF::StaticSingleton"* @_ZZN5blinkL17NodeTypeToTagNameENS_11VTTNodeTypeEE7s_b_tag to %"class.blink::QualifiedName"*), %223 ], [ bitcast (%"class.WTF::StaticSingleton"* @_ZZN5blinkL17NodeTypeToTagNameENS_11VTTNodeTypeEE10s_lang_tag to %"class.blink::QualifiedName"*), %222 ], [ bitcast (%"class.WTF::StaticSingleton"* @_ZZN5blinkL17NodeTypeToTagNameENS_11VTTNodeTypeEE7s_i_tag to %"class.blink::QualifiedName"*), %221 ], [ bitcast (%"class.WTF::StaticSingleton"* @_ZZN5blinkL17NodeTypeToTagNameENS_11VTTNodeTypeEE7s_c_tag to %"class.blink::QualifiedName"*), %220 ]
  call void @_ZN5blink7ElementC2ERKNS_13QualifiedNameEPNS_8DocumentENS_4Node16ConstructionTypeE(%"class.blink::Element"* %12, %"class.blink::QualifiedName"* nonnull dereferenceable(8) %229, %"class.blink::Document"* %2, i32 1074) #8
  %230 = getelementptr inbounds %"class.blink::VTTElement", %"class.blink::VTTElement"* %0, i64 0, i32 0, i32 0, i32 0, i32 0, i32 0, i32 0, i32 0
  store i32 (...)** bitcast (i8** getelementptr inbounds ({ [157 x i8*], [3 x i8*] }, { [157 x i8*], [3 x i8*] }* @_ZTVN5blink10VTTElementE, i64 0, inrange i32 0, i64 2) to i32 (...)**), i32 (...)*** %230, align 8
  %231 = getelementptr inbounds %"class.blink::VTTElement", %"class.blink::VTTElement"* %0, i64 0, i32 0, i32 1, i32 0
  store i32 (...)** bitcast (i8** getelementptr inbounds ({ [157 x i8*], [3 x i8*] }, { [157 x i8*], [3 x i8*] }* @_ZTVN5blink10VTTElementE, i64 0, inrange i32 1, i64 2) to i32 (...)**), i32 (...)*** %231, align 8
  %232 = getelementptr inbounds %"class.blink::VTTElement", %"class.blink::VTTElement"* %0, i64 0, i32 1, i32 0, i32 0
  store %"class.blink::TextTrack"* null, %"class.blink::TextTrack"** %232, align 8
  %233 = getelementptr inbounds %"class.blink::VTTElement", %"class.blink::VTTElement"* %0, i64 0, i32 2
  %234 = load i8, i8* %233, align 8
  %235 = trunc i32 %1 to i8
  %236 = shl i8 %235, 1
  %237 = and i8 %236, 30
  %238 = and i8 %234, -32
  %239 = or i8 %238, %237
  store i8 %239, i8* %233, align 8
  %240 = getelementptr inbounds %"class.blink::VTTElement", %"class.blink::VTTElement"* %0, i64 0, i32 3, i32 0, i32 0, i32 0
  store %"class.WTF::StringImpl"* null, %"class.WTF::StringImpl"** %240, align 8
  ret void
}

declare void @_ZN5blink7ElementC2ERKNS_13QualifiedNameEPNS_8DocumentENS_4Node16ConstructionTypeE(%"class.blink::Element"*, %"class.blink::QualifiedName"* dereferenceable(8), %"class.blink::Document"*, i32) unnamed_addr #1

; Function Attrs: nounwind ssp uwtable
define hidden dereferenceable(104) %"class.blink::Element"* @_ZNK5blink10VTTElement33CloneWithoutAttributesAndChildrenERNS_8DocumentE(%"class.blink::VTTElement"* nocapture readonly, %"class.blink::Document"* dereferenceable(2848)) unnamed_addr #0 align 2 {
  %3 = alloca i32, align 4
  %4 = alloca %"class.blink::Document"*, align 8
  %5 = bitcast i32* %3 to i8*
  call void @llvm.lifetime.start.p0i8(i64 4, i8* nonnull %5) #8
  %6 = getelementptr inbounds %"class.blink::VTTElement", %"class.blink::VTTElement"* %0, i64 0, i32 2
  %7 = load i8, i8* %6, align 8
  %8 = lshr i8 %7, 1
  %9 = and i8 %8, 15
  %10 = zext i8 %9 to i32
  store i32 %10, i32* %3, align 4
  %11 = bitcast %"class.blink::Document"** %4 to i8*
  call void @llvm.lifetime.start.p0i8(i64 8, i8* nonnull %11) #8
  store %"class.blink::Document"* %1, %"class.blink::Document"** %4, align 8
  %12 = call %"class.blink::VTTElement"* @_ZN5blink25MakeGarbageCollectedTraitINS_10VTTElementEE4CallIJNS_11VTTNodeTypeEPNS_8DocumentEEEEPS1_DpOT_(i32* nonnull dereferenceable(4) %3, %"class.blink::Document"** nonnull dereferenceable(8) %4) #8
  call void @llvm.lifetime.end.p0i8(i64 8, i8* nonnull %11) #8
  call void @llvm.lifetime.end.p0i8(i64 4, i8* nonnull %5) #8
  %13 = getelementptr inbounds %"class.blink::VTTElement", %"class.blink::VTTElement"* %0, i64 0, i32 3, i32 0, i32 0, i32 0
  %14 = load %"class.WTF::StringImpl"*, %"class.WTF::StringImpl"** %13, align 8
  %15 = icmp eq %"class.WTF::StringImpl"* %14, null
  br i1 %15, label %33, label %16

16:                                               ; preds = %2
  %17 = getelementptr inbounds %"class.WTF::StringImpl", %"class.WTF::StringImpl"* %14, i64 0, i32 2, i32 0, i32 0, i32 0, i32 0, i32 0
  %18 = load atomic i32, i32* %17 monotonic, align 4
  %19 = and i32 %18, 2
  %20 = icmp eq i32 %19, 0
  br i1 %20, label %21, label %33

21:                                               ; preds = %16
  %22 = getelementptr inbounds %"class.WTF::StringImpl", %"class.WTF::StringImpl"* %14, i64 0, i32 0
  %23 = load i32, i32* %22, align 4
  %24 = zext i32 %23 to i33
  %25 = call { i33, i1 } @llvm.sadd.with.overflow.i33(i33 %24, i33 1) #8
  %26 = extractvalue { i33, i1 } %25, 1
  %27 = extractvalue { i33, i1 } %25, 0
  %28 = icmp slt i33 %27, 0
  %29 = or i1 %26, %28
  br i1 %29, label %30, label %31, !prof !3

30:                                               ; preds = %21
  call void @llvm.trap() #8
  unreachable

31:                                               ; preds = %21
  %32 = trunc i33 %27 to i32
  store i32 %32, i32* %22, align 4
  br label %33

33:                                               ; preds = %2, %16, %31
  call void @_ZN5blink10VTTElement11SetLanguageEN3WTF12AtomicStringE(%"class.blink::VTTElement"* %12, %"class.WTF::StringImpl"* %14)
  %34 = getelementptr inbounds %"class.blink::VTTElement", %"class.blink::VTTElement"* %0, i64 0, i32 1, i32 0, i32 0
  %35 = load %"class.blink::TextTrack"*, %"class.blink::TextTrack"** %34, align 8
  %36 = getelementptr inbounds %"class.blink::VTTElement", %"class.blink::VTTElement"* %12, i64 0, i32 1
  %37 = ptrtoint %"class.blink::TextTrack"* %35 to i64
  %38 = bitcast %"class.blink::Member.19"* %36 to i64*
  store atomic i64 %37, i64* %38 monotonic, align 8
  %39 = load atomic i32, i32* getelementptr inbounds (%"class.blink::AtomicEntryFlag", %"class.blink::AtomicEntryFlag"* @_ZN5blink11ThreadState25incremental_marking_flag_E, i64 0, i32 0, i32 0, i32 0, i32 0, i32 0, i32 0) monotonic, align 4
  %40 = icmp eq i32 %39, 0
  br i1 %40, label %44, label %41

41:                                               ; preds = %33
  %42 = bitcast %"class.blink::TextTrack"* %35 to i8*
  %43 = call zeroext i1 @_ZN5blink14MarkingVisitor16WriteBarrierSlowEPv(i8* %42) #8
  br label %44

44:                                               ; preds = %33, %41
  %45 = getelementptr inbounds %"class.blink::VTTElement", %"class.blink::VTTElement"* %12, i64 0, i32 0
  ret %"class.blink::Element"* %45
}

; Function Attrs: argmemonly nounwind
declare void @llvm.lifetime.start.p0i8(i64 immarg, i8* nocapture) #2

; Function Attrs: argmemonly nounwind
declare void @llvm.lifetime.end.p0i8(i64 immarg, i8* nocapture) #2

; Function Attrs: nounwind ssp uwtable
define linkonce_odr hidden void @_ZN5blink10VTTElement11SetLanguageEN3WTF12AtomicStringE(%"class.blink::VTTElement"*, %"class.WTF::StringImpl"*) local_unnamed_addr #0 comdat align 2 {
  %3 = getelementptr inbounds %"class.blink::VTTElement", %"class.blink::VTTElement"* %0, i64 0, i32 3
  %4 = icmp eq %"class.WTF::StringImpl"* %1, null
  br i1 %4, label %22, label %5

5:                                                ; preds = %2
  %6 = getelementptr inbounds %"class.WTF::StringImpl", %"class.WTF::StringImpl"* %1, i64 0, i32 2, i32 0, i32 0, i32 0, i32 0, i32 0
  %7 = load atomic i32, i32* %6 monotonic, align 4
  %8 = and i32 %7, 2
  %9 = icmp eq i32 %8, 0
  br i1 %9, label %10, label %22

10:                                               ; preds = %5
  %11 = getelementptr inbounds %"class.WTF::StringImpl", %"class.WTF::StringImpl"* %1, i64 0, i32 0
  %12 = load i32, i32* %11, align 4
  %13 = zext i32 %12 to i33
  %14 = tail call { i33, i1 } @llvm.sadd.with.overflow.i33(i33 %13, i33 1) #8
  %15 = extractvalue { i33, i1 } %14, 1
  %16 = extractvalue { i33, i1 } %14, 0
  %17 = icmp slt i33 %16, 0
  %18 = or i1 %15, %17
  br i1 %18, label %19, label %20, !prof !3

19:                                               ; preds = %10
  tail call void @llvm.trap() #8
  unreachable

20:                                               ; preds = %10
  %21 = trunc i33 %16 to i32
  store i32 %21, i32* %11, align 4
  br label %22

22:                                               ; preds = %20, %5, %2
  %23 = ptrtoint %"class.WTF::StringImpl"* %1 to i64
  %24 = bitcast %"class.WTF::AtomicString"* %3 to i64*
  %25 = getelementptr inbounds %"class.WTF::AtomicString", %"class.WTF::AtomicString"* %3, i64 0, i32 0, i32 0, i32 0
  %26 = load %"class.WTF::StringImpl"*, %"class.WTF::StringImpl"** %25, align 8
  store i64 %23, i64* %24, align 8
  %27 = icmp eq %"class.WTF::StringImpl"* %26, null
  br i1 %27, label %41, label %28

28:                                               ; preds = %22
  %29 = getelementptr inbounds %"class.WTF::StringImpl", %"class.WTF::StringImpl"* %26, i64 0, i32 2, i32 0, i32 0, i32 0, i32 0, i32 0
  %30 = load atomic i32, i32* %29 monotonic, align 4
  %31 = and i32 %30, 2
  %32 = icmp eq i32 %31, 0
  %33 = getelementptr inbounds %"class.WTF::StringImpl", %"class.WTF::StringImpl"* %26, i64 0, i32 0
  %34 = load i32, i32* %33, align 4
  br i1 %32, label %35, label %37

35:                                               ; preds = %28
  %36 = add i32 %34, -1
  store i32 %36, i32* %33, align 4
  br label %37

37:                                               ; preds = %35, %28
  %38 = phi i32 [ %36, %35 ], [ %34, %28 ]
  %39 = icmp eq i32 %38, 0
  br i1 %39, label %40, label %41

40:                                               ; preds = %37
  tail call void @_ZNK3WTF10StringImpl18DestroyIfNotStaticEv(%"class.WTF::StringImpl"* nonnull %26) #8
  br label %41

41:                                               ; preds = %22, %37, %40
  br i1 %4, label %55, label %42

42:                                               ; preds = %41
  %43 = getelementptr inbounds %"class.WTF::StringImpl", %"class.WTF::StringImpl"* %1, i64 0, i32 2, i32 0, i32 0, i32 0, i32 0, i32 0
  %44 = load atomic i32, i32* %43 monotonic, align 4
  %45 = and i32 %44, 2
  %46 = icmp eq i32 %45, 0
  %47 = getelementptr inbounds %"class.WTF::StringImpl", %"class.WTF::StringImpl"* %1, i64 0, i32 0
  %48 = load i32, i32* %47, align 4
  br i1 %46, label %49, label %51

49:                                               ; preds = %42
  %50 = add i32 %48, -1
  store i32 %50, i32* %47, align 4
  br label %51

51:                                               ; preds = %49, %42
  %52 = phi i32 [ %50, %49 ], [ %48, %42 ]
  %53 = icmp eq i32 %52, 0
  br i1 %53, label %54, label %55

54:                                               ; preds = %51
  tail call void @_ZNK3WTF10StringImpl18DestroyIfNotStaticEv(%"class.WTF::StringImpl"* nonnull %1) #8
  br label %55

55:                                               ; preds = %41, %51, %54
  ret void
}

; Function Attrs: nounwind ssp uwtable
define hidden void @_ZN5blink10VTTElement8SetTrackEPNS_9TextTrackE(%"class.blink::VTTElement"* nocapture, %"class.blink::TextTrack"*) local_unnamed_addr #0 align 2 {
  %3 = getelementptr inbounds %"class.blink::VTTElement", %"class.blink::VTTElement"* %0, i64 0, i32 1
  %4 = ptrtoint %"class.blink::TextTrack"* %1 to i64
  %5 = bitcast %"class.blink::Member.19"* %3 to i64*
  store atomic i64 %4, i64* %5 monotonic, align 8
  %6 = load atomic i32, i32* getelementptr inbounds (%"class.blink::AtomicEntryFlag", %"class.blink::AtomicEntryFlag"* @_ZN5blink11ThreadState25incremental_marking_flag_E, i64 0, i32 0, i32 0, i32 0, i32 0, i32 0, i32 0) monotonic, align 4
  %7 = icmp eq i32 %6, 0
  br i1 %7, label %11, label %8

8:                                                ; preds = %2
  %9 = bitcast %"class.blink::TextTrack"* %1 to i8*
  %10 = tail call zeroext i1 @_ZN5blink14MarkingVisitor16WriteBarrierSlowEPv(i8* %9) #8
  br label %11

11:                                               ; preds = %2, %8
  ret void
}

; Function Attrs: nounwind ssp uwtable
define hidden %"class.blink::HTMLElement"* @_ZN5blink10VTTElement27CreateEquivalentHTMLElementERNS_8DocumentE(%"class.blink::VTTElement"*, %"class.blink::Document"* dereferenceable(2848)) local_unnamed_addr #0 align 2 {
  %3 = alloca %"class.blink::CreateElementFlags", align 8
  %4 = alloca %"class.blink::CreateElementFlags", align 8
  %5 = alloca %"class.blink::CreateElementFlags", align 8
  %6 = alloca %"class.blink::CreateElementFlags", align 8
  %7 = alloca %"class.blink::CreateElementFlags", align 8
  %8 = alloca %"class.blink::CreateElementFlags", align 8
  %9 = getelementptr inbounds %"class.blink::VTTElement", %"class.blink::VTTElement"* %0, i64 0, i32 2
  %10 = load i8, i8* %9, align 8
  %11 = lshr i8 %10, 1
  %12 = and i8 %11, 15
  %13 = zext i8 %12 to i32
  switch i32 %13, label %51 [
    i32 1, label %14
    i32 3, label %14
    i32 8, label %14
    i32 2, label %26
    i32 4, label %31
    i32 5, label %36
    i32 6, label %41
    i32 7, label %46
  ]

14:                                               ; preds = %2, %2, %2
  %15 = load %"class.blink::QualifiedName"*, %"class.blink::QualifiedName"** bitcast (%"class.blink::HTMLQualifiedName"** @_ZN5blink10html_names8kSpanTagE to %"class.blink::QualifiedName"**), align 8
  %16 = getelementptr inbounds %"class.blink::CreateElementFlags", %"class.blink::CreateElementFlags"* %3, i64 0, i32 0
  store i8 0, i8* %16, align 8
  %17 = getelementptr inbounds %"class.blink::CreateElementFlags", %"class.blink::CreateElementFlags"* %3, i64 0, i32 3
  store i8 2, i8* %17, align 8
  %18 = tail call %"class.blink::Element"* @_ZN5blink8Document16CreateRawElementERKNS_13QualifiedNameENS_18CreateElementFlagsE(%"class.blink::Document"* %1, %"class.blink::QualifiedName"* dereferenceable(8) %15, %"class.blink::CreateElementFlags"* nonnull byval(%"class.blink::CreateElementFlags") align 8 %3) #8
  %19 = load %"class.blink::QualifiedName"*, %"class.blink::QualifiedName"** @_ZN5blink10html_names10kTitleAttrE, align 8
  %20 = getelementptr inbounds %"class.blink::VTTElement", %"class.blink::VTTElement"* %0, i64 0, i32 0
  %21 = tail call dereferenceable(8) %"class.blink::QualifiedName"* @_ZN5blink10VTTElement18VoiceAttributeNameEv()
  %22 = tail call dereferenceable(8) %"class.WTF::AtomicString"* @_ZNK5blink7Element12getAttributeERKNS_13QualifiedNameE(%"class.blink::Element"* %20, %"class.blink::QualifiedName"* dereferenceable(8) %21) #8
  tail call void @_ZN5blink7Element12setAttributeERKNS_13QualifiedNameERKN3WTF12AtomicStringE(%"class.blink::Element"* %18, %"class.blink::QualifiedName"* dereferenceable(8) %19, %"class.WTF::AtomicString"* dereferenceable(8) %22) #8
  %23 = load %"class.blink::QualifiedName"*, %"class.blink::QualifiedName"** @_ZN5blink10html_names9kLangAttrE, align 8
  %24 = tail call dereferenceable(8) %"class.blink::QualifiedName"* @_ZN5blink10VTTElement17LangAttributeNameEv()
  %25 = tail call dereferenceable(8) %"class.WTF::AtomicString"* @_ZNK5blink7Element12getAttributeERKNS_13QualifiedNameE(%"class.blink::Element"* %20, %"class.blink::QualifiedName"* dereferenceable(8) %24) #8
  tail call void @_ZN5blink7Element12setAttributeERKNS_13QualifiedNameERKN3WTF12AtomicStringE(%"class.blink::Element"* %18, %"class.blink::QualifiedName"* dereferenceable(8) %23, %"class.WTF::AtomicString"* dereferenceable(8) %25) #8
  br label %51

26:                                               ; preds = %2
  %27 = load %"class.blink::QualifiedName"*, %"class.blink::QualifiedName"** bitcast (%"class.blink::HTMLQualifiedName"** @_ZN5blink10html_names5kITagE to %"class.blink::QualifiedName"**), align 8
  %28 = getelementptr inbounds %"class.blink::CreateElementFlags", %"class.blink::CreateElementFlags"* %4, i64 0, i32 0
  store i8 0, i8* %28, align 8
  %29 = getelementptr inbounds %"class.blink::CreateElementFlags", %"class.blink::CreateElementFlags"* %4, i64 0, i32 3
  store i8 2, i8* %29, align 8
  %30 = tail call %"class.blink::Element"* @_ZN5blink8Document16CreateRawElementERKNS_13QualifiedNameENS_18CreateElementFlagsE(%"class.blink::Document"* %1, %"class.blink::QualifiedName"* dereferenceable(8) %27, %"class.blink::CreateElementFlags"* nonnull byval(%"class.blink::CreateElementFlags") align 8 %4) #8
  br label %51

31:                                               ; preds = %2
  %32 = load %"class.blink::QualifiedName"*, %"class.blink::QualifiedName"** bitcast (%"class.blink::HTMLQualifiedName"** @_ZN5blink10html_names5kBTagE to %"class.blink::QualifiedName"**), align 8
  %33 = getelementptr inbounds %"class.blink::CreateElementFlags", %"class.blink::CreateElementFlags"* %5, i64 0, i32 0
  store i8 0, i8* %33, align 8
  %34 = getelementptr inbounds %"class.blink::CreateElementFlags", %"class.blink::CreateElementFlags"* %5, i64 0, i32 3
  store i8 2, i8* %34, align 8
  %35 = tail call %"class.blink::Element"* @_ZN5blink8Document16CreateRawElementERKNS_13QualifiedNameENS_18CreateElementFlagsE(%"class.blink::Document"* %1, %"class.blink::QualifiedName"* dereferenceable(8) %32, %"class.blink::CreateElementFlags"* nonnull byval(%"class.blink::CreateElementFlags") align 8 %5) #8
  br label %51

36:                                               ; preds = %2
  %37 = load %"class.blink::QualifiedName"*, %"class.blink::QualifiedName"** bitcast (%"class.blink::HTMLQualifiedName"** @_ZN5blink10html_names5kUTagE to %"class.blink::QualifiedName"**), align 8
  %38 = getelementptr inbounds %"class.blink::CreateElementFlags", %"class.blink::CreateElementFlags"* %6, i64 0, i32 0
  store i8 0, i8* %38, align 8
  %39 = getelementptr inbounds %"class.blink::CreateElementFlags", %"class.blink::CreateElementFlags"* %6, i64 0, i32 3
  store i8 2, i8* %39, align 8
  %40 = tail call %"class.blink::Element"* @_ZN5blink8Document16CreateRawElementERKNS_13QualifiedNameENS_18CreateElementFlagsE(%"class.blink::Document"* %1, %"class.blink::QualifiedName"* dereferenceable(8) %37, %"class.blink::CreateElementFlags"* nonnull byval(%"class.blink::CreateElementFlags") align 8 %6) #8
  br label %51

41:                                               ; preds = %2
  %42 = load %"class.blink::QualifiedName"*, %"class.blink::QualifiedName"** bitcast (%"class.blink::HTMLQualifiedName"** @_ZN5blink10html_names8kRubyTagE to %"class.blink::QualifiedName"**), align 8
  %43 = getelementptr inbounds %"class.blink::CreateElementFlags", %"class.blink::CreateElementFlags"* %7, i64 0, i32 0
  store i8 0, i8* %43, align 8
  %44 = getelementptr inbounds %"class.blink::CreateElementFlags", %"class.blink::CreateElementFlags"* %7, i64 0, i32 3
  store i8 2, i8* %44, align 8
  %45 = tail call %"class.blink::Element"* @_ZN5blink8Document16CreateRawElementERKNS_13QualifiedNameENS_18CreateElementFlagsE(%"class.blink::Document"* %1, %"class.blink::QualifiedName"* dereferenceable(8) %42, %"class.blink::CreateElementFlags"* nonnull byval(%"class.blink::CreateElementFlags") align 8 %7) #8
  br label %51

46:                                               ; preds = %2
  %47 = load %"class.blink::QualifiedName"*, %"class.blink::QualifiedName"** bitcast (%"class.blink::HTMLQualifiedName"** @_ZN5blink10html_names6kRtTagE to %"class.blink::QualifiedName"**), align 8
  %48 = getelementptr inbounds %"class.blink::CreateElementFlags", %"class.blink::CreateElementFlags"* %8, i64 0, i32 0
  store i8 0, i8* %48, align 8
  %49 = getelementptr inbounds %"class.blink::CreateElementFlags", %"class.blink::CreateElementFlags"* %8, i64 0, i32 3
  store i8 2, i8* %49, align 8
  %50 = tail call %"class.blink::Element"* @_ZN5blink8Document16CreateRawElementERKNS_13QualifiedNameENS_18CreateElementFlagsE(%"class.blink::Document"* %1, %"class.blink::QualifiedName"* dereferenceable(8) %47, %"class.blink::CreateElementFlags"* nonnull byval(%"class.blink::CreateElementFlags") align 8 %8) #8
  br label %51

51:                                               ; preds = %2, %46, %41, %36, %31, %26, %14
  %52 = phi %"class.blink::Element"* [ null, %2 ], [ %50, %46 ], [ %45, %41 ], [ %40, %36 ], [ %35, %31 ], [ %30, %26 ], [ %18, %14 ]
  %53 = load %"class.blink::QualifiedName"*, %"class.blink::QualifiedName"** @_ZN5blink10html_names10kClassAttrE, align 8
  %54 = getelementptr inbounds %"class.blink::VTTElement", %"class.blink::VTTElement"* %0, i64 0, i32 0
  %55 = tail call dereferenceable(8) %"class.WTF::AtomicString"* @_ZNK5blink7Element12getAttributeERKNS_13QualifiedNameE(%"class.blink::Element"* %54, %"class.blink::QualifiedName"* dereferenceable(8) %53) #8
  tail call void @_ZN5blink7Element12setAttributeERKNS_13QualifiedNameERKN3WTF12AtomicStringE(%"class.blink::Element"* %52, %"class.blink::QualifiedName"* dereferenceable(8) %53, %"class.WTF::AtomicString"* dereferenceable(8) %55) #8
  %56 = bitcast %"class.blink::Element"* %52 to %"class.blink::HTMLElement"*
  ret %"class.blink::HTMLElement"* %56
}

declare %"class.blink::Element"* @_ZN5blink8Document16CreateRawElementERKNS_13QualifiedNameENS_18CreateElementFlagsE(%"class.blink::Document"*, %"class.blink::QualifiedName"* dereferenceable(8), %"class.blink::CreateElementFlags"* byval(%"class.blink::CreateElementFlags") align 8) local_unnamed_addr #1

declare void @_ZN5blink7Element12setAttributeERKNS_13QualifiedNameERKN3WTF12AtomicStringE(%"class.blink::Element"*, %"class.blink::QualifiedName"* dereferenceable(8), %"class.WTF::AtomicString"* dereferenceable(8)) local_unnamed_addr #1

declare dereferenceable(8) %"class.WTF::AtomicString"* @_ZNK5blink7Element12getAttributeERKNS_13QualifiedNameE(%"class.blink::Element"*, %"class.blink::QualifiedName"* dereferenceable(8)) local_unnamed_addr #1

; Function Attrs: nounwind ssp uwtable
define linkonce_odr hidden dereferenceable(8) %"class.blink::QualifiedName"* @_ZN5blink10VTTElement18VoiceAttributeNameEv() local_unnamed_addr #0 comdat align 2 {
  %1 = alloca %"class.WTF::AtomicString", align 8
  %2 = load atomic i8, i8* bitcast (i64* @_ZGVZN5blink10VTTElement18VoiceAttributeNameEvE12s_voice_attr to i8*) acquire, align 8
  %3 = icmp eq i8 %2, 0
  br i1 %3, label %4, label %27, !prof !2

4:                                                ; preds = %0
  %5 = tail call i32 @__cxa_guard_acquire(i64* nonnull @_ZGVZN5blink10VTTElement18VoiceAttributeNameEvE12s_voice_attr) #8
  %6 = icmp eq i32 %5, 0
  br i1 %6, label %27, label %7

7:                                                ; preds = %4
  %8 = load %"class.WTF::AtomicString"*, %"class.WTF::AtomicString"** @_ZN3WTF11g_null_atomE, align 8
  %9 = bitcast %"class.WTF::AtomicString"* %1 to i8*
  call void @llvm.lifetime.start.p0i8(i64 8, i8* nonnull %9) #8
  call void @_ZN3WTF12AtomicStringC2EPKhm(%"class.WTF::AtomicString"* nonnull %1, i8* getelementptr inbounds ([6 x i8], [6 x i8]* @.str.8, i64 0, i64 0), i64 5) #8
  call void @_ZN5blink13QualifiedNameC1ERKN3WTF12AtomicStringES4_S4_(%"class.blink::QualifiedName"* bitcast (%"class.WTF::StaticSingleton"* @_ZZN5blink10VTTElement18VoiceAttributeNameEvE12s_voice_attr to %"class.blink::QualifiedName"*), %"class.WTF::AtomicString"* dereferenceable(8) %8, %"class.WTF::AtomicString"* nonnull dereferenceable(8) %1, %"class.WTF::AtomicString"* dereferenceable(8) %8) #8
  %10 = getelementptr inbounds %"class.WTF::AtomicString", %"class.WTF::AtomicString"* %1, i64 0, i32 0, i32 0, i32 0
  %11 = load %"class.WTF::StringImpl"*, %"class.WTF::StringImpl"** %10, align 8
  %12 = icmp eq %"class.WTF::StringImpl"* %11, null
  br i1 %12, label %26, label %13

13:                                               ; preds = %7
  %14 = getelementptr inbounds %"class.WTF::StringImpl", %"class.WTF::StringImpl"* %11, i64 0, i32 2, i32 0, i32 0, i32 0, i32 0, i32 0
  %15 = load atomic i32, i32* %14 monotonic, align 4
  %16 = and i32 %15, 2
  %17 = icmp eq i32 %16, 0
  %18 = getelementptr inbounds %"class.WTF::StringImpl", %"class.WTF::StringImpl"* %11, i64 0, i32 0
  %19 = load i32, i32* %18, align 4
  br i1 %17, label %20, label %22

20:                                               ; preds = %13
  %21 = add i32 %19, -1
  store i32 %21, i32* %18, align 4
  br label %22

22:                                               ; preds = %20, %13
  %23 = phi i32 [ %21, %20 ], [ %19, %13 ]
  %24 = icmp eq i32 %23, 0
  br i1 %24, label %25, label %26

25:                                               ; preds = %22
  call void @_ZNK3WTF10StringImpl18DestroyIfNotStaticEv(%"class.WTF::StringImpl"* nonnull %11) #8
  br label %26

26:                                               ; preds = %7, %22, %25
  call void @llvm.lifetime.end.p0i8(i64 8, i8* nonnull %9) #8
  call void @__cxa_guard_release(i64* nonnull @_ZGVZN5blink10VTTElement18VoiceAttributeNameEvE12s_voice_attr) #8
  br label %27

27:                                               ; preds = %4, %26, %0
  ret %"class.blink::QualifiedName"* bitcast (%"class.WTF::StaticSingleton"* @_ZZN5blink10VTTElement18VoiceAttributeNameEvE12s_voice_attr to %"class.blink::QualifiedName"*)
}

; Function Attrs: nounwind ssp uwtable
define linkonce_odr hidden dereferenceable(8) %"class.blink::QualifiedName"* @_ZN5blink10VTTElement17LangAttributeNameEv() local_unnamed_addr #0 comdat align 2 {
  %1 = alloca %"class.WTF::AtomicString", align 8
  %2 = load atomic i8, i8* bitcast (i64* @_ZGVZN5blink10VTTElement17LangAttributeNameEvE12s_voice_attr to i8*) acquire, align 8
  %3 = icmp eq i8 %2, 0
  br i1 %3, label %4, label %27, !prof !2

4:                                                ; preds = %0
  %5 = tail call i32 @__cxa_guard_acquire(i64* nonnull @_ZGVZN5blink10VTTElement17LangAttributeNameEvE12s_voice_attr) #8
  %6 = icmp eq i32 %5, 0
  br i1 %6, label %27, label %7

7:                                                ; preds = %4
  %8 = load %"class.WTF::AtomicString"*, %"class.WTF::AtomicString"** @_ZN3WTF11g_null_atomE, align 8
  %9 = bitcast %"class.WTF::AtomicString"* %1 to i8*
  call void @llvm.lifetime.start.p0i8(i64 8, i8* nonnull %9) #8
  call void @_ZN3WTF12AtomicStringC2EPKhm(%"class.WTF::AtomicString"* nonnull %1, i8* getelementptr inbounds ([5 x i8], [5 x i8]* @.str.2, i64 0, i64 0), i64 4) #8
  call void @_ZN5blink13QualifiedNameC1ERKN3WTF12AtomicStringES4_S4_(%"class.blink::QualifiedName"* bitcast (%"class.WTF::StaticSingleton"* @_ZZN5blink10VTTElement17LangAttributeNameEvE12s_voice_attr to %"class.blink::QualifiedName"*), %"class.WTF::AtomicString"* dereferenceable(8) %8, %"class.WTF::AtomicString"* nonnull dereferenceable(8) %1, %"class.WTF::AtomicString"* dereferenceable(8) %8) #8
  %10 = getelementptr inbounds %"class.WTF::AtomicString", %"class.WTF::AtomicString"* %1, i64 0, i32 0, i32 0, i32 0
  %11 = load %"class.WTF::StringImpl"*, %"class.WTF::StringImpl"** %10, align 8
  %12 = icmp eq %"class.WTF::StringImpl"* %11, null
  br i1 %12, label %26, label %13

13:                                               ; preds = %7
  %14 = getelementptr inbounds %"class.WTF::StringImpl", %"class.WTF::StringImpl"* %11, i64 0, i32 2, i32 0, i32 0, i32 0, i32 0, i32 0
  %15 = load atomic i32, i32* %14 monotonic, align 4
  %16 = and i32 %15, 2
  %17 = icmp eq i32 %16, 0
  %18 = getelementptr inbounds %"class.WTF::StringImpl", %"class.WTF::StringImpl"* %11, i64 0, i32 0
  %19 = load i32, i32* %18, align 4
  br i1 %17, label %20, label %22

20:                                               ; preds = %13
  %21 = add i32 %19, -1
  store i32 %21, i32* %18, align 4
  br label %22

22:                                               ; preds = %20, %13
  %23 = phi i32 [ %21, %20 ], [ %19, %13 ]
  %24 = icmp eq i32 %23, 0
  br i1 %24, label %25, label %26

25:                                               ; preds = %22
  call void @_ZNK3WTF10StringImpl18DestroyIfNotStaticEv(%"class.WTF::StringImpl"* nonnull %11) #8
  br label %26

26:                                               ; preds = %7, %22, %25
  call void @llvm.lifetime.end.p0i8(i64 8, i8* nonnull %9) #8
  call void @__cxa_guard_release(i64* nonnull @_ZGVZN5blink10VTTElement17LangAttributeNameEvE12s_voice_attr) #8
  br label %27

27:                                               ; preds = %4, %26, %0
  ret %"class.blink::QualifiedName"* bitcast (%"class.WTF::StaticSingleton"* @_ZZN5blink10VTTElement17LangAttributeNameEvE12s_voice_attr to %"class.blink::QualifiedName"*)
}

; Function Attrs: nounwind ssp uwtable
define hidden void @_ZN5blink10VTTElement13SetIsPastNodeEb(%"class.blink::VTTElement"*, i1 zeroext) local_unnamed_addr #0 align 2 {
  %3 = alloca %"class.blink::StyleChangeReasonForTracing", align 8
  %4 = getelementptr inbounds %"class.blink::VTTElement", %"class.blink::VTTElement"* %0, i64 0, i32 2
  %5 = load i8, i8* %4, align 8
  %6 = and i8 %5, 1
  %7 = zext i8 %6 to i32
  %8 = zext i1 %1 to i32
  %9 = icmp eq i32 %7, %8
  br i1 %9, label %56, label %10

10:                                               ; preds = %2
  %11 = zext i1 %1 to i8
  %12 = and i8 %5, -2
  %13 = or i8 %12, %11
  store i8 %13, i8* %4, align 8
  %14 = getelementptr inbounds %"class.blink::VTTElement", %"class.blink::VTTElement"* %0, i64 0, i32 0, i32 0, i32 0
  %15 = bitcast %"class.blink::StyleChangeReasonForTracing"* %3 to i8*
  call void @llvm.lifetime.start.p0i8(i64 16, i8* nonnull %15) #8
  %16 = load %"class.WTF::AtomicString"*, %"class.WTF::AtomicString"** @_ZN5blink23style_change_extra_data6g_pastE, align 8
  %17 = getelementptr inbounds %"class.WTF::AtomicString", %"class.WTF::AtomicString"* %16, i64 0, i32 0, i32 0, i32 0
  %18 = load %"class.WTF::StringImpl"*, %"class.WTF::StringImpl"** %17, align 8
  %19 = icmp eq %"class.WTF::StringImpl"* %18, null
  br i1 %19, label %37, label %20

20:                                               ; preds = %10
  %21 = getelementptr inbounds %"class.WTF::StringImpl", %"class.WTF::StringImpl"* %18, i64 0, i32 2, i32 0, i32 0, i32 0, i32 0, i32 0
  %22 = load atomic i32, i32* %21 monotonic, align 4
  %23 = and i32 %22, 2
  %24 = icmp eq i32 %23, 0
  br i1 %24, label %25, label %37

25:                                               ; preds = %20
  %26 = getelementptr inbounds %"class.WTF::StringImpl", %"class.WTF::StringImpl"* %18, i64 0, i32 0
  %27 = load i32, i32* %26, align 4
  %28 = zext i32 %27 to i33
  %29 = tail call { i33, i1 } @llvm.sadd.with.overflow.i33(i33 %28, i33 1) #8
  %30 = extractvalue { i33, i1 } %29, 1
  %31 = extractvalue { i33, i1 } %29, 0
  %32 = icmp slt i33 %31, 0
  %33 = or i1 %30, %32
  br i1 %33, label %34, label %35, !prof !3

34:                                               ; preds = %25
  tail call void @llvm.trap() #8
  unreachable

35:                                               ; preds = %25
  %36 = trunc i33 %31 to i32
  store i32 %36, i32* %26, align 4
  br label %37

37:                                               ; preds = %10, %20, %35
  %38 = getelementptr inbounds %"class.blink::StyleChangeReasonForTracing", %"class.blink::StyleChangeReasonForTracing"* %3, i64 0, i32 0
  store i8* getelementptr inbounds ([0 x i8], [0 x i8]* @_ZN5blink19style_change_reason12kPseudoClassE, i64 0, i64 0), i8** %38, align 8
  %39 = getelementptr inbounds %"class.blink::StyleChangeReasonForTracing", %"class.blink::StyleChangeReasonForTracing"* %3, i64 0, i32 1, i32 0, i32 0, i32 0
  store %"class.WTF::StringImpl"* %18, %"class.WTF::StringImpl"** %39, align 8
  call void @_ZN5blink4Node19SetNeedsStyleRecalcENS_15StyleChangeTypeERKNS_27StyleChangeReasonForTracingE(%"class.blink::Node"* %14, i32 32768, %"class.blink::StyleChangeReasonForTracing"* nonnull dereferenceable(16) %3) #8
  %40 = load %"class.WTF::StringImpl"*, %"class.WTF::StringImpl"** %39, align 8
  %41 = icmp eq %"class.WTF::StringImpl"* %40, null
  br i1 %41, label %55, label %42

42:                                               ; preds = %37
  %43 = getelementptr inbounds %"class.WTF::StringImpl", %"class.WTF::StringImpl"* %40, i64 0, i32 2, i32 0, i32 0, i32 0, i32 0, i32 0
  %44 = load atomic i32, i32* %43 monotonic, align 4
  %45 = and i32 %44, 2
  %46 = icmp eq i32 %45, 0
  %47 = getelementptr inbounds %"class.WTF::StringImpl", %"class.WTF::StringImpl"* %40, i64 0, i32 0
  %48 = load i32, i32* %47, align 4
  br i1 %46, label %49, label %51

49:                                               ; preds = %42
  %50 = add i32 %48, -1
  store i32 %50, i32* %47, align 4
  br label %51

51:                                               ; preds = %49, %42
  %52 = phi i32 [ %50, %49 ], [ %48, %42 ]
  %53 = icmp eq i32 %52, 0
  br i1 %53, label %54, label %55

54:                                               ; preds = %51
  call void @_ZNK3WTF10StringImpl18DestroyIfNotStaticEv(%"class.WTF::StringImpl"* nonnull %40) #8
  br label %55

55:                                               ; preds = %37, %51, %54
  call void @llvm.lifetime.end.p0i8(i64 16, i8* nonnull %15) #8
  br label %56

56:                                               ; preds = %2, %55
  ret void
}

declare void @_ZN5blink4Node19SetNeedsStyleRecalcENS_15StyleChangeTypeERKNS_27StyleChangeReasonForTracingE(%"class.blink::Node"*, i32, %"class.blink::StyleChangeReasonForTracing"* dereferenceable(16)) local_unnamed_addr #1

; Function Attrs: nounwind ssp uwtable
define hidden void @_ZNK5blink10VTTElement5TraceEPNS_7VisitorE(%"class.blink::VTTElement"*, %"class.blink::Visitor"*) unnamed_addr #0 align 2 {
  %3 = getelementptr inbounds %"class.blink::VTTElement", %"class.blink::VTTElement"* %0, i64 0, i32 1
  %4 = bitcast %"class.blink::Member.19"* %3 to i64*
  %5 = load atomic i64, i64* %4 monotonic, align 8
  %6 = icmp eq i64 %5, 0
  br i1 %6, label %13, label %7

7:                                                ; preds = %2
  %8 = inttoptr i64 %5 to i8*
  %9 = bitcast %"class.blink::Visitor"* %1 to void (%"class.blink::Visitor"*, i8*, i8*, void (%"class.blink::Visitor"*, i8*)*)***
  %10 = load void (%"class.blink::Visitor"*, i8*, i8*, void (%"class.blink::Visitor"*, i8*)*)**, void (%"class.blink::Visitor"*, i8*, i8*, void (%"class.blink::Visitor"*, i8*)*)*** %9, align 8
  %11 = getelementptr inbounds void (%"class.blink::Visitor"*, i8*, i8*, void (%"class.blink::Visitor"*, i8*)*)*, void (%"class.blink::Visitor"*, i8*, i8*, void (%"class.blink::Visitor"*, i8*)*)** %10, i64 5
  %12 = load void (%"class.blink::Visitor"*, i8*, i8*, void (%"class.blink::Visitor"*, i8*)*)*, void (%"class.blink::Visitor"*, i8*, i8*, void (%"class.blink::Visitor"*, i8*)*)** %11, align 8
  tail call void %12(%"class.blink::Visitor"* %1, i8* nonnull %8, i8* nonnull %8, void (%"class.blink::Visitor"*, i8*)* nonnull @_ZN5blink10TraceTraitINS_9TextTrackEE5TraceEPNS_7VisitorEPKv) #8
  br label %13

13:                                               ; preds = %2, %7
  %14 = getelementptr inbounds %"class.blink::VTTElement", %"class.blink::VTTElement"* %0, i64 0, i32 0
  tail call void @_ZNK5blink7Element5TraceEPNS_7VisitorE(%"class.blink::Element"* %14, %"class.blink::Visitor"* %1) #8
  ret void
}

declare void @_ZNK5blink7Element5TraceEPNS_7VisitorE(%"class.blink::Element"*, %"class.blink::Visitor"*) unnamed_addr #1

declare i8* @_ZNK5blink15ScriptWrappable18NameInHeapSnapshotEv(%"class.blink::ScriptWrappable"*) unnamed_addr #1

; Function Attrs: inlinehint nounwind ssp uwtable
define linkonce_odr hidden void @_ZN5blink10VTTElementD2Ev(%"class.blink::VTTElement"*) unnamed_addr #3 comdat align 2 {
  %2 = getelementptr inbounds %"class.blink::VTTElement", %"class.blink::VTTElement"* %0, i64 0, i32 0, i32 0, i32 0, i32 0, i32 0, i32 0, i32 0
  store i32 (...)** bitcast (i8** getelementptr inbounds ({ [157 x i8*], [3 x i8*] }, { [157 x i8*], [3 x i8*] }* @_ZTVN5blink10VTTElementE, i64 0, inrange i32 0, i64 2) to i32 (...)**), i32 (...)*** %2, align 8
  %3 = getelementptr inbounds %"class.blink::VTTElement", %"class.blink::VTTElement"* %0, i64 0, i32 0, i32 1, i32 0
  store i32 (...)** bitcast (i8** getelementptr inbounds ({ [157 x i8*], [3 x i8*] }, { [157 x i8*], [3 x i8*] }* @_ZTVN5blink10VTTElementE, i64 0, inrange i32 1, i64 2) to i32 (...)**), i32 (...)*** %3, align 8
  %4 = getelementptr inbounds %"class.blink::VTTElement", %"class.blink::VTTElement"* %0, i64 0, i32 3, i32 0, i32 0, i32 0
  %5 = load %"class.WTF::StringImpl"*, %"class.WTF::StringImpl"** %4, align 8
  %6 = icmp eq %"class.WTF::StringImpl"* %5, null
  br i1 %6, label %20, label %7

7:                                                ; preds = %1
  %8 = getelementptr inbounds %"class.WTF::StringImpl", %"class.WTF::StringImpl"* %5, i64 0, i32 2, i32 0, i32 0, i32 0, i32 0, i32 0
  %9 = load atomic i32, i32* %8 monotonic, align 4
  %10 = and i32 %9, 2
  %11 = icmp eq i32 %10, 0
  %12 = getelementptr inbounds %"class.WTF::StringImpl", %"class.WTF::StringImpl"* %5, i64 0, i32 0
  %13 = load i32, i32* %12, align 4
  br i1 %11, label %14, label %16

14:                                               ; preds = %7
  %15 = add i32 %13, -1
  store i32 %15, i32* %12, align 4
  br label %16

16:                                               ; preds = %14, %7
  %17 = phi i32 [ %15, %14 ], [ %13, %7 ]
  %18 = icmp eq i32 %17, 0
  br i1 %18, label %19, label %20

19:                                               ; preds = %16
  tail call void @_ZNK3WTF10StringImpl18DestroyIfNotStaticEv(%"class.WTF::StringImpl"* nonnull %5) #8
  br label %20

20:                                               ; preds = %1, %16, %19
  store i32 (...)** bitcast (i8** getelementptr inbounds ({ [157 x i8*], [3 x i8*] }, { [157 x i8*], [3 x i8*] }* @_ZTVN5blink7ElementE, i64 0, inrange i32 0, i64 2) to i32 (...)**), i32 (...)*** %2, align 8
  store i32 (...)** bitcast (i8** getelementptr inbounds ({ [157 x i8*], [3 x i8*] }, { [157 x i8*], [3 x i8*] }* @_ZTVN5blink7ElementE, i64 0, inrange i32 1, i64 2) to i32 (...)**), i32 (...)*** %3, align 8
  %21 = getelementptr inbounds %"class.blink::VTTElement", %"class.blink::VTTElement"* %0, i64 0, i32 0, i32 2
  tail call void @_ZN5blink13QualifiedNameD1Ev(%"class.blink::QualifiedName"* %21) #8
  %22 = getelementptr inbounds %"class.blink::VTTElement", %"class.blink::VTTElement"* %0, i64 0, i32 0, i32 0
  tail call void @_ZN5blink13ContainerNodeD2Ev(%"class.blink::ContainerNode"* %22) #8
  ret void
}

; Function Attrs: inlinehint nounwind ssp uwtable
define linkonce_odr hidden void @_ZN5blink10VTTElementD0Ev(%"class.blink::VTTElement"*) unnamed_addr #3 comdat align 2 {
  %2 = getelementptr inbounds %"class.blink::VTTElement", %"class.blink::VTTElement"* %0, i64 0, i32 0, i32 0, i32 0, i32 0, i32 0, i32 0, i32 0
  store i32 (...)** bitcast (i8** getelementptr inbounds ({ [157 x i8*], [3 x i8*] }, { [157 x i8*], [3 x i8*] }* @_ZTVN5blink10VTTElementE, i64 0, inrange i32 0, i64 2) to i32 (...)**), i32 (...)*** %2, align 8
  %3 = getelementptr inbounds %"class.blink::VTTElement", %"class.blink::VTTElement"* %0, i64 0, i32 0, i32 1, i32 0
  store i32 (...)** bitcast (i8** getelementptr inbounds ({ [157 x i8*], [3 x i8*] }, { [157 x i8*], [3 x i8*] }* @_ZTVN5blink10VTTElementE, i64 0, inrange i32 1, i64 2) to i32 (...)**), i32 (...)*** %3, align 8
  %4 = getelementptr inbounds %"class.blink::VTTElement", %"class.blink::VTTElement"* %0, i64 0, i32 3, i32 0, i32 0, i32 0
  %5 = load %"class.WTF::StringImpl"*, %"class.WTF::StringImpl"** %4, align 8
  %6 = icmp eq %"class.WTF::StringImpl"* %5, null
  br i1 %6, label %20, label %7

7:                                                ; preds = %1
  %8 = getelementptr inbounds %"class.WTF::StringImpl", %"class.WTF::StringImpl"* %5, i64 0, i32 2, i32 0, i32 0, i32 0, i32 0, i32 0
  %9 = load atomic i32, i32* %8 monotonic, align 4
  %10 = and i32 %9, 2
  %11 = icmp eq i32 %10, 0
  %12 = getelementptr inbounds %"class.WTF::StringImpl", %"class.WTF::StringImpl"* %5, i64 0, i32 0
  %13 = load i32, i32* %12, align 4
  br i1 %11, label %14, label %16

14:                                               ; preds = %7
  %15 = add i32 %13, -1
  store i32 %15, i32* %12, align 4
  br label %16

16:                                               ; preds = %14, %7
  %17 = phi i32 [ %15, %14 ], [ %13, %7 ]
  %18 = icmp eq i32 %17, 0
  br i1 %18, label %19, label %20

19:                                               ; preds = %16
  tail call void @_ZNK3WTF10StringImpl18DestroyIfNotStaticEv(%"class.WTF::StringImpl"* nonnull %5) #8
  br label %20

20:                                               ; preds = %1, %16, %19
  store i32 (...)** bitcast (i8** getelementptr inbounds ({ [157 x i8*], [3 x i8*] }, { [157 x i8*], [3 x i8*] }* @_ZTVN5blink7ElementE, i64 0, inrange i32 0, i64 2) to i32 (...)**), i32 (...)*** %2, align 8
  store i32 (...)** bitcast (i8** getelementptr inbounds ({ [157 x i8*], [3 x i8*] }, { [157 x i8*], [3 x i8*] }* @_ZTVN5blink7ElementE, i64 0, inrange i32 1, i64 2) to i32 (...)**), i32 (...)*** %3, align 8
  %21 = getelementptr inbounds %"class.blink::VTTElement", %"class.blink::VTTElement"* %0, i64 0, i32 0, i32 2
  tail call void @_ZN5blink13QualifiedNameD1Ev(%"class.blink::QualifiedName"* %21) #8
  %22 = getelementptr inbounds %"class.blink::VTTElement", %"class.blink::VTTElement"* %0, i64 0, i32 0, i32 0
  tail call void @_ZN5blink13ContainerNodeD2Ev(%"class.blink::ContainerNode"* %22) #8
  ret void
}

; Function Attrs: nounwind ssp uwtable
define linkonce_odr hidden zeroext i1 @_ZNK5blink15ScriptWrappable18HasPendingActivityEv(%"class.blink::ScriptWrappable"*) unnamed_addr #0 comdat align 2 {
  ret i1 false
}

; Function Attrs: inlinehint nounwind ssp uwtable
define linkonce_odr hidden zeroext i1 @_ZNK5blink11EventTarget17HasEventListenersEv(%"class.blink::EventTarget"*) unnamed_addr #3 comdat align 2 {
  %2 = bitcast %"class.blink::EventTarget"* %0 to %"class.blink::EventTargetData"* (%"class.blink::EventTarget"*)***
  %3 = load %"class.blink::EventTargetData"* (%"class.blink::EventTarget"*)**, %"class.blink::EventTargetData"* (%"class.blink::EventTarget"*)*** %2, align 8
  %4 = getelementptr inbounds %"class.blink::EventTargetData"* (%"class.blink::EventTarget"*)*, %"class.blink::EventTargetData"* (%"class.blink::EventTarget"*)** %3, i64 25
  %5 = load %"class.blink::EventTargetData"* (%"class.blink::EventTarget"*)*, %"class.blink::EventTargetData"* (%"class.blink::EventTarget"*)** %4, align 8
  %6 = tail call %"class.blink::EventTargetData"* %5(%"class.blink::EventTarget"* %0) #8
  %7 = icmp eq %"class.blink::EventTargetData"* %6, null
  br i1 %7, label %12, label %8

8:                                                ; preds = %1
  %9 = getelementptr inbounds %"class.blink::EventTargetData", %"class.blink::EventTargetData"* %6, i64 0, i32 0, i32 0, i32 0, i32 0, i32 0, i32 2
  %10 = load i32, i32* %9, align 4
  %11 = icmp ne i32 %10, 0
  br label %12

12:                                               ; preds = %1, %8
  %13 = phi i1 [ %11, %8 ], [ false, %1 ]
  ret i1 %13
}

; Function Attrs: nounwind ssp uwtable
define linkonce_odr hidden %"struct.blink::WrapperTypeInfo"* @_ZNK5blink7Element18GetWrapperTypeInfoEv(%"class.blink::Element"*) unnamed_addr #0 comdat align 2 {
  %2 = load %"struct.blink::WrapperTypeInfo"*, %"struct.blink::WrapperTypeInfo"** @_ZN5blink7Element18wrapper_type_info_E, align 8
  ret %"struct.blink::WrapperTypeInfo"* %2
}

declare %"class.v8::Value"* @_ZN5blink15ScriptWrappable4WrapEPNS_11ScriptStateE(%"class.blink::ScriptWrappable"*, %"class.blink::ScriptState"*) unnamed_addr #1

declare %"class.v8::Object"* @_ZN5blink15ScriptWrappable20AssociateWithWrapperEPN2v87IsolateEPKNS_15WrapperTypeInfoENS1_5LocalINS1_6ObjectEEE(%"class.blink::ScriptWrappable"*, %"class.v8::Isolate"*, %"struct.blink::WrapperTypeInfo"*, %"class.v8::Object"*) unnamed_addr #1

declare dereferenceable(8) %"class.WTF::AtomicString"* @_ZNK5blink4Node13InterfaceNameEv(%"class.blink::Node"*) unnamed_addr #1

declare %"class.blink::ExecutionContext"* @_ZNK5blink4Node19GetExecutionContextEv(%"class.blink::Node"*) unnamed_addr #1

declare %"class.blink::Node"* @_ZN5blink4Node6ToNodeEv(%"class.blink::Node"*) unnamed_addr #1

declare %"class.blink::DOMWindow"* @_ZNK5blink11EventTarget11ToDOMWindowEv(%"class.blink::EventTarget"*) unnamed_addr #1

declare %"class.blink::LocalDOMWindow"* @_ZNK5blink11EventTarget16ToLocalDOMWindowEv(%"class.blink::EventTarget"*) unnamed_addr #1

declare %"class.blink::LocalDOMWindow"* @_ZN5blink11EventTarget16ToLocalDOMWindowEv(%"class.blink::EventTarget"*) unnamed_addr #1

declare %"class.blink::MessagePort"* @_ZN5blink11EventTarget13ToMessagePortEv(%"class.blink::EventTarget"*) unnamed_addr #1

declare %"class.blink::ServiceWorker"* @_ZN5blink11EventTarget15ToServiceWorkerEv(%"class.blink::EventTarget"*) unnamed_addr #1

declare %"class.blink::PortalHost"* @_ZN5blink11EventTarget12ToPortalHostEv(%"class.blink::EventTarget"*) unnamed_addr #1

declare void @_ZN5blink4Node23RemoveAllEventListenersEv(%"class.blink::Node"*) unnamed_addr #1

; Function Attrs: nounwind ssp uwtable
define linkonce_odr hidden zeroext i1 @_ZNK5blink11EventTarget15KeepEventInNodeERKNS_5EventE(%"class.blink::EventTarget"*, %"class.blink::Event"*) unnamed_addr #0 comdat align 2 {
  ret i1 false
}

; Function Attrs: nounwind ssp uwtable
define linkonce_odr hidden zeroext i1 @_ZNK5blink11EventTarget27IsWindowOrWorkerGlobalScopeEv(%"class.blink::EventTarget"*) unnamed_addr #0 comdat align 2 {
  ret i1 false
}

declare zeroext i1 @_ZN5blink11EventTarget24AddEventListenerInternalERKN3WTF12AtomicStringEPNS_13EventListenerEPKNS_31AddEventListenerOptionsResolvedE(%"class.blink::EventTarget"*, %"class.WTF::AtomicString"* dereferenceable(8), %"class.blink::EventListener"*, %"class.blink::AddEventListenerOptionsResolved"*) unnamed_addr #1

declare void @_ZN5blink4Node18AddedEventListenerERKN3WTF12AtomicStringERNS_23RegisteredEventListenerE(%"class.blink::Node"*, %"class.WTF::AtomicString"* dereferenceable(8), %"class.blink::RegisteredEventListener"* dereferenceable(16)) unnamed_addr #1

declare void @_ZN5blink4Node20RemovedEventListenerERKN3WTF12AtomicStringERKNS_23RegisteredEventListenerE(%"class.blink::Node"*, %"class.WTF::AtomicString"* dereferenceable(8), %"class.blink::RegisteredEventListener"* dereferenceable(16)) unnamed_addr #1

declare i32 @_ZN5blink4Node21DispatchEventInternalERNS_5EventE(%"class.blink::Node"*, %"class.blink::Event"*) unnamed_addr #1

declare %"class.blink::EventTargetData"* @_ZN5blink4Node18GetEventTargetDataEv(%"class.blink::Node"*) unnamed_addr #1

declare dereferenceable(56) %"class.blink::EventTargetData"* @_ZN5blink4Node21EnsureEventTargetDataEv(%"class.blink::Node"*) unnamed_addr #1

declare %"class.WTF::StringImpl"* @_ZNK5blink7Element8nodeNameEv(%"class.blink::Element"*) unnamed_addr #1

declare %"class.WTF::StringImpl"* @_ZNK5blink4Node9nodeValueEv(%"class.blink::Node"*) unnamed_addr #1

declare void @_ZN5blink4Node12setNodeValueERKN3WTF6StringE(%"class.blink::Node"*, %"class.WTF::String"* dereferenceable(8)) unnamed_addr #1

declare i32 @_ZNK5blink7Element11getNodeTypeEv(%"class.blink::Element"*) unnamed_addr #1

declare %"class.blink::Node"* @_ZNK5blink7Element5CloneERNS_8DocumentENS_17CloneChildrenFlagE(%"class.blink::Element"*, %"class.blink::Document"* dereferenceable(2848), i32) unnamed_addr #1

declare void @_ZN5blink4Node14setTextContentERKN3WTF6StringE(%"class.blink::Node"*, %"class.WTF::String"* dereferenceable(8)) unnamed_addr #1

declare void @_ZN5blink4Node24setTextContentForBindingEPKNS_28V8UnionStringOrTrustedScriptERNS_14ExceptionStateE(%"class.blink::Node"*, %"class.blink::V8UnionStringOrTrustedScript"*, %"class.blink::ExceptionState"* dereferenceable(72)) unnamed_addr #1

; Function Attrs: nounwind ssp uwtable
define linkonce_odr hidden zeroext i8 @_ZNK5blink4Node11GetPseudoIdEv(%"class.blink::Node"*) unnamed_addr #0 comdat align 2 {
  ret i8 0
}

; Function Attrs: nounwind ssp uwtable
define linkonce_odr hidden zeroext i1 @_ZNK5blink4Node21IsMediaControlElementEv(%"class.blink::Node"*) unnamed_addr #0 comdat align 2 {
  ret i1 false
}

; Function Attrs: nounwind ssp uwtable
define linkonce_odr hidden zeroext i1 @_ZNK5blink4Node15IsMediaControlsEv(%"class.blink::Node"*) unnamed_addr #0 comdat align 2 {
  ret i1 false
}

; Function Attrs: nounwind ssp uwtable
define linkonce_odr hidden zeroext i1 @_ZNK5blink4Node14IsMediaElementEv(%"class.blink::Node"*) unnamed_addr #0 comdat align 2 {
  ret i1 false
}

; Function Attrs: nounwind ssp uwtable
define linkonce_odr hidden zeroext i1 @_ZNK5blink4Node20IsTextTrackContainerEv(%"class.blink::Node"*) unnamed_addr #0 comdat align 2 {
  ret i1 false
}

; Function Attrs: nounwind ssp uwtable
define linkonce_odr hidden zeroext i1 @_ZNK5blink10VTTElement12IsVTTElementEv(%"class.blink::VTTElement"*) unnamed_addr #0 comdat align 2 {
  ret i1 true
}

; Function Attrs: nounwind ssp uwtable
define linkonce_odr hidden zeroext i1 @_ZNK5blink4Node15IsAttributeNodeEv(%"class.blink::Node"*) unnamed_addr #0 comdat align 2 {
  ret i1 false
}

; Function Attrs: nounwind ssp uwtable
define linkonce_odr hidden zeroext i1 @_ZNK5blink4Node19IsCharacterDataNodeEv(%"class.blink::Node"*) unnamed_addr #0 comdat align 2 {
  ret i1 false
}

; Function Attrs: nounwind ssp uwtable
define linkonce_odr hidden zeroext i1 @_ZNK5blink4Node19IsFrameOwnerElementEv(%"class.blink::Node"*) unnamed_addr #0 comdat align 2 {
  ret i1 false
}

; Function Attrs: nounwind ssp uwtable
define linkonce_odr hidden zeroext i1 @_ZNK5blink4Node27IsMediaRemotingInterstitialEv(%"class.blink::Node"*) unnamed_addr #0 comdat align 2 {
  ret i1 false
}

; Function Attrs: nounwind ssp uwtable
define linkonce_odr hidden zeroext i1 @_ZNK5blink4Node30IsPictureInPictureInterstitialEv(%"class.blink::Node"*) unnamed_addr #0 comdat align 2 {
  ret i1 false
}

; Function Attrs: nounwind ssp uwtable
define linkonce_odr hidden zeroext i1 @_ZNK5blink7Element23CanContainRangeEndPointEv(%"class.blink::Element"*) unnamed_addr #0 comdat align 2 {
  ret i1 true
}

; Function Attrs: nounwind ssp uwtable
define linkonce_odr hidden zeroext i1 @_ZN5blink4Node11SheetLoadedEv(%"class.blink::Node"*) unnamed_addr #0 comdat align 2 {
  ret i1 true
}

; Function Attrs: nounwind ssp uwtable
define linkonce_odr hidden void @_ZN5blink4Node43NotifyLoadedSheetAndAllCriticalSubresourcesENS0_22LoadedSheetErrorStatusE(%"class.blink::Node"*, i32) unnamed_addr #0 comdat align 2 {
  ret void
}

; Function Attrs: nounwind ssp uwtable
define linkonce_odr hidden void @_ZN5blink4Node24StartLoadingDynamicSheetEv(%"class.blink::Node"*) unnamed_addr #0 comdat align 2 {
  ret void
}

declare void @_ZN5blink13ContainerNode10SetFocusedEbNS_5mojom9FocusTypeE(%"class.blink::ContainerNode"*, i1 zeroext, i32) unnamed_addr #1

declare void @_ZN5blink13ContainerNode10SetDraggedEb(%"class.blink::ContainerNode"*, i1 zeroext) unnamed_addr #1

declare zeroext i1 @_ZNK5blink4Node25ShouldHaveFocusAppearanceEv(%"class.blink::Node"*) unnamed_addr #1

declare void @_ZNK5blink13ContainerNode11BoundingBoxEv() unnamed_addr

declare zeroext i1 @_ZNK5blink7Element16ChildTypeAllowedENS_4Node8NodeTypeE(%"class.blink::Element"*, i32) unnamed_addr #1

declare zeroext i1 @_ZNK5blink4Node17CanStartSelectionEv(%"class.blink::Node"*) unnamed_addr #1

declare void @_ZN5blink7Element16AttachLayoutTreeERNS_4Node13AttachContextE(%"class.blink::Element"*, %"struct.blink::Node::AttachContext"* dereferenceable(32)) unnamed_addr #1

declare void @_ZN5blink7Element16DetachLayoutTreeEb(%"class.blink::Element"*, i1 zeroext) unnamed_addr #1

declare i32 @_ZN5blink7Element12InsertedIntoERNS_13ContainerNodeE(%"class.blink::Element"*, %"class.blink::ContainerNode"* dereferenceable(80)) unnamed_addr #1

; Function Attrs: nounwind ssp uwtable
define linkonce_odr hidden void @_ZN5blink4Node36DidNotifySubtreeInsertionsToDocumentEv(%"class.blink::Node"*) unnamed_addr #0 comdat align 2 {
  ret void
}

declare void @_ZN5blink7Element11RemovedFromERNS_13ContainerNodeE(%"class.blink::Element"*, %"class.blink::ContainerNode"* dereferenceable(80)) unnamed_addr #1

declare zeroext i1 @_ZN5blink4Node28WillRespondToMouseMoveEventsEv(%"class.blink::Node"*) unnamed_addr #1

declare zeroext i1 @_ZN5blink4Node29WillRespondToMouseClickEventsEv(%"class.blink::Node"*) unnamed_addr #1

; Function Attrs: nounwind ssp uwtable
define linkonce_odr hidden %"class.blink::EventDispatchHandlingState"* @_ZN5blink4Node23PreDispatchEventHandlerERNS_5EventE(%"class.blink::Node"*, %"class.blink::Event"*) unnamed_addr #0 comdat align 2 {
  ret %"class.blink::EventDispatchHandlingState"* null
}

; Function Attrs: nounwind ssp uwtable
define linkonce_odr hidden void @_ZN5blink4Node24PostDispatchEventHandlerERNS_5EventEPNS_26EventDispatchHandlingStateE(%"class.blink::Node"*, %"class.blink::Event"*, %"class.blink::EventDispatchHandlingState"*) unnamed_addr #0 comdat align 2 {
  ret void
}

declare void @_ZN5blink4Node17HandleLocalEventsERNS_5EventE(%"class.blink::Node"*, %"class.blink::Event"*) unnamed_addr #1

declare void @_ZN5blink4Node19DefaultEventHandlerERNS_5EventE(%"class.blink::Node"*, %"class.blink::Event"*) unnamed_addr #1

declare zeroext i1 @_ZNK5blink4Node21HasActivationBehaviorEv(%"class.blink::Node"*) unnamed_addr #1

declare %"class.blink::LayoutBox"* @_ZN5blink4Node13AutoscrollBoxEv(%"class.blink::Node"*) unnamed_addr #1

declare void @_ZN5blink4Node14StopAutoscrollEv(%"class.blink::Node"*) unnamed_addr #1

declare void @_ZN5blink7Element20DidMoveToNewDocumentERNS_8DocumentE(%"class.blink::Element"*, %"class.blink::Document"* dereferenceable(2848)) unnamed_addr #1

declare %"class.WTF::StringImpl"* @_ZNK5blink4Node13DebugNodeNameEv(%"class.blink::Node"*) unnamed_addr #1

; Function Attrs: nounwind ssp uwtable
define linkonce_odr hidden %"class.blink::ComputedStyle"* @_ZN5blink7Element26VirtualEnsureComputedStyleENS_8PseudoIdERKN3WTF12AtomicStringE(%"class.blink::Element"*, i8 zeroext, %"class.WTF::AtomicString"* dereferenceable(8)) unnamed_addr #0 comdat align 2 {
  %4 = tail call %"class.blink::ComputedStyle"* @_ZN5blink7Element19EnsureComputedStyleENS_8PseudoIdERKN3WTF12AtomicStringE(%"class.blink::Element"* %0, i8 zeroext %1, %"class.WTF::AtomicString"* dereferenceable(8) %2) #8
  ret %"class.blink::ComputedStyle"* %4
}

declare void @_ZN5blink7Element15ChildrenChangedERKNS_13ContainerNode14ChildrenChangeE(%"class.blink::Element"*, %"struct.blink::ContainerNode::ChildrenChange"* dereferenceable(56)) unnamed_addr #1

declare zeroext i1 @_ZNK5blink13ContainerNode42ChildrenChangedAllChildrenRemovedNeedsListEv(%"class.blink::ContainerNode"*) unnamed_addr #1

; Function Attrs: nounwind ssp uwtable
define linkonce_odr hidden zeroext i1 @_ZNK5blink13ContainerNode20ChildrenCanHaveStyleEv(%"class.blink::ContainerNode"*) unnamed_addr #0 comdat align 2 {
  ret i1 true
}

declare %"class.blink::LayoutBox"* @_ZNK5blink7Element24GetLayoutBoxForScrollingEv(%"class.blink::Element"*) unnamed_addr #1

declare %"class.blink::Element"* @_ZN5blink7Element18GetAnimationTargetEv(%"class.blink::Element"*) unnamed_addr #1

declare %"class.WTF::HashMap.605"* @_ZNK5blink7Element24GetCheckedAttributeTypesEv(%"class.blink::Element"*) unnamed_addr #1

declare i32 @_ZN5blink7Element11scrollWidthEv(%"class.blink::Element"*) unnamed_addr #1

declare i32 @_ZN5blink7Element12scrollHeightEv(%"class.blink::Element"*) unnamed_addr #1

; Function Attrs: nounwind ssp uwtable
define linkonce_odr hidden %"class.blink::CSSPropertyValueSet"* @_ZN5blink7Element36AdditionalPresentationAttributeStyleEv(%"class.blink::Element"*) unnamed_addr #0 comdat align 2 {
  ret %"class.blink::CSSPropertyValueSet"* null
}

; Function Attrs: nounwind ssp uwtable
define linkonce_odr hidden zeroext i1 @_ZNK5blink7Element23IsPresentationAttributeERKNS_13QualifiedNameE(%"class.blink::Element"*, %"class.blink::QualifiedName"* dereferenceable(8)) unnamed_addr #0 comdat align 2 {
  ret i1 false
}

; Function Attrs: nounwind ssp uwtable
define linkonce_odr hidden void @_ZN5blink7Element36CollectStyleForPresentationAttributeERKNS_13QualifiedNameERKN3WTF12AtomicStringEPNS_26MutableCSSPropertyValueSetE(%"class.blink::Element"*, %"class.blink::QualifiedName"* dereferenceable(8), %"class.WTF::AtomicString"* dereferenceable(8), %"class.blink::MutableCSSPropertyValueSet"*) unnamed_addr #0 comdat align 2 {
  ret void
}

; Function Attrs: nounwind ssp uwtable
define linkonce_odr hidden zeroext i1 @_ZNK5blink7Element37HasExtraStyleForPresentationAttributeEv(%"class.blink::Element"*) unnamed_addr #0 comdat align 2 {
  ret i1 false
}

; Function Attrs: nounwind ssp uwtable
define linkonce_odr hidden void @_ZN5blink7Element41CollectExtraStyleForPresentationAttributeEPNS_26MutableCSSPropertyValueSetE(%"class.blink::Element"*, %"class.blink::MutableCSSPropertyValueSet"*) unnamed_addr #0 comdat align 2 {
  ret void
}

declare void @_ZN5blink7Element16AttributeChangedERKNS0_27AttributeModificationParamsE(%"class.blink::Element"*, %"struct.blink::Element::AttributeModificationParams"* dereferenceable(32)) unnamed_addr #1

declare void @_ZN5blink7Element14ParseAttributeERKNS0_27AttributeModificationParamsE(%"class.blink::Element"*, %"struct.blink::Element::AttributeModificationParams"* dereferenceable(32)) unnamed_addr #1

declare zeroext i1 @_ZNK5blink7Element21HasLegalLinkAttributeERKNS_13QualifiedNameE(%"class.blink::Element"*, %"class.blink::QualifiedName"* dereferenceable(8)) unnamed_addr #1

declare dereferenceable(8) %"class.blink::QualifiedName"* @_ZNK5blink7Element24SubResourceAttributeNameEv(%"class.blink::Element"*) unnamed_addr #1

; Function Attrs: nounwind ssp uwtable
define linkonce_odr hidden void @_ZN5blink7Element31CloneNonAttributePropertiesFromERKS0_NS_17CloneChildrenFlagE(%"class.blink::Element"*, %"class.blink::Element"* dereferenceable(104), i32) unnamed_addr #0 comdat align 2 {
  ret void
}

declare %"class.blink::LayoutObject"* @_ZN5blink7Element18CreateLayoutObjectERKNS_13ComputedStyleENS_12LegacyLayoutE(%"class.blink::Element"*, %"class.blink::ComputedStyle"*, i32) unnamed_addr #1

declare zeroext i1 @_ZNK5blink7Element20LayoutObjectIsNeededERKNS_13ComputedStyleE(%"class.blink::Element"*, %"class.blink::ComputedStyle"*) unnamed_addr #1

; Function Attrs: nounwind ssp uwtable
define linkonce_odr hidden void @_ZN5blink7Element15AccessKeyActionENS_27SimulatedClickCreationScopeE(%"class.blink::Element"*, i32) unnamed_addr #0 comdat align 2 {
  ret void
}

; Function Attrs: nounwind ssp uwtable
define linkonce_odr hidden zeroext i1 @_ZNK5blink7Element14IsURLAttributeERKNS_9AttributeE(%"class.blink::Element"*, %"class.blink::Attribute"* dereferenceable(16)) unnamed_addr #0 comdat align 2 {
  ret i1 false
}

; Function Attrs: nounwind ssp uwtable
define linkonce_odr hidden zeroext i1 @_ZNK5blink7Element22IsHTMLContentAttributeERKNS_9AttributeE(%"class.blink::Element"*, %"class.blink::Attribute"* dereferenceable(16)) unnamed_addr #0 comdat align 2 {
  ret i1 false
}

; Function Attrs: nounwind ssp uwtable
define linkonce_odr hidden zeroext i1 @_ZNK5blink7Element43IsSVGAnimationAttributeSettingJavaScriptURLERKNS_9AttributeE(%"class.blink::Element"*, %"class.blink::Attribute"* dereferenceable(16)) unnamed_addr #0 comdat align 2 {
  ret i1 false
}

; Function Attrs: nounwind ssp uwtable
define linkonce_odr hidden zeroext i1 @_ZNK5blink7Element10IsLiveLinkEv(%"class.blink::Element"*) unnamed_addr #0 comdat align 2 {
  ret i1 false
}

declare %"class.WTF::StringImpl"* @_ZNK5blink7Element14ImageSourceURLEv(%"class.blink::Element"*) unnamed_addr #1

; Function Attrs: nounwind ssp uwtable
define linkonce_odr hidden %"class.blink::Image"* @_ZN5blink7Element13ImageContentsEv(%"class.blink::Element"*) unnamed_addr #0 comdat align 2 {
  ret %"class.blink::Image"* null
}

declare void @_ZN5blink7Element5focusERKNS_11FocusParamsE(%"class.blink::Element"*, %"struct.blink::FocusParams"*) unnamed_addr #1

declare void @_ZN5blink7Element32UpdateFocusAppearanceWithOptionsENS_24SelectionBehaviorOnFocusEPKNS_12FocusOptionsE(%"class.blink::Element"*, i32, %"class.blink::FocusOptions"*) unnamed_addr #1

declare void @_ZN5blink7Element4blurEv(%"class.blink::Element"*) unnamed_addr #1

declare zeroext i1 @_ZNK5blink7Element13SupportsFocusEv(%"class.blink::Element"*) unnamed_addr #1

declare zeroext i1 @_ZNK5blink7Element19IsKeyboardFocusableEv(%"class.blink::Element"*) unnamed_addr #1

declare zeroext i1 @_ZNK5blink7Element16IsMouseFocusableEv(%"class.blink::Element"*) unnamed_addr #1

declare void @_ZN5blink7Element18DispatchFocusEventEPS0_NS_5mojom9FocusTypeEPNS_23InputDeviceCapabilitiesE(%"class.blink::Element"*, %"class.blink::Element"*, i32, %"class.blink::InputDeviceCapabilities"*) unnamed_addr #1

declare void @_ZN5blink7Element17DispatchBlurEventEPS0_NS_5mojom9FocusTypeEPNS_23InputDeviceCapabilitiesE(%"class.blink::Element"*, %"class.blink::Element"*, i32, %"class.blink::InputDeviceCapabilities"*) unnamed_addr #1

declare void @_ZN5blink7Element20DispatchFocusInEventERKN3WTF12AtomicStringEPS0_NS_5mojom9FocusTypeEPNS_23InputDeviceCapabilitiesE(%"class.blink::Element"*, %"class.WTF::AtomicString"* dereferenceable(8), %"class.blink::Element"*, i32, %"class.blink::InputDeviceCapabilities"*) unnamed_addr #1

; Function Attrs: nounwind ssp uwtable
define linkonce_odr hidden %"class.WTF::StringImpl"* @_ZNK5blink7Element5titleEv(%"class.blink::Element"*) unnamed_addr #0 comdat align 2 {
  ret %"class.WTF::StringImpl"* null
}

; Function Attrs: nounwind ssp uwtable
define linkonce_odr hidden %"class.WTF::StringImpl"* @_ZNK5blink7Element14DefaultToolTipEv(%"class.blink::Element"*) unnamed_addr #0 comdat align 2 {
  ret %"class.WTF::StringImpl"* null
}

declare dereferenceable(8) %"class.WTF::AtomicString"* @_ZNK5blink7Element14ShadowPseudoIdEv(%"class.blink::Element"*) unnamed_addr #1

declare void @_ZN5blink7Element21FinishParsingChildrenEv(%"class.blink::Element"*) unnamed_addr #1

; Function Attrs: nounwind ssp uwtable
define linkonce_odr hidden void @_ZN5blink7Element20BeginParsingChildrenEv(%"class.blink::Element"*) unnamed_addr #0 comdat align 2 {
  %2 = getelementptr inbounds %"class.blink::Element", %"class.blink::Element"* %0, i64 0, i32 0, i32 0, i32 1
  %3 = load i32, i32* %2, align 8
  %4 = and i32 %3, -1025
  store i32 %4, i32* %2, align 8
  ret void
}

declare zeroext i1 @_ZNK5blink7Element24CanGeneratePseudoElementENS_8PseudoIdE(%"class.blink::Element"*, i8 zeroext) unnamed_addr #1

; Function Attrs: nounwind ssp uwtable
define linkonce_odr hidden zeroext i1 @_ZNK5blink7Element25MatchesDefaultPseudoClassEv(%"class.blink::Element"*) unnamed_addr #0 comdat align 2 {
  ret i1 false
}

; Function Attrs: nounwind ssp uwtable
define linkonce_odr hidden zeroext i1 @_ZNK5blink7Element25MatchesEnabledPseudoClassEv(%"class.blink::Element"*) unnamed_addr #0 comdat align 2 {
  ret i1 false
}

; Function Attrs: nounwind ssp uwtable
define linkonce_odr hidden zeroext i1 @_ZNK5blink7Element26MatchesReadOnlyPseudoClassEv(%"class.blink::Element"*) unnamed_addr #0 comdat align 2 {
  ret i1 false
}

; Function Attrs: nounwind ssp uwtable
define linkonce_odr hidden zeroext i1 @_ZNK5blink7Element27MatchesReadWritePseudoClassEv(%"class.blink::Element"*) unnamed_addr #0 comdat align 2 {
  ret i1 false
}

; Function Attrs: nounwind ssp uwtable
define linkonce_odr hidden zeroext i1 @_ZNK5blink7Element28MatchesValidityPseudoClassesEv(%"class.blink::Element"*) unnamed_addr #0 comdat align 2 {
  ret i1 false
}

declare zeroext i1 @_ZNK5blink7Element25MayTriggerVirtualKeyboardEv(%"class.blink::Element"*) unnamed_addr #1

; Function Attrs: nounwind ssp uwtable
define linkonce_odr hidden zeroext i1 @_ZNK5blink7Element25ShouldAppearIndeterminateEv(%"class.blink::Element"*) unnamed_addr #0 comdat align 2 {
  ret i1 false
}

; Function Attrs: nounwind ssp uwtable
define linkonce_odr hidden zeroext i1 @_ZNK5blink7Element21IsDateTimeEditElementEv(%"class.blink::Element"*) unnamed_addr #0 comdat align 2 {
  ret i1 false
}

; Function Attrs: nounwind ssp uwtable
define linkonce_odr hidden zeroext i1 @_ZNK5blink7Element22IsDateTimeFieldElementEv(%"class.blink::Element"*) unnamed_addr #0 comdat align 2 {
  ret i1 false
}

; Function Attrs: nounwind ssp uwtable
define linkonce_odr hidden zeroext i1 @_ZNK5blink7Element24IsPickerIndicatorElementEv(%"class.blink::Element"*) unnamed_addr #0 comdat align 2 {
  ret i1 false
}

; Function Attrs: nounwind ssp uwtable
define linkonce_odr hidden zeroext i1 @_ZNK5blink7Element20IsFormControlElementEv(%"class.blink::Element"*) unnamed_addr #0 comdat align 2 {
  ret i1 false
}

; Function Attrs: nounwind ssp uwtable
define linkonce_odr hidden zeroext i1 @_ZNK5blink7Element19IsSpinButtonElementEv(%"class.blink::Element"*) unnamed_addr #0 comdat align 2 {
  ret i1 false
}

; Function Attrs: nounwind ssp uwtable
define linkonce_odr hidden zeroext i1 @_ZNK5blink7Element13IsTextControlEv(%"class.blink::Element"*) unnamed_addr #0 comdat align 2 {
  ret i1 false
}

; Function Attrs: nounwind ssp uwtable
define linkonce_odr hidden zeroext i1 @_ZNK5blink7Element21IsOptionalFormControlEv(%"class.blink::Element"*) unnamed_addr #0 comdat align 2 {
  ret i1 false
}

; Function Attrs: nounwind ssp uwtable
define linkonce_odr hidden zeroext i1 @_ZNK5blink7Element21IsRequiredFormControlEv(%"class.blink::Element"*) unnamed_addr #0 comdat align 2 {
  ret i1 false
}

; Function Attrs: nounwind ssp uwtable
define linkonce_odr hidden zeroext i1 @_ZNK5blink7Element12willValidateEv(%"class.blink::Element"*) unnamed_addr #0 comdat align 2 {
  ret i1 false
}

; Function Attrs: nounwind ssp uwtable
define linkonce_odr hidden zeroext i1 @_ZN5blink7Element14IsValidElementEv(%"class.blink::Element"*) unnamed_addr #0 comdat align 2 {
  ret i1 false
}

; Function Attrs: nounwind ssp uwtable
define linkonce_odr hidden zeroext i1 @_ZNK5blink7Element9IsInRangeEv(%"class.blink::Element"*) unnamed_addr #0 comdat align 2 {
  ret i1 false
}

; Function Attrs: nounwind ssp uwtable
define linkonce_odr hidden zeroext i1 @_ZNK5blink7Element12IsOutOfRangeEv(%"class.blink::Element"*) unnamed_addr #0 comdat align 2 {
  ret i1 false
}

; Function Attrs: nounwind ssp uwtable
define linkonce_odr hidden zeroext i1 @_ZNK5blink7Element20IsClearButtonElementEv(%"class.blink::Element"*) unnamed_addr #0 comdat align 2 {
  ret i1 false
}

; Function Attrs: nounwind ssp uwtable
define linkonce_odr hidden zeroext i1 @_ZNK5blink7Element15IsScriptElementEv(%"class.blink::Element"*) unnamed_addr #0 comdat align 2 {
  ret i1 false
}

; Function Attrs: nounwind ssp uwtable
define linkonce_odr hidden zeroext i1 @_ZNK5blink7Element21IsVTTCueBackgroundBoxEv(%"class.blink::Element"*) unnamed_addr #0 comdat align 2 {
  ret i1 false
}

; Function Attrs: nounwind ssp uwtable
define linkonce_odr hidden zeroext i1 @_ZNK5blink7Element20IsSliderThumbElementEv(%"class.blink::Element"*) unnamed_addr #0 comdat align 2 {
  ret i1 false
}

; Function Attrs: nounwind ssp uwtable
define linkonce_odr hidden zeroext i1 @_ZNK5blink7Element25HasNonInBodyInsertionModeEv(%"class.blink::Element"*) unnamed_addr #0 comdat align 2 {
  ret i1 false
}

; Function Attrs: nounwind ssp uwtable
define linkonce_odr hidden zeroext i1 @_ZNK5blink7Element21IsDisabledFormControlEv(%"class.blink::Element"*) unnamed_addr #0 comdat align 2 {
  ret i1 false
}

; Function Attrs: nounwind ssp uwtable
define linkonce_odr hidden void @_ZN5blink7Element20BuildPendingResourceEv(%"class.blink::Element"*) unnamed_addr #0 comdat align 2 {
  ret void
}

declare void @_ZN5blink7Element9SetActiveEb(%"class.blink::Element"*, i1 zeroext) unnamed_addr #1

declare void @_ZN5blink7Element10SetHoveredEb(%"class.blink::Element"*, i1 zeroext) unnamed_addr #1

; Function Attrs: nounwind ssp uwtable
define linkonce_odr hidden zeroext i1 @_ZNK5blink7Element11IsAdRelatedEv(%"class.blink::Element"*) unnamed_addr #0 comdat align 2 {
  ret i1 false
}

declare void @_ZN5blink7Element15WillRecalcStyleENS_17StyleRecalcChangeE(%"class.blink::Element"*, i64) unnamed_addr #1

declare void @_ZN5blink7Element14DidRecalcStyleENS_17StyleRecalcChangeE(%"class.blink::Element"*, i64) unnamed_addr #1

declare void @_ZN5blink7Element26CustomStyleForLayoutObjectERKNS_18StyleRecalcContextE() unnamed_addr

; Function Attrs: nounwind ssp uwtable
define linkonce_odr hidden i32 @_ZNK5blink7Element16GetNamedItemTypeEv(%"class.blink::Element"*) unnamed_addr #0 comdat align 2 {
  ret i32 0
}

declare zeroext i1 @_ZNK5blink7Element16IsFocusableStyleEv(%"class.blink::Element"*) unnamed_addr #1

; Function Attrs: nounwind ssp uwtable
define linkonce_odr hidden void @_ZN5blink7Element22ParserDidSetAttributesEv(%"class.blink::Element"*) unnamed_addr #0 comdat align 2 {
  ret void
}

; Function Attrs: nounwind ssp uwtable
define linkonce_odr hidden zeroext i1 @_ZNK5blink7Element23AreAuthorShadowsAllowedEv(%"class.blink::Element"*) unnamed_addr #0 comdat align 2 {
  ret i1 true
}

; Function Attrs: nounwind ssp uwtable
define linkonce_odr hidden void @_ZN5blink7Element25DidAddUserAgentShadowRootERNS_10ShadowRootE(%"class.blink::Element"*, %"class.blink::ShadowRoot"*) unnamed_addr #0 comdat align 2 {
  ret void
}

; Function Attrs: nounwind ssp uwtable
define linkonce_odr hidden zeroext i1 @_ZNK5blink7Element31AlwaysCreateUserAgentShadowRootEv(%"class.blink::Element"*) unnamed_addr #0 comdat align 2 {
  ret i1 false
}

declare i32 @_ZNK5blink7Element15DefaultTabIndexEv(%"class.blink::Element"*) unnamed_addr #1

; Function Attrs: nounwind ssp uwtable
define linkonce_odr hidden zeroext i1 @_ZNK5blink7Element27TypeShouldForceLegacyLayoutEv(%"class.blink::Element"*) unnamed_addr #0 comdat align 2 {
  ret i1 false
}

; Function Attrs: nounwind ssp uwtable
declare %"class.blink::Element"* @_ZThn80_N5blink7Element18GetAnimationTargetEv(%"class.blink::Element"*) unnamed_addr #0 align 2

; Function Attrs: nofree nounwind
declare i32 @__cxa_guard_acquire(i64*) local_unnamed_addr #4

; Function Attrs: nofree nounwind
declare void @__cxa_guard_release(i64*) local_unnamed_addr #4

declare void @_ZN5blink13QualifiedNameC1ERKN3WTF12AtomicStringES4_S4_(%"class.blink::QualifiedName"*, %"class.WTF::AtomicString"* dereferenceable(8), %"class.WTF::AtomicString"* dereferenceable(8), %"class.WTF::AtomicString"* dereferenceable(8)) unnamed_addr #1

declare void @_ZN3WTF12AtomicStringC2EPKhm(%"class.WTF::AtomicString"*, i8*, i64) unnamed_addr #1

declare void @_ZNK3WTF10StringImpl18DestroyIfNotStaticEv(%"class.WTF::StringImpl"*) local_unnamed_addr #1

; Function Attrs: nounwind readnone speculatable
declare { i33, i1 } @llvm.sadd.with.overflow.i33(i33, i33) #5

; Function Attrs: cold noreturn nounwind
declare void @llvm.trap() #6

; Function Attrs: nounwind
declare void @_ZN5blink13QualifiedNameD1Ev(%"class.blink::QualifiedName"*) unnamed_addr #7

; Function Attrs: nounwind
declare void @_ZN5blink13ContainerNodeD2Ev(%"class.blink::ContainerNode"*) unnamed_addr #7

declare %"class.blink::ComputedStyle"* @_ZN5blink7Element19EnsureComputedStyleENS_8PseudoIdERKN3WTF12AtomicStringE(%"class.blink::Element"*, i8 zeroext, %"class.WTF::AtomicString"* dereferenceable(8)) local_unnamed_addr #1

; Function Attrs: nounwind ssp uwtable
define linkonce_odr hidden %"class.blink::VTTElement"* @_ZN5blink25MakeGarbageCollectedTraitINS_10VTTElementEE4CallIJNS_11VTTNodeTypeEPNS_8DocumentEEEEPS1_DpOT_(i32* dereferenceable(4), %"class.blink::Document"** dereferenceable(8)) local_unnamed_addr #0 comdat align 2 {
  %3 = load %"class.blink::ThreadHeap"*, %"class.blink::ThreadHeap"** bitcast ([0 x i8]* @_ZN5blink11ThreadState26main_thread_state_storage_E to %"class.blink::ThreadHeap"**), align 8
  %4 = load atomic i32, i32* getelementptr inbounds ({ { i32 } }, { { i32 } }* @_ZZN5blink11GCInfoTraitINS_15ScriptWrappableEE5IndexEvE13gc_info_index, i64 0, i32 0, i32 0) acquire, align 4
  %5 = icmp eq i32 %4, 0
  br i1 %5, label %6, label %9

6:                                                ; preds = %2
  %7 = load %"class.blink::GCInfoTable"*, %"class.blink::GCInfoTable"** @_ZN5blink11GCInfoTable13global_table_E, align 8
  %8 = tail call i32 @_ZN5blink11GCInfoTable17EnsureGCInfoIndexEPKNS_6GCInfoEPNSt3__16atomicIjEE(%"class.blink::GCInfoTable"* %7, %"struct.blink::GCInfo"* nonnull @_ZZN5blink11GCInfoTraitINS_15ScriptWrappableEE5IndexEvE7kGcInfo, %"struct.std::__1::atomic"* bitcast ({ { i32 } }* @_ZZN5blink11GCInfoTraitINS_15ScriptWrappableEE5IndexEvE13gc_info_index to %"struct.std::__1::atomic"*)) #8
  br label %9

9:                                                ; preds = %6, %2
  %10 = phi i32 [ %4, %2 ], [ %8, %6 ]
  %11 = getelementptr inbounds %"class.blink::ThreadHeap", %"class.blink::ThreadHeap"* %3, i64 0, i32 19, i64 6
  %12 = bitcast %"class.blink::BaseArena"** %11 to %"class.blink::NormalPageArena"**
  %13 = load %"class.blink::NormalPageArena"*, %"class.blink::NormalPageArena"** %12, align 8
  %14 = getelementptr inbounds %"class.blink::NormalPageArena", %"class.blink::NormalPageArena"* %13, i64 0, i32 4
  %15 = load i64, i64* %14, align 8
  %16 = icmp ult i64 %15, 136
  br i1 %16, label %47, label %17, !prof !3

17:                                               ; preds = %9
  %18 = getelementptr inbounds %"class.blink::NormalPageArena", %"class.blink::NormalPageArena"* %13, i64 0, i32 3
  %19 = load i8*, i8** %18, align 8
  %20 = getelementptr inbounds i8, i8* %19, i64 136
  store i8* %20, i8** %18, align 8
  %21 = add i64 %15, -136
  store i64 %21, i64* %14, align 8
  %22 = bitcast i8* %19 to i32*
  store i32 0, i32* %22, align 4
  %23 = getelementptr inbounds i8, i8* %19, i64 4
  %24 = bitcast i8* %23 to i16*
  %25 = trunc i32 %10 to i16
  %26 = shl i16 %25, 2
  store atomic i16 %26, i16* %24 monotonic, align 2
  %27 = getelementptr inbounds i8, i8* %19, i64 6
  %28 = bitcast i8* %27 to i16*
  store i16 68, i16* %28, align 2
  %29 = ptrtoint i8* %19 to i64
  %30 = and i64 %29, -131072
  %31 = inttoptr i64 %30 to i8*
  %32 = getelementptr inbounds i8, i8* %31, i64 4400
  %33 = bitcast i8* %32 to %"class.blink::PlatformAwareObjectStartBitmap"*
  %34 = bitcast i8* %32 to i64*
  %35 = load i64, i64* %34, align 16
  %36 = sub i64 %29, %35
  %37 = lshr i64 %36, 3
  %38 = lshr i64 %36, 6
  %39 = getelementptr inbounds %"class.blink::PlatformAwareObjectStartBitmap", %"class.blink::PlatformAwareObjectStartBitmap"* %33, i64 0, i32 0, i32 1, i64 %38
  %40 = load i8, i8* %39, align 1
  %41 = trunc i64 %37 to i32
  %42 = and i32 %41, 7
  %43 = shl i32 1, %42
  %44 = trunc i32 %43 to i8
  %45 = or i8 %40, %44
  store atomic i8 %45, i8* %39 release, align 1
  %46 = getelementptr inbounds i8, i8* %19, i64 8
  br label %50

47:                                               ; preds = %9
  %48 = zext i32 %10 to i64
  %49 = tail call i8* @_ZN5blink15NormalPageArena17OutOfLineAllocateEmm(%"class.blink::NormalPageArena"* %13, i64 136, i64 %48) #8
  br label %50

50:                                               ; preds = %17, %47
  %51 = phi i8* [ %46, %17 ], [ %49, %47 ]
  %52 = bitcast i8* %51 to %"class.blink::VTTElement"*
  %53 = load i32, i32* %0, align 4
  %54 = load %"class.blink::Document"*, %"class.blink::Document"** %1, align 8
  tail call void @_ZN5blink10VTTElementC2ENS_11VTTNodeTypeEPNS_8DocumentE(%"class.blink::VTTElement"* %52, i32 %53, %"class.blink::Document"* %54)
  %55 = getelementptr inbounds i8, i8* %51, i64 -4
  %56 = bitcast i8* %55 to i16*
  %57 = load atomic i16, i16* %56 monotonic, align 2
  %58 = or i16 %57, 1
  store atomic i16 %58, i16* %56 release, align 2
  ret %"class.blink::VTTElement"* %52
}

declare i8* @_ZN5blink15NormalPageArena17OutOfLineAllocateEmm(%"class.blink::NormalPageArena"*, i64, i64) local_unnamed_addr #1

; Function Attrs: nounwind ssp uwtable
define linkonce_odr hidden void @_ZN5blink10TraceTraitINS_15ScriptWrappableEE5TraceEPNS_7VisitorEPKv(%"class.blink::Visitor"*, i8*) #0 comdat align 2 {
  %3 = bitcast i8* %1 to %"class.blink::ScriptWrappable"*
  %4 = bitcast i8* %1 to void (%"class.blink::ScriptWrappable"*, %"class.blink::Visitor"*)***
  %5 = load void (%"class.blink::ScriptWrappable"*, %"class.blink::Visitor"*)**, void (%"class.blink::ScriptWrappable"*, %"class.blink::Visitor"*)*** %4, align 8
  %6 = getelementptr inbounds void (%"class.blink::ScriptWrappable"*, %"class.blink::Visitor"*)*, void (%"class.blink::ScriptWrappable"*, %"class.blink::Visitor"*)** %5, i64 5
  %7 = load void (%"class.blink::ScriptWrappable"*, %"class.blink::Visitor"*)*, void (%"class.blink::ScriptWrappable"*, %"class.blink::Visitor"*)** %6, align 8
  tail call void %7(%"class.blink::ScriptWrappable"* %3, %"class.blink::Visitor"* %0) #8
  ret void
}

; Function Attrs: nounwind ssp uwtable
define linkonce_odr hidden void @_ZN5blink8internal14FinalizerTraitINS_15ScriptWrappableEE8FinalizeEPv(i8*) #0 comdat align 2 {
  %2 = bitcast i8* %0 to %"class.blink::ScriptWrappable"*
  %3 = bitcast i8* %0 to void (%"class.blink::ScriptWrappable"*)***
  %4 = load void (%"class.blink::ScriptWrappable"*)**, void (%"class.blink::ScriptWrappable"*)*** %3, align 8
  %5 = getelementptr inbounds void (%"class.blink::ScriptWrappable"*)*, void (%"class.blink::ScriptWrappable"*)** %4, i64 1
  %6 = load void (%"class.blink::ScriptWrappable"*)*, void (%"class.blink::ScriptWrappable"*)** %5, align 8
  tail call void %6(%"class.blink::ScriptWrappable"* %2) #8
  ret void
}

; Function Attrs: nounwind ssp uwtable
define linkonce_odr hidden { i8*, i8 } @_ZN5blink9NameTraitINS_15ScriptWrappableEE7GetNameEPKv(i8*) #0 comdat align 2 {
  %2 = bitcast i8* %0 to %"class.blink::NameClient"*
  %3 = bitcast i8* %0 to i8* (%"class.blink::NameClient"*)***
  %4 = load i8* (%"class.blink::NameClient"*)**, i8* (%"class.blink::NameClient"*)*** %3, align 8
  %5 = load i8* (%"class.blink::NameClient"*)*, i8* (%"class.blink::NameClient"*)** %4, align 8
  %6 = tail call i8* %5(%"class.blink::NameClient"* %2) #8
  %7 = insertvalue { i8*, i8 } undef, i8* %6, 0
  %8 = insertvalue { i8*, i8 } %7, i8 0, 1
  ret { i8*, i8 } %8
}

declare i32 @_ZN5blink11GCInfoTable17EnsureGCInfoIndexEPKNS_6GCInfoEPNSt3__16atomicIjEE(%"class.blink::GCInfoTable"*, %"struct.blink::GCInfo"*, %"struct.std::__1::atomic"*) local_unnamed_addr #1

declare zeroext i1 @_ZN5blink14MarkingVisitor16WriteBarrierSlowEPv(i8*) local_unnamed_addr #1

; Function Attrs: nounwind ssp uwtable
define linkonce_odr hidden void @_ZN5blink10TraceTraitINS_9TextTrackEE5TraceEPNS_7VisitorEPKv(%"class.blink::Visitor"*, i8*) #0 comdat align 2 {
  %3 = bitcast i8* %1 to %"class.blink::TextTrack"*
  %4 = bitcast i8* %1 to void (%"class.blink::TextTrack"*, %"class.blink::Visitor"*)***
  %5 = load void (%"class.blink::TextTrack"*, %"class.blink::Visitor"*)**, void (%"class.blink::TextTrack"*, %"class.blink::Visitor"*)*** %4, align 8
  %6 = getelementptr inbounds void (%"class.blink::TextTrack"*, %"class.blink::Visitor"*)*, void (%"class.blink::TextTrack"*, %"class.blink::Visitor"*)** %5, i64 5
  %7 = load void (%"class.blink::TextTrack"*, %"class.blink::Visitor"*)*, void (%"class.blink::TextTrack"*, %"class.blink::Visitor"*)** %6, align 8
  tail call void %7(%"class.blink::TextTrack"* %3, %"class.blink::Visitor"* %0) #8
  ret void
}

attributes #0 = { nounwind ssp uwtable "correctly-rounded-divide-sqrt-fp-math"="false" "disable-tail-calls"="false" "less-precise-fpmad"="false" "min-legal-vector-width"="0" "no-frame-pointer-elim"="false" "no-frame-pointer-elim-non-leaf" "no-infs-fp-math"="false" "no-jump-tables"="false" "no-nans-fp-math"="false" "no-signed-zeros-fp-math"="false" "no-trapping-math"="false" "null-pointer-is-valid"="true" "stack-protector-buffer-size"="4" "target-cpu"="x86-64" "target-features"="+cx8,+fxsr,+mmx,+sse,+sse2,+sse3,+x87" "unsafe-fp-math"="false" "use-soft-float"="false" }
attributes #1 = { "correctly-rounded-divide-sqrt-fp-math"="false" "disable-tail-calls"="false" "less-precise-fpmad"="false" "no-frame-pointer-elim"="false" "no-frame-pointer-elim-non-leaf" "no-infs-fp-math"="false" "no-nans-fp-math"="false" "no-signed-zeros-fp-math"="false" "no-trapping-math"="false" "null-pointer-is-valid"="true" "stack-protector-buffer-size"="4" "target-cpu"="x86-64" "target-features"="+cx8,+fxsr,+mmx,+sse,+sse2,+sse3,+x87" "unsafe-fp-math"="false" "use-soft-float"="false" }
attributes #2 = { argmemonly nounwind }
attributes #3 = { inlinehint nounwind ssp uwtable "correctly-rounded-divide-sqrt-fp-math"="false" "disable-tail-calls"="false" "less-precise-fpmad"="false" "min-legal-vector-width"="0" "no-frame-pointer-elim"="false" "no-frame-pointer-elim-non-leaf" "no-infs-fp-math"="false" "no-jump-tables"="false" "no-nans-fp-math"="false" "no-signed-zeros-fp-math"="false" "no-trapping-math"="false" "null-pointer-is-valid"="true" "stack-protector-buffer-size"="4" "target-cpu"="x86-64" "target-features"="+cx8,+fxsr,+mmx,+sse,+sse2,+sse3,+x87" "unsafe-fp-math"="false" "use-soft-float"="false" }
attributes #4 = { nofree nounwind }
attributes #5 = { nounwind readnone speculatable }
attributes #6 = { cold noreturn nounwind }
attributes #7 = { nounwind "correctly-rounded-divide-sqrt-fp-math"="false" "disable-tail-calls"="false" "less-precise-fpmad"="false" "no-frame-pointer-elim"="false" "no-frame-pointer-elim-non-leaf" "no-infs-fp-math"="false" "no-nans-fp-math"="false" "no-signed-zeros-fp-math"="false" "no-trapping-math"="false" "null-pointer-is-valid"="true" "stack-protector-buffer-size"="4" "target-cpu"="x86-64" "target-features"="+cx8,+fxsr,+mmx,+sse,+sse2,+sse3,+x87" "unsafe-fp-math"="false" "use-soft-float"="false" }
attributes #8 = { nounwind }

!llvm.module.flags = !{!0, !1}

!0 = !{i32 1, !"wchar_size", i32 4}
!1 = !{i32 7, !"PIC Level", i32 2}
!2 = !{!"branch_weights", i32 1, i32 1048575}
!3 = !{!"branch_weights", i32 1, i32 2000}
