; ModuleID = '../../gpu/vulkan/vulkan_command_pool.cc'
source_filename = "../../gpu/vulkan/vulkan_command_pool.cc"
target datalayout = "e-m:e-i64:64-f80:128-n8:16:32:64-S128"
target triple = "x86_64-unknown-linux-gnu"

module asm ".symver exp, exp@GLIBC_2.2.5"
module asm ".symver exp2, exp2@GLIBC_2.2.5"
module asm ".symver exp2f, exp2f@GLIBC_2.2.5"
module asm ".symver expf, expf@GLIBC_2.2.5"
module asm ".symver lgamma, lgamma@GLIBC_2.2.5"
module asm ".symver lgammaf, lgammaf@GLIBC_2.2.5"
module asm ".symver lgammal, lgammal@GLIBC_2.2.5"
module asm ".symver log, log@GLIBC_2.2.5"
module asm ".symver log2, log2@GLIBC_2.2.5"
module asm ".symver log2f, log2f@GLIBC_2.2.5"
module asm ".symver logf, logf@GLIBC_2.2.5"
module asm ".symver pow, pow@GLIBC_2.2.5"
module asm ".symver powf, powf@GLIBC_2.2.5"

%"class.gpu::VulkanCommandPool" = type <{ %"class.gpu::VulkanDeviceQueue"*, %struct.VkCommandPool_T*, i32, i8, [3 x i8] }>
%struct.VkCommandPool_T = type opaque
%"class.gpu::VulkanDeviceQueue" = type { %"class.base::internal::flat_tree", %struct.VkPhysicalDevice_T*, %struct.VkPhysicalDeviceProperties, %struct.VkPhysicalDeviceDriverProperties, %struct.VkDevice_T*, %struct.VkDevice_T*, %struct.VkQueue_T*, i32, %struct.VkInstance_T*, %struct.VmaAllocator_T*, %"class.std::__1::unique_ptr", %struct.VkPhysicalDeviceFeatures2, i8, %struct.VkPhysicalDeviceProtectedMemoryFeatures }
%"class.base::internal::flat_tree" = type { %"class.std::__1::vector" }
%"class.std::__1::vector" = type { %"class.std::__1::__vector_base" }
%"class.std::__1::__vector_base" = type { %"class.base::BasicStringPiece"*, %"class.base::BasicStringPiece"*, %"class.std::__1::__compressed_pair" }
%"class.base::BasicStringPiece" = type { i8*, i64 }
%"class.std::__1::__compressed_pair" = type { %"struct.std::__1::__compressed_pair_elem" }
%"struct.std::__1::__compressed_pair_elem" = type { %"class.base::BasicStringPiece"* }
%struct.VkPhysicalDevice_T = type opaque
%struct.VkPhysicalDeviceProperties = type { i32, i32, i32, i32, i32, [256 x i8], [16 x i8], %struct.VkPhysicalDeviceLimits, %struct.VkPhysicalDeviceSparseProperties }
%struct.VkPhysicalDeviceLimits = type { i32, i32, i32, i32, i32, i32, i32, i32, i32, i32, i32, i64, i64, i32, i32, i32, i32, i32, i32, i32, i32, i32, i32, i32, i32, i32, i32, i32, i32, i32, i32, i32, i32, i32, i32, i32, i32, i32, i32, i32, i32, i32, i32, i32, i32, i32, i32, i32, i32, i32, i32, i32, [3 x i32], i32, [3 x i32], i32, i32, i32, i32, i32, float, float, i32, [2 x i32], [2 x float], i32, i64, i64, i64, i64, i32, i32, i32, i32, float, float, i32, i32, i32, i32, i32, i32, i32, i32, i32, i32, i32, i32, i32, i32, i32, i32, float, i32, i32, i32, i32, [2 x float], [2 x float], float, float, i32, i32, i64, i64, i64 }
%struct.VkPhysicalDeviceSparseProperties = type { i32, i32, i32, i32, i32 }
%struct.VkPhysicalDeviceDriverProperties = type { i32, i8*, i32, [256 x i8], [256 x i8], %struct.VkConformanceVersion }
%struct.VkConformanceVersion = type { i8, i8, i8, i8 }
%struct.VkDevice_T = type opaque
%struct.VkQueue_T = type opaque
%struct.VkInstance_T = type opaque
%struct.VmaAllocator_T = type opaque
%"class.std::__1::unique_ptr" = type { %"class.std::__1::__compressed_pair.1" }
%"class.std::__1::__compressed_pair.1" = type { %"struct.std::__1::__compressed_pair_elem.2" }
%"struct.std::__1::__compressed_pair_elem.2" = type { %"class.gpu::VulkanFenceHelper"* }
%"class.gpu::VulkanFenceHelper" = type { %"class.gpu::VulkanDeviceQueue"*, %"class.std::__1::vector.3", i64, i64, %"class.base::circular_deque", %"class.base::WeakPtrFactory" }
%"class.std::__1::vector.3" = type { %"class.std::__1::__vector_base.4" }
%"class.std::__1::__vector_base.4" = type { %"class.base::OnceCallback"*, %"class.base::OnceCallback"*, %"class.std::__1::__compressed_pair.5" }
%"class.base::OnceCallback" = type opaque
%"class.std::__1::__compressed_pair.5" = type { %"struct.std::__1::__compressed_pair_elem.6" }
%"struct.std::__1::__compressed_pair_elem.6" = type { %"class.base::OnceCallback"* }
%"class.base::circular_deque" = type { %"class.base::internal::VectorBuffer", i64, i64 }
%"class.base::internal::VectorBuffer" = type { %"struct.gpu::VulkanFenceHelper::TasksForFence"*, i64 }
%"struct.gpu::VulkanFenceHelper::TasksForFence" = type { %struct.VkFence_T*, i64, %"class.std::__1::vector.3" }
%struct.VkFence_T = type opaque
%"class.base::WeakPtrFactory" = type { %"class.base::internal::WeakPtrFactoryBase" }
%"class.base::internal::WeakPtrFactoryBase" = type { %"class.base::internal::WeakReferenceOwner", i64 }
%"class.base::internal::WeakReferenceOwner" = type { %class.scoped_refptr }
%class.scoped_refptr = type { %"class.base::internal::WeakReference::Flag"* }
%"class.base::internal::WeakReference::Flag" = type <{ %"class.base::RefCountedThreadSafe", %"class.base::AtomicFlag", [3 x i8] }>
%"class.base::RefCountedThreadSafe" = type { %"class.base::subtle::RefCountedThreadSafeBase" }
%"class.base::subtle::RefCountedThreadSafeBase" = type { %"class.base::AtomicRefCount" }
%"class.base::AtomicRefCount" = type { %"struct.std::__1::atomic" }
%"struct.std::__1::atomic" = type { %"struct.std::__1::__atomic_base" }
%"struct.std::__1::__atomic_base" = type { %"struct.std::__1::__atomic_base.10" }
%"struct.std::__1::__atomic_base.10" = type { %"struct.std::__1::__cxx_atomic_impl" }
%"struct.std::__1::__cxx_atomic_impl" = type { %"struct.std::__1::__cxx_atomic_base_impl" }
%"struct.std::__1::__cxx_atomic_base_impl" = type { i32 }
%"class.base::AtomicFlag" = type { %"struct.std::__1::atomic.11" }
%"struct.std::__1::atomic.11" = type { %"struct.std::__1::__atomic_base.12" }
%"struct.std::__1::__atomic_base.12" = type { %"struct.std::__1::__atomic_base.13" }
%"struct.std::__1::__atomic_base.13" = type { %"struct.std::__1::__cxx_atomic_impl.14" }
%"struct.std::__1::__cxx_atomic_impl.14" = type { %"struct.std::__1::__cxx_atomic_base_impl.15" }
%"struct.std::__1::__cxx_atomic_base_impl.15" = type { i8 }
%struct.VkPhysicalDeviceFeatures2 = type { i32, i8*, %struct.VkPhysicalDeviceFeatures }
%struct.VkPhysicalDeviceFeatures = type { i32, i32, i32, i32, i32, i32, i32, i32, i32, i32, i32, i32, i32, i32, i32, i32, i32, i32, i32, i32, i32, i32, i32, i32, i32, i32, i32, i32, i32, i32, i32, i32, i32, i32, i32, i32, i32, i32, i32, i32, i32, i32, i32, i32, i32, i32, i32, i32, i32, i32, i32, i32, i32, i32, i32 }
%struct.VkPhysicalDeviceProtectedMemoryFeatures = type { i32, i8*, i32 }
%struct.VkCommandPoolCreateInfo = type { i32, i8*, i32, i32 }
%"struct.gpu::VulkanFunctionPointers" = type { i8*, %"class.gpu::VulkanFunctionPointers::VulkanFunction", %"class.gpu::VulkanFunctionPointers::VulkanFunction.23", %"class.gpu::VulkanFunctionPointers::VulkanFunction.24", %"class.gpu::VulkanFunctionPointers::VulkanFunction.25", %"class.gpu::VulkanFunctionPointers::VulkanFunction.26", %"class.gpu::VulkanFunctionPointers::VulkanFunction.27", %"class.gpu::VulkanFunctionPointers::VulkanFunction.28", %"class.gpu::VulkanFunctionPointers::VulkanFunction.29", %"class.gpu::VulkanFunctionPointers::VulkanFunction.30", %"class.gpu::VulkanFunctionPointers::VulkanFunction.31", %"class.gpu::VulkanFunctionPointers::VulkanFunction.32", %"class.gpu::VulkanFunctionPointers::VulkanFunction.33", %"class.gpu::VulkanFunctionPointers::VulkanFunction.34", %"class.gpu::VulkanFunctionPointers::VulkanFunction.35", %"class.gpu::VulkanFunctionPointers::VulkanFunction.36", %"class.gpu::VulkanFunctionPointers::VulkanFunction.37", %"class.gpu::VulkanFunctionPointers::VulkanFunction.38", %"class.gpu::VulkanFunctionPointers::VulkanFunction.39", %"class.gpu::VulkanFunctionPointers::VulkanFunction.40", %"class.gpu::VulkanFunctionPointers::VulkanFunction.41", %"class.gpu::VulkanFunctionPointers::VulkanFunction.42", %"class.gpu::VulkanFunctionPointers::VulkanFunction.43", %"class.gpu::VulkanFunctionPointers::VulkanFunction.44", %"class.gpu::VulkanFunctionPointers::VulkanFunction.45", %"class.gpu::VulkanFunctionPointers::VulkanFunction.46", %"class.gpu::VulkanFunctionPointers::VulkanFunction.47", %"class.gpu::VulkanFunctionPointers::VulkanFunction.48", %"class.gpu::VulkanFunctionPointers::VulkanFunction.49", %"class.gpu::VulkanFunctionPointers::VulkanFunction.50", %"class.gpu::VulkanFunctionPointers::VulkanFunction.51", %"class.gpu::VulkanFunctionPointers::VulkanFunction.52", %"class.gpu::VulkanFunctionPointers::VulkanFunction.53", %"class.gpu::VulkanFunctionPointers::VulkanFunction.54", %"class.gpu::VulkanFunctionPointers::VulkanFunction.55", %"class.gpu::VulkanFunctionPointers::VulkanFunction.56", %"class.gpu::VulkanFunctionPointers::VulkanFunction.57", %"class.gpu::VulkanFunctionPointers::VulkanFunction.58", %"class.gpu::VulkanFunctionPointers::VulkanFunction.59", %"class.gpu::VulkanFunctionPointers::VulkanFunction.60", %"class.gpu::VulkanFunctionPointers::VulkanFunction.61", %"class.gpu::VulkanFunctionPointers::VulkanFunction.62", %"class.gpu::VulkanFunctionPointers::VulkanFunction.63", %"class.gpu::VulkanFunctionPointers::VulkanFunction.64", %"class.gpu::VulkanFunctionPointers::VulkanFunction.65", %"class.gpu::VulkanFunctionPointers::VulkanFunction.66", %"class.gpu::VulkanFunctionPointers::VulkanFunction.67", %"class.gpu::VulkanFunctionPointers::VulkanFunction.68", %"class.gpu::VulkanFunctionPointers::VulkanFunction.69", %"class.gpu::VulkanFunctionPointers::VulkanFunction.70", %"class.gpu::VulkanFunctionPointers::VulkanFunction.71", %"class.gpu::VulkanFunctionPointers::VulkanFunction.72", %"class.gpu::VulkanFunctionPointers::VulkanFunction.73", %"class.gpu::VulkanFunctionPointers::VulkanFunction.74", %"class.gpu::VulkanFunctionPointers::VulkanFunction.75", %"class.gpu::VulkanFunctionPointers::VulkanFunction.76", %"class.gpu::VulkanFunctionPointers::VulkanFunction.77", %"class.gpu::VulkanFunctionPointers::VulkanFunction.78", %"class.gpu::VulkanFunctionPointers::VulkanFunction.79", %"class.gpu::VulkanFunctionPointers::VulkanFunction.80", %"class.gpu::VulkanFunctionPointers::VulkanFunction.81", %"class.gpu::VulkanFunctionPointers::VulkanFunction.82", %"class.gpu::VulkanFunctionPointers::VulkanFunction.83", %"class.gpu::VulkanFunctionPointers::VulkanFunction.84", %"class.gpu::VulkanFunctionPointers::VulkanFunction.85", %"class.gpu::VulkanFunctionPointers::VulkanFunction.86", %"class.gpu::VulkanFunctionPointers::VulkanFunction.87", %"class.gpu::VulkanFunctionPointers::VulkanFunction.88", %"class.gpu::VulkanFunctionPointers::VulkanFunction.89", %"class.gpu::VulkanFunctionPointers::VulkanFunction.90", %"class.gpu::VulkanFunctionPointers::VulkanFunction.91", %"class.gpu::VulkanFunctionPointers::VulkanFunction.92", %"class.gpu::VulkanFunctionPointers::VulkanFunction.93", %"class.gpu::VulkanFunctionPointers::VulkanFunction.94", %"class.gpu::VulkanFunctionPointers::VulkanFunction.90", %"class.gpu::VulkanFunctionPointers::VulkanFunction.95", %"class.gpu::VulkanFunctionPointers::VulkanFunction.96", %"class.gpu::VulkanFunctionPointers::VulkanFunction.97", %"class.gpu::VulkanFunctionPointers::VulkanFunction.98", %"class.gpu::VulkanFunctionPointers::VulkanFunction.99", %"class.gpu::VulkanFunctionPointers::VulkanFunction.100", %"class.gpu::VulkanFunctionPointers::VulkanFunction.101", %"class.gpu::VulkanFunctionPointers::VulkanFunction.102", %"class.gpu::VulkanFunctionPointers::VulkanFunction.103", %"class.gpu::VulkanFunctionPointers::VulkanFunction.104", %"class.gpu::VulkanFunctionPointers::VulkanFunction.105", %"class.gpu::VulkanFunctionPointers::VulkanFunction.106", %"class.gpu::VulkanFunctionPointers::VulkanFunction.107", %"class.gpu::VulkanFunctionPointers::VulkanFunction.108", %"class.gpu::VulkanFunctionPointers::VulkanFunction.109", %"class.gpu::VulkanFunctionPointers::VulkanFunction.110", %"class.gpu::VulkanFunctionPointers::VulkanFunction.111", %"class.gpu::VulkanFunctionPointers::VulkanFunction.112", %"class.gpu::VulkanFunctionPointers::VulkanFunction.113", %"class.gpu::VulkanFunctionPointers::VulkanFunction.114", %"class.gpu::VulkanFunctionPointers::VulkanFunction.115", %"class.gpu::VulkanFunctionPointers::VulkanFunction.116", %"class.gpu::VulkanFunctionPointers::VulkanFunction.117", %"class.gpu::VulkanFunctionPointers::VulkanFunction.118", %"class.gpu::VulkanFunctionPointers::VulkanFunction.119", %"class.gpu::VulkanFunctionPointers::VulkanFunction.120" }
%"class.gpu::VulkanFunctionPointers::VulkanFunction" = type { void ()* (%struct.VkInstance_T*, i8*)* }
%"class.gpu::VulkanFunctionPointers::VulkanFunction.23" = type { i32 (i32*)* }
%"class.gpu::VulkanFunctionPointers::VulkanFunction.24" = type { i32 (%struct.VkInstanceCreateInfo*, %struct.VkAllocationCallbacks*, %struct.VkInstance_T**)* }
%struct.VkInstanceCreateInfo = type { i32, i8*, i32, %struct.VkApplicationInfo*, i32, i8**, i32, i8** }
%struct.VkApplicationInfo = type { i32, i8*, i8*, i32, i8*, i32, i32 }
%struct.VkAllocationCallbacks = type { i8*, i8* (i8*, i64, i64, i32)*, i8* (i8*, i8*, i64, i64, i32)*, void (i8*, i8*)*, void (i8*, i64, i32, i32)*, void (i8*, i64, i32, i32)* }
%"class.gpu::VulkanFunctionPointers::VulkanFunction.25" = type { i32 (i8*, i32*, %struct.VkExtensionProperties*)* }
%struct.VkExtensionProperties = type { [256 x i8], i32 }
%"class.gpu::VulkanFunctionPointers::VulkanFunction.26" = type { i32 (i32*, %struct.VkLayerProperties*)* }
%struct.VkLayerProperties = type { [256 x i8], i32, i32, [256 x i8] }
%"class.gpu::VulkanFunctionPointers::VulkanFunction.27" = type { i32 (%struct.VkPhysicalDevice_T*, %struct.VkDeviceCreateInfo*, %struct.VkAllocationCallbacks*, %struct.VkDevice_T**)* }
%struct.VkDeviceCreateInfo = type { i32, i8*, i32, i32, %struct.VkDeviceQueueCreateInfo*, i32, i8**, i32, i8**, %struct.VkPhysicalDeviceFeatures* }
%struct.VkDeviceQueueCreateInfo = type { i32, i8*, i32, i32, i32, float* }
%"class.gpu::VulkanFunctionPointers::VulkanFunction.28" = type { void (%struct.VkInstance_T*, %struct.VkAllocationCallbacks*)* }
%"class.gpu::VulkanFunctionPointers::VulkanFunction.29" = type { i32 (%struct.VkPhysicalDevice_T*, i8*, i32*, %struct.VkExtensionProperties*)* }
%"class.gpu::VulkanFunctionPointers::VulkanFunction.30" = type { i32 (%struct.VkPhysicalDevice_T*, i32*, %struct.VkLayerProperties*)* }
%"class.gpu::VulkanFunctionPointers::VulkanFunction.31" = type { i32 (%struct.VkInstance_T*, i32*, %struct.VkPhysicalDevice_T**)* }
%"class.gpu::VulkanFunctionPointers::VulkanFunction.32" = type { void ()* (%struct.VkDevice_T*, i8*)* }
%"class.gpu::VulkanFunctionPointers::VulkanFunction.33" = type { void (%struct.VkPhysicalDevice_T*, %struct.VkPhysicalDeviceFeatures2*)* }
%"class.gpu::VulkanFunctionPointers::VulkanFunction.34" = type { void (%struct.VkPhysicalDevice_T*, i32, %struct.VkFormatProperties*)* }
%struct.VkFormatProperties = type { i32, i32, i32 }
%"class.gpu::VulkanFunctionPointers::VulkanFunction.35" = type { void (%struct.VkPhysicalDevice_T*, i32, %struct.VkFormatProperties2*)* }
%struct.VkFormatProperties2 = type { i32, i8*, %struct.VkFormatProperties }
%"class.gpu::VulkanFunctionPointers::VulkanFunction.36" = type { i32 (%struct.VkPhysicalDevice_T*, %struct.VkPhysicalDeviceImageFormatInfo2*, %struct.VkImageFormatProperties2*)* }
%struct.VkPhysicalDeviceImageFormatInfo2 = type { i32, i8*, i32, i32, i32, i32, i32 }
%struct.VkImageFormatProperties2 = type { i32, i8*, %struct.VkImageFormatProperties }
%struct.VkImageFormatProperties = type { %struct.VkExtent3D, i32, i32, i32, i64 }
%struct.VkExtent3D = type { i32, i32, i32 }
%"class.gpu::VulkanFunctionPointers::VulkanFunction.37" = type { void (%struct.VkPhysicalDevice_T*, %struct.VkPhysicalDeviceMemoryProperties*)* }
%struct.VkPhysicalDeviceMemoryProperties = type { i32, [32 x %struct.VkMemoryType], i32, [16 x %struct.VkMemoryHeap] }
%struct.VkMemoryType = type { i32, i32 }
%struct.VkMemoryHeap = type { i64, i32 }
%"class.gpu::VulkanFunctionPointers::VulkanFunction.38" = type { void (%struct.VkPhysicalDevice_T*, %struct.VkPhysicalDeviceMemoryProperties2*)* }
%struct.VkPhysicalDeviceMemoryProperties2 = type { i32, i8*, %struct.VkPhysicalDeviceMemoryProperties }
%"class.gpu::VulkanFunctionPointers::VulkanFunction.39" = type { void (%struct.VkPhysicalDevice_T*, %struct.VkPhysicalDeviceProperties*)* }
%"class.gpu::VulkanFunctionPointers::VulkanFunction.40" = type { void (%struct.VkPhysicalDevice_T*, %struct.VkPhysicalDeviceProperties2*)* }
%struct.VkPhysicalDeviceProperties2 = type { i32, i8*, %struct.VkPhysicalDeviceProperties }
%"class.gpu::VulkanFunctionPointers::VulkanFunction.41" = type { void (%struct.VkPhysicalDevice_T*, i32*, %struct.VkQueueFamilyProperties*)* }
%struct.VkQueueFamilyProperties = type { i32, i32, i32, %struct.VkExtent3D }
%"class.gpu::VulkanFunctionPointers::VulkanFunction.42" = type { void (%struct.VkInstance_T*, %struct.VkSurfaceKHR_T*, %struct.VkAllocationCallbacks*)* }
%struct.VkSurfaceKHR_T = type opaque
%"class.gpu::VulkanFunctionPointers::VulkanFunction.43" = type { i32 (%struct.VkPhysicalDevice_T*, %struct.VkSurfaceKHR_T*, %struct.VkSurfaceCapabilitiesKHR*)* }
%struct.VkSurfaceCapabilitiesKHR = type { i32, i32, %struct.VkExtent2D, %struct.VkExtent2D, %struct.VkExtent2D, i32, i32, i32, i32, i32 }
%struct.VkExtent2D = type { i32, i32 }
%"class.gpu::VulkanFunctionPointers::VulkanFunction.44" = type { i32 (%struct.VkPhysicalDevice_T*, %struct.VkSurfaceKHR_T*, i32*, %struct.VkSurfaceFormatKHR*)* }
%struct.VkSurfaceFormatKHR = type { i32, i32 }
%"class.gpu::VulkanFunctionPointers::VulkanFunction.45" = type { i32 (%struct.VkPhysicalDevice_T*, i32, %struct.VkSurfaceKHR_T*, i32*)* }
%"class.gpu::VulkanFunctionPointers::VulkanFunction.46" = type { i32 (%struct.VkInstance_T*, %struct.VkXcbSurfaceCreateInfoKHR*, %struct.VkAllocationCallbacks*, %struct.VkSurfaceKHR_T**)* }
%struct.VkXcbSurfaceCreateInfoKHR = type { i32, i8*, i32, %struct.xcb_connection_t*, i32 }
%struct.xcb_connection_t = type opaque
%"class.gpu::VulkanFunctionPointers::VulkanFunction.47" = type { i32 (%struct.VkPhysicalDevice_T*, i32, %struct.xcb_connection_t*, i32)* }
%"class.gpu::VulkanFunctionPointers::VulkanFunction.48" = type { i32 (%struct.VkDevice_T*, %struct.VkCommandBufferAllocateInfo*, %struct.VkCommandBuffer_T**)* }
%struct.VkCommandBufferAllocateInfo = type { i32, i8*, %struct.VkCommandPool_T*, i32, i32 }
%struct.VkCommandBuffer_T = type opaque
%"class.gpu::VulkanFunctionPointers::VulkanFunction.49" = type { i32 (%struct.VkDevice_T*, %struct.VkDescriptorSetAllocateInfo*, %struct.VkDescriptorSet_T**)* }
%struct.VkDescriptorSetAllocateInfo = type { i32, i8*, %struct.VkDescriptorPool_T*, i32, %struct.VkDescriptorSetLayout_T** }
%struct.VkDescriptorPool_T = type opaque
%struct.VkDescriptorSetLayout_T = type opaque
%struct.VkDescriptorSet_T = type opaque
%"class.gpu::VulkanFunctionPointers::VulkanFunction.50" = type { i32 (%struct.VkDevice_T*, %struct.VkMemoryAllocateInfo*, %struct.VkAllocationCallbacks*, %struct.VkDeviceMemory_T**)* }
%struct.VkMemoryAllocateInfo = type { i32, i8*, i64, i32 }
%struct.VkDeviceMemory_T = type opaque
%"class.gpu::VulkanFunctionPointers::VulkanFunction.51" = type { i32 (%struct.VkCommandBuffer_T*, %struct.VkCommandBufferBeginInfo*)* }
%struct.VkCommandBufferBeginInfo = type { i32, i8*, i32, %struct.VkCommandBufferInheritanceInfo* }
%struct.VkCommandBufferInheritanceInfo = type { i32, i8*, %struct.VkRenderPass_T*, i32, %struct.VkFramebuffer_T*, i32, i32, i32 }
%struct.VkRenderPass_T = type opaque
%struct.VkFramebuffer_T = type opaque
%"class.gpu::VulkanFunctionPointers::VulkanFunction.52" = type { i32 (%struct.VkDevice_T*, %struct.VkBuffer_T*, %struct.VkDeviceMemory_T*, i64)* }
%struct.VkBuffer_T = type opaque
%"class.gpu::VulkanFunctionPointers::VulkanFunction.53" = type { i32 (%struct.VkDevice_T*, i32, %struct.VkBindBufferMemoryInfo*)* }
%struct.VkBindBufferMemoryInfo = type { i32, i8*, %struct.VkBuffer_T*, %struct.VkDeviceMemory_T*, i64 }
%"class.gpu::VulkanFunctionPointers::VulkanFunction.54" = type { i32 (%struct.VkDevice_T*, %struct.VkImage_T*, %struct.VkDeviceMemory_T*, i64)* }
%struct.VkImage_T = type opaque
%"class.gpu::VulkanFunctionPointers::VulkanFunction.55" = type { i32 (%struct.VkDevice_T*, i32, %struct.VkBindImageMemoryInfo*)* }
%struct.VkBindImageMemoryInfo = type { i32, i8*, %struct.VkImage_T*, %struct.VkDeviceMemory_T*, i64 }
%"class.gpu::VulkanFunctionPointers::VulkanFunction.56" = type { void (%struct.VkCommandBuffer_T*, %struct.VkRenderPassBeginInfo*, i32)* }
%struct.VkRenderPassBeginInfo = type { i32, i8*, %struct.VkRenderPass_T*, %struct.VkFramebuffer_T*, %struct.VkRect2D, i32, %union.VkClearValue* }
%struct.VkRect2D = type { %struct.VkOffset2D, %struct.VkExtent2D }
%struct.VkOffset2D = type { i32, i32 }
%union.VkClearValue = type { %union.VkClearColorValue }
%union.VkClearColorValue = type { [4 x float] }
%"class.gpu::VulkanFunctionPointers::VulkanFunction.57" = type { void (%struct.VkCommandBuffer_T*, %struct.VkBuffer_T*, %struct.VkBuffer_T*, i32, %struct.VkBufferCopy*)* }
%struct.VkBufferCopy = type { i64, i64, i64 }
%"class.gpu::VulkanFunctionPointers::VulkanFunction.58" = type { void (%struct.VkCommandBuffer_T*, %struct.VkBuffer_T*, %struct.VkImage_T*, i32, i32, %struct.VkBufferImageCopy*)* }
%struct.VkBufferImageCopy = type { i64, i32, i32, %struct.VkImageSubresourceLayers, %struct.VkOffset3D, %struct.VkExtent3D }
%struct.VkImageSubresourceLayers = type { i32, i32, i32, i32 }
%struct.VkOffset3D = type { i32, i32, i32 }
%"class.gpu::VulkanFunctionPointers::VulkanFunction.59" = type { void (%struct.VkCommandBuffer_T*)* }
%"class.gpu::VulkanFunctionPointers::VulkanFunction.60" = type { void (%struct.VkCommandBuffer_T*, i32, %struct.VkCommandBuffer_T**)* }
%"class.gpu::VulkanFunctionPointers::VulkanFunction.61" = type { void (%struct.VkCommandBuffer_T*, i32)* }
%"class.gpu::VulkanFunctionPointers::VulkanFunction.62" = type { void (%struct.VkCommandBuffer_T*, i32, i32, i32, i32, %struct.VkMemoryBarrier*, i32, %struct.VkBufferMemoryBarrier*, i32, %struct.VkImageMemoryBarrier*)* }
%struct.VkMemoryBarrier = type { i32, i8*, i32, i32 }
%struct.VkBufferMemoryBarrier = type { i32, i8*, i32, i32, i32, i32, %struct.VkBuffer_T*, i64, i64 }
%struct.VkImageMemoryBarrier = type { i32, i8*, i32, i32, i32, i32, i32, i32, %struct.VkImage_T*, %struct.VkImageSubresourceRange }
%struct.VkImageSubresourceRange = type { i32, i32, i32, i32, i32 }
%"class.gpu::VulkanFunctionPointers::VulkanFunction.63" = type { i32 (%struct.VkDevice_T*, %struct.VkBufferCreateInfo*, %struct.VkAllocationCallbacks*, %struct.VkBuffer_T**)* }
%struct.VkBufferCreateInfo = type { i32, i8*, i32, i64, i32, i32, i32, i32* }
%"class.gpu::VulkanFunctionPointers::VulkanFunction.64" = type { i32 (%struct.VkDevice_T*, %struct.VkCommandPoolCreateInfo*, %struct.VkAllocationCallbacks*, %struct.VkCommandPool_T**)* }
%"class.gpu::VulkanFunctionPointers::VulkanFunction.65" = type { i32 (%struct.VkDevice_T*, %struct.VkDescriptorPoolCreateInfo*, %struct.VkAllocationCallbacks*, %struct.VkDescriptorPool_T**)* }
%struct.VkDescriptorPoolCreateInfo = type { i32, i8*, i32, i32, i32, %struct.VkDescriptorPoolSize* }
%struct.VkDescriptorPoolSize = type { i32, i32 }
%"class.gpu::VulkanFunctionPointers::VulkanFunction.66" = type { i32 (%struct.VkDevice_T*, %struct.VkDescriptorSetLayoutCreateInfo*, %struct.VkAllocationCallbacks*, %struct.VkDescriptorSetLayout_T**)* }
%struct.VkDescriptorSetLayoutCreateInfo = type { i32, i8*, i32, i32, %struct.VkDescriptorSetLayoutBinding* }
%struct.VkDescriptorSetLayoutBinding = type { i32, i32, i32, i32, %struct.VkSampler_T** }
%struct.VkSampler_T = type opaque
%"class.gpu::VulkanFunctionPointers::VulkanFunction.67" = type { i32 (%struct.VkDevice_T*, %struct.VkFenceCreateInfo*, %struct.VkAllocationCallbacks*, %struct.VkFence_T**)* }
%struct.VkFenceCreateInfo = type { i32, i8*, i32 }
%"class.gpu::VulkanFunctionPointers::VulkanFunction.68" = type { i32 (%struct.VkDevice_T*, %struct.VkFramebufferCreateInfo*, %struct.VkAllocationCallbacks*, %struct.VkFramebuffer_T**)* }
%struct.VkFramebufferCreateInfo = type { i32, i8*, i32, %struct.VkRenderPass_T*, i32, %struct.VkImageView_T**, i32, i32, i32 }
%struct.VkImageView_T = type opaque
%"class.gpu::VulkanFunctionPointers::VulkanFunction.69" = type { i32 (%struct.VkDevice_T*, %struct.VkPipelineCache_T*, i32, %struct.VkGraphicsPipelineCreateInfo*, %struct.VkAllocationCallbacks*, %struct.VkPipeline_T**)* }
%struct.VkPipelineCache_T = type opaque
%struct.VkGraphicsPipelineCreateInfo = type { i32, i8*, i32, i32, %struct.VkPipelineShaderStageCreateInfo*, %struct.VkPipelineVertexInputStateCreateInfo*, %struct.VkPipelineInputAssemblyStateCreateInfo*, %struct.VkPipelineTessellationStateCreateInfo*, %struct.VkPipelineViewportStateCreateInfo*, %struct.VkPipelineRasterizationStateCreateInfo*, %struct.VkPipelineMultisampleStateCreateInfo*, %struct.VkPipelineDepthStencilStateCreateInfo*, %struct.VkPipelineColorBlendStateCreateInfo*, %struct.VkPipelineDynamicStateCreateInfo*, %struct.VkPipelineLayout_T*, %struct.VkRenderPass_T*, i32, %struct.VkPipeline_T*, i32 }
%struct.VkPipelineShaderStageCreateInfo = type { i32, i8*, i32, i32, %struct.VkShaderModule_T*, i8*, %struct.VkSpecializationInfo* }
%struct.VkShaderModule_T = type opaque
%struct.VkSpecializationInfo = type { i32, %struct.VkSpecializationMapEntry*, i64, i8* }
%struct.VkSpecializationMapEntry = type { i32, i32, i64 }
%struct.VkPipelineVertexInputStateCreateInfo = type { i32, i8*, i32, i32, %struct.VkVertexInputBindingDescription*, i32, %struct.VkVertexInputAttributeDescription* }
%struct.VkVertexInputBindingDescription = type { i32, i32, i32 }
%struct.VkVertexInputAttributeDescription = type { i32, i32, i32, i32 }
%struct.VkPipelineInputAssemblyStateCreateInfo = type { i32, i8*, i32, i32, i32 }
%struct.VkPipelineTessellationStateCreateInfo = type { i32, i8*, i32, i32 }
%struct.VkPipelineViewportStateCreateInfo = type { i32, i8*, i32, i32, %struct.VkViewport*, i32, %struct.VkRect2D* }
%struct.VkViewport = type { float, float, float, float, float, float }
%struct.VkPipelineRasterizationStateCreateInfo = type { i32, i8*, i32, i32, i32, i32, i32, i32, i32, float, float, float, float }
%struct.VkPipelineMultisampleStateCreateInfo = type { i32, i8*, i32, i32, i32, float, i32*, i32, i32 }
%struct.VkPipelineDepthStencilStateCreateInfo = type { i32, i8*, i32, i32, i32, i32, i32, i32, %struct.VkStencilOpState, %struct.VkStencilOpState, float, float }
%struct.VkStencilOpState = type { i32, i32, i32, i32, i32, i32, i32 }
%struct.VkPipelineColorBlendStateCreateInfo = type { i32, i8*, i32, i32, i32, i32, %struct.VkPipelineColorBlendAttachmentState*, [4 x float] }
%struct.VkPipelineColorBlendAttachmentState = type { i32, i32, i32, i32, i32, i32, i32, i32 }
%struct.VkPipelineDynamicStateCreateInfo = type { i32, i8*, i32, i32, i32* }
%struct.VkPipelineLayout_T = type opaque
%struct.VkPipeline_T = type opaque
%"class.gpu::VulkanFunctionPointers::VulkanFunction.70" = type { i32 (%struct.VkDevice_T*, %struct.VkImageCreateInfo*, %struct.VkAllocationCallbacks*, %struct.VkImage_T**)* }
%struct.VkImageCreateInfo = type { i32, i8*, i32, i32, i32, %struct.VkExtent3D, i32, i32, i32, i32, i32, i32, i32, i32*, i32 }
%"class.gpu::VulkanFunctionPointers::VulkanFunction.71" = type { i32 (%struct.VkDevice_T*, %struct.VkImageViewCreateInfo*, %struct.VkAllocationCallbacks*, %struct.VkImageView_T**)* }
%struct.VkImageViewCreateInfo = type { i32, i8*, i32, %struct.VkImage_T*, i32, i32, %struct.VkComponentMapping, %struct.VkImageSubresourceRange }
%struct.VkComponentMapping = type { i32, i32, i32, i32 }
%"class.gpu::VulkanFunctionPointers::VulkanFunction.72" = type { i32 (%struct.VkDevice_T*, %struct.VkRenderPassCreateInfo*, %struct.VkAllocationCallbacks*, %struct.VkRenderPass_T**)* }
%struct.VkRenderPassCreateInfo = type { i32, i8*, i32, i32, %struct.VkAttachmentDescription*, i32, %struct.VkSubpassDescription*, i32, %struct.VkSubpassDependency* }
%struct.VkAttachmentDescription = type { i32, i32, i32, i32, i32, i32, i32, i32, i32 }
%struct.VkSubpassDescription = type { i32, i32, i32, %struct.VkAttachmentReference*, i32, %struct.VkAttachmentReference*, %struct.VkAttachmentReference*, %struct.VkAttachmentReference*, i32, i32* }
%struct.VkAttachmentReference = type { i32, i32 }
%struct.VkSubpassDependency = type { i32, i32, i32, i32, i32, i32, i32 }
%"class.gpu::VulkanFunctionPointers::VulkanFunction.73" = type { i32 (%struct.VkDevice_T*, %struct.VkSamplerCreateInfo*, %struct.VkAllocationCallbacks*, %struct.VkSampler_T**)* }
%struct.VkSamplerCreateInfo = type { i32, i8*, i32, i32, i32, i32, i32, i32, i32, float, i32, float, i32, i32, float, float, i32, i32 }
%"class.gpu::VulkanFunctionPointers::VulkanFunction.74" = type { i32 (%struct.VkDevice_T*, %struct.VkSemaphoreCreateInfo*, %struct.VkAllocationCallbacks*, %struct.VkSemaphore_T**)* }
%struct.VkSemaphoreCreateInfo = type { i32, i8*, i32 }
%struct.VkSemaphore_T = type opaque
%"class.gpu::VulkanFunctionPointers::VulkanFunction.75" = type { i32 (%struct.VkDevice_T*, %struct.VkShaderModuleCreateInfo*, %struct.VkAllocationCallbacks*, %struct.VkShaderModule_T**)* }
%struct.VkShaderModuleCreateInfo = type { i32, i8*, i32, i64, i32* }
%"class.gpu::VulkanFunctionPointers::VulkanFunction.76" = type { void (%struct.VkDevice_T*, %struct.VkBuffer_T*, %struct.VkAllocationCallbacks*)* }
%"class.gpu::VulkanFunctionPointers::VulkanFunction.77" = type { void (%struct.VkDevice_T*, %struct.VkCommandPool_T*, %struct.VkAllocationCallbacks*)* }
%"class.gpu::VulkanFunctionPointers::VulkanFunction.78" = type { void (%struct.VkDevice_T*, %struct.VkDescriptorPool_T*, %struct.VkAllocationCallbacks*)* }
%"class.gpu::VulkanFunctionPointers::VulkanFunction.79" = type { void (%struct.VkDevice_T*, %struct.VkDescriptorSetLayout_T*, %struct.VkAllocationCallbacks*)* }
%"class.gpu::VulkanFunctionPointers::VulkanFunction.80" = type { void (%struct.VkDevice_T*, %struct.VkAllocationCallbacks*)* }
%"class.gpu::VulkanFunctionPointers::VulkanFunction.81" = type { void (%struct.VkDevice_T*, %struct.VkFence_T*, %struct.VkAllocationCallbacks*)* }
%"class.gpu::VulkanFunctionPointers::VulkanFunction.82" = type { void (%struct.VkDevice_T*, %struct.VkFramebuffer_T*, %struct.VkAllocationCallbacks*)* }
%"class.gpu::VulkanFunctionPointers::VulkanFunction.83" = type { void (%struct.VkDevice_T*, %struct.VkImage_T*, %struct.VkAllocationCallbacks*)* }
%"class.gpu::VulkanFunctionPointers::VulkanFunction.84" = type { void (%struct.VkDevice_T*, %struct.VkImageView_T*, %struct.VkAllocationCallbacks*)* }
%"class.gpu::VulkanFunctionPointers::VulkanFunction.85" = type { void (%struct.VkDevice_T*, %struct.VkRenderPass_T*, %struct.VkAllocationCallbacks*)* }
%"class.gpu::VulkanFunctionPointers::VulkanFunction.86" = type { void (%struct.VkDevice_T*, %struct.VkSampler_T*, %struct.VkAllocationCallbacks*)* }
%"class.gpu::VulkanFunctionPointers::VulkanFunction.87" = type { void (%struct.VkDevice_T*, %struct.VkSemaphore_T*, %struct.VkAllocationCallbacks*)* }
%"class.gpu::VulkanFunctionPointers::VulkanFunction.88" = type { void (%struct.VkDevice_T*, %struct.VkShaderModule_T*, %struct.VkAllocationCallbacks*)* }
%"class.gpu::VulkanFunctionPointers::VulkanFunction.89" = type { i32 (%struct.VkDevice_T*)* }
%"class.gpu::VulkanFunctionPointers::VulkanFunction.91" = type { i32 (%struct.VkCommandBuffer_T*)* }
%"class.gpu::VulkanFunctionPointers::VulkanFunction.92" = type { void (%struct.VkDevice_T*, %struct.VkCommandPool_T*, i32, %struct.VkCommandBuffer_T**)* }
%"class.gpu::VulkanFunctionPointers::VulkanFunction.93" = type { i32 (%struct.VkDevice_T*, %struct.VkDescriptorPool_T*, i32, %struct.VkDescriptorSet_T**)* }
%"class.gpu::VulkanFunctionPointers::VulkanFunction.94" = type { void (%struct.VkDevice_T*, %struct.VkDeviceMemory_T*, %struct.VkAllocationCallbacks*)* }
%"class.gpu::VulkanFunctionPointers::VulkanFunction.90" = type { i32 (%struct.VkDevice_T*, i32, %struct.VkMappedMemoryRange*)* }
%struct.VkMappedMemoryRange = type { i32, i8*, %struct.VkDeviceMemory_T*, i64, i64 }
%"class.gpu::VulkanFunctionPointers::VulkanFunction.95" = type { void (%struct.VkDevice_T*, %struct.VkBuffer_T*, %struct.VkMemoryRequirements*)* }
%struct.VkMemoryRequirements = type { i64, i64, i32 }
%"class.gpu::VulkanFunctionPointers::VulkanFunction.96" = type { void (%struct.VkDevice_T*, %struct.VkBufferMemoryRequirementsInfo2*, %struct.VkMemoryRequirements2*)* }
%struct.VkBufferMemoryRequirementsInfo2 = type { i32, i8*, %struct.VkBuffer_T* }
%struct.VkMemoryRequirements2 = type { i32, i8*, %struct.VkMemoryRequirements }
%"class.gpu::VulkanFunctionPointers::VulkanFunction.97" = type { void (%struct.VkDevice_T*, i32, i32, %struct.VkQueue_T**)* }
%"class.gpu::VulkanFunctionPointers::VulkanFunction.98" = type { void (%struct.VkDevice_T*, %struct.VkDeviceQueueInfo2*, %struct.VkQueue_T**)* }
%struct.VkDeviceQueueInfo2 = type { i32, i8*, i32, i32, i32 }
%"class.gpu::VulkanFunctionPointers::VulkanFunction.99" = type { i32 (%struct.VkDevice_T*, %struct.VkFence_T*)* }
%"class.gpu::VulkanFunctionPointers::VulkanFunction.100" = type { void (%struct.VkDevice_T*, %struct.VkImage_T*, %struct.VkMemoryRequirements*)* }
%"class.gpu::VulkanFunctionPointers::VulkanFunction.101" = type { void (%struct.VkDevice_T*, %struct.VkImageMemoryRequirementsInfo2*, %struct.VkMemoryRequirements2*)* }
%struct.VkImageMemoryRequirementsInfo2 = type { i32, i8*, %struct.VkImage_T* }
%"class.gpu::VulkanFunctionPointers::VulkanFunction.102" = type { void (%struct.VkDevice_T*, %struct.VkImage_T*, %struct.VkImageSubresource*, %struct.VkSubresourceLayout*)* }
%struct.VkImageSubresource = type { i32, i32, i32 }
%struct.VkSubresourceLayout = type { i64, i64, i64, i64, i64 }
%"class.gpu::VulkanFunctionPointers::VulkanFunction.103" = type { i32 (%struct.VkDevice_T*, %struct.VkDeviceMemory_T*, i64, i64, i32, i8**)* }
%"class.gpu::VulkanFunctionPointers::VulkanFunction.104" = type { i32 (%struct.VkQueue_T*, i32, %struct.VkSubmitInfo*, %struct.VkFence_T*)* }
%struct.VkSubmitInfo = type { i32, i8*, i32, %struct.VkSemaphore_T**, i32*, i32, %struct.VkCommandBuffer_T**, i32, %struct.VkSemaphore_T** }
%"class.gpu::VulkanFunctionPointers::VulkanFunction.105" = type { i32 (%struct.VkQueue_T*)* }
%"class.gpu::VulkanFunctionPointers::VulkanFunction.106" = type { i32 (%struct.VkCommandBuffer_T*, i32)* }
%"class.gpu::VulkanFunctionPointers::VulkanFunction.107" = type { i32 (%struct.VkDevice_T*, i32, %struct.VkFence_T**)* }
%"class.gpu::VulkanFunctionPointers::VulkanFunction.108" = type { void (%struct.VkDevice_T*, %struct.VkDeviceMemory_T*)* }
%"class.gpu::VulkanFunctionPointers::VulkanFunction.109" = type { void (%struct.VkDevice_T*, i32, %struct.VkWriteDescriptorSet*, i32, %struct.VkCopyDescriptorSet*)* }
%struct.VkWriteDescriptorSet = type { i32, i8*, %struct.VkDescriptorSet_T*, i32, i32, i32, i32, %struct.VkDescriptorImageInfo*, %struct.VkDescriptorBufferInfo*, %struct.VkBufferView_T** }
%struct.VkDescriptorImageInfo = type { %struct.VkSampler_T*, %struct.VkImageView_T*, i32 }
%struct.VkDescriptorBufferInfo = type { %struct.VkBuffer_T*, i64, i64 }
%struct.VkBufferView_T = type opaque
%struct.VkCopyDescriptorSet = type { i32, i8*, %struct.VkDescriptorSet_T*, i32, i32, %struct.VkDescriptorSet_T*, i32, i32, i32 }
%"class.gpu::VulkanFunctionPointers::VulkanFunction.110" = type { i32 (%struct.VkDevice_T*, i32, %struct.VkFence_T**, i32, i64)* }
%"class.gpu::VulkanFunctionPointers::VulkanFunction.111" = type { i32 (%struct.VkDevice_T*, %struct.VkSemaphoreGetFdInfoKHR*, i32*)* }
%struct.VkSemaphoreGetFdInfoKHR = type { i32, i8*, %struct.VkSemaphore_T*, i32 }
%"class.gpu::VulkanFunctionPointers::VulkanFunction.112" = type { i32 (%struct.VkDevice_T*, %struct.VkImportSemaphoreFdInfoKHR*)* }
%struct.VkImportSemaphoreFdInfoKHR = type { i32, i8*, %struct.VkSemaphore_T*, i32, i32, i32 }
%"class.gpu::VulkanFunctionPointers::VulkanFunction.113" = type { i32 (%struct.VkDevice_T*, %struct.VkMemoryGetFdInfoKHR*, i32*)* }
%struct.VkMemoryGetFdInfoKHR = type { i32, i8*, %struct.VkDeviceMemory_T*, i32 }
%"class.gpu::VulkanFunctionPointers::VulkanFunction.114" = type { i32 (%struct.VkDevice_T*, i32, i32, %struct.VkMemoryFdPropertiesKHR*)* }
%struct.VkMemoryFdPropertiesKHR = type { i32, i8*, i32 }
%"class.gpu::VulkanFunctionPointers::VulkanFunction.115" = type { i32 (%struct.VkDevice_T*, %struct.VkSwapchainKHR_T*, i64, %struct.VkSemaphore_T*, %struct.VkFence_T*, i32*)* }
%struct.VkSwapchainKHR_T = type opaque
%"class.gpu::VulkanFunctionPointers::VulkanFunction.116" = type { i32 (%struct.VkDevice_T*, %struct.VkSwapchainCreateInfoKHR*, %struct.VkAllocationCallbacks*, %struct.VkSwapchainKHR_T**)* }
%struct.VkSwapchainCreateInfoKHR = type { i32, i8*, i32, %struct.VkSurfaceKHR_T*, i32, i32, i32, %struct.VkExtent2D, i32, i32, i32, i32, i32*, i32, i32, i32, i32, %struct.VkSwapchainKHR_T* }
%"class.gpu::VulkanFunctionPointers::VulkanFunction.117" = type { void (%struct.VkDevice_T*, %struct.VkSwapchainKHR_T*, %struct.VkAllocationCallbacks*)* }
%"class.gpu::VulkanFunctionPointers::VulkanFunction.118" = type { i32 (%struct.VkDevice_T*, %struct.VkSwapchainKHR_T*, i32*, %struct.VkImage_T**)* }
%"class.gpu::VulkanFunctionPointers::VulkanFunction.119" = type { i32 (%struct.VkQueue_T*, %struct.VkPresentInfoKHR*)* }
%struct.VkPresentInfoKHR = type { i32, i8*, i32, %struct.VkSemaphore_T**, i32, %struct.VkSwapchainKHR_T**, i32*, i32* }
%"class.gpu::VulkanFunctionPointers::VulkanFunction.120" = type { i32 (%struct.VkDevice_T*, %struct.VkImage_T*, %struct.VkImageDrmFormatModifierPropertiesEXT*)* }
%struct.VkImageDrmFormatModifierPropertiesEXT = type { i32, i8*, i64 }
%"class.gpu::VulkanCommandBuffer" = type { i8, i8, i32, %"class.gpu::VulkanDeviceQueue"*, %"class.gpu::VulkanCommandPool"*, %struct.VkCommandBuffer_T*, %"class.gpu::VulkanFenceHelper::FenceHandle" }
%"class.gpu::VulkanFenceHelper::FenceHandle" = type { %struct.VkFence_T*, i64 }

@_ZN3gpu17VulkanCommandPoolC1EPNS_17VulkanDeviceQueueE = hidden unnamed_addr alias void (%"class.gpu::VulkanCommandPool"*, %"class.gpu::VulkanDeviceQueue"*), void (%"class.gpu::VulkanCommandPool"*, %"class.gpu::VulkanDeviceQueue"*)* @_ZN3gpu17VulkanCommandPoolC2EPNS_17VulkanDeviceQueueE
@_ZN3gpu17VulkanCommandPoolD1Ev = hidden unnamed_addr alias void (%"class.gpu::VulkanCommandPool"*), void (%"class.gpu::VulkanCommandPool"*)* @_ZN3gpu17VulkanCommandPoolD2Ev

; Function Attrs: nofree norecurse nounwind ssp uwtable writeonly
define hidden void @_ZN3gpu17VulkanCommandPoolC2EPNS_17VulkanDeviceQueueE(%"class.gpu::VulkanCommandPool"* nocapture, %"class.gpu::VulkanDeviceQueue"*) unnamed_addr #0 align 2 {
  %3 = getelementptr inbounds %"class.gpu::VulkanCommandPool", %"class.gpu::VulkanCommandPool"* %0, i64 0, i32 0
  store %"class.gpu::VulkanDeviceQueue"* %1, %"class.gpu::VulkanDeviceQueue"** %3, align 8
  %4 = getelementptr inbounds %"class.gpu::VulkanCommandPool", %"class.gpu::VulkanCommandPool"* %0, i64 0, i32 1
  store %struct.VkCommandPool_T* null, %struct.VkCommandPool_T** %4, align 8
  %5 = getelementptr inbounds %"class.gpu::VulkanCommandPool", %"class.gpu::VulkanCommandPool"* %0, i64 0, i32 2
  store i32 0, i32* %5, align 8
  %6 = getelementptr inbounds %"class.gpu::VulkanCommandPool", %"class.gpu::VulkanCommandPool"* %0, i64 0, i32 3
  store i8 0, i8* %6, align 4
  ret void
}

; Function Attrs: norecurse nounwind readnone ssp uwtable
define hidden void @_ZN3gpu17VulkanCommandPoolD2Ev(%"class.gpu::VulkanCommandPool"* nocapture) unnamed_addr #1 align 2 {
  ret void
}

; Function Attrs: nounwind ssp uwtable
define hidden zeroext i1 @_ZN3gpu17VulkanCommandPool10InitializeEv(%"class.gpu::VulkanCommandPool"*) local_unnamed_addr #2 align 2 {
  %2 = alloca %struct.VkCommandPoolCreateInfo, align 8
  %3 = bitcast %struct.VkCommandPoolCreateInfo* %2 to i8*
  call void @llvm.lifetime.start.p0i8(i64 24, i8* nonnull %3) #9
  call void @llvm.memset.p0i8.i64(i8* nonnull align 8 %3, i8 0, i64 16, i1 false)
  %4 = getelementptr inbounds %struct.VkCommandPoolCreateInfo, %struct.VkCommandPoolCreateInfo* %2, i64 0, i32 0
  store i32 39, i32* %4, align 8
  %5 = getelementptr inbounds %struct.VkCommandPoolCreateInfo, %struct.VkCommandPoolCreateInfo* %2, i64 0, i32 2
  store i32 2, i32* %5, align 8
  %6 = getelementptr inbounds %"class.gpu::VulkanCommandPool", %"class.gpu::VulkanCommandPool"* %0, i64 0, i32 0
  %7 = load %"class.gpu::VulkanDeviceQueue"*, %"class.gpu::VulkanDeviceQueue"** %6, align 8
  %8 = getelementptr inbounds %"class.gpu::VulkanDeviceQueue", %"class.gpu::VulkanDeviceQueue"* %7, i64 0, i32 7
  %9 = load i32, i32* %8, align 8
  %10 = getelementptr inbounds %struct.VkCommandPoolCreateInfo, %struct.VkCommandPoolCreateInfo* %2, i64 0, i32 3
  store i32 %9, i32* %10, align 4
  %11 = getelementptr inbounds %"class.gpu::VulkanDeviceQueue", %"class.gpu::VulkanDeviceQueue"* %7, i64 0, i32 5
  %12 = load %struct.VkDevice_T*, %struct.VkDevice_T** %11, align 8
  %13 = getelementptr inbounds %"class.gpu::VulkanCommandPool", %"class.gpu::VulkanCommandPool"* %0, i64 0, i32 1
  %14 = tail call %"struct.gpu::VulkanFunctionPointers"* @_ZN3gpu25GetVulkanFunctionPointersEv() #9
  %15 = getelementptr inbounds %"struct.gpu::VulkanFunctionPointers", %"struct.gpu::VulkanFunctionPointers"* %14, i64 0, i32 43, i32 0
  %16 = load i32 (%struct.VkDevice_T*, %struct.VkCommandPoolCreateInfo*, %struct.VkAllocationCallbacks*, %struct.VkCommandPool_T**)*, i32 (%struct.VkDevice_T*, %struct.VkCommandPoolCreateInfo*, %struct.VkAllocationCallbacks*, %struct.VkCommandPool_T**)** %15, align 8
  %17 = call i32 %16(%struct.VkDevice_T* %12, %struct.VkCommandPoolCreateInfo* nonnull %2, %struct.VkAllocationCallbacks* null, %struct.VkCommandPool_T** %13) #9
  %18 = icmp eq i32 %17, 0
  call void @llvm.lifetime.end.p0i8(i64 24, i8* nonnull %3) #9
  ret i1 %18
}

; Function Attrs: argmemonly nounwind
declare void @llvm.lifetime.start.p0i8(i64 immarg, i8* nocapture) #3

; Function Attrs: argmemonly nounwind
declare void @llvm.memset.p0i8.i64(i8* nocapture writeonly, i8, i64, i1 immarg) #3

; Function Attrs: argmemonly nounwind
declare void @llvm.lifetime.end.p0i8(i64 immarg, i8* nocapture) #3

; Function Attrs: nounwind ssp uwtable
define hidden void @_ZN3gpu17VulkanCommandPool7DestroyEv(%"class.gpu::VulkanCommandPool"* nocapture) local_unnamed_addr #2 align 2 {
  %2 = getelementptr inbounds %"class.gpu::VulkanCommandPool", %"class.gpu::VulkanCommandPool"* %0, i64 0, i32 1
  %3 = load %struct.VkCommandPool_T*, %struct.VkCommandPool_T** %2, align 8
  %4 = icmp eq %struct.VkCommandPool_T* %3, null
  br i1 %4, label %13, label %5

5:                                                ; preds = %1
  %6 = getelementptr inbounds %"class.gpu::VulkanCommandPool", %"class.gpu::VulkanCommandPool"* %0, i64 0, i32 0
  %7 = load %"class.gpu::VulkanDeviceQueue"*, %"class.gpu::VulkanDeviceQueue"** %6, align 8
  %8 = getelementptr inbounds %"class.gpu::VulkanDeviceQueue", %"class.gpu::VulkanDeviceQueue"* %7, i64 0, i32 5
  %9 = load %struct.VkDevice_T*, %struct.VkDevice_T** %8, align 8
  %10 = tail call %"struct.gpu::VulkanFunctionPointers"* @_ZN3gpu25GetVulkanFunctionPointersEv() #9
  %11 = getelementptr inbounds %"struct.gpu::VulkanFunctionPointers", %"struct.gpu::VulkanFunctionPointers"* %10, i64 0, i32 56, i32 0
  %12 = load void (%struct.VkDevice_T*, %struct.VkCommandPool_T*, %struct.VkAllocationCallbacks*)*, void (%struct.VkDevice_T*, %struct.VkCommandPool_T*, %struct.VkAllocationCallbacks*)** %11, align 8
  tail call void %12(%struct.VkDevice_T* %9, %struct.VkCommandPool_T* nonnull %3, %struct.VkAllocationCallbacks* null) #9
  store %struct.VkCommandPool_T* null, %struct.VkCommandPool_T** %2, align 8
  br label %13

13:                                               ; preds = %1, %5
  ret void
}

; Function Attrs: nounwind ssp uwtable
define hidden %"class.gpu::VulkanCommandBuffer"* @_ZN3gpu17VulkanCommandPool26CreatePrimaryCommandBufferEv(%"class.gpu::VulkanCommandPool"*) local_unnamed_addr #2 align 2 {
  %2 = tail call i8* @_Znwm(i64 48) #10
  %3 = bitcast i8* %2 to %"class.gpu::VulkanCommandBuffer"*
  %4 = getelementptr inbounds %"class.gpu::VulkanCommandPool", %"class.gpu::VulkanCommandPool"* %0, i64 0, i32 0
  %5 = load %"class.gpu::VulkanDeviceQueue"*, %"class.gpu::VulkanDeviceQueue"** %4, align 8
  tail call void @_ZN3gpu19VulkanCommandBufferC1EPNS_17VulkanDeviceQueueEPNS_17VulkanCommandPoolEb(%"class.gpu::VulkanCommandBuffer"* nonnull %3, %"class.gpu::VulkanDeviceQueue"* %5, %"class.gpu::VulkanCommandPool"* %0, i1 zeroext true) #9
  %6 = ptrtoint i8* %2 to i64
  %7 = tail call zeroext i1 @_ZN3gpu19VulkanCommandBuffer10InitializeEv(%"class.gpu::VulkanCommandBuffer"* nonnull %3) #9
  br i1 %7, label %9, label %8

8:                                                ; preds = %1
  tail call void @_ZN3gpu19VulkanCommandBufferD1Ev(%"class.gpu::VulkanCommandBuffer"* nonnull %3) #9
  tail call void @_ZdlPv(i8* nonnull %2) #10
  br label %9

9:                                                ; preds = %1, %8
  %10 = phi i64 [ 0, %8 ], [ %6, %1 ]
  %11 = inttoptr i64 %10 to %"class.gpu::VulkanCommandBuffer"*
  ret %"class.gpu::VulkanCommandBuffer"* %11
}

; Function Attrs: nobuiltin nofree
declare noalias nonnull i8* @_Znwm(i64) local_unnamed_addr #4

declare void @_ZN3gpu19VulkanCommandBufferC1EPNS_17VulkanDeviceQueueEPNS_17VulkanCommandPoolEb(%"class.gpu::VulkanCommandBuffer"*, %"class.gpu::VulkanDeviceQueue"*, %"class.gpu::VulkanCommandPool"*, i1 zeroext) unnamed_addr #5

declare zeroext i1 @_ZN3gpu19VulkanCommandBuffer10InitializeEv(%"class.gpu::VulkanCommandBuffer"*) local_unnamed_addr #5

; Function Attrs: nounwind ssp uwtable
define hidden %"class.gpu::VulkanCommandBuffer"* @_ZN3gpu17VulkanCommandPool28CreateSecondaryCommandBufferEv(%"class.gpu::VulkanCommandPool"*) local_unnamed_addr #2 align 2 {
  %2 = getelementptr inbounds %"class.gpu::VulkanCommandPool", %"class.gpu::VulkanCommandPool"* %0, i64 0, i32 0
  %3 = tail call i8* @_Znwm(i64 48) #10
  %4 = bitcast i8* %3 to %"class.gpu::VulkanCommandBuffer"*
  %5 = load %"class.gpu::VulkanDeviceQueue"*, %"class.gpu::VulkanDeviceQueue"** %2, align 8
  tail call void @_ZN3gpu19VulkanCommandBufferC1EPNS_17VulkanDeviceQueueEPNS_17VulkanCommandPoolEb(%"class.gpu::VulkanCommandBuffer"* nonnull %4, %"class.gpu::VulkanDeviceQueue"* %5, %"class.gpu::VulkanCommandPool"* %0, i1 zeroext false) #9
  %6 = ptrtoint i8* %3 to i64
  %7 = tail call zeroext i1 @_ZN3gpu19VulkanCommandBuffer10InitializeEv(%"class.gpu::VulkanCommandBuffer"* nonnull %4) #9
  br i1 %7, label %9, label %8

8:                                                ; preds = %1
  tail call void @_ZN3gpu19VulkanCommandBufferD1Ev(%"class.gpu::VulkanCommandBuffer"* nonnull %4) #9
  tail call void @_ZdlPv(i8* nonnull %3) #10
  br label %9

9:                                                ; preds = %1, %8
  %10 = phi i64 [ 0, %8 ], [ %6, %1 ]
  %11 = inttoptr i64 %10 to %"class.gpu::VulkanCommandBuffer"*
  ret %"class.gpu::VulkanCommandBuffer"* %11
}

; Function Attrs: nofree norecurse nounwind ssp uwtable
define hidden void @_ZN3gpu17VulkanCommandPool27IncrementCommandBufferCountEv(%"class.gpu::VulkanCommandPool"* nocapture) local_unnamed_addr #6 align 2 {
  %2 = getelementptr inbounds %"class.gpu::VulkanCommandPool", %"class.gpu::VulkanCommandPool"* %0, i64 0, i32 2
  %3 = load i32, i32* %2, align 8
  %4 = add i32 %3, 1
  store i32 %4, i32* %2, align 8
  ret void
}

; Function Attrs: nofree norecurse nounwind ssp uwtable
define hidden void @_ZN3gpu17VulkanCommandPool27DecrementCommandBufferCountEv(%"class.gpu::VulkanCommandPool"* nocapture) local_unnamed_addr #6 align 2 {
  %2 = getelementptr inbounds %"class.gpu::VulkanCommandPool", %"class.gpu::VulkanCommandPool"* %0, i64 0, i32 2
  %3 = load i32, i32* %2, align 8
  %4 = add i32 %3, -1
  store i32 %4, i32* %2, align 8
  ret void
}

declare %"struct.gpu::VulkanFunctionPointers"* @_ZN3gpu25GetVulkanFunctionPointersEv() local_unnamed_addr #5

; Function Attrs: nounwind
declare void @_ZN3gpu19VulkanCommandBufferD1Ev(%"class.gpu::VulkanCommandBuffer"*) unnamed_addr #7

; Function Attrs: nobuiltin nounwind
declare void @_ZdlPv(i8*) local_unnamed_addr #8

attributes #0 = { nofree norecurse nounwind ssp uwtable writeonly "correctly-rounded-divide-sqrt-fp-math"="false" "disable-tail-calls"="false" "less-precise-fpmad"="false" "min-legal-vector-width"="0" "no-frame-pointer-elim"="false" "no-frame-pointer-elim-non-leaf" "no-infs-fp-math"="false" "no-jump-tables"="false" "no-nans-fp-math"="false" "no-signed-zeros-fp-math"="false" "no-trapping-math"="false" "null-pointer-is-valid"="true" "stack-protector-buffer-size"="4" "target-cpu"="x86-64" "target-features"="+cx8,+fxsr,+mmx,+sse,+sse2,+sse3,+x87" "unsafe-fp-math"="false" "use-soft-float"="false" }
attributes #1 = { norecurse nounwind readnone ssp uwtable "correctly-rounded-divide-sqrt-fp-math"="false" "disable-tail-calls"="false" "less-precise-fpmad"="false" "min-legal-vector-width"="0" "no-frame-pointer-elim"="false" "no-frame-pointer-elim-non-leaf" "no-infs-fp-math"="false" "no-jump-tables"="false" "no-nans-fp-math"="false" "no-signed-zeros-fp-math"="false" "no-trapping-math"="false" "null-pointer-is-valid"="true" "stack-protector-buffer-size"="4" "target-cpu"="x86-64" "target-features"="+cx8,+fxsr,+mmx,+sse,+sse2,+sse3,+x87" "unsafe-fp-math"="false" "use-soft-float"="false" }
attributes #2 = { nounwind ssp uwtable "correctly-rounded-divide-sqrt-fp-math"="false" "disable-tail-calls"="false" "less-precise-fpmad"="false" "min-legal-vector-width"="0" "no-frame-pointer-elim"="false" "no-frame-pointer-elim-non-leaf" "no-infs-fp-math"="false" "no-jump-tables"="false" "no-nans-fp-math"="false" "no-signed-zeros-fp-math"="false" "no-trapping-math"="false" "null-pointer-is-valid"="true" "stack-protector-buffer-size"="4" "target-cpu"="x86-64" "target-features"="+cx8,+fxsr,+mmx,+sse,+sse2,+sse3,+x87" "unsafe-fp-math"="false" "use-soft-float"="false" }
attributes #3 = { argmemonly nounwind }
attributes #4 = { nobuiltin nofree "correctly-rounded-divide-sqrt-fp-math"="false" "disable-tail-calls"="false" "less-precise-fpmad"="false" "no-frame-pointer-elim"="false" "no-frame-pointer-elim-non-leaf" "no-infs-fp-math"="false" "no-nans-fp-math"="false" "no-signed-zeros-fp-math"="false" "no-trapping-math"="false" "null-pointer-is-valid"="true" "stack-protector-buffer-size"="4" "target-cpu"="x86-64" "target-features"="+cx8,+fxsr,+mmx,+sse,+sse2,+sse3,+x87" "unsafe-fp-math"="false" "use-soft-float"="false" }
attributes #5 = { "correctly-rounded-divide-sqrt-fp-math"="false" "disable-tail-calls"="false" "less-precise-fpmad"="false" "no-frame-pointer-elim"="false" "no-frame-pointer-elim-non-leaf" "no-infs-fp-math"="false" "no-nans-fp-math"="false" "no-signed-zeros-fp-math"="false" "no-trapping-math"="false" "null-pointer-is-valid"="true" "stack-protector-buffer-size"="4" "target-cpu"="x86-64" "target-features"="+cx8,+fxsr,+mmx,+sse,+sse2,+sse3,+x87" "unsafe-fp-math"="false" "use-soft-float"="false" }
attributes #6 = { nofree norecurse nounwind ssp uwtable "correctly-rounded-divide-sqrt-fp-math"="false" "disable-tail-calls"="false" "less-precise-fpmad"="false" "min-legal-vector-width"="0" "no-frame-pointer-elim"="false" "no-frame-pointer-elim-non-leaf" "no-infs-fp-math"="false" "no-jump-tables"="false" "no-nans-fp-math"="false" "no-signed-zeros-fp-math"="false" "no-trapping-math"="false" "null-pointer-is-valid"="true" "stack-protector-buffer-size"="4" "target-cpu"="x86-64" "target-features"="+cx8,+fxsr,+mmx,+sse,+sse2,+sse3,+x87" "unsafe-fp-math"="false" "use-soft-float"="false" }
attributes #7 = { nounwind "correctly-rounded-divide-sqrt-fp-math"="false" "disable-tail-calls"="false" "less-precise-fpmad"="false" "no-frame-pointer-elim"="false" "no-frame-pointer-elim-non-leaf" "no-infs-fp-math"="false" "no-nans-fp-math"="false" "no-signed-zeros-fp-math"="false" "no-trapping-math"="false" "null-pointer-is-valid"="true" "stack-protector-buffer-size"="4" "target-cpu"="x86-64" "target-features"="+cx8,+fxsr,+mmx,+sse,+sse2,+sse3,+x87" "unsafe-fp-math"="false" "use-soft-float"="false" }
attributes #8 = { nobuiltin nounwind "correctly-rounded-divide-sqrt-fp-math"="false" "disable-tail-calls"="false" "less-precise-fpmad"="false" "no-frame-pointer-elim"="false" "no-frame-pointer-elim-non-leaf" "no-infs-fp-math"="false" "no-nans-fp-math"="false" "no-signed-zeros-fp-math"="false" "no-trapping-math"="false" "null-pointer-is-valid"="true" "stack-protector-buffer-size"="4" "target-cpu"="x86-64" "target-features"="+cx8,+fxsr,+mmx,+sse,+sse2,+sse3,+x87" "unsafe-fp-math"="false" "use-soft-float"="false" }
attributes #9 = { nounwind }
attributes #10 = { builtin nounwind }

!llvm.module.flags = !{!0, !1}

!0 = !{i32 1, !"wchar_size", i32 4}
!1 = !{i32 7, !"PIC Level", i32 2}
