; ModuleID = 'gen/third_party/blink/public/mojom/bluetooth/web_bluetooth.mojom-blink.cc'
source_filename = "gen/third_party/blink/public/mojom/bluetooth/web_bluetooth.mojom-blink.cc"
target datalayout = "e-m:e-i64:64-f80:128-n8:16:32:64-S128"
target triple = "x86_64-unknown-linux-gnu"

module asm ".symver exp, exp@GLIBC_2.2.5"
module asm ".symver exp2, exp2@GLIBC_2.2.5"
module asm ".symver exp2f, exp2f@GLIBC_2.2.5"
module asm ".symver expf, expf@GLIBC_2.2.5"
module asm ".symver lgamma, lgamma@GLIBC_2.2.5"
module asm ".symver lgammaf, lgammaf@GLIBC_2.2.5"
module asm ".symver lgammal, lgammal@GLIBC_2.2.5"
module asm ".symver log, log@GLIBC_2.2.5"
module asm ".symver log2, log2@GLIBC_2.2.5"
module asm ".symver log2f, log2f@GLIBC_2.2.5"
module asm ".symver logf, logf@GLIBC_2.2.5"
module asm ".symver pow, pow@GLIBC_2.2.5"
module asm ".symver powf, powf@GLIBC_2.2.5"

%"struct.std::__1::pair" = type { i32, %"struct.mojo::internal::GenericValidationInfo" }
%"struct.mojo::internal::GenericValidationInfo" = type { i1 (i8*, %"class.mojo::internal::ValidationContext"*)*, i1 (i8*, %"class.mojo::internal::ValidationContext"*)* }
%"class.mojo::internal::ValidationContext" = type <{ %"class.mojo::Message"*, i8*, i32, [4 x i8], i64, i64, i32, i32, i32, i32, i32, [4 x i8] }>
%"class.mojo::Message" = type { %"class.mojo::ScopedHandleBase", %"class.mojo::internal::Buffer", %"class.std::__1::vector", %"class.std::__1::vector.27", %"class.mojo::ConnectionGroup::Ref"*, i8, i8, i8* }
%"class.mojo::ScopedHandleBase" = type { %"class.mojo::MessageHandle" }
%"class.mojo::MessageHandle" = type { i64 }
%"class.mojo::internal::Buffer" = type { %"class.mojo::MessageHandle", i64, i8*, i64, i64 }
%"class.std::__1::vector" = type { %"class.std::__1::__vector_base" }
%"class.std::__1::__vector_base" = type { %"class.mojo::ScopedHandleBase.21"*, %"class.mojo::ScopedHandleBase.21"*, %"class.std::__1::__compressed_pair.22" }
%"class.mojo::ScopedHandleBase.21" = type { %"class.mojo::Handle" }
%"class.mojo::Handle" = type { i32 }
%"class.std::__1::__compressed_pair.22" = type { %"struct.std::__1::__compressed_pair_elem.23" }
%"struct.std::__1::__compressed_pair_elem.23" = type { %"class.mojo::ScopedHandleBase.21"* }
%"class.std::__1::vector.27" = type { %"class.std::__1::__vector_base.28" }
%"class.std::__1::__vector_base.28" = type { %"class.mojo::ScopedInterfaceEndpointHandle"*, %"class.mojo::ScopedInterfaceEndpointHandle"*, %"class.std::__1::__compressed_pair.30" }
%"class.mojo::ScopedInterfaceEndpointHandle" = type { %class.scoped_refptr.29 }
%class.scoped_refptr.29 = type { %"class.mojo::ScopedInterfaceEndpointHandle::State"* }
%"class.mojo::ScopedInterfaceEndpointHandle::State" = type opaque
%"class.std::__1::__compressed_pair.30" = type { %"struct.std::__1::__compressed_pair_elem.31" }
%"struct.std::__1::__compressed_pair_elem.31" = type { %"class.mojo::ScopedInterfaceEndpointHandle"* }
%"class.mojo::ConnectionGroup::Ref" = type { i32, %class.scoped_refptr.35 }
%class.scoped_refptr.35 = type { %"class.mojo::ConnectionGroup"* }
%"class.mojo::ConnectionGroup" = type <{ i32 (...)**, %"class.base::RefCountedThreadSafe", [4 x i8], %"class.base::RepeatingCallback", %class.scoped_refptr.43, %"class.mojo::ConnectionGroup::Ref", %"struct.std::__1::atomic", [4 x i8] }>
%"class.base::RefCountedThreadSafe" = type { %"class.base::subtle::RefCountedThreadSafeBase" }
%"class.base::subtle::RefCountedThreadSafeBase" = type { %"class.base::AtomicRefCount" }
%"class.base::AtomicRefCount" = type { %"struct.std::__1::atomic.36" }
%"struct.std::__1::atomic.36" = type { %"struct.std::__1::__atomic_base.37" }
%"struct.std::__1::__atomic_base.37" = type { %"struct.std::__1::__atomic_base.38" }
%"struct.std::__1::__atomic_base.38" = type { %"struct.std::__1::__cxx_atomic_impl.39" }
%"struct.std::__1::__cxx_atomic_impl.39" = type { %"struct.std::__1::__cxx_atomic_base_impl.40" }
%"struct.std::__1::__cxx_atomic_base_impl.40" = type { i32 }
%"class.base::RepeatingCallback" = type { %"class.base::internal::CallbackBaseCopyable" }
%"class.base::internal::CallbackBaseCopyable" = type { %"class.base::internal::CallbackBase" }
%"class.base::internal::CallbackBase" = type { %class.scoped_refptr.41 }
%class.scoped_refptr.41 = type { %"class.base::internal::BindStateBase"* }
%"class.base::internal::BindStateBase" = type { %"class.base::RefCountedThreadSafe.42", void ()*, void (%"class.base::internal::BindStateBase"*)*, i1 (%"class.base::internal::BindStateBase"*, i32)* }
%"class.base::RefCountedThreadSafe.42" = type { %"class.base::subtle::RefCountedThreadSafeBase" }
%class.scoped_refptr.43 = type { %"class.base::SequencedTaskRunner"* }
%"class.base::SequencedTaskRunner" = type { %"class.base::TaskRunner.base", [4 x i8] }
%"class.base::TaskRunner.base" = type <{ i32 (...)**, %"class.base::RefCountedThreadSafe.44" }>
%"class.base::RefCountedThreadSafe.44" = type { %"class.base::subtle::RefCountedThreadSafeBase" }
%"struct.std::__1::atomic" = type { %"struct.std::__1::__atomic_base" }
%"struct.std::__1::__atomic_base" = type { %"struct.std::__1::__atomic_base.0" }
%"struct.std::__1::__atomic_base.0" = type { %"struct.std::__1::__cxx_atomic_impl" }
%"struct.std::__1::__cxx_atomic_impl" = type { %"struct.std::__1::__cxx_atomic_base_impl" }
%"struct.std::__1::__cxx_atomic_base_impl" = type { i32 }
%"class.std::__1::locale::id" = type <{ %"struct.std::__1::once_flag", i32, [4 x i8] }>
%"struct.std::__1::once_flag" = type { i64 }
%"class.blink::mojom::blink::WebBluetoothLeScanFilter" = type { %"class.absl::optional", %"class.WTF::String", %"class.WTF::String", %"class.absl::optional.1" }
%"class.absl::optional" = type { %"class.absl::optional_internal::optional_data" }
%"class.absl::optional_internal::optional_data" = type { %"class.absl::optional_internal::optional_data_base" }
%"class.absl::optional_internal::optional_data_base" = type { %"class.absl::optional_internal::optional_data_dtor_base" }
%"class.absl::optional_internal::optional_data_dtor_base" = type { i8, %union.anon }
%union.anon = type { %"class.WTF::Vector" }
%"class.WTF::Vector" = type { %"class.WTF::VectorBuffer" }
%"class.WTF::VectorBuffer" = type { %"class.WTF::VectorBufferBase" }
%"class.WTF::VectorBufferBase" = type { %"class.WTF::String"*, i32, i32 }
%"class.WTF::String" = type { %class.scoped_refptr }
%class.scoped_refptr = type { %"class.WTF::StringImpl"* }
%"class.WTF::StringImpl" = type { i32, i32, %"struct.std::__1::atomic" }
%"class.absl::optional.1" = type { %"class.absl::optional_internal::optional_data.2" }
%"class.absl::optional_internal::optional_data.2" = type { %"class.absl::optional_internal::optional_data_base.3" }
%"class.absl::optional_internal::optional_data_base.3" = type { %"class.absl::optional_internal::optional_data_dtor_base.4" }
%"class.absl::optional_internal::optional_data_dtor_base.4" = type { i8, [7 x i8], %union.anon.5 }
%union.anon.5 = type { %"class.WTF::HashMap" }
%"class.WTF::HashMap" = type { %"class.WTF::HashTable" }
%"class.WTF::HashTable" = type <{ %"struct.WTF::KeyValuePair"*, i32, i32, i32, [4 x i8] }>
%"struct.WTF::KeyValuePair" = type { %"class.mojo::InlinedStructPtr", %"class.WTF::Vector.8" }
%"class.mojo::InlinedStructPtr" = type { %"class.blink::mojom::blink::WebBluetoothCompany", i32 }
%"class.blink::mojom::blink::WebBluetoothCompany" = type { i16 }
%"class.WTF::Vector.8" = type { %"class.WTF::VectorBuffer.9" }
%"class.WTF::VectorBuffer.9" = type { %"class.WTF::VectorBufferBase.10" }
%"class.WTF::VectorBufferBase.10" = type { %"class.mojo::InlinedStructPtr.11"*, i32, i32 }
%"class.mojo::InlinedStructPtr.11" = type { %"class.blink::mojom::blink::WebBluetoothDataFilter", i32 }
%"class.blink::mojom::blink::WebBluetoothDataFilter" = type { i8, i8 }
%"class.blink::mojom::blink::WebBluetoothRequestDeviceOptions" = type <{ %"class.absl::optional.45", %"class.WTF::Vector", %"class.WTF::Vector.58", i8, [7 x i8] }>
%"class.absl::optional.45" = type { %"class.absl::optional_internal::optional_data.46" }
%"class.absl::optional_internal::optional_data.46" = type { %"class.absl::optional_internal::optional_data_base.47" }
%"class.absl::optional_internal::optional_data_base.47" = type { %"class.absl::optional_internal::optional_data_dtor_base.48" }
%"class.absl::optional_internal::optional_data_dtor_base.48" = type { i8, %union.anon.49 }
%union.anon.49 = type { %"class.WTF::Vector.50" }
%"class.WTF::Vector.50" = type { %"class.WTF::VectorBuffer.51" }
%"class.WTF::VectorBuffer.51" = type { %"class.WTF::VectorBufferBase.52" }
%"class.WTF::VectorBufferBase.52" = type { %"class.mojo::StructPtr"*, i32, i32 }
%"class.mojo::StructPtr" = type { %"class.std::__1::unique_ptr" }
%"class.std::__1::unique_ptr" = type { %"class.std::__1::__compressed_pair.53" }
%"class.std::__1::__compressed_pair.53" = type { %"struct.std::__1::__compressed_pair_elem.54" }
%"struct.std::__1::__compressed_pair_elem.54" = type { %"class.blink::mojom::blink::WebBluetoothLeScanFilter"* }
%"class.WTF::Vector.58" = type { %"class.WTF::VectorBuffer.59" }
%"class.WTF::VectorBuffer.59" = type { %"class.WTF::VectorBufferBase.60" }
%"class.WTF::VectorBufferBase.60" = type { i16*, i32, i32 }
%"class.blink::mojom::blink::WebBluetoothRequestLEScanOptions" = type <{ %"class.absl::optional.45", i8, i8, [6 x i8] }>
%"class.blink::mojom::blink::WebBluetoothDeviceId" = type { %"class.WTF::String" }
%"class.blink::mojom::blink::WebBluetoothDevice" = type { %"class.WTF::String", %"class.WTF::String" }
%"class.blink::mojom::blink::WebBluetoothRemoteGATTService" = type { %"class.WTF::String", %"class.WTF::String" }
%"class.blink::mojom::blink::WebBluetoothRemoteGATTCharacteristic" = type <{ %"class.WTF::String", %"class.WTF::String", i32, [4 x i8] }>
%"class.blink::mojom::blink::WebBluetoothAdvertisingEvent" = type { %"class.mojo::StructPtr.63", %"class.WTF::String", %"class.WTF::Vector", i8, i16, i8, i8, i8, i8, %"class.WTF::HashMap.70", %"class.WTF::HashMap.80" }
%"class.mojo::StructPtr.63" = type { %"class.std::__1::unique_ptr.64" }
%"class.std::__1::unique_ptr.64" = type { %"class.std::__1::__compressed_pair.65" }
%"class.std::__1::__compressed_pair.65" = type { %"struct.std::__1::__compressed_pair_elem.66" }
%"struct.std::__1::__compressed_pair_elem.66" = type { %"class.blink::mojom::blink::WebBluetoothDevice"* }
%"class.WTF::HashMap.70" = type { %"class.WTF::HashTable.71" }
%"class.WTF::HashTable.71" = type <{ %"struct.WTF::KeyValuePair.74"*, i32, i32, i32, [4 x i8] }>
%"struct.WTF::KeyValuePair.74" = type { i16, %"class.WTF::Vector.75" }
%"class.WTF::Vector.75" = type { %"class.WTF::VectorBuffer.76" }
%"class.WTF::VectorBuffer.76" = type { %"class.WTF::VectorBufferBase.77" }
%"class.WTF::VectorBufferBase.77" = type { i8*, i32, i32 }
%"class.WTF::HashMap.80" = type { %"class.WTF::HashTable.81" }
%"class.WTF::HashTable.81" = type <{ %"struct.WTF::KeyValuePair.84"*, i32, i32, i32, [4 x i8] }>
%"struct.WTF::KeyValuePair.84" = type { %"class.WTF::String", %"class.WTF::Vector.75" }
%"class.blink::mojom::blink::WebBluetoothRemoteGATTDescriptor" = type { %"class.WTF::String", %"class.WTF::String" }
%"class.blink::mojom::blink::WebBluetoothServiceProxy" = type { %"class.blink::mojom::blink::WebBluetoothService", %"class.mojo::MessageReceiverWithResponder"* }
%"class.blink::mojom::blink::WebBluetoothService" = type { i32 (...)** }
%"class.mojo::MessageReceiverWithResponder" = type { %"class.mojo::MessageReceiver" }
%"class.mojo::MessageReceiver" = type { i32 (...)** }
%"class.blink::mojom::blink::WebBluetoothServerClientProxy" = type { %"class.blink::mojom::blink::WebBluetoothServerClient", %"class.mojo::MessageReceiverWithResponder"* }
%"class.blink::mojom::blink::WebBluetoothServerClient" = type { i32 (...)** }
%"class.blink::mojom::blink::WebBluetoothCharacteristicClientProxy" = type { %"class.blink::mojom::blink::WebBluetoothCharacteristicClient", %"class.mojo::MessageReceiverWithResponder"* }
%"class.blink::mojom::blink::WebBluetoothCharacteristicClient" = type { i32 (...)** }
%"class.blink::mojom::blink::WebBluetoothAdvertisementClientProxy" = type { %"class.blink::mojom::blink::WebBluetoothAdvertisementClient", %"class.mojo::MessageReceiverWithResponder"* }
%"class.blink::mojom::blink::WebBluetoothAdvertisementClient" = type { i32 (...)** }
%"class.perfetto::TracedValue" = type <{ %"class.perfetto::protos::pbzero::DebugAnnotation"*, %"class.perfetto::internal::CheckedScope", [7 x i8] }>
%"class.perfetto::protos::pbzero::DebugAnnotation" = type { %"class.protozero::Message.base", [7 x i8] }
%"class.protozero::Message.base" = type <{ %"class.protozero::ScatteredStreamWriter"*, %"class.protozero::MessageArena"*, %"class.protozero::Message"*, i8*, i32, i32, i8 }>
%"class.protozero::ScatteredStreamWriter" = type { %"class.protozero::ScatteredStreamWriter::Delegate"*, %"struct.protozero::ContiguousMemoryRange", i8*, i64 }
%"class.protozero::ScatteredStreamWriter::Delegate" = type { i32 (...)** }
%"struct.protozero::ContiguousMemoryRange" = type { i8*, i8* }
%"class.protozero::MessageArena" = type { %"class.std::__1::list" }
%"class.std::__1::list" = type { %"class.std::__1::__list_imp" }
%"class.std::__1::__list_imp" = type { %"struct.std::__1::__list_node_base", %"class.std::__1::__compressed_pair" }
%"struct.std::__1::__list_node_base" = type { %"struct.std::__1::__list_node_base"*, %"struct.std::__1::__list_node_base"* }
%"class.std::__1::__compressed_pair" = type { %"struct.std::__1::__compressed_pair_elem" }
%"struct.std::__1::__compressed_pair_elem" = type { i64 }
%"class.protozero::Message" = type <{ %"class.protozero::ScatteredStreamWriter"*, %"class.protozero::MessageArena"*, %"class.protozero::Message"*, i8*, i32, i32, i8, [7 x i8] }>
%"class.perfetto::internal::CheckedScope" = type { i8 }
%"class.perfetto::TracedArray" = type <{ %"class.perfetto::protos::pbzero::DebugAnnotation"*, %"class.perfetto::internal::CheckedScope", [7 x i8] }>
%"class.perfetto::TracedDictionary" = type <{ %"class.protozero::Message"*, i32, %"class.perfetto::internal::CheckedScope", [3 x i8] }>
%"class.std::__1::basic_string" = type { %"class.std::__1::__compressed_pair.15" }
%"class.std::__1::__compressed_pair.15" = type { %"struct.std::__1::__compressed_pair_elem.16" }
%"struct.std::__1::__compressed_pair_elem.16" = type { %"struct.std::__1::basic_string<char, std::__1::char_traits<char>, std::__1::allocator<char> >::__rep" }
%"struct.std::__1::basic_string<char, std::__1::char_traits<char>, std::__1::allocator<char> >::__rep" = type { %union.anon.17 }
%union.anon.17 = type { %"struct.std::__1::basic_string<char, std::__1::char_traits<char>, std::__1::allocator<char> >::__long" }
%"struct.std::__1::basic_string<char, std::__1::char_traits<char>, std::__1::allocator<char> >::__long" = type { i8*, i64, i64 }
%"struct.std::__1::basic_string<char, std::__1::char_traits<char>, std::__1::allocator<char> >::__short" = type { [23 x i8], %struct.anon }
%struct.anon = type { i8 }
%"class.base::OnceCallback" = type { %"class.base::internal::CallbackBase" }
%"class.blink::mojom::internal::WebBluetoothService_GetAvailability_Params_Data" = type { %"struct.mojo::internal::StructHeader" }
%"struct.mojo::internal::StructHeader" = type { i32, i32 }
%"class.mojo::StructPtr.91" = type { %"class.std::__1::unique_ptr.92" }
%"class.std::__1::unique_ptr.92" = type { %"class.std::__1::__compressed_pair.93" }
%"class.std::__1::__compressed_pair.93" = type { %"struct.std::__1::__compressed_pair_elem.94" }
%"struct.std::__1::__compressed_pair_elem.94" = type { %"class.blink::mojom::blink::WebBluetoothRequestDeviceOptions"* }
%"class.base::OnceCallback.98" = type { %"class.base::internal::CallbackBase" }
%"class.mojo::internal::MessageFragment.100" = type { %"class.mojo::Message"*, i64 }
%"class.blink::mojom::internal::WebBluetoothService_RequestDevice_Params_Data" = type { %"struct.mojo::internal::StructHeader", %"struct.mojo::internal::Pointer" }
%"struct.mojo::internal::Pointer" = type { i64 }
%"class.blink::mojom::internal::WebBluetoothRequestDeviceOptions_Data" = type { %"struct.mojo::internal::StructHeader", %"struct.mojo::internal::Pointer.101", %"struct.mojo::internal::Pointer.102", %"struct.mojo::internal::Pointer.103", i8, [7 x i8] }
%"struct.mojo::internal::Pointer.101" = type { i64 }
%"struct.mojo::internal::Pointer.102" = type { i64 }
%"struct.mojo::internal::Pointer.103" = type { i64 }
%"class.base::OnceCallback.104" = type { %"class.base::internal::CallbackBase" }
%"class.blink::mojom::internal::WebBluetoothService_GetDevices_Params_Data" = type { %"struct.mojo::internal::StructHeader" }
%"class.mojo::PendingAssociatedRemote" = type <{ %"class.mojo::ScopedInterfaceEndpointHandle", i32, [4 x i8] }>
%"class.base::OnceCallback.106" = type { %"class.base::internal::CallbackBase" }
%"class.mojo::internal::MessageFragment.108" = type { %"class.mojo::Message"*, i64 }
%"class.blink::mojom::internal::WebBluetoothService_RemoteServerConnect_Params_Data" = type { %"struct.mojo::internal::StructHeader", %"struct.mojo::internal::Pointer.109", %"struct.mojo::internal::AssociatedInterface_Data" }
%"struct.mojo::internal::Pointer.109" = type { i64 }
%"struct.mojo::internal::AssociatedInterface_Data" = type { %"struct.mojo::internal::AssociatedEndpointHandle_Data", i32 }
%"struct.mojo::internal::AssociatedEndpointHandle_Data" = type { i32 }
%"class.blink::mojom::internal::WebBluetoothDeviceId_Data" = type { %"struct.mojo::internal::StructHeader", %"struct.mojo::internal::Pointer.110" }
%"struct.mojo::internal::Pointer.110" = type { i64 }
%"class.blink::mojom::internal::WebBluetoothService_RemoteServerDisconnect_Params_Data" = type { %"struct.mojo::internal::StructHeader", %"struct.mojo::internal::Pointer.109" }
%"class.base::OnceCallback.112" = type { %"class.base::internal::CallbackBase" }
%"class.mojo::internal::MessageFragment.115" = type { %"class.mojo::Message"*, i64 }
%"class.blink::mojom::internal::WebBluetoothService_RemoteServerGetPrimaryServices_Params_Data" = type { %"struct.mojo::internal::StructHeader", %"struct.mojo::internal::Pointer.109", i32, [4 x i8], %"struct.mojo::internal::Pointer.114" }
%"struct.mojo::internal::Pointer.114" = type { i64 }
%"class.bluetooth::mojom::internal::UUID_Data" = type { %"struct.mojo::internal::StructHeader", %"struct.mojo::internal::Pointer.110" }
%"class.base::OnceCallback.116" = type { %"class.base::internal::CallbackBase" }
%"class.WTF::StringUTF8Adaptor" = type <{ %"class.std::__1::basic_string", i8*, i32, [4 x i8] }>
%"class.blink::mojom::internal::WebBluetoothService_RemoteServiceGetCharacteristics_Params_Data" = type { %"struct.mojo::internal::StructHeader", %"struct.mojo::internal::Pointer.110", i32, [4 x i8], %"struct.mojo::internal::Pointer.114" }
%"class.mojo::internal::Array_Data" = type { %"struct.mojo::internal::ArrayHeader" }
%"struct.mojo::internal::ArrayHeader" = type { i32, i32 }
%"class.base::OnceCallback.119" = type { %"class.base::internal::CallbackBase" }
%"class.blink::mojom::internal::WebBluetoothService_RemoteCharacteristicReadValue_Params_Data" = type { %"struct.mojo::internal::StructHeader", %"struct.mojo::internal::Pointer.110" }
%"class.mojo::internal::ContainerValidateParams" = type { i32, i8, %"class.mojo::internal::ContainerValidateParams"*, %"class.mojo::internal::ContainerValidateParams"*, i1 (i32, %"class.mojo::internal::ValidationContext"*)* }
%"class.blink::mojom::internal::WebBluetoothService_RemoteCharacteristicWriteValue_Params_Data" = type { %"struct.mojo::internal::StructHeader", %"struct.mojo::internal::Pointer.110", %"struct.mojo::internal::Pointer.122", i32, [4 x i8] }
%"struct.mojo::internal::Pointer.122" = type { i64 }
%"class.mojo::internal::Array_Data.124" = type { %"struct.mojo::internal::ArrayHeader" }
%"class.mojo::PendingAssociatedRemote.125" = type <{ %"class.mojo::ScopedInterfaceEndpointHandle", i32, [4 x i8] }>
%"class.blink::mojom::internal::WebBluetoothService_RemoteCharacteristicStartNotifications_Params_Data" = type { %"struct.mojo::internal::StructHeader", %"struct.mojo::internal::Pointer.110", %"struct.mojo::internal::AssociatedInterface_Data" }
%"class.base::OnceCallback.128" = type { %"class.base::internal::CallbackBase" }
%"class.blink::mojom::internal::WebBluetoothService_RemoteCharacteristicStopNotifications_Params_Data" = type { %"struct.mojo::internal::StructHeader", %"struct.mojo::internal::Pointer.110" }
%"class.base::OnceCallback.130" = type { %"class.base::internal::CallbackBase" }
%"class.blink::mojom::internal::WebBluetoothService_RemoteCharacteristicGetDescriptors_Params_Data" = type { %"struct.mojo::internal::StructHeader", %"struct.mojo::internal::Pointer.110", i32, [4 x i8], %"struct.mojo::internal::Pointer.114" }
%"class.blink::mojom::internal::WebBluetoothService_RemoteDescriptorReadValue_Params_Data" = type { %"struct.mojo::internal::StructHeader", %"struct.mojo::internal::Pointer.110" }
%"class.blink::mojom::internal::WebBluetoothService_RemoteDescriptorWriteValue_Params_Data" = type { %"struct.mojo::internal::StructHeader", %"struct.mojo::internal::Pointer.110", %"struct.mojo::internal::Pointer.122" }
%"class.mojo::PendingAssociatedRemote.134" = type <{ %"class.mojo::ScopedInterfaceEndpointHandle", i32, [4 x i8] }>
%"class.mojo::StructPtr.136" = type { %"class.std::__1::unique_ptr.137" }
%"class.std::__1::unique_ptr.137" = type { %"class.std::__1::__compressed_pair.138" }
%"class.std::__1::__compressed_pair.138" = type { %"struct.std::__1::__compressed_pair_elem.139" }
%"struct.std::__1::__compressed_pair_elem.139" = type { %"class.blink::mojom::blink::WebBluetoothRequestLEScanOptions"* }
%"class.mojo::internal::MessageFragment.145" = type { %"class.mojo::Message"*, i64 }
%"class.blink::mojom::internal::WebBluetoothService_RequestScanningStart_Params_Data" = type { %"struct.mojo::internal::StructHeader", %"struct.mojo::internal::AssociatedInterface_Data", %"struct.mojo::internal::Pointer.144" }
%"struct.mojo::internal::Pointer.144" = type { i64 }
%"class.blink::mojom::internal::WebBluetoothRequestLEScanOptions_Data" = type { %"struct.mojo::internal::StructHeader", %"struct.mojo::internal::Pointer.101", i8, [7 x i8] }
%"class.blink::mojom::internal::WebBluetoothService_WatchAdvertisementsForDevice_Params_Data" = type { %"struct.mojo::internal::StructHeader", %"struct.mojo::internal::Pointer.109", %"struct.mojo::internal::AssociatedInterface_Data" }
%"class.blink::mojom::blink::WebBluetoothService_GetAvailability_ForwardToCallback" = type { %"class.mojo::MessageReceiver", %"class.base::OnceCallback" }
%"class.blink::mojom::blink::WebBluetoothService_GetAvailability_ProxyToResponder" = type { i64, i8, %"class.std::__1::unique_ptr.147" }
%"class.std::__1::unique_ptr.147" = type { %"class.std::__1::__compressed_pair.148" }
%"class.std::__1::__compressed_pair.148" = type { %"struct.std::__1::__compressed_pair_elem.149" }
%"struct.std::__1::__compressed_pair_elem.149" = type { %"class.mojo::MessageReceiverWithStatus"* }
%"class.mojo::MessageReceiverWithStatus" = type { %"class.mojo::MessageReceiver" }
%"class.blink::mojom::internal::WebBluetoothService_GetAvailability_ResponseParams_Data" = type { %"struct.mojo::internal::StructHeader", i8, [7 x i8] }
%"struct.mojo::internal::MessageHeaderV1" = type { %"struct.mojo::internal::MessageHeader", i64 }
%"struct.mojo::internal::MessageHeader" = type { %"struct.mojo::internal::StructHeader", i32, i32, i32, i32 }
%"class.blink::mojom::blink::WebBluetoothService_RequestDevice_ForwardToCallback" = type { %"class.mojo::MessageReceiver", %"class.base::OnceCallback.98" }
%"class.blink::mojom::internal::WebBluetoothDevice_Data" = type { %"struct.mojo::internal::StructHeader", %"struct.mojo::internal::Pointer.109", %"struct.mojo::internal::Pointer.110" }
%"class.blink::mojom::blink::WebBluetoothService_RequestDevice_ProxyToResponder" = type { i64, i8, %"class.std::__1::unique_ptr.147" }
%"class.mojo::internal::MessageFragment.156" = type { %"class.mojo::Message"*, i64 }
%"class.blink::mojom::internal::WebBluetoothService_RequestDevice_ResponseParams_Data" = type { %"struct.mojo::internal::StructHeader", i32, [4 x i8], %"struct.mojo::internal::Pointer.154" }
%"struct.mojo::internal::Pointer.154" = type { i64 }
%"class.blink::mojom::blink::WebBluetoothService_GetDevices_ForwardToCallback" = type { %"class.mojo::MessageReceiver", %"class.base::OnceCallback.104" }
%"class.WTF::Vector.158" = type { %"class.WTF::VectorBuffer.159" }
%"class.WTF::VectorBuffer.159" = type { %"class.WTF::VectorBufferBase.160" }
%"class.WTF::VectorBufferBase.160" = type { %"class.mojo::StructPtr.63"*, i32, i32 }
%"class.mojo::internal::Array_Data.165" = type { %"struct.mojo::internal::ArrayHeader" }
%"class.blink::mojom::blink::WebBluetoothService_GetDevices_ProxyToResponder" = type { i64, i8, %"class.std::__1::unique_ptr.147" }
%"class.blink::mojom::internal::WebBluetoothService_GetDevices_ResponseParams_Data" = type { %"struct.mojo::internal::StructHeader", %"struct.mojo::internal::Pointer.157" }
%"struct.mojo::internal::Pointer.157" = type { i64 }
%"class.blink::mojom::blink::WebBluetoothService_RemoteServerConnect_ForwardToCallback" = type { %"class.mojo::MessageReceiver", %"class.base::OnceCallback.106" }
%"class.blink::mojom::blink::WebBluetoothService_RemoteServerConnect_ProxyToResponder" = type { i64, i8, %"class.std::__1::unique_ptr.147" }
%"class.blink::mojom::internal::WebBluetoothService_RemoteServerConnect_ResponseParams_Data" = type { %"struct.mojo::internal::StructHeader", i32, [4 x i8] }
%"class.blink::mojom::blink::WebBluetoothService_RemoteServerGetPrimaryServices_ForwardToCallback" = type { %"class.mojo::MessageReceiver", %"class.base::OnceCallback.112" }
%"class.mojo::internal::Array_Data.187" = type { %"struct.mojo::internal::ArrayHeader" }
%"class.absl::optional.168" = type { %"class.absl::optional_internal::optional_data.169" }
%"class.absl::optional_internal::optional_data.169" = type { %"class.absl::optional_internal::optional_data_base.170" }
%"class.absl::optional_internal::optional_data_base.170" = type { %"class.absl::optional_internal::optional_data_dtor_base.171" }
%"class.absl::optional_internal::optional_data_dtor_base.171" = type { i8, %union.anon.172 }
%union.anon.172 = type { %"class.WTF::Vector.173" }
%"class.WTF::Vector.173" = type { %"class.WTF::VectorBuffer.174" }
%"class.WTF::VectorBuffer.174" = type { %"class.WTF::VectorBufferBase.175" }
%"class.WTF::VectorBufferBase.175" = type { %"class.mojo::StructPtr.176"*, i32, i32 }
%"class.mojo::StructPtr.176" = type { %"class.std::__1::unique_ptr.177" }
%"class.std::__1::unique_ptr.177" = type { %"class.std::__1::__compressed_pair.178" }
%"class.std::__1::__compressed_pair.178" = type { %"struct.std::__1::__compressed_pair_elem.179" }
%"struct.std::__1::__compressed_pair_elem.179" = type { %"class.blink::mojom::blink::WebBluetoothRemoteGATTService"* }
%"class.blink::mojom::WebBluetoothService_RemoteServerGetPrimaryServices_ResponseParamsDataView" = type { %"class.blink::mojom::internal::WebBluetoothService_RemoteServerGetPrimaryServices_ResponseParams_Data"*, %"class.mojo::Message"* }
%"class.blink::mojom::internal::WebBluetoothService_RemoteServerGetPrimaryServices_ResponseParams_Data" = type { %"struct.mojo::internal::StructHeader", i32, [4 x i8], %"struct.mojo::internal::Pointer.167" }
%"struct.mojo::internal::Pointer.167" = type { i64 }
%"class.blink::mojom::blink::WebBluetoothService_RemoteServerGetPrimaryServices_ProxyToResponder" = type { i64, i8, %"class.std::__1::unique_ptr.147" }
%"class.mojo::internal::MessageFragment.514" = type { %"class.mojo::Message"*, i64 }
%"class.blink::mojom::internal::WebBluetoothRemoteGATTService_Data" = type { %"struct.mojo::internal::StructHeader", %"struct.mojo::internal::Pointer.110", %"struct.mojo::internal::Pointer.114" }
%"class.blink::mojom::blink::WebBluetoothService_RemoteServiceGetCharacteristics_ForwardToCallback" = type { %"class.mojo::MessageReceiver", %"class.base::OnceCallback.116" }
%"class.mojo::internal::Array_Data.208" = type { %"struct.mojo::internal::ArrayHeader" }
%"class.absl::optional.189" = type { %"class.absl::optional_internal::optional_data.190" }
%"class.absl::optional_internal::optional_data.190" = type { %"class.absl::optional_internal::optional_data_base.191" }
%"class.absl::optional_internal::optional_data_base.191" = type { %"class.absl::optional_internal::optional_data_dtor_base.192" }
%"class.absl::optional_internal::optional_data_dtor_base.192" = type { i8, %union.anon.193 }
%union.anon.193 = type { %"class.WTF::Vector.194" }
%"class.WTF::Vector.194" = type { %"class.WTF::VectorBuffer.195" }
%"class.WTF::VectorBuffer.195" = type { %"class.WTF::VectorBufferBase.196" }
%"class.WTF::VectorBufferBase.196" = type { %"class.mojo::StructPtr.197"*, i32, i32 }
%"class.mojo::StructPtr.197" = type { %"class.std::__1::unique_ptr.198" }
%"class.std::__1::unique_ptr.198" = type { %"class.std::__1::__compressed_pair.199" }
%"class.std::__1::__compressed_pair.199" = type { %"struct.std::__1::__compressed_pair_elem.200" }
%"struct.std::__1::__compressed_pair_elem.200" = type { %"class.blink::mojom::blink::WebBluetoothRemoteGATTCharacteristic"* }
%"class.blink::mojom::WebBluetoothService_RemoteServiceGetCharacteristics_ResponseParamsDataView" = type { %"class.blink::mojom::internal::WebBluetoothService_RemoteServiceGetCharacteristics_ResponseParams_Data"*, %"class.mojo::Message"* }
%"class.blink::mojom::internal::WebBluetoothService_RemoteServiceGetCharacteristics_ResponseParams_Data" = type { %"struct.mojo::internal::StructHeader", i32, [4 x i8], %"struct.mojo::internal::Pointer.188" }
%"struct.mojo::internal::Pointer.188" = type { i64 }
%"class.blink::mojom::blink::WebBluetoothService_RemoteServiceGetCharacteristics_ProxyToResponder" = type { i64, i8, %"class.std::__1::unique_ptr.147" }
%"class.mojo::internal::MessageFragment.519" = type { %"class.mojo::Message"*, i64 }
%"class.blink::mojom::internal::WebBluetoothRemoteGATTCharacteristic_Data" = type { %"struct.mojo::internal::StructHeader", %"struct.mojo::internal::Pointer.110", %"struct.mojo::internal::Pointer.114", i32, [4 x i8] }
%"class.blink::mojom::blink::WebBluetoothService_RemoteCharacteristicReadValue_ForwardToCallback" = type { %"class.mojo::MessageReceiver", %"class.base::OnceCallback.119" }
%"class.absl::optional.209" = type { %"class.absl::optional_internal::optional_data.210" }
%"class.absl::optional_internal::optional_data.210" = type { %"class.absl::optional_internal::optional_data_base.211" }
%"class.absl::optional_internal::optional_data_base.211" = type { %"class.absl::optional_internal::optional_data_dtor_base.212" }
%"class.absl::optional_internal::optional_data_dtor_base.212" = type { i8, %union.anon.213 }
%union.anon.213 = type { %"class.WTF::Vector.75" }
%"class.blink::mojom::blink::WebBluetoothService_RemoteCharacteristicReadValue_ProxyToResponder" = type { i64, i8, %"class.std::__1::unique_ptr.147" }
%"class.blink::mojom::internal::WebBluetoothService_RemoteCharacteristicReadValue_ResponseParams_Data" = type { %"struct.mojo::internal::StructHeader", i32, [4 x i8], %"struct.mojo::internal::Pointer.122" }
%"class.blink::mojom::blink::WebBluetoothService_RemoteCharacteristicWriteValue_ForwardToCallback" = type { %"class.mojo::MessageReceiver", %"class.base::OnceCallback.106" }
%"class.blink::mojom::blink::WebBluetoothService_RemoteCharacteristicWriteValue_ProxyToResponder" = type { i64, i8, %"class.std::__1::unique_ptr.147" }
%"class.blink::mojom::internal::WebBluetoothService_RemoteCharacteristicWriteValue_ResponseParams_Data" = type { %"struct.mojo::internal::StructHeader", i32, [4 x i8] }
%"class.blink::mojom::blink::WebBluetoothService_RemoteCharacteristicStartNotifications_ForwardToCallback" = type { %"class.mojo::MessageReceiver", %"class.base::OnceCallback.106" }
%"class.blink::mojom::blink::WebBluetoothService_RemoteCharacteristicStartNotifications_ProxyToResponder" = type { i64, i8, %"class.std::__1::unique_ptr.147" }
%"class.blink::mojom::internal::WebBluetoothService_RemoteCharacteristicStartNotifications_ResponseParams_Data" = type { %"struct.mojo::internal::StructHeader", i32, [4 x i8] }
%"class.blink::mojom::blink::WebBluetoothService_RemoteCharacteristicStopNotifications_ForwardToCallback" = type { %"class.mojo::MessageReceiver", %"class.base::OnceCallback.128" }
%"class.blink::mojom::blink::WebBluetoothService_RemoteCharacteristicStopNotifications_ProxyToResponder" = type { i64, i8, %"class.std::__1::unique_ptr.147" }
%"class.blink::mojom::internal::WebBluetoothService_RemoteCharacteristicStopNotifications_ResponseParams_Data" = type { %"struct.mojo::internal::StructHeader" }
%"class.blink::mojom::blink::WebBluetoothService_RemoteCharacteristicGetDescriptors_ForwardToCallback" = type { %"class.mojo::MessageReceiver", %"class.base::OnceCallback.130" }
%"class.mojo::internal::Array_Data.238" = type { %"struct.mojo::internal::ArrayHeader" }
%"class.absl::optional.219" = type { %"class.absl::optional_internal::optional_data.220" }
%"class.absl::optional_internal::optional_data.220" = type { %"class.absl::optional_internal::optional_data_base.221" }
%"class.absl::optional_internal::optional_data_base.221" = type { %"class.absl::optional_internal::optional_data_dtor_base.222" }
%"class.absl::optional_internal::optional_data_dtor_base.222" = type { i8, %union.anon.223 }
%union.anon.223 = type { %"class.WTF::Vector.224" }
%"class.WTF::Vector.224" = type { %"class.WTF::VectorBuffer.225" }
%"class.WTF::VectorBuffer.225" = type { %"class.WTF::VectorBufferBase.226" }
%"class.WTF::VectorBufferBase.226" = type { %"class.mojo::StructPtr.227"*, i32, i32 }
%"class.mojo::StructPtr.227" = type { %"class.std::__1::unique_ptr.228" }
%"class.std::__1::unique_ptr.228" = type { %"class.std::__1::__compressed_pair.229" }
%"class.std::__1::__compressed_pair.229" = type { %"struct.std::__1::__compressed_pair_elem.230" }
%"struct.std::__1::__compressed_pair_elem.230" = type { %"class.blink::mojom::blink::WebBluetoothRemoteGATTDescriptor"* }
%"class.blink::mojom::WebBluetoothService_RemoteCharacteristicGetDescriptors_ResponseParamsDataView" = type { %"class.blink::mojom::internal::WebBluetoothService_RemoteCharacteristicGetDescriptors_ResponseParams_Data"*, %"class.mojo::Message"* }
%"class.blink::mojom::internal::WebBluetoothService_RemoteCharacteristicGetDescriptors_ResponseParams_Data" = type { %"struct.mojo::internal::StructHeader", i32, [4 x i8], %"struct.mojo::internal::Pointer.218" }
%"struct.mojo::internal::Pointer.218" = type { i64 }
%"class.blink::mojom::blink::WebBluetoothService_RemoteCharacteristicGetDescriptors_ProxyToResponder" = type { i64, i8, %"class.std::__1::unique_ptr.147" }
%"class.mojo::internal::MessageFragment.527" = type { %"class.mojo::Message"*, i64 }
%"class.blink::mojom::internal::WebBluetoothRemoteGATTDescriptor_Data" = type { %"struct.mojo::internal::StructHeader", %"struct.mojo::internal::Pointer.110", %"struct.mojo::internal::Pointer.114" }
%"class.blink::mojom::blink::WebBluetoothService_RemoteDescriptorReadValue_ForwardToCallback" = type { %"class.mojo::MessageReceiver", %"class.base::OnceCallback.119" }
%"class.blink::mojom::blink::WebBluetoothService_RemoteDescriptorReadValue_ProxyToResponder" = type { i64, i8, %"class.std::__1::unique_ptr.147" }
%"class.blink::mojom::internal::WebBluetoothService_RemoteDescriptorReadValue_ResponseParams_Data" = type { %"struct.mojo::internal::StructHeader", i32, [4 x i8], %"struct.mojo::internal::Pointer.122" }
%"class.blink::mojom::blink::WebBluetoothService_RemoteDescriptorWriteValue_ForwardToCallback" = type { %"class.mojo::MessageReceiver", %"class.base::OnceCallback.106" }
%"class.blink::mojom::blink::WebBluetoothService_RemoteDescriptorWriteValue_ProxyToResponder" = type { i64, i8, %"class.std::__1::unique_ptr.147" }
%"class.blink::mojom::internal::WebBluetoothService_RemoteDescriptorWriteValue_ResponseParams_Data" = type { %"struct.mojo::internal::StructHeader", i32, [4 x i8] }
%"class.blink::mojom::blink::WebBluetoothService_RequestScanningStart_ForwardToCallback" = type { %"class.mojo::MessageReceiver", %"class.base::OnceCallback.106" }
%"class.blink::mojom::blink::WebBluetoothService_RequestScanningStart_ProxyToResponder" = type { i64, i8, %"class.std::__1::unique_ptr.147" }
%"class.blink::mojom::internal::WebBluetoothService_RequestScanningStart_ResponseParams_Data" = type { %"struct.mojo::internal::StructHeader", i32, [4 x i8] }
%"class.blink::mojom::blink::WebBluetoothService_WatchAdvertisementsForDevice_ForwardToCallback" = type { %"class.mojo::MessageReceiver", %"class.base::OnceCallback.106" }
%"class.blink::mojom::blink::WebBluetoothService_WatchAdvertisementsForDevice_ProxyToResponder" = type { i64, i8, %"class.std::__1::unique_ptr.147" }
%"class.blink::mojom::internal::WebBluetoothService_WatchAdvertisementsForDevice_ResponseParams_Data" = type { %"struct.mojo::internal::StructHeader", i32, [4 x i8] }
%"class.base::TaskAnnotator::ScopedSetIpcHash" = type { %"class.base::TaskAnnotator::ScopedSetIpcHash"*, i32, i8* }
%"class.blink::mojom::blink::WebBluetoothServiceRequestValidator" = type { %"class.mojo::MessageReceiver" }
%"class.blink::mojom::blink::WebBluetoothServiceResponseValidator" = type { %"class.mojo::MessageReceiver" }
%"class.blink::mojom::internal::WebBluetoothServerClient_GATTServerDisconnected_Params_Data" = type { %"struct.mojo::internal::StructHeader" }
%"class.blink::mojom::blink::WebBluetoothServerClientRequestValidator" = type { %"class.mojo::MessageReceiver" }
%"class.blink::mojom::internal::WebBluetoothCharacteristicClient_RemoteCharacteristicValueChanged_Params_Data" = type { %"struct.mojo::internal::StructHeader", %"struct.mojo::internal::Pointer.122" }
%"class.blink::mojom::blink::WebBluetoothCharacteristicClientRequestValidator" = type { %"class.mojo::MessageReceiver" }
%"class.mojo::StructPtr.245" = type { %"class.std::__1::unique_ptr.246" }
%"class.std::__1::unique_ptr.246" = type { %"class.std::__1::__compressed_pair.247" }
%"class.std::__1::__compressed_pair.247" = type { %"struct.std::__1::__compressed_pair_elem.248" }
%"struct.std::__1::__compressed_pair_elem.248" = type { %"class.blink::mojom::blink::WebBluetoothAdvertisingEvent"* }
%"class.mojo::internal::MessageFragment.253" = type { %"class.mojo::Message"*, i64 }
%"class.blink::mojom::internal::WebBluetoothAdvertisementClient_AdvertisingEvent_Params_Data" = type { %"struct.mojo::internal::StructHeader", %"struct.mojo::internal::Pointer.254" }
%"struct.mojo::internal::Pointer.254" = type { i64 }
%"class.blink::mojom::internal::WebBluetoothAdvertisingEvent_Data" = type { %"struct.mojo::internal::StructHeader", %"struct.mojo::internal::Pointer.154", %"struct.mojo::internal::Pointer.110", %"struct.mojo::internal::Pointer.102", i8, i8, i16, i8, [3 x i8], %"struct.mojo::internal::Pointer.255", %"struct.mojo::internal::Pointer.256" }
%"struct.mojo::internal::Pointer.255" = type { i64 }
%"struct.mojo::internal::Pointer.256" = type { i64 }
%"class.blink::mojom::blink::WebBluetoothAdvertisementClientRequestValidator" = type { %"class.mojo::MessageReceiver" }
%"class.blink::mojom::internal::WebBluetoothLeScanFilter_Data" = type { %"struct.mojo::internal::StructHeader", %"struct.mojo::internal::Pointer.102", %"struct.mojo::internal::Pointer.110", %"struct.mojo::internal::Pointer.110", %"struct.mojo::internal::Pointer.257" }
%"struct.mojo::internal::Pointer.257" = type { i64 }
%"class.mojo::internal::Map_Data" = type { %"struct.mojo::internal::StructHeader", %"struct.mojo::internal::Pointer.487", %"struct.mojo::internal::Pointer.488" }
%"struct.mojo::internal::Pointer.487" = type { i64 }
%"struct.mojo::internal::Pointer.488" = type { i64 }
%"class.mojo::internal::Array_Data.481" = type { %"struct.mojo::internal::ArrayHeader" }
%"class.blink::mojom::WebBluetoothLeScanFilterDataView" = type { %"class.blink::mojom::internal::WebBluetoothLeScanFilter_Data"*, %"class.mojo::Message"* }
%"class.blink::mojom::internal::WebBluetoothCompany_Data" = type { %"struct.mojo::internal::StructHeader", i16, [6 x i8] }
%"class.blink::mojom::internal::WebBluetoothDataFilter_Data" = type { %"struct.mojo::internal::StructHeader", i8, i8, [6 x i8] }
%"class.mojo::internal::Array_Data.479" = type { %"struct.mojo::internal::ArrayHeader" }
%"class.blink::mojom::WebBluetoothRequestDeviceOptionsDataView" = type { %"class.blink::mojom::internal::WebBluetoothRequestDeviceOptions_Data"*, %"class.mojo::Message"* }
%"class.mojo::internal::Array_Data.483" = type { %"struct.mojo::internal::ArrayHeader" }
%"class.blink::mojom::WebBluetoothRequestLEScanOptionsDataView" = type { %"class.blink::mojom::internal::WebBluetoothRequestLEScanOptions_Data"*, %"class.mojo::Message"* }
%"class.mojo::InlinedStructPtr.258" = type <{ %"class.blink::mojom::blink::WebBluetoothDeviceId", i32, [4 x i8] }>
%"class.mojo::internal::Map_Data.531" = type { %"struct.mojo::internal::StructHeader", %"struct.mojo::internal::Pointer.103", %"struct.mojo::internal::Pointer.532" }
%"struct.mojo::internal::Pointer.532" = type { i64 }
%"class.mojo::internal::Map_Data.534" = type { %"struct.mojo::internal::StructHeader", %"struct.mojo::internal::Pointer.102", %"struct.mojo::internal::Pointer.532" }
%"class.logging::CheckError" = type { %"class.logging::LogMessage"* }
%"class.logging::LogMessage" = type { i32 (...)**, i32, %"class.std::__1::basic_ostringstream", i64, i8*, i32, %"class.base::ScopedClearLastErrorBase" }
%"class.std::__1::basic_ostringstream" = type { %"class.std::__1::basic_ostream.base", %"class.std::__1::basic_stringbuf", %"class.std::__1::basic_ios.base" }
%"class.std::__1::basic_ostream.base" = type { i32 (...)** }
%"class.std::__1::basic_stringbuf" = type <{ %"class.std::__1::basic_streambuf", %"class.std::__1::basic_string", i8*, i32, [4 x i8] }>
%"class.std::__1::basic_streambuf" = type { i32 (...)**, %"class.std::__1::locale", i8*, i8*, i8*, i8*, i8*, i8* }
%"class.std::__1::locale" = type { %"class.std::__1::locale::__imp"* }
%"class.std::__1::locale::__imp" = type opaque
%"class.std::__1::basic_ios.base" = type <{ %"class.std::__1::ios_base", %"class.std::__1::basic_ostream"*, i32 }>
%"class.std::__1::ios_base" = type { i32 (...)**, i32, i64, i64, i32, i32, i8*, i8*, void (i32, %"class.std::__1::ios_base"*, i32)**, i32*, i64, i64, i64*, i64, i64, i8**, i64, i64 }
%"class.std::__1::basic_ostream" = type { i32 (...)**, %"class.std::__1::basic_ios.base" }
%"class.base::ScopedClearLastErrorBase" = type { i32 }
%"class.logging::CheckOpResult" = type { i8* }
%"class.mojo::internal::MessageFragment.484" = type { %"class.mojo::Message"*, i64 }
%"class.mojo::internal::MessageFragment.486" = type { %"class.mojo::Message"*, i64 }
%"class.mojo::internal::MessageFragment.492" = type { %"class.mojo::Message"*, i64 }
%"class.mojo::internal::MapValueReader" = type { %"class.mojo::internal::MapReaderBase" }
%"class.mojo::internal::MapReaderBase" = type { %"class.WTF::HashMap"*, %"struct.WTF::HashTableConstIteratorAdapter" }
%"struct.WTF::HashTableConstIteratorAdapter" = type { %"class.WTF::HashTableConstIterator.490" }
%"class.WTF::HashTableConstIterator.490" = type { %"struct.WTF::KeyValuePair"*, %"struct.WTF::KeyValuePair"* }
%"class.mojo::internal::Array_Data.491" = type { %"struct.mojo::internal::ArrayHeader" }
%"class.mojo::internal::Array_Data.498" = type { %"struct.mojo::internal::ArrayHeader" }
%"class.mojo::internal::Array_Data.493" = type { %"struct.mojo::internal::ArrayHeader" }
%"class.mojo::internal::MessageFragment.530" = type { %"class.mojo::Message"*, i64 }
%"class.mojo::internal::MessageFragment.533" = type { %"class.mojo::Message"*, i64 }
%"class.mojo::internal::MessageFragment.538" = type { %"class.mojo::Message"*, i64 }
%"class.mojo::internal::MapValueReader.539" = type { %"class.mojo::internal::MapReaderBase.536" }
%"class.mojo::internal::MapReaderBase.536" = type { %"class.WTF::HashMap.70"*, %"struct.WTF::HashTableConstIteratorAdapter.537" }
%"struct.WTF::HashTableConstIteratorAdapter.537" = type { %"class.WTF::HashTableConstIterator" }
%"class.WTF::HashTableConstIterator" = type { %"struct.WTF::KeyValuePair.74"*, %"struct.WTF::KeyValuePair.74"* }
%"class.mojo::internal::Array_Data.540" = type { %"struct.mojo::internal::ArrayHeader" }
%"class.mojo::internal::MapValueReader.544" = type { %"class.mojo::internal::MapReaderBase.542" }
%"class.mojo::internal::MapReaderBase.542" = type { %"class.WTF::HashMap.80"*, %"struct.WTF::HashTableConstIteratorAdapter.543" }
%"struct.WTF::HashTableConstIteratorAdapter.543" = type { %"class.WTF::HashTableConstIterator.279" }
%"class.WTF::HashTableConstIterator.279" = type { %"struct.WTF::KeyValuePair.84"*, %"struct.WTF::KeyValuePair.84"* }
%"class.std::__1::basic_ostream<char, std::__1::char_traits<char> >::sentry" = type { i8, %"class.std::__1::basic_ostream"* }
%"class.std::__1::locale::facet" = type { %"class.std::__1::__shared_count" }
%"class.std::__1::__shared_count" = type { i32 (...)**, i64 }
%"class.std::__1::ctype" = type <{ %"class.std::__1::locale::facet", i16*, i8, [7 x i8] }>

$_ZN4mojo8internal23ContainerValidateParamsD2Ev = comdat any

$_ZN5blink5mojom5blink53WebBluetoothService_GetAvailability_ForwardToCallbackD2Ev = comdat any

$_ZN5blink5mojom5blink53WebBluetoothService_GetAvailability_ForwardToCallbackD0Ev = comdat any

$_ZN5blink5mojom5blink51WebBluetoothService_RequestDevice_ForwardToCallbackD2Ev = comdat any

$_ZN5blink5mojom5blink51WebBluetoothService_RequestDevice_ForwardToCallbackD0Ev = comdat any

$_ZN5blink5mojom5blink48WebBluetoothService_GetDevices_ForwardToCallbackD2Ev = comdat any

$_ZN5blink5mojom5blink48WebBluetoothService_GetDevices_ForwardToCallbackD0Ev = comdat any

$_ZN5blink5mojom5blink57WebBluetoothService_RemoteServerConnect_ForwardToCallbackD2Ev = comdat any

$_ZN5blink5mojom5blink57WebBluetoothService_RemoteServerConnect_ForwardToCallbackD0Ev = comdat any

$_ZN5blink5mojom5blink68WebBluetoothService_RemoteServerGetPrimaryServices_ForwardToCallbackD2Ev = comdat any

$_ZN5blink5mojom5blink68WebBluetoothService_RemoteServerGetPrimaryServices_ForwardToCallbackD0Ev = comdat any

$_ZN5blink5mojom5blink69WebBluetoothService_RemoteServiceGetCharacteristics_ForwardToCallbackD2Ev = comdat any

$_ZN5blink5mojom5blink69WebBluetoothService_RemoteServiceGetCharacteristics_ForwardToCallbackD0Ev = comdat any

$_ZN5blink5mojom5blink67WebBluetoothService_RemoteCharacteristicReadValue_ForwardToCallbackD2Ev = comdat any

$_ZN5blink5mojom5blink67WebBluetoothService_RemoteCharacteristicReadValue_ForwardToCallbackD0Ev = comdat any

$_ZN5blink5mojom5blink68WebBluetoothService_RemoteCharacteristicWriteValue_ForwardToCallbackD2Ev = comdat any

$_ZN5blink5mojom5blink68WebBluetoothService_RemoteCharacteristicWriteValue_ForwardToCallbackD0Ev = comdat any

$_ZN5blink5mojom5blink76WebBluetoothService_RemoteCharacteristicStartNotifications_ForwardToCallbackD2Ev = comdat any

$_ZN5blink5mojom5blink76WebBluetoothService_RemoteCharacteristicStartNotifications_ForwardToCallbackD0Ev = comdat any

$_ZN5blink5mojom5blink75WebBluetoothService_RemoteCharacteristicStopNotifications_ForwardToCallbackD2Ev = comdat any

$_ZN5blink5mojom5blink75WebBluetoothService_RemoteCharacteristicStopNotifications_ForwardToCallbackD0Ev = comdat any

$_ZN5blink5mojom5blink72WebBluetoothService_RemoteCharacteristicGetDescriptors_ForwardToCallbackD2Ev = comdat any

$_ZN5blink5mojom5blink72WebBluetoothService_RemoteCharacteristicGetDescriptors_ForwardToCallbackD0Ev = comdat any

$_ZN5blink5mojom5blink63WebBluetoothService_RemoteDescriptorReadValue_ForwardToCallbackD2Ev = comdat any

$_ZN5blink5mojom5blink63WebBluetoothService_RemoteDescriptorReadValue_ForwardToCallbackD0Ev = comdat any

$_ZN5blink5mojom5blink64WebBluetoothService_RemoteDescriptorWriteValue_ForwardToCallbackD2Ev = comdat any

$_ZN5blink5mojom5blink64WebBluetoothService_RemoteDescriptorWriteValue_ForwardToCallbackD0Ev = comdat any

$_ZN5blink5mojom5blink58WebBluetoothService_RequestScanningStart_ForwardToCallbackD2Ev = comdat any

$_ZN5blink5mojom5blink58WebBluetoothService_RequestScanningStart_ForwardToCallbackD0Ev = comdat any

$_ZN5blink5mojom5blink66WebBluetoothService_WatchAdvertisementsForDevice_ForwardToCallbackD2Ev = comdat any

$_ZN5blink5mojom5blink66WebBluetoothService_WatchAdvertisementsForDevice_ForwardToCallbackD0Ev = comdat any

$_ZN5blink5mojom5blink19WebBluetoothServiceD2Ev = comdat any

$_ZN5blink5mojom5blink24WebBluetoothServiceProxyD0Ev = comdat any

$_ZN5blink5mojom5blink35WebBluetoothServiceRequestValidatorD0Ev = comdat any

$_ZN5blink5mojom5blink36WebBluetoothServiceResponseValidatorD0Ev = comdat any

$_ZN5blink5mojom5blink24WebBluetoothServerClientD2Ev = comdat any

$_ZN5blink5mojom5blink29WebBluetoothServerClientProxyD0Ev = comdat any

$_ZN5blink5mojom5blink40WebBluetoothServerClientRequestValidatorD0Ev = comdat any

$_ZN5blink5mojom5blink37WebBluetoothCharacteristicClientProxyD0Ev = comdat any

$_ZN5blink5mojom5blink48WebBluetoothCharacteristicClientRequestValidatorD0Ev = comdat any

$_ZN5blink5mojom5blink31WebBluetoothAdvertisementClientD2Ev = comdat any

$_ZN5blink5mojom5blink36WebBluetoothAdvertisementClientProxyD0Ev = comdat any

$_ZN4mojo15MessageReceiverD2Ev = comdat any

$_ZN5blink5mojom5blink47WebBluetoothAdvertisementClientRequestValidatorD0Ev = comdat any

$_ZN3WTF9HashTableItNS_12KeyValuePairItNS_6VectorIhLj0ENS_18PartitionAllocatorEEEEENS_24KeyValuePairKeyExtractorENS_7IntHashItEENS_18HashMapValueTraitsINS_10HashTraitsItEENSA_IS4_EEEESB_S3_E22ReserveCapacityForSizeEj = comdat any

$_ZN3WTF9HashTableItNS_12KeyValuePairItNS_6VectorIhLj0ENS_18PartitionAllocatorEEEEENS_24KeyValuePairKeyExtractorENS_7IntHashItEENS_18HashMapValueTraitsINS_10HashTraitsItEENSA_IS4_EEEESB_S3_E8RehashToEPS5_jSF_ = comdat any

$_ZN3WTF9HashTableItNS_12KeyValuePairItNS_6VectorIhLj0ENS_18PartitionAllocatorEEEEENS_24KeyValuePairKeyExtractorENS_7IntHashItEENS_18HashMapValueTraitsINS_10HashTraitsItEENSA_IS4_EEEESB_S3_E6insertINS_22IdentityHashTranslatorIS8_SD_S3_EERKtRKS5_EENS_18HashTableAddResultISE_S5_EEOT0_OT1_ = comdat any

$_ZN3WTF9HashTableItNS_12KeyValuePairItNS_6VectorIhLj0ENS_18PartitionAllocatorEEEEENS_24KeyValuePairKeyExtractorENS_7IntHashItEENS_18HashMapValueTraitsINS_10HashTraitsItEENSA_IS4_EEEESB_S3_E6ExpandEPS5_ = comdat any

$_ZN3WTF6VectorIhLj0ENS_18PartitionAllocatorEEaSERKS2_ = comdat any

$_ZN3WTF18PartitionAllocator13QuantizedSizeIhEEmm = comdat any

$_ZN3WTF9HashTableINS_6StringENS_12KeyValuePairIS1_NS_6VectorIhLj0ENS_18PartitionAllocatorEEEEENS_24KeyValuePairKeyExtractorENS_10StringHashENS_18HashMapValueTraitsINS_10HashTraitsIS1_EENSA_IS5_EEEESB_S4_E22ReserveCapacityForSizeEj = comdat any

$_ZN3WTF9HashTableINS_6StringENS_12KeyValuePairIS1_NS_6VectorIhLj0ENS_18PartitionAllocatorEEEEENS_24KeyValuePairKeyExtractorENS_10StringHashENS_18HashMapValueTraitsINS_10HashTraitsIS1_EENSA_IS5_EEEESB_S4_E8RehashToEPS6_jSF_ = comdat any

$_ZN3WTF9HashTableINS_6StringENS_12KeyValuePairIS1_NS_6VectorIhLj0ENS_18PartitionAllocatorEEEEENS_24KeyValuePairKeyExtractorENS_10StringHashENS_18HashMapValueTraitsINS_10HashTraitsIS1_EENSA_IS5_EEEESB_S4_E8ReinsertEOS6_ = comdat any

$_ZN3WTF9HashTableINS_6StringENS_12KeyValuePairIS1_NS_6VectorIhLj0ENS_18PartitionAllocatorEEEEENS_24KeyValuePairKeyExtractorENS_10StringHashENS_18HashMapValueTraitsINS_10HashTraitsIS1_EENSA_IS5_EEEESB_S4_E16LookupForWritingERKS1_ = comdat any

$_ZN3WTF9HashTableINS_6StringENS_12KeyValuePairIS1_NS_6VectorIhLj0ENS_18PartitionAllocatorEEEEENS_24KeyValuePairKeyExtractorENS_10StringHashENS_18HashMapValueTraitsINS_10HashTraitsIS1_EENSA_IS5_EEEESB_S4_E6insertINS_22IdentityHashTranslatorIS8_SD_S4_EERKS1_RKS6_EENS_18HashTableAddResultISE_S6_EEOT0_OT1_ = comdat any

$_ZN3WTF9HashTableINS_6StringENS_12KeyValuePairIS1_NS_6VectorIhLj0ENS_18PartitionAllocatorEEEEENS_24KeyValuePairKeyExtractorENS_10StringHashENS_18HashMapValueTraitsINS_10HashTraitsIS1_EENSA_IS5_EEEESB_S4_E6ExpandEPS6_ = comdat any

$_ZN3WTF16VectorDestructorILb1EN4mojo9StructPtrIN5blink5mojom5blink18WebBluetoothDeviceEEEE8DestructEPS7_S9_ = comdat any

$_ZN3WTF16VectorDestructorILb1EN4mojo9StructPtrIN5blink5mojom5blink29WebBluetoothRemoteGATTServiceEEEE8DestructEPS7_S9_ = comdat any

$_ZN3WTF16VectorDestructorILb1EN4mojo9StructPtrIN5blink5mojom5blink36WebBluetoothRemoteGATTCharacteristicEEEE8DestructEPS7_S9_ = comdat any

$_ZN3WTF16VectorDestructorILb1EN4mojo9StructPtrIN5blink5mojom5blink32WebBluetoothRemoteGATTDescriptorEEEE8DestructEPS7_S9_ = comdat any

$_ZN4base8internal7InvokerINS0_9BindStateIMN5blink5mojom5blink52WebBluetoothService_GetAvailability_ProxyToResponderEFvbEJNSt3__110unique_ptrIS6_NS9_14default_deleteIS6_EEEEEEEFvbEE7RunOnceEPNS0_13BindStateBaseEb = comdat any

$_ZN4base8internal9BindStateIMN5blink5mojom5blink52WebBluetoothService_GetAvailability_ProxyToResponderEFvbEJNSt3__110unique_ptrIS5_NS8_14default_deleteIS5_EEEEEE7DestroyEPKNS0_13BindStateBaseE = comdat any

$_ZN4base8internal7InvokerINS0_9BindStateIMN5blink5mojom5blink50WebBluetoothService_RequestDevice_ProxyToResponderEFvNS4_18WebBluetoothResultEN4mojo9StructPtrINS5_18WebBluetoothDeviceEEEEJNSt3__110unique_ptrIS6_NSE_14default_deleteIS6_EEEEEEEFvS7_SB_EE7RunOnceEPNS0_13BindStateBaseES7_OSB_ = comdat any

$_ZN4base8internal9BindStateIMN5blink5mojom5blink50WebBluetoothService_RequestDevice_ProxyToResponderEFvNS3_18WebBluetoothResultEN4mojo9StructPtrINS4_18WebBluetoothDeviceEEEEJNSt3__110unique_ptrIS5_NSD_14default_deleteIS5_EEEEEE7DestroyEPKNS0_13BindStateBaseE = comdat any

$_ZN4base8internal7InvokerINS0_9BindStateIMN5blink5mojom5blink47WebBluetoothService_GetDevices_ProxyToResponderEFvN3WTF6VectorIN4mojo9StructPtrINS5_18WebBluetoothDeviceEEELj0ENS7_18PartitionAllocatorEEEEJNSt3__110unique_ptrIS6_NSH_14default_deleteIS6_EEEEEEEFvSE_EE7RunOnceEPNS0_13BindStateBaseEOSE_ = comdat any

$_ZN4base8internal9BindStateIMN5blink5mojom5blink47WebBluetoothService_GetDevices_ProxyToResponderEFvN3WTF6VectorIN4mojo9StructPtrINS4_18WebBluetoothDeviceEEELj0ENS6_18PartitionAllocatorEEEEJNSt3__110unique_ptrIS5_NSG_14default_deleteIS5_EEEEEE7DestroyEPKNS0_13BindStateBaseE = comdat any

$_ZN4base8internal7InvokerINS0_9BindStateIMN5blink5mojom5blink56WebBluetoothService_RemoteServerConnect_ProxyToResponderEFvNS4_18WebBluetoothResultEEJNSt3__110unique_ptrIS6_NSA_14default_deleteIS6_EEEEEEEFvS7_EE7RunOnceEPNS0_13BindStateBaseES7_ = comdat any

$_ZN4base8internal9BindStateIMN5blink5mojom5blink56WebBluetoothService_RemoteServerConnect_ProxyToResponderEFvNS3_18WebBluetoothResultEEJNSt3__110unique_ptrIS5_NS9_14default_deleteIS5_EEEEEE7DestroyEPKNS0_13BindStateBaseE = comdat any

$_ZN4base8internal7InvokerINS0_9BindStateIMN5blink5mojom5blink67WebBluetoothService_RemoteServerGetPrimaryServices_ProxyToResponderEFvNS4_18WebBluetoothResultEN4absl8optionalIN3WTF6VectorIN4mojo9StructPtrINS5_29WebBluetoothRemoteGATTServiceEEELj0ENSA_18PartitionAllocatorEEEEEEJNSt3__110unique_ptrIS6_NSL_14default_deleteIS6_EEEEEEEFvS7_SI_EE7RunOnceEPNS0_13BindStateBaseES7_OSI_ = comdat any

$_ZN4base8internal9BindStateIMN5blink5mojom5blink67WebBluetoothService_RemoteServerGetPrimaryServices_ProxyToResponderEFvNS3_18WebBluetoothResultEN4absl8optionalIN3WTF6VectorIN4mojo9StructPtrINS4_29WebBluetoothRemoteGATTServiceEEELj0ENS9_18PartitionAllocatorEEEEEEJNSt3__110unique_ptrIS5_NSK_14default_deleteIS5_EEEEEE7DestroyEPKNS0_13BindStateBaseE = comdat any

$_ZN4base8internal7InvokerINS0_9BindStateIMN5blink5mojom5blink68WebBluetoothService_RemoteServiceGetCharacteristics_ProxyToResponderEFvNS4_18WebBluetoothResultEN4absl8optionalIN3WTF6VectorIN4mojo9StructPtrINS5_36WebBluetoothRemoteGATTCharacteristicEEELj0ENSA_18PartitionAllocatorEEEEEEJNSt3__110unique_ptrIS6_NSL_14default_deleteIS6_EEEEEEEFvS7_SI_EE7RunOnceEPNS0_13BindStateBaseES7_OSI_ = comdat any

$_ZN4base8internal9BindStateIMN5blink5mojom5blink68WebBluetoothService_RemoteServiceGetCharacteristics_ProxyToResponderEFvNS3_18WebBluetoothResultEN4absl8optionalIN3WTF6VectorIN4mojo9StructPtrINS4_36WebBluetoothRemoteGATTCharacteristicEEELj0ENS9_18PartitionAllocatorEEEEEEJNSt3__110unique_ptrIS5_NSK_14default_deleteIS5_EEEEEE7DestroyEPKNS0_13BindStateBaseE = comdat any

$_ZN4base8internal7InvokerINS0_9BindStateIMN5blink5mojom5blink66WebBluetoothService_RemoteCharacteristicReadValue_ProxyToResponderEFvNS4_18WebBluetoothResultERKN4absl8optionalIN3WTF6VectorIhLj0ENSA_18PartitionAllocatorEEEEEEJNSt3__110unique_ptrIS6_NSJ_14default_deleteIS6_EEEEEEEFvS7_SG_EE7RunOnceEPNS0_13BindStateBaseES7_SG_ = comdat any

$_ZN4base8internal9BindStateIMN5blink5mojom5blink66WebBluetoothService_RemoteCharacteristicReadValue_ProxyToResponderEFvNS3_18WebBluetoothResultERKN4absl8optionalIN3WTF6VectorIhLj0ENS9_18PartitionAllocatorEEEEEEJNSt3__110unique_ptrIS5_NSI_14default_deleteIS5_EEEEEE7DestroyEPKNS0_13BindStateBaseE = comdat any

$_ZN4base8internal7InvokerINS0_9BindStateIMN5blink5mojom5blink67WebBluetoothService_RemoteCharacteristicWriteValue_ProxyToResponderEFvNS4_18WebBluetoothResultEEJNSt3__110unique_ptrIS6_NSA_14default_deleteIS6_EEEEEEEFvS7_EE7RunOnceEPNS0_13BindStateBaseES7_ = comdat any

$_ZN4base8internal9BindStateIMN5blink5mojom5blink67WebBluetoothService_RemoteCharacteristicWriteValue_ProxyToResponderEFvNS3_18WebBluetoothResultEEJNSt3__110unique_ptrIS5_NS9_14default_deleteIS5_EEEEEE7DestroyEPKNS0_13BindStateBaseE = comdat any

$_ZN4base8internal7InvokerINS0_9BindStateIMN5blink5mojom5blink75WebBluetoothService_RemoteCharacteristicStartNotifications_ProxyToResponderEFvNS4_18WebBluetoothResultEEJNSt3__110unique_ptrIS6_NSA_14default_deleteIS6_EEEEEEEFvS7_EE7RunOnceEPNS0_13BindStateBaseES7_ = comdat any

$_ZN4base8internal9BindStateIMN5blink5mojom5blink75WebBluetoothService_RemoteCharacteristicStartNotifications_ProxyToResponderEFvNS3_18WebBluetoothResultEEJNSt3__110unique_ptrIS5_NS9_14default_deleteIS5_EEEEEE7DestroyEPKNS0_13BindStateBaseE = comdat any

$_ZN4base8internal7InvokerINS0_9BindStateIMN5blink5mojom5blink74WebBluetoothService_RemoteCharacteristicStopNotifications_ProxyToResponderEFvvEJNSt3__110unique_ptrIS6_NS9_14default_deleteIS6_EEEEEEEFvvEE7RunOnceEPNS0_13BindStateBaseE = comdat any

$_ZN4base8internal9BindStateIMN5blink5mojom5blink74WebBluetoothService_RemoteCharacteristicStopNotifications_ProxyToResponderEFvvEJNSt3__110unique_ptrIS5_NS8_14default_deleteIS5_EEEEEE7DestroyEPKNS0_13BindStateBaseE = comdat any

$_ZN4base8internal7InvokerINS0_9BindStateIMN5blink5mojom5blink71WebBluetoothService_RemoteCharacteristicGetDescriptors_ProxyToResponderEFvNS4_18WebBluetoothResultEN4absl8optionalIN3WTF6VectorIN4mojo9StructPtrINS5_32WebBluetoothRemoteGATTDescriptorEEELj0ENSA_18PartitionAllocatorEEEEEEJNSt3__110unique_ptrIS6_NSL_14default_deleteIS6_EEEEEEEFvS7_SI_EE7RunOnceEPNS0_13BindStateBaseES7_OSI_ = comdat any

$_ZN4base8internal9BindStateIMN5blink5mojom5blink71WebBluetoothService_RemoteCharacteristicGetDescriptors_ProxyToResponderEFvNS3_18WebBluetoothResultEN4absl8optionalIN3WTF6VectorIN4mojo9StructPtrINS4_32WebBluetoothRemoteGATTDescriptorEEELj0ENS9_18PartitionAllocatorEEEEEEJNSt3__110unique_ptrIS5_NSK_14default_deleteIS5_EEEEEE7DestroyEPKNS0_13BindStateBaseE = comdat any

$_ZN4base8internal7InvokerINS0_9BindStateIMN5blink5mojom5blink62WebBluetoothService_RemoteDescriptorReadValue_ProxyToResponderEFvNS4_18WebBluetoothResultERKN4absl8optionalIN3WTF6VectorIhLj0ENSA_18PartitionAllocatorEEEEEEJNSt3__110unique_ptrIS6_NSJ_14default_deleteIS6_EEEEEEEFvS7_SG_EE7RunOnceEPNS0_13BindStateBaseES7_SG_ = comdat any

$_ZN4base8internal9BindStateIMN5blink5mojom5blink62WebBluetoothService_RemoteDescriptorReadValue_ProxyToResponderEFvNS3_18WebBluetoothResultERKN4absl8optionalIN3WTF6VectorIhLj0ENS9_18PartitionAllocatorEEEEEEJNSt3__110unique_ptrIS5_NSI_14default_deleteIS5_EEEEEE7DestroyEPKNS0_13BindStateBaseE = comdat any

$_ZN4base8internal7InvokerINS0_9BindStateIMN5blink5mojom5blink63WebBluetoothService_RemoteDescriptorWriteValue_ProxyToResponderEFvNS4_18WebBluetoothResultEEJNSt3__110unique_ptrIS6_NSA_14default_deleteIS6_EEEEEEEFvS7_EE7RunOnceEPNS0_13BindStateBaseES7_ = comdat any

$_ZN4base8internal9BindStateIMN5blink5mojom5blink63WebBluetoothService_RemoteDescriptorWriteValue_ProxyToResponderEFvNS3_18WebBluetoothResultEEJNSt3__110unique_ptrIS5_NS9_14default_deleteIS5_EEEEEE7DestroyEPKNS0_13BindStateBaseE = comdat any

$_ZN4base8internal7InvokerINS0_9BindStateIMN5blink5mojom5blink57WebBluetoothService_RequestScanningStart_ProxyToResponderEFvNS4_18WebBluetoothResultEEJNSt3__110unique_ptrIS6_NSA_14default_deleteIS6_EEEEEEEFvS7_EE7RunOnceEPNS0_13BindStateBaseES7_ = comdat any

$_ZN4base8internal9BindStateIMN5blink5mojom5blink57WebBluetoothService_RequestScanningStart_ProxyToResponderEFvNS3_18WebBluetoothResultEEJNSt3__110unique_ptrIS5_NS9_14default_deleteIS5_EEEEEE7DestroyEPKNS0_13BindStateBaseE = comdat any

$_ZN4base8internal7InvokerINS0_9BindStateIMN5blink5mojom5blink65WebBluetoothService_WatchAdvertisementsForDevice_ProxyToResponderEFvNS4_18WebBluetoothResultEEJNSt3__110unique_ptrIS6_NSA_14default_deleteIS6_EEEEEEEFvS7_EE7RunOnceEPNS0_13BindStateBaseES7_ = comdat any

$_ZN4base8internal9BindStateIMN5blink5mojom5blink65WebBluetoothService_WatchAdvertisementsForDevice_ProxyToResponderEFvNS3_18WebBluetoothResultEEJNSt3__110unique_ptrIS5_NS9_14default_deleteIS5_EEEEEE7DestroyEPKNS0_13BindStateBaseE = comdat any

$_ZN5blink5mojom5blink32WebBluetoothCharacteristicClientD2Ev = comdat any

$_ZN4mojo9StructPtrIN5blink5mojom5blink18WebBluetoothDeviceEE4TakeEPS5_ = comdat any

$_ZN8perfetto8internal9WriteImplIPN5blink5mojom5blink18WebBluetoothDeviceEEEDTcmclsr17TraceFormatTraitsINS_4base12remove_cvrefIT_E4typeEEE14WriteIntoTraceclL_ZNSt3__17declvalINS_11TracedValueEEEDTclsr3std3__1E9__declvalIS9_ELi0EEEvEEclsr3stdE7declvalIS9_EEEcvv_EENS7_12priority_tagILm3EEESE_OS9_ = comdat any

$_ZN4mojo8internal10SerializerIN5blink5mojom40WebBluetoothRequestDeviceOptionsDataViewENS_9StructPtrINS3_5blink32WebBluetoothRequestDeviceOptionsEEEE9SerializeERS8_RNS0_15MessageFragmentINS3_8internal37WebBluetoothRequestDeviceOptions_DataEEE = comdat any

$_ZNK3WTF6VectorIN4mojo9StructPtrIN5blink5mojom5blink24WebBluetoothLeScanFilterEEELj0ENS_18PartitionAllocatorEE2atEj = comdat any

$_ZN4mojo8internal10SerializerIN5blink5mojom32WebBluetoothLeScanFilterDataViewEKNS_9StructPtrINS3_5blink24WebBluetoothLeScanFilterEEEE9SerializeERS9_RNS0_15MessageFragmentINS3_8internal29WebBluetoothLeScanFilter_DataEEE = comdat any

$_ZN4mojo8internal10SerializerINS_11MapDataViewIN5blink5mojom27WebBluetoothCompanyDataViewENS_13ArrayDataViewINS4_30WebBluetoothDataFilterDataViewEEEEEKN3WTF7HashMapINS_16InlinedStructPtrINS4_5blink19WebBluetoothCompanyEEENSA_6VectorINSC_INSD_22WebBluetoothDataFilterEEELj0ENSA_18PartitionAllocatorEEENS0_22InlinedStructPtrHashFnISE_EENSA_10HashTraitsISF_EENSN_ISK_EESJ_EEE9SerializeERSR_RNS0_15MessageFragmentINS0_8Map_DataINS0_7PointerINS4_8internal24WebBluetoothCompany_DataEEENSW_INS0_10Array_DataINSW_INSX_27WebBluetoothDataFilter_DataEEEEEEEEEEEPKNS0_23ContainerValidateParamsE = comdat any

$_ZN4mojo8internal15ArraySerializerINS_13ArrayDataViewINS2_IN5blink5mojom30WebBluetoothDataFilterDataViewEEEEENSt3__16vectorIN3WTF6VectorINS_16InlinedStructPtrINS4_5blink22WebBluetoothDataFilterEEELj0ENSA_18PartitionAllocatorEEENS8_9allocatorISH_EEEENS0_14MapValueReaderIKNSA_7HashMapINSC_INSD_19WebBluetoothCompanyEEESH_NS0_22InlinedStructPtrHashFnISN_EENSA_10HashTraitsISO_EENSR_ISH_EESG_EEEEvE17SerializeElementsEPSW_RNS0_15MessageFragmentINS0_10Array_DataINS0_7PointerINS10_INS11_INS4_8internal27WebBluetoothDataFilter_DataEEEEEEEEEEEPKNS0_23ContainerValidateParamsE = comdat any

$_ZNK3WTF6VectorIN4mojo16InlinedStructPtrIN5blink5mojom5blink22WebBluetoothDataFilterEEELj0ENS_18PartitionAllocatorEE2atEj = comdat any

$_ZNK3WTF6VectorINS_6StringELj0ENS_18PartitionAllocatorEE2atEj = comdat any

$_ZNK3WTF6VectorItLj0ENS_18PartitionAllocatorEE2atEj = comdat any

$_ZN4mojo8internal10SerializerIN5blink5mojom28WebBluetoothDeviceIdDataViewEKN3WTF6StringEE9SerializeERS7_RNS0_15MessageFragmentINS3_8internal25WebBluetoothDeviceId_DataEEE = comdat any

$_ZN4mojo8internal10SerializerIN9bluetooth5mojom12UUIDDataViewEKN3WTF6StringEE9SerializeERS7_RNS0_15MessageFragmentINS3_8internal9UUID_DataEEE = comdat any

$_ZNK3WTF6VectorIhLj0ENS_18PartitionAllocatorEE2atEj = comdat any

$_ZN4mojo8internal10SerializerIN5blink5mojom40WebBluetoothRequestLEScanOptionsDataViewENS_9StructPtrINS3_5blink32WebBluetoothRequestLEScanOptionsEEEE9SerializeERS8_RNS0_15MessageFragmentINS3_8internal37WebBluetoothRequestLEScanOptions_DataEEE = comdat any

$_ZN4mojo8internal10SerializerIN5blink5mojom26WebBluetoothDeviceDataViewENS_9StructPtrINS3_5blink18WebBluetoothDeviceEEEE11DeserializeEPNS3_8internal23WebBluetoothDevice_DataEPS8_PNS_7MessageE = comdat any

$_ZN4mojo8internal10SerializerIN5blink5mojom26WebBluetoothDeviceDataViewENS_9StructPtrINS3_5blink18WebBluetoothDeviceEEEE9SerializeERS8_RNS0_15MessageFragmentINS3_8internal23WebBluetoothDevice_DataEEE = comdat any

$_ZN4mojo8internal15ArraySerializerINS_13ArrayDataViewIN5blink5mojom26WebBluetoothDeviceDataViewEEEN3WTF6VectorINS_9StructPtrINS4_5blink18WebBluetoothDeviceEEELj0ENS7_18PartitionAllocatorEEENS0_13ArrayIteratorINS_11ArrayTraitsISE_EESE_Lb0EEEvE19DeserializeElementsEPNS0_10Array_DataINS0_7PointerINS4_8internal23WebBluetoothDevice_DataEEEEEPSE_PNS_7MessageE = comdat any

$_ZN3WTF6VectorIN4mojo9StructPtrIN5blink5mojom5blink18WebBluetoothDeviceEEELj0ENS_18PartitionAllocatorEE16ReallocateBufferEj = comdat any

$_ZN3WTF18PartitionAllocator13QuantizedSizeIN4mojo9StructPtrIN5blink5mojom5blink18WebBluetoothDeviceEEEEEmm = comdat any

$_ZN3WTF6VectorIN4mojo9StructPtrIN5blink5mojom5blink18WebBluetoothDeviceEEELj0ENS_18PartitionAllocatorEE2atEj = comdat any

$_ZN4mojo8internal11DeserializeINS_13ArrayDataViewIN5blink5mojom37WebBluetoothRemoteGATTServiceDataViewEEERPNS0_10Array_DataINS0_7PointerINS4_8internal34WebBluetoothRemoteGATTService_DataEEEEEN4absl8optionalIN3WTF6VectorINS_9StructPtrINS4_5blink29WebBluetoothRemoteGATTServiceEEELj0ENSH_18PartitionAllocatorEEEEEJRPNS_7MessageEELPv0EEEbOT0_PT1_DpOT2_ = comdat any

$_ZN4mojo8internal15ArraySerializerINS_13ArrayDataViewIN5blink5mojom37WebBluetoothRemoteGATTServiceDataViewEEEN3WTF6VectorINS_9StructPtrINS4_5blink29WebBluetoothRemoteGATTServiceEEELj0ENS7_18PartitionAllocatorEEENS0_13ArrayIteratorINS_11ArrayTraitsISE_EESE_Lb0EEEvE19DeserializeElementsEPNS0_10Array_DataINS0_7PointerINS4_8internal34WebBluetoothRemoteGATTService_DataEEEEEPSE_PNS_7MessageE = comdat any

$_ZN3WTF6VectorIN4mojo9StructPtrIN5blink5mojom5blink29WebBluetoothRemoteGATTServiceEEELj0ENS_18PartitionAllocatorEE16ReallocateBufferEj = comdat any

$_ZN3WTF18PartitionAllocator13QuantizedSizeIN4mojo9StructPtrIN5blink5mojom5blink29WebBluetoothRemoteGATTServiceEEEEEmm = comdat any

$_ZN4mojo9StructPtrIN5blink5mojom5blink29WebBluetoothRemoteGATTServiceEE4TakeEPS5_ = comdat any

$_ZN3WTF6VectorIN4mojo9StructPtrIN5blink5mojom5blink29WebBluetoothRemoteGATTServiceEEELj0ENS_18PartitionAllocatorEE2atEj = comdat any

$_ZN4mojo8internal10SerializerIN5blink5mojom37WebBluetoothRemoteGATTServiceDataViewENS_9StructPtrINS3_5blink29WebBluetoothRemoteGATTServiceEEEE9SerializeERS8_RNS0_15MessageFragmentINS3_8internal34WebBluetoothRemoteGATTService_DataEEE = comdat any

$_ZN4mojo8internal11DeserializeINS_13ArrayDataViewIN5blink5mojom44WebBluetoothRemoteGATTCharacteristicDataViewEEERPNS0_10Array_DataINS0_7PointerINS4_8internal41WebBluetoothRemoteGATTCharacteristic_DataEEEEEN4absl8optionalIN3WTF6VectorINS_9StructPtrINS4_5blink36WebBluetoothRemoteGATTCharacteristicEEELj0ENSH_18PartitionAllocatorEEEEEJRPNS_7MessageEELPv0EEEbOT0_PT1_DpOT2_ = comdat any

$_ZN4mojo8internal15ArraySerializerINS_13ArrayDataViewIN5blink5mojom44WebBluetoothRemoteGATTCharacteristicDataViewEEEN3WTF6VectorINS_9StructPtrINS4_5blink36WebBluetoothRemoteGATTCharacteristicEEELj0ENS7_18PartitionAllocatorEEENS0_13ArrayIteratorINS_11ArrayTraitsISE_EESE_Lb0EEEvE19DeserializeElementsEPNS0_10Array_DataINS0_7PointerINS4_8internal41WebBluetoothRemoteGATTCharacteristic_DataEEEEEPSE_PNS_7MessageE = comdat any

$_ZN3WTF6VectorIN4mojo9StructPtrIN5blink5mojom5blink36WebBluetoothRemoteGATTCharacteristicEEELj0ENS_18PartitionAllocatorEE16ReallocateBufferEj = comdat any

$_ZN3WTF18PartitionAllocator13QuantizedSizeIN4mojo9StructPtrIN5blink5mojom5blink36WebBluetoothRemoteGATTCharacteristicEEEEEmm = comdat any

$_ZN4mojo9StructPtrIN5blink5mojom5blink36WebBluetoothRemoteGATTCharacteristicEE4TakeEPS5_ = comdat any

$_ZN3WTF6VectorIN4mojo9StructPtrIN5blink5mojom5blink36WebBluetoothRemoteGATTCharacteristicEEELj0ENS_18PartitionAllocatorEE2atEj = comdat any

$_ZN4mojo8internal10SerializerIN5blink5mojom44WebBluetoothRemoteGATTCharacteristicDataViewENS_9StructPtrINS3_5blink36WebBluetoothRemoteGATTCharacteristicEEEE9SerializeERS8_RNS0_15MessageFragmentINS3_8internal41WebBluetoothRemoteGATTCharacteristic_DataEEE = comdat any

$_ZN4mojo8internal15ArraySerializerINS_13ArrayDataViewIhEEN3WTF6VectorIhLj0ENS4_18PartitionAllocatorEEENS0_13ArrayIteratorINS_11ArrayTraitsIS7_EES7_Lb0EEEvE19DeserializeElementsEPNS0_10Array_DataIhEEPS7_PNS_7MessageE = comdat any

$_ZN3WTF6VectorIhLj0ENS_18PartitionAllocatorEE2atEj = comdat any

$_ZN4mojo8internal11DeserializeINS_13ArrayDataViewIN5blink5mojom40WebBluetoothRemoteGATTDescriptorDataViewEEERPNS0_10Array_DataINS0_7PointerINS4_8internal37WebBluetoothRemoteGATTDescriptor_DataEEEEEN4absl8optionalIN3WTF6VectorINS_9StructPtrINS4_5blink32WebBluetoothRemoteGATTDescriptorEEELj0ENSH_18PartitionAllocatorEEEEEJRPNS_7MessageEELPv0EEEbOT0_PT1_DpOT2_ = comdat any

$_ZN4mojo8internal15ArraySerializerINS_13ArrayDataViewIN5blink5mojom40WebBluetoothRemoteGATTDescriptorDataViewEEEN3WTF6VectorINS_9StructPtrINS4_5blink32WebBluetoothRemoteGATTDescriptorEEELj0ENS7_18PartitionAllocatorEEENS0_13ArrayIteratorINS_11ArrayTraitsISE_EESE_Lb0EEEvE19DeserializeElementsEPNS0_10Array_DataINS0_7PointerINS4_8internal37WebBluetoothRemoteGATTDescriptor_DataEEEEEPSE_PNS_7MessageE = comdat any

$_ZN3WTF6VectorIN4mojo9StructPtrIN5blink5mojom5blink32WebBluetoothRemoteGATTDescriptorEEELj0ENS_18PartitionAllocatorEE16ReallocateBufferEj = comdat any

$_ZN3WTF18PartitionAllocator13QuantizedSizeIN4mojo9StructPtrIN5blink5mojom5blink32WebBluetoothRemoteGATTDescriptorEEEEEmm = comdat any

$_ZN4mojo9StructPtrIN5blink5mojom5blink32WebBluetoothRemoteGATTDescriptorEE4TakeEPS5_ = comdat any

$_ZN3WTF6VectorIN4mojo9StructPtrIN5blink5mojom5blink32WebBluetoothRemoteGATTDescriptorEEELj0ENS_18PartitionAllocatorEE2atEj = comdat any

$_ZN4mojo8internal10SerializerIN5blink5mojom40WebBluetoothRemoteGATTDescriptorDataViewENS_9StructPtrINS3_5blink32WebBluetoothRemoteGATTDescriptorEEEE9SerializeERS8_RNS0_15MessageFragmentINS3_8internal37WebBluetoothRemoteGATTDescriptor_DataEEE = comdat any

$_ZN4mojo8internal10SerializerINS_34AssociatedInterfacePtrInfoDataViewIN5blink5mojom37WebBluetoothServerClientInterfaceBaseEEENS_23PendingAssociatedRemoteINS4_5blink24WebBluetoothServerClientEEEE11DeserializeEPNS0_24AssociatedInterface_DataEPSA_PNS_7MessageE = comdat any

$_ZN4mojo8internal10SerializerINS_34AssociatedInterfacePtrInfoDataViewIN5blink5mojom45WebBluetoothCharacteristicClientInterfaceBaseEEENS_23PendingAssociatedRemoteINS4_5blink32WebBluetoothCharacteristicClientEEEE11DeserializeEPNS0_24AssociatedInterface_DataEPSA_PNS_7MessageE = comdat any

$_ZN4mojo8internal10SerializerINS_34AssociatedInterfacePtrInfoDataViewIN5blink5mojom44WebBluetoothAdvertisementClientInterfaceBaseEEENS_23PendingAssociatedRemoteINS4_5blink31WebBluetoothAdvertisementClientEEEE11DeserializeEPNS0_24AssociatedInterface_DataEPSA_PNS_7MessageE = comdat any

$_ZN4mojo8internal10SerializerIN5blink5mojom36WebBluetoothAdvertisingEventDataViewENS_9StructPtrINS3_5blink28WebBluetoothAdvertisingEventEEEE9SerializeERS8_RNS0_15MessageFragmentINS3_8internal33WebBluetoothAdvertisingEvent_DataEEE = comdat any

$_ZN4mojo8internal10SerializerIN5blink5mojom26WebBluetoothDeviceDataViewEKNS_9StructPtrINS3_5blink18WebBluetoothDeviceEEEE9SerializeERS9_RNS0_15MessageFragmentINS3_8internal23WebBluetoothDevice_DataEEE = comdat any

$_ZN4mojo8internal10SerializerINS_11MapDataViewItNS_13ArrayDataViewIhEEEEKN3WTF7HashMapItNS6_6VectorIhLj0ENS6_18PartitionAllocatorEEENS6_7IntHashItEENS6_10HashTraitsItEENSD_ISA_EES9_EEE9SerializeERSH_RNS0_15MessageFragmentINS0_8Map_DataItNS0_7PointerINS0_10Array_DataIhEEEEEEEEPKNS0_23ContainerValidateParamsE = comdat any

$_ZN4mojo8internal15ArraySerializerINS_13ArrayDataViewINS2_IhEEEENSt3__16vectorIN3WTF6VectorIhLj0ENS7_18PartitionAllocatorEEENS5_9allocatorISA_EEEENS0_14MapValueReaderIKNS7_7HashMapItSA_NS7_7IntHashItEENS7_10HashTraitsItEENSI_ISA_EES9_EEEEvE17SerializeElementsEPSN_RNS0_15MessageFragmentINS0_10Array_DataINS0_7PointerINSR_IhEEEEEEEEPKNS0_23ContainerValidateParamsE = comdat any

$_ZN4mojo8internal10SerializerINS_11MapDataViewIN9bluetooth5mojom12UUIDDataViewENS_13ArrayDataViewIhEEEEKN3WTF7HashMapINS9_6StringENS9_6VectorIhLj0ENS9_18PartitionAllocatorEEENS9_10StringHashENS9_10HashTraitsISB_EENSG_ISE_EESD_EEE9SerializeERSK_RNS0_15MessageFragmentINS0_8Map_DataINS0_7PointerINS4_8internal9UUID_DataEEENSP_INS0_10Array_DataIhEEEEEEEEPKNS0_23ContainerValidateParamsE = comdat any

$_ZN4mojo8internal15ArraySerializerINS_13ArrayDataViewINS2_IhEEEENSt3__16vectorIN3WTF6VectorIhLj0ENS7_18PartitionAllocatorEEENS5_9allocatorISA_EEEENS0_14MapValueReaderIKNS7_7HashMapINS7_6StringESA_NS7_10StringHashENS7_10HashTraitsISG_EENSI_ISA_EES9_EEEEvE17SerializeElementsEPSN_RNS0_15MessageFragmentINS0_10Array_DataINS0_7PointerINSR_IhEEEEEEEEPKNS0_23ContainerValidateParamsE = comdat any

$_ZN4mojo8internal11DeserializeINS_13ArrayDataViewIN9bluetooth5mojom12UUIDDataViewEEERPNS0_10Array_DataINS0_7PointerINS4_8internal9UUID_DataEEEEEN4absl8optionalIN3WTF6VectorINSH_6StringELj0ENSH_18PartitionAllocatorEEEEEJRPNS_7MessageEELPv0EEEbOT0_PT1_DpOT2_ = comdat any

$_ZN4mojo8internal10SerializerINS_13ArrayDataViewIN9bluetooth5mojom12UUIDDataViewEEEN3WTF6VectorINS7_6StringELj0ENS7_18PartitionAllocatorEEEE11DeserializeEPNS0_10Array_DataINS0_7PointerINS4_8internal9UUID_DataEEEEEPSB_PNS_7MessageE = comdat any

$_ZN3WTF18PartitionAllocator13QuantizedSizeINS_6StringEEEmm = comdat any

$_ZN3WTF6VectorINS_6StringELj0ENS_18PartitionAllocatorEE6resizeEj = comdat any

$_ZN3WTF6VectorINS_6StringELj0ENS_18PartitionAllocatorEE2atEj = comdat any

$_ZN4mojo8internal11DeserializeINS_11MapDataViewIN5blink5mojom27WebBluetoothCompanyDataViewENS_13ArrayDataViewINS4_30WebBluetoothDataFilterDataViewEEEEERPNS0_8Map_DataINS0_7PointerINS4_8internal24WebBluetoothCompany_DataEEENSB_INS0_10Array_DataINSB_INSC_27WebBluetoothDataFilter_DataEEEEEEEEEN4absl8optionalIN3WTF7HashMapINS_16InlinedStructPtrINS4_5blink19WebBluetoothCompanyEEENSP_6VectorINSR_INSS_22WebBluetoothDataFilterEEELj0ENSP_18PartitionAllocatorEEENS0_22InlinedStructPtrHashFnIST_EENSP_10HashTraitsISU_EENS12_ISZ_EESY_EEEEJRPNS_7MessageEELPv0EEEbOT0_PT1_DpOT2_ = comdat any

$_ZN4mojo8internal10SerializerINS_11MapDataViewIN5blink5mojom27WebBluetoothCompanyDataViewENS_13ArrayDataViewINS4_30WebBluetoothDataFilterDataViewEEEEEN3WTF7HashMapINS_16InlinedStructPtrINS4_5blink19WebBluetoothCompanyEEENSA_6VectorINSC_INSD_22WebBluetoothDataFilterEEELj0ENSA_18PartitionAllocatorEEENS0_22InlinedStructPtrHashFnISE_EENSA_10HashTraitsISF_EENSN_ISK_EESJ_EEE11DeserializeEPNS0_8Map_DataINS0_7PointerINS4_8internal24WebBluetoothCompany_DataEEENST_INS0_10Array_DataINST_INSU_27WebBluetoothDataFilter_DataEEEEEEEEEPSQ_PNS_7MessageE = comdat any

$_ZN4mojo8internal15ArraySerializerINS_13ArrayDataViewIN5blink5mojom30WebBluetoothDataFilterDataViewEEEN3WTF6VectorINS_16InlinedStructPtrINS4_5blink22WebBluetoothDataFilterEEELj0ENS7_18PartitionAllocatorEEENS0_13ArrayIteratorINS_11ArrayTraitsISE_EESE_Lb0EEEvE19DeserializeElementsEPNS0_10Array_DataINS0_7PointerINS4_8internal27WebBluetoothDataFilter_DataEEEEEPSE_PNS_7MessageE = comdat any

$_ZN3WTF6VectorIN4mojo16InlinedStructPtrIN5blink5mojom5blink22WebBluetoothDataFilterEEELj0ENS_18PartitionAllocatorEE16ReallocateBufferEj = comdat any

$_ZN3WTF18PartitionAllocator13QuantizedSizeIN4mojo16InlinedStructPtrIN5blink5mojom5blink22WebBluetoothDataFilterEEEEEmm = comdat any

$_ZN3WTF6VectorIN4mojo16InlinedStructPtrIN5blink5mojom5blink22WebBluetoothDataFilterEEELj0ENS_18PartitionAllocatorEE2atEj = comdat any

$_ZNSt3__124__put_character_sequenceIcNS_11char_traitsIcEEEERNS_13basic_ostreamIT_T0_EES7_PKS4_m = comdat any

$_ZNSt3__116__pad_and_outputIcNS_11char_traitsIcEEEENS_19ostreambuf_iteratorIT_T0_EES6_PKS4_S8_S8_RNS_8ios_baseES4_ = comdat any

$_ZN3WTF9HashTableIN4mojo16InlinedStructPtrIN5blink5mojom5blink19WebBluetoothCompanyEEENS_12KeyValuePairIS7_NS_6VectorINS2_INS5_22WebBluetoothDataFilterEEELj0ENS_18PartitionAllocatorEEEEENS_24KeyValuePairKeyExtractorENS1_8internal22InlinedStructPtrHashFnIS6_EENS_18HashMapValueTraitsINS_10HashTraitsIS7_EENSK_ISD_EEEESL_SC_E6insertINS_17HashMapTranslatorISN_SI_SC_EES7_SD_EENS_18HashTableAddResultISO_SE_EEOT0_OT1_ = comdat any

$_ZN3WTF9HashTableIN4mojo16InlinedStructPtrIN5blink5mojom5blink19WebBluetoothCompanyEEENS_12KeyValuePairIS7_NS_6VectorINS2_INS5_22WebBluetoothDataFilterEEELj0ENS_18PartitionAllocatorEEEEENS_24KeyValuePairKeyExtractorENS1_8internal22InlinedStructPtrHashFnIS6_EENS_18HashMapValueTraitsINS_10HashTraitsIS7_EENSK_ISD_EEEESL_SC_E6ExpandEPSE_ = comdat any

$_ZN3WTF9HashTableIN4mojo16InlinedStructPtrIN5blink5mojom5blink19WebBluetoothCompanyEEENS_12KeyValuePairIS7_NS_6VectorINS2_INS5_22WebBluetoothDataFilterEEELj0ENS_18PartitionAllocatorEEEEENS_24KeyValuePairKeyExtractorENS1_8internal22InlinedStructPtrHashFnIS6_EENS_18HashMapValueTraitsINS_10HashTraitsIS7_EENSK_ISD_EEEESL_SC_E8RehashToEPSE_jSP_ = comdat any

$_ZN3WTF9HashTableIN4mojo16InlinedStructPtrIN5blink5mojom5blink19WebBluetoothCompanyEEENS_12KeyValuePairIS7_NS_6VectorINS2_INS5_22WebBluetoothDataFilterEEELj0ENS_18PartitionAllocatorEEEEENS_24KeyValuePairKeyExtractorENS1_8internal22InlinedStructPtrHashFnIS6_EENS_18HashMapValueTraitsINS_10HashTraitsIS7_EENSK_ISD_EEEESL_SC_E8ReinsertEOSE_ = comdat any

$_ZN4mojo8internal11DeserializeINS_13ArrayDataViewIN5blink5mojom32WebBluetoothLeScanFilterDataViewEEERPNS0_10Array_DataINS0_7PointerINS4_8internal29WebBluetoothLeScanFilter_DataEEEEEN4absl8optionalIN3WTF6VectorINS_9StructPtrINS4_5blink24WebBluetoothLeScanFilterEEELj0ENSH_18PartitionAllocatorEEEEEJRPNS_7MessageEELPv0EEEbOT0_PT1_DpOT2_ = comdat any

$_ZN4mojo8internal15ArraySerializerINS_13ArrayDataViewIN5blink5mojom32WebBluetoothLeScanFilterDataViewEEEN3WTF6VectorINS_9StructPtrINS4_5blink24WebBluetoothLeScanFilterEEELj0ENS7_18PartitionAllocatorEEENS0_13ArrayIteratorINS_11ArrayTraitsISE_EESE_Lb0EEEvE19DeserializeElementsEPNS0_10Array_DataINS0_7PointerINS4_8internal29WebBluetoothLeScanFilter_DataEEEEEPSE_PNS_7MessageE = comdat any

$_ZN3WTF6VectorIN4mojo9StructPtrIN5blink5mojom5blink24WebBluetoothLeScanFilterEEELj0ENS_18PartitionAllocatorEE16ReallocateBufferEj = comdat any

$_ZN3WTF18PartitionAllocator13QuantizedSizeIN4mojo9StructPtrIN5blink5mojom5blink24WebBluetoothLeScanFilterEEEEEmm = comdat any

$_ZN3WTF6VectorIN4mojo9StructPtrIN5blink5mojom5blink24WebBluetoothLeScanFilterEEELj0ENS_18PartitionAllocatorEE6resizeEj = comdat any

$_ZN3WTF6VectorIN4mojo9StructPtrIN5blink5mojom5blink24WebBluetoothLeScanFilterEEELj0ENS_18PartitionAllocatorEE2atEj = comdat any

$_ZN4mojo8internal15ArraySerializerINS_13ArrayDataViewItEEN3WTF6VectorItLj0ENS4_18PartitionAllocatorEEENS0_13ArrayIteratorINS_11ArrayTraitsIS7_EES7_Lb0EEEvE19DeserializeElementsEPNS0_10Array_DataItEEPS7_PNS_7MessageE = comdat any

$_ZN3WTF18PartitionAllocator13QuantizedSizeItEEmm = comdat any

$_ZN3WTF6VectorItLj0ENS_18PartitionAllocatorEE2atEj = comdat any

$_ZNSt3__14swapIN5blink5mojom5blink20WebBluetoothDeviceIdEEENS_9enable_ifIXaasr21is_move_constructibleIT_EE5valuesr18is_move_assignableIS6_EE5valueEvE4typeERS6_S9_ = comdat any

$_ZN4mojo8internal10SerializerINS_11MapDataViewItNS_13ArrayDataViewIhEEEEN3WTF7HashMapItNS6_6VectorIhLj0ENS6_18PartitionAllocatorEEENS6_7IntHashItEENS6_10HashTraitsItEENSD_ISA_EES9_EEE11DeserializeEPNS0_8Map_DataItNS0_7PointerINS0_10Array_DataIhEEEEEEPSG_PNS_7MessageE = comdat any

$_ZN3WTF9HashTableItNS_12KeyValuePairItNS_6VectorIhLj0ENS_18PartitionAllocatorEEEEENS_24KeyValuePairKeyExtractorENS_7IntHashItEENS_18HashMapValueTraitsINS_10HashTraitsItEENSA_IS4_EEEESB_S3_E6insertINS_17HashMapTranslatorISD_S8_S3_EEtS4_EENS_18HashTableAddResultISE_S5_EEOT0_OT1_ = comdat any

$_ZN4mojo8internal10SerializerINS_11MapDataViewIN9bluetooth5mojom12UUIDDataViewENS_13ArrayDataViewIhEEEEN3WTF7HashMapINS9_6StringENS9_6VectorIhLj0ENS9_18PartitionAllocatorEEENS9_10StringHashENS9_10HashTraitsISB_EENSG_ISE_EESD_EEE11DeserializeEPNS0_8Map_DataINS0_7PointerINS4_8internal9UUID_DataEEENSM_INS0_10Array_DataIhEEEEEEPSJ_PNS_7MessageE = comdat any

$_ZN4mojo9MapTraitsIN3WTF7HashMapINS1_6StringENS1_6VectorIhLj0ENS1_18PartitionAllocatorEEENS1_10StringHashENS1_10HashTraitsIS3_EENS8_IS6_EES5_EEE10SetToEmptyEPSB_ = comdat any

$_ZN4mojo9MapTraitsIN3WTF7HashMapINS1_6StringENS1_6VectorIhLj0ENS1_18PartitionAllocatorEEENS1_10StringHashENS1_10HashTraitsIS3_EENS8_IS6_EES5_EEE9SetToNullEPSB_ = comdat any

$_ZN3WTF9HashTableINS_6StringENS_12KeyValuePairIS1_NS_6VectorIhLj0ENS_18PartitionAllocatorEEEEENS_24KeyValuePairKeyExtractorENS_10StringHashENS_18HashMapValueTraitsINS_10HashTraitsIS1_EENSA_IS5_EEEESB_S4_E6insertINS_17HashMapTranslatorISD_S8_S4_EES1_S5_EENS_18HashTableAddResultISE_S6_EEOT0_OT1_ = comdat any

@.str = private unnamed_addr constant [9 x i8] c"services\00", align 1
@.str.1 = private unnamed_addr constant [8 x i8] c"<value>\00", align 1
@.str.2 = private unnamed_addr constant [5 x i8] c"name\00", align 1
@.str.3 = private unnamed_addr constant [12 x i8] c"name_prefix\00", align 1
@.str.4 = private unnamed_addr constant [18 x i8] c"manufacturer_data\00", align 1
@.str.5 = private unnamed_addr constant [3 x i8] c"id\00", align 1
@.str.6 = private unnamed_addr constant [5 x i8] c"data\00", align 1
@.str.7 = private unnamed_addr constant [5 x i8] c"mask\00", align 1
@.str.8 = private unnamed_addr constant [8 x i8] c"filters\00", align 1
@.str.9 = private unnamed_addr constant [18 x i8] c"optional_services\00", align 1
@.str.10 = private unnamed_addr constant [27 x i8] c"optional_manufacturer_data\00", align 1
@.str.11 = private unnamed_addr constant [19 x i8] c"accept_all_devices\00", align 1
@.str.12 = private unnamed_addr constant [22 x i8] c"keep_repeated_devices\00", align 1
@.str.13 = private unnamed_addr constant [26 x i8] c"accept_all_advertisements\00", align 1
@.str.14 = private unnamed_addr constant [10 x i8] c"device_id\00", align 1
@.str.15 = private unnamed_addr constant [12 x i8] c"instance_id\00", align 1
@.str.16 = private unnamed_addr constant [5 x i8] c"uuid\00", align 1
@.str.17 = private unnamed_addr constant [11 x i8] c"properties\00", align 1
@.str.18 = private unnamed_addr constant [7 x i8] c"device\00", align 1
@.str.19 = private unnamed_addr constant [6 x i8] c"uuids\00", align 1
@.str.20 = private unnamed_addr constant [18 x i8] c"appearance_is_set\00", align 1
@.str.21 = private unnamed_addr constant [11 x i8] c"appearance\00", align 1
@.str.22 = private unnamed_addr constant [16 x i8] c"tx_power_is_set\00", align 1
@.str.23 = private unnamed_addr constant [9 x i8] c"tx_power\00", align 1
@.str.24 = private unnamed_addr constant [12 x i8] c"rssi_is_set\00", align 1
@.str.25 = private unnamed_addr constant [5 x i8] c"rssi\00", align 1
@.str.26 = private unnamed_addr constant [13 x i8] c"service_data\00", align 1
@_ZN5blink5mojom5blink19WebBluetoothService5Name_E = hidden constant [32 x i8] c"blink.mojom.WebBluetoothService\00", align 16
@_ZTVN5blink5mojom5blink24WebBluetoothServiceProxyE = hidden unnamed_addr constant { [20 x i8*] } { [20 x i8*] [i8* null, i8* null, i8* bitcast (void (%"class.blink::mojom::blink::WebBluetoothService"*)* @_ZN5blink5mojom5blink19WebBluetoothServiceD2Ev to i8*), i8* bitcast (void (%"class.blink::mojom::blink::WebBluetoothServiceProxy"*)* @_ZN5blink5mojom5blink24WebBluetoothServiceProxyD0Ev to i8*), i8* bitcast (void (%"class.blink::mojom::blink::WebBluetoothServiceProxy"*, %"class.base::OnceCallback"*)* @_ZN5blink5mojom5blink24WebBluetoothServiceProxy15GetAvailabilityEN4base12OnceCallbackIFvbEEE to i8*), i8* bitcast (void (%"class.blink::mojom::blink::WebBluetoothServiceProxy"*, %"class.mojo::StructPtr.91"*, %"class.base::OnceCallback.98"*)* @_ZN5blink5mojom5blink24WebBluetoothServiceProxy13RequestDeviceEN4mojo9StructPtrINS1_32WebBluetoothRequestDeviceOptionsEEEN4base12OnceCallbackIFvNS0_18WebBluetoothResultENS4_INS1_18WebBluetoothDeviceEEEEEE to i8*), i8* bitcast (void (%"class.blink::mojom::blink::WebBluetoothServiceProxy"*, %"class.base::OnceCallback.104"*)* @_ZN5blink5mojom5blink24WebBluetoothServiceProxy10GetDevicesEN4base12OnceCallbackIFvN3WTF6VectorIN4mojo9StructPtrINS1_18WebBluetoothDeviceEEELj0ENS5_18PartitionAllocatorEEEEEE to i8*), i8* bitcast (void (%"class.blink::mojom::blink::WebBluetoothServiceProxy"*, %"class.WTF::String"*, %"class.mojo::PendingAssociatedRemote"*, %"class.base::OnceCallback.106"*)* @_ZN5blink5mojom5blink24WebBluetoothServiceProxy19RemoteServerConnectERKN3WTF6StringEN4mojo23PendingAssociatedRemoteINS1_24WebBluetoothServerClientEEEN4base12OnceCallbackIFvNS0_18WebBluetoothResultEEEE to i8*), i8* bitcast (void (%"class.blink::mojom::blink::WebBluetoothServiceProxy"*, %"class.WTF::String"*)* @_ZN5blink5mojom5blink24WebBluetoothServiceProxy22RemoteServerDisconnectERKN3WTF6StringE to i8*), i8* bitcast (void (%"class.blink::mojom::blink::WebBluetoothServiceProxy"*, %"class.WTF::String"*, i32, %"class.WTF::String"*, %"class.base::OnceCallback.112"*)* @_ZN5blink5mojom5blink24WebBluetoothServiceProxy30RemoteServerGetPrimaryServicesERKN3WTF6StringENS0_29WebBluetoothGATTQueryQuantityES6_N4base12OnceCallbackIFvNS0_18WebBluetoothResultEN4absl8optionalINS3_6VectorIN4mojo9StructPtrINS1_29WebBluetoothRemoteGATTServiceEEELj0ENS3_18PartitionAllocatorEEEEEEEE to i8*), i8* bitcast (void (%"class.blink::mojom::blink::WebBluetoothServiceProxy"*, %"class.WTF::String"*, i32, %"class.WTF::String"*, %"class.base::OnceCallback.116"*)* @_ZN5blink5mojom5blink24WebBluetoothServiceProxy31RemoteServiceGetCharacteristicsERKN3WTF6StringENS0_29WebBluetoothGATTQueryQuantityES6_N4base12OnceCallbackIFvNS0_18WebBluetoothResultEN4absl8optionalINS3_6VectorIN4mojo9StructPtrINS1_36WebBluetoothRemoteGATTCharacteristicEEELj0ENS3_18PartitionAllocatorEEEEEEEE to i8*), i8* bitcast (void (%"class.blink::mojom::blink::WebBluetoothServiceProxy"*, %"class.WTF::String"*, %"class.base::OnceCallback.119"*)* @_ZN5blink5mojom5blink24WebBluetoothServiceProxy29RemoteCharacteristicReadValueERKN3WTF6StringEN4base12OnceCallbackIFvNS0_18WebBluetoothResultERKN4absl8optionalINS3_6VectorIhLj0ENS3_18PartitionAllocatorEEEEEEEE to i8*), i8* bitcast (void (%"class.blink::mojom::blink::WebBluetoothServiceProxy"*, %"class.WTF::String"*, %"class.WTF::Vector.75"*, i32, %"class.base::OnceCallback.106"*)* @_ZN5blink5mojom5blink24WebBluetoothServiceProxy30RemoteCharacteristicWriteValueERKN3WTF6StringERKNS3_6VectorIhLj0ENS3_18PartitionAllocatorEEENS0_21WebBluetoothWriteTypeEN4base12OnceCallbackIFvNS0_18WebBluetoothResultEEEE to i8*), i8* bitcast (void (%"class.blink::mojom::blink::WebBluetoothServiceProxy"*, %"class.WTF::String"*, %"class.mojo::PendingAssociatedRemote.125"*, %"class.base::OnceCallback.106"*)* @_ZN5blink5mojom5blink24WebBluetoothServiceProxy38RemoteCharacteristicStartNotificationsERKN3WTF6StringEN4mojo23PendingAssociatedRemoteINS1_32WebBluetoothCharacteristicClientEEEN4base12OnceCallbackIFvNS0_18WebBluetoothResultEEEE to i8*), i8* bitcast (void (%"class.blink::mojom::blink::WebBluetoothServiceProxy"*, %"class.WTF::String"*, %"class.base::OnceCallback.128"*)* @_ZN5blink5mojom5blink24WebBluetoothServiceProxy37RemoteCharacteristicStopNotificationsERKN3WTF6StringEN4base12OnceCallbackIFvvEEE to i8*), i8* bitcast (void (%"class.blink::mojom::blink::WebBluetoothServiceProxy"*, %"class.WTF::String"*, i32, %"class.WTF::String"*, %"class.base::OnceCallback.130"*)* @_ZN5blink5mojom5blink24WebBluetoothServiceProxy34RemoteCharacteristicGetDescriptorsERKN3WTF6StringENS0_29WebBluetoothGATTQueryQuantityES6_N4base12OnceCallbackIFvNS0_18WebBluetoothResultEN4absl8optionalINS3_6VectorIN4mojo9StructPtrINS1_32WebBluetoothRemoteGATTDescriptorEEELj0ENS3_18PartitionAllocatorEEEEEEEE to i8*), i8* bitcast (void (%"class.blink::mojom::blink::WebBluetoothServiceProxy"*, %"class.WTF::String"*, %"class.base::OnceCallback.119"*)* @_ZN5blink5mojom5blink24WebBluetoothServiceProxy25RemoteDescriptorReadValueERKN3WTF6StringEN4base12OnceCallbackIFvNS0_18WebBluetoothResultERKN4absl8optionalINS3_6VectorIhLj0ENS3_18PartitionAllocatorEEEEEEEE to i8*), i8* bitcast (void (%"class.blink::mojom::blink::WebBluetoothServiceProxy"*, %"class.WTF::String"*, %"class.WTF::Vector.75"*, %"class.base::OnceCallback.106"*)* @_ZN5blink5mojom5blink24WebBluetoothServiceProxy26RemoteDescriptorWriteValueERKN3WTF6StringERKNS3_6VectorIhLj0ENS3_18PartitionAllocatorEEEN4base12OnceCallbackIFvNS0_18WebBluetoothResultEEEE to i8*), i8* bitcast (void (%"class.blink::mojom::blink::WebBluetoothServiceProxy"*, %"class.mojo::PendingAssociatedRemote.134"*, %"class.mojo::StructPtr.136"*, %"class.base::OnceCallback.106"*)* @_ZN5blink5mojom5blink24WebBluetoothServiceProxy20RequestScanningStartEN4mojo23PendingAssociatedRemoteINS1_31WebBluetoothAdvertisementClientEEENS3_9StructPtrINS1_32WebBluetoothRequestLEScanOptionsEEEN4base12OnceCallbackIFvNS0_18WebBluetoothResultEEEE to i8*), i8* bitcast (void (%"class.blink::mojom::blink::WebBluetoothServiceProxy"*, %"class.WTF::String"*, %"class.mojo::PendingAssociatedRemote.134"*, %"class.base::OnceCallback.106"*)* @_ZN5blink5mojom5blink24WebBluetoothServiceProxy28WatchAdvertisementsForDeviceERKN3WTF6StringEN4mojo23PendingAssociatedRemoteINS1_31WebBluetoothAdvertisementClientEEEN4base12OnceCallbackIFvNS0_18WebBluetoothResultEEEE to i8*)] }, align 8
@_ZN5blink5mojom5blinkL34kWebBluetoothServiceValidationInfoE = internal constant [16 x %"struct.std::__1::pair"] [%"struct.std::__1::pair" { i32 1172563722, %"struct.mojo::internal::GenericValidationInfo" { i1 (i8*, %"class.mojo::internal::ValidationContext"*)* @_ZN5blink5mojom8internal47WebBluetoothService_GetAvailability_Params_Data8ValidateEPKvPN4mojo8internal17ValidationContextE, i1 (i8*, %"class.mojo::internal::ValidationContext"*)* @_ZN5blink5mojom8internal55WebBluetoothService_GetAvailability_ResponseParams_Data8ValidateEPKvPN4mojo8internal17ValidationContextE } }, %"struct.std::__1::pair" { i32 953739893, %"struct.mojo::internal::GenericValidationInfo" { i1 (i8*, %"class.mojo::internal::ValidationContext"*)* @_ZN5blink5mojom8internal45WebBluetoothService_RequestDevice_Params_Data8ValidateEPKvPN4mojo8internal17ValidationContextE, i1 (i8*, %"class.mojo::internal::ValidationContext"*)* @_ZN5blink5mojom8internal53WebBluetoothService_RequestDevice_ResponseParams_Data8ValidateEPKvPN4mojo8internal17ValidationContextE } }, %"struct.std::__1::pair" { i32 97698673, %"struct.mojo::internal::GenericValidationInfo" { i1 (i8*, %"class.mojo::internal::ValidationContext"*)* @_ZN5blink5mojom8internal42WebBluetoothService_GetDevices_Params_Data8ValidateEPKvPN4mojo8internal17ValidationContextE, i1 (i8*, %"class.mojo::internal::ValidationContext"*)* @_ZN5blink5mojom8internal50WebBluetoothService_GetDevices_ResponseParams_Data8ValidateEPKvPN4mojo8internal17ValidationContextE } }, %"struct.std::__1::pair" { i32 447768052, %"struct.mojo::internal::GenericValidationInfo" { i1 (i8*, %"class.mojo::internal::ValidationContext"*)* @_ZN5blink5mojom8internal51WebBluetoothService_RemoteServerConnect_Params_Data8ValidateEPKvPN4mojo8internal17ValidationContextE, i1 (i8*, %"class.mojo::internal::ValidationContext"*)* @_ZN5blink5mojom8internal59WebBluetoothService_RemoteServerConnect_ResponseParams_Data8ValidateEPKvPN4mojo8internal17ValidationContextE } }, %"struct.std::__1::pair" { i32 391156665, %"struct.mojo::internal::GenericValidationInfo" { i1 (i8*, %"class.mojo::internal::ValidationContext"*)* @_ZN5blink5mojom8internal54WebBluetoothService_RemoteServerDisconnect_Params_Data8ValidateEPKvPN4mojo8internal17ValidationContextE, i1 (i8*, %"class.mojo::internal::ValidationContext"*)* null } }, %"struct.std::__1::pair" { i32 1127621537, %"struct.mojo::internal::GenericValidationInfo" { i1 (i8*, %"class.mojo::internal::ValidationContext"*)* @_ZN5blink5mojom8internal62WebBluetoothService_RemoteServerGetPrimaryServices_Params_Data8ValidateEPKvPN4mojo8internal17ValidationContextE, i1 (i8*, %"class.mojo::internal::ValidationContext"*)* @_ZN5blink5mojom8internal70WebBluetoothService_RemoteServerGetPrimaryServices_ResponseParams_Data8ValidateEPKvPN4mojo8internal17ValidationContextE } }, %"struct.std::__1::pair" { i32 501096322, %"struct.mojo::internal::GenericValidationInfo" { i1 (i8*, %"class.mojo::internal::ValidationContext"*)* @_ZN5blink5mojom8internal63WebBluetoothService_RemoteServiceGetCharacteristics_Params_Data8ValidateEPKvPN4mojo8internal17ValidationContextE, i1 (i8*, %"class.mojo::internal::ValidationContext"*)* @_ZN5blink5mojom8internal71WebBluetoothService_RemoteServiceGetCharacteristics_ResponseParams_Data8ValidateEPKvPN4mojo8internal17ValidationContextE } }, %"struct.std::__1::pair" { i32 132459802, %"struct.mojo::internal::GenericValidationInfo" { i1 (i8*, %"class.mojo::internal::ValidationContext"*)* @_ZN5blink5mojom8internal61WebBluetoothService_RemoteCharacteristicReadValue_Params_Data8ValidateEPKvPN4mojo8internal17ValidationContextE, i1 (i8*, %"class.mojo::internal::ValidationContext"*)* @_ZN5blink5mojom8internal69WebBluetoothService_RemoteCharacteristicReadValue_ResponseParams_Data8ValidateEPKvPN4mojo8internal17ValidationContextE } }, %"struct.std::__1::pair" { i32 1665417437, %"struct.mojo::internal::GenericValidationInfo" { i1 (i8*, %"class.mojo::internal::ValidationContext"*)* @_ZN5blink5mojom8internal62WebBluetoothService_RemoteCharacteristicWriteValue_Params_Data8ValidateEPKvPN4mojo8internal17ValidationContextE, i1 (i8*, %"class.mojo::internal::ValidationContext"*)* @_ZN5blink5mojom8internal70WebBluetoothService_RemoteCharacteristicWriteValue_ResponseParams_Data8ValidateEPKvPN4mojo8internal17ValidationContextE } }, %"struct.std::__1::pair" { i32 649973803, %"struct.mojo::internal::GenericValidationInfo" { i1 (i8*, %"class.mojo::internal::ValidationContext"*)* @_ZN5blink5mojom8internal70WebBluetoothService_RemoteCharacteristicStartNotifications_Params_Data8ValidateEPKvPN4mojo8internal17ValidationContextE, i1 (i8*, %"class.mojo::internal::ValidationContext"*)* @_ZN5blink5mojom8internal78WebBluetoothService_RemoteCharacteristicStartNotifications_ResponseParams_Data8ValidateEPKvPN4mojo8internal17ValidationContextE } }, %"struct.std::__1::pair" { i32 2069003051, %"struct.mojo::internal::GenericValidationInfo" { i1 (i8*, %"class.mojo::internal::ValidationContext"*)* @_ZN5blink5mojom8internal69WebBluetoothService_RemoteCharacteristicStopNotifications_Params_Data8ValidateEPKvPN4mojo8internal17ValidationContextE, i1 (i8*, %"class.mojo::internal::ValidationContext"*)* @_ZN5blink5mojom8internal77WebBluetoothService_RemoteCharacteristicStopNotifications_ResponseParams_Data8ValidateEPKvPN4mojo8internal17ValidationContextE } }, %"struct.std::__1::pair" { i32 790741108, %"struct.mojo::internal::GenericValidationInfo" { i1 (i8*, %"class.mojo::internal::ValidationContext"*)* @_ZN5blink5mojom8internal66WebBluetoothService_RemoteCharacteristicGetDescriptors_Params_Data8ValidateEPKvPN4mojo8internal17ValidationContextE, i1 (i8*, %"class.mojo::internal::ValidationContext"*)* @_ZN5blink5mojom8internal74WebBluetoothService_RemoteCharacteristicGetDescriptors_ResponseParams_Data8ValidateEPKvPN4mojo8internal17ValidationContextE } }, %"struct.std::__1::pair" { i32 1388517646, %"struct.mojo::internal::GenericValidationInfo" { i1 (i8*, %"class.mojo::internal::ValidationContext"*)* @_ZN5blink5mojom8internal57WebBluetoothService_RemoteDescriptorReadValue_Params_Data8ValidateEPKvPN4mojo8internal17ValidationContextE, i1 (i8*, %"class.mojo::internal::ValidationContext"*)* @_ZN5blink5mojom8internal65WebBluetoothService_RemoteDescriptorReadValue_ResponseParams_Data8ValidateEPKvPN4mojo8internal17ValidationContextE } }, %"struct.std::__1::pair" { i32 2004041849, %"struct.mojo::internal::GenericValidationInfo" { i1 (i8*, %"class.mojo::internal::ValidationContext"*)* @_ZN5blink5mojom8internal58WebBluetoothService_RemoteDescriptorWriteValue_Params_Data8ValidateEPKvPN4mojo8internal17ValidationContextE, i1 (i8*, %"class.mojo::internal::ValidationContext"*)* @_ZN5blink5mojom8internal66WebBluetoothService_RemoteDescriptorWriteValue_ResponseParams_Data8ValidateEPKvPN4mojo8internal17ValidationContextE } }, %"struct.std::__1::pair" { i32 942878455, %"struct.mojo::internal::GenericValidationInfo" { i1 (i8*, %"class.mojo::internal::ValidationContext"*)* @_ZN5blink5mojom8internal52WebBluetoothService_RequestScanningStart_Params_Data8ValidateEPKvPN4mojo8internal17ValidationContextE, i1 (i8*, %"class.mojo::internal::ValidationContext"*)* @_ZN5blink5mojom8internal60WebBluetoothService_RequestScanningStart_ResponseParams_Data8ValidateEPKvPN4mojo8internal17ValidationContextE } }, %"struct.std::__1::pair" { i32 986676873, %"struct.mojo::internal::GenericValidationInfo" { i1 (i8*, %"class.mojo::internal::ValidationContext"*)* @_ZN5blink5mojom8internal60WebBluetoothService_WatchAdvertisementsForDevice_Params_Data8ValidateEPKvPN4mojo8internal17ValidationContextE, i1 (i8*, %"class.mojo::internal::ValidationContext"*)* @_ZN5blink5mojom8internal68WebBluetoothService_WatchAdvertisementsForDevice_ResponseParams_Data8ValidateEPKvPN4mojo8internal17ValidationContextE } }], align 16
@_ZN5blink5mojom5blink24WebBluetoothServerClient5Name_E = hidden constant [37 x i8] c"blink.mojom.WebBluetoothServerClient\00", align 16
@_ZTVN5blink5mojom5blink29WebBluetoothServerClientProxyE = hidden unnamed_addr constant { [5 x i8*] } { [5 x i8*] [i8* null, i8* null, i8* bitcast (void (%"class.blink::mojom::blink::WebBluetoothServerClient"*)* @_ZN5blink5mojom5blink24WebBluetoothServerClientD2Ev to i8*), i8* bitcast (void (%"class.blink::mojom::blink::WebBluetoothServerClientProxy"*)* @_ZN5blink5mojom5blink29WebBluetoothServerClientProxyD0Ev to i8*), i8* bitcast (void (%"class.blink::mojom::blink::WebBluetoothServerClientProxy"*)* @_ZN5blink5mojom5blink29WebBluetoothServerClientProxy22GATTServerDisconnectedEv to i8*)] }, align 8
@_ZN5blink5mojom5blinkL39kWebBluetoothServerClientValidationInfoE = internal constant [1 x %"struct.std::__1::pair"] [%"struct.std::__1::pair" { i32 339134341, %"struct.mojo::internal::GenericValidationInfo" { i1 (i8*, %"class.mojo::internal::ValidationContext"*)* @_ZN5blink5mojom8internal59WebBluetoothServerClient_GATTServerDisconnected_Params_Data8ValidateEPKvPN4mojo8internal17ValidationContextE, i1 (i8*, %"class.mojo::internal::ValidationContext"*)* null } }], align 16
@_ZN5blink5mojom5blink32WebBluetoothCharacteristicClient5Name_E = hidden constant [45 x i8] c"blink.mojom.WebBluetoothCharacteristicClient\00", align 16
@_ZTVN5blink5mojom5blink37WebBluetoothCharacteristicClientProxyE = hidden unnamed_addr constant { [5 x i8*] } { [5 x i8*] [i8* null, i8* null, i8* bitcast (void (%"class.blink::mojom::blink::WebBluetoothCharacteristicClient"*)* @_ZN5blink5mojom5blink32WebBluetoothCharacteristicClientD2Ev to i8*), i8* bitcast (void (%"class.blink::mojom::blink::WebBluetoothCharacteristicClientProxy"*)* @_ZN5blink5mojom5blink37WebBluetoothCharacteristicClientProxyD0Ev to i8*), i8* bitcast (void (%"class.blink::mojom::blink::WebBluetoothCharacteristicClientProxy"*, %"class.WTF::Vector.75"*)* @_ZN5blink5mojom5blink37WebBluetoothCharacteristicClientProxy32RemoteCharacteristicValueChangedERKN3WTF6VectorIhLj0ENS3_18PartitionAllocatorEEE to i8*)] }, align 8
@_ZN5blink5mojom5blinkL47kWebBluetoothCharacteristicClientValidationInfoE = internal constant [1 x %"struct.std::__1::pair"] [%"struct.std::__1::pair" { i32 1931507195, %"struct.mojo::internal::GenericValidationInfo" { i1 (i8*, %"class.mojo::internal::ValidationContext"*)* @_ZN5blink5mojom8internal77WebBluetoothCharacteristicClient_RemoteCharacteristicValueChanged_Params_Data8ValidateEPKvPN4mojo8internal17ValidationContextE, i1 (i8*, %"class.mojo::internal::ValidationContext"*)* null } }], align 16
@_ZN5blink5mojom5blink31WebBluetoothAdvertisementClient5Name_E = hidden constant [44 x i8] c"blink.mojom.WebBluetoothAdvertisementClient\00", align 16
@_ZTVN5blink5mojom5blink36WebBluetoothAdvertisementClientProxyE = hidden unnamed_addr constant { [5 x i8*] } { [5 x i8*] [i8* null, i8* null, i8* bitcast (void (%"class.blink::mojom::blink::WebBluetoothAdvertisementClient"*)* @_ZN5blink5mojom5blink31WebBluetoothAdvertisementClientD2Ev to i8*), i8* bitcast (void (%"class.blink::mojom::blink::WebBluetoothAdvertisementClientProxy"*)* @_ZN5blink5mojom5blink36WebBluetoothAdvertisementClientProxyD0Ev to i8*), i8* bitcast (void (%"class.blink::mojom::blink::WebBluetoothAdvertisementClientProxy"*, %"class.mojo::StructPtr.245"*)* @_ZN5blink5mojom5blink36WebBluetoothAdvertisementClientProxy16AdvertisingEventEN4mojo9StructPtrINS1_28WebBluetoothAdvertisingEventEEE to i8*)] }, align 8
@_ZN5blink5mojom5blinkL46kWebBluetoothAdvertisementClientValidationInfoE = internal constant [1 x %"struct.std::__1::pair"] [%"struct.std::__1::pair" { i32 942658099, %"struct.mojo::internal::GenericValidationInfo" { i1 (i8*, %"class.mojo::internal::ValidationContext"*)* @_ZN5blink5mojom8internal60WebBluetoothAdvertisementClient_AdvertisingEvent_Params_Data8ValidateEPKvPN4mojo8internal17ValidationContextE, i1 (i8*, %"class.mojo::internal::ValidationContext"*)* null } }], align 16
@_ZTVN5blink5mojom5blink53WebBluetoothService_GetAvailability_ForwardToCallbackE = hidden unnamed_addr constant { [6 x i8*] } { [6 x i8*] [i8* null, i8* null, i8* bitcast (void (%"class.blink::mojom::blink::WebBluetoothService_GetAvailability_ForwardToCallback"*)* @_ZN5blink5mojom5blink53WebBluetoothService_GetAvailability_ForwardToCallbackD2Ev to i8*), i8* bitcast (void (%"class.blink::mojom::blink::WebBluetoothService_GetAvailability_ForwardToCallback"*)* @_ZN5blink5mojom5blink53WebBluetoothService_GetAvailability_ForwardToCallbackD0Ev to i8*), i8* bitcast (i1 (%"class.mojo::MessageReceiver"*)* @_ZN4mojo15MessageReceiver25PrefersSerializedMessagesEv to i8*), i8* bitcast (i1 (%"class.blink::mojom::blink::WebBluetoothService_GetAvailability_ForwardToCallback"*, %"class.mojo::Message"*)* @_ZN5blink5mojom5blink53WebBluetoothService_GetAvailability_ForwardToCallback6AcceptEPN4mojo7MessageE to i8*)] }, align 8
@_ZTVN5blink5mojom5blink51WebBluetoothService_RequestDevice_ForwardToCallbackE = hidden unnamed_addr constant { [6 x i8*] } { [6 x i8*] [i8* null, i8* null, i8* bitcast (void (%"class.blink::mojom::blink::WebBluetoothService_RequestDevice_ForwardToCallback"*)* @_ZN5blink5mojom5blink51WebBluetoothService_RequestDevice_ForwardToCallbackD2Ev to i8*), i8* bitcast (void (%"class.blink::mojom::blink::WebBluetoothService_RequestDevice_ForwardToCallback"*)* @_ZN5blink5mojom5blink51WebBluetoothService_RequestDevice_ForwardToCallbackD0Ev to i8*), i8* bitcast (i1 (%"class.mojo::MessageReceiver"*)* @_ZN4mojo15MessageReceiver25PrefersSerializedMessagesEv to i8*), i8* bitcast (i1 (%"class.blink::mojom::blink::WebBluetoothService_RequestDevice_ForwardToCallback"*, %"class.mojo::Message"*)* @_ZN5blink5mojom5blink51WebBluetoothService_RequestDevice_ForwardToCallback6AcceptEPN4mojo7MessageE to i8*)] }, align 8
@_ZTVN5blink5mojom5blink48WebBluetoothService_GetDevices_ForwardToCallbackE = hidden unnamed_addr constant { [6 x i8*] } { [6 x i8*] [i8* null, i8* null, i8* bitcast (void (%"class.blink::mojom::blink::WebBluetoothService_GetDevices_ForwardToCallback"*)* @_ZN5blink5mojom5blink48WebBluetoothService_GetDevices_ForwardToCallbackD2Ev to i8*), i8* bitcast (void (%"class.blink::mojom::blink::WebBluetoothService_GetDevices_ForwardToCallback"*)* @_ZN5blink5mojom5blink48WebBluetoothService_GetDevices_ForwardToCallbackD0Ev to i8*), i8* bitcast (i1 (%"class.mojo::MessageReceiver"*)* @_ZN4mojo15MessageReceiver25PrefersSerializedMessagesEv to i8*), i8* bitcast (i1 (%"class.blink::mojom::blink::WebBluetoothService_GetDevices_ForwardToCallback"*, %"class.mojo::Message"*)* @_ZN5blink5mojom5blink48WebBluetoothService_GetDevices_ForwardToCallback6AcceptEPN4mojo7MessageE to i8*)] }, align 8
@_ZTVN5blink5mojom5blink57WebBluetoothService_RemoteServerConnect_ForwardToCallbackE = hidden unnamed_addr constant { [6 x i8*] } { [6 x i8*] [i8* null, i8* null, i8* bitcast (void (%"class.blink::mojom::blink::WebBluetoothService_RemoteServerConnect_ForwardToCallback"*)* @_ZN5blink5mojom5blink57WebBluetoothService_RemoteServerConnect_ForwardToCallbackD2Ev to i8*), i8* bitcast (void (%"class.blink::mojom::blink::WebBluetoothService_RemoteServerConnect_ForwardToCallback"*)* @_ZN5blink5mojom5blink57WebBluetoothService_RemoteServerConnect_ForwardToCallbackD0Ev to i8*), i8* bitcast (i1 (%"class.mojo::MessageReceiver"*)* @_ZN4mojo15MessageReceiver25PrefersSerializedMessagesEv to i8*), i8* bitcast (i1 (%"class.blink::mojom::blink::WebBluetoothService_RemoteServerConnect_ForwardToCallback"*, %"class.mojo::Message"*)* @_ZN5blink5mojom5blink57WebBluetoothService_RemoteServerConnect_ForwardToCallback6AcceptEPN4mojo7MessageE to i8*)] }, align 8
@_ZTVN5blink5mojom5blink68WebBluetoothService_RemoteServerGetPrimaryServices_ForwardToCallbackE = hidden unnamed_addr constant { [6 x i8*] } { [6 x i8*] [i8* null, i8* null, i8* bitcast (void (%"class.blink::mojom::blink::WebBluetoothService_RemoteServerGetPrimaryServices_ForwardToCallback"*)* @_ZN5blink5mojom5blink68WebBluetoothService_RemoteServerGetPrimaryServices_ForwardToCallbackD2Ev to i8*), i8* bitcast (void (%"class.blink::mojom::blink::WebBluetoothService_RemoteServerGetPrimaryServices_ForwardToCallback"*)* @_ZN5blink5mojom5blink68WebBluetoothService_RemoteServerGetPrimaryServices_ForwardToCallbackD0Ev to i8*), i8* bitcast (i1 (%"class.mojo::MessageReceiver"*)* @_ZN4mojo15MessageReceiver25PrefersSerializedMessagesEv to i8*), i8* bitcast (i1 (%"class.blink::mojom::blink::WebBluetoothService_RemoteServerGetPrimaryServices_ForwardToCallback"*, %"class.mojo::Message"*)* @_ZN5blink5mojom5blink68WebBluetoothService_RemoteServerGetPrimaryServices_ForwardToCallback6AcceptEPN4mojo7MessageE to i8*)] }, align 8
@_ZTVN5blink5mojom5blink69WebBluetoothService_RemoteServiceGetCharacteristics_ForwardToCallbackE = hidden unnamed_addr constant { [6 x i8*] } { [6 x i8*] [i8* null, i8* null, i8* bitcast (void (%"class.blink::mojom::blink::WebBluetoothService_RemoteServiceGetCharacteristics_ForwardToCallback"*)* @_ZN5blink5mojom5blink69WebBluetoothService_RemoteServiceGetCharacteristics_ForwardToCallbackD2Ev to i8*), i8* bitcast (void (%"class.blink::mojom::blink::WebBluetoothService_RemoteServiceGetCharacteristics_ForwardToCallback"*)* @_ZN5blink5mojom5blink69WebBluetoothService_RemoteServiceGetCharacteristics_ForwardToCallbackD0Ev to i8*), i8* bitcast (i1 (%"class.mojo::MessageReceiver"*)* @_ZN4mojo15MessageReceiver25PrefersSerializedMessagesEv to i8*), i8* bitcast (i1 (%"class.blink::mojom::blink::WebBluetoothService_RemoteServiceGetCharacteristics_ForwardToCallback"*, %"class.mojo::Message"*)* @_ZN5blink5mojom5blink69WebBluetoothService_RemoteServiceGetCharacteristics_ForwardToCallback6AcceptEPN4mojo7MessageE to i8*)] }, align 8
@_ZTVN5blink5mojom5blink67WebBluetoothService_RemoteCharacteristicReadValue_ForwardToCallbackE = hidden unnamed_addr constant { [6 x i8*] } { [6 x i8*] [i8* null, i8* null, i8* bitcast (void (%"class.blink::mojom::blink::WebBluetoothService_RemoteCharacteristicReadValue_ForwardToCallback"*)* @_ZN5blink5mojom5blink67WebBluetoothService_RemoteCharacteristicReadValue_ForwardToCallbackD2Ev to i8*), i8* bitcast (void (%"class.blink::mojom::blink::WebBluetoothService_RemoteCharacteristicReadValue_ForwardToCallback"*)* @_ZN5blink5mojom5blink67WebBluetoothService_RemoteCharacteristicReadValue_ForwardToCallbackD0Ev to i8*), i8* bitcast (i1 (%"class.mojo::MessageReceiver"*)* @_ZN4mojo15MessageReceiver25PrefersSerializedMessagesEv to i8*), i8* bitcast (i1 (%"class.blink::mojom::blink::WebBluetoothService_RemoteCharacteristicReadValue_ForwardToCallback"*, %"class.mojo::Message"*)* @_ZN5blink5mojom5blink67WebBluetoothService_RemoteCharacteristicReadValue_ForwardToCallback6AcceptEPN4mojo7MessageE to i8*)] }, align 8
@_ZTVN5blink5mojom5blink68WebBluetoothService_RemoteCharacteristicWriteValue_ForwardToCallbackE = hidden unnamed_addr constant { [6 x i8*] } { [6 x i8*] [i8* null, i8* null, i8* bitcast (void (%"class.blink::mojom::blink::WebBluetoothService_RemoteCharacteristicWriteValue_ForwardToCallback"*)* @_ZN5blink5mojom5blink68WebBluetoothService_RemoteCharacteristicWriteValue_ForwardToCallbackD2Ev to i8*), i8* bitcast (void (%"class.blink::mojom::blink::WebBluetoothService_RemoteCharacteristicWriteValue_ForwardToCallback"*)* @_ZN5blink5mojom5blink68WebBluetoothService_RemoteCharacteristicWriteValue_ForwardToCallbackD0Ev to i8*), i8* bitcast (i1 (%"class.mojo::MessageReceiver"*)* @_ZN4mojo15MessageReceiver25PrefersSerializedMessagesEv to i8*), i8* bitcast (i1 (%"class.blink::mojom::blink::WebBluetoothService_RemoteCharacteristicWriteValue_ForwardToCallback"*, %"class.mojo::Message"*)* @_ZN5blink5mojom5blink68WebBluetoothService_RemoteCharacteristicWriteValue_ForwardToCallback6AcceptEPN4mojo7MessageE to i8*)] }, align 8
@_ZTVN5blink5mojom5blink76WebBluetoothService_RemoteCharacteristicStartNotifications_ForwardToCallbackE = hidden unnamed_addr constant { [6 x i8*] } { [6 x i8*] [i8* null, i8* null, i8* bitcast (void (%"class.blink::mojom::blink::WebBluetoothService_RemoteCharacteristicStartNotifications_ForwardToCallback"*)* @_ZN5blink5mojom5blink76WebBluetoothService_RemoteCharacteristicStartNotifications_ForwardToCallbackD2Ev to i8*), i8* bitcast (void (%"class.blink::mojom::blink::WebBluetoothService_RemoteCharacteristicStartNotifications_ForwardToCallback"*)* @_ZN5blink5mojom5blink76WebBluetoothService_RemoteCharacteristicStartNotifications_ForwardToCallbackD0Ev to i8*), i8* bitcast (i1 (%"class.mojo::MessageReceiver"*)* @_ZN4mojo15MessageReceiver25PrefersSerializedMessagesEv to i8*), i8* bitcast (i1 (%"class.blink::mojom::blink::WebBluetoothService_RemoteCharacteristicStartNotifications_ForwardToCallback"*, %"class.mojo::Message"*)* @_ZN5blink5mojom5blink76WebBluetoothService_RemoteCharacteristicStartNotifications_ForwardToCallback6AcceptEPN4mojo7MessageE to i8*)] }, align 8
@_ZTVN5blink5mojom5blink75WebBluetoothService_RemoteCharacteristicStopNotifications_ForwardToCallbackE = hidden unnamed_addr constant { [6 x i8*] } { [6 x i8*] [i8* null, i8* null, i8* bitcast (void (%"class.blink::mojom::blink::WebBluetoothService_RemoteCharacteristicStopNotifications_ForwardToCallback"*)* @_ZN5blink5mojom5blink75WebBluetoothService_RemoteCharacteristicStopNotifications_ForwardToCallbackD2Ev to i8*), i8* bitcast (void (%"class.blink::mojom::blink::WebBluetoothService_RemoteCharacteristicStopNotifications_ForwardToCallback"*)* @_ZN5blink5mojom5blink75WebBluetoothService_RemoteCharacteristicStopNotifications_ForwardToCallbackD0Ev to i8*), i8* bitcast (i1 (%"class.mojo::MessageReceiver"*)* @_ZN4mojo15MessageReceiver25PrefersSerializedMessagesEv to i8*), i8* bitcast (i1 (%"class.blink::mojom::blink::WebBluetoothService_RemoteCharacteristicStopNotifications_ForwardToCallback"*, %"class.mojo::Message"*)* @_ZN5blink5mojom5blink75WebBluetoothService_RemoteCharacteristicStopNotifications_ForwardToCallback6AcceptEPN4mojo7MessageE to i8*)] }, align 8
@_ZTVN5blink5mojom5blink72WebBluetoothService_RemoteCharacteristicGetDescriptors_ForwardToCallbackE = hidden unnamed_addr constant { [6 x i8*] } { [6 x i8*] [i8* null, i8* null, i8* bitcast (void (%"class.blink::mojom::blink::WebBluetoothService_RemoteCharacteristicGetDescriptors_ForwardToCallback"*)* @_ZN5blink5mojom5blink72WebBluetoothService_RemoteCharacteristicGetDescriptors_ForwardToCallbackD2Ev to i8*), i8* bitcast (void (%"class.blink::mojom::blink::WebBluetoothService_RemoteCharacteristicGetDescriptors_ForwardToCallback"*)* @_ZN5blink5mojom5blink72WebBluetoothService_RemoteCharacteristicGetDescriptors_ForwardToCallbackD0Ev to i8*), i8* bitcast (i1 (%"class.mojo::MessageReceiver"*)* @_ZN4mojo15MessageReceiver25PrefersSerializedMessagesEv to i8*), i8* bitcast (i1 (%"class.blink::mojom::blink::WebBluetoothService_RemoteCharacteristicGetDescriptors_ForwardToCallback"*, %"class.mojo::Message"*)* @_ZN5blink5mojom5blink72WebBluetoothService_RemoteCharacteristicGetDescriptors_ForwardToCallback6AcceptEPN4mojo7MessageE to i8*)] }, align 8
@_ZTVN5blink5mojom5blink63WebBluetoothService_RemoteDescriptorReadValue_ForwardToCallbackE = hidden unnamed_addr constant { [6 x i8*] } { [6 x i8*] [i8* null, i8* null, i8* bitcast (void (%"class.blink::mojom::blink::WebBluetoothService_RemoteDescriptorReadValue_ForwardToCallback"*)* @_ZN5blink5mojom5blink63WebBluetoothService_RemoteDescriptorReadValue_ForwardToCallbackD2Ev to i8*), i8* bitcast (void (%"class.blink::mojom::blink::WebBluetoothService_RemoteDescriptorReadValue_ForwardToCallback"*)* @_ZN5blink5mojom5blink63WebBluetoothService_RemoteDescriptorReadValue_ForwardToCallbackD0Ev to i8*), i8* bitcast (i1 (%"class.mojo::MessageReceiver"*)* @_ZN4mojo15MessageReceiver25PrefersSerializedMessagesEv to i8*), i8* bitcast (i1 (%"class.blink::mojom::blink::WebBluetoothService_RemoteDescriptorReadValue_ForwardToCallback"*, %"class.mojo::Message"*)* @_ZN5blink5mojom5blink63WebBluetoothService_RemoteDescriptorReadValue_ForwardToCallback6AcceptEPN4mojo7MessageE to i8*)] }, align 8
@_ZTVN5blink5mojom5blink64WebBluetoothService_RemoteDescriptorWriteValue_ForwardToCallbackE = hidden unnamed_addr constant { [6 x i8*] } { [6 x i8*] [i8* null, i8* null, i8* bitcast (void (%"class.blink::mojom::blink::WebBluetoothService_RemoteDescriptorWriteValue_ForwardToCallback"*)* @_ZN5blink5mojom5blink64WebBluetoothService_RemoteDescriptorWriteValue_ForwardToCallbackD2Ev to i8*), i8* bitcast (void (%"class.blink::mojom::blink::WebBluetoothService_RemoteDescriptorWriteValue_ForwardToCallback"*)* @_ZN5blink5mojom5blink64WebBluetoothService_RemoteDescriptorWriteValue_ForwardToCallbackD0Ev to i8*), i8* bitcast (i1 (%"class.mojo::MessageReceiver"*)* @_ZN4mojo15MessageReceiver25PrefersSerializedMessagesEv to i8*), i8* bitcast (i1 (%"class.blink::mojom::blink::WebBluetoothService_RemoteDescriptorWriteValue_ForwardToCallback"*, %"class.mojo::Message"*)* @_ZN5blink5mojom5blink64WebBluetoothService_RemoteDescriptorWriteValue_ForwardToCallback6AcceptEPN4mojo7MessageE to i8*)] }, align 8
@_ZTVN5blink5mojom5blink58WebBluetoothService_RequestScanningStart_ForwardToCallbackE = hidden unnamed_addr constant { [6 x i8*] } { [6 x i8*] [i8* null, i8* null, i8* bitcast (void (%"class.blink::mojom::blink::WebBluetoothService_RequestScanningStart_ForwardToCallback"*)* @_ZN5blink5mojom5blink58WebBluetoothService_RequestScanningStart_ForwardToCallbackD2Ev to i8*), i8* bitcast (void (%"class.blink::mojom::blink::WebBluetoothService_RequestScanningStart_ForwardToCallback"*)* @_ZN5blink5mojom5blink58WebBluetoothService_RequestScanningStart_ForwardToCallbackD0Ev to i8*), i8* bitcast (i1 (%"class.mojo::MessageReceiver"*)* @_ZN4mojo15MessageReceiver25PrefersSerializedMessagesEv to i8*), i8* bitcast (i1 (%"class.blink::mojom::blink::WebBluetoothService_RequestScanningStart_ForwardToCallback"*, %"class.mojo::Message"*)* @_ZN5blink5mojom5blink58WebBluetoothService_RequestScanningStart_ForwardToCallback6AcceptEPN4mojo7MessageE to i8*)] }, align 8
@_ZTVN5blink5mojom5blink66WebBluetoothService_WatchAdvertisementsForDevice_ForwardToCallbackE = hidden unnamed_addr constant { [6 x i8*] } { [6 x i8*] [i8* null, i8* null, i8* bitcast (void (%"class.blink::mojom::blink::WebBluetoothService_WatchAdvertisementsForDevice_ForwardToCallback"*)* @_ZN5blink5mojom5blink66WebBluetoothService_WatchAdvertisementsForDevice_ForwardToCallbackD2Ev to i8*), i8* bitcast (void (%"class.blink::mojom::blink::WebBluetoothService_WatchAdvertisementsForDevice_ForwardToCallback"*)* @_ZN5blink5mojom5blink66WebBluetoothService_WatchAdvertisementsForDevice_ForwardToCallbackD0Ev to i8*), i8* bitcast (i1 (%"class.mojo::MessageReceiver"*)* @_ZN4mojo15MessageReceiver25PrefersSerializedMessagesEv to i8*), i8* bitcast (i1 (%"class.blink::mojom::blink::WebBluetoothService_WatchAdvertisementsForDevice_ForwardToCallback"*, %"class.mojo::Message"*)* @_ZN5blink5mojom5blink66WebBluetoothService_WatchAdvertisementsForDevice_ForwardToCallback6AcceptEPN4mojo7MessageE to i8*)] }, align 8
@_ZTVN5blink5mojom5blink35WebBluetoothServiceRequestValidatorE = hidden unnamed_addr constant { [6 x i8*] } { [6 x i8*] [i8* null, i8* null, i8* bitcast (void (%"class.mojo::MessageReceiver"*)* @_ZN4mojo15MessageReceiverD2Ev to i8*), i8* bitcast (void (%"class.blink::mojom::blink::WebBluetoothServiceRequestValidator"*)* @_ZN5blink5mojom5blink35WebBluetoothServiceRequestValidatorD0Ev to i8*), i8* bitcast (i1 (%"class.mojo::MessageReceiver"*)* @_ZN4mojo15MessageReceiver25PrefersSerializedMessagesEv to i8*), i8* bitcast (i1 (%"class.blink::mojom::blink::WebBluetoothServiceRequestValidator"*, %"class.mojo::Message"*)* @_ZN5blink5mojom5blink35WebBluetoothServiceRequestValidator6AcceptEPN4mojo7MessageE to i8*)] }, align 8
@_ZTVN5blink5mojom5blink36WebBluetoothServiceResponseValidatorE = hidden unnamed_addr constant { [6 x i8*] } { [6 x i8*] [i8* null, i8* null, i8* bitcast (void (%"class.mojo::MessageReceiver"*)* @_ZN4mojo15MessageReceiverD2Ev to i8*), i8* bitcast (void (%"class.blink::mojom::blink::WebBluetoothServiceResponseValidator"*)* @_ZN5blink5mojom5blink36WebBluetoothServiceResponseValidatorD0Ev to i8*), i8* bitcast (i1 (%"class.mojo::MessageReceiver"*)* @_ZN4mojo15MessageReceiver25PrefersSerializedMessagesEv to i8*), i8* bitcast (i1 (%"class.blink::mojom::blink::WebBluetoothServiceResponseValidator"*, %"class.mojo::Message"*)* @_ZN5blink5mojom5blink36WebBluetoothServiceResponseValidator6AcceptEPN4mojo7MessageE to i8*)] }, align 8
@_ZTVN5blink5mojom5blink40WebBluetoothServerClientRequestValidatorE = hidden unnamed_addr constant { [6 x i8*] } { [6 x i8*] [i8* null, i8* null, i8* bitcast (void (%"class.mojo::MessageReceiver"*)* @_ZN4mojo15MessageReceiverD2Ev to i8*), i8* bitcast (void (%"class.blink::mojom::blink::WebBluetoothServerClientRequestValidator"*)* @_ZN5blink5mojom5blink40WebBluetoothServerClientRequestValidatorD0Ev to i8*), i8* bitcast (i1 (%"class.mojo::MessageReceiver"*)* @_ZN4mojo15MessageReceiver25PrefersSerializedMessagesEv to i8*), i8* bitcast (i1 (%"class.blink::mojom::blink::WebBluetoothServerClientRequestValidator"*, %"class.mojo::Message"*)* @_ZN5blink5mojom5blink40WebBluetoothServerClientRequestValidator6AcceptEPN4mojo7MessageE to i8*)] }, align 8
@_ZTVN5blink5mojom5blink48WebBluetoothCharacteristicClientRequestValidatorE = hidden unnamed_addr constant { [6 x i8*] } { [6 x i8*] [i8* null, i8* null, i8* bitcast (void (%"class.mojo::MessageReceiver"*)* @_ZN4mojo15MessageReceiverD2Ev to i8*), i8* bitcast (void (%"class.blink::mojom::blink::WebBluetoothCharacteristicClientRequestValidator"*)* @_ZN5blink5mojom5blink48WebBluetoothCharacteristicClientRequestValidatorD0Ev to i8*), i8* bitcast (i1 (%"class.mojo::MessageReceiver"*)* @_ZN4mojo15MessageReceiver25PrefersSerializedMessagesEv to i8*), i8* bitcast (i1 (%"class.blink::mojom::blink::WebBluetoothCharacteristicClientRequestValidator"*, %"class.mojo::Message"*)* @_ZN5blink5mojom5blink48WebBluetoothCharacteristicClientRequestValidator6AcceptEPN4mojo7MessageE to i8*)] }, align 8
@_ZTVN5blink5mojom5blink47WebBluetoothAdvertisementClientRequestValidatorE = hidden unnamed_addr constant { [6 x i8*] } { [6 x i8*] [i8* null, i8* null, i8* bitcast (void (%"class.mojo::MessageReceiver"*)* @_ZN4mojo15MessageReceiverD2Ev to i8*), i8* bitcast (void (%"class.blink::mojom::blink::WebBluetoothAdvertisementClientRequestValidator"*)* @_ZN5blink5mojom5blink47WebBluetoothAdvertisementClientRequestValidatorD0Ev to i8*), i8* bitcast (i1 (%"class.mojo::MessageReceiver"*)* @_ZN4mojo15MessageReceiver25PrefersSerializedMessagesEv to i8*), i8* bitcast (i1 (%"class.blink::mojom::blink::WebBluetoothAdvertisementClientRequestValidator"*, %"class.mojo::Message"*)* @_ZN5blink5mojom5blink47WebBluetoothAdvertisementClientRequestValidator6AcceptEPN4mojo7MessageE to i8*)] }, align 8
@.str.41 = private unnamed_addr constant [59 x i8] c"../../third_party/blink/renderer/platform/wtf/hash_table.h\00", align 1
@.str.42 = private unnamed_addr constant [39 x i8] c"!static_cast<int>( new_capacity >> 31)\00", align 1
@__PRETTY_FUNCTION__._ZN3WTF21GetStringWithTypeNameINS_12KeyValuePairItNS_6VectorIhLj0ENS_18PartitionAllocatorEEEEEEEPKcv = private unnamed_addr constant [138 x i8] c"const char *WTF::GetStringWithTypeName() [T = WTF::KeyValuePair<unsigned short, WTF::Vector<unsigned char, 0, WTF::PartitionAllocator> >]\00", align 1
@.str.43 = private unnamed_addr constant [23 x i8] c"new_size > table_size_\00", align 1
@.str.44 = private unnamed_addr constant [44 x i8] c"count <= MaxElementCountInBackingStore<T>()\00", align 1
@.str.45 = private unnamed_addr constant [78 x i8] c"../../third_party/blink/renderer/platform/wtf/allocator/partition_allocator.h\00", align 1
@__PRETTY_FUNCTION__._ZN3WTF21GetStringWithTypeNameIhEEPKcv = private unnamed_addr constant [61 x i8] c"const char *WTF::GetStringWithTypeName() [T = unsigned char]\00", align 1
@.str.46 = private unnamed_addr constant [55 x i8] c"../../third_party/blink/renderer/platform/wtf/vector.h\00", align 1
@__PRETTY_FUNCTION__._ZN3WTF21GetStringWithTypeNameINS_12KeyValuePairINS_6StringENS_6VectorIhLj0ENS_18PartitionAllocatorEEEEEEEPKcv = private unnamed_addr constant [135 x i8] c"const char *WTF::GetStringWithTypeName() [T = WTF::KeyValuePair<WTF::String, WTF::Vector<unsigned char, 0, WTF::PartitionAllocator> >]\00", align 1
@.str.49 = private unnamed_addr constant [11 x i8] c"i < size()\00", align 1
@__PRETTY_FUNCTION__._ZN3WTF21GetStringWithTypeNameIN4mojo9StructPtrIN5blink5mojom5blink18WebBluetoothDeviceEEEEEPKcv = private unnamed_addr constant [104 x i8] c"const char *WTF::GetStringWithTypeName() [T = mojo::StructPtr<blink::mojom::blink::WebBluetoothDevice>]\00", align 1
@__PRETTY_FUNCTION__._ZN3WTF21GetStringWithTypeNameIN4mojo9StructPtrIN5blink5mojom5blink29WebBluetoothRemoteGATTServiceEEEEEPKcv = private unnamed_addr constant [115 x i8] c"const char *WTF::GetStringWithTypeName() [T = mojo::StructPtr<blink::mojom::blink::WebBluetoothRemoteGATTService>]\00", align 1
@__PRETTY_FUNCTION__._ZN3WTF21GetStringWithTypeNameIN4mojo9StructPtrIN5blink5mojom5blink36WebBluetoothRemoteGATTCharacteristicEEEEEPKcv = private unnamed_addr constant [122 x i8] c"const char *WTF::GetStringWithTypeName() [T = mojo::StructPtr<blink::mojom::blink::WebBluetoothRemoteGATTCharacteristic>]\00", align 1
@__PRETTY_FUNCTION__._ZN3WTF21GetStringWithTypeNameIN4mojo9StructPtrIN5blink5mojom5blink32WebBluetoothRemoteGATTDescriptorEEEEEPKcv = private unnamed_addr constant [118 x i8] c"const char *WTF::GetStringWithTypeName() [T = mojo::StructPtr<blink::mojom::blink::WebBluetoothRemoteGATTDescriptor>]\00", align 1
@__PRETTY_FUNCTION__._ZN3WTF21GetStringWithTypeNameINS_6StringEEEPKcv = private unnamed_addr constant [59 x i8] c"const char *WTF::GetStringWithTypeName() [T = WTF::String]\00", align 1
@__PRETTY_FUNCTION__._ZN3WTF21GetStringWithTypeNameIN4mojo16InlinedStructPtrIN5blink5mojom5blink22WebBluetoothDataFilterEEEEEPKcv = private unnamed_addr constant [115 x i8] c"const char *WTF::GetStringWithTypeName() [T = mojo::InlinedStructPtr<blink::mojom::blink::WebBluetoothDataFilter>]\00", align 1
@.str.50 = private unnamed_addr constant [57 x i8] c"../../mojo/public/cpp/bindings/map_traits_wtf_hash_map.h\00", align 1
@.str.51 = private unnamed_addr constant [44 x i8] c"The key value is disallowed by WTF::HashMap\00", align 1
@_ZNSt3__15ctypeIcE2idE = external global %"class.std::__1::locale::id", align 8
@__PRETTY_FUNCTION__._ZN3WTF21GetStringWithTypeNameINS_12KeyValuePairIN4mojo16InlinedStructPtrIN5blink5mojom5blink19WebBluetoothCompanyEEENS_6VectorINS3_INS6_22WebBluetoothDataFilterEEELj0ENS_18PartitionAllocatorEEEEEEEPKcv = private unnamed_addr constant [242 x i8] c"const char *WTF::GetStringWithTypeName() [T = WTF::KeyValuePair<mojo::InlinedStructPtr<blink::mojom::blink::WebBluetoothCompany>, WTF::Vector<mojo::InlinedStructPtr<blink::mojom::blink::WebBluetoothDataFilter>, 0, WTF::PartitionAllocator> >]\00", align 1
@__PRETTY_FUNCTION__._ZN3WTF21GetStringWithTypeNameIN4mojo9StructPtrIN5blink5mojom5blink24WebBluetoothLeScanFilterEEEEEPKcv = private unnamed_addr constant [110 x i8] c"const char *WTF::GetStringWithTypeName() [T = mojo::StructPtr<blink::mojom::blink::WebBluetoothLeScanFilter>]\00", align 1
@__PRETTY_FUNCTION__._ZN3WTF21GetStringWithTypeNameItEEPKcv = private unnamed_addr constant [62 x i8] c"const char *WTF::GetStringWithTypeName() [T = unsigned short]\00", align 1

@_ZN5blink5mojom5blink24WebBluetoothLeScanFilterC1Ev = hidden unnamed_addr alias void (%"class.blink::mojom::blink::WebBluetoothLeScanFilter"*), void (%"class.blink::mojom::blink::WebBluetoothLeScanFilter"*)* @_ZN5blink5mojom5blink24WebBluetoothLeScanFilterC2Ev
@_ZN5blink5mojom5blink24WebBluetoothLeScanFilterC1EN4absl8optionalIN3WTF6VectorINS5_6StringELj0ENS5_18PartitionAllocatorEEEEERKS7_SC_NS4_INS5_7HashMapIN4mojo16InlinedStructPtrINS1_19WebBluetoothCompanyEEENS6_INSF_INS1_22WebBluetoothDataFilterEEELj0ES8_EENSE_8internal22InlinedStructPtrHashFnISG_EENS5_10HashTraitsISH_EENSO_ISK_EES8_EEEE = hidden unnamed_addr alias void (%"class.blink::mojom::blink::WebBluetoothLeScanFilter"*, %"class.absl::optional"*, %"class.WTF::String"*, %"class.WTF::String"*, %"class.absl::optional.1"*), void (%"class.blink::mojom::blink::WebBluetoothLeScanFilter"*, %"class.absl::optional"*, %"class.WTF::String"*, %"class.WTF::String"*, %"class.absl::optional.1"*)* @_ZN5blink5mojom5blink24WebBluetoothLeScanFilterC2EN4absl8optionalIN3WTF6VectorINS5_6StringELj0ENS5_18PartitionAllocatorEEEEERKS7_SC_NS4_INS5_7HashMapIN4mojo16InlinedStructPtrINS1_19WebBluetoothCompanyEEENS6_INSF_INS1_22WebBluetoothDataFilterEEELj0ES8_EENSE_8internal22InlinedStructPtrHashFnISG_EENS5_10HashTraitsISH_EENSO_ISK_EES8_EEEE
@_ZN5blink5mojom5blink24WebBluetoothLeScanFilterD1Ev = hidden unnamed_addr alias void (%"class.blink::mojom::blink::WebBluetoothLeScanFilter"*), void (%"class.blink::mojom::blink::WebBluetoothLeScanFilter"*)* @_ZN5blink5mojom5blink24WebBluetoothLeScanFilterD2Ev
@_ZN5blink5mojom5blink19WebBluetoothCompanyC1Ev = hidden unnamed_addr alias void (%"class.blink::mojom::blink::WebBluetoothCompany"*), void (%"class.blink::mojom::blink::WebBluetoothCompany"*)* @_ZN5blink5mojom5blink19WebBluetoothCompanyC2Ev
@_ZN5blink5mojom5blink19WebBluetoothCompanyC1Et = hidden unnamed_addr alias void (%"class.blink::mojom::blink::WebBluetoothCompany"*, i16), void (%"class.blink::mojom::blink::WebBluetoothCompany"*, i16)* @_ZN5blink5mojom5blink19WebBluetoothCompanyC2Et
@_ZN5blink5mojom5blink19WebBluetoothCompanyD1Ev = hidden unnamed_addr alias void (%"class.blink::mojom::blink::WebBluetoothCompany"*), void (%"class.blink::mojom::blink::WebBluetoothCompany"*)* @_ZN5blink5mojom5blink19WebBluetoothCompanyD2Ev
@_ZN5blink5mojom5blink22WebBluetoothDataFilterC1Ev = hidden unnamed_addr alias void (%"class.blink::mojom::blink::WebBluetoothDataFilter"*), void (%"class.blink::mojom::blink::WebBluetoothDataFilter"*)* @_ZN5blink5mojom5blink22WebBluetoothDataFilterC2Ev
@_ZN5blink5mojom5blink22WebBluetoothDataFilterC1Ehh = hidden unnamed_addr alias void (%"class.blink::mojom::blink::WebBluetoothDataFilter"*, i8, i8), void (%"class.blink::mojom::blink::WebBluetoothDataFilter"*, i8, i8)* @_ZN5blink5mojom5blink22WebBluetoothDataFilterC2Ehh
@_ZN5blink5mojom5blink22WebBluetoothDataFilterD1Ev = hidden unnamed_addr alias void (%"class.blink::mojom::blink::WebBluetoothDataFilter"*), void (%"class.blink::mojom::blink::WebBluetoothDataFilter"*)* @_ZN5blink5mojom5blink22WebBluetoothDataFilterD2Ev
@_ZN5blink5mojom5blink32WebBluetoothRequestDeviceOptionsC1Ev = hidden unnamed_addr alias void (%"class.blink::mojom::blink::WebBluetoothRequestDeviceOptions"*), void (%"class.blink::mojom::blink::WebBluetoothRequestDeviceOptions"*)* @_ZN5blink5mojom5blink32WebBluetoothRequestDeviceOptionsC2Ev
@_ZN5blink5mojom5blink32WebBluetoothRequestDeviceOptionsC1EN4absl8optionalIN3WTF6VectorIN4mojo9StructPtrINS1_24WebBluetoothLeScanFilterEEELj0ENS5_18PartitionAllocatorEEEEENS6_INS5_6StringELj0ESB_EENS6_ItLj0ESB_EEb = hidden unnamed_addr alias void (%"class.blink::mojom::blink::WebBluetoothRequestDeviceOptions"*, %"class.absl::optional.45"*, %"class.WTF::Vector"*, %"class.WTF::Vector.58"*, i1), void (%"class.blink::mojom::blink::WebBluetoothRequestDeviceOptions"*, %"class.absl::optional.45"*, %"class.WTF::Vector"*, %"class.WTF::Vector.58"*, i1)* @_ZN5blink5mojom5blink32WebBluetoothRequestDeviceOptionsC2EN4absl8optionalIN3WTF6VectorIN4mojo9StructPtrINS1_24WebBluetoothLeScanFilterEEELj0ENS5_18PartitionAllocatorEEEEENS6_INS5_6StringELj0ESB_EENS6_ItLj0ESB_EEb
@_ZN5blink5mojom5blink32WebBluetoothRequestDeviceOptionsD1Ev = hidden unnamed_addr alias void (%"class.blink::mojom::blink::WebBluetoothRequestDeviceOptions"*), void (%"class.blink::mojom::blink::WebBluetoothRequestDeviceOptions"*)* @_ZN5blink5mojom5blink32WebBluetoothRequestDeviceOptionsD2Ev
@_ZN5blink5mojom5blink32WebBluetoothRequestLEScanOptionsC1Ev = hidden unnamed_addr alias void (%"class.blink::mojom::blink::WebBluetoothRequestLEScanOptions"*), void (%"class.blink::mojom::blink::WebBluetoothRequestLEScanOptions"*)* @_ZN5blink5mojom5blink32WebBluetoothRequestLEScanOptionsC2Ev
@_ZN5blink5mojom5blink32WebBluetoothRequestLEScanOptionsC1EN4absl8optionalIN3WTF6VectorIN4mojo9StructPtrINS1_24WebBluetoothLeScanFilterEEELj0ENS5_18PartitionAllocatorEEEEEbb = hidden unnamed_addr alias void (%"class.blink::mojom::blink::WebBluetoothRequestLEScanOptions"*, %"class.absl::optional.45"*, i1, i1), void (%"class.blink::mojom::blink::WebBluetoothRequestLEScanOptions"*, %"class.absl::optional.45"*, i1, i1)* @_ZN5blink5mojom5blink32WebBluetoothRequestLEScanOptionsC2EN4absl8optionalIN3WTF6VectorIN4mojo9StructPtrINS1_24WebBluetoothLeScanFilterEEELj0ENS5_18PartitionAllocatorEEEEEbb
@_ZN5blink5mojom5blink32WebBluetoothRequestLEScanOptionsD1Ev = hidden unnamed_addr alias void (%"class.blink::mojom::blink::WebBluetoothRequestLEScanOptions"*), void (%"class.blink::mojom::blink::WebBluetoothRequestLEScanOptions"*)* @_ZN5blink5mojom5blink32WebBluetoothRequestLEScanOptionsD2Ev
@_ZN5blink5mojom5blink20WebBluetoothDeviceIdC1Ev = hidden unnamed_addr alias void (%"class.blink::mojom::blink::WebBluetoothDeviceId"*), void (%"class.blink::mojom::blink::WebBluetoothDeviceId"*)* @_ZN5blink5mojom5blink20WebBluetoothDeviceIdC2Ev
@_ZN5blink5mojom5blink20WebBluetoothDeviceIdC1ERKN3WTF6StringE = hidden unnamed_addr alias void (%"class.blink::mojom::blink::WebBluetoothDeviceId"*, %"class.WTF::String"*), void (%"class.blink::mojom::blink::WebBluetoothDeviceId"*, %"class.WTF::String"*)* @_ZN5blink5mojom5blink20WebBluetoothDeviceIdC2ERKN3WTF6StringE
@_ZN5blink5mojom5blink20WebBluetoothDeviceIdD1Ev = hidden unnamed_addr alias void (%"class.blink::mojom::blink::WebBluetoothDeviceId"*), void (%"class.blink::mojom::blink::WebBluetoothDeviceId"*)* @_ZN5blink5mojom5blink20WebBluetoothDeviceIdD2Ev
@_ZN5blink5mojom5blink18WebBluetoothDeviceC1Ev = hidden unnamed_addr alias void (%"class.blink::mojom::blink::WebBluetoothDevice"*), void (%"class.blink::mojom::blink::WebBluetoothDevice"*)* @_ZN5blink5mojom5blink18WebBluetoothDeviceC2Ev
@_ZN5blink5mojom5blink18WebBluetoothDeviceC1ERKN3WTF6StringES6_ = hidden unnamed_addr alias void (%"class.blink::mojom::blink::WebBluetoothDevice"*, %"class.WTF::String"*, %"class.WTF::String"*), void (%"class.blink::mojom::blink::WebBluetoothDevice"*, %"class.WTF::String"*, %"class.WTF::String"*)* @_ZN5blink5mojom5blink18WebBluetoothDeviceC2ERKN3WTF6StringES6_
@_ZN5blink5mojom5blink18WebBluetoothDeviceD1Ev = hidden unnamed_addr alias void (%"class.blink::mojom::blink::WebBluetoothDevice"*), void (%"class.blink::mojom::blink::WebBluetoothDevice"*)* @_ZN5blink5mojom5blink18WebBluetoothDeviceD2Ev
@_ZN5blink5mojom5blink29WebBluetoothRemoteGATTServiceC1Ev = hidden unnamed_addr alias void (%"class.blink::mojom::blink::WebBluetoothRemoteGATTService"*), void (%"class.blink::mojom::blink::WebBluetoothRemoteGATTService"*)* @_ZN5blink5mojom5blink29WebBluetoothRemoteGATTServiceC2Ev
@_ZN5blink5mojom5blink29WebBluetoothRemoteGATTServiceC1ERKN3WTF6StringES6_ = hidden unnamed_addr alias void (%"class.blink::mojom::blink::WebBluetoothRemoteGATTService"*, %"class.WTF::String"*, %"class.WTF::String"*), void (%"class.blink::mojom::blink::WebBluetoothRemoteGATTService"*, %"class.WTF::String"*, %"class.WTF::String"*)* @_ZN5blink5mojom5blink29WebBluetoothRemoteGATTServiceC2ERKN3WTF6StringES6_
@_ZN5blink5mojom5blink29WebBluetoothRemoteGATTServiceD1Ev = hidden unnamed_addr alias void (%"class.blink::mojom::blink::WebBluetoothRemoteGATTService"*), void (%"class.blink::mojom::blink::WebBluetoothRemoteGATTService"*)* @_ZN5blink5mojom5blink29WebBluetoothRemoteGATTServiceD2Ev
@_ZN5blink5mojom5blink36WebBluetoothRemoteGATTCharacteristicC1Ev = hidden unnamed_addr alias void (%"class.blink::mojom::blink::WebBluetoothRemoteGATTCharacteristic"*), void (%"class.blink::mojom::blink::WebBluetoothRemoteGATTCharacteristic"*)* @_ZN5blink5mojom5blink36WebBluetoothRemoteGATTCharacteristicC2Ev
@_ZN5blink5mojom5blink36WebBluetoothRemoteGATTCharacteristicC1ERKN3WTF6StringES6_j = hidden unnamed_addr alias void (%"class.blink::mojom::blink::WebBluetoothRemoteGATTCharacteristic"*, %"class.WTF::String"*, %"class.WTF::String"*, i32), void (%"class.blink::mojom::blink::WebBluetoothRemoteGATTCharacteristic"*, %"class.WTF::String"*, %"class.WTF::String"*, i32)* @_ZN5blink5mojom5blink36WebBluetoothRemoteGATTCharacteristicC2ERKN3WTF6StringES6_j
@_ZN5blink5mojom5blink36WebBluetoothRemoteGATTCharacteristicD1Ev = hidden unnamed_addr alias void (%"class.blink::mojom::blink::WebBluetoothRemoteGATTCharacteristic"*), void (%"class.blink::mojom::blink::WebBluetoothRemoteGATTCharacteristic"*)* @_ZN5blink5mojom5blink36WebBluetoothRemoteGATTCharacteristicD2Ev
@_ZN5blink5mojom5blink28WebBluetoothAdvertisingEventC1Ev = hidden unnamed_addr alias void (%"class.blink::mojom::blink::WebBluetoothAdvertisingEvent"*), void (%"class.blink::mojom::blink::WebBluetoothAdvertisingEvent"*)* @_ZN5blink5mojom5blink28WebBluetoothAdvertisingEventC2Ev
@_ZN5blink5mojom5blink28WebBluetoothAdvertisingEventC1EN4mojo9StructPtrINS1_18WebBluetoothDeviceEEERKN3WTF6StringENS7_6VectorIS8_Lj0ENS7_18PartitionAllocatorEEEbtbhbhRKNS7_7HashMapItNSB_IhLj0ESC_EENS7_7IntHashItEENS7_10HashTraitsItEENSI_ISF_EESC_EERKNSE_IS8_SF_NS7_10StringHashENSI_IS8_EESK_SC_EE = hidden unnamed_addr alias void (%"class.blink::mojom::blink::WebBluetoothAdvertisingEvent"*, %"class.mojo::StructPtr.63"*, %"class.WTF::String"*, %"class.WTF::Vector"*, i1, i16, i1, i8, i1, i8, %"class.WTF::HashMap.70"*, %"class.WTF::HashMap.80"*), void (%"class.blink::mojom::blink::WebBluetoothAdvertisingEvent"*, %"class.mojo::StructPtr.63"*, %"class.WTF::String"*, %"class.WTF::Vector"*, i1, i16, i1, i8, i1, i8, %"class.WTF::HashMap.70"*, %"class.WTF::HashMap.80"*)* @_ZN5blink5mojom5blink28WebBluetoothAdvertisingEventC2EN4mojo9StructPtrINS1_18WebBluetoothDeviceEEERKN3WTF6StringENS7_6VectorIS8_Lj0ENS7_18PartitionAllocatorEEEbtbhbhRKNS7_7HashMapItNSB_IhLj0ESC_EENS7_7IntHashItEENS7_10HashTraitsItEENSI_ISF_EESC_EERKNSE_IS8_SF_NS7_10StringHashENSI_IS8_EESK_SC_EE
@_ZN5blink5mojom5blink28WebBluetoothAdvertisingEventD1Ev = hidden unnamed_addr alias void (%"class.blink::mojom::blink::WebBluetoothAdvertisingEvent"*), void (%"class.blink::mojom::blink::WebBluetoothAdvertisingEvent"*)* @_ZN5blink5mojom5blink28WebBluetoothAdvertisingEventD2Ev
@_ZN5blink5mojom5blink32WebBluetoothRemoteGATTDescriptorC1Ev = hidden unnamed_addr alias void (%"class.blink::mojom::blink::WebBluetoothRemoteGATTDescriptor"*), void (%"class.blink::mojom::blink::WebBluetoothRemoteGATTDescriptor"*)* @_ZN5blink5mojom5blink32WebBluetoothRemoteGATTDescriptorC2Ev
@_ZN5blink5mojom5blink32WebBluetoothRemoteGATTDescriptorC1ERKN3WTF6StringES6_ = hidden unnamed_addr alias void (%"class.blink::mojom::blink::WebBluetoothRemoteGATTDescriptor"*, %"class.WTF::String"*, %"class.WTF::String"*), void (%"class.blink::mojom::blink::WebBluetoothRemoteGATTDescriptor"*, %"class.WTF::String"*, %"class.WTF::String"*)* @_ZN5blink5mojom5blink32WebBluetoothRemoteGATTDescriptorC2ERKN3WTF6StringES6_
@_ZN5blink5mojom5blink32WebBluetoothRemoteGATTDescriptorD1Ev = hidden unnamed_addr alias void (%"class.blink::mojom::blink::WebBluetoothRemoteGATTDescriptor"*), void (%"class.blink::mojom::blink::WebBluetoothRemoteGATTDescriptor"*)* @_ZN5blink5mojom5blink32WebBluetoothRemoteGATTDescriptorD2Ev
@_ZN5blink5mojom5blink24WebBluetoothServiceProxyC1EPN4mojo28MessageReceiverWithResponderE = hidden unnamed_addr alias void (%"class.blink::mojom::blink::WebBluetoothServiceProxy"*, %"class.mojo::MessageReceiverWithResponder"*), void (%"class.blink::mojom::blink::WebBluetoothServiceProxy"*, %"class.mojo::MessageReceiverWithResponder"*)* @_ZN5blink5mojom5blink24WebBluetoothServiceProxyC2EPN4mojo28MessageReceiverWithResponderE
@_ZN5blink5mojom5blink29WebBluetoothServerClientProxyC1EPN4mojo28MessageReceiverWithResponderE = hidden unnamed_addr alias void (%"class.blink::mojom::blink::WebBluetoothServerClientProxy"*, %"class.mojo::MessageReceiverWithResponder"*), void (%"class.blink::mojom::blink::WebBluetoothServerClientProxy"*, %"class.mojo::MessageReceiverWithResponder"*)* @_ZN5blink5mojom5blink29WebBluetoothServerClientProxyC2EPN4mojo28MessageReceiverWithResponderE
@_ZN5blink5mojom5blink37WebBluetoothCharacteristicClientProxyC1EPN4mojo28MessageReceiverWithResponderE = hidden unnamed_addr alias void (%"class.blink::mojom::blink::WebBluetoothCharacteristicClientProxy"*, %"class.mojo::MessageReceiverWithResponder"*), void (%"class.blink::mojom::blink::WebBluetoothCharacteristicClientProxy"*, %"class.mojo::MessageReceiverWithResponder"*)* @_ZN5blink5mojom5blink37WebBluetoothCharacteristicClientProxyC2EPN4mojo28MessageReceiverWithResponderE
@_ZN5blink5mojom5blink36WebBluetoothAdvertisementClientProxyC1EPN4mojo28MessageReceiverWithResponderE = hidden unnamed_addr alias void (%"class.blink::mojom::blink::WebBluetoothAdvertisementClientProxy"*, %"class.mojo::MessageReceiverWithResponder"*), void (%"class.blink::mojom::blink::WebBluetoothAdvertisementClientProxy"*, %"class.mojo::MessageReceiverWithResponder"*)* @_ZN5blink5mojom5blink36WebBluetoothAdvertisementClientProxyC2EPN4mojo28MessageReceiverWithResponderE

; Function Attrs: nounwind ssp uwtable
define hidden void @_ZN5blink5mojom5blink24WebBluetoothLeScanFilterC2Ev(%"class.blink::mojom::blink::WebBluetoothLeScanFilter"* nocapture) unnamed_addr #0 align 2 {
  %2 = getelementptr inbounds %"class.blink::mojom::blink::WebBluetoothLeScanFilter", %"class.blink::mojom::blink::WebBluetoothLeScanFilter"* %0, i64 0, i32 0, i32 0, i32 0, i32 0, i32 0
  store i8 0, i8* %2, align 8
  %3 = getelementptr inbounds %"class.blink::mojom::blink::WebBluetoothLeScanFilter", %"class.blink::mojom::blink::WebBluetoothLeScanFilter"* %0, i64 0, i32 1
  %4 = getelementptr inbounds %"class.blink::mojom::blink::WebBluetoothLeScanFilter", %"class.blink::mojom::blink::WebBluetoothLeScanFilter"* %0, i64 0, i32 3, i32 0, i32 0, i32 0, i32 2
  %5 = bitcast %union.anon.5* %4 to i8*
  tail call void @llvm.memset.p0i8.i64(i8* align 8 %5, i8 0, i64 24, i1 false) #12
  %6 = bitcast %"class.WTF::String"* %3 to i8*
  call void @llvm.memset.p0i8.i64(i8* align 8 %6, i8 0, i64 17, i1 false)
  ret void
}

; Function Attrs: argmemonly nounwind
declare void @llvm.memset.p0i8.i64(i8* nocapture writeonly, i8, i64, i1 immarg) #1

; Function Attrs: nounwind ssp uwtable
define hidden void @_ZN5blink5mojom5blink24WebBluetoothLeScanFilterC2EN4absl8optionalIN3WTF6VectorINS5_6StringELj0ENS5_18PartitionAllocatorEEEEERKS7_SC_NS4_INS5_7HashMapIN4mojo16InlinedStructPtrINS1_19WebBluetoothCompanyEEENS6_INSF_INS1_22WebBluetoothDataFilterEEELj0ES8_EENSE_8internal22InlinedStructPtrHashFnISG_EENS5_10HashTraitsISH_EENSO_ISK_EES8_EEEE(%"class.blink::mojom::blink::WebBluetoothLeScanFilter"* nocapture, %"class.absl::optional"* nocapture, %"class.WTF::String"* nocapture readonly dereferenceable(8), %"class.WTF::String"* nocapture readonly dereferenceable(8), %"class.absl::optional.1"* nocapture) unnamed_addr #0 align 2 {
  %6 = getelementptr inbounds %"class.blink::mojom::blink::WebBluetoothLeScanFilter", %"class.blink::mojom::blink::WebBluetoothLeScanFilter"* %0, i64 0, i32 0, i32 0, i32 0, i32 0, i32 0
  %7 = getelementptr inbounds %"class.absl::optional", %"class.absl::optional"* %1, i64 0, i32 0, i32 0, i32 0, i32 0
  tail call void @llvm.memset.p0i8.i64(i8* align 8 %6, i8 0, i64 24, i1 false) #12
  %8 = load i8, i8* %7, align 8, !range !2
  %9 = icmp eq i8 %8, 0
  br i1 %9, label %25, label %10

10:                                               ; preds = %5
  %11 = getelementptr inbounds %"class.absl::optional", %"class.absl::optional"* %1, i64 0, i32 0, i32 0, i32 0, i32 1, i32 0
  %12 = getelementptr inbounds %"class.blink::mojom::blink::WebBluetoothLeScanFilter", %"class.blink::mojom::blink::WebBluetoothLeScanFilter"* %0, i64 0, i32 0, i32 0, i32 0, i32 0, i32 1, i32 0
  %13 = getelementptr inbounds %"class.blink::mojom::blink::WebBluetoothLeScanFilter", %"class.blink::mojom::blink::WebBluetoothLeScanFilter"* %0, i64 0, i32 0, i32 0, i32 0, i32 0, i32 1, i32 0, i32 0, i32 0, i32 1
  %14 = getelementptr inbounds %"class.blink::mojom::blink::WebBluetoothLeScanFilter", %"class.blink::mojom::blink::WebBluetoothLeScanFilter"* %0, i64 0, i32 0, i32 0, i32 0, i32 0, i32 1, i32 0, i32 0, i32 0, i32 2
  %15 = bitcast %"class.WTF::Vector"* %11 to i64*
  %16 = bitcast %"class.WTF::Vector"* %12 to i8*
  tail call void @llvm.memset.p0i8.i64(i8* align 8 %16, i8 0, i64 16, i1 false) #12
  %17 = load i64, i64* %15, align 8
  %18 = bitcast %"class.WTF::Vector"* %12 to i64*
  store atomic i64 0, i64* %15 monotonic, align 8
  store atomic i64 %17, i64* %18 monotonic, align 8
  %19 = getelementptr inbounds %"class.absl::optional", %"class.absl::optional"* %1, i64 0, i32 0, i32 0, i32 0, i32 1, i32 0, i32 0, i32 0, i32 1
  %20 = load i32, i32* %13, align 4
  %21 = load i32, i32* %19, align 4
  store i32 %21, i32* %13, align 4
  store i32 %20, i32* %19, align 4
  %22 = getelementptr inbounds %"class.absl::optional", %"class.absl::optional"* %1, i64 0, i32 0, i32 0, i32 0, i32 1, i32 0, i32 0, i32 0, i32 2
  %23 = load i32, i32* %14, align 4
  %24 = load i32, i32* %22, align 4
  store i32 %24, i32* %14, align 4
  store i32 %23, i32* %22, align 4
  store i8 1, i8* %6, align 8
  br label %25

25:                                               ; preds = %5, %10
  %26 = getelementptr inbounds %"class.WTF::String", %"class.WTF::String"* %2, i64 0, i32 0, i32 0
  %27 = load %"class.WTF::StringImpl"*, %"class.WTF::StringImpl"** %26, align 8
  %28 = getelementptr inbounds %"class.blink::mojom::blink::WebBluetoothLeScanFilter", %"class.blink::mojom::blink::WebBluetoothLeScanFilter"* %0, i64 0, i32 1, i32 0, i32 0
  store %"class.WTF::StringImpl"* %27, %"class.WTF::StringImpl"** %28, align 8
  %29 = icmp eq %"class.WTF::StringImpl"* %27, null
  br i1 %29, label %47, label %30

30:                                               ; preds = %25
  %31 = getelementptr inbounds %"class.WTF::StringImpl", %"class.WTF::StringImpl"* %27, i64 0, i32 2, i32 0, i32 0, i32 0, i32 0, i32 0
  %32 = load atomic i32, i32* %31 monotonic, align 4
  %33 = and i32 %32, 2
  %34 = icmp eq i32 %33, 0
  br i1 %34, label %35, label %47

35:                                               ; preds = %30
  %36 = getelementptr inbounds %"class.WTF::StringImpl", %"class.WTF::StringImpl"* %27, i64 0, i32 0
  %37 = load i32, i32* %36, align 4
  %38 = zext i32 %37 to i33
  %39 = tail call { i33, i1 } @llvm.sadd.with.overflow.i33(i33 %38, i33 1) #12
  %40 = extractvalue { i33, i1 } %39, 1
  %41 = extractvalue { i33, i1 } %39, 0
  %42 = icmp slt i33 %41, 0
  %43 = or i1 %40, %42
  br i1 %43, label %44, label %45, !prof !3

44:                                               ; preds = %35
  tail call void @llvm.trap() #12
  unreachable

45:                                               ; preds = %35
  %46 = trunc i33 %41 to i32
  store i32 %46, i32* %36, align 4
  br label %47

47:                                               ; preds = %25, %30, %45
  %48 = getelementptr inbounds %"class.WTF::String", %"class.WTF::String"* %3, i64 0, i32 0, i32 0
  %49 = load %"class.WTF::StringImpl"*, %"class.WTF::StringImpl"** %48, align 8
  %50 = getelementptr inbounds %"class.blink::mojom::blink::WebBluetoothLeScanFilter", %"class.blink::mojom::blink::WebBluetoothLeScanFilter"* %0, i64 0, i32 2, i32 0, i32 0
  store %"class.WTF::StringImpl"* %49, %"class.WTF::StringImpl"** %50, align 8
  %51 = icmp eq %"class.WTF::StringImpl"* %49, null
  br i1 %51, label %69, label %52

52:                                               ; preds = %47
  %53 = getelementptr inbounds %"class.WTF::StringImpl", %"class.WTF::StringImpl"* %49, i64 0, i32 2, i32 0, i32 0, i32 0, i32 0, i32 0
  %54 = load atomic i32, i32* %53 monotonic, align 4
  %55 = and i32 %54, 2
  %56 = icmp eq i32 %55, 0
  br i1 %56, label %57, label %69

57:                                               ; preds = %52
  %58 = getelementptr inbounds %"class.WTF::StringImpl", %"class.WTF::StringImpl"* %49, i64 0, i32 0
  %59 = load i32, i32* %58, align 4
  %60 = zext i32 %59 to i33
  %61 = tail call { i33, i1 } @llvm.sadd.with.overflow.i33(i33 %60, i33 1) #12
  %62 = extractvalue { i33, i1 } %61, 1
  %63 = extractvalue { i33, i1 } %61, 0
  %64 = icmp slt i33 %63, 0
  %65 = or i1 %62, %64
  br i1 %65, label %66, label %67, !prof !3

66:                                               ; preds = %57
  tail call void @llvm.trap() #12
  unreachable

67:                                               ; preds = %57
  %68 = trunc i33 %63 to i32
  store i32 %68, i32* %58, align 4
  br label %69

69:                                               ; preds = %47, %52, %67
  %70 = getelementptr inbounds %"class.blink::mojom::blink::WebBluetoothLeScanFilter", %"class.blink::mojom::blink::WebBluetoothLeScanFilter"* %0, i64 0, i32 3, i32 0, i32 0, i32 0, i32 0
  %71 = getelementptr inbounds %"class.absl::optional.1", %"class.absl::optional.1"* %4, i64 0, i32 0, i32 0, i32 0, i32 0
  tail call void @llvm.memset.p0i8.i64(i8* align 8 %70, i8 0, i64 32, i1 false) #12
  %72 = load i8, i8* %71, align 8, !range !2
  %73 = icmp eq i8 %72, 0
  br i1 %73, label %100, label %74

74:                                               ; preds = %69
  %75 = getelementptr inbounds %"class.absl::optional.1", %"class.absl::optional.1"* %4, i64 0, i32 0, i32 0, i32 0, i32 2, i32 0
  %76 = getelementptr inbounds %"class.blink::mojom::blink::WebBluetoothLeScanFilter", %"class.blink::mojom::blink::WebBluetoothLeScanFilter"* %0, i64 0, i32 3, i32 0, i32 0, i32 0, i32 2, i32 0
  %77 = getelementptr inbounds %"class.blink::mojom::blink::WebBluetoothLeScanFilter", %"class.blink::mojom::blink::WebBluetoothLeScanFilter"* %0, i64 0, i32 3, i32 0, i32 0, i32 0, i32 2, i32 0, i32 0, i32 1
  %78 = getelementptr inbounds %"class.blink::mojom::blink::WebBluetoothLeScanFilter", %"class.blink::mojom::blink::WebBluetoothLeScanFilter"* %0, i64 0, i32 3, i32 0, i32 0, i32 0, i32 2, i32 0, i32 0, i32 2
  %79 = getelementptr inbounds %"class.blink::mojom::blink::WebBluetoothLeScanFilter", %"class.blink::mojom::blink::WebBluetoothLeScanFilter"* %0, i64 0, i32 3, i32 0, i32 0, i32 0, i32 2, i32 0, i32 0, i32 3
  %80 = bitcast %"class.WTF::HashMap"* %75 to i64*
  %81 = bitcast %"class.WTF::HashMap"* %76 to i8*
  tail call void @llvm.memset.p0i8.i64(i8* align 8 %81, i8 0, i64 20, i1 false) #12
  %82 = load i64, i64* %80, align 8
  %83 = bitcast %"class.WTF::HashMap"* %76 to i64*
  store atomic i64 0, i64* %80 monotonic, align 8
  store atomic i64 %82, i64* %83 monotonic, align 8
  %84 = getelementptr inbounds %"class.absl::optional.1", %"class.absl::optional.1"* %4, i64 0, i32 0, i32 0, i32 0, i32 2, i32 0, i32 0, i32 1
  %85 = load i32, i32* %77, align 4
  %86 = load i32, i32* %84, align 4
  store i32 %86, i32* %77, align 4
  store i32 %85, i32* %84, align 4
  %87 = getelementptr inbounds %"class.absl::optional.1", %"class.absl::optional.1"* %4, i64 0, i32 0, i32 0, i32 0, i32 2, i32 0, i32 0, i32 2
  %88 = load i32, i32* %78, align 4
  %89 = load i32, i32* %87, align 4
  store i32 %89, i32* %78, align 4
  store i32 %88, i32* %87, align 4
  %90 = load i32, i32* %79, align 8
  %91 = and i32 %90, 2147483647
  %92 = getelementptr inbounds %"class.absl::optional.1", %"class.absl::optional.1"* %4, i64 0, i32 0, i32 0, i32 0, i32 2, i32 0, i32 0, i32 3
  %93 = load i32, i32* %92, align 8
  %94 = and i32 %93, 2147483647
  %95 = and i32 %90, -2147483648
  %96 = or i32 %94, %95
  store i32 %96, i32* %79, align 8
  %97 = load i32, i32* %92, align 8
  %98 = and i32 %97, -2147483648
  %99 = or i32 %98, %91
  store i32 %99, i32* %92, align 8
  store i8 1, i8* %70, align 8
  br label %100

100:                                              ; preds = %69, %74
  ret void
}

; Function Attrs: nounwind ssp uwtable
define hidden void @_ZN5blink5mojom5blink24WebBluetoothLeScanFilterD2Ev(%"class.blink::mojom::blink::WebBluetoothLeScanFilter"* nocapture) unnamed_addr #0 align 2 {
  %2 = getelementptr inbounds %"class.blink::mojom::blink::WebBluetoothLeScanFilter", %"class.blink::mojom::blink::WebBluetoothLeScanFilter"* %0, i64 0, i32 3, i32 0, i32 0, i32 0, i32 0
  %3 = load i8, i8* %2, align 8, !range !2
  %4 = icmp eq i8 %3, 0
  br i1 %4, label %37, label %5

5:                                                ; preds = %1
  %6 = getelementptr inbounds %"class.blink::mojom::blink::WebBluetoothLeScanFilter", %"class.blink::mojom::blink::WebBluetoothLeScanFilter"* %0, i64 0, i32 3, i32 0, i32 0, i32 0, i32 2, i32 0, i32 0, i32 0
  %7 = load %"struct.WTF::KeyValuePair"*, %"struct.WTF::KeyValuePair"** %6, align 8
  %8 = icmp eq %"struct.WTF::KeyValuePair"* %7, null
  br i1 %8, label %36, label %9, !prof !4

9:                                                ; preds = %5
  %10 = getelementptr inbounds %"class.blink::mojom::blink::WebBluetoothLeScanFilter", %"class.blink::mojom::blink::WebBluetoothLeScanFilter"* %0, i64 0, i32 3, i32 0, i32 0, i32 0, i32 2, i32 0, i32 0, i32 1
  %11 = load i32, i32* %10, align 8
  %12 = icmp eq i32 %11, 0
  br i1 %12, label %34, label %13

13:                                               ; preds = %9
  %14 = zext i32 %11 to i64
  br label %15

15:                                               ; preds = %31, %13
  %16 = phi i64 [ 0, %13 ], [ %32, %31 ]
  %17 = getelementptr inbounds %"struct.WTF::KeyValuePair", %"struct.WTF::KeyValuePair"* %7, i64 %16, i32 0, i32 1
  %18 = load i32, i32* %17, align 4
  %19 = icmp eq i32 %18, 2
  br i1 %19, label %31, label %20

20:                                               ; preds = %15
  %21 = getelementptr inbounds %"struct.WTF::KeyValuePair", %"struct.WTF::KeyValuePair"* %7, i64 %16, i32 1, i32 0, i32 0, i32 0
  %22 = load %"class.mojo::InlinedStructPtr.11"*, %"class.mojo::InlinedStructPtr.11"** %21, align 8
  %23 = icmp eq %"class.mojo::InlinedStructPtr.11"* %22, null
  br i1 %23, label %31, label %24, !prof !4

24:                                               ; preds = %20
  %25 = getelementptr inbounds %"struct.WTF::KeyValuePair", %"struct.WTF::KeyValuePair"* %7, i64 %16, i32 1, i32 0, i32 0, i32 2
  %26 = load i32, i32* %25, align 4
  %27 = icmp eq i32 %26, 0
  br i1 %27, label %29, label %28, !prof !3

28:                                               ; preds = %24
  store i32 0, i32* %25, align 4
  br label %29

29:                                               ; preds = %28, %24
  %30 = getelementptr inbounds %"class.mojo::InlinedStructPtr.11", %"class.mojo::InlinedStructPtr.11"* %22, i64 0, i32 0, i32 0
  tail call void @_ZN3WTF18PartitionAllocator11FreeBackingEPv(i8* %30) #12
  store %"class.mojo::InlinedStructPtr.11"* null, %"class.mojo::InlinedStructPtr.11"** %21, align 8
  br label %31

31:                                               ; preds = %29, %20, %15
  %32 = add nuw nsw i64 %16, 1
  %33 = icmp eq i64 %32, %14
  br i1 %33, label %34, label %15

34:                                               ; preds = %31, %9
  %35 = bitcast %"struct.WTF::KeyValuePair"* %7 to i8*
  tail call void @_ZN3WTF18PartitionAllocator11FreeBackingEPv(i8* nonnull %35) #12
  store %"struct.WTF::KeyValuePair"* null, %"struct.WTF::KeyValuePair"** %6, align 8
  br label %36

36:                                               ; preds = %34, %5
  store i8 0, i8* %2, align 8
  br label %37

37:                                               ; preds = %1, %36
  %38 = getelementptr inbounds %"class.blink::mojom::blink::WebBluetoothLeScanFilter", %"class.blink::mojom::blink::WebBluetoothLeScanFilter"* %0, i64 0, i32 2, i32 0, i32 0
  %39 = load %"class.WTF::StringImpl"*, %"class.WTF::StringImpl"** %38, align 8
  %40 = icmp eq %"class.WTF::StringImpl"* %39, null
  br i1 %40, label %54, label %41

41:                                               ; preds = %37
  %42 = getelementptr inbounds %"class.WTF::StringImpl", %"class.WTF::StringImpl"* %39, i64 0, i32 2, i32 0, i32 0, i32 0, i32 0, i32 0
  %43 = load atomic i32, i32* %42 monotonic, align 4
  %44 = and i32 %43, 2
  %45 = icmp eq i32 %44, 0
  %46 = getelementptr inbounds %"class.WTF::StringImpl", %"class.WTF::StringImpl"* %39, i64 0, i32 0
  %47 = load i32, i32* %46, align 4
  br i1 %45, label %48, label %50

48:                                               ; preds = %41
  %49 = add i32 %47, -1
  store i32 %49, i32* %46, align 4
  br label %50

50:                                               ; preds = %48, %41
  %51 = phi i32 [ %49, %48 ], [ %47, %41 ]
  %52 = icmp eq i32 %51, 0
  br i1 %52, label %53, label %54

53:                                               ; preds = %50
  tail call void @_ZNK3WTF10StringImpl18DestroyIfNotStaticEv(%"class.WTF::StringImpl"* nonnull %39) #12
  br label %54

54:                                               ; preds = %37, %50, %53
  %55 = getelementptr inbounds %"class.blink::mojom::blink::WebBluetoothLeScanFilter", %"class.blink::mojom::blink::WebBluetoothLeScanFilter"* %0, i64 0, i32 1, i32 0, i32 0
  %56 = load %"class.WTF::StringImpl"*, %"class.WTF::StringImpl"** %55, align 8
  %57 = icmp eq %"class.WTF::StringImpl"* %56, null
  br i1 %57, label %71, label %58

58:                                               ; preds = %54
  %59 = getelementptr inbounds %"class.WTF::StringImpl", %"class.WTF::StringImpl"* %56, i64 0, i32 2, i32 0, i32 0, i32 0, i32 0, i32 0
  %60 = load atomic i32, i32* %59 monotonic, align 4
  %61 = and i32 %60, 2
  %62 = icmp eq i32 %61, 0
  %63 = getelementptr inbounds %"class.WTF::StringImpl", %"class.WTF::StringImpl"* %56, i64 0, i32 0
  %64 = load i32, i32* %63, align 4
  br i1 %62, label %65, label %67

65:                                               ; preds = %58
  %66 = add i32 %64, -1
  store i32 %66, i32* %63, align 4
  br label %67

67:                                               ; preds = %65, %58
  %68 = phi i32 [ %66, %65 ], [ %64, %58 ]
  %69 = icmp eq i32 %68, 0
  br i1 %69, label %70, label %71

70:                                               ; preds = %67
  tail call void @_ZNK3WTF10StringImpl18DestroyIfNotStaticEv(%"class.WTF::StringImpl"* nonnull %56) #12
  br label %71

71:                                               ; preds = %54, %67, %70
  %72 = getelementptr inbounds %"class.blink::mojom::blink::WebBluetoothLeScanFilter", %"class.blink::mojom::blink::WebBluetoothLeScanFilter"* %0, i64 0, i32 0, i32 0, i32 0, i32 0, i32 0
  %73 = load i8, i8* %72, align 8, !range !2
  %74 = icmp eq i8 %73, 0
  br i1 %74, label %115, label %75

75:                                               ; preds = %71
  %76 = getelementptr inbounds %"class.blink::mojom::blink::WebBluetoothLeScanFilter", %"class.blink::mojom::blink::WebBluetoothLeScanFilter"* %0, i64 0, i32 0, i32 0, i32 0, i32 0, i32 1, i32 0
  %77 = getelementptr inbounds %"class.WTF::Vector", %"class.WTF::Vector"* %76, i64 0, i32 0, i32 0, i32 0
  %78 = load %"class.WTF::String"*, %"class.WTF::String"** %77, align 8
  %79 = icmp eq %"class.WTF::String"* %78, null
  br i1 %79, label %114, label %80, !prof !4

80:                                               ; preds = %75
  %81 = bitcast %"class.WTF::String"* %78 to i8*
  %82 = getelementptr inbounds %"class.blink::mojom::blink::WebBluetoothLeScanFilter", %"class.blink::mojom::blink::WebBluetoothLeScanFilter"* %0, i64 0, i32 0, i32 0, i32 0, i32 0, i32 1, i32 0, i32 0, i32 0, i32 2
  %83 = load i32, i32* %82, align 4
  %84 = icmp eq i32 %83, 0
  br i1 %84, label %112, label %85, !prof !3

85:                                               ; preds = %80
  %86 = zext i32 %83 to i64
  %87 = getelementptr inbounds %"class.WTF::String", %"class.WTF::String"* %78, i64 %86
  br label %88

88:                                               ; preds = %106, %85
  %89 = phi %"class.WTF::String"* [ %107, %106 ], [ %78, %85 ]
  %90 = getelementptr inbounds %"class.WTF::String", %"class.WTF::String"* %89, i64 0, i32 0, i32 0
  %91 = load %"class.WTF::StringImpl"*, %"class.WTF::StringImpl"** %90, align 8
  %92 = icmp eq %"class.WTF::StringImpl"* %91, null
  br i1 %92, label %106, label %93

93:                                               ; preds = %88
  %94 = getelementptr inbounds %"class.WTF::StringImpl", %"class.WTF::StringImpl"* %91, i64 0, i32 2, i32 0, i32 0, i32 0, i32 0, i32 0
  %95 = load atomic i32, i32* %94 monotonic, align 4
  %96 = and i32 %95, 2
  %97 = icmp eq i32 %96, 0
  %98 = getelementptr inbounds %"class.WTF::StringImpl", %"class.WTF::StringImpl"* %91, i64 0, i32 0
  %99 = load i32, i32* %98, align 4
  br i1 %97, label %100, label %102

100:                                              ; preds = %93
  %101 = add i32 %99, -1
  store i32 %101, i32* %98, align 4
  br label %102

102:                                              ; preds = %100, %93
  %103 = phi i32 [ %101, %100 ], [ %99, %93 ]
  %104 = icmp eq i32 %103, 0
  br i1 %104, label %105, label %106

105:                                              ; preds = %102
  tail call void @_ZNK3WTF10StringImpl18DestroyIfNotStaticEv(%"class.WTF::StringImpl"* nonnull %91) #12
  br label %106

106:                                              ; preds = %105, %102, %88
  %107 = getelementptr inbounds %"class.WTF::String", %"class.WTF::String"* %89, i64 1
  %108 = icmp eq %"class.WTF::String"* %107, %87
  br i1 %108, label %109, label %88

109:                                              ; preds = %106
  store i32 0, i32* %82, align 4
  %110 = bitcast %"class.WTF::Vector"* %76 to i8**
  %111 = load i8*, i8** %110, align 8
  br label %112

112:                                              ; preds = %109, %80
  %113 = phi i8* [ %111, %109 ], [ %81, %80 ]
  tail call void @_ZN3WTF18PartitionAllocator11FreeBackingEPv(i8* %113) #12
  store %"class.WTF::String"* null, %"class.WTF::String"** %77, align 8
  br label %114

114:                                              ; preds = %112, %75
  store i8 0, i8* %72, align 8
  br label %115

115:                                              ; preds = %71, %114
  ret void
}

; Function Attrs: nounwind ssp uwtable
define hidden void @_ZNK5blink5mojom5blink24WebBluetoothLeScanFilter14WriteIntoTraceEN8perfetto11TracedValueE(%"class.blink::mojom::blink::WebBluetoothLeScanFilter"*, %"class.perfetto::TracedValue"*) local_unnamed_addr #0 align 2 {
  %3 = alloca %"class.perfetto::TracedValue", align 8
  %4 = alloca %"class.perfetto::TracedValue", align 8
  %5 = alloca %"class.perfetto::TracedValue", align 8
  %6 = alloca %"class.perfetto::TracedValue", align 8
  %7 = alloca %"class.perfetto::TracedArray", align 8
  %8 = alloca %"class.perfetto::TracedValue", align 8
  %9 = alloca %"class.perfetto::TracedValue", align 8
  %10 = alloca %"class.perfetto::TracedDictionary", align 8
  %11 = alloca %"class.perfetto::TracedValue", align 8
  %12 = alloca %"class.perfetto::TracedValue", align 8
  %13 = alloca %"class.perfetto::TracedValue", align 8
  %14 = alloca %"class.perfetto::TracedValue", align 8
  %15 = alloca %"class.std::__1::basic_string", align 8
  %16 = bitcast %"class.perfetto::TracedDictionary"* %10 to i8*
  call void @llvm.lifetime.start.p0i8(i64 16, i8* nonnull %16) #12
  %17 = bitcast %"class.perfetto::TracedDictionary"* %10 to i8*
  call void @llvm.memset.p0i8.i64(i8* nonnull align 8 %17, i8 -86, i64 16, i1 false)
  call void @_ZNO8perfetto11TracedValue15WriteDictionaryEv(%"class.perfetto::TracedDictionary"* nonnull sret %10, %"class.perfetto::TracedValue"* %1) #12
  call void @_ZN8perfetto16TracedDictionary7AddItemENS_12StaticStringE(%"class.perfetto::TracedValue"* nonnull sret %11, %"class.perfetto::TracedDictionary"* nonnull %10, i8* getelementptr inbounds ([9 x i8], [9 x i8]* @.str, i64 0, i64 0)) #12
  %18 = bitcast %"class.perfetto::TracedValue"* %11 to i8*
  %19 = bitcast %"class.perfetto::TracedValue"* %9 to i8*
  call void @llvm.lifetime.start.p0i8(i64 16, i8* nonnull %19) #12
  call void @llvm.memcpy.p0i8.p0i8.i64(i8* nonnull align 8 %19, i8* nonnull align 8 %18, i64 16, i1 false) #12
  %20 = getelementptr inbounds %"class.blink::mojom::blink::WebBluetoothLeScanFilter", %"class.blink::mojom::blink::WebBluetoothLeScanFilter"* %0, i64 0, i32 0, i32 0, i32 0, i32 0, i32 0
  %21 = load i8, i8* %20, align 8, !range !2
  %22 = icmp eq i8 %21, 0
  br i1 %22, label %23, label %24

23:                                               ; preds = %2
  call void @_ZNO8perfetto11TracedValue12WritePointerEPKv(%"class.perfetto::TracedValue"* nonnull %9, i8* null) #12
  br label %42

24:                                               ; preds = %2
  %25 = bitcast %"class.perfetto::TracedValue"* %8 to i8*
  call void @llvm.lifetime.start.p0i8(i64 16, i8* nonnull %25) #12
  call void @llvm.memcpy.p0i8.p0i8.i64(i8* nonnull align 8 %25, i8* nonnull align 8 %19, i64 16, i1 false) #12
  %26 = bitcast %"class.perfetto::TracedArray"* %7 to i8*
  call void @llvm.lifetime.start.p0i8(i64 16, i8* nonnull %26) #12
  call void @llvm.memset.p0i8.i64(i8* nonnull align 8 %26, i8 -86, i64 16, i1 false) #12
  call void @_ZNO8perfetto11TracedValue10WriteArrayEv(%"class.perfetto::TracedArray"* nonnull sret %7, %"class.perfetto::TracedValue"* nonnull %8) #12
  %27 = getelementptr inbounds %"class.blink::mojom::blink::WebBluetoothLeScanFilter", %"class.blink::mojom::blink::WebBluetoothLeScanFilter"* %0, i64 0, i32 0, i32 0, i32 0, i32 0, i32 1, i32 0, i32 0, i32 0, i32 0
  %28 = load %"class.WTF::String"*, %"class.WTF::String"** %27, align 8
  %29 = getelementptr inbounds %"class.blink::mojom::blink::WebBluetoothLeScanFilter", %"class.blink::mojom::blink::WebBluetoothLeScanFilter"* %0, i64 0, i32 0, i32 0, i32 0, i32 0, i32 1, i32 0, i32 0, i32 0, i32 2
  %30 = load i32, i32* %29, align 4
  %31 = zext i32 %30 to i64
  %32 = getelementptr inbounds %"class.WTF::String", %"class.WTF::String"* %28, i64 %31
  %33 = icmp eq i32 %30, 0
  br i1 %33, label %41, label %34

34:                                               ; preds = %24
  %35 = bitcast %"class.perfetto::TracedValue"* %6 to i8*
  %36 = bitcast %"class.perfetto::TracedValue"* %5 to i8*
  br label %37

37:                                               ; preds = %37, %34
  %38 = phi %"class.WTF::String"* [ %28, %34 ], [ %39, %37 ]
  call void @llvm.lifetime.start.p0i8(i64 16, i8* nonnull %35) #12
  call void @_ZN8perfetto11TracedArray10AppendItemEv(%"class.perfetto::TracedValue"* nonnull sret %6, %"class.perfetto::TracedArray"* nonnull %7) #12
  call void @llvm.lifetime.start.p0i8(i64 16, i8* nonnull %36) #12
  call void @llvm.memcpy.p0i8.p0i8.i64(i8* nonnull align 8 %36, i8* nonnull align 8 %35, i64 16, i1 false) #12
  call void @_ZNK3WTF6String14WriteIntoTraceEN8perfetto11TracedValueE(%"class.WTF::String"* %38, %"class.perfetto::TracedValue"* nonnull %5) #12
  call void @llvm.lifetime.end.p0i8(i64 16, i8* nonnull %36) #12
  call void @llvm.lifetime.end.p0i8(i64 16, i8* nonnull %35) #12
  %39 = getelementptr inbounds %"class.WTF::String", %"class.WTF::String"* %38, i64 1
  %40 = icmp eq %"class.WTF::String"* %39, %32
  br i1 %40, label %41, label %37

41:                                               ; preds = %37, %24
  call void @llvm.lifetime.end.p0i8(i64 16, i8* nonnull %26) #12
  call void @llvm.lifetime.end.p0i8(i64 16, i8* nonnull %25) #12
  br label %42

42:                                               ; preds = %41, %23
  call void @llvm.lifetime.end.p0i8(i64 16, i8* nonnull %19) #12
  call void @_ZN8perfetto16TracedDictionary7AddItemENS_12StaticStringE(%"class.perfetto::TracedValue"* nonnull sret %12, %"class.perfetto::TracedDictionary"* nonnull %10, i8* getelementptr inbounds ([5 x i8], [5 x i8]* @.str.2, i64 0, i64 0)) #12
  %43 = getelementptr inbounds %"class.blink::mojom::blink::WebBluetoothLeScanFilter", %"class.blink::mojom::blink::WebBluetoothLeScanFilter"* %0, i64 0, i32 1
  %44 = bitcast %"class.perfetto::TracedValue"* %12 to i8*
  %45 = bitcast %"class.perfetto::TracedValue"* %4 to i8*
  call void @llvm.lifetime.start.p0i8(i64 16, i8* nonnull %45) #12
  call void @llvm.memcpy.p0i8.p0i8.i64(i8* nonnull align 8 %45, i8* nonnull align 8 %44, i64 16, i1 false) #12
  call void @_ZNK3WTF6String14WriteIntoTraceEN8perfetto11TracedValueE(%"class.WTF::String"* %43, %"class.perfetto::TracedValue"* nonnull %4) #12
  call void @llvm.lifetime.end.p0i8(i64 16, i8* nonnull %45) #12
  call void @_ZN8perfetto16TracedDictionary7AddItemENS_12StaticStringE(%"class.perfetto::TracedValue"* nonnull sret %13, %"class.perfetto::TracedDictionary"* nonnull %10, i8* getelementptr inbounds ([12 x i8], [12 x i8]* @.str.3, i64 0, i64 0)) #12
  %46 = getelementptr inbounds %"class.blink::mojom::blink::WebBluetoothLeScanFilter", %"class.blink::mojom::blink::WebBluetoothLeScanFilter"* %0, i64 0, i32 2
  %47 = bitcast %"class.perfetto::TracedValue"* %13 to i8*
  %48 = bitcast %"class.perfetto::TracedValue"* %3 to i8*
  call void @llvm.lifetime.start.p0i8(i64 16, i8* nonnull %48) #12
  call void @llvm.memcpy.p0i8.p0i8.i64(i8* nonnull align 8 %48, i8* nonnull align 8 %47, i64 16, i1 false) #12
  call void @_ZNK3WTF6String14WriteIntoTraceEN8perfetto11TracedValueE(%"class.WTF::String"* %46, %"class.perfetto::TracedValue"* nonnull %3) #12
  call void @llvm.lifetime.end.p0i8(i64 16, i8* nonnull %48) #12
  call void @_ZN8perfetto16TracedDictionary7AddItemENS_12StaticStringE(%"class.perfetto::TracedValue"* nonnull sret %14, %"class.perfetto::TracedDictionary"* nonnull %10, i8* getelementptr inbounds ([18 x i8], [18 x i8]* @.str.4, i64 0, i64 0)) #12
  %49 = bitcast %"class.std::__1::basic_string"* %15 to i8*
  call void @llvm.lifetime.start.p0i8(i64 24, i8* nonnull %49) #12
  %50 = bitcast %"class.std::__1::basic_string"* %15 to %"struct.std::__1::basic_string<char, std::__1::char_traits<char>, std::__1::allocator<char> >::__short"*
  %51 = getelementptr inbounds %"struct.std::__1::basic_string<char, std::__1::char_traits<char>, std::__1::allocator<char> >::__short", %"struct.std::__1::basic_string<char, std::__1::char_traits<char>, std::__1::allocator<char> >::__short"* %50, i64 0, i32 1, i32 0
  store i8 7, i8* %51, align 1
  call void @llvm.memcpy.p0i8.p0i8.i64(i8* nonnull align 8 %49, i8* align 1 getelementptr inbounds ([8 x i8], [8 x i8]* @.str.1, i64 0, i64 0), i64 7, i1 false) #12
  %52 = getelementptr inbounds i8, i8* %49, i64 7
  store i8 0, i8* %52, align 1
  call void @_ZNO8perfetto11TracedValue11WriteStringERKNSt3__112basic_stringIcNS1_11char_traitsIcEENS1_9allocatorIcEEEE(%"class.perfetto::TracedValue"* nonnull %14, %"class.std::__1::basic_string"* nonnull dereferenceable(24) %15) #12
  %53 = load i8, i8* %51, align 1
  %54 = icmp slt i8 %53, 0
  br i1 %54, label %55, label %58

55:                                               ; preds = %42
  %56 = getelementptr inbounds %"class.std::__1::basic_string", %"class.std::__1::basic_string"* %15, i64 0, i32 0, i32 0, i32 0, i32 0, i32 0, i32 0
  %57 = load i8*, i8** %56, align 8
  call void @_ZdlPv(i8* %57) #13
  br label %58

58:                                               ; preds = %42, %55
  call void @llvm.lifetime.end.p0i8(i64 24, i8* nonnull %49) #12
  call void @llvm.lifetime.end.p0i8(i64 16, i8* nonnull %16) #12
  ret void
}

; Function Attrs: argmemonly nounwind
declare void @llvm.lifetime.start.p0i8(i64 immarg, i8* nocapture) #1

declare void @_ZNO8perfetto11TracedValue15WriteDictionaryEv(%"class.perfetto::TracedDictionary"* sret, %"class.perfetto::TracedValue"*) local_unnamed_addr #2

declare void @_ZN8perfetto16TracedDictionary7AddItemENS_12StaticStringE(%"class.perfetto::TracedValue"* sret, %"class.perfetto::TracedDictionary"*, i8*) local_unnamed_addr #2

; Function Attrs: argmemonly nounwind
declare void @llvm.lifetime.end.p0i8(i64 immarg, i8* nocapture) #1

; Function Attrs: nounwind ssp uwtable
define hidden zeroext i1 @_ZN5blink5mojom5blink24WebBluetoothLeScanFilter8ValidateEPKvPN4mojo8internal17ValidationContextE(i8*, %"class.mojo::internal::ValidationContext"*) local_unnamed_addr #0 align 2 {
  %3 = tail call zeroext i1 @_ZN5blink5mojom8internal29WebBluetoothLeScanFilter_Data8ValidateEPKvPN4mojo8internal17ValidationContextE(i8* %0, %"class.mojo::internal::ValidationContext"* %1) #12
  ret i1 %3
}

declare zeroext i1 @_ZN5blink5mojom8internal29WebBluetoothLeScanFilter_Data8ValidateEPKvPN4mojo8internal17ValidationContextE(i8*, %"class.mojo::internal::ValidationContext"*) local_unnamed_addr #2

; Function Attrs: nofree norecurse nounwind ssp uwtable writeonly
define hidden void @_ZN5blink5mojom5blink19WebBluetoothCompanyC2Ev(%"class.blink::mojom::blink::WebBluetoothCompany"* nocapture) unnamed_addr #3 align 2 {
  %2 = getelementptr inbounds %"class.blink::mojom::blink::WebBluetoothCompany", %"class.blink::mojom::blink::WebBluetoothCompany"* %0, i64 0, i32 0
  store i16 0, i16* %2, align 2
  ret void
}

; Function Attrs: nofree norecurse nounwind ssp uwtable writeonly
define hidden void @_ZN5blink5mojom5blink19WebBluetoothCompanyC2Et(%"class.blink::mojom::blink::WebBluetoothCompany"* nocapture, i16 zeroext) unnamed_addr #3 align 2 {
  %3 = getelementptr inbounds %"class.blink::mojom::blink::WebBluetoothCompany", %"class.blink::mojom::blink::WebBluetoothCompany"* %0, i64 0, i32 0
  store i16 %1, i16* %3, align 2
  ret void
}

; Function Attrs: norecurse nounwind readnone ssp uwtable
define hidden void @_ZN5blink5mojom5blink19WebBluetoothCompanyD2Ev(%"class.blink::mojom::blink::WebBluetoothCompany"* nocapture) unnamed_addr #4 align 2 {
  ret void
}

; Function Attrs: norecurse nounwind readonly ssp uwtable
define hidden i64 @_ZNK5blink5mojom5blink19WebBluetoothCompany4HashEm(%"class.blink::mojom::blink::WebBluetoothCompany"* nocapture readonly, i64) local_unnamed_addr #5 align 2 {
  %3 = getelementptr inbounds %"class.blink::mojom::blink::WebBluetoothCompany", %"class.blink::mojom::blink::WebBluetoothCompany"* %0, i64 0, i32 0
  %4 = load i16, i16* %3, align 2
  %5 = zext i16 %4 to i64
  %6 = shl i64 %1, 6
  %7 = lshr i64 %1, 2
  %8 = add i64 %7, %6
  %9 = add i64 %8, %5
  %10 = xor i64 %9, %1
  ret i64 %10
}

; Function Attrs: nounwind ssp uwtable
define hidden void @_ZNK5blink5mojom5blink19WebBluetoothCompany14WriteIntoTraceEN8perfetto11TracedValueE(%"class.blink::mojom::blink::WebBluetoothCompany"* nocapture readonly, %"class.perfetto::TracedValue"*) local_unnamed_addr #0 align 2 {
  %3 = alloca %"class.perfetto::TracedValue", align 8
  %4 = alloca %"class.perfetto::TracedDictionary", align 8
  %5 = alloca %"class.perfetto::TracedValue", align 8
  %6 = bitcast %"class.perfetto::TracedDictionary"* %4 to i8*
  call void @llvm.lifetime.start.p0i8(i64 16, i8* nonnull %6) #12
  %7 = bitcast %"class.perfetto::TracedDictionary"* %4 to i8*
  call void @llvm.memset.p0i8.i64(i8* nonnull align 8 %7, i8 -86, i64 16, i1 false)
  call void @_ZNO8perfetto11TracedValue15WriteDictionaryEv(%"class.perfetto::TracedDictionary"* nonnull sret %4, %"class.perfetto::TracedValue"* %1) #12
  call void @_ZN8perfetto16TracedDictionary7AddItemENS_12StaticStringE(%"class.perfetto::TracedValue"* nonnull sret %5, %"class.perfetto::TracedDictionary"* nonnull %4, i8* getelementptr inbounds ([3 x i8], [3 x i8]* @.str.5, i64 0, i64 0)) #12
  %8 = getelementptr inbounds %"class.blink::mojom::blink::WebBluetoothCompany", %"class.blink::mojom::blink::WebBluetoothCompany"* %0, i64 0, i32 0
  %9 = bitcast %"class.perfetto::TracedValue"* %5 to i8*
  %10 = bitcast %"class.perfetto::TracedValue"* %3 to i8*
  call void @llvm.lifetime.start.p0i8(i64 16, i8* nonnull %10) #12
  call void @llvm.memcpy.p0i8.p0i8.i64(i8* nonnull align 8 %10, i8* nonnull align 8 %9, i64 16, i1 false) #12
  %11 = load i16, i16* %8, align 2
  %12 = zext i16 %11 to i64
  call void @_ZNO8perfetto11TracedValue11WriteUInt64Em(%"class.perfetto::TracedValue"* nonnull %3, i64 %12) #12
  call void @llvm.lifetime.end.p0i8(i64 16, i8* nonnull %10) #12
  call void @llvm.lifetime.end.p0i8(i64 16, i8* nonnull %6) #12
  ret void
}

; Function Attrs: nounwind ssp uwtable
define hidden zeroext i1 @_ZN5blink5mojom5blink19WebBluetoothCompany8ValidateEPKvPN4mojo8internal17ValidationContextE(i8*, %"class.mojo::internal::ValidationContext"*) local_unnamed_addr #0 align 2 {
  %3 = tail call zeroext i1 @_ZN5blink5mojom8internal24WebBluetoothCompany_Data8ValidateEPKvPN4mojo8internal17ValidationContextE(i8* %0, %"class.mojo::internal::ValidationContext"* %1) #12
  ret i1 %3
}

declare zeroext i1 @_ZN5blink5mojom8internal24WebBluetoothCompany_Data8ValidateEPKvPN4mojo8internal17ValidationContextE(i8*, %"class.mojo::internal::ValidationContext"*) local_unnamed_addr #2

; Function Attrs: nofree norecurse nounwind ssp uwtable writeonly
define hidden void @_ZN5blink5mojom5blink22WebBluetoothDataFilterC2Ev(%"class.blink::mojom::blink::WebBluetoothDataFilter"* nocapture) unnamed_addr #3 align 2 {
  %2 = getelementptr inbounds %"class.blink::mojom::blink::WebBluetoothDataFilter", %"class.blink::mojom::blink::WebBluetoothDataFilter"* %0, i64 0, i32 0
  store i8 0, i8* %2, align 1
  %3 = getelementptr inbounds %"class.blink::mojom::blink::WebBluetoothDataFilter", %"class.blink::mojom::blink::WebBluetoothDataFilter"* %0, i64 0, i32 1
  store i8 0, i8* %3, align 1
  ret void
}

; Function Attrs: nofree norecurse nounwind ssp uwtable writeonly
define hidden void @_ZN5blink5mojom5blink22WebBluetoothDataFilterC2Ehh(%"class.blink::mojom::blink::WebBluetoothDataFilter"* nocapture, i8 zeroext, i8 zeroext) unnamed_addr #3 align 2 {
  %4 = getelementptr inbounds %"class.blink::mojom::blink::WebBluetoothDataFilter", %"class.blink::mojom::blink::WebBluetoothDataFilter"* %0, i64 0, i32 0
  store i8 %1, i8* %4, align 1
  %5 = getelementptr inbounds %"class.blink::mojom::blink::WebBluetoothDataFilter", %"class.blink::mojom::blink::WebBluetoothDataFilter"* %0, i64 0, i32 1
  store i8 %2, i8* %5, align 1
  ret void
}

; Function Attrs: norecurse nounwind readnone ssp uwtable
define hidden void @_ZN5blink5mojom5blink22WebBluetoothDataFilterD2Ev(%"class.blink::mojom::blink::WebBluetoothDataFilter"* nocapture) unnamed_addr #4 align 2 {
  ret void
}

; Function Attrs: norecurse nounwind readonly ssp uwtable
define hidden i64 @_ZNK5blink5mojom5blink22WebBluetoothDataFilter4HashEm(%"class.blink::mojom::blink::WebBluetoothDataFilter"* nocapture readonly, i64) local_unnamed_addr #5 align 2 {
  %3 = getelementptr inbounds %"class.blink::mojom::blink::WebBluetoothDataFilter", %"class.blink::mojom::blink::WebBluetoothDataFilter"* %0, i64 0, i32 0
  %4 = load i8, i8* %3, align 1
  %5 = zext i8 %4 to i64
  %6 = shl i64 %1, 6
  %7 = lshr i64 %1, 2
  %8 = add i64 %7, %6
  %9 = add i64 %8, %5
  %10 = xor i64 %9, %1
  %11 = getelementptr inbounds %"class.blink::mojom::blink::WebBluetoothDataFilter", %"class.blink::mojom::blink::WebBluetoothDataFilter"* %0, i64 0, i32 1
  %12 = load i8, i8* %11, align 1
  %13 = zext i8 %12 to i64
  %14 = shl i64 %10, 6
  %15 = lshr i64 %10, 2
  %16 = add i64 %14, %13
  %17 = add i64 %16, %15
  %18 = xor i64 %17, %10
  ret i64 %18
}

; Function Attrs: nounwind ssp uwtable
define hidden void @_ZNK5blink5mojom5blink22WebBluetoothDataFilter14WriteIntoTraceEN8perfetto11TracedValueE(%"class.blink::mojom::blink::WebBluetoothDataFilter"* nocapture readonly, %"class.perfetto::TracedValue"*) local_unnamed_addr #0 align 2 {
  %3 = alloca %"class.perfetto::TracedValue", align 8
  %4 = alloca %"class.perfetto::TracedValue", align 8
  %5 = alloca %"class.perfetto::TracedDictionary", align 8
  %6 = alloca %"class.perfetto::TracedValue", align 8
  %7 = alloca %"class.perfetto::TracedValue", align 8
  %8 = bitcast %"class.perfetto::TracedDictionary"* %5 to i8*
  call void @llvm.lifetime.start.p0i8(i64 16, i8* nonnull %8) #12
  %9 = bitcast %"class.perfetto::TracedDictionary"* %5 to i8*
  call void @llvm.memset.p0i8.i64(i8* nonnull align 8 %9, i8 -86, i64 16, i1 false)
  call void @_ZNO8perfetto11TracedValue15WriteDictionaryEv(%"class.perfetto::TracedDictionary"* nonnull sret %5, %"class.perfetto::TracedValue"* %1) #12
  call void @_ZN8perfetto16TracedDictionary7AddItemENS_12StaticStringE(%"class.perfetto::TracedValue"* nonnull sret %6, %"class.perfetto::TracedDictionary"* nonnull %5, i8* getelementptr inbounds ([5 x i8], [5 x i8]* @.str.6, i64 0, i64 0)) #12
  %10 = getelementptr inbounds %"class.blink::mojom::blink::WebBluetoothDataFilter", %"class.blink::mojom::blink::WebBluetoothDataFilter"* %0, i64 0, i32 0
  %11 = bitcast %"class.perfetto::TracedValue"* %6 to i8*
  %12 = bitcast %"class.perfetto::TracedValue"* %3 to i8*
  call void @llvm.lifetime.start.p0i8(i64 16, i8* nonnull %12) #12
  call void @llvm.memcpy.p0i8.p0i8.i64(i8* nonnull align 8 %12, i8* nonnull align 8 %11, i64 16, i1 false) #12
  %13 = load i8, i8* %10, align 1
  %14 = zext i8 %13 to i64
  call void @_ZNO8perfetto11TracedValue11WriteUInt64Em(%"class.perfetto::TracedValue"* nonnull %3, i64 %14) #12
  call void @llvm.lifetime.end.p0i8(i64 16, i8* nonnull %12) #12
  call void @_ZN8perfetto16TracedDictionary7AddItemENS_12StaticStringE(%"class.perfetto::TracedValue"* nonnull sret %7, %"class.perfetto::TracedDictionary"* nonnull %5, i8* getelementptr inbounds ([5 x i8], [5 x i8]* @.str.7, i64 0, i64 0)) #12
  %15 = getelementptr inbounds %"class.blink::mojom::blink::WebBluetoothDataFilter", %"class.blink::mojom::blink::WebBluetoothDataFilter"* %0, i64 0, i32 1
  %16 = bitcast %"class.perfetto::TracedValue"* %7 to i8*
  %17 = bitcast %"class.perfetto::TracedValue"* %4 to i8*
  call void @llvm.lifetime.start.p0i8(i64 16, i8* nonnull %17) #12
  call void @llvm.memcpy.p0i8.p0i8.i64(i8* nonnull align 8 %17, i8* nonnull align 8 %16, i64 16, i1 false) #12
  %18 = load i8, i8* %15, align 1
  %19 = zext i8 %18 to i64
  call void @_ZNO8perfetto11TracedValue11WriteUInt64Em(%"class.perfetto::TracedValue"* nonnull %4, i64 %19) #12
  call void @llvm.lifetime.end.p0i8(i64 16, i8* nonnull %17) #12
  call void @llvm.lifetime.end.p0i8(i64 16, i8* nonnull %8) #12
  ret void
}

; Function Attrs: nounwind ssp uwtable
define hidden zeroext i1 @_ZN5blink5mojom5blink22WebBluetoothDataFilter8ValidateEPKvPN4mojo8internal17ValidationContextE(i8*, %"class.mojo::internal::ValidationContext"*) local_unnamed_addr #0 align 2 {
  %3 = tail call zeroext i1 @_ZN5blink5mojom8internal27WebBluetoothDataFilter_Data8ValidateEPKvPN4mojo8internal17ValidationContextE(i8* %0, %"class.mojo::internal::ValidationContext"* %1) #12
  ret i1 %3
}

declare zeroext i1 @_ZN5blink5mojom8internal27WebBluetoothDataFilter_Data8ValidateEPKvPN4mojo8internal17ValidationContextE(i8*, %"class.mojo::internal::ValidationContext"*) local_unnamed_addr #2

; Function Attrs: nounwind ssp uwtable
define hidden void @_ZN5blink5mojom5blink32WebBluetoothRequestDeviceOptionsC2Ev(%"class.blink::mojom::blink::WebBluetoothRequestDeviceOptions"* nocapture) unnamed_addr #0 align 2 {
  %2 = getelementptr inbounds %"class.blink::mojom::blink::WebBluetoothRequestDeviceOptions", %"class.blink::mojom::blink::WebBluetoothRequestDeviceOptions"* %0, i64 0, i32 0, i32 0, i32 0, i32 0, i32 0
  store i8 0, i8* %2, align 8
  %3 = getelementptr inbounds %"class.blink::mojom::blink::WebBluetoothRequestDeviceOptions", %"class.blink::mojom::blink::WebBluetoothRequestDeviceOptions"* %0, i64 0, i32 1
  %4 = bitcast %"class.WTF::Vector"* %3 to i8*
  call void @llvm.memset.p0i8.i64(i8* align 8 %4, i8 0, i64 33, i1 false)
  ret void
}

; Function Attrs: nounwind ssp uwtable
define hidden void @_ZN5blink5mojom5blink32WebBluetoothRequestDeviceOptionsC2EN4absl8optionalIN3WTF6VectorIN4mojo9StructPtrINS1_24WebBluetoothLeScanFilterEEELj0ENS5_18PartitionAllocatorEEEEENS6_INS5_6StringELj0ESB_EENS6_ItLj0ESB_EEb(%"class.blink::mojom::blink::WebBluetoothRequestDeviceOptions"* nocapture, %"class.absl::optional.45"* nocapture, %"class.WTF::Vector"* nocapture, %"class.WTF::Vector.58"* nocapture, i1 zeroext) unnamed_addr #0 align 2 {
  %6 = zext i1 %4 to i8
  %7 = getelementptr inbounds %"class.blink::mojom::blink::WebBluetoothRequestDeviceOptions", %"class.blink::mojom::blink::WebBluetoothRequestDeviceOptions"* %0, i64 0, i32 0, i32 0, i32 0, i32 0, i32 0
  %8 = getelementptr inbounds %"class.absl::optional.45", %"class.absl::optional.45"* %1, i64 0, i32 0, i32 0, i32 0, i32 0
  tail call void @llvm.memset.p0i8.i64(i8* align 8 %7, i8 0, i64 24, i1 false) #12
  %9 = load i8, i8* %8, align 8, !range !2
  %10 = icmp eq i8 %9, 0
  br i1 %10, label %26, label %11

11:                                               ; preds = %5
  %12 = getelementptr inbounds %"class.absl::optional.45", %"class.absl::optional.45"* %1, i64 0, i32 0, i32 0, i32 0, i32 1, i32 0
  %13 = getelementptr inbounds %"class.blink::mojom::blink::WebBluetoothRequestDeviceOptions", %"class.blink::mojom::blink::WebBluetoothRequestDeviceOptions"* %0, i64 0, i32 0, i32 0, i32 0, i32 0, i32 1, i32 0
  %14 = getelementptr inbounds %"class.blink::mojom::blink::WebBluetoothRequestDeviceOptions", %"class.blink::mojom::blink::WebBluetoothRequestDeviceOptions"* %0, i64 0, i32 0, i32 0, i32 0, i32 0, i32 1, i32 0, i32 0, i32 0, i32 1
  %15 = getelementptr inbounds %"class.blink::mojom::blink::WebBluetoothRequestDeviceOptions", %"class.blink::mojom::blink::WebBluetoothRequestDeviceOptions"* %0, i64 0, i32 0, i32 0, i32 0, i32 0, i32 1, i32 0, i32 0, i32 0, i32 2
  %16 = bitcast %"class.WTF::Vector.50"* %12 to i64*
  %17 = bitcast %"class.WTF::Vector.50"* %13 to i8*
  tail call void @llvm.memset.p0i8.i64(i8* align 8 %17, i8 0, i64 16, i1 false) #12
  %18 = load i64, i64* %16, align 8
  %19 = bitcast %"class.WTF::Vector.50"* %13 to i64*
  store atomic i64 0, i64* %16 monotonic, align 8
  store atomic i64 %18, i64* %19 monotonic, align 8
  %20 = getelementptr inbounds %"class.absl::optional.45", %"class.absl::optional.45"* %1, i64 0, i32 0, i32 0, i32 0, i32 1, i32 0, i32 0, i32 0, i32 1
  %21 = load i32, i32* %14, align 4
  %22 = load i32, i32* %20, align 4
  store i32 %22, i32* %14, align 4
  store i32 %21, i32* %20, align 4
  %23 = getelementptr inbounds %"class.absl::optional.45", %"class.absl::optional.45"* %1, i64 0, i32 0, i32 0, i32 0, i32 1, i32 0, i32 0, i32 0, i32 2
  %24 = load i32, i32* %15, align 4
  %25 = load i32, i32* %23, align 4
  store i32 %25, i32* %15, align 4
  store i32 %24, i32* %23, align 4
  store i8 1, i8* %7, align 8
  br label %26

26:                                               ; preds = %5, %11
  %27 = getelementptr inbounds %"class.blink::mojom::blink::WebBluetoothRequestDeviceOptions", %"class.blink::mojom::blink::WebBluetoothRequestDeviceOptions"* %0, i64 0, i32 1
  %28 = getelementptr inbounds %"class.blink::mojom::blink::WebBluetoothRequestDeviceOptions", %"class.blink::mojom::blink::WebBluetoothRequestDeviceOptions"* %0, i64 0, i32 1, i32 0, i32 0, i32 1
  %29 = getelementptr inbounds %"class.blink::mojom::blink::WebBluetoothRequestDeviceOptions", %"class.blink::mojom::blink::WebBluetoothRequestDeviceOptions"* %0, i64 0, i32 1, i32 0, i32 0, i32 2
  %30 = bitcast %"class.WTF::Vector"* %2 to i64*
  %31 = bitcast %"class.WTF::Vector"* %27 to i8*
  tail call void @llvm.memset.p0i8.i64(i8* align 8 %31, i8 0, i64 16, i1 false) #12
  %32 = load i64, i64* %30, align 8
  %33 = bitcast %"class.WTF::Vector"* %27 to i64*
  store atomic i64 0, i64* %30 monotonic, align 8
  store atomic i64 %32, i64* %33 monotonic, align 8
  %34 = getelementptr inbounds %"class.WTF::Vector", %"class.WTF::Vector"* %2, i64 0, i32 0, i32 0, i32 1
  %35 = load i32, i32* %28, align 4
  %36 = load i32, i32* %34, align 4
  store i32 %36, i32* %28, align 4
  store i32 %35, i32* %34, align 4
  %37 = getelementptr inbounds %"class.WTF::Vector", %"class.WTF::Vector"* %2, i64 0, i32 0, i32 0, i32 2
  %38 = load i32, i32* %29, align 4
  %39 = load i32, i32* %37, align 4
  store i32 %39, i32* %29, align 4
  store i32 %38, i32* %37, align 4
  %40 = getelementptr inbounds %"class.blink::mojom::blink::WebBluetoothRequestDeviceOptions", %"class.blink::mojom::blink::WebBluetoothRequestDeviceOptions"* %0, i64 0, i32 2
  %41 = getelementptr inbounds %"class.blink::mojom::blink::WebBluetoothRequestDeviceOptions", %"class.blink::mojom::blink::WebBluetoothRequestDeviceOptions"* %0, i64 0, i32 2, i32 0, i32 0, i32 1
  %42 = getelementptr inbounds %"class.blink::mojom::blink::WebBluetoothRequestDeviceOptions", %"class.blink::mojom::blink::WebBluetoothRequestDeviceOptions"* %0, i64 0, i32 2, i32 0, i32 0, i32 2
  %43 = bitcast %"class.WTF::Vector.58"* %3 to i64*
  %44 = bitcast %"class.WTF::Vector.58"* %40 to i8*
  tail call void @llvm.memset.p0i8.i64(i8* align 8 %44, i8 0, i64 16, i1 false) #12
  %45 = load i64, i64* %43, align 8
  %46 = bitcast %"class.WTF::Vector.58"* %40 to i64*
  store atomic i64 0, i64* %43 monotonic, align 8
  store atomic i64 %45, i64* %46 monotonic, align 8
  %47 = getelementptr inbounds %"class.WTF::Vector.58", %"class.WTF::Vector.58"* %3, i64 0, i32 0, i32 0, i32 1
  %48 = load i32, i32* %41, align 4
  %49 = load i32, i32* %47, align 4
  store i32 %49, i32* %41, align 4
  store i32 %48, i32* %47, align 4
  %50 = getelementptr inbounds %"class.WTF::Vector.58", %"class.WTF::Vector.58"* %3, i64 0, i32 0, i32 0, i32 2
  %51 = load i32, i32* %42, align 4
  %52 = load i32, i32* %50, align 4
  store i32 %52, i32* %42, align 4
  store i32 %51, i32* %50, align 4
  %53 = getelementptr inbounds %"class.blink::mojom::blink::WebBluetoothRequestDeviceOptions", %"class.blink::mojom::blink::WebBluetoothRequestDeviceOptions"* %0, i64 0, i32 3
  store i8 %6, i8* %53, align 8
  ret void
}

; Function Attrs: nounwind ssp uwtable
define hidden void @_ZN5blink5mojom5blink32WebBluetoothRequestDeviceOptionsD2Ev(%"class.blink::mojom::blink::WebBluetoothRequestDeviceOptions"* nocapture) unnamed_addr #0 align 2 {
  %2 = getelementptr inbounds %"class.blink::mojom::blink::WebBluetoothRequestDeviceOptions", %"class.blink::mojom::blink::WebBluetoothRequestDeviceOptions"* %0, i64 0, i32 2, i32 0, i32 0, i32 0
  %3 = load i16*, i16** %2, align 8
  %4 = icmp eq i16* %3, null
  %5 = bitcast i16* %3 to i8*
  br i1 %4, label %12, label %6, !prof !4

6:                                                ; preds = %1
  %7 = getelementptr inbounds %"class.blink::mojom::blink::WebBluetoothRequestDeviceOptions", %"class.blink::mojom::blink::WebBluetoothRequestDeviceOptions"* %0, i64 0, i32 2, i32 0, i32 0, i32 2
  %8 = load i32, i32* %7, align 4
  %9 = icmp eq i32 %8, 0
  br i1 %9, label %11, label %10, !prof !3

10:                                               ; preds = %6
  store i32 0, i32* %7, align 4
  br label %11

11:                                               ; preds = %10, %6
  tail call void @_ZN3WTF18PartitionAllocator11FreeBackingEPv(i8* nonnull %5) #12
  store i16* null, i16** %2, align 8
  br label %12

12:                                               ; preds = %1, %11
  %13 = getelementptr inbounds %"class.blink::mojom::blink::WebBluetoothRequestDeviceOptions", %"class.blink::mojom::blink::WebBluetoothRequestDeviceOptions"* %0, i64 0, i32 1
  %14 = getelementptr inbounds %"class.WTF::Vector", %"class.WTF::Vector"* %13, i64 0, i32 0, i32 0, i32 0
  %15 = load %"class.WTF::String"*, %"class.WTF::String"** %14, align 8
  %16 = icmp eq %"class.WTF::String"* %15, null
  br i1 %16, label %51, label %17, !prof !4

17:                                               ; preds = %12
  %18 = bitcast %"class.WTF::String"* %15 to i8*
  %19 = getelementptr inbounds %"class.blink::mojom::blink::WebBluetoothRequestDeviceOptions", %"class.blink::mojom::blink::WebBluetoothRequestDeviceOptions"* %0, i64 0, i32 1, i32 0, i32 0, i32 2
  %20 = load i32, i32* %19, align 4
  %21 = icmp eq i32 %20, 0
  br i1 %21, label %49, label %22, !prof !3

22:                                               ; preds = %17
  %23 = zext i32 %20 to i64
  %24 = getelementptr inbounds %"class.WTF::String", %"class.WTF::String"* %15, i64 %23
  br label %25

25:                                               ; preds = %43, %22
  %26 = phi %"class.WTF::String"* [ %44, %43 ], [ %15, %22 ]
  %27 = getelementptr inbounds %"class.WTF::String", %"class.WTF::String"* %26, i64 0, i32 0, i32 0
  %28 = load %"class.WTF::StringImpl"*, %"class.WTF::StringImpl"** %27, align 8
  %29 = icmp eq %"class.WTF::StringImpl"* %28, null
  br i1 %29, label %43, label %30

30:                                               ; preds = %25
  %31 = getelementptr inbounds %"class.WTF::StringImpl", %"class.WTF::StringImpl"* %28, i64 0, i32 2, i32 0, i32 0, i32 0, i32 0, i32 0
  %32 = load atomic i32, i32* %31 monotonic, align 4
  %33 = and i32 %32, 2
  %34 = icmp eq i32 %33, 0
  %35 = getelementptr inbounds %"class.WTF::StringImpl", %"class.WTF::StringImpl"* %28, i64 0, i32 0
  %36 = load i32, i32* %35, align 4
  br i1 %34, label %37, label %39

37:                                               ; preds = %30
  %38 = add i32 %36, -1
  store i32 %38, i32* %35, align 4
  br label %39

39:                                               ; preds = %37, %30
  %40 = phi i32 [ %38, %37 ], [ %36, %30 ]
  %41 = icmp eq i32 %40, 0
  br i1 %41, label %42, label %43

42:                                               ; preds = %39
  tail call void @_ZNK3WTF10StringImpl18DestroyIfNotStaticEv(%"class.WTF::StringImpl"* nonnull %28) #12
  br label %43

43:                                               ; preds = %42, %39, %25
  %44 = getelementptr inbounds %"class.WTF::String", %"class.WTF::String"* %26, i64 1
  %45 = icmp eq %"class.WTF::String"* %44, %24
  br i1 %45, label %46, label %25

46:                                               ; preds = %43
  store i32 0, i32* %19, align 4
  %47 = bitcast %"class.WTF::Vector"* %13 to i8**
  %48 = load i8*, i8** %47, align 8
  br label %49

49:                                               ; preds = %46, %17
  %50 = phi i8* [ %48, %46 ], [ %18, %17 ]
  tail call void @_ZN3WTF18PartitionAllocator11FreeBackingEPv(i8* %50) #12
  store %"class.WTF::String"* null, %"class.WTF::String"** %14, align 8
  br label %51

51:                                               ; preds = %12, %49
  %52 = getelementptr inbounds %"class.blink::mojom::blink::WebBluetoothRequestDeviceOptions", %"class.blink::mojom::blink::WebBluetoothRequestDeviceOptions"* %0, i64 0, i32 0, i32 0, i32 0, i32 0, i32 0
  %53 = load i8, i8* %52, align 8, !range !2
  %54 = icmp eq i8 %53, 0
  br i1 %54, label %84, label %55

55:                                               ; preds = %51
  %56 = getelementptr inbounds %"class.blink::mojom::blink::WebBluetoothRequestDeviceOptions", %"class.blink::mojom::blink::WebBluetoothRequestDeviceOptions"* %0, i64 0, i32 0, i32 0, i32 0, i32 0, i32 1, i32 0
  %57 = getelementptr inbounds %"class.WTF::Vector.50", %"class.WTF::Vector.50"* %56, i64 0, i32 0, i32 0, i32 0
  %58 = load %"class.mojo::StructPtr"*, %"class.mojo::StructPtr"** %57, align 8
  %59 = icmp eq %"class.mojo::StructPtr"* %58, null
  br i1 %59, label %83, label %60, !prof !4

60:                                               ; preds = %55
  %61 = bitcast %"class.mojo::StructPtr"* %58 to i8*
  %62 = getelementptr inbounds %"class.blink::mojom::blink::WebBluetoothRequestDeviceOptions", %"class.blink::mojom::blink::WebBluetoothRequestDeviceOptions"* %0, i64 0, i32 0, i32 0, i32 0, i32 0, i32 1, i32 0, i32 0, i32 0, i32 2
  %63 = load i32, i32* %62, align 4
  %64 = icmp eq i32 %63, 0
  br i1 %64, label %81, label %65, !prof !3

65:                                               ; preds = %60
  %66 = zext i32 %63 to i64
  %67 = getelementptr inbounds %"class.mojo::StructPtr", %"class.mojo::StructPtr"* %58, i64 %66
  br label %68

68:                                               ; preds = %75, %65
  %69 = phi %"class.mojo::StructPtr"* [ %76, %75 ], [ %58, %65 ]
  %70 = getelementptr inbounds %"class.mojo::StructPtr", %"class.mojo::StructPtr"* %69, i64 0, i32 0, i32 0, i32 0, i32 0
  %71 = load %"class.blink::mojom::blink::WebBluetoothLeScanFilter"*, %"class.blink::mojom::blink::WebBluetoothLeScanFilter"** %70, align 8
  store %"class.blink::mojom::blink::WebBluetoothLeScanFilter"* null, %"class.blink::mojom::blink::WebBluetoothLeScanFilter"** %70, align 8
  %72 = icmp eq %"class.blink::mojom::blink::WebBluetoothLeScanFilter"* %71, null
  br i1 %72, label %75, label %73

73:                                               ; preds = %68
  tail call void @_ZN5blink5mojom5blink24WebBluetoothLeScanFilterD2Ev(%"class.blink::mojom::blink::WebBluetoothLeScanFilter"* nonnull %71) #12
  %74 = getelementptr inbounds %"class.blink::mojom::blink::WebBluetoothLeScanFilter", %"class.blink::mojom::blink::WebBluetoothLeScanFilter"* %71, i64 0, i32 0, i32 0, i32 0, i32 0, i32 0
  tail call void @_ZdlPv(i8* %74) #13
  br label %75

75:                                               ; preds = %73, %68
  %76 = getelementptr inbounds %"class.mojo::StructPtr", %"class.mojo::StructPtr"* %69, i64 1
  %77 = icmp eq %"class.mojo::StructPtr"* %76, %67
  br i1 %77, label %78, label %68

78:                                               ; preds = %75
  store i32 0, i32* %62, align 4
  %79 = bitcast %"class.WTF::Vector.50"* %56 to i8**
  %80 = load i8*, i8** %79, align 8
  br label %81

81:                                               ; preds = %78, %60
  %82 = phi i8* [ %80, %78 ], [ %61, %60 ]
  tail call void @_ZN3WTF18PartitionAllocator11FreeBackingEPv(i8* %82) #12
  store %"class.mojo::StructPtr"* null, %"class.mojo::StructPtr"** %57, align 8
  br label %83

83:                                               ; preds = %81, %55
  store i8 0, i8* %52, align 8
  br label %84

84:                                               ; preds = %51, %83
  ret void
}

; Function Attrs: nounwind ssp uwtable
define hidden void @_ZNK5blink5mojom5blink32WebBluetoothRequestDeviceOptions14WriteIntoTraceEN8perfetto11TracedValueE(%"class.blink::mojom::blink::WebBluetoothRequestDeviceOptions"* nocapture readonly, %"class.perfetto::TracedValue"*) local_unnamed_addr #0 align 2 {
  %3 = alloca %"class.perfetto::TracedValue", align 8
  %4 = alloca %"class.perfetto::TracedValue", align 8
  %5 = alloca %"class.perfetto::TracedArray", align 8
  %6 = alloca %"class.perfetto::TracedValue", align 8
  %7 = alloca %"class.perfetto::TracedValue", align 8
  %8 = alloca %"class.perfetto::TracedValue", align 8
  %9 = alloca %"class.perfetto::TracedArray", align 8
  %10 = alloca %"class.perfetto::TracedValue", align 8
  %11 = alloca %"class.perfetto::TracedValue", align 8
  %12 = alloca %"class.perfetto::TracedValue", align 8
  %13 = alloca %"class.perfetto::TracedValue", align 8
  %14 = alloca %"class.perfetto::TracedArray", align 8
  %15 = alloca %"class.perfetto::TracedValue", align 8
  %16 = alloca %"class.perfetto::TracedValue", align 8
  %17 = alloca %"class.perfetto::TracedValue", align 8
  %18 = alloca %"class.perfetto::TracedDictionary", align 8
  %19 = alloca %"class.perfetto::TracedValue", align 8
  %20 = alloca %"class.perfetto::TracedValue", align 8
  %21 = alloca %"class.perfetto::TracedValue", align 8
  %22 = alloca %"class.perfetto::TracedValue", align 8
  %23 = bitcast %"class.perfetto::TracedDictionary"* %18 to i8*
  call void @llvm.lifetime.start.p0i8(i64 16, i8* nonnull %23) #12
  %24 = bitcast %"class.perfetto::TracedDictionary"* %18 to i8*
  call void @llvm.memset.p0i8.i64(i8* nonnull align 8 %24, i8 -86, i64 16, i1 false)
  call void @_ZNO8perfetto11TracedValue15WriteDictionaryEv(%"class.perfetto::TracedDictionary"* nonnull sret %18, %"class.perfetto::TracedValue"* %1) #12
  call void @_ZN8perfetto16TracedDictionary7AddItemENS_12StaticStringE(%"class.perfetto::TracedValue"* nonnull sret %19, %"class.perfetto::TracedDictionary"* nonnull %18, i8* getelementptr inbounds ([8 x i8], [8 x i8]* @.str.8, i64 0, i64 0)) #12
  %25 = bitcast %"class.perfetto::TracedValue"* %19 to i8*
  %26 = bitcast %"class.perfetto::TracedValue"* %16 to i8*
  call void @llvm.lifetime.start.p0i8(i64 16, i8* nonnull %26) #12
  call void @llvm.memcpy.p0i8.p0i8.i64(i8* nonnull align 8 %26, i8* nonnull align 8 %25, i64 16, i1 false) #12
  %27 = getelementptr inbounds %"class.blink::mojom::blink::WebBluetoothRequestDeviceOptions", %"class.blink::mojom::blink::WebBluetoothRequestDeviceOptions"* %0, i64 0, i32 0, i32 0, i32 0, i32 0, i32 0
  %28 = load i8, i8* %27, align 8, !range !2
  %29 = icmp eq i8 %28, 0
  br i1 %29, label %30, label %31

30:                                               ; preds = %2
  call void @_ZNO8perfetto11TracedValue12WritePointerEPKv(%"class.perfetto::TracedValue"* nonnull %16, i8* null) #12
  br label %56

31:                                               ; preds = %2
  %32 = bitcast %"class.perfetto::TracedValue"* %15 to i8*
  call void @llvm.lifetime.start.p0i8(i64 16, i8* nonnull %32)
  call void @llvm.memcpy.p0i8.p0i8.i64(i8* nonnull align 8 %32, i8* nonnull align 8 %26, i64 16, i1 false)
  %33 = bitcast %"class.perfetto::TracedArray"* %14 to i8*
  call void @llvm.lifetime.start.p0i8(i64 16, i8* nonnull %33) #12
  call void @llvm.memset.p0i8.i64(i8* nonnull align 8 %33, i8 -86, i64 16, i1 false) #12
  call void @_ZNO8perfetto11TracedValue10WriteArrayEv(%"class.perfetto::TracedArray"* nonnull sret %14, %"class.perfetto::TracedValue"* nonnull %15) #12
  %34 = getelementptr inbounds %"class.blink::mojom::blink::WebBluetoothRequestDeviceOptions", %"class.blink::mojom::blink::WebBluetoothRequestDeviceOptions"* %0, i64 0, i32 0, i32 0, i32 0, i32 0, i32 1, i32 0, i32 0, i32 0, i32 0
  %35 = load %"class.mojo::StructPtr"*, %"class.mojo::StructPtr"** %34, align 8
  %36 = getelementptr inbounds %"class.blink::mojom::blink::WebBluetoothRequestDeviceOptions", %"class.blink::mojom::blink::WebBluetoothRequestDeviceOptions"* %0, i64 0, i32 0, i32 0, i32 0, i32 0, i32 1, i32 0, i32 0, i32 0, i32 2
  %37 = load i32, i32* %36, align 4
  %38 = zext i32 %37 to i64
  %39 = getelementptr inbounds %"class.mojo::StructPtr", %"class.mojo::StructPtr"* %35, i64 %38
  %40 = icmp eq i32 %37, 0
  br i1 %40, label %55, label %41

41:                                               ; preds = %31
  %42 = bitcast %"class.perfetto::TracedValue"* %13 to i8*
  %43 = bitcast %"class.perfetto::TracedValue"* %12 to i8*
  %44 = bitcast %"class.perfetto::TracedValue"* %11 to i8*
  br label %45

45:                                               ; preds = %52, %41
  %46 = phi %"class.mojo::StructPtr"* [ %35, %41 ], [ %53, %52 ]
  call void @llvm.lifetime.start.p0i8(i64 16, i8* nonnull %42) #12
  call void @_ZN8perfetto11TracedArray10AppendItemEv(%"class.perfetto::TracedValue"* nonnull sret %13, %"class.perfetto::TracedArray"* nonnull %14) #12
  %47 = getelementptr inbounds %"class.mojo::StructPtr", %"class.mojo::StructPtr"* %46, i64 0, i32 0, i32 0, i32 0, i32 0
  %48 = load %"class.blink::mojom::blink::WebBluetoothLeScanFilter"*, %"class.blink::mojom::blink::WebBluetoothLeScanFilter"** %47, align 8
  call void @llvm.lifetime.start.p0i8(i64 16, i8* nonnull %43) #12
  call void @llvm.memcpy.p0i8.p0i8.i64(i8* nonnull align 8 %43, i8* nonnull align 8 %42, i64 16, i1 false) #12
  %49 = icmp eq %"class.blink::mojom::blink::WebBluetoothLeScanFilter"* %48, null
  br i1 %49, label %50, label %51

50:                                               ; preds = %45
  call void @_ZNO8perfetto11TracedValue12WritePointerEPKv(%"class.perfetto::TracedValue"* nonnull %12, i8* null) #12
  br label %52

51:                                               ; preds = %45
  call void @llvm.lifetime.start.p0i8(i64 16, i8* nonnull %44) #12
  call void @llvm.memcpy.p0i8.p0i8.i64(i8* nonnull align 8 %44, i8* nonnull align 8 %43, i64 16, i1 false) #12
  call void @_ZNK5blink5mojom5blink24WebBluetoothLeScanFilter14WriteIntoTraceEN8perfetto11TracedValueE(%"class.blink::mojom::blink::WebBluetoothLeScanFilter"* nonnull %48, %"class.perfetto::TracedValue"* nonnull %11) #12
  call void @llvm.lifetime.end.p0i8(i64 16, i8* nonnull %44) #12
  br label %52

52:                                               ; preds = %51, %50
  call void @llvm.lifetime.end.p0i8(i64 16, i8* nonnull %43) #12
  call void @llvm.lifetime.end.p0i8(i64 16, i8* nonnull %42) #12
  %53 = getelementptr inbounds %"class.mojo::StructPtr", %"class.mojo::StructPtr"* %46, i64 1
  %54 = icmp eq %"class.mojo::StructPtr"* %53, %39
  br i1 %54, label %55, label %45

55:                                               ; preds = %52, %31
  call void @llvm.lifetime.end.p0i8(i64 16, i8* nonnull %33) #12
  call void @llvm.lifetime.end.p0i8(i64 16, i8* nonnull %32)
  br label %56

56:                                               ; preds = %55, %30
  call void @llvm.lifetime.end.p0i8(i64 16, i8* nonnull %26) #12
  call void @_ZN8perfetto16TracedDictionary7AddItemENS_12StaticStringE(%"class.perfetto::TracedValue"* nonnull sret %20, %"class.perfetto::TracedDictionary"* nonnull %18, i8* getelementptr inbounds ([18 x i8], [18 x i8]* @.str.9, i64 0, i64 0)) #12
  %57 = bitcast %"class.perfetto::TracedValue"* %20 to i8*
  %58 = bitcast %"class.perfetto::TracedValue"* %10 to i8*
  call void @llvm.lifetime.start.p0i8(i64 16, i8* nonnull %58) #12
  call void @llvm.memcpy.p0i8.p0i8.i64(i8* nonnull align 8 %58, i8* nonnull align 8 %57, i64 16, i1 false) #12
  %59 = bitcast %"class.perfetto::TracedArray"* %9 to i8*
  call void @llvm.lifetime.start.p0i8(i64 16, i8* nonnull %59) #12
  call void @llvm.memset.p0i8.i64(i8* nonnull align 8 %59, i8 -86, i64 16, i1 false) #12
  call void @_ZNO8perfetto11TracedValue10WriteArrayEv(%"class.perfetto::TracedArray"* nonnull sret %9, %"class.perfetto::TracedValue"* nonnull %10) #12
  %60 = getelementptr inbounds %"class.blink::mojom::blink::WebBluetoothRequestDeviceOptions", %"class.blink::mojom::blink::WebBluetoothRequestDeviceOptions"* %0, i64 0, i32 1, i32 0, i32 0, i32 0
  %61 = load %"class.WTF::String"*, %"class.WTF::String"** %60, align 8
  %62 = getelementptr inbounds %"class.blink::mojom::blink::WebBluetoothRequestDeviceOptions", %"class.blink::mojom::blink::WebBluetoothRequestDeviceOptions"* %0, i64 0, i32 1, i32 0, i32 0, i32 2
  %63 = load i32, i32* %62, align 4
  %64 = zext i32 %63 to i64
  %65 = getelementptr inbounds %"class.WTF::String", %"class.WTF::String"* %61, i64 %64
  %66 = icmp eq i32 %63, 0
  br i1 %66, label %74, label %67

67:                                               ; preds = %56
  %68 = bitcast %"class.perfetto::TracedValue"* %8 to i8*
  %69 = bitcast %"class.perfetto::TracedValue"* %7 to i8*
  br label %70

70:                                               ; preds = %70, %67
  %71 = phi %"class.WTF::String"* [ %61, %67 ], [ %72, %70 ]
  call void @llvm.lifetime.start.p0i8(i64 16, i8* nonnull %68) #12
  call void @_ZN8perfetto11TracedArray10AppendItemEv(%"class.perfetto::TracedValue"* nonnull sret %8, %"class.perfetto::TracedArray"* nonnull %9) #12
  call void @llvm.lifetime.start.p0i8(i64 16, i8* nonnull %69) #12
  call void @llvm.memcpy.p0i8.p0i8.i64(i8* nonnull align 8 %69, i8* nonnull align 8 %68, i64 16, i1 false) #12
  call void @_ZNK3WTF6String14WriteIntoTraceEN8perfetto11TracedValueE(%"class.WTF::String"* %71, %"class.perfetto::TracedValue"* nonnull %7) #12
  call void @llvm.lifetime.end.p0i8(i64 16, i8* nonnull %69) #12
  call void @llvm.lifetime.end.p0i8(i64 16, i8* nonnull %68) #12
  %72 = getelementptr inbounds %"class.WTF::String", %"class.WTF::String"* %71, i64 1
  %73 = icmp eq %"class.WTF::String"* %72, %65
  br i1 %73, label %74, label %70

74:                                               ; preds = %70, %56
  call void @llvm.lifetime.end.p0i8(i64 16, i8* nonnull %59) #12
  call void @llvm.lifetime.end.p0i8(i64 16, i8* nonnull %58) #12
  call void @_ZN8perfetto16TracedDictionary7AddItemENS_12StaticStringE(%"class.perfetto::TracedValue"* nonnull sret %21, %"class.perfetto::TracedDictionary"* nonnull %18, i8* getelementptr inbounds ([27 x i8], [27 x i8]* @.str.10, i64 0, i64 0)) #12
  %75 = bitcast %"class.perfetto::TracedValue"* %21 to i8*
  %76 = bitcast %"class.perfetto::TracedValue"* %6 to i8*
  call void @llvm.lifetime.start.p0i8(i64 16, i8* nonnull %76) #12
  call void @llvm.memcpy.p0i8.p0i8.i64(i8* nonnull align 8 %76, i8* nonnull align 8 %75, i64 16, i1 false) #12
  %77 = bitcast %"class.perfetto::TracedArray"* %5 to i8*
  call void @llvm.lifetime.start.p0i8(i64 16, i8* nonnull %77) #12
  call void @llvm.memset.p0i8.i64(i8* nonnull align 8 %77, i8 -86, i64 16, i1 false) #12
  call void @_ZNO8perfetto11TracedValue10WriteArrayEv(%"class.perfetto::TracedArray"* nonnull sret %5, %"class.perfetto::TracedValue"* nonnull %6) #12
  %78 = getelementptr inbounds %"class.blink::mojom::blink::WebBluetoothRequestDeviceOptions", %"class.blink::mojom::blink::WebBluetoothRequestDeviceOptions"* %0, i64 0, i32 2, i32 0, i32 0, i32 0
  %79 = load i16*, i16** %78, align 8
  %80 = getelementptr inbounds %"class.blink::mojom::blink::WebBluetoothRequestDeviceOptions", %"class.blink::mojom::blink::WebBluetoothRequestDeviceOptions"* %0, i64 0, i32 2, i32 0, i32 0, i32 2
  %81 = load i32, i32* %80, align 4
  %82 = zext i32 %81 to i64
  %83 = getelementptr inbounds i16, i16* %79, i64 %82
  %84 = icmp eq i32 %81, 0
  br i1 %84, label %94, label %85

85:                                               ; preds = %74
  %86 = bitcast %"class.perfetto::TracedValue"* %4 to i8*
  %87 = bitcast %"class.perfetto::TracedValue"* %3 to i8*
  br label %88

88:                                               ; preds = %88, %85
  %89 = phi i16* [ %79, %85 ], [ %92, %88 ]
  call void @llvm.lifetime.start.p0i8(i64 16, i8* nonnull %86) #12
  call void @_ZN8perfetto11TracedArray10AppendItemEv(%"class.perfetto::TracedValue"* nonnull sret %4, %"class.perfetto::TracedArray"* nonnull %5) #12
  call void @llvm.lifetime.start.p0i8(i64 16, i8* nonnull %87) #12
  call void @llvm.memcpy.p0i8.p0i8.i64(i8* nonnull align 8 %87, i8* nonnull align 8 %86, i64 16, i1 false) #12
  %90 = load i16, i16* %89, align 2
  %91 = zext i16 %90 to i64
  call void @_ZNO8perfetto11TracedValue11WriteUInt64Em(%"class.perfetto::TracedValue"* nonnull %3, i64 %91) #12
  call void @llvm.lifetime.end.p0i8(i64 16, i8* nonnull %87) #12
  call void @llvm.lifetime.end.p0i8(i64 16, i8* nonnull %86) #12
  %92 = getelementptr inbounds i16, i16* %89, i64 1
  %93 = icmp eq i16* %92, %83
  br i1 %93, label %94, label %88

94:                                               ; preds = %88, %74
  call void @llvm.lifetime.end.p0i8(i64 16, i8* nonnull %77) #12
  call void @llvm.lifetime.end.p0i8(i64 16, i8* nonnull %76) #12
  call void @_ZN8perfetto16TracedDictionary7AddItemENS_12StaticStringE(%"class.perfetto::TracedValue"* nonnull sret %22, %"class.perfetto::TracedDictionary"* nonnull %18, i8* getelementptr inbounds ([19 x i8], [19 x i8]* @.str.11, i64 0, i64 0)) #12
  %95 = getelementptr inbounds %"class.blink::mojom::blink::WebBluetoothRequestDeviceOptions", %"class.blink::mojom::blink::WebBluetoothRequestDeviceOptions"* %0, i64 0, i32 3
  %96 = bitcast %"class.perfetto::TracedValue"* %22 to i8*
  %97 = bitcast %"class.perfetto::TracedValue"* %17 to i8*
  call void @llvm.lifetime.start.p0i8(i64 16, i8* nonnull %97) #12
  call void @llvm.memcpy.p0i8.p0i8.i64(i8* nonnull align 8 %97, i8* nonnull align 8 %96, i64 16, i1 false) #12
  %98 = load i8, i8* %95, align 1, !range !2
  %99 = icmp ne i8 %98, 0
  call void @_ZNO8perfetto11TracedValue12WriteBooleanEb(%"class.perfetto::TracedValue"* nonnull %17, i1 zeroext %99) #12
  call void @llvm.lifetime.end.p0i8(i64 16, i8* nonnull %97) #12
  call void @llvm.lifetime.end.p0i8(i64 16, i8* nonnull %23) #12
  ret void
}

; Function Attrs: nounwind ssp uwtable
define hidden zeroext i1 @_ZN5blink5mojom5blink32WebBluetoothRequestDeviceOptions8ValidateEPKvPN4mojo8internal17ValidationContextE(i8*, %"class.mojo::internal::ValidationContext"*) local_unnamed_addr #0 align 2 {
  %3 = tail call zeroext i1 @_ZN5blink5mojom8internal37WebBluetoothRequestDeviceOptions_Data8ValidateEPKvPN4mojo8internal17ValidationContextE(i8* %0, %"class.mojo::internal::ValidationContext"* %1) #12
  ret i1 %3
}

declare zeroext i1 @_ZN5blink5mojom8internal37WebBluetoothRequestDeviceOptions_Data8ValidateEPKvPN4mojo8internal17ValidationContextE(i8*, %"class.mojo::internal::ValidationContext"*) local_unnamed_addr #2

; Function Attrs: nofree norecurse nounwind ssp uwtable writeonly
define hidden void @_ZN5blink5mojom5blink32WebBluetoothRequestLEScanOptionsC2Ev(%"class.blink::mojom::blink::WebBluetoothRequestLEScanOptions"* nocapture) unnamed_addr #3 align 2 {
  %2 = getelementptr inbounds %"class.blink::mojom::blink::WebBluetoothRequestLEScanOptions", %"class.blink::mojom::blink::WebBluetoothRequestLEScanOptions"* %0, i64 0, i32 0, i32 0, i32 0, i32 0, i32 0
  store i8 0, i8* %2, align 8
  %3 = getelementptr inbounds %"class.blink::mojom::blink::WebBluetoothRequestLEScanOptions", %"class.blink::mojom::blink::WebBluetoothRequestLEScanOptions"* %0, i64 0, i32 1
  store i8 0, i8* %3, align 8
  %4 = getelementptr inbounds %"class.blink::mojom::blink::WebBluetoothRequestLEScanOptions", %"class.blink::mojom::blink::WebBluetoothRequestLEScanOptions"* %0, i64 0, i32 2
  store i8 0, i8* %4, align 1
  ret void
}

; Function Attrs: nounwind ssp uwtable
define hidden void @_ZN5blink5mojom5blink32WebBluetoothRequestLEScanOptionsC2EN4absl8optionalIN3WTF6VectorIN4mojo9StructPtrINS1_24WebBluetoothLeScanFilterEEELj0ENS5_18PartitionAllocatorEEEEEbb(%"class.blink::mojom::blink::WebBluetoothRequestLEScanOptions"* nocapture, %"class.absl::optional.45"* nocapture, i1 zeroext, i1 zeroext) unnamed_addr #0 align 2 {
  %5 = zext i1 %2 to i8
  %6 = zext i1 %3 to i8
  %7 = getelementptr inbounds %"class.blink::mojom::blink::WebBluetoothRequestLEScanOptions", %"class.blink::mojom::blink::WebBluetoothRequestLEScanOptions"* %0, i64 0, i32 0, i32 0, i32 0, i32 0, i32 0
  %8 = getelementptr inbounds %"class.absl::optional.45", %"class.absl::optional.45"* %1, i64 0, i32 0, i32 0, i32 0, i32 0
  tail call void @llvm.memset.p0i8.i64(i8* align 8 %7, i8 0, i64 24, i1 false) #12
  %9 = load i8, i8* %8, align 8, !range !2
  %10 = icmp eq i8 %9, 0
  br i1 %10, label %26, label %11

11:                                               ; preds = %4
  %12 = getelementptr inbounds %"class.absl::optional.45", %"class.absl::optional.45"* %1, i64 0, i32 0, i32 0, i32 0, i32 1, i32 0
  %13 = getelementptr inbounds %"class.blink::mojom::blink::WebBluetoothRequestLEScanOptions", %"class.blink::mojom::blink::WebBluetoothRequestLEScanOptions"* %0, i64 0, i32 0, i32 0, i32 0, i32 0, i32 1, i32 0
  %14 = getelementptr inbounds %"class.blink::mojom::blink::WebBluetoothRequestLEScanOptions", %"class.blink::mojom::blink::WebBluetoothRequestLEScanOptions"* %0, i64 0, i32 0, i32 0, i32 0, i32 0, i32 1, i32 0, i32 0, i32 0, i32 1
  %15 = getelementptr inbounds %"class.blink::mojom::blink::WebBluetoothRequestLEScanOptions", %"class.blink::mojom::blink::WebBluetoothRequestLEScanOptions"* %0, i64 0, i32 0, i32 0, i32 0, i32 0, i32 1, i32 0, i32 0, i32 0, i32 2
  %16 = bitcast %"class.WTF::Vector.50"* %12 to i64*
  %17 = bitcast %"class.WTF::Vector.50"* %13 to i8*
  tail call void @llvm.memset.p0i8.i64(i8* align 8 %17, i8 0, i64 16, i1 false) #12
  %18 = load i64, i64* %16, align 8
  %19 = bitcast %"class.WTF::Vector.50"* %13 to i64*
  store atomic i64 0, i64* %16 monotonic, align 8
  store atomic i64 %18, i64* %19 monotonic, align 8
  %20 = getelementptr inbounds %"class.absl::optional.45", %"class.absl::optional.45"* %1, i64 0, i32 0, i32 0, i32 0, i32 1, i32 0, i32 0, i32 0, i32 1
  %21 = load i32, i32* %14, align 4
  %22 = load i32, i32* %20, align 4
  store i32 %22, i32* %14, align 4
  store i32 %21, i32* %20, align 4
  %23 = getelementptr inbounds %"class.absl::optional.45", %"class.absl::optional.45"* %1, i64 0, i32 0, i32 0, i32 0, i32 1, i32 0, i32 0, i32 0, i32 2
  %24 = load i32, i32* %15, align 4
  %25 = load i32, i32* %23, align 4
  store i32 %25, i32* %15, align 4
  store i32 %24, i32* %23, align 4
  store i8 1, i8* %7, align 8
  br label %26

26:                                               ; preds = %4, %11
  %27 = getelementptr inbounds %"class.blink::mojom::blink::WebBluetoothRequestLEScanOptions", %"class.blink::mojom::blink::WebBluetoothRequestLEScanOptions"* %0, i64 0, i32 1
  store i8 %5, i8* %27, align 8
  %28 = getelementptr inbounds %"class.blink::mojom::blink::WebBluetoothRequestLEScanOptions", %"class.blink::mojom::blink::WebBluetoothRequestLEScanOptions"* %0, i64 0, i32 2
  store i8 %6, i8* %28, align 1
  ret void
}

; Function Attrs: nounwind ssp uwtable
define hidden void @_ZN5blink5mojom5blink32WebBluetoothRequestLEScanOptionsD2Ev(%"class.blink::mojom::blink::WebBluetoothRequestLEScanOptions"* nocapture) unnamed_addr #0 align 2 {
  %2 = getelementptr inbounds %"class.blink::mojom::blink::WebBluetoothRequestLEScanOptions", %"class.blink::mojom::blink::WebBluetoothRequestLEScanOptions"* %0, i64 0, i32 0, i32 0, i32 0, i32 0, i32 0
  %3 = load i8, i8* %2, align 8, !range !2
  %4 = icmp eq i8 %3, 0
  br i1 %4, label %34, label %5

5:                                                ; preds = %1
  %6 = getelementptr inbounds %"class.blink::mojom::blink::WebBluetoothRequestLEScanOptions", %"class.blink::mojom::blink::WebBluetoothRequestLEScanOptions"* %0, i64 0, i32 0, i32 0, i32 0, i32 0, i32 1, i32 0
  %7 = getelementptr inbounds %"class.WTF::Vector.50", %"class.WTF::Vector.50"* %6, i64 0, i32 0, i32 0, i32 0
  %8 = load %"class.mojo::StructPtr"*, %"class.mojo::StructPtr"** %7, align 8
  %9 = icmp eq %"class.mojo::StructPtr"* %8, null
  br i1 %9, label %33, label %10, !prof !4

10:                                               ; preds = %5
  %11 = bitcast %"class.mojo::StructPtr"* %8 to i8*
  %12 = getelementptr inbounds %"class.blink::mojom::blink::WebBluetoothRequestLEScanOptions", %"class.blink::mojom::blink::WebBluetoothRequestLEScanOptions"* %0, i64 0, i32 0, i32 0, i32 0, i32 0, i32 1, i32 0, i32 0, i32 0, i32 2
  %13 = load i32, i32* %12, align 4
  %14 = icmp eq i32 %13, 0
  br i1 %14, label %31, label %15, !prof !3

15:                                               ; preds = %10
  %16 = zext i32 %13 to i64
  %17 = getelementptr inbounds %"class.mojo::StructPtr", %"class.mojo::StructPtr"* %8, i64 %16
  br label %18

18:                                               ; preds = %25, %15
  %19 = phi %"class.mojo::StructPtr"* [ %26, %25 ], [ %8, %15 ]
  %20 = getelementptr inbounds %"class.mojo::StructPtr", %"class.mojo::StructPtr"* %19, i64 0, i32 0, i32 0, i32 0, i32 0
  %21 = load %"class.blink::mojom::blink::WebBluetoothLeScanFilter"*, %"class.blink::mojom::blink::WebBluetoothLeScanFilter"** %20, align 8
  store %"class.blink::mojom::blink::WebBluetoothLeScanFilter"* null, %"class.blink::mojom::blink::WebBluetoothLeScanFilter"** %20, align 8
  %22 = icmp eq %"class.blink::mojom::blink::WebBluetoothLeScanFilter"* %21, null
  br i1 %22, label %25, label %23

23:                                               ; preds = %18
  tail call void @_ZN5blink5mojom5blink24WebBluetoothLeScanFilterD2Ev(%"class.blink::mojom::blink::WebBluetoothLeScanFilter"* nonnull %21) #12
  %24 = getelementptr inbounds %"class.blink::mojom::blink::WebBluetoothLeScanFilter", %"class.blink::mojom::blink::WebBluetoothLeScanFilter"* %21, i64 0, i32 0, i32 0, i32 0, i32 0, i32 0
  tail call void @_ZdlPv(i8* %24) #13
  br label %25

25:                                               ; preds = %23, %18
  %26 = getelementptr inbounds %"class.mojo::StructPtr", %"class.mojo::StructPtr"* %19, i64 1
  %27 = icmp eq %"class.mojo::StructPtr"* %26, %17
  br i1 %27, label %28, label %18

28:                                               ; preds = %25
  store i32 0, i32* %12, align 4
  %29 = bitcast %"class.WTF::Vector.50"* %6 to i8**
  %30 = load i8*, i8** %29, align 8
  br label %31

31:                                               ; preds = %28, %10
  %32 = phi i8* [ %30, %28 ], [ %11, %10 ]
  tail call void @_ZN3WTF18PartitionAllocator11FreeBackingEPv(i8* %32) #12
  store %"class.mojo::StructPtr"* null, %"class.mojo::StructPtr"** %7, align 8
  br label %33

33:                                               ; preds = %31, %5
  store i8 0, i8* %2, align 8
  br label %34

34:                                               ; preds = %1, %33
  ret void
}

; Function Attrs: nounwind ssp uwtable
define hidden void @_ZNK5blink5mojom5blink32WebBluetoothRequestLEScanOptions14WriteIntoTraceEN8perfetto11TracedValueE(%"class.blink::mojom::blink::WebBluetoothRequestLEScanOptions"* nocapture readonly, %"class.perfetto::TracedValue"*) local_unnamed_addr #0 align 2 {
  %3 = alloca %"class.perfetto::TracedValue", align 8
  %4 = alloca %"class.perfetto::TracedValue", align 8
  %5 = alloca %"class.perfetto::TracedValue", align 8
  %6 = alloca %"class.perfetto::TracedValue", align 8
  %7 = alloca %"class.perfetto::TracedArray", align 8
  %8 = alloca %"class.perfetto::TracedValue", align 8
  %9 = alloca %"class.perfetto::TracedValue", align 8
  %10 = alloca %"class.perfetto::TracedValue", align 8
  %11 = alloca %"class.perfetto::TracedDictionary", align 8
  %12 = alloca %"class.perfetto::TracedValue", align 8
  %13 = alloca %"class.perfetto::TracedValue", align 8
  %14 = alloca %"class.perfetto::TracedValue", align 8
  %15 = bitcast %"class.perfetto::TracedDictionary"* %11 to i8*
  call void @llvm.lifetime.start.p0i8(i64 16, i8* nonnull %15) #12
  %16 = bitcast %"class.perfetto::TracedDictionary"* %11 to i8*
  call void @llvm.memset.p0i8.i64(i8* nonnull align 8 %16, i8 -86, i64 16, i1 false)
  call void @_ZNO8perfetto11TracedValue15WriteDictionaryEv(%"class.perfetto::TracedDictionary"* nonnull sret %11, %"class.perfetto::TracedValue"* %1) #12
  call void @_ZN8perfetto16TracedDictionary7AddItemENS_12StaticStringE(%"class.perfetto::TracedValue"* nonnull sret %12, %"class.perfetto::TracedDictionary"* nonnull %11, i8* getelementptr inbounds ([8 x i8], [8 x i8]* @.str.8, i64 0, i64 0)) #12
  %17 = bitcast %"class.perfetto::TracedValue"* %12 to i8*
  %18 = bitcast %"class.perfetto::TracedValue"* %9 to i8*
  call void @llvm.lifetime.start.p0i8(i64 16, i8* nonnull %18) #12
  call void @llvm.memcpy.p0i8.p0i8.i64(i8* nonnull align 8 %18, i8* nonnull align 8 %17, i64 16, i1 false) #12
  %19 = getelementptr inbounds %"class.blink::mojom::blink::WebBluetoothRequestLEScanOptions", %"class.blink::mojom::blink::WebBluetoothRequestLEScanOptions"* %0, i64 0, i32 0, i32 0, i32 0, i32 0, i32 0
  %20 = load i8, i8* %19, align 8, !range !2
  %21 = icmp eq i8 %20, 0
  br i1 %21, label %22, label %23

22:                                               ; preds = %2
  call void @_ZNO8perfetto11TracedValue12WritePointerEPKv(%"class.perfetto::TracedValue"* nonnull %9, i8* null) #12
  br label %48

23:                                               ; preds = %2
  %24 = bitcast %"class.perfetto::TracedValue"* %8 to i8*
  call void @llvm.lifetime.start.p0i8(i64 16, i8* nonnull %24)
  call void @llvm.memcpy.p0i8.p0i8.i64(i8* nonnull align 8 %24, i8* nonnull align 8 %18, i64 16, i1 false)
  %25 = bitcast %"class.perfetto::TracedArray"* %7 to i8*
  call void @llvm.lifetime.start.p0i8(i64 16, i8* nonnull %25) #12
  call void @llvm.memset.p0i8.i64(i8* nonnull align 8 %25, i8 -86, i64 16, i1 false) #12
  call void @_ZNO8perfetto11TracedValue10WriteArrayEv(%"class.perfetto::TracedArray"* nonnull sret %7, %"class.perfetto::TracedValue"* nonnull %8) #12
  %26 = getelementptr inbounds %"class.blink::mojom::blink::WebBluetoothRequestLEScanOptions", %"class.blink::mojom::blink::WebBluetoothRequestLEScanOptions"* %0, i64 0, i32 0, i32 0, i32 0, i32 0, i32 1, i32 0, i32 0, i32 0, i32 0
  %27 = load %"class.mojo::StructPtr"*, %"class.mojo::StructPtr"** %26, align 8
  %28 = getelementptr inbounds %"class.blink::mojom::blink::WebBluetoothRequestLEScanOptions", %"class.blink::mojom::blink::WebBluetoothRequestLEScanOptions"* %0, i64 0, i32 0, i32 0, i32 0, i32 0, i32 1, i32 0, i32 0, i32 0, i32 2
  %29 = load i32, i32* %28, align 4
  %30 = zext i32 %29 to i64
  %31 = getelementptr inbounds %"class.mojo::StructPtr", %"class.mojo::StructPtr"* %27, i64 %30
  %32 = icmp eq i32 %29, 0
  br i1 %32, label %47, label %33

33:                                               ; preds = %23
  %34 = bitcast %"class.perfetto::TracedValue"* %6 to i8*
  %35 = bitcast %"class.perfetto::TracedValue"* %5 to i8*
  %36 = bitcast %"class.perfetto::TracedValue"* %4 to i8*
  br label %37

37:                                               ; preds = %44, %33
  %38 = phi %"class.mojo::StructPtr"* [ %27, %33 ], [ %45, %44 ]
  call void @llvm.lifetime.start.p0i8(i64 16, i8* nonnull %34) #12
  call void @_ZN8perfetto11TracedArray10AppendItemEv(%"class.perfetto::TracedValue"* nonnull sret %6, %"class.perfetto::TracedArray"* nonnull %7) #12
  %39 = getelementptr inbounds %"class.mojo::StructPtr", %"class.mojo::StructPtr"* %38, i64 0, i32 0, i32 0, i32 0, i32 0
  %40 = load %"class.blink::mojom::blink::WebBluetoothLeScanFilter"*, %"class.blink::mojom::blink::WebBluetoothLeScanFilter"** %39, align 8
  call void @llvm.lifetime.start.p0i8(i64 16, i8* nonnull %35) #12
  call void @llvm.memcpy.p0i8.p0i8.i64(i8* nonnull align 8 %35, i8* nonnull align 8 %34, i64 16, i1 false) #12
  %41 = icmp eq %"class.blink::mojom::blink::WebBluetoothLeScanFilter"* %40, null
  br i1 %41, label %42, label %43

42:                                               ; preds = %37
  call void @_ZNO8perfetto11TracedValue12WritePointerEPKv(%"class.perfetto::TracedValue"* nonnull %5, i8* null) #12
  br label %44

43:                                               ; preds = %37
  call void @llvm.lifetime.start.p0i8(i64 16, i8* nonnull %36) #12
  call void @llvm.memcpy.p0i8.p0i8.i64(i8* nonnull align 8 %36, i8* nonnull align 8 %35, i64 16, i1 false) #12
  call void @_ZNK5blink5mojom5blink24WebBluetoothLeScanFilter14WriteIntoTraceEN8perfetto11TracedValueE(%"class.blink::mojom::blink::WebBluetoothLeScanFilter"* nonnull %40, %"class.perfetto::TracedValue"* nonnull %4) #12
  call void @llvm.lifetime.end.p0i8(i64 16, i8* nonnull %36) #12
  br label %44

44:                                               ; preds = %43, %42
  call void @llvm.lifetime.end.p0i8(i64 16, i8* nonnull %35) #12
  call void @llvm.lifetime.end.p0i8(i64 16, i8* nonnull %34) #12
  %45 = getelementptr inbounds %"class.mojo::StructPtr", %"class.mojo::StructPtr"* %38, i64 1
  %46 = icmp eq %"class.mojo::StructPtr"* %45, %31
  br i1 %46, label %47, label %37

47:                                               ; preds = %44, %23
  call void @llvm.lifetime.end.p0i8(i64 16, i8* nonnull %25) #12
  call void @llvm.lifetime.end.p0i8(i64 16, i8* nonnull %24)
  br label %48

48:                                               ; preds = %47, %22
  call void @llvm.lifetime.end.p0i8(i64 16, i8* nonnull %18) #12
  call void @_ZN8perfetto16TracedDictionary7AddItemENS_12StaticStringE(%"class.perfetto::TracedValue"* nonnull sret %13, %"class.perfetto::TracedDictionary"* nonnull %11, i8* getelementptr inbounds ([22 x i8], [22 x i8]* @.str.12, i64 0, i64 0)) #12
  %49 = getelementptr inbounds %"class.blink::mojom::blink::WebBluetoothRequestLEScanOptions", %"class.blink::mojom::blink::WebBluetoothRequestLEScanOptions"* %0, i64 0, i32 1
  %50 = bitcast %"class.perfetto::TracedValue"* %13 to i8*
  %51 = bitcast %"class.perfetto::TracedValue"* %3 to i8*
  call void @llvm.lifetime.start.p0i8(i64 16, i8* nonnull %51) #12
  call void @llvm.memcpy.p0i8.p0i8.i64(i8* nonnull align 8 %51, i8* nonnull align 8 %50, i64 16, i1 false) #12
  %52 = load i8, i8* %49, align 1, !range !2
  %53 = icmp ne i8 %52, 0
  call void @_ZNO8perfetto11TracedValue12WriteBooleanEb(%"class.perfetto::TracedValue"* nonnull %3, i1 zeroext %53) #12
  call void @llvm.lifetime.end.p0i8(i64 16, i8* nonnull %51) #12
  call void @_ZN8perfetto16TracedDictionary7AddItemENS_12StaticStringE(%"class.perfetto::TracedValue"* nonnull sret %14, %"class.perfetto::TracedDictionary"* nonnull %11, i8* getelementptr inbounds ([26 x i8], [26 x i8]* @.str.13, i64 0, i64 0)) #12
  %54 = getelementptr inbounds %"class.blink::mojom::blink::WebBluetoothRequestLEScanOptions", %"class.blink::mojom::blink::WebBluetoothRequestLEScanOptions"* %0, i64 0, i32 2
  %55 = bitcast %"class.perfetto::TracedValue"* %14 to i8*
  %56 = bitcast %"class.perfetto::TracedValue"* %10 to i8*
  call void @llvm.lifetime.start.p0i8(i64 16, i8* nonnull %56) #12
  call void @llvm.memcpy.p0i8.p0i8.i64(i8* nonnull align 8 %56, i8* nonnull align 8 %55, i64 16, i1 false) #12
  %57 = load i8, i8* %54, align 1, !range !2
  %58 = icmp ne i8 %57, 0
  call void @_ZNO8perfetto11TracedValue12WriteBooleanEb(%"class.perfetto::TracedValue"* nonnull %10, i1 zeroext %58) #12
  call void @llvm.lifetime.end.p0i8(i64 16, i8* nonnull %56) #12
  call void @llvm.lifetime.end.p0i8(i64 16, i8* nonnull %15) #12
  ret void
}

; Function Attrs: nounwind ssp uwtable
define hidden zeroext i1 @_ZN5blink5mojom5blink32WebBluetoothRequestLEScanOptions8ValidateEPKvPN4mojo8internal17ValidationContextE(i8*, %"class.mojo::internal::ValidationContext"*) local_unnamed_addr #0 align 2 {
  %3 = tail call zeroext i1 @_ZN5blink5mojom8internal37WebBluetoothRequestLEScanOptions_Data8ValidateEPKvPN4mojo8internal17ValidationContextE(i8* %0, %"class.mojo::internal::ValidationContext"* %1) #12
  ret i1 %3
}

declare zeroext i1 @_ZN5blink5mojom8internal37WebBluetoothRequestLEScanOptions_Data8ValidateEPKvPN4mojo8internal17ValidationContextE(i8*, %"class.mojo::internal::ValidationContext"*) local_unnamed_addr #2

; Function Attrs: nofree norecurse nounwind ssp uwtable writeonly
define hidden void @_ZN5blink5mojom5blink20WebBluetoothDeviceIdC2Ev(%"class.blink::mojom::blink::WebBluetoothDeviceId"* nocapture) unnamed_addr #3 align 2 {
  %2 = getelementptr inbounds %"class.blink::mojom::blink::WebBluetoothDeviceId", %"class.blink::mojom::blink::WebBluetoothDeviceId"* %0, i64 0, i32 0, i32 0, i32 0
  store %"class.WTF::StringImpl"* null, %"class.WTF::StringImpl"** %2, align 8
  ret void
}

; Function Attrs: nounwind ssp uwtable
define hidden void @_ZN5blink5mojom5blink20WebBluetoothDeviceIdC2ERKN3WTF6StringE(%"class.blink::mojom::blink::WebBluetoothDeviceId"* nocapture, %"class.WTF::String"* nocapture readonly dereferenceable(8)) unnamed_addr #0 align 2 {
  %3 = getelementptr inbounds %"class.WTF::String", %"class.WTF::String"* %1, i64 0, i32 0, i32 0
  %4 = load %"class.WTF::StringImpl"*, %"class.WTF::StringImpl"** %3, align 8
  %5 = getelementptr inbounds %"class.blink::mojom::blink::WebBluetoothDeviceId", %"class.blink::mojom::blink::WebBluetoothDeviceId"* %0, i64 0, i32 0, i32 0, i32 0
  store %"class.WTF::StringImpl"* %4, %"class.WTF::StringImpl"** %5, align 8
  %6 = icmp eq %"class.WTF::StringImpl"* %4, null
  br i1 %6, label %24, label %7

7:                                                ; preds = %2
  %8 = getelementptr inbounds %"class.WTF::StringImpl", %"class.WTF::StringImpl"* %4, i64 0, i32 2, i32 0, i32 0, i32 0, i32 0, i32 0
  %9 = load atomic i32, i32* %8 monotonic, align 4
  %10 = and i32 %9, 2
  %11 = icmp eq i32 %10, 0
  br i1 %11, label %12, label %24

12:                                               ; preds = %7
  %13 = getelementptr inbounds %"class.WTF::StringImpl", %"class.WTF::StringImpl"* %4, i64 0, i32 0
  %14 = load i32, i32* %13, align 4
  %15 = zext i32 %14 to i33
  %16 = tail call { i33, i1 } @llvm.sadd.with.overflow.i33(i33 %15, i33 1) #12
  %17 = extractvalue { i33, i1 } %16, 1
  %18 = extractvalue { i33, i1 } %16, 0
  %19 = icmp slt i33 %18, 0
  %20 = or i1 %17, %19
  br i1 %20, label %21, label %22, !prof !3

21:                                               ; preds = %12
  tail call void @llvm.trap() #12
  unreachable

22:                                               ; preds = %12
  %23 = trunc i33 %18 to i32
  store i32 %23, i32* %13, align 4
  br label %24

24:                                               ; preds = %2, %7, %22
  ret void
}

; Function Attrs: nounwind ssp uwtable
define hidden void @_ZN5blink5mojom5blink20WebBluetoothDeviceIdD2Ev(%"class.blink::mojom::blink::WebBluetoothDeviceId"* nocapture readonly) unnamed_addr #0 align 2 {
  %2 = getelementptr inbounds %"class.blink::mojom::blink::WebBluetoothDeviceId", %"class.blink::mojom::blink::WebBluetoothDeviceId"* %0, i64 0, i32 0, i32 0, i32 0
  %3 = load %"class.WTF::StringImpl"*, %"class.WTF::StringImpl"** %2, align 8
  %4 = icmp eq %"class.WTF::StringImpl"* %3, null
  br i1 %4, label %18, label %5

5:                                                ; preds = %1
  %6 = getelementptr inbounds %"class.WTF::StringImpl", %"class.WTF::StringImpl"* %3, i64 0, i32 2, i32 0, i32 0, i32 0, i32 0, i32 0
  %7 = load atomic i32, i32* %6 monotonic, align 4
  %8 = and i32 %7, 2
  %9 = icmp eq i32 %8, 0
  %10 = getelementptr inbounds %"class.WTF::StringImpl", %"class.WTF::StringImpl"* %3, i64 0, i32 0
  %11 = load i32, i32* %10, align 4
  br i1 %9, label %12, label %14

12:                                               ; preds = %5
  %13 = add i32 %11, -1
  store i32 %13, i32* %10, align 4
  br label %14

14:                                               ; preds = %12, %5
  %15 = phi i32 [ %13, %12 ], [ %11, %5 ]
  %16 = icmp eq i32 %15, 0
  br i1 %16, label %17, label %18

17:                                               ; preds = %14
  tail call void @_ZNK3WTF10StringImpl18DestroyIfNotStaticEv(%"class.WTF::StringImpl"* nonnull %3) #12
  br label %18

18:                                               ; preds = %1, %14, %17
  ret void
}

; Function Attrs: nounwind ssp uwtable
define hidden void @_ZNK5blink5mojom5blink20WebBluetoothDeviceId14WriteIntoTraceEN8perfetto11TracedValueE(%"class.blink::mojom::blink::WebBluetoothDeviceId"*, %"class.perfetto::TracedValue"*) local_unnamed_addr #0 align 2 {
  %3 = alloca %"class.perfetto::TracedValue", align 8
  %4 = alloca %"class.perfetto::TracedDictionary", align 8
  %5 = alloca %"class.perfetto::TracedValue", align 8
  %6 = bitcast %"class.perfetto::TracedDictionary"* %4 to i8*
  call void @llvm.lifetime.start.p0i8(i64 16, i8* nonnull %6) #12
  %7 = bitcast %"class.perfetto::TracedDictionary"* %4 to i8*
  call void @llvm.memset.p0i8.i64(i8* nonnull align 8 %7, i8 -86, i64 16, i1 false)
  call void @_ZNO8perfetto11TracedValue15WriteDictionaryEv(%"class.perfetto::TracedDictionary"* nonnull sret %4, %"class.perfetto::TracedValue"* %1) #12
  call void @_ZN8perfetto16TracedDictionary7AddItemENS_12StaticStringE(%"class.perfetto::TracedValue"* nonnull sret %5, %"class.perfetto::TracedDictionary"* nonnull %4, i8* getelementptr inbounds ([10 x i8], [10 x i8]* @.str.14, i64 0, i64 0)) #12
  %8 = getelementptr inbounds %"class.blink::mojom::blink::WebBluetoothDeviceId", %"class.blink::mojom::blink::WebBluetoothDeviceId"* %0, i64 0, i32 0
  %9 = bitcast %"class.perfetto::TracedValue"* %5 to i8*
  %10 = bitcast %"class.perfetto::TracedValue"* %3 to i8*
  call void @llvm.lifetime.start.p0i8(i64 16, i8* nonnull %10) #12
  call void @llvm.memcpy.p0i8.p0i8.i64(i8* nonnull align 8 %10, i8* nonnull align 8 %9, i64 16, i1 false) #12
  call void @_ZNK3WTF6String14WriteIntoTraceEN8perfetto11TracedValueE(%"class.WTF::String"* %8, %"class.perfetto::TracedValue"* nonnull %3) #12
  call void @llvm.lifetime.end.p0i8(i64 16, i8* nonnull %10) #12
  call void @llvm.lifetime.end.p0i8(i64 16, i8* nonnull %6) #12
  ret void
}

; Function Attrs: nounwind ssp uwtable
define hidden zeroext i1 @_ZN5blink5mojom5blink20WebBluetoothDeviceId8ValidateEPKvPN4mojo8internal17ValidationContextE(i8*, %"class.mojo::internal::ValidationContext"*) local_unnamed_addr #0 align 2 {
  %3 = tail call zeroext i1 @_ZN5blink5mojom8internal25WebBluetoothDeviceId_Data8ValidateEPKvPN4mojo8internal17ValidationContextE(i8* %0, %"class.mojo::internal::ValidationContext"* %1) #12
  ret i1 %3
}

declare zeroext i1 @_ZN5blink5mojom8internal25WebBluetoothDeviceId_Data8ValidateEPKvPN4mojo8internal17ValidationContextE(i8*, %"class.mojo::internal::ValidationContext"*) local_unnamed_addr #2

; Function Attrs: nofree norecurse nounwind ssp uwtable writeonly
define hidden void @_ZN5blink5mojom5blink18WebBluetoothDeviceC2Ev(%"class.blink::mojom::blink::WebBluetoothDevice"* nocapture) unnamed_addr #3 align 2 {
  %2 = bitcast %"class.blink::mojom::blink::WebBluetoothDevice"* %0 to i8*
  call void @llvm.memset.p0i8.i64(i8* align 8 %2, i8 0, i64 16, i1 false)
  ret void
}

; Function Attrs: nounwind ssp uwtable
define hidden void @_ZN5blink5mojom5blink18WebBluetoothDeviceC2ERKN3WTF6StringES6_(%"class.blink::mojom::blink::WebBluetoothDevice"* nocapture, %"class.WTF::String"* nocapture readonly dereferenceable(8), %"class.WTF::String"* nocapture readonly dereferenceable(8)) unnamed_addr #0 align 2 {
  %4 = getelementptr inbounds %"class.WTF::String", %"class.WTF::String"* %1, i64 0, i32 0, i32 0
  %5 = load %"class.WTF::StringImpl"*, %"class.WTF::StringImpl"** %4, align 8
  %6 = getelementptr inbounds %"class.blink::mojom::blink::WebBluetoothDevice", %"class.blink::mojom::blink::WebBluetoothDevice"* %0, i64 0, i32 0, i32 0, i32 0
  store %"class.WTF::StringImpl"* %5, %"class.WTF::StringImpl"** %6, align 8
  %7 = icmp eq %"class.WTF::StringImpl"* %5, null
  br i1 %7, label %25, label %8

8:                                                ; preds = %3
  %9 = getelementptr inbounds %"class.WTF::StringImpl", %"class.WTF::StringImpl"* %5, i64 0, i32 2, i32 0, i32 0, i32 0, i32 0, i32 0
  %10 = load atomic i32, i32* %9 monotonic, align 4
  %11 = and i32 %10, 2
  %12 = icmp eq i32 %11, 0
  br i1 %12, label %13, label %25

13:                                               ; preds = %8
  %14 = getelementptr inbounds %"class.WTF::StringImpl", %"class.WTF::StringImpl"* %5, i64 0, i32 0
  %15 = load i32, i32* %14, align 4
  %16 = zext i32 %15 to i33
  %17 = tail call { i33, i1 } @llvm.sadd.with.overflow.i33(i33 %16, i33 1) #12
  %18 = extractvalue { i33, i1 } %17, 1
  %19 = extractvalue { i33, i1 } %17, 0
  %20 = icmp slt i33 %19, 0
  %21 = or i1 %18, %20
  br i1 %21, label %22, label %23, !prof !3

22:                                               ; preds = %13
  tail call void @llvm.trap() #12
  unreachable

23:                                               ; preds = %13
  %24 = trunc i33 %19 to i32
  store i32 %24, i32* %14, align 4
  br label %25

25:                                               ; preds = %3, %8, %23
  %26 = getelementptr inbounds %"class.WTF::String", %"class.WTF::String"* %2, i64 0, i32 0, i32 0
  %27 = load %"class.WTF::StringImpl"*, %"class.WTF::StringImpl"** %26, align 8
  %28 = getelementptr inbounds %"class.blink::mojom::blink::WebBluetoothDevice", %"class.blink::mojom::blink::WebBluetoothDevice"* %0, i64 0, i32 1, i32 0, i32 0
  store %"class.WTF::StringImpl"* %27, %"class.WTF::StringImpl"** %28, align 8
  %29 = icmp eq %"class.WTF::StringImpl"* %27, null
  br i1 %29, label %47, label %30

30:                                               ; preds = %25
  %31 = getelementptr inbounds %"class.WTF::StringImpl", %"class.WTF::StringImpl"* %27, i64 0, i32 2, i32 0, i32 0, i32 0, i32 0, i32 0
  %32 = load atomic i32, i32* %31 monotonic, align 4
  %33 = and i32 %32, 2
  %34 = icmp eq i32 %33, 0
  br i1 %34, label %35, label %47

35:                                               ; preds = %30
  %36 = getelementptr inbounds %"class.WTF::StringImpl", %"class.WTF::StringImpl"* %27, i64 0, i32 0
  %37 = load i32, i32* %36, align 4
  %38 = zext i32 %37 to i33
  %39 = tail call { i33, i1 } @llvm.sadd.with.overflow.i33(i33 %38, i33 1) #12
  %40 = extractvalue { i33, i1 } %39, 1
  %41 = extractvalue { i33, i1 } %39, 0
  %42 = icmp slt i33 %41, 0
  %43 = or i1 %40, %42
  br i1 %43, label %44, label %45, !prof !3

44:                                               ; preds = %35
  tail call void @llvm.trap() #12
  unreachable

45:                                               ; preds = %35
  %46 = trunc i33 %41 to i32
  store i32 %46, i32* %36, align 4
  br label %47

47:                                               ; preds = %25, %30, %45
  ret void
}

; Function Attrs: nounwind ssp uwtable
define hidden void @_ZN5blink5mojom5blink18WebBluetoothDeviceD2Ev(%"class.blink::mojom::blink::WebBluetoothDevice"* nocapture readonly) unnamed_addr #0 align 2 {
  %2 = getelementptr inbounds %"class.blink::mojom::blink::WebBluetoothDevice", %"class.blink::mojom::blink::WebBluetoothDevice"* %0, i64 0, i32 1, i32 0, i32 0
  %3 = load %"class.WTF::StringImpl"*, %"class.WTF::StringImpl"** %2, align 8
  %4 = icmp eq %"class.WTF::StringImpl"* %3, null
  br i1 %4, label %18, label %5

5:                                                ; preds = %1
  %6 = getelementptr inbounds %"class.WTF::StringImpl", %"class.WTF::StringImpl"* %3, i64 0, i32 2, i32 0, i32 0, i32 0, i32 0, i32 0
  %7 = load atomic i32, i32* %6 monotonic, align 4
  %8 = and i32 %7, 2
  %9 = icmp eq i32 %8, 0
  %10 = getelementptr inbounds %"class.WTF::StringImpl", %"class.WTF::StringImpl"* %3, i64 0, i32 0
  %11 = load i32, i32* %10, align 4
  br i1 %9, label %12, label %14

12:                                               ; preds = %5
  %13 = add i32 %11, -1
  store i32 %13, i32* %10, align 4
  br label %14

14:                                               ; preds = %12, %5
  %15 = phi i32 [ %13, %12 ], [ %11, %5 ]
  %16 = icmp eq i32 %15, 0
  br i1 %16, label %17, label %18

17:                                               ; preds = %14
  tail call void @_ZNK3WTF10StringImpl18DestroyIfNotStaticEv(%"class.WTF::StringImpl"* nonnull %3) #12
  br label %18

18:                                               ; preds = %1, %14, %17
  %19 = getelementptr inbounds %"class.blink::mojom::blink::WebBluetoothDevice", %"class.blink::mojom::blink::WebBluetoothDevice"* %0, i64 0, i32 0, i32 0, i32 0
  %20 = load %"class.WTF::StringImpl"*, %"class.WTF::StringImpl"** %19, align 8
  %21 = icmp eq %"class.WTF::StringImpl"* %20, null
  br i1 %21, label %35, label %22

22:                                               ; preds = %18
  %23 = getelementptr inbounds %"class.WTF::StringImpl", %"class.WTF::StringImpl"* %20, i64 0, i32 2, i32 0, i32 0, i32 0, i32 0, i32 0
  %24 = load atomic i32, i32* %23 monotonic, align 4
  %25 = and i32 %24, 2
  %26 = icmp eq i32 %25, 0
  %27 = getelementptr inbounds %"class.WTF::StringImpl", %"class.WTF::StringImpl"* %20, i64 0, i32 0
  %28 = load i32, i32* %27, align 4
  br i1 %26, label %29, label %31

29:                                               ; preds = %22
  %30 = add i32 %28, -1
  store i32 %30, i32* %27, align 4
  br label %31

31:                                               ; preds = %29, %22
  %32 = phi i32 [ %30, %29 ], [ %28, %22 ]
  %33 = icmp eq i32 %32, 0
  br i1 %33, label %34, label %35

34:                                               ; preds = %31
  tail call void @_ZNK3WTF10StringImpl18DestroyIfNotStaticEv(%"class.WTF::StringImpl"* nonnull %20) #12
  br label %35

35:                                               ; preds = %18, %31, %34
  ret void
}

; Function Attrs: nounwind ssp uwtable
define hidden void @_ZNK5blink5mojom5blink18WebBluetoothDevice14WriteIntoTraceEN8perfetto11TracedValueE(%"class.blink::mojom::blink::WebBluetoothDevice"*, %"class.perfetto::TracedValue"*) local_unnamed_addr #0 align 2 {
  %3 = alloca %"class.perfetto::TracedValue", align 8
  %4 = alloca %"class.perfetto::TracedValue", align 8
  %5 = alloca %"class.perfetto::TracedDictionary", align 8
  %6 = alloca %"class.perfetto::TracedValue", align 8
  %7 = alloca %"class.perfetto::TracedValue", align 8
  %8 = bitcast %"class.perfetto::TracedDictionary"* %5 to i8*
  call void @llvm.lifetime.start.p0i8(i64 16, i8* nonnull %8) #12
  %9 = bitcast %"class.perfetto::TracedDictionary"* %5 to i8*
  call void @llvm.memset.p0i8.i64(i8* nonnull align 8 %9, i8 -86, i64 16, i1 false)
  call void @_ZNO8perfetto11TracedValue15WriteDictionaryEv(%"class.perfetto::TracedDictionary"* nonnull sret %5, %"class.perfetto::TracedValue"* %1) #12
  call void @_ZN8perfetto16TracedDictionary7AddItemENS_12StaticStringE(%"class.perfetto::TracedValue"* nonnull sret %6, %"class.perfetto::TracedDictionary"* nonnull %5, i8* getelementptr inbounds ([3 x i8], [3 x i8]* @.str.5, i64 0, i64 0)) #12
  %10 = getelementptr inbounds %"class.blink::mojom::blink::WebBluetoothDevice", %"class.blink::mojom::blink::WebBluetoothDevice"* %0, i64 0, i32 0
  %11 = bitcast %"class.perfetto::TracedValue"* %6 to i8*
  %12 = bitcast %"class.perfetto::TracedValue"* %3 to i8*
  call void @llvm.lifetime.start.p0i8(i64 16, i8* nonnull %12) #12
  call void @llvm.memcpy.p0i8.p0i8.i64(i8* nonnull align 8 %12, i8* nonnull align 8 %11, i64 16, i1 false) #12
  call void @_ZNK3WTF6String14WriteIntoTraceEN8perfetto11TracedValueE(%"class.WTF::String"* %10, %"class.perfetto::TracedValue"* nonnull %3) #12
  call void @llvm.lifetime.end.p0i8(i64 16, i8* nonnull %12) #12
  call void @_ZN8perfetto16TracedDictionary7AddItemENS_12StaticStringE(%"class.perfetto::TracedValue"* nonnull sret %7, %"class.perfetto::TracedDictionary"* nonnull %5, i8* getelementptr inbounds ([5 x i8], [5 x i8]* @.str.2, i64 0, i64 0)) #12
  %13 = getelementptr inbounds %"class.blink::mojom::blink::WebBluetoothDevice", %"class.blink::mojom::blink::WebBluetoothDevice"* %0, i64 0, i32 1
  %14 = bitcast %"class.perfetto::TracedValue"* %7 to i8*
  %15 = bitcast %"class.perfetto::TracedValue"* %4 to i8*
  call void @llvm.lifetime.start.p0i8(i64 16, i8* nonnull %15) #12
  call void @llvm.memcpy.p0i8.p0i8.i64(i8* nonnull align 8 %15, i8* nonnull align 8 %14, i64 16, i1 false) #12
  call void @_ZNK3WTF6String14WriteIntoTraceEN8perfetto11TracedValueE(%"class.WTF::String"* %13, %"class.perfetto::TracedValue"* nonnull %4) #12
  call void @llvm.lifetime.end.p0i8(i64 16, i8* nonnull %15) #12
  call void @llvm.lifetime.end.p0i8(i64 16, i8* nonnull %8) #12
  ret void
}

; Function Attrs: nounwind ssp uwtable
define hidden zeroext i1 @_ZN5blink5mojom5blink18WebBluetoothDevice8ValidateEPKvPN4mojo8internal17ValidationContextE(i8*, %"class.mojo::internal::ValidationContext"*) local_unnamed_addr #0 align 2 {
  %3 = tail call zeroext i1 @_ZN5blink5mojom8internal23WebBluetoothDevice_Data8ValidateEPKvPN4mojo8internal17ValidationContextE(i8* %0, %"class.mojo::internal::ValidationContext"* %1) #12
  ret i1 %3
}

declare zeroext i1 @_ZN5blink5mojom8internal23WebBluetoothDevice_Data8ValidateEPKvPN4mojo8internal17ValidationContextE(i8*, %"class.mojo::internal::ValidationContext"*) local_unnamed_addr #2

; Function Attrs: nofree norecurse nounwind ssp uwtable writeonly
define hidden void @_ZN5blink5mojom5blink29WebBluetoothRemoteGATTServiceC2Ev(%"class.blink::mojom::blink::WebBluetoothRemoteGATTService"* nocapture) unnamed_addr #3 align 2 {
  %2 = bitcast %"class.blink::mojom::blink::WebBluetoothRemoteGATTService"* %0 to i8*
  call void @llvm.memset.p0i8.i64(i8* align 8 %2, i8 0, i64 16, i1 false)
  ret void
}

; Function Attrs: nounwind ssp uwtable
define hidden void @_ZN5blink5mojom5blink29WebBluetoothRemoteGATTServiceC2ERKN3WTF6StringES6_(%"class.blink::mojom::blink::WebBluetoothRemoteGATTService"* nocapture, %"class.WTF::String"* nocapture readonly dereferenceable(8), %"class.WTF::String"* nocapture readonly dereferenceable(8)) unnamed_addr #0 align 2 {
  %4 = getelementptr inbounds %"class.WTF::String", %"class.WTF::String"* %1, i64 0, i32 0, i32 0
  %5 = load %"class.WTF::StringImpl"*, %"class.WTF::StringImpl"** %4, align 8
  %6 = getelementptr inbounds %"class.blink::mojom::blink::WebBluetoothRemoteGATTService", %"class.blink::mojom::blink::WebBluetoothRemoteGATTService"* %0, i64 0, i32 0, i32 0, i32 0
  store %"class.WTF::StringImpl"* %5, %"class.WTF::StringImpl"** %6, align 8
  %7 = icmp eq %"class.WTF::StringImpl"* %5, null
  br i1 %7, label %25, label %8

8:                                                ; preds = %3
  %9 = getelementptr inbounds %"class.WTF::StringImpl", %"class.WTF::StringImpl"* %5, i64 0, i32 2, i32 0, i32 0, i32 0, i32 0, i32 0
  %10 = load atomic i32, i32* %9 monotonic, align 4
  %11 = and i32 %10, 2
  %12 = icmp eq i32 %11, 0
  br i1 %12, label %13, label %25

13:                                               ; preds = %8
  %14 = getelementptr inbounds %"class.WTF::StringImpl", %"class.WTF::StringImpl"* %5, i64 0, i32 0
  %15 = load i32, i32* %14, align 4
  %16 = zext i32 %15 to i33
  %17 = tail call { i33, i1 } @llvm.sadd.with.overflow.i33(i33 %16, i33 1) #12
  %18 = extractvalue { i33, i1 } %17, 1
  %19 = extractvalue { i33, i1 } %17, 0
  %20 = icmp slt i33 %19, 0
  %21 = or i1 %18, %20
  br i1 %21, label %22, label %23, !prof !3

22:                                               ; preds = %13
  tail call void @llvm.trap() #12
  unreachable

23:                                               ; preds = %13
  %24 = trunc i33 %19 to i32
  store i32 %24, i32* %14, align 4
  br label %25

25:                                               ; preds = %3, %8, %23
  %26 = getelementptr inbounds %"class.WTF::String", %"class.WTF::String"* %2, i64 0, i32 0, i32 0
  %27 = load %"class.WTF::StringImpl"*, %"class.WTF::StringImpl"** %26, align 8
  %28 = getelementptr inbounds %"class.blink::mojom::blink::WebBluetoothRemoteGATTService", %"class.blink::mojom::blink::WebBluetoothRemoteGATTService"* %0, i64 0, i32 1, i32 0, i32 0
  store %"class.WTF::StringImpl"* %27, %"class.WTF::StringImpl"** %28, align 8
  %29 = icmp eq %"class.WTF::StringImpl"* %27, null
  br i1 %29, label %47, label %30

30:                                               ; preds = %25
  %31 = getelementptr inbounds %"class.WTF::StringImpl", %"class.WTF::StringImpl"* %27, i64 0, i32 2, i32 0, i32 0, i32 0, i32 0, i32 0
  %32 = load atomic i32, i32* %31 monotonic, align 4
  %33 = and i32 %32, 2
  %34 = icmp eq i32 %33, 0
  br i1 %34, label %35, label %47

35:                                               ; preds = %30
  %36 = getelementptr inbounds %"class.WTF::StringImpl", %"class.WTF::StringImpl"* %27, i64 0, i32 0
  %37 = load i32, i32* %36, align 4
  %38 = zext i32 %37 to i33
  %39 = tail call { i33, i1 } @llvm.sadd.with.overflow.i33(i33 %38, i33 1) #12
  %40 = extractvalue { i33, i1 } %39, 1
  %41 = extractvalue { i33, i1 } %39, 0
  %42 = icmp slt i33 %41, 0
  %43 = or i1 %40, %42
  br i1 %43, label %44, label %45, !prof !3

44:                                               ; preds = %35
  tail call void @llvm.trap() #12
  unreachable

45:                                               ; preds = %35
  %46 = trunc i33 %41 to i32
  store i32 %46, i32* %36, align 4
  br label %47

47:                                               ; preds = %25, %30, %45
  ret void
}

; Function Attrs: nounwind ssp uwtable
define hidden void @_ZN5blink5mojom5blink29WebBluetoothRemoteGATTServiceD2Ev(%"class.blink::mojom::blink::WebBluetoothRemoteGATTService"* nocapture readonly) unnamed_addr #0 align 2 {
  %2 = getelementptr inbounds %"class.blink::mojom::blink::WebBluetoothRemoteGATTService", %"class.blink::mojom::blink::WebBluetoothRemoteGATTService"* %0, i64 0, i32 1, i32 0, i32 0
  %3 = load %"class.WTF::StringImpl"*, %"class.WTF::StringImpl"** %2, align 8
  %4 = icmp eq %"class.WTF::StringImpl"* %3, null
  br i1 %4, label %18, label %5

5:                                                ; preds = %1
  %6 = getelementptr inbounds %"class.WTF::StringImpl", %"class.WTF::StringImpl"* %3, i64 0, i32 2, i32 0, i32 0, i32 0, i32 0, i32 0
  %7 = load atomic i32, i32* %6 monotonic, align 4
  %8 = and i32 %7, 2
  %9 = icmp eq i32 %8, 0
  %10 = getelementptr inbounds %"class.WTF::StringImpl", %"class.WTF::StringImpl"* %3, i64 0, i32 0
  %11 = load i32, i32* %10, align 4
  br i1 %9, label %12, label %14

12:                                               ; preds = %5
  %13 = add i32 %11, -1
  store i32 %13, i32* %10, align 4
  br label %14

14:                                               ; preds = %12, %5
  %15 = phi i32 [ %13, %12 ], [ %11, %5 ]
  %16 = icmp eq i32 %15, 0
  br i1 %16, label %17, label %18

17:                                               ; preds = %14
  tail call void @_ZNK3WTF10StringImpl18DestroyIfNotStaticEv(%"class.WTF::StringImpl"* nonnull %3) #12
  br label %18

18:                                               ; preds = %1, %14, %17
  %19 = getelementptr inbounds %"class.blink::mojom::blink::WebBluetoothRemoteGATTService", %"class.blink::mojom::blink::WebBluetoothRemoteGATTService"* %0, i64 0, i32 0, i32 0, i32 0
  %20 = load %"class.WTF::StringImpl"*, %"class.WTF::StringImpl"** %19, align 8
  %21 = icmp eq %"class.WTF::StringImpl"* %20, null
  br i1 %21, label %35, label %22

22:                                               ; preds = %18
  %23 = getelementptr inbounds %"class.WTF::StringImpl", %"class.WTF::StringImpl"* %20, i64 0, i32 2, i32 0, i32 0, i32 0, i32 0, i32 0
  %24 = load atomic i32, i32* %23 monotonic, align 4
  %25 = and i32 %24, 2
  %26 = icmp eq i32 %25, 0
  %27 = getelementptr inbounds %"class.WTF::StringImpl", %"class.WTF::StringImpl"* %20, i64 0, i32 0
  %28 = load i32, i32* %27, align 4
  br i1 %26, label %29, label %31

29:                                               ; preds = %22
  %30 = add i32 %28, -1
  store i32 %30, i32* %27, align 4
  br label %31

31:                                               ; preds = %29, %22
  %32 = phi i32 [ %30, %29 ], [ %28, %22 ]
  %33 = icmp eq i32 %32, 0
  br i1 %33, label %34, label %35

34:                                               ; preds = %31
  tail call void @_ZNK3WTF10StringImpl18DestroyIfNotStaticEv(%"class.WTF::StringImpl"* nonnull %20) #12
  br label %35

35:                                               ; preds = %18, %31, %34
  ret void
}

; Function Attrs: nounwind ssp uwtable
define hidden void @_ZNK5blink5mojom5blink29WebBluetoothRemoteGATTService14WriteIntoTraceEN8perfetto11TracedValueE(%"class.blink::mojom::blink::WebBluetoothRemoteGATTService"*, %"class.perfetto::TracedValue"*) local_unnamed_addr #0 align 2 {
  %3 = alloca %"class.perfetto::TracedValue", align 8
  %4 = alloca %"class.perfetto::TracedValue", align 8
  %5 = alloca %"class.perfetto::TracedDictionary", align 8
  %6 = alloca %"class.perfetto::TracedValue", align 8
  %7 = alloca %"class.perfetto::TracedValue", align 8
  %8 = bitcast %"class.perfetto::TracedDictionary"* %5 to i8*
  call void @llvm.lifetime.start.p0i8(i64 16, i8* nonnull %8) #12
  %9 = bitcast %"class.perfetto::TracedDictionary"* %5 to i8*
  call void @llvm.memset.p0i8.i64(i8* nonnull align 8 %9, i8 -86, i64 16, i1 false)
  call void @_ZNO8perfetto11TracedValue15WriteDictionaryEv(%"class.perfetto::TracedDictionary"* nonnull sret %5, %"class.perfetto::TracedValue"* %1) #12
  call void @_ZN8perfetto16TracedDictionary7AddItemENS_12StaticStringE(%"class.perfetto::TracedValue"* nonnull sret %6, %"class.perfetto::TracedDictionary"* nonnull %5, i8* getelementptr inbounds ([12 x i8], [12 x i8]* @.str.15, i64 0, i64 0)) #12
  %10 = getelementptr inbounds %"class.blink::mojom::blink::WebBluetoothRemoteGATTService", %"class.blink::mojom::blink::WebBluetoothRemoteGATTService"* %0, i64 0, i32 0
  %11 = bitcast %"class.perfetto::TracedValue"* %6 to i8*
  %12 = bitcast %"class.perfetto::TracedValue"* %3 to i8*
  call void @llvm.lifetime.start.p0i8(i64 16, i8* nonnull %12) #12
  call void @llvm.memcpy.p0i8.p0i8.i64(i8* nonnull align 8 %12, i8* nonnull align 8 %11, i64 16, i1 false) #12
  call void @_ZNK3WTF6String14WriteIntoTraceEN8perfetto11TracedValueE(%"class.WTF::String"* %10, %"class.perfetto::TracedValue"* nonnull %3) #12
  call void @llvm.lifetime.end.p0i8(i64 16, i8* nonnull %12) #12
  call void @_ZN8perfetto16TracedDictionary7AddItemENS_12StaticStringE(%"class.perfetto::TracedValue"* nonnull sret %7, %"class.perfetto::TracedDictionary"* nonnull %5, i8* getelementptr inbounds ([5 x i8], [5 x i8]* @.str.16, i64 0, i64 0)) #12
  %13 = getelementptr inbounds %"class.blink::mojom::blink::WebBluetoothRemoteGATTService", %"class.blink::mojom::blink::WebBluetoothRemoteGATTService"* %0, i64 0, i32 1
  %14 = bitcast %"class.perfetto::TracedValue"* %7 to i8*
  %15 = bitcast %"class.perfetto::TracedValue"* %4 to i8*
  call void @llvm.lifetime.start.p0i8(i64 16, i8* nonnull %15) #12
  call void @llvm.memcpy.p0i8.p0i8.i64(i8* nonnull align 8 %15, i8* nonnull align 8 %14, i64 16, i1 false) #12
  call void @_ZNK3WTF6String14WriteIntoTraceEN8perfetto11TracedValueE(%"class.WTF::String"* %13, %"class.perfetto::TracedValue"* nonnull %4) #12
  call void @llvm.lifetime.end.p0i8(i64 16, i8* nonnull %15) #12
  call void @llvm.lifetime.end.p0i8(i64 16, i8* nonnull %8) #12
  ret void
}

; Function Attrs: nounwind ssp uwtable
define hidden zeroext i1 @_ZN5blink5mojom5blink29WebBluetoothRemoteGATTService8ValidateEPKvPN4mojo8internal17ValidationContextE(i8*, %"class.mojo::internal::ValidationContext"*) local_unnamed_addr #0 align 2 {
  %3 = tail call zeroext i1 @_ZN5blink5mojom8internal34WebBluetoothRemoteGATTService_Data8ValidateEPKvPN4mojo8internal17ValidationContextE(i8* %0, %"class.mojo::internal::ValidationContext"* %1) #12
  ret i1 %3
}

declare zeroext i1 @_ZN5blink5mojom8internal34WebBluetoothRemoteGATTService_Data8ValidateEPKvPN4mojo8internal17ValidationContextE(i8*, %"class.mojo::internal::ValidationContext"*) local_unnamed_addr #2

; Function Attrs: nofree norecurse nounwind ssp uwtable writeonly
define hidden void @_ZN5blink5mojom5blink36WebBluetoothRemoteGATTCharacteristicC2Ev(%"class.blink::mojom::blink::WebBluetoothRemoteGATTCharacteristic"* nocapture) unnamed_addr #3 align 2 {
  %2 = bitcast %"class.blink::mojom::blink::WebBluetoothRemoteGATTCharacteristic"* %0 to i8*
  call void @llvm.memset.p0i8.i64(i8* align 8 %2, i8 0, i64 20, i1 false)
  ret void
}

; Function Attrs: nounwind ssp uwtable
define hidden void @_ZN5blink5mojom5blink36WebBluetoothRemoteGATTCharacteristicC2ERKN3WTF6StringES6_j(%"class.blink::mojom::blink::WebBluetoothRemoteGATTCharacteristic"* nocapture, %"class.WTF::String"* nocapture readonly dereferenceable(8), %"class.WTF::String"* nocapture readonly dereferenceable(8), i32) unnamed_addr #0 align 2 {
  %5 = getelementptr inbounds %"class.WTF::String", %"class.WTF::String"* %1, i64 0, i32 0, i32 0
  %6 = load %"class.WTF::StringImpl"*, %"class.WTF::StringImpl"** %5, align 8
  %7 = getelementptr inbounds %"class.blink::mojom::blink::WebBluetoothRemoteGATTCharacteristic", %"class.blink::mojom::blink::WebBluetoothRemoteGATTCharacteristic"* %0, i64 0, i32 0, i32 0, i32 0
  store %"class.WTF::StringImpl"* %6, %"class.WTF::StringImpl"** %7, align 8
  %8 = icmp eq %"class.WTF::StringImpl"* %6, null
  br i1 %8, label %26, label %9

9:                                                ; preds = %4
  %10 = getelementptr inbounds %"class.WTF::StringImpl", %"class.WTF::StringImpl"* %6, i64 0, i32 2, i32 0, i32 0, i32 0, i32 0, i32 0
  %11 = load atomic i32, i32* %10 monotonic, align 4
  %12 = and i32 %11, 2
  %13 = icmp eq i32 %12, 0
  br i1 %13, label %14, label %26

14:                                               ; preds = %9
  %15 = getelementptr inbounds %"class.WTF::StringImpl", %"class.WTF::StringImpl"* %6, i64 0, i32 0
  %16 = load i32, i32* %15, align 4
  %17 = zext i32 %16 to i33
  %18 = tail call { i33, i1 } @llvm.sadd.with.overflow.i33(i33 %17, i33 1) #12
  %19 = extractvalue { i33, i1 } %18, 1
  %20 = extractvalue { i33, i1 } %18, 0
  %21 = icmp slt i33 %20, 0
  %22 = or i1 %19, %21
  br i1 %22, label %23, label %24, !prof !3

23:                                               ; preds = %14
  tail call void @llvm.trap() #12
  unreachable

24:                                               ; preds = %14
  %25 = trunc i33 %20 to i32
  store i32 %25, i32* %15, align 4
  br label %26

26:                                               ; preds = %4, %9, %24
  %27 = getelementptr inbounds %"class.WTF::String", %"class.WTF::String"* %2, i64 0, i32 0, i32 0
  %28 = load %"class.WTF::StringImpl"*, %"class.WTF::StringImpl"** %27, align 8
  %29 = getelementptr inbounds %"class.blink::mojom::blink::WebBluetoothRemoteGATTCharacteristic", %"class.blink::mojom::blink::WebBluetoothRemoteGATTCharacteristic"* %0, i64 0, i32 1, i32 0, i32 0
  store %"class.WTF::StringImpl"* %28, %"class.WTF::StringImpl"** %29, align 8
  %30 = icmp eq %"class.WTF::StringImpl"* %28, null
  br i1 %30, label %48, label %31

31:                                               ; preds = %26
  %32 = getelementptr inbounds %"class.WTF::StringImpl", %"class.WTF::StringImpl"* %28, i64 0, i32 2, i32 0, i32 0, i32 0, i32 0, i32 0
  %33 = load atomic i32, i32* %32 monotonic, align 4
  %34 = and i32 %33, 2
  %35 = icmp eq i32 %34, 0
  br i1 %35, label %36, label %48

36:                                               ; preds = %31
  %37 = getelementptr inbounds %"class.WTF::StringImpl", %"class.WTF::StringImpl"* %28, i64 0, i32 0
  %38 = load i32, i32* %37, align 4
  %39 = zext i32 %38 to i33
  %40 = tail call { i33, i1 } @llvm.sadd.with.overflow.i33(i33 %39, i33 1) #12
  %41 = extractvalue { i33, i1 } %40, 1
  %42 = extractvalue { i33, i1 } %40, 0
  %43 = icmp slt i33 %42, 0
  %44 = or i1 %41, %43
  br i1 %44, label %45, label %46, !prof !3

45:                                               ; preds = %36
  tail call void @llvm.trap() #12
  unreachable

46:                                               ; preds = %36
  %47 = trunc i33 %42 to i32
  store i32 %47, i32* %37, align 4
  br label %48

48:                                               ; preds = %26, %31, %46
  %49 = getelementptr inbounds %"class.blink::mojom::blink::WebBluetoothRemoteGATTCharacteristic", %"class.blink::mojom::blink::WebBluetoothRemoteGATTCharacteristic"* %0, i64 0, i32 2
  store i32 %3, i32* %49, align 8
  ret void
}

; Function Attrs: nounwind ssp uwtable
define hidden void @_ZN5blink5mojom5blink36WebBluetoothRemoteGATTCharacteristicD2Ev(%"class.blink::mojom::blink::WebBluetoothRemoteGATTCharacteristic"* nocapture readonly) unnamed_addr #0 align 2 {
  %2 = getelementptr inbounds %"class.blink::mojom::blink::WebBluetoothRemoteGATTCharacteristic", %"class.blink::mojom::blink::WebBluetoothRemoteGATTCharacteristic"* %0, i64 0, i32 1, i32 0, i32 0
  %3 = load %"class.WTF::StringImpl"*, %"class.WTF::StringImpl"** %2, align 8
  %4 = icmp eq %"class.WTF::StringImpl"* %3, null
  br i1 %4, label %18, label %5

5:                                                ; preds = %1
  %6 = getelementptr inbounds %"class.WTF::StringImpl", %"class.WTF::StringImpl"* %3, i64 0, i32 2, i32 0, i32 0, i32 0, i32 0, i32 0
  %7 = load atomic i32, i32* %6 monotonic, align 4
  %8 = and i32 %7, 2
  %9 = icmp eq i32 %8, 0
  %10 = getelementptr inbounds %"class.WTF::StringImpl", %"class.WTF::StringImpl"* %3, i64 0, i32 0
  %11 = load i32, i32* %10, align 4
  br i1 %9, label %12, label %14

12:                                               ; preds = %5
  %13 = add i32 %11, -1
  store i32 %13, i32* %10, align 4
  br label %14

14:                                               ; preds = %12, %5
  %15 = phi i32 [ %13, %12 ], [ %11, %5 ]
  %16 = icmp eq i32 %15, 0
  br i1 %16, label %17, label %18

17:                                               ; preds = %14
  tail call void @_ZNK3WTF10StringImpl18DestroyIfNotStaticEv(%"class.WTF::StringImpl"* nonnull %3) #12
  br label %18

18:                                               ; preds = %1, %14, %17
  %19 = getelementptr inbounds %"class.blink::mojom::blink::WebBluetoothRemoteGATTCharacteristic", %"class.blink::mojom::blink::WebBluetoothRemoteGATTCharacteristic"* %0, i64 0, i32 0, i32 0, i32 0
  %20 = load %"class.WTF::StringImpl"*, %"class.WTF::StringImpl"** %19, align 8
  %21 = icmp eq %"class.WTF::StringImpl"* %20, null
  br i1 %21, label %35, label %22

22:                                               ; preds = %18
  %23 = getelementptr inbounds %"class.WTF::StringImpl", %"class.WTF::StringImpl"* %20, i64 0, i32 2, i32 0, i32 0, i32 0, i32 0, i32 0
  %24 = load atomic i32, i32* %23 monotonic, align 4
  %25 = and i32 %24, 2
  %26 = icmp eq i32 %25, 0
  %27 = getelementptr inbounds %"class.WTF::StringImpl", %"class.WTF::StringImpl"* %20, i64 0, i32 0
  %28 = load i32, i32* %27, align 4
  br i1 %26, label %29, label %31

29:                                               ; preds = %22
  %30 = add i32 %28, -1
  store i32 %30, i32* %27, align 4
  br label %31

31:                                               ; preds = %29, %22
  %32 = phi i32 [ %30, %29 ], [ %28, %22 ]
  %33 = icmp eq i32 %32, 0
  br i1 %33, label %34, label %35

34:                                               ; preds = %31
  tail call void @_ZNK3WTF10StringImpl18DestroyIfNotStaticEv(%"class.WTF::StringImpl"* nonnull %20) #12
  br label %35

35:                                               ; preds = %18, %31, %34
  ret void
}

; Function Attrs: nounwind ssp uwtable
define hidden void @_ZNK5blink5mojom5blink36WebBluetoothRemoteGATTCharacteristic14WriteIntoTraceEN8perfetto11TracedValueE(%"class.blink::mojom::blink::WebBluetoothRemoteGATTCharacteristic"*, %"class.perfetto::TracedValue"*) local_unnamed_addr #0 align 2 {
  %3 = alloca %"class.perfetto::TracedValue", align 8
  %4 = alloca %"class.perfetto::TracedValue", align 8
  %5 = alloca %"class.perfetto::TracedValue", align 8
  %6 = alloca %"class.perfetto::TracedDictionary", align 8
  %7 = alloca %"class.perfetto::TracedValue", align 8
  %8 = alloca %"class.perfetto::TracedValue", align 8
  %9 = alloca %"class.perfetto::TracedValue", align 8
  %10 = bitcast %"class.perfetto::TracedDictionary"* %6 to i8*
  call void @llvm.lifetime.start.p0i8(i64 16, i8* nonnull %10) #12
  %11 = bitcast %"class.perfetto::TracedDictionary"* %6 to i8*
  call void @llvm.memset.p0i8.i64(i8* nonnull align 8 %11, i8 -86, i64 16, i1 false)
  call void @_ZNO8perfetto11TracedValue15WriteDictionaryEv(%"class.perfetto::TracedDictionary"* nonnull sret %6, %"class.perfetto::TracedValue"* %1) #12
  call void @_ZN8perfetto16TracedDictionary7AddItemENS_12StaticStringE(%"class.perfetto::TracedValue"* nonnull sret %7, %"class.perfetto::TracedDictionary"* nonnull %6, i8* getelementptr inbounds ([12 x i8], [12 x i8]* @.str.15, i64 0, i64 0)) #12
  %12 = getelementptr inbounds %"class.blink::mojom::blink::WebBluetoothRemoteGATTCharacteristic", %"class.blink::mojom::blink::WebBluetoothRemoteGATTCharacteristic"* %0, i64 0, i32 0
  %13 = bitcast %"class.perfetto::TracedValue"* %7 to i8*
  %14 = bitcast %"class.perfetto::TracedValue"* %4 to i8*
  call void @llvm.lifetime.start.p0i8(i64 16, i8* nonnull %14) #12
  call void @llvm.memcpy.p0i8.p0i8.i64(i8* nonnull align 8 %14, i8* nonnull align 8 %13, i64 16, i1 false) #12
  call void @_ZNK3WTF6String14WriteIntoTraceEN8perfetto11TracedValueE(%"class.WTF::String"* %12, %"class.perfetto::TracedValue"* nonnull %4) #12
  call void @llvm.lifetime.end.p0i8(i64 16, i8* nonnull %14) #12
  call void @_ZN8perfetto16TracedDictionary7AddItemENS_12StaticStringE(%"class.perfetto::TracedValue"* nonnull sret %8, %"class.perfetto::TracedDictionary"* nonnull %6, i8* getelementptr inbounds ([5 x i8], [5 x i8]* @.str.16, i64 0, i64 0)) #12
  %15 = getelementptr inbounds %"class.blink::mojom::blink::WebBluetoothRemoteGATTCharacteristic", %"class.blink::mojom::blink::WebBluetoothRemoteGATTCharacteristic"* %0, i64 0, i32 1
  %16 = bitcast %"class.perfetto::TracedValue"* %8 to i8*
  %17 = bitcast %"class.perfetto::TracedValue"* %3 to i8*
  call void @llvm.lifetime.start.p0i8(i64 16, i8* nonnull %17) #12
  call void @llvm.memcpy.p0i8.p0i8.i64(i8* nonnull align 8 %17, i8* nonnull align 8 %16, i64 16, i1 false) #12
  call void @_ZNK3WTF6String14WriteIntoTraceEN8perfetto11TracedValueE(%"class.WTF::String"* %15, %"class.perfetto::TracedValue"* nonnull %3) #12
  call void @llvm.lifetime.end.p0i8(i64 16, i8* nonnull %17) #12
  call void @_ZN8perfetto16TracedDictionary7AddItemENS_12StaticStringE(%"class.perfetto::TracedValue"* nonnull sret %9, %"class.perfetto::TracedDictionary"* nonnull %6, i8* getelementptr inbounds ([11 x i8], [11 x i8]* @.str.17, i64 0, i64 0)) #12
  %18 = getelementptr inbounds %"class.blink::mojom::blink::WebBluetoothRemoteGATTCharacteristic", %"class.blink::mojom::blink::WebBluetoothRemoteGATTCharacteristic"* %0, i64 0, i32 2
  %19 = bitcast %"class.perfetto::TracedValue"* %9 to i8*
  %20 = bitcast %"class.perfetto::TracedValue"* %5 to i8*
  call void @llvm.lifetime.start.p0i8(i64 16, i8* nonnull %20) #12
  call void @llvm.memcpy.p0i8.p0i8.i64(i8* nonnull align 8 %20, i8* nonnull align 8 %19, i64 16, i1 false) #12
  %21 = load i32, i32* %18, align 4
  %22 = zext i32 %21 to i64
  call void @_ZNO8perfetto11TracedValue11WriteUInt64Em(%"class.perfetto::TracedValue"* nonnull %5, i64 %22) #12
  call void @llvm.lifetime.end.p0i8(i64 16, i8* nonnull %20) #12
  call void @llvm.lifetime.end.p0i8(i64 16, i8* nonnull %10) #12
  ret void
}

; Function Attrs: nounwind ssp uwtable
define hidden zeroext i1 @_ZN5blink5mojom5blink36WebBluetoothRemoteGATTCharacteristic8ValidateEPKvPN4mojo8internal17ValidationContextE(i8*, %"class.mojo::internal::ValidationContext"*) local_unnamed_addr #0 align 2 {
  %3 = tail call zeroext i1 @_ZN5blink5mojom8internal41WebBluetoothRemoteGATTCharacteristic_Data8ValidateEPKvPN4mojo8internal17ValidationContextE(i8* %0, %"class.mojo::internal::ValidationContext"* %1) #12
  ret i1 %3
}

declare zeroext i1 @_ZN5blink5mojom8internal41WebBluetoothRemoteGATTCharacteristic_Data8ValidateEPKvPN4mojo8internal17ValidationContextE(i8*, %"class.mojo::internal::ValidationContext"*) local_unnamed_addr #2

; Function Attrs: nounwind ssp uwtable
define hidden void @_ZN5blink5mojom5blink28WebBluetoothAdvertisingEventC2Ev(%"class.blink::mojom::blink::WebBluetoothAdvertisingEvent"* nocapture) unnamed_addr #0 align 2 {
  %2 = getelementptr inbounds %"class.blink::mojom::blink::WebBluetoothAdvertisingEvent", %"class.blink::mojom::blink::WebBluetoothAdvertisingEvent"* %0, i64 0, i32 4
  %3 = getelementptr inbounds %"class.blink::mojom::blink::WebBluetoothAdvertisingEvent", %"class.blink::mojom::blink::WebBluetoothAdvertisingEvent"* %0, i64 0, i32 10
  %4 = bitcast %"class.WTF::HashMap.80"* %3 to i8*
  tail call void @llvm.memset.p0i8.i64(i8* align 8 %4, i8 0, i64 20, i1 false) #12
  %5 = bitcast %"class.blink::mojom::blink::WebBluetoothAdvertisingEvent"* %0 to i8*
  call void @llvm.memset.p0i8.i64(i8* align 8 %5, i8 0, i64 33, i1 false)
  %6 = bitcast i16* %2 to i8*
  call void @llvm.memset.p0i8.i64(i8* align 2 %6, i8 0, i64 26, i1 false)
  ret void
}

; Function Attrs: nounwind ssp uwtable
define hidden void @_ZN5blink5mojom5blink28WebBluetoothAdvertisingEventC2EN4mojo9StructPtrINS1_18WebBluetoothDeviceEEERKN3WTF6StringENS7_6VectorIS8_Lj0ENS7_18PartitionAllocatorEEEbtbhbhRKNS7_7HashMapItNSB_IhLj0ESC_EENS7_7IntHashItEENS7_10HashTraitsItEENSI_ISF_EESC_EERKNSE_IS8_SF_NS7_10StringHashENSI_IS8_EESK_SC_EE(%"class.blink::mojom::blink::WebBluetoothAdvertisingEvent"*, %"class.mojo::StructPtr.63"*, %"class.WTF::String"* nocapture readonly dereferenceable(8), %"class.WTF::Vector"* nocapture, i1 zeroext, i16 zeroext, i1 zeroext, i8 zeroext, i1 zeroext, i8 zeroext, %"class.WTF::HashMap.70"* nocapture readonly dereferenceable(24), %"class.WTF::HashMap.80"* nocapture readonly dereferenceable(24)) unnamed_addr #0 align 2 {
  %13 = zext i1 %4 to i8
  %14 = zext i1 %6 to i8
  %15 = zext i1 %8 to i8
  %16 = getelementptr inbounds %"class.blink::mojom::blink::WebBluetoothAdvertisingEvent", %"class.blink::mojom::blink::WebBluetoothAdvertisingEvent"* %0, i64 0, i32 0
  %17 = bitcast %"class.blink::mojom::blink::WebBluetoothAdvertisingEvent"* %0 to i64*
  store i64 0, i64* %17, align 8
  tail call void @_ZN4mojo9StructPtrIN5blink5mojom5blink18WebBluetoothDeviceEE4TakeEPS5_(%"class.mojo::StructPtr.63"* %16, %"class.mojo::StructPtr.63"* %1) #12
  %18 = getelementptr inbounds %"class.WTF::String", %"class.WTF::String"* %2, i64 0, i32 0, i32 0
  %19 = load %"class.WTF::StringImpl"*, %"class.WTF::StringImpl"** %18, align 8
  %20 = getelementptr inbounds %"class.blink::mojom::blink::WebBluetoothAdvertisingEvent", %"class.blink::mojom::blink::WebBluetoothAdvertisingEvent"* %0, i64 0, i32 1, i32 0, i32 0
  store %"class.WTF::StringImpl"* %19, %"class.WTF::StringImpl"** %20, align 8
  %21 = icmp eq %"class.WTF::StringImpl"* %19, null
  br i1 %21, label %39, label %22

22:                                               ; preds = %12
  %23 = getelementptr inbounds %"class.WTF::StringImpl", %"class.WTF::StringImpl"* %19, i64 0, i32 2, i32 0, i32 0, i32 0, i32 0, i32 0
  %24 = load atomic i32, i32* %23 monotonic, align 4
  %25 = and i32 %24, 2
  %26 = icmp eq i32 %25, 0
  br i1 %26, label %27, label %39

27:                                               ; preds = %22
  %28 = getelementptr inbounds %"class.WTF::StringImpl", %"class.WTF::StringImpl"* %19, i64 0, i32 0
  %29 = load i32, i32* %28, align 4
  %30 = zext i32 %29 to i33
  %31 = tail call { i33, i1 } @llvm.sadd.with.overflow.i33(i33 %30, i33 1) #12
  %32 = extractvalue { i33, i1 } %31, 1
  %33 = extractvalue { i33, i1 } %31, 0
  %34 = icmp slt i33 %33, 0
  %35 = or i1 %32, %34
  br i1 %35, label %36, label %37, !prof !3

36:                                               ; preds = %27
  tail call void @llvm.trap() #12
  unreachable

37:                                               ; preds = %27
  %38 = trunc i33 %33 to i32
  store i32 %38, i32* %28, align 4
  br label %39

39:                                               ; preds = %12, %22, %37
  %40 = getelementptr inbounds %"class.blink::mojom::blink::WebBluetoothAdvertisingEvent", %"class.blink::mojom::blink::WebBluetoothAdvertisingEvent"* %0, i64 0, i32 2
  %41 = getelementptr inbounds %"class.blink::mojom::blink::WebBluetoothAdvertisingEvent", %"class.blink::mojom::blink::WebBluetoothAdvertisingEvent"* %0, i64 0, i32 2, i32 0, i32 0, i32 1
  %42 = getelementptr inbounds %"class.blink::mojom::blink::WebBluetoothAdvertisingEvent", %"class.blink::mojom::blink::WebBluetoothAdvertisingEvent"* %0, i64 0, i32 2, i32 0, i32 0, i32 2
  %43 = bitcast %"class.WTF::Vector"* %3 to i64*
  %44 = bitcast %"class.WTF::Vector"* %40 to i8*
  tail call void @llvm.memset.p0i8.i64(i8* align 8 %44, i8 0, i64 16, i1 false) #12
  %45 = load i64, i64* %43, align 8
  %46 = bitcast %"class.WTF::Vector"* %40 to i64*
  store atomic i64 0, i64* %43 monotonic, align 8
  store atomic i64 %45, i64* %46 monotonic, align 8
  %47 = getelementptr inbounds %"class.WTF::Vector", %"class.WTF::Vector"* %3, i64 0, i32 0, i32 0, i32 1
  %48 = load i32, i32* %41, align 4
  %49 = load i32, i32* %47, align 4
  store i32 %49, i32* %41, align 4
  store i32 %48, i32* %47, align 4
  %50 = getelementptr inbounds %"class.WTF::Vector", %"class.WTF::Vector"* %3, i64 0, i32 0, i32 0, i32 2
  %51 = load i32, i32* %42, align 4
  %52 = load i32, i32* %50, align 4
  store i32 %52, i32* %42, align 4
  store i32 %51, i32* %50, align 4
  %53 = getelementptr inbounds %"class.blink::mojom::blink::WebBluetoothAdvertisingEvent", %"class.blink::mojom::blink::WebBluetoothAdvertisingEvent"* %0, i64 0, i32 3
  store i8 %13, i8* %53, align 8
  %54 = getelementptr inbounds %"class.blink::mojom::blink::WebBluetoothAdvertisingEvent", %"class.blink::mojom::blink::WebBluetoothAdvertisingEvent"* %0, i64 0, i32 4
  store i16 %5, i16* %54, align 2
  %55 = getelementptr inbounds %"class.blink::mojom::blink::WebBluetoothAdvertisingEvent", %"class.blink::mojom::blink::WebBluetoothAdvertisingEvent"* %0, i64 0, i32 5
  store i8 %14, i8* %55, align 4
  %56 = getelementptr inbounds %"class.blink::mojom::blink::WebBluetoothAdvertisingEvent", %"class.blink::mojom::blink::WebBluetoothAdvertisingEvent"* %0, i64 0, i32 6
  store i8 %7, i8* %56, align 1
  %57 = getelementptr inbounds %"class.blink::mojom::blink::WebBluetoothAdvertisingEvent", %"class.blink::mojom::blink::WebBluetoothAdvertisingEvent"* %0, i64 0, i32 7
  store i8 %15, i8* %57, align 2
  %58 = getelementptr inbounds %"class.blink::mojom::blink::WebBluetoothAdvertisingEvent", %"class.blink::mojom::blink::WebBluetoothAdvertisingEvent"* %0, i64 0, i32 8
  store i8 %9, i8* %58, align 1
  %59 = getelementptr inbounds %"class.blink::mojom::blink::WebBluetoothAdvertisingEvent", %"class.blink::mojom::blink::WebBluetoothAdvertisingEvent"* %0, i64 0, i32 9
  %60 = getelementptr inbounds %"class.WTF::HashMap.70", %"class.WTF::HashMap.70"* %59, i64 0, i32 0
  %61 = getelementptr inbounds %"class.WTF::HashMap.70", %"class.WTF::HashMap.70"* %10, i64 0, i32 0, i32 2
  %62 = bitcast %"class.WTF::HashMap.70"* %59 to i8*
  tail call void @llvm.memset.p0i8.i64(i8* align 8 %62, i8 0, i64 20, i1 false) #12
  %63 = load i32, i32* %61, align 4
  %64 = icmp eq i32 %63, 0
  br i1 %64, label %105, label %65

65:                                               ; preds = %39
  tail call void @_ZN3WTF9HashTableItNS_12KeyValuePairItNS_6VectorIhLj0ENS_18PartitionAllocatorEEEEENS_24KeyValuePairKeyExtractorENS_7IntHashItEENS_18HashMapValueTraitsINS_10HashTraitsItEENSA_IS4_EEEESB_S3_E22ReserveCapacityForSizeEj(%"class.WTF::HashTable.71"* %60, i32 %63) #12
  %66 = load i32, i32* %61, align 4
  %67 = icmp eq i32 %66, 0
  %68 = getelementptr inbounds %"class.WTF::HashMap.70", %"class.WTF::HashMap.70"* %10, i64 0, i32 0, i32 0
  %69 = load %"struct.WTF::KeyValuePair.74"*, %"struct.WTF::KeyValuePair.74"** %68, align 8
  %70 = getelementptr inbounds %"class.WTF::HashMap.70", %"class.WTF::HashMap.70"* %10, i64 0, i32 0, i32 1
  %71 = load i32, i32* %70, align 8
  %72 = zext i32 %71 to i64
  %73 = getelementptr inbounds %"struct.WTF::KeyValuePair.74", %"struct.WTF::KeyValuePair.74"* %69, i64 %72
  br i1 %67, label %105, label %74

74:                                               ; preds = %65
  %75 = icmp eq i32 %71, 0
  br i1 %75, label %85, label %76

76:                                               ; preds = %74, %82
  %77 = phi %"struct.WTF::KeyValuePair.74"* [ %83, %82 ], [ %69, %74 ]
  %78 = getelementptr inbounds %"struct.WTF::KeyValuePair.74", %"struct.WTF::KeyValuePair.74"* %77, i64 0, i32 0
  %79 = load i16, i16* %78, align 2
  %80 = add i16 %79, 1
  %81 = icmp ult i16 %80, 2
  br i1 %81, label %82, label %85

82:                                               ; preds = %76
  %83 = getelementptr inbounds %"struct.WTF::KeyValuePair.74", %"struct.WTF::KeyValuePair.74"* %77, i64 1
  %84 = icmp eq %"struct.WTF::KeyValuePair.74"* %83, %73
  br i1 %84, label %105, label %76

85:                                               ; preds = %76, %74
  %86 = phi %"struct.WTF::KeyValuePair.74"* [ %69, %74 ], [ %77, %76 ]
  %87 = icmp eq %"struct.WTF::KeyValuePair.74"* %86, %73
  br i1 %87, label %105, label %88

88:                                               ; preds = %85, %103
  %89 = phi %"struct.WTF::KeyValuePair.74"* [ %95, %103 ], [ %86, %85 ]
  %90 = getelementptr inbounds %"struct.WTF::KeyValuePair.74", %"struct.WTF::KeyValuePair.74"* %89, i64 0, i32 0
  %91 = tail call { %"struct.WTF::KeyValuePair.74"*, i8 } @_ZN3WTF9HashTableItNS_12KeyValuePairItNS_6VectorIhLj0ENS_18PartitionAllocatorEEEEENS_24KeyValuePairKeyExtractorENS_7IntHashItEENS_18HashMapValueTraitsINS_10HashTraitsItEENSA_IS4_EEEESB_S3_E6insertINS_22IdentityHashTranslatorIS8_SD_S3_EERKtRKS5_EENS_18HashTableAddResultISE_S5_EEOT0_OT1_(%"class.WTF::HashTable.71"* %60, i16* dereferenceable(2) %90, %"struct.WTF::KeyValuePair.74"* dereferenceable(24) %89) #12
  %92 = getelementptr inbounds %"struct.WTF::KeyValuePair.74", %"struct.WTF::KeyValuePair.74"* %89, i64 1
  %93 = icmp eq %"struct.WTF::KeyValuePair.74"* %92, %73
  br i1 %93, label %105, label %94

94:                                               ; preds = %88, %100
  %95 = phi %"struct.WTF::KeyValuePair.74"* [ %101, %100 ], [ %92, %88 ]
  %96 = getelementptr inbounds %"struct.WTF::KeyValuePair.74", %"struct.WTF::KeyValuePair.74"* %95, i64 0, i32 0
  %97 = load i16, i16* %96, align 2
  %98 = add i16 %97, 1
  %99 = icmp ult i16 %98, 2
  br i1 %99, label %100, label %103

100:                                              ; preds = %94
  %101 = getelementptr inbounds %"struct.WTF::KeyValuePair.74", %"struct.WTF::KeyValuePair.74"* %95, i64 1
  %102 = icmp eq %"struct.WTF::KeyValuePair.74"* %101, %73
  br i1 %102, label %105, label %94

103:                                              ; preds = %94
  %104 = icmp eq %"struct.WTF::KeyValuePair.74"* %95, %73
  br i1 %104, label %105, label %88

105:                                              ; preds = %82, %88, %103, %100, %39, %65, %85
  %106 = getelementptr inbounds %"class.blink::mojom::blink::WebBluetoothAdvertisingEvent", %"class.blink::mojom::blink::WebBluetoothAdvertisingEvent"* %0, i64 0, i32 10
  %107 = getelementptr inbounds %"class.WTF::HashMap.80", %"class.WTF::HashMap.80"* %106, i64 0, i32 0
  %108 = getelementptr inbounds %"class.WTF::HashMap.80", %"class.WTF::HashMap.80"* %11, i64 0, i32 0, i32 2
  %109 = bitcast %"class.WTF::HashMap.80"* %106 to i8*
  tail call void @llvm.memset.p0i8.i64(i8* align 8 %109, i8 0, i64 20, i1 false) #12
  %110 = load i32, i32* %108, align 4
  %111 = icmp eq i32 %110, 0
  br i1 %111, label %148, label %112

112:                                              ; preds = %105
  tail call void @_ZN3WTF9HashTableINS_6StringENS_12KeyValuePairIS1_NS_6VectorIhLj0ENS_18PartitionAllocatorEEEEENS_24KeyValuePairKeyExtractorENS_10StringHashENS_18HashMapValueTraitsINS_10HashTraitsIS1_EENSA_IS5_EEEESB_S4_E22ReserveCapacityForSizeEj(%"class.WTF::HashTable.81"* %107, i32 %110) #12
  %113 = load i32, i32* %108, align 4
  %114 = icmp eq i32 %113, 0
  %115 = getelementptr inbounds %"class.WTF::HashMap.80", %"class.WTF::HashMap.80"* %11, i64 0, i32 0, i32 0
  %116 = load %"struct.WTF::KeyValuePair.84"*, %"struct.WTF::KeyValuePair.84"** %115, align 8
  %117 = getelementptr inbounds %"class.WTF::HashMap.80", %"class.WTF::HashMap.80"* %11, i64 0, i32 0, i32 1
  %118 = load i32, i32* %117, align 8
  %119 = zext i32 %118 to i64
  %120 = getelementptr inbounds %"struct.WTF::KeyValuePair.84", %"struct.WTF::KeyValuePair.84"* %116, i64 %119
  br i1 %114, label %148, label %121

121:                                              ; preds = %112
  %122 = icmp eq i32 %118, 0
  br i1 %122, label %130, label %123

123:                                              ; preds = %121, %127
  %124 = phi %"struct.WTF::KeyValuePair.84"* [ %128, %127 ], [ %116, %121 ]
  %125 = bitcast %"struct.WTF::KeyValuePair.84"* %124 to i64*
  %126 = load i64, i64* %125, align 8
  switch i64 %126, label %130 [
    i64 -1, label %127
    i64 0, label %127
  ]

127:                                              ; preds = %123, %123
  %128 = getelementptr inbounds %"struct.WTF::KeyValuePair.84", %"struct.WTF::KeyValuePair.84"* %124, i64 1
  %129 = icmp eq %"struct.WTF::KeyValuePair.84"* %128, %120
  br i1 %129, label %148, label %123

130:                                              ; preds = %123, %121
  %131 = phi %"struct.WTF::KeyValuePair.84"* [ %116, %121 ], [ %124, %123 ]
  %132 = icmp eq %"struct.WTF::KeyValuePair.84"* %131, %120
  br i1 %132, label %148, label %133

133:                                              ; preds = %130, %146
  %134 = phi %"struct.WTF::KeyValuePair.84"* [ %140, %146 ], [ %131, %130 ]
  %135 = getelementptr inbounds %"struct.WTF::KeyValuePair.84", %"struct.WTF::KeyValuePair.84"* %134, i64 0, i32 0
  %136 = tail call { %"struct.WTF::KeyValuePair.84"*, i8 } @_ZN3WTF9HashTableINS_6StringENS_12KeyValuePairIS1_NS_6VectorIhLj0ENS_18PartitionAllocatorEEEEENS_24KeyValuePairKeyExtractorENS_10StringHashENS_18HashMapValueTraitsINS_10HashTraitsIS1_EENSA_IS5_EEEESB_S4_E6insertINS_22IdentityHashTranslatorIS8_SD_S4_EERKS1_RKS6_EENS_18HashTableAddResultISE_S6_EEOT0_OT1_(%"class.WTF::HashTable.81"* %107, %"class.WTF::String"* dereferenceable(8) %135, %"struct.WTF::KeyValuePair.84"* dereferenceable(24) %134) #12
  %137 = getelementptr inbounds %"struct.WTF::KeyValuePair.84", %"struct.WTF::KeyValuePair.84"* %134, i64 1
  %138 = icmp eq %"struct.WTF::KeyValuePair.84"* %137, %120
  br i1 %138, label %148, label %139

139:                                              ; preds = %133, %143
  %140 = phi %"struct.WTF::KeyValuePair.84"* [ %144, %143 ], [ %137, %133 ]
  %141 = bitcast %"struct.WTF::KeyValuePair.84"* %140 to i64*
  %142 = load i64, i64* %141, align 8
  switch i64 %142, label %146 [
    i64 -1, label %143
    i64 0, label %143
  ]

143:                                              ; preds = %139, %139
  %144 = getelementptr inbounds %"struct.WTF::KeyValuePair.84", %"struct.WTF::KeyValuePair.84"* %140, i64 1
  %145 = icmp eq %"struct.WTF::KeyValuePair.84"* %144, %120
  br i1 %145, label %148, label %139

146:                                              ; preds = %139
  %147 = icmp eq %"struct.WTF::KeyValuePair.84"* %140, %120
  br i1 %147, label %148, label %133

148:                                              ; preds = %127, %133, %146, %143, %105, %112, %130
  ret void
}

; Function Attrs: nounwind ssp uwtable
define hidden void @_ZN5blink5mojom5blink28WebBluetoothAdvertisingEventD2Ev(%"class.blink::mojom::blink::WebBluetoothAdvertisingEvent"* nocapture) unnamed_addr #0 align 2 {
  %2 = getelementptr inbounds %"class.blink::mojom::blink::WebBluetoothAdvertisingEvent", %"class.blink::mojom::blink::WebBluetoothAdvertisingEvent"* %0, i64 0, i32 10, i32 0, i32 0
  %3 = load %"struct.WTF::KeyValuePair.84"*, %"struct.WTF::KeyValuePair.84"** %2, align 8
  %4 = icmp eq %"struct.WTF::KeyValuePair.84"* %3, null
  br i1 %4, label %51, label %5, !prof !4

5:                                                ; preds = %1
  %6 = getelementptr inbounds %"class.blink::mojom::blink::WebBluetoothAdvertisingEvent", %"class.blink::mojom::blink::WebBluetoothAdvertisingEvent"* %0, i64 0, i32 10, i32 0, i32 1
  %7 = load i32, i32* %6, align 8
  %8 = icmp eq i32 %7, 0
  br i1 %8, label %49, label %9

9:                                                ; preds = %5
  %10 = zext i32 %7 to i64
  br label %11

11:                                               ; preds = %46, %9
  %12 = phi i64 [ 0, %9 ], [ %47, %46 ]
  %13 = getelementptr inbounds %"struct.WTF::KeyValuePair.84", %"struct.WTF::KeyValuePair.84"* %3, i64 %12
  %14 = bitcast %"struct.WTF::KeyValuePair.84"* %13 to i8**
  %15 = load i8*, i8** %14, align 8
  %16 = icmp eq i8* %15, inttoptr (i64 -1 to i8*)
  br i1 %16, label %46, label %17

17:                                               ; preds = %11
  %18 = bitcast i8* %15 to %"class.WTF::StringImpl"*
  %19 = getelementptr inbounds %"struct.WTF::KeyValuePair.84", %"struct.WTF::KeyValuePair.84"* %3, i64 %12, i32 1, i32 0, i32 0, i32 0
  %20 = load i8*, i8** %19, align 8
  %21 = icmp eq i8* %20, null
  br i1 %21, label %30, label %22, !prof !4

22:                                               ; preds = %17
  %23 = getelementptr inbounds %"struct.WTF::KeyValuePair.84", %"struct.WTF::KeyValuePair.84"* %3, i64 %12, i32 1, i32 0, i32 0, i32 2
  %24 = load i32, i32* %23, align 4
  %25 = icmp eq i32 %24, 0
  br i1 %25, label %27, label %26, !prof !3

26:                                               ; preds = %22
  store i32 0, i32* %23, align 4
  br label %27

27:                                               ; preds = %26, %22
  tail call void @_ZN3WTF18PartitionAllocator11FreeBackingEPv(i8* nonnull %20) #12
  store i8* null, i8** %19, align 8
  %28 = getelementptr inbounds %"struct.WTF::KeyValuePair.84", %"struct.WTF::KeyValuePair.84"* %13, i64 0, i32 0, i32 0, i32 0
  %29 = load %"class.WTF::StringImpl"*, %"class.WTF::StringImpl"** %28, align 8
  br label %30

30:                                               ; preds = %27, %17
  %31 = phi %"class.WTF::StringImpl"* [ %29, %27 ], [ %18, %17 ]
  %32 = icmp eq %"class.WTF::StringImpl"* %31, null
  br i1 %32, label %46, label %33

33:                                               ; preds = %30
  %34 = getelementptr inbounds %"class.WTF::StringImpl", %"class.WTF::StringImpl"* %31, i64 0, i32 2, i32 0, i32 0, i32 0, i32 0, i32 0
  %35 = load atomic i32, i32* %34 monotonic, align 4
  %36 = and i32 %35, 2
  %37 = icmp eq i32 %36, 0
  %38 = getelementptr inbounds %"class.WTF::StringImpl", %"class.WTF::StringImpl"* %31, i64 0, i32 0
  %39 = load i32, i32* %38, align 4
  br i1 %37, label %40, label %42

40:                                               ; preds = %33
  %41 = add i32 %39, -1
  store i32 %41, i32* %38, align 4
  br label %42

42:                                               ; preds = %40, %33
  %43 = phi i32 [ %41, %40 ], [ %39, %33 ]
  %44 = icmp eq i32 %43, 0
  br i1 %44, label %45, label %46

45:                                               ; preds = %42
  tail call void @_ZNK3WTF10StringImpl18DestroyIfNotStaticEv(%"class.WTF::StringImpl"* nonnull %31) #12
  br label %46

46:                                               ; preds = %45, %42, %30, %11
  %47 = add nuw nsw i64 %12, 1
  %48 = icmp eq i64 %47, %10
  br i1 %48, label %49, label %11

49:                                               ; preds = %46, %5
  %50 = bitcast %"struct.WTF::KeyValuePair.84"* %3 to i8*
  tail call void @_ZN3WTF18PartitionAllocator11FreeBackingEPv(i8* nonnull %50) #12
  store %"struct.WTF::KeyValuePair.84"* null, %"struct.WTF::KeyValuePair.84"** %2, align 8
  br label %51

51:                                               ; preds = %1, %49
  %52 = getelementptr inbounds %"class.blink::mojom::blink::WebBluetoothAdvertisingEvent", %"class.blink::mojom::blink::WebBluetoothAdvertisingEvent"* %0, i64 0, i32 9, i32 0, i32 0
  %53 = load %"struct.WTF::KeyValuePair.74"*, %"struct.WTF::KeyValuePair.74"** %52, align 8
  %54 = icmp eq %"struct.WTF::KeyValuePair.74"* %53, null
  br i1 %54, label %81, label %55, !prof !4

55:                                               ; preds = %51
  %56 = getelementptr inbounds %"class.blink::mojom::blink::WebBluetoothAdvertisingEvent", %"class.blink::mojom::blink::WebBluetoothAdvertisingEvent"* %0, i64 0, i32 9, i32 0, i32 1
  %57 = load i32, i32* %56, align 8
  %58 = icmp eq i32 %57, 0
  br i1 %58, label %79, label %59

59:                                               ; preds = %55
  %60 = zext i32 %57 to i64
  br label %61

61:                                               ; preds = %76, %59
  %62 = phi i64 [ 0, %59 ], [ %77, %76 ]
  %63 = getelementptr inbounds %"struct.WTF::KeyValuePair.74", %"struct.WTF::KeyValuePair.74"* %53, i64 %62, i32 0
  %64 = load i16, i16* %63, align 2
  %65 = icmp eq i16 %64, -1
  br i1 %65, label %76, label %66

66:                                               ; preds = %61
  %67 = getelementptr inbounds %"struct.WTF::KeyValuePair.74", %"struct.WTF::KeyValuePair.74"* %53, i64 %62, i32 1, i32 0, i32 0, i32 0
  %68 = load i8*, i8** %67, align 8
  %69 = icmp eq i8* %68, null
  br i1 %69, label %76, label %70, !prof !4

70:                                               ; preds = %66
  %71 = getelementptr inbounds %"struct.WTF::KeyValuePair.74", %"struct.WTF::KeyValuePair.74"* %53, i64 %62, i32 1, i32 0, i32 0, i32 2
  %72 = load i32, i32* %71, align 4
  %73 = icmp eq i32 %72, 0
  br i1 %73, label %75, label %74, !prof !3

74:                                               ; preds = %70
  store i32 0, i32* %71, align 4
  br label %75

75:                                               ; preds = %74, %70
  tail call void @_ZN3WTF18PartitionAllocator11FreeBackingEPv(i8* nonnull %68) #12
  store i8* null, i8** %67, align 8
  br label %76

76:                                               ; preds = %75, %66, %61
  %77 = add nuw nsw i64 %62, 1
  %78 = icmp eq i64 %77, %60
  br i1 %78, label %79, label %61

79:                                               ; preds = %76, %55
  %80 = bitcast %"struct.WTF::KeyValuePair.74"* %53 to i8*
  tail call void @_ZN3WTF18PartitionAllocator11FreeBackingEPv(i8* nonnull %80) #12
  store %"struct.WTF::KeyValuePair.74"* null, %"struct.WTF::KeyValuePair.74"** %52, align 8
  br label %81

81:                                               ; preds = %51, %79
  %82 = getelementptr inbounds %"class.blink::mojom::blink::WebBluetoothAdvertisingEvent", %"class.blink::mojom::blink::WebBluetoothAdvertisingEvent"* %0, i64 0, i32 2
  %83 = getelementptr inbounds %"class.WTF::Vector", %"class.WTF::Vector"* %82, i64 0, i32 0, i32 0, i32 0
  %84 = load %"class.WTF::String"*, %"class.WTF::String"** %83, align 8
  %85 = icmp eq %"class.WTF::String"* %84, null
  br i1 %85, label %120, label %86, !prof !4

86:                                               ; preds = %81
  %87 = bitcast %"class.WTF::String"* %84 to i8*
  %88 = getelementptr inbounds %"class.blink::mojom::blink::WebBluetoothAdvertisingEvent", %"class.blink::mojom::blink::WebBluetoothAdvertisingEvent"* %0, i64 0, i32 2, i32 0, i32 0, i32 2
  %89 = load i32, i32* %88, align 4
  %90 = icmp eq i32 %89, 0
  br i1 %90, label %118, label %91, !prof !3

91:                                               ; preds = %86
  %92 = zext i32 %89 to i64
  %93 = getelementptr inbounds %"class.WTF::String", %"class.WTF::String"* %84, i64 %92
  br label %94

94:                                               ; preds = %112, %91
  %95 = phi %"class.WTF::String"* [ %113, %112 ], [ %84, %91 ]
  %96 = getelementptr inbounds %"class.WTF::String", %"class.WTF::String"* %95, i64 0, i32 0, i32 0
  %97 = load %"class.WTF::StringImpl"*, %"class.WTF::StringImpl"** %96, align 8
  %98 = icmp eq %"class.WTF::StringImpl"* %97, null
  br i1 %98, label %112, label %99

99:                                               ; preds = %94
  %100 = getelementptr inbounds %"class.WTF::StringImpl", %"class.WTF::StringImpl"* %97, i64 0, i32 2, i32 0, i32 0, i32 0, i32 0, i32 0
  %101 = load atomic i32, i32* %100 monotonic, align 4
  %102 = and i32 %101, 2
  %103 = icmp eq i32 %102, 0
  %104 = getelementptr inbounds %"class.WTF::StringImpl", %"class.WTF::StringImpl"* %97, i64 0, i32 0
  %105 = load i32, i32* %104, align 4
  br i1 %103, label %106, label %108

106:                                              ; preds = %99
  %107 = add i32 %105, -1
  store i32 %107, i32* %104, align 4
  br label %108

108:                                              ; preds = %106, %99
  %109 = phi i32 [ %107, %106 ], [ %105, %99 ]
  %110 = icmp eq i32 %109, 0
  br i1 %110, label %111, label %112

111:                                              ; preds = %108
  tail call void @_ZNK3WTF10StringImpl18DestroyIfNotStaticEv(%"class.WTF::StringImpl"* nonnull %97) #12
  br label %112

112:                                              ; preds = %111, %108, %94
  %113 = getelementptr inbounds %"class.WTF::String", %"class.WTF::String"* %95, i64 1
  %114 = icmp eq %"class.WTF::String"* %113, %93
  br i1 %114, label %115, label %94

115:                                              ; preds = %112
  store i32 0, i32* %88, align 4
  %116 = bitcast %"class.WTF::Vector"* %82 to i8**
  %117 = load i8*, i8** %116, align 8
  br label %118

118:                                              ; preds = %115, %86
  %119 = phi i8* [ %117, %115 ], [ %87, %86 ]
  tail call void @_ZN3WTF18PartitionAllocator11FreeBackingEPv(i8* %119) #12
  store %"class.WTF::String"* null, %"class.WTF::String"** %83, align 8
  br label %120

120:                                              ; preds = %81, %118
  %121 = getelementptr inbounds %"class.blink::mojom::blink::WebBluetoothAdvertisingEvent", %"class.blink::mojom::blink::WebBluetoothAdvertisingEvent"* %0, i64 0, i32 1, i32 0, i32 0
  %122 = load %"class.WTF::StringImpl"*, %"class.WTF::StringImpl"** %121, align 8
  %123 = icmp eq %"class.WTF::StringImpl"* %122, null
  br i1 %123, label %137, label %124

124:                                              ; preds = %120
  %125 = getelementptr inbounds %"class.WTF::StringImpl", %"class.WTF::StringImpl"* %122, i64 0, i32 2, i32 0, i32 0, i32 0, i32 0, i32 0
  %126 = load atomic i32, i32* %125 monotonic, align 4
  %127 = and i32 %126, 2
  %128 = icmp eq i32 %127, 0
  %129 = getelementptr inbounds %"class.WTF::StringImpl", %"class.WTF::StringImpl"* %122, i64 0, i32 0
  %130 = load i32, i32* %129, align 4
  br i1 %128, label %131, label %133

131:                                              ; preds = %124
  %132 = add i32 %130, -1
  store i32 %132, i32* %129, align 4
  br label %133

133:                                              ; preds = %131, %124
  %134 = phi i32 [ %132, %131 ], [ %130, %124 ]
  %135 = icmp eq i32 %134, 0
  br i1 %135, label %136, label %137

136:                                              ; preds = %133
  tail call void @_ZNK3WTF10StringImpl18DestroyIfNotStaticEv(%"class.WTF::StringImpl"* nonnull %122) #12
  br label %137

137:                                              ; preds = %120, %133, %136
  %138 = getelementptr inbounds %"class.blink::mojom::blink::WebBluetoothAdvertisingEvent", %"class.blink::mojom::blink::WebBluetoothAdvertisingEvent"* %0, i64 0, i32 0, i32 0, i32 0, i32 0, i32 0
  %139 = load %"class.blink::mojom::blink::WebBluetoothDevice"*, %"class.blink::mojom::blink::WebBluetoothDevice"** %138, align 8
  store %"class.blink::mojom::blink::WebBluetoothDevice"* null, %"class.blink::mojom::blink::WebBluetoothDevice"** %138, align 8
  %140 = icmp eq %"class.blink::mojom::blink::WebBluetoothDevice"* %139, null
  br i1 %140, label %177, label %141

141:                                              ; preds = %137
  %142 = getelementptr inbounds %"class.blink::mojom::blink::WebBluetoothDevice", %"class.blink::mojom::blink::WebBluetoothDevice"* %139, i64 0, i32 1, i32 0, i32 0
  %143 = load %"class.WTF::StringImpl"*, %"class.WTF::StringImpl"** %142, align 8
  %144 = icmp eq %"class.WTF::StringImpl"* %143, null
  br i1 %144, label %158, label %145

145:                                              ; preds = %141
  %146 = getelementptr inbounds %"class.WTF::StringImpl", %"class.WTF::StringImpl"* %143, i64 0, i32 2, i32 0, i32 0, i32 0, i32 0, i32 0
  %147 = load atomic i32, i32* %146 monotonic, align 4
  %148 = and i32 %147, 2
  %149 = icmp eq i32 %148, 0
  %150 = getelementptr inbounds %"class.WTF::StringImpl", %"class.WTF::StringImpl"* %143, i64 0, i32 0
  %151 = load i32, i32* %150, align 4
  br i1 %149, label %152, label %154

152:                                              ; preds = %145
  %153 = add i32 %151, -1
  store i32 %153, i32* %150, align 4
  br label %154

154:                                              ; preds = %152, %145
  %155 = phi i32 [ %153, %152 ], [ %151, %145 ]
  %156 = icmp eq i32 %155, 0
  br i1 %156, label %157, label %158

157:                                              ; preds = %154
  tail call void @_ZNK3WTF10StringImpl18DestroyIfNotStaticEv(%"class.WTF::StringImpl"* nonnull %143) #12
  br label %158

158:                                              ; preds = %157, %154, %141
  %159 = getelementptr inbounds %"class.blink::mojom::blink::WebBluetoothDevice", %"class.blink::mojom::blink::WebBluetoothDevice"* %139, i64 0, i32 0, i32 0, i32 0
  %160 = load %"class.WTF::StringImpl"*, %"class.WTF::StringImpl"** %159, align 8
  %161 = icmp eq %"class.WTF::StringImpl"* %160, null
  br i1 %161, label %175, label %162

162:                                              ; preds = %158
  %163 = getelementptr inbounds %"class.WTF::StringImpl", %"class.WTF::StringImpl"* %160, i64 0, i32 2, i32 0, i32 0, i32 0, i32 0, i32 0
  %164 = load atomic i32, i32* %163 monotonic, align 4
  %165 = and i32 %164, 2
  %166 = icmp eq i32 %165, 0
  %167 = getelementptr inbounds %"class.WTF::StringImpl", %"class.WTF::StringImpl"* %160, i64 0, i32 0
  %168 = load i32, i32* %167, align 4
  br i1 %166, label %169, label %171

169:                                              ; preds = %162
  %170 = add i32 %168, -1
  store i32 %170, i32* %167, align 4
  br label %171

171:                                              ; preds = %169, %162
  %172 = phi i32 [ %170, %169 ], [ %168, %162 ]
  %173 = icmp eq i32 %172, 0
  br i1 %173, label %174, label %175

174:                                              ; preds = %171
  tail call void @_ZNK3WTF10StringImpl18DestroyIfNotStaticEv(%"class.WTF::StringImpl"* nonnull %160) #12
  br label %175

175:                                              ; preds = %174, %171, %158
  %176 = bitcast %"class.blink::mojom::blink::WebBluetoothDevice"* %139 to i8*
  tail call void @_ZdlPv(i8* %176) #13
  br label %177

177:                                              ; preds = %137, %175
  ret void
}

; Function Attrs: nounwind ssp uwtable
define hidden void @_ZNK5blink5mojom5blink28WebBluetoothAdvertisingEvent14WriteIntoTraceEN8perfetto11TracedValueE(%"class.blink::mojom::blink::WebBluetoothAdvertisingEvent"*, %"class.perfetto::TracedValue"*) local_unnamed_addr #0 align 2 {
  %3 = alloca %"class.perfetto::TracedValue", align 8
  %4 = alloca %"class.perfetto::TracedValue", align 8
  %5 = alloca %"class.perfetto::TracedValue", align 8
  %6 = alloca %"class.perfetto::TracedValue", align 8
  %7 = alloca %"class.perfetto::TracedValue", align 8
  %8 = alloca %"class.perfetto::TracedValue", align 8
  %9 = alloca %"class.perfetto::TracedValue", align 8
  %10 = alloca %"class.perfetto::TracedValue", align 8
  %11 = alloca %"class.perfetto::TracedArray", align 8
  %12 = alloca %"class.perfetto::TracedValue", align 8
  %13 = alloca %"class.perfetto::TracedValue", align 8
  %14 = alloca %"class.perfetto::TracedValue", align 8
  %15 = alloca %"class.blink::mojom::blink::WebBluetoothDevice"*, align 8
  %16 = alloca %"class.perfetto::TracedDictionary", align 8
  %17 = alloca %"class.perfetto::TracedValue", align 8
  %18 = alloca %"class.perfetto::TracedValue", align 8
  %19 = alloca %"class.perfetto::TracedValue", align 8
  %20 = alloca %"class.perfetto::TracedValue", align 8
  %21 = alloca %"class.perfetto::TracedValue", align 8
  %22 = alloca %"class.perfetto::TracedValue", align 8
  %23 = alloca %"class.perfetto::TracedValue", align 8
  %24 = alloca %"class.perfetto::TracedValue", align 8
  %25 = alloca %"class.perfetto::TracedValue", align 8
  %26 = alloca %"class.perfetto::TracedValue", align 8
  %27 = alloca %"class.std::__1::basic_string", align 8
  %28 = alloca %"class.perfetto::TracedValue", align 8
  %29 = alloca %"class.std::__1::basic_string", align 8
  %30 = bitcast %"class.perfetto::TracedDictionary"* %16 to i8*
  call void @llvm.lifetime.start.p0i8(i64 16, i8* nonnull %30) #12
  %31 = bitcast %"class.perfetto::TracedDictionary"* %16 to i8*
  call void @llvm.memset.p0i8.i64(i8* nonnull align 8 %31, i8 -86, i64 16, i1 false)
  call void @_ZNO8perfetto11TracedValue15WriteDictionaryEv(%"class.perfetto::TracedDictionary"* nonnull sret %16, %"class.perfetto::TracedValue"* %1) #12
  call void @_ZN8perfetto16TracedDictionary7AddItemENS_12StaticStringE(%"class.perfetto::TracedValue"* nonnull sret %17, %"class.perfetto::TracedDictionary"* nonnull %16, i8* getelementptr inbounds ([7 x i8], [7 x i8]* @.str.18, i64 0, i64 0)) #12
  %32 = bitcast %"class.perfetto::TracedValue"* %17 to i8*
  %33 = bitcast %"class.blink::mojom::blink::WebBluetoothDevice"** %15 to i8*
  call void @llvm.lifetime.start.p0i8(i64 8, i8* nonnull %33) #12
  %34 = bitcast %"class.blink::mojom::blink::WebBluetoothAdvertisingEvent"* %0 to i64*
  %35 = load i64, i64* %34, align 8
  %36 = bitcast %"class.blink::mojom::blink::WebBluetoothDevice"** %15 to i64*
  store i64 %35, i64* %36, align 8
  %37 = bitcast %"class.perfetto::TracedValue"* %14 to i8*
  call void @llvm.lifetime.start.p0i8(i64 16, i8* nonnull %37) #12
  call void @llvm.memcpy.p0i8.p0i8.i64(i8* nonnull align 8 %37, i8* nonnull align 8 %32, i64 16, i1 false)
  call void @_ZN8perfetto8internal9WriteImplIPN5blink5mojom5blink18WebBluetoothDeviceEEEDTcmclsr17TraceFormatTraitsINS_4base12remove_cvrefIT_E4typeEEE14WriteIntoTraceclL_ZNSt3__17declvalINS_11TracedValueEEEDTclsr3std3__1E9__declvalIS9_ELi0EEEvEEclsr3stdE7declvalIS9_EEEcvv_EENS7_12priority_tagILm3EEESE_OS9_(%"class.perfetto::TracedValue"* nonnull %14, %"class.blink::mojom::blink::WebBluetoothDevice"** nonnull dereferenceable(8) %15) #12
  call void @llvm.lifetime.end.p0i8(i64 16, i8* nonnull %37) #12
  call void @llvm.lifetime.end.p0i8(i64 8, i8* nonnull %33) #12
  call void @_ZN8perfetto16TracedDictionary7AddItemENS_12StaticStringE(%"class.perfetto::TracedValue"* nonnull sret %18, %"class.perfetto::TracedDictionary"* nonnull %16, i8* getelementptr inbounds ([5 x i8], [5 x i8]* @.str.2, i64 0, i64 0)) #12
  %38 = getelementptr inbounds %"class.blink::mojom::blink::WebBluetoothAdvertisingEvent", %"class.blink::mojom::blink::WebBluetoothAdvertisingEvent"* %0, i64 0, i32 1
  %39 = bitcast %"class.perfetto::TracedValue"* %18 to i8*
  %40 = bitcast %"class.perfetto::TracedValue"* %13 to i8*
  call void @llvm.lifetime.start.p0i8(i64 16, i8* nonnull %40) #12
  call void @llvm.memcpy.p0i8.p0i8.i64(i8* nonnull align 8 %40, i8* nonnull align 8 %39, i64 16, i1 false) #12
  call void @_ZNK3WTF6String14WriteIntoTraceEN8perfetto11TracedValueE(%"class.WTF::String"* %38, %"class.perfetto::TracedValue"* nonnull %13) #12
  call void @llvm.lifetime.end.p0i8(i64 16, i8* nonnull %40) #12
  call void @_ZN8perfetto16TracedDictionary7AddItemENS_12StaticStringE(%"class.perfetto::TracedValue"* nonnull sret %19, %"class.perfetto::TracedDictionary"* nonnull %16, i8* getelementptr inbounds ([6 x i8], [6 x i8]* @.str.19, i64 0, i64 0)) #12
  %41 = bitcast %"class.perfetto::TracedValue"* %19 to i8*
  %42 = bitcast %"class.perfetto::TracedValue"* %12 to i8*
  call void @llvm.lifetime.start.p0i8(i64 16, i8* nonnull %42) #12
  call void @llvm.memcpy.p0i8.p0i8.i64(i8* nonnull align 8 %42, i8* nonnull align 8 %41, i64 16, i1 false) #12
  %43 = bitcast %"class.perfetto::TracedArray"* %11 to i8*
  call void @llvm.lifetime.start.p0i8(i64 16, i8* nonnull %43) #12
  call void @llvm.memset.p0i8.i64(i8* nonnull align 8 %43, i8 -86, i64 16, i1 false) #12
  call void @_ZNO8perfetto11TracedValue10WriteArrayEv(%"class.perfetto::TracedArray"* nonnull sret %11, %"class.perfetto::TracedValue"* nonnull %12) #12
  %44 = getelementptr inbounds %"class.blink::mojom::blink::WebBluetoothAdvertisingEvent", %"class.blink::mojom::blink::WebBluetoothAdvertisingEvent"* %0, i64 0, i32 2, i32 0, i32 0, i32 0
  %45 = load %"class.WTF::String"*, %"class.WTF::String"** %44, align 8
  %46 = getelementptr inbounds %"class.blink::mojom::blink::WebBluetoothAdvertisingEvent", %"class.blink::mojom::blink::WebBluetoothAdvertisingEvent"* %0, i64 0, i32 2, i32 0, i32 0, i32 2
  %47 = load i32, i32* %46, align 4
  %48 = zext i32 %47 to i64
  %49 = getelementptr inbounds %"class.WTF::String", %"class.WTF::String"* %45, i64 %48
  %50 = icmp eq i32 %47, 0
  br i1 %50, label %58, label %51

51:                                               ; preds = %2
  %52 = bitcast %"class.perfetto::TracedValue"* %10 to i8*
  %53 = bitcast %"class.perfetto::TracedValue"* %9 to i8*
  br label %54

54:                                               ; preds = %54, %51
  %55 = phi %"class.WTF::String"* [ %45, %51 ], [ %56, %54 ]
  call void @llvm.lifetime.start.p0i8(i64 16, i8* nonnull %52) #12
  call void @_ZN8perfetto11TracedArray10AppendItemEv(%"class.perfetto::TracedValue"* nonnull sret %10, %"class.perfetto::TracedArray"* nonnull %11) #12
  call void @llvm.lifetime.start.p0i8(i64 16, i8* nonnull %53) #12
  call void @llvm.memcpy.p0i8.p0i8.i64(i8* nonnull align 8 %53, i8* nonnull align 8 %52, i64 16, i1 false) #12
  call void @_ZNK3WTF6String14WriteIntoTraceEN8perfetto11TracedValueE(%"class.WTF::String"* %55, %"class.perfetto::TracedValue"* nonnull %9) #12
  call void @llvm.lifetime.end.p0i8(i64 16, i8* nonnull %53) #12
  call void @llvm.lifetime.end.p0i8(i64 16, i8* nonnull %52) #12
  %56 = getelementptr inbounds %"class.WTF::String", %"class.WTF::String"* %55, i64 1
  %57 = icmp eq %"class.WTF::String"* %56, %49
  br i1 %57, label %58, label %54

58:                                               ; preds = %54, %2
  call void @llvm.lifetime.end.p0i8(i64 16, i8* nonnull %43) #12
  call void @llvm.lifetime.end.p0i8(i64 16, i8* nonnull %42) #12
  call void @_ZN8perfetto16TracedDictionary7AddItemENS_12StaticStringE(%"class.perfetto::TracedValue"* nonnull sret %20, %"class.perfetto::TracedDictionary"* nonnull %16, i8* getelementptr inbounds ([18 x i8], [18 x i8]* @.str.20, i64 0, i64 0)) #12
  %59 = getelementptr inbounds %"class.blink::mojom::blink::WebBluetoothAdvertisingEvent", %"class.blink::mojom::blink::WebBluetoothAdvertisingEvent"* %0, i64 0, i32 3
  %60 = bitcast %"class.perfetto::TracedValue"* %20 to i8*
  %61 = bitcast %"class.perfetto::TracedValue"* %8 to i8*
  call void @llvm.lifetime.start.p0i8(i64 16, i8* nonnull %61) #12
  call void @llvm.memcpy.p0i8.p0i8.i64(i8* nonnull align 8 %61, i8* nonnull align 8 %60, i64 16, i1 false) #12
  %62 = load i8, i8* %59, align 1, !range !2
  %63 = icmp ne i8 %62, 0
  call void @_ZNO8perfetto11TracedValue12WriteBooleanEb(%"class.perfetto::TracedValue"* nonnull %8, i1 zeroext %63) #12
  call void @llvm.lifetime.end.p0i8(i64 16, i8* nonnull %61) #12
  call void @_ZN8perfetto16TracedDictionary7AddItemENS_12StaticStringE(%"class.perfetto::TracedValue"* nonnull sret %21, %"class.perfetto::TracedDictionary"* nonnull %16, i8* getelementptr inbounds ([11 x i8], [11 x i8]* @.str.21, i64 0, i64 0)) #12
  %64 = getelementptr inbounds %"class.blink::mojom::blink::WebBluetoothAdvertisingEvent", %"class.blink::mojom::blink::WebBluetoothAdvertisingEvent"* %0, i64 0, i32 4
  %65 = bitcast %"class.perfetto::TracedValue"* %21 to i8*
  %66 = bitcast %"class.perfetto::TracedValue"* %7 to i8*
  call void @llvm.lifetime.start.p0i8(i64 16, i8* nonnull %66) #12
  call void @llvm.memcpy.p0i8.p0i8.i64(i8* nonnull align 8 %66, i8* nonnull align 8 %65, i64 16, i1 false) #12
  %67 = load i16, i16* %64, align 2
  %68 = zext i16 %67 to i64
  call void @_ZNO8perfetto11TracedValue11WriteUInt64Em(%"class.perfetto::TracedValue"* nonnull %7, i64 %68) #12
  call void @llvm.lifetime.end.p0i8(i64 16, i8* nonnull %66) #12
  call void @_ZN8perfetto16TracedDictionary7AddItemENS_12StaticStringE(%"class.perfetto::TracedValue"* nonnull sret %22, %"class.perfetto::TracedDictionary"* nonnull %16, i8* getelementptr inbounds ([16 x i8], [16 x i8]* @.str.22, i64 0, i64 0)) #12
  %69 = getelementptr inbounds %"class.blink::mojom::blink::WebBluetoothAdvertisingEvent", %"class.blink::mojom::blink::WebBluetoothAdvertisingEvent"* %0, i64 0, i32 5
  %70 = bitcast %"class.perfetto::TracedValue"* %22 to i8*
  %71 = bitcast %"class.perfetto::TracedValue"* %6 to i8*
  call void @llvm.lifetime.start.p0i8(i64 16, i8* nonnull %71) #12
  call void @llvm.memcpy.p0i8.p0i8.i64(i8* nonnull align 8 %71, i8* nonnull align 8 %70, i64 16, i1 false) #12
  %72 = load i8, i8* %69, align 1, !range !2
  %73 = icmp ne i8 %72, 0
  call void @_ZNO8perfetto11TracedValue12WriteBooleanEb(%"class.perfetto::TracedValue"* nonnull %6, i1 zeroext %73) #12
  call void @llvm.lifetime.end.p0i8(i64 16, i8* nonnull %71) #12
  call void @_ZN8perfetto16TracedDictionary7AddItemENS_12StaticStringE(%"class.perfetto::TracedValue"* nonnull sret %23, %"class.perfetto::TracedDictionary"* nonnull %16, i8* getelementptr inbounds ([9 x i8], [9 x i8]* @.str.23, i64 0, i64 0)) #12
  %74 = getelementptr inbounds %"class.blink::mojom::blink::WebBluetoothAdvertisingEvent", %"class.blink::mojom::blink::WebBluetoothAdvertisingEvent"* %0, i64 0, i32 6
  %75 = bitcast %"class.perfetto::TracedValue"* %23 to i8*
  %76 = bitcast %"class.perfetto::TracedValue"* %5 to i8*
  call void @llvm.lifetime.start.p0i8(i64 16, i8* nonnull %76) #12
  call void @llvm.memcpy.p0i8.p0i8.i64(i8* nonnull align 8 %76, i8* nonnull align 8 %75, i64 16, i1 false) #12
  %77 = load i8, i8* %74, align 1
  %78 = zext i8 %77 to i64
  call void @_ZNO8perfetto11TracedValue11WriteUInt64Em(%"class.perfetto::TracedValue"* nonnull %5, i64 %78) #12
  call void @llvm.lifetime.end.p0i8(i64 16, i8* nonnull %76) #12
  call void @_ZN8perfetto16TracedDictionary7AddItemENS_12StaticStringE(%"class.perfetto::TracedValue"* nonnull sret %24, %"class.perfetto::TracedDictionary"* nonnull %16, i8* getelementptr inbounds ([12 x i8], [12 x i8]* @.str.24, i64 0, i64 0)) #12
  %79 = getelementptr inbounds %"class.blink::mojom::blink::WebBluetoothAdvertisingEvent", %"class.blink::mojom::blink::WebBluetoothAdvertisingEvent"* %0, i64 0, i32 7
  %80 = bitcast %"class.perfetto::TracedValue"* %24 to i8*
  %81 = bitcast %"class.perfetto::TracedValue"* %4 to i8*
  call void @llvm.lifetime.start.p0i8(i64 16, i8* nonnull %81) #12
  call void @llvm.memcpy.p0i8.p0i8.i64(i8* nonnull align 8 %81, i8* nonnull align 8 %80, i64 16, i1 false) #12
  %82 = load i8, i8* %79, align 1, !range !2
  %83 = icmp ne i8 %82, 0
  call void @_ZNO8perfetto11TracedValue12WriteBooleanEb(%"class.perfetto::TracedValue"* nonnull %4, i1 zeroext %83) #12
  call void @llvm.lifetime.end.p0i8(i64 16, i8* nonnull %81) #12
  call void @_ZN8perfetto16TracedDictionary7AddItemENS_12StaticStringE(%"class.perfetto::TracedValue"* nonnull sret %25, %"class.perfetto::TracedDictionary"* nonnull %16, i8* getelementptr inbounds ([5 x i8], [5 x i8]* @.str.25, i64 0, i64 0)) #12
  %84 = getelementptr inbounds %"class.blink::mojom::blink::WebBluetoothAdvertisingEvent", %"class.blink::mojom::blink::WebBluetoothAdvertisingEvent"* %0, i64 0, i32 8
  %85 = bitcast %"class.perfetto::TracedValue"* %25 to i8*
  %86 = bitcast %"class.perfetto::TracedValue"* %3 to i8*
  call void @llvm.lifetime.start.p0i8(i64 16, i8* nonnull %86) #12
  call void @llvm.memcpy.p0i8.p0i8.i64(i8* nonnull align 8 %86, i8* nonnull align 8 %85, i64 16, i1 false) #12
  %87 = load i8, i8* %84, align 1
  %88 = zext i8 %87 to i64
  call void @_ZNO8perfetto11TracedValue11WriteUInt64Em(%"class.perfetto::TracedValue"* nonnull %3, i64 %88) #12
  call void @llvm.lifetime.end.p0i8(i64 16, i8* nonnull %86) #12
  call void @_ZN8perfetto16TracedDictionary7AddItemENS_12StaticStringE(%"class.perfetto::TracedValue"* nonnull sret %26, %"class.perfetto::TracedDictionary"* nonnull %16, i8* getelementptr inbounds ([18 x i8], [18 x i8]* @.str.4, i64 0, i64 0)) #12
  %89 = bitcast %"class.std::__1::basic_string"* %27 to i8*
  call void @llvm.lifetime.start.p0i8(i64 24, i8* nonnull %89) #12
  %90 = bitcast %"class.std::__1::basic_string"* %27 to %"struct.std::__1::basic_string<char, std::__1::char_traits<char>, std::__1::allocator<char> >::__short"*
  %91 = getelementptr inbounds %"struct.std::__1::basic_string<char, std::__1::char_traits<char>, std::__1::allocator<char> >::__short", %"struct.std::__1::basic_string<char, std::__1::char_traits<char>, std::__1::allocator<char> >::__short"* %90, i64 0, i32 1, i32 0
  store i8 7, i8* %91, align 1
  call void @llvm.memcpy.p0i8.p0i8.i64(i8* nonnull align 8 %89, i8* align 1 getelementptr inbounds ([8 x i8], [8 x i8]* @.str.1, i64 0, i64 0), i64 7, i1 false) #12
  %92 = getelementptr inbounds i8, i8* %89, i64 7
  store i8 0, i8* %92, align 1
  call void @_ZNO8perfetto11TracedValue11WriteStringERKNSt3__112basic_stringIcNS1_11char_traitsIcEENS1_9allocatorIcEEEE(%"class.perfetto::TracedValue"* nonnull %26, %"class.std::__1::basic_string"* nonnull dereferenceable(24) %27) #12
  %93 = load i8, i8* %91, align 1
  %94 = icmp slt i8 %93, 0
  br i1 %94, label %95, label %98

95:                                               ; preds = %58
  %96 = getelementptr inbounds %"class.std::__1::basic_string", %"class.std::__1::basic_string"* %27, i64 0, i32 0, i32 0, i32 0, i32 0, i32 0, i32 0
  %97 = load i8*, i8** %96, align 8
  call void @_ZdlPv(i8* %97) #13
  br label %98

98:                                               ; preds = %58, %95
  call void @llvm.lifetime.end.p0i8(i64 24, i8* nonnull %89) #12
  call void @_ZN8perfetto16TracedDictionary7AddItemENS_12StaticStringE(%"class.perfetto::TracedValue"* nonnull sret %28, %"class.perfetto::TracedDictionary"* nonnull %16, i8* getelementptr inbounds ([13 x i8], [13 x i8]* @.str.26, i64 0, i64 0)) #12
  %99 = bitcast %"class.std::__1::basic_string"* %29 to i8*
  call void @llvm.lifetime.start.p0i8(i64 24, i8* nonnull %99) #12
  %100 = bitcast %"class.std::__1::basic_string"* %29 to %"struct.std::__1::basic_string<char, std::__1::char_traits<char>, std::__1::allocator<char> >::__short"*
  %101 = getelementptr inbounds %"struct.std::__1::basic_string<char, std::__1::char_traits<char>, std::__1::allocator<char> >::__short", %"struct.std::__1::basic_string<char, std::__1::char_traits<char>, std::__1::allocator<char> >::__short"* %100, i64 0, i32 1, i32 0
  store i8 7, i8* %101, align 1
  call void @llvm.memcpy.p0i8.p0i8.i64(i8* nonnull align 8 %99, i8* align 1 getelementptr inbounds ([8 x i8], [8 x i8]* @.str.1, i64 0, i64 0), i64 7, i1 false) #12
  %102 = getelementptr inbounds i8, i8* %99, i64 7
  store i8 0, i8* %102, align 1
  call void @_ZNO8perfetto11TracedValue11WriteStringERKNSt3__112basic_stringIcNS1_11char_traitsIcEENS1_9allocatorIcEEEE(%"class.perfetto::TracedValue"* nonnull %28, %"class.std::__1::basic_string"* nonnull dereferenceable(24) %29) #12
  %103 = load i8, i8* %101, align 1
  %104 = icmp slt i8 %103, 0
  br i1 %104, label %105, label %108

105:                                              ; preds = %98
  %106 = getelementptr inbounds %"class.std::__1::basic_string", %"class.std::__1::basic_string"* %29, i64 0, i32 0, i32 0, i32 0, i32 0, i32 0, i32 0
  %107 = load i8*, i8** %106, align 8
  call void @_ZdlPv(i8* %107) #13
  br label %108

108:                                              ; preds = %98, %105
  call void @llvm.lifetime.end.p0i8(i64 24, i8* nonnull %99) #12
  call void @llvm.lifetime.end.p0i8(i64 16, i8* nonnull %30) #12
  ret void
}

; Function Attrs: nounwind ssp uwtable
define hidden zeroext i1 @_ZN5blink5mojom5blink28WebBluetoothAdvertisingEvent8ValidateEPKvPN4mojo8internal17ValidationContextE(i8*, %"class.mojo::internal::ValidationContext"*) local_unnamed_addr #0 align 2 {
  %3 = tail call zeroext i1 @_ZN5blink5mojom8internal33WebBluetoothAdvertisingEvent_Data8ValidateEPKvPN4mojo8internal17ValidationContextE(i8* %0, %"class.mojo::internal::ValidationContext"* %1) #12
  ret i1 %3
}

declare zeroext i1 @_ZN5blink5mojom8internal33WebBluetoothAdvertisingEvent_Data8ValidateEPKvPN4mojo8internal17ValidationContextE(i8*, %"class.mojo::internal::ValidationContext"*) local_unnamed_addr #2

; Function Attrs: nofree norecurse nounwind ssp uwtable writeonly
define hidden void @_ZN5blink5mojom5blink32WebBluetoothRemoteGATTDescriptorC2Ev(%"class.blink::mojom::blink::WebBluetoothRemoteGATTDescriptor"* nocapture) unnamed_addr #3 align 2 {
  %2 = bitcast %"class.blink::mojom::blink::WebBluetoothRemoteGATTDescriptor"* %0 to i8*
  call void @llvm.memset.p0i8.i64(i8* align 8 %2, i8 0, i64 16, i1 false)
  ret void
}

; Function Attrs: nounwind ssp uwtable
define hidden void @_ZN5blink5mojom5blink32WebBluetoothRemoteGATTDescriptorC2ERKN3WTF6StringES6_(%"class.blink::mojom::blink::WebBluetoothRemoteGATTDescriptor"* nocapture, %"class.WTF::String"* nocapture readonly dereferenceable(8), %"class.WTF::String"* nocapture readonly dereferenceable(8)) unnamed_addr #0 align 2 {
  %4 = getelementptr inbounds %"class.WTF::String", %"class.WTF::String"* %1, i64 0, i32 0, i32 0
  %5 = load %"class.WTF::StringImpl"*, %"class.WTF::StringImpl"** %4, align 8
  %6 = getelementptr inbounds %"class.blink::mojom::blink::WebBluetoothRemoteGATTDescriptor", %"class.blink::mojom::blink::WebBluetoothRemoteGATTDescriptor"* %0, i64 0, i32 0, i32 0, i32 0
  store %"class.WTF::StringImpl"* %5, %"class.WTF::StringImpl"** %6, align 8
  %7 = icmp eq %"class.WTF::StringImpl"* %5, null
  br i1 %7, label %25, label %8

8:                                                ; preds = %3
  %9 = getelementptr inbounds %"class.WTF::StringImpl", %"class.WTF::StringImpl"* %5, i64 0, i32 2, i32 0, i32 0, i32 0, i32 0, i32 0
  %10 = load atomic i32, i32* %9 monotonic, align 4
  %11 = and i32 %10, 2
  %12 = icmp eq i32 %11, 0
  br i1 %12, label %13, label %25

13:                                               ; preds = %8
  %14 = getelementptr inbounds %"class.WTF::StringImpl", %"class.WTF::StringImpl"* %5, i64 0, i32 0
  %15 = load i32, i32* %14, align 4
  %16 = zext i32 %15 to i33
  %17 = tail call { i33, i1 } @llvm.sadd.with.overflow.i33(i33 %16, i33 1) #12
  %18 = extractvalue { i33, i1 } %17, 1
  %19 = extractvalue { i33, i1 } %17, 0
  %20 = icmp slt i33 %19, 0
  %21 = or i1 %18, %20
  br i1 %21, label %22, label %23, !prof !3

22:                                               ; preds = %13
  tail call void @llvm.trap() #12
  unreachable

23:                                               ; preds = %13
  %24 = trunc i33 %19 to i32
  store i32 %24, i32* %14, align 4
  br label %25

25:                                               ; preds = %3, %8, %23
  %26 = getelementptr inbounds %"class.WTF::String", %"class.WTF::String"* %2, i64 0, i32 0, i32 0
  %27 = load %"class.WTF::StringImpl"*, %"class.WTF::StringImpl"** %26, align 8
  %28 = getelementptr inbounds %"class.blink::mojom::blink::WebBluetoothRemoteGATTDescriptor", %"class.blink::mojom::blink::WebBluetoothRemoteGATTDescriptor"* %0, i64 0, i32 1, i32 0, i32 0
  store %"class.WTF::StringImpl"* %27, %"class.WTF::StringImpl"** %28, align 8
  %29 = icmp eq %"class.WTF::StringImpl"* %27, null
  br i1 %29, label %47, label %30

30:                                               ; preds = %25
  %31 = getelementptr inbounds %"class.WTF::StringImpl", %"class.WTF::StringImpl"* %27, i64 0, i32 2, i32 0, i32 0, i32 0, i32 0, i32 0
  %32 = load atomic i32, i32* %31 monotonic, align 4
  %33 = and i32 %32, 2
  %34 = icmp eq i32 %33, 0
  br i1 %34, label %35, label %47

35:                                               ; preds = %30
  %36 = getelementptr inbounds %"class.WTF::StringImpl", %"class.WTF::StringImpl"* %27, i64 0, i32 0
  %37 = load i32, i32* %36, align 4
  %38 = zext i32 %37 to i33
  %39 = tail call { i33, i1 } @llvm.sadd.with.overflow.i33(i33 %38, i33 1) #12
  %40 = extractvalue { i33, i1 } %39, 1
  %41 = extractvalue { i33, i1 } %39, 0
  %42 = icmp slt i33 %41, 0
  %43 = or i1 %40, %42
  br i1 %43, label %44, label %45, !prof !3

44:                                               ; preds = %35
  tail call void @llvm.trap() #12
  unreachable

45:                                               ; preds = %35
  %46 = trunc i33 %41 to i32
  store i32 %46, i32* %36, align 4
  br label %47

47:                                               ; preds = %25, %30, %45
  ret void
}

; Function Attrs: nounwind ssp uwtable
define hidden void @_ZN5blink5mojom5blink32WebBluetoothRemoteGATTDescriptorD2Ev(%"class.blink::mojom::blink::WebBluetoothRemoteGATTDescriptor"* nocapture readonly) unnamed_addr #0 align 2 {
  %2 = getelementptr inbounds %"class.blink::mojom::blink::WebBluetoothRemoteGATTDescriptor", %"class.blink::mojom::blink::WebBluetoothRemoteGATTDescriptor"* %0, i64 0, i32 1, i32 0, i32 0
  %3 = load %"class.WTF::StringImpl"*, %"class.WTF::StringImpl"** %2, align 8
  %4 = icmp eq %"class.WTF::StringImpl"* %3, null
  br i1 %4, label %18, label %5

5:                                                ; preds = %1
  %6 = getelementptr inbounds %"class.WTF::StringImpl", %"class.WTF::StringImpl"* %3, i64 0, i32 2, i32 0, i32 0, i32 0, i32 0, i32 0
  %7 = load atomic i32, i32* %6 monotonic, align 4
  %8 = and i32 %7, 2
  %9 = icmp eq i32 %8, 0
  %10 = getelementptr inbounds %"class.WTF::StringImpl", %"class.WTF::StringImpl"* %3, i64 0, i32 0
  %11 = load i32, i32* %10, align 4
  br i1 %9, label %12, label %14

12:                                               ; preds = %5
  %13 = add i32 %11, -1
  store i32 %13, i32* %10, align 4
  br label %14

14:                                               ; preds = %12, %5
  %15 = phi i32 [ %13, %12 ], [ %11, %5 ]
  %16 = icmp eq i32 %15, 0
  br i1 %16, label %17, label %18

17:                                               ; preds = %14
  tail call void @_ZNK3WTF10StringImpl18DestroyIfNotStaticEv(%"class.WTF::StringImpl"* nonnull %3) #12
  br label %18

18:                                               ; preds = %1, %14, %17
  %19 = getelementptr inbounds %"class.blink::mojom::blink::WebBluetoothRemoteGATTDescriptor", %"class.blink::mojom::blink::WebBluetoothRemoteGATTDescriptor"* %0, i64 0, i32 0, i32 0, i32 0
  %20 = load %"class.WTF::StringImpl"*, %"class.WTF::StringImpl"** %19, align 8
  %21 = icmp eq %"class.WTF::StringImpl"* %20, null
  br i1 %21, label %35, label %22

22:                                               ; preds = %18
  %23 = getelementptr inbounds %"class.WTF::StringImpl", %"class.WTF::StringImpl"* %20, i64 0, i32 2, i32 0, i32 0, i32 0, i32 0, i32 0
  %24 = load atomic i32, i32* %23 monotonic, align 4
  %25 = and i32 %24, 2
  %26 = icmp eq i32 %25, 0
  %27 = getelementptr inbounds %"class.WTF::StringImpl", %"class.WTF::StringImpl"* %20, i64 0, i32 0
  %28 = load i32, i32* %27, align 4
  br i1 %26, label %29, label %31

29:                                               ; preds = %22
  %30 = add i32 %28, -1
  store i32 %30, i32* %27, align 4
  br label %31

31:                                               ; preds = %29, %22
  %32 = phi i32 [ %30, %29 ], [ %28, %22 ]
  %33 = icmp eq i32 %32, 0
  br i1 %33, label %34, label %35

34:                                               ; preds = %31
  tail call void @_ZNK3WTF10StringImpl18DestroyIfNotStaticEv(%"class.WTF::StringImpl"* nonnull %20) #12
  br label %35

35:                                               ; preds = %18, %31, %34
  ret void
}

; Function Attrs: nounwind ssp uwtable
define hidden void @_ZNK5blink5mojom5blink32WebBluetoothRemoteGATTDescriptor14WriteIntoTraceEN8perfetto11TracedValueE(%"class.blink::mojom::blink::WebBluetoothRemoteGATTDescriptor"*, %"class.perfetto::TracedValue"*) local_unnamed_addr #0 align 2 {
  %3 = alloca %"class.perfetto::TracedValue", align 8
  %4 = alloca %"class.perfetto::TracedValue", align 8
  %5 = alloca %"class.perfetto::TracedDictionary", align 8
  %6 = alloca %"class.perfetto::TracedValue", align 8
  %7 = alloca %"class.perfetto::TracedValue", align 8
  %8 = bitcast %"class.perfetto::TracedDictionary"* %5 to i8*
  call void @llvm.lifetime.start.p0i8(i64 16, i8* nonnull %8) #12
  %9 = bitcast %"class.perfetto::TracedDictionary"* %5 to i8*
  call void @llvm.memset.p0i8.i64(i8* nonnull align 8 %9, i8 -86, i64 16, i1 false)
  call void @_ZNO8perfetto11TracedValue15WriteDictionaryEv(%"class.perfetto::TracedDictionary"* nonnull sret %5, %"class.perfetto::TracedValue"* %1) #12
  call void @_ZN8perfetto16TracedDictionary7AddItemENS_12StaticStringE(%"class.perfetto::TracedValue"* nonnull sret %6, %"class.perfetto::TracedDictionary"* nonnull %5, i8* getelementptr inbounds ([12 x i8], [12 x i8]* @.str.15, i64 0, i64 0)) #12
  %10 = getelementptr inbounds %"class.blink::mojom::blink::WebBluetoothRemoteGATTDescriptor", %"class.blink::mojom::blink::WebBluetoothRemoteGATTDescriptor"* %0, i64 0, i32 0
  %11 = bitcast %"class.perfetto::TracedValue"* %6 to i8*
  %12 = bitcast %"class.perfetto::TracedValue"* %3 to i8*
  call void @llvm.lifetime.start.p0i8(i64 16, i8* nonnull %12) #12
  call void @llvm.memcpy.p0i8.p0i8.i64(i8* nonnull align 8 %12, i8* nonnull align 8 %11, i64 16, i1 false) #12
  call void @_ZNK3WTF6String14WriteIntoTraceEN8perfetto11TracedValueE(%"class.WTF::String"* %10, %"class.perfetto::TracedValue"* nonnull %3) #12
  call void @llvm.lifetime.end.p0i8(i64 16, i8* nonnull %12) #12
  call void @_ZN8perfetto16TracedDictionary7AddItemENS_12StaticStringE(%"class.perfetto::TracedValue"* nonnull sret %7, %"class.perfetto::TracedDictionary"* nonnull %5, i8* getelementptr inbounds ([5 x i8], [5 x i8]* @.str.16, i64 0, i64 0)) #12
  %13 = getelementptr inbounds %"class.blink::mojom::blink::WebBluetoothRemoteGATTDescriptor", %"class.blink::mojom::blink::WebBluetoothRemoteGATTDescriptor"* %0, i64 0, i32 1
  %14 = bitcast %"class.perfetto::TracedValue"* %7 to i8*
  %15 = bitcast %"class.perfetto::TracedValue"* %4 to i8*
  call void @llvm.lifetime.start.p0i8(i64 16, i8* nonnull %15) #12
  call void @llvm.memcpy.p0i8.p0i8.i64(i8* nonnull align 8 %15, i8* nonnull align 8 %14, i64 16, i1 false) #12
  call void @_ZNK3WTF6String14WriteIntoTraceEN8perfetto11TracedValueE(%"class.WTF::String"* %13, %"class.perfetto::TracedValue"* nonnull %4) #12
  call void @llvm.lifetime.end.p0i8(i64 16, i8* nonnull %15) #12
  call void @llvm.lifetime.end.p0i8(i64 16, i8* nonnull %8) #12
  ret void
}

; Function Attrs: nounwind ssp uwtable
define hidden zeroext i1 @_ZN5blink5mojom5blink32WebBluetoothRemoteGATTDescriptor8ValidateEPKvPN4mojo8internal17ValidationContextE(i8*, %"class.mojo::internal::ValidationContext"*) local_unnamed_addr #0 align 2 {
  %3 = tail call zeroext i1 @_ZN5blink5mojom8internal37WebBluetoothRemoteGATTDescriptor_Data8ValidateEPKvPN4mojo8internal17ValidationContextE(i8* %0, %"class.mojo::internal::ValidationContext"* %1) #12
  ret i1 %3
}

declare zeroext i1 @_ZN5blink5mojom8internal37WebBluetoothRemoteGATTDescriptor_Data8ValidateEPKvPN4mojo8internal17ValidationContextE(i8*, %"class.mojo::internal::ValidationContext"*) local_unnamed_addr #2

; Function Attrs: nofree norecurse nounwind ssp uwtable writeonly
define hidden void @_ZN5blink5mojom5blink24WebBluetoothServiceProxyC2EPN4mojo28MessageReceiverWithResponderE(%"class.blink::mojom::blink::WebBluetoothServiceProxy"* nocapture, %"class.mojo::MessageReceiverWithResponder"*) unnamed_addr #3 align 2 {
  %3 = getelementptr inbounds %"class.blink::mojom::blink::WebBluetoothServiceProxy", %"class.blink::mojom::blink::WebBluetoothServiceProxy"* %0, i64 0, i32 0, i32 0
  store i32 (...)** bitcast (i8** getelementptr inbounds ({ [20 x i8*] }, { [20 x i8*] }* @_ZTVN5blink5mojom5blink24WebBluetoothServiceProxyE, i64 0, inrange i32 0, i64 2) to i32 (...)**), i32 (...)*** %3, align 8
  %4 = getelementptr inbounds %"class.blink::mojom::blink::WebBluetoothServiceProxy", %"class.blink::mojom::blink::WebBluetoothServiceProxy"* %0, i64 0, i32 1
  store %"class.mojo::MessageReceiverWithResponder"* %1, %"class.mojo::MessageReceiverWithResponder"** %4, align 8
  ret void
}

; Function Attrs: nounwind ssp uwtable
define hidden void @_ZN5blink5mojom5blink24WebBluetoothServiceProxy15GetAvailabilityEN4base12OnceCallbackIFvbEEE(%"class.blink::mojom::blink::WebBluetoothServiceProxy"* nocapture readonly, %"class.base::OnceCallback"* nocapture) unnamed_addr #0 align 2 {
  %3 = alloca %"class.mojo::Message", align 8
  %4 = alloca %"class.base::OnceCallback", align 8
  %5 = bitcast %"class.mojo::Message"* %3 to i8*
  call void @llvm.lifetime.start.p0i8(i64 120, i8* nonnull %5) #12
  call void @llvm.memset.p0i8.i64(i8* nonnull align 8 %5, i8 -86, i64 120, i1 false)
  call void @_ZN4mojo7MessageC1EjjmmPNSt3__16vectorINS_16ScopedHandleBaseINS_6HandleEEENS1_9allocatorIS5_EEEE(%"class.mojo::Message"* nonnull %3, i32 1172563722, i32 1, i64 0, i64 0, %"class.std::__1::vector"* null) #12
  %6 = getelementptr inbounds %"class.mojo::Message", %"class.mojo::Message"* %3, i64 0, i32 1
  %7 = call i64 @_ZN4mojo8internal6Buffer8AllocateEm(%"class.mojo::internal::Buffer"* %6, i64 8) #12
  %8 = getelementptr inbounds %"class.mojo::Message", %"class.mojo::Message"* %3, i64 0, i32 1, i32 2
  %9 = load i8*, i8** %8, align 8
  %10 = getelementptr inbounds i8, i8* %9, i64 %7
  %11 = bitcast i8* %10 to %"class.blink::mojom::internal::WebBluetoothService_GetAvailability_Params_Data"*
  call void @_ZN5blink5mojom8internal47WebBluetoothService_GetAvailability_Params_DataC1Ev(%"class.blink::mojom::internal::WebBluetoothService_GetAvailability_Params_Data"* %11) #12
  %12 = call i8* @_Znwm(i64 16) #13
  %13 = getelementptr inbounds %"class.base::OnceCallback", %"class.base::OnceCallback"* %1, i64 0, i32 0, i32 0, i32 0
  %14 = bitcast %"class.base::OnceCallback"* %1 to i64*
  %15 = load i64, i64* %14, align 8
  store %"class.base::internal::BindStateBase"* null, %"class.base::internal::BindStateBase"** %13, align 8
  %16 = bitcast i8* %12 to i32 (...)***
  store i32 (...)** bitcast (i8** getelementptr inbounds ({ [6 x i8*] }, { [6 x i8*] }* @_ZTVN5blink5mojom5blink53WebBluetoothService_GetAvailability_ForwardToCallbackE, i64 0, inrange i32 0, i64 2) to i32 (...)**), i32 (...)*** %16, align 8
  %17 = getelementptr inbounds i8, i8* %12, i64 8
  %18 = getelementptr inbounds %"class.base::OnceCallback", %"class.base::OnceCallback"* %4, i64 0, i32 0, i32 0, i32 0
  %19 = bitcast i8* %17 to i64*
  store i64 %15, i64* %19, align 8
  store %"class.base::internal::BindStateBase"* null, %"class.base::internal::BindStateBase"** %18, align 8
  %20 = bitcast i8* %12 to %"class.mojo::MessageReceiver"*
  %21 = getelementptr inbounds %"class.base::OnceCallback", %"class.base::OnceCallback"* %4, i64 0, i32 0
  call void @_ZN4base8internal12CallbackBaseD2Ev(%"class.base::internal::CallbackBase"* nonnull %21) #12
  %22 = getelementptr inbounds %"class.blink::mojom::blink::WebBluetoothServiceProxy", %"class.blink::mojom::blink::WebBluetoothServiceProxy"* %0, i64 0, i32 1
  %23 = load %"class.mojo::MessageReceiverWithResponder"*, %"class.mojo::MessageReceiverWithResponder"** %22, align 8
  %24 = bitcast %"class.mojo::MessageReceiverWithResponder"* %23 to i1 (%"class.mojo::MessageReceiverWithResponder"*, %"class.mojo::Message"*, %"class.mojo::MessageReceiver"*)***
  %25 = load i1 (%"class.mojo::MessageReceiverWithResponder"*, %"class.mojo::Message"*, %"class.mojo::MessageReceiver"*)**, i1 (%"class.mojo::MessageReceiverWithResponder"*, %"class.mojo::Message"*, %"class.mojo::MessageReceiver"*)*** %24, align 8
  %26 = getelementptr inbounds i1 (%"class.mojo::MessageReceiverWithResponder"*, %"class.mojo::Message"*, %"class.mojo::MessageReceiver"*)*, i1 (%"class.mojo::MessageReceiverWithResponder"*, %"class.mojo::Message"*, %"class.mojo::MessageReceiver"*)** %25, i64 4
  %27 = load i1 (%"class.mojo::MessageReceiverWithResponder"*, %"class.mojo::Message"*, %"class.mojo::MessageReceiver"*)*, i1 (%"class.mojo::MessageReceiverWithResponder"*, %"class.mojo::Message"*, %"class.mojo::MessageReceiver"*)** %26, align 8
  %28 = call zeroext i1 %27(%"class.mojo::MessageReceiverWithResponder"* %23, %"class.mojo::Message"* nonnull %3, %"class.mojo::MessageReceiver"* nonnull %20) #12
  call void @_ZN4mojo7MessageD1Ev(%"class.mojo::Message"* nonnull %3) #12
  call void @llvm.lifetime.end.p0i8(i64 120, i8* nonnull %5) #12
  ret void
}

declare void @_ZN4mojo7MessageC1EjjmmPNSt3__16vectorINS_16ScopedHandleBaseINS_6HandleEEENS1_9allocatorIS5_EEEE(%"class.mojo::Message"*, i32, i32, i64, i64, %"class.std::__1::vector"*) unnamed_addr #2

; Function Attrs: nobuiltin nofree
declare noalias nonnull i8* @_Znwm(i64) local_unnamed_addr #6

; Function Attrs: nounwind
declare void @_ZN4mojo7MessageD1Ev(%"class.mojo::Message"*) unnamed_addr #7

; Function Attrs: nounwind ssp uwtable
define hidden void @_ZN5blink5mojom5blink24WebBluetoothServiceProxy13RequestDeviceEN4mojo9StructPtrINS1_32WebBluetoothRequestDeviceOptionsEEEN4base12OnceCallbackIFvNS0_18WebBluetoothResultENS4_INS1_18WebBluetoothDeviceEEEEEE(%"class.blink::mojom::blink::WebBluetoothServiceProxy"* nocapture readonly, %"class.mojo::StructPtr.91"*, %"class.base::OnceCallback.98"* nocapture) unnamed_addr #0 align 2 {
  %4 = alloca %"class.mojo::Message", align 8
  %5 = alloca %"class.mojo::internal::MessageFragment.100", align 8
  %6 = alloca %"class.base::OnceCallback.98", align 8
  %7 = bitcast %"class.mojo::Message"* %4 to i8*
  call void @llvm.lifetime.start.p0i8(i64 120, i8* nonnull %7) #12
  call void @llvm.memset.p0i8.i64(i8* nonnull align 8 %7, i8 -86, i64 120, i1 false)
  call void @_ZN4mojo7MessageC1EjjmmPNSt3__16vectorINS_16ScopedHandleBaseINS_6HandleEEENS1_9allocatorIS5_EEEE(%"class.mojo::Message"* nonnull %4, i32 953739893, i32 1, i64 0, i64 0, %"class.std::__1::vector"* null) #12
  %8 = getelementptr inbounds %"class.mojo::Message", %"class.mojo::Message"* %4, i64 0, i32 1
  %9 = call i64 @_ZN4mojo8internal6Buffer8AllocateEm(%"class.mojo::internal::Buffer"* %8, i64 16) #12
  %10 = getelementptr inbounds %"class.mojo::Message", %"class.mojo::Message"* %4, i64 0, i32 1, i32 2
  %11 = load i8*, i8** %10, align 8
  %12 = getelementptr inbounds i8, i8* %11, i64 %9
  %13 = bitcast i8* %12 to %"class.blink::mojom::internal::WebBluetoothService_RequestDevice_Params_Data"*
  call void @_ZN5blink5mojom8internal45WebBluetoothService_RequestDevice_Params_DataC1Ev(%"class.blink::mojom::internal::WebBluetoothService_RequestDevice_Params_Data"* %13) #12
  %14 = bitcast %"class.mojo::internal::MessageFragment.100"* %5 to i8*
  call void @llvm.lifetime.start.p0i8(i64 16, i8* nonnull %14) #12
  %15 = getelementptr inbounds %"class.mojo::internal::MessageFragment.100", %"class.mojo::internal::MessageFragment.100"* %5, i64 0, i32 0
  %16 = getelementptr inbounds %"class.mojo::internal::MessageFragment.100", %"class.mojo::internal::MessageFragment.100"* %5, i64 0, i32 1
  store %"class.mojo::Message"* %4, %"class.mojo::Message"** %15, align 8
  store i64 -1, i64* %16, align 8
  call void @_ZN4mojo8internal10SerializerIN5blink5mojom40WebBluetoothRequestDeviceOptionsDataViewENS_9StructPtrINS3_5blink32WebBluetoothRequestDeviceOptionsEEEE9SerializeERS8_RNS0_15MessageFragmentINS3_8internal37WebBluetoothRequestDeviceOptions_DataEEE(%"class.mojo::StructPtr.91"* dereferenceable(8) %1, %"class.mojo::internal::MessageFragment.100"* nonnull dereferenceable(16) %5) #12
  %17 = load i8*, i8** %10, align 8
  %18 = getelementptr inbounds i8, i8* %17, i64 %9
  %19 = getelementptr inbounds i8, i8* %18, i64 8
  %20 = load i64, i64* %16, align 8
  %21 = icmp eq i64 %20, -1
  br i1 %21, label %28, label %22

22:                                               ; preds = %3
  %23 = load %"class.mojo::Message"*, %"class.mojo::Message"** %15, align 8
  %24 = getelementptr inbounds %"class.mojo::Message", %"class.mojo::Message"* %23, i64 0, i32 1, i32 2
  %25 = load i8*, i8** %24, align 8
  %26 = getelementptr inbounds i8, i8* %25, i64 %20
  %27 = bitcast i8* %26 to %"class.blink::mojom::internal::WebBluetoothRequestDeviceOptions_Data"*
  br label %28

28:                                               ; preds = %22, %3
  %29 = phi %"class.blink::mojom::internal::WebBluetoothRequestDeviceOptions_Data"* [ %27, %22 ], [ null, %3 ]
  %30 = bitcast i8* %19 to i64*
  %31 = icmp eq %"class.blink::mojom::internal::WebBluetoothRequestDeviceOptions_Data"* %29, null
  %32 = ptrtoint %"class.blink::mojom::internal::WebBluetoothRequestDeviceOptions_Data"* %29 to i64
  %33 = ptrtoint i8* %19 to i64
  %34 = sub i64 %32, %33
  %35 = select i1 %31, i64 0, i64 %34
  store i64 %35, i64* %30, align 8
  %36 = call i8* @_Znwm(i64 16) #13
  %37 = getelementptr inbounds %"class.base::OnceCallback.98", %"class.base::OnceCallback.98"* %2, i64 0, i32 0, i32 0, i32 0
  %38 = bitcast %"class.base::OnceCallback.98"* %2 to i64*
  %39 = load i64, i64* %38, align 8
  store %"class.base::internal::BindStateBase"* null, %"class.base::internal::BindStateBase"** %37, align 8
  %40 = bitcast i8* %36 to i32 (...)***
  store i32 (...)** bitcast (i8** getelementptr inbounds ({ [6 x i8*] }, { [6 x i8*] }* @_ZTVN5blink5mojom5blink51WebBluetoothService_RequestDevice_ForwardToCallbackE, i64 0, inrange i32 0, i64 2) to i32 (...)**), i32 (...)*** %40, align 8
  %41 = getelementptr inbounds i8, i8* %36, i64 8
  %42 = getelementptr inbounds %"class.base::OnceCallback.98", %"class.base::OnceCallback.98"* %6, i64 0, i32 0, i32 0, i32 0
  %43 = bitcast i8* %41 to i64*
  store i64 %39, i64* %43, align 8
  store %"class.base::internal::BindStateBase"* null, %"class.base::internal::BindStateBase"** %42, align 8
  %44 = bitcast i8* %36 to %"class.mojo::MessageReceiver"*
  %45 = getelementptr inbounds %"class.base::OnceCallback.98", %"class.base::OnceCallback.98"* %6, i64 0, i32 0
  call void @_ZN4base8internal12CallbackBaseD2Ev(%"class.base::internal::CallbackBase"* nonnull %45) #12
  %46 = getelementptr inbounds %"class.blink::mojom::blink::WebBluetoothServiceProxy", %"class.blink::mojom::blink::WebBluetoothServiceProxy"* %0, i64 0, i32 1
  %47 = load %"class.mojo::MessageReceiverWithResponder"*, %"class.mojo::MessageReceiverWithResponder"** %46, align 8
  %48 = bitcast %"class.mojo::MessageReceiverWithResponder"* %47 to i1 (%"class.mojo::MessageReceiverWithResponder"*, %"class.mojo::Message"*, %"class.mojo::MessageReceiver"*)***
  %49 = load i1 (%"class.mojo::MessageReceiverWithResponder"*, %"class.mojo::Message"*, %"class.mojo::MessageReceiver"*)**, i1 (%"class.mojo::MessageReceiverWithResponder"*, %"class.mojo::Message"*, %"class.mojo::MessageReceiver"*)*** %48, align 8
  %50 = getelementptr inbounds i1 (%"class.mojo::MessageReceiverWithResponder"*, %"class.mojo::Message"*, %"class.mojo::MessageReceiver"*)*, i1 (%"class.mojo::MessageReceiverWithResponder"*, %"class.mojo::Message"*, %"class.mojo::MessageReceiver"*)** %49, i64 4
  %51 = load i1 (%"class.mojo::MessageReceiverWithResponder"*, %"class.mojo::Message"*, %"class.mojo::MessageReceiver"*)*, i1 (%"class.mojo::MessageReceiverWithResponder"*, %"class.mojo::Message"*, %"class.mojo::MessageReceiver"*)** %50, align 8
  %52 = call zeroext i1 %51(%"class.mojo::MessageReceiverWithResponder"* %47, %"class.mojo::Message"* nonnull %4, %"class.mojo::MessageReceiver"* nonnull %44) #12
  call void @llvm.lifetime.end.p0i8(i64 16, i8* nonnull %14) #12
  call void @_ZN4mojo7MessageD1Ev(%"class.mojo::Message"* nonnull %4) #12
  call void @llvm.lifetime.end.p0i8(i64 120, i8* nonnull %7) #12
  ret void
}

; Function Attrs: nounwind ssp uwtable
define hidden void @_ZN5blink5mojom5blink24WebBluetoothServiceProxy10GetDevicesEN4base12OnceCallbackIFvN3WTF6VectorIN4mojo9StructPtrINS1_18WebBluetoothDeviceEEELj0ENS5_18PartitionAllocatorEEEEEE(%"class.blink::mojom::blink::WebBluetoothServiceProxy"* nocapture readonly, %"class.base::OnceCallback.104"* nocapture) unnamed_addr #0 align 2 {
  %3 = alloca %"class.mojo::Message", align 8
  %4 = alloca %"class.base::OnceCallback.104", align 8
  %5 = bitcast %"class.mojo::Message"* %3 to i8*
  call void @llvm.lifetime.start.p0i8(i64 120, i8* nonnull %5) #12
  call void @llvm.memset.p0i8.i64(i8* nonnull align 8 %5, i8 -86, i64 120, i1 false)
  call void @_ZN4mojo7MessageC1EjjmmPNSt3__16vectorINS_16ScopedHandleBaseINS_6HandleEEENS1_9allocatorIS5_EEEE(%"class.mojo::Message"* nonnull %3, i32 97698673, i32 1, i64 0, i64 0, %"class.std::__1::vector"* null) #12
  %6 = getelementptr inbounds %"class.mojo::Message", %"class.mojo::Message"* %3, i64 0, i32 1
  %7 = call i64 @_ZN4mojo8internal6Buffer8AllocateEm(%"class.mojo::internal::Buffer"* %6, i64 8) #12
  %8 = getelementptr inbounds %"class.mojo::Message", %"class.mojo::Message"* %3, i64 0, i32 1, i32 2
  %9 = load i8*, i8** %8, align 8
  %10 = getelementptr inbounds i8, i8* %9, i64 %7
  %11 = bitcast i8* %10 to %"class.blink::mojom::internal::WebBluetoothService_GetDevices_Params_Data"*
  call void @_ZN5blink5mojom8internal42WebBluetoothService_GetDevices_Params_DataC1Ev(%"class.blink::mojom::internal::WebBluetoothService_GetDevices_Params_Data"* %11) #12
  %12 = call i8* @_Znwm(i64 16) #13
  %13 = getelementptr inbounds %"class.base::OnceCallback.104", %"class.base::OnceCallback.104"* %1, i64 0, i32 0, i32 0, i32 0
  %14 = bitcast %"class.base::OnceCallback.104"* %1 to i64*
  %15 = load i64, i64* %14, align 8
  store %"class.base::internal::BindStateBase"* null, %"class.base::internal::BindStateBase"** %13, align 8
  %16 = bitcast i8* %12 to i32 (...)***
  store i32 (...)** bitcast (i8** getelementptr inbounds ({ [6 x i8*] }, { [6 x i8*] }* @_ZTVN5blink5mojom5blink48WebBluetoothService_GetDevices_ForwardToCallbackE, i64 0, inrange i32 0, i64 2) to i32 (...)**), i32 (...)*** %16, align 8
  %17 = getelementptr inbounds i8, i8* %12, i64 8
  %18 = getelementptr inbounds %"class.base::OnceCallback.104", %"class.base::OnceCallback.104"* %4, i64 0, i32 0, i32 0, i32 0
  %19 = bitcast i8* %17 to i64*
  store i64 %15, i64* %19, align 8
  store %"class.base::internal::BindStateBase"* null, %"class.base::internal::BindStateBase"** %18, align 8
  %20 = bitcast i8* %12 to %"class.mojo::MessageReceiver"*
  %21 = getelementptr inbounds %"class.base::OnceCallback.104", %"class.base::OnceCallback.104"* %4, i64 0, i32 0
  call void @_ZN4base8internal12CallbackBaseD2Ev(%"class.base::internal::CallbackBase"* nonnull %21) #12
  %22 = getelementptr inbounds %"class.blink::mojom::blink::WebBluetoothServiceProxy", %"class.blink::mojom::blink::WebBluetoothServiceProxy"* %0, i64 0, i32 1
  %23 = load %"class.mojo::MessageReceiverWithResponder"*, %"class.mojo::MessageReceiverWithResponder"** %22, align 8
  %24 = bitcast %"class.mojo::MessageReceiverWithResponder"* %23 to i1 (%"class.mojo::MessageReceiverWithResponder"*, %"class.mojo::Message"*, %"class.mojo::MessageReceiver"*)***
  %25 = load i1 (%"class.mojo::MessageReceiverWithResponder"*, %"class.mojo::Message"*, %"class.mojo::MessageReceiver"*)**, i1 (%"class.mojo::MessageReceiverWithResponder"*, %"class.mojo::Message"*, %"class.mojo::MessageReceiver"*)*** %24, align 8
  %26 = getelementptr inbounds i1 (%"class.mojo::MessageReceiverWithResponder"*, %"class.mojo::Message"*, %"class.mojo::MessageReceiver"*)*, i1 (%"class.mojo::MessageReceiverWithResponder"*, %"class.mojo::Message"*, %"class.mojo::MessageReceiver"*)** %25, i64 4
  %27 = load i1 (%"class.mojo::MessageReceiverWithResponder"*, %"class.mojo::Message"*, %"class.mojo::MessageReceiver"*)*, i1 (%"class.mojo::MessageReceiverWithResponder"*, %"class.mojo::Message"*, %"class.mojo::MessageReceiver"*)** %26, align 8
  %28 = call zeroext i1 %27(%"class.mojo::MessageReceiverWithResponder"* %23, %"class.mojo::Message"* nonnull %3, %"class.mojo::MessageReceiver"* nonnull %20) #12
  call void @_ZN4mojo7MessageD1Ev(%"class.mojo::Message"* nonnull %3) #12
  call void @llvm.lifetime.end.p0i8(i64 120, i8* nonnull %5) #12
  ret void
}

; Function Attrs: nounwind ssp uwtable
define hidden void @_ZN5blink5mojom5blink24WebBluetoothServiceProxy19RemoteServerConnectERKN3WTF6StringEN4mojo23PendingAssociatedRemoteINS1_24WebBluetoothServerClientEEEN4base12OnceCallbackIFvNS0_18WebBluetoothResultEEEE(%"class.blink::mojom::blink::WebBluetoothServiceProxy"* nocapture readonly, %"class.WTF::String"* dereferenceable(8), %"class.mojo::PendingAssociatedRemote"*, %"class.base::OnceCallback.106"* nocapture) unnamed_addr #0 align 2 {
  %5 = alloca %"class.mojo::ScopedInterfaceEndpointHandle", align 8
  %6 = alloca %"class.mojo::Message", align 8
  %7 = alloca %"class.mojo::internal::MessageFragment.108", align 8
  %8 = alloca %"class.base::OnceCallback.106", align 8
  %9 = bitcast %"class.mojo::Message"* %6 to i8*
  call void @llvm.lifetime.start.p0i8(i64 120, i8* nonnull %9) #12
  call void @llvm.memset.p0i8.i64(i8* nonnull align 8 %9, i8 -86, i64 120, i1 false)
  call void @_ZN4mojo7MessageC1EjjmmPNSt3__16vectorINS_16ScopedHandleBaseINS_6HandleEEENS1_9allocatorIS5_EEEE(%"class.mojo::Message"* nonnull %6, i32 447768052, i32 1, i64 0, i64 0, %"class.std::__1::vector"* null) #12
  %10 = getelementptr inbounds %"class.mojo::Message", %"class.mojo::Message"* %6, i64 0, i32 1
  %11 = call i64 @_ZN4mojo8internal6Buffer8AllocateEm(%"class.mojo::internal::Buffer"* %10, i64 24) #12
  %12 = getelementptr inbounds %"class.mojo::Message", %"class.mojo::Message"* %6, i64 0, i32 1, i32 2
  %13 = load i8*, i8** %12, align 8
  %14 = getelementptr inbounds i8, i8* %13, i64 %11
  %15 = bitcast i8* %14 to %"class.blink::mojom::internal::WebBluetoothService_RemoteServerConnect_Params_Data"*
  call void @_ZN5blink5mojom8internal51WebBluetoothService_RemoteServerConnect_Params_DataC1Ev(%"class.blink::mojom::internal::WebBluetoothService_RemoteServerConnect_Params_Data"* %15) #12
  %16 = bitcast %"class.mojo::internal::MessageFragment.108"* %7 to i8*
  call void @llvm.lifetime.start.p0i8(i64 16, i8* nonnull %16) #12
  %17 = getelementptr inbounds %"class.mojo::internal::MessageFragment.108", %"class.mojo::internal::MessageFragment.108"* %7, i64 0, i32 0
  %18 = getelementptr inbounds %"class.mojo::internal::MessageFragment.108", %"class.mojo::internal::MessageFragment.108"* %7, i64 0, i32 1
  store %"class.mojo::Message"* %6, %"class.mojo::Message"** %17, align 8
  store i64 -1, i64* %18, align 8
  call void @_ZN4mojo8internal10SerializerIN5blink5mojom28WebBluetoothDeviceIdDataViewEKN3WTF6StringEE9SerializeERS7_RNS0_15MessageFragmentINS3_8internal25WebBluetoothDeviceId_DataEEE(%"class.WTF::String"* dereferenceable(8) %1, %"class.mojo::internal::MessageFragment.108"* nonnull dereferenceable(16) %7) #12
  %19 = load i8*, i8** %12, align 8
  %20 = getelementptr inbounds i8, i8* %19, i64 %11
  %21 = getelementptr inbounds i8, i8* %20, i64 8
  %22 = load i64, i64* %18, align 8
  %23 = icmp eq i64 %22, -1
  br i1 %23, label %30, label %24

24:                                               ; preds = %4
  %25 = load %"class.mojo::Message"*, %"class.mojo::Message"** %17, align 8
  %26 = getelementptr inbounds %"class.mojo::Message", %"class.mojo::Message"* %25, i64 0, i32 1, i32 2
  %27 = load i8*, i8** %26, align 8
  %28 = getelementptr inbounds i8, i8* %27, i64 %22
  %29 = bitcast i8* %28 to %"class.blink::mojom::internal::WebBluetoothDeviceId_Data"*
  br label %30

30:                                               ; preds = %24, %4
  %31 = phi %"class.blink::mojom::internal::WebBluetoothDeviceId_Data"* [ %29, %24 ], [ null, %4 ]
  %32 = bitcast i8* %21 to i64*
  %33 = icmp eq %"class.blink::mojom::internal::WebBluetoothDeviceId_Data"* %31, null
  %34 = ptrtoint %"class.blink::mojom::internal::WebBluetoothDeviceId_Data"* %31 to i64
  %35 = ptrtoint i8* %21 to i64
  %36 = sub i64 %34, %35
  %37 = select i1 %33, i64 0, i64 %36
  store i64 %37, i64* %32, align 8
  %38 = load i8*, i8** %12, align 8
  %39 = getelementptr inbounds i8, i8* %38, i64 %11
  %40 = getelementptr inbounds i8, i8* %39, i64 16
  %41 = bitcast i8* %40 to %"struct.mojo::internal::AssociatedInterface_Data"*
  %42 = bitcast %"class.mojo::ScopedInterfaceEndpointHandle"* %5 to i8*
  call void @llvm.lifetime.start.p0i8(i64 8, i8* nonnull %42) #12
  %43 = getelementptr inbounds %"class.mojo::PendingAssociatedRemote", %"class.mojo::PendingAssociatedRemote"* %2, i64 0, i32 0
  call void @_ZN4mojo29ScopedInterfaceEndpointHandleC1EOS0_(%"class.mojo::ScopedInterfaceEndpointHandle"* nonnull %5, %"class.mojo::ScopedInterfaceEndpointHandle"* dereferenceable(8) %43) #12
  %44 = getelementptr inbounds %"class.mojo::PendingAssociatedRemote", %"class.mojo::PendingAssociatedRemote"* %2, i64 0, i32 1
  %45 = load i32, i32* %44, align 8
  call void @_ZN4mojo8internal32SerializeAssociatedInterfaceInfoENS_29ScopedInterfaceEndpointHandleEjRNS_7MessageERNS0_24AssociatedInterface_DataE(%"class.mojo::ScopedInterfaceEndpointHandle"* nonnull %5, i32 %45, %"class.mojo::Message"* nonnull dereferenceable(120) %6, %"struct.mojo::internal::AssociatedInterface_Data"* dereferenceable(8) %41) #12
  call void @_ZN4mojo29ScopedInterfaceEndpointHandleD1Ev(%"class.mojo::ScopedInterfaceEndpointHandle"* nonnull %5) #12
  call void @llvm.lifetime.end.p0i8(i64 8, i8* nonnull %42) #12
  %46 = call i8* @_Znwm(i64 16) #13
  %47 = getelementptr inbounds %"class.base::OnceCallback.106", %"class.base::OnceCallback.106"* %3, i64 0, i32 0, i32 0, i32 0
  %48 = bitcast %"class.base::OnceCallback.106"* %3 to i64*
  %49 = load i64, i64* %48, align 8
  store %"class.base::internal::BindStateBase"* null, %"class.base::internal::BindStateBase"** %47, align 8
  %50 = bitcast i8* %46 to i32 (...)***
  store i32 (...)** bitcast (i8** getelementptr inbounds ({ [6 x i8*] }, { [6 x i8*] }* @_ZTVN5blink5mojom5blink57WebBluetoothService_RemoteServerConnect_ForwardToCallbackE, i64 0, inrange i32 0, i64 2) to i32 (...)**), i32 (...)*** %50, align 8
  %51 = getelementptr inbounds i8, i8* %46, i64 8
  %52 = getelementptr inbounds %"class.base::OnceCallback.106", %"class.base::OnceCallback.106"* %8, i64 0, i32 0, i32 0, i32 0
  %53 = bitcast i8* %51 to i64*
  store i64 %49, i64* %53, align 8
  store %"class.base::internal::BindStateBase"* null, %"class.base::internal::BindStateBase"** %52, align 8
  %54 = bitcast i8* %46 to %"class.mojo::MessageReceiver"*
  %55 = getelementptr inbounds %"class.base::OnceCallback.106", %"class.base::OnceCallback.106"* %8, i64 0, i32 0
  call void @_ZN4base8internal12CallbackBaseD2Ev(%"class.base::internal::CallbackBase"* nonnull %55) #12
  %56 = getelementptr inbounds %"class.blink::mojom::blink::WebBluetoothServiceProxy", %"class.blink::mojom::blink::WebBluetoothServiceProxy"* %0, i64 0, i32 1
  %57 = load %"class.mojo::MessageReceiverWithResponder"*, %"class.mojo::MessageReceiverWithResponder"** %56, align 8
  %58 = bitcast %"class.mojo::MessageReceiverWithResponder"* %57 to i1 (%"class.mojo::MessageReceiverWithResponder"*, %"class.mojo::Message"*, %"class.mojo::MessageReceiver"*)***
  %59 = load i1 (%"class.mojo::MessageReceiverWithResponder"*, %"class.mojo::Message"*, %"class.mojo::MessageReceiver"*)**, i1 (%"class.mojo::MessageReceiverWithResponder"*, %"class.mojo::Message"*, %"class.mojo::MessageReceiver"*)*** %58, align 8
  %60 = getelementptr inbounds i1 (%"class.mojo::MessageReceiverWithResponder"*, %"class.mojo::Message"*, %"class.mojo::MessageReceiver"*)*, i1 (%"class.mojo::MessageReceiverWithResponder"*, %"class.mojo::Message"*, %"class.mojo::MessageReceiver"*)** %59, i64 4
  %61 = load i1 (%"class.mojo::MessageReceiverWithResponder"*, %"class.mojo::Message"*, %"class.mojo::MessageReceiver"*)*, i1 (%"class.mojo::MessageReceiverWithResponder"*, %"class.mojo::Message"*, %"class.mojo::MessageReceiver"*)** %60, align 8
  %62 = call zeroext i1 %61(%"class.mojo::MessageReceiverWithResponder"* %57, %"class.mojo::Message"* nonnull %6, %"class.mojo::MessageReceiver"* nonnull %54) #12
  call void @llvm.lifetime.end.p0i8(i64 16, i8* nonnull %16) #12
  call void @_ZN4mojo7MessageD1Ev(%"class.mojo::Message"* nonnull %6) #12
  call void @llvm.lifetime.end.p0i8(i64 120, i8* nonnull %9) #12
  ret void
}

; Function Attrs: nounwind ssp uwtable
define hidden void @_ZN5blink5mojom5blink24WebBluetoothServiceProxy22RemoteServerDisconnectERKN3WTF6StringE(%"class.blink::mojom::blink::WebBluetoothServiceProxy"* nocapture readonly, %"class.WTF::String"* dereferenceable(8)) unnamed_addr #0 align 2 {
  %3 = alloca %"class.mojo::Message", align 8
  %4 = alloca %"class.mojo::internal::MessageFragment.108", align 8
  %5 = bitcast %"class.mojo::Message"* %3 to i8*
  call void @llvm.lifetime.start.p0i8(i64 120, i8* nonnull %5) #12
  call void @llvm.memset.p0i8.i64(i8* nonnull align 8 %5, i8 -86, i64 120, i1 false)
  call void @_ZN4mojo7MessageC1EjjmmPNSt3__16vectorINS_16ScopedHandleBaseINS_6HandleEEENS1_9allocatorIS5_EEEE(%"class.mojo::Message"* nonnull %3, i32 391156665, i32 0, i64 0, i64 0, %"class.std::__1::vector"* null) #12
  %6 = getelementptr inbounds %"class.mojo::Message", %"class.mojo::Message"* %3, i64 0, i32 1
  %7 = call i64 @_ZN4mojo8internal6Buffer8AllocateEm(%"class.mojo::internal::Buffer"* %6, i64 16) #12
  %8 = getelementptr inbounds %"class.mojo::Message", %"class.mojo::Message"* %3, i64 0, i32 1, i32 2
  %9 = load i8*, i8** %8, align 8
  %10 = getelementptr inbounds i8, i8* %9, i64 %7
  %11 = bitcast i8* %10 to %"class.blink::mojom::internal::WebBluetoothService_RemoteServerDisconnect_Params_Data"*
  call void @_ZN5blink5mojom8internal54WebBluetoothService_RemoteServerDisconnect_Params_DataC1Ev(%"class.blink::mojom::internal::WebBluetoothService_RemoteServerDisconnect_Params_Data"* %11) #12
  %12 = bitcast %"class.mojo::internal::MessageFragment.108"* %4 to i8*
  call void @llvm.lifetime.start.p0i8(i64 16, i8* nonnull %12) #12
  %13 = getelementptr inbounds %"class.mojo::internal::MessageFragment.108", %"class.mojo::internal::MessageFragment.108"* %4, i64 0, i32 0
  %14 = getelementptr inbounds %"class.mojo::internal::MessageFragment.108", %"class.mojo::internal::MessageFragment.108"* %4, i64 0, i32 1
  store %"class.mojo::Message"* %3, %"class.mojo::Message"** %13, align 8
  store i64 -1, i64* %14, align 8
  call void @_ZN4mojo8internal10SerializerIN5blink5mojom28WebBluetoothDeviceIdDataViewEKN3WTF6StringEE9SerializeERS7_RNS0_15MessageFragmentINS3_8internal25WebBluetoothDeviceId_DataEEE(%"class.WTF::String"* dereferenceable(8) %1, %"class.mojo::internal::MessageFragment.108"* nonnull dereferenceable(16) %4) #12
  %15 = load i8*, i8** %8, align 8
  %16 = getelementptr inbounds i8, i8* %15, i64 %7
  %17 = getelementptr inbounds i8, i8* %16, i64 8
  %18 = load i64, i64* %14, align 8
  %19 = icmp eq i64 %18, -1
  br i1 %19, label %26, label %20

20:                                               ; preds = %2
  %21 = load %"class.mojo::Message"*, %"class.mojo::Message"** %13, align 8
  %22 = getelementptr inbounds %"class.mojo::Message", %"class.mojo::Message"* %21, i64 0, i32 1, i32 2
  %23 = load i8*, i8** %22, align 8
  %24 = getelementptr inbounds i8, i8* %23, i64 %18
  %25 = bitcast i8* %24 to %"class.blink::mojom::internal::WebBluetoothDeviceId_Data"*
  br label %26

26:                                               ; preds = %2, %20
  %27 = phi %"class.blink::mojom::internal::WebBluetoothDeviceId_Data"* [ %25, %20 ], [ null, %2 ]
  %28 = bitcast i8* %17 to i64*
  %29 = icmp eq %"class.blink::mojom::internal::WebBluetoothDeviceId_Data"* %27, null
  %30 = ptrtoint %"class.blink::mojom::internal::WebBluetoothDeviceId_Data"* %27 to i64
  %31 = ptrtoint i8* %17 to i64
  %32 = sub i64 %30, %31
  %33 = select i1 %29, i64 0, i64 %32
  store i64 %33, i64* %28, align 8
  %34 = getelementptr inbounds %"class.blink::mojom::blink::WebBluetoothServiceProxy", %"class.blink::mojom::blink::WebBluetoothServiceProxy"* %0, i64 0, i32 1
  %35 = bitcast %"class.mojo::MessageReceiverWithResponder"** %34 to %"class.mojo::MessageReceiver"**
  %36 = load %"class.mojo::MessageReceiver"*, %"class.mojo::MessageReceiver"** %35, align 8
  %37 = bitcast %"class.mojo::MessageReceiver"* %36 to i1 (%"class.mojo::MessageReceiver"*, %"class.mojo::Message"*)***
  %38 = load i1 (%"class.mojo::MessageReceiver"*, %"class.mojo::Message"*)**, i1 (%"class.mojo::MessageReceiver"*, %"class.mojo::Message"*)*** %37, align 8
  %39 = getelementptr inbounds i1 (%"class.mojo::MessageReceiver"*, %"class.mojo::Message"*)*, i1 (%"class.mojo::MessageReceiver"*, %"class.mojo::Message"*)** %38, i64 3
  %40 = load i1 (%"class.mojo::MessageReceiver"*, %"class.mojo::Message"*)*, i1 (%"class.mojo::MessageReceiver"*, %"class.mojo::Message"*)** %39, align 8
  %41 = call zeroext i1 %40(%"class.mojo::MessageReceiver"* %36, %"class.mojo::Message"* nonnull %3) #12
  call void @llvm.lifetime.end.p0i8(i64 16, i8* nonnull %12) #12
  call void @_ZN4mojo7MessageD1Ev(%"class.mojo::Message"* nonnull %3) #12
  call void @llvm.lifetime.end.p0i8(i64 120, i8* nonnull %5) #12
  ret void
}

; Function Attrs: nounwind ssp uwtable
define hidden void @_ZN5blink5mojom5blink24WebBluetoothServiceProxy30RemoteServerGetPrimaryServicesERKN3WTF6StringENS0_29WebBluetoothGATTQueryQuantityES6_N4base12OnceCallbackIFvNS0_18WebBluetoothResultEN4absl8optionalINS3_6VectorIN4mojo9StructPtrINS1_29WebBluetoothRemoteGATTServiceEEELj0ENS3_18PartitionAllocatorEEEEEEEE(%"class.blink::mojom::blink::WebBluetoothServiceProxy"* nocapture readonly, %"class.WTF::String"* dereferenceable(8), i32, %"class.WTF::String"* dereferenceable(8), %"class.base::OnceCallback.112"* nocapture) unnamed_addr #0 align 2 {
  %6 = alloca %"class.mojo::Message", align 8
  %7 = alloca %"class.mojo::internal::MessageFragment.108", align 8
  %8 = alloca %"class.mojo::internal::MessageFragment.115", align 8
  %9 = alloca %"class.base::OnceCallback.112", align 8
  %10 = bitcast %"class.mojo::Message"* %6 to i8*
  call void @llvm.lifetime.start.p0i8(i64 120, i8* nonnull %10) #12
  call void @llvm.memset.p0i8.i64(i8* nonnull align 8 %10, i8 -86, i64 120, i1 false)
  call void @_ZN4mojo7MessageC1EjjmmPNSt3__16vectorINS_16ScopedHandleBaseINS_6HandleEEENS1_9allocatorIS5_EEEE(%"class.mojo::Message"* nonnull %6, i32 1127621537, i32 1, i64 0, i64 0, %"class.std::__1::vector"* null) #12
  %11 = getelementptr inbounds %"class.mojo::Message", %"class.mojo::Message"* %6, i64 0, i32 1
  %12 = call i64 @_ZN4mojo8internal6Buffer8AllocateEm(%"class.mojo::internal::Buffer"* %11, i64 32) #12
  %13 = getelementptr inbounds %"class.mojo::Message", %"class.mojo::Message"* %6, i64 0, i32 1, i32 2
  %14 = load i8*, i8** %13, align 8
  %15 = getelementptr inbounds i8, i8* %14, i64 %12
  %16 = bitcast i8* %15 to %"class.blink::mojom::internal::WebBluetoothService_RemoteServerGetPrimaryServices_Params_Data"*
  call void @_ZN5blink5mojom8internal62WebBluetoothService_RemoteServerGetPrimaryServices_Params_DataC1Ev(%"class.blink::mojom::internal::WebBluetoothService_RemoteServerGetPrimaryServices_Params_Data"* %16) #12
  %17 = bitcast %"class.mojo::internal::MessageFragment.108"* %7 to i8*
  call void @llvm.lifetime.start.p0i8(i64 16, i8* nonnull %17) #12
  %18 = getelementptr inbounds %"class.mojo::internal::MessageFragment.108", %"class.mojo::internal::MessageFragment.108"* %7, i64 0, i32 0
  %19 = getelementptr inbounds %"class.mojo::internal::MessageFragment.108", %"class.mojo::internal::MessageFragment.108"* %7, i64 0, i32 1
  store %"class.mojo::Message"* %6, %"class.mojo::Message"** %18, align 8
  store i64 -1, i64* %19, align 8
  call void @_ZN4mojo8internal10SerializerIN5blink5mojom28WebBluetoothDeviceIdDataViewEKN3WTF6StringEE9SerializeERS7_RNS0_15MessageFragmentINS3_8internal25WebBluetoothDeviceId_DataEEE(%"class.WTF::String"* dereferenceable(8) %1, %"class.mojo::internal::MessageFragment.108"* nonnull dereferenceable(16) %7) #12
  %20 = load i8*, i8** %13, align 8
  %21 = getelementptr inbounds i8, i8* %20, i64 %12
  %22 = getelementptr inbounds i8, i8* %21, i64 8
  %23 = load i64, i64* %19, align 8
  %24 = icmp eq i64 %23, -1
  br i1 %24, label %31, label %25

25:                                               ; preds = %5
  %26 = load %"class.mojo::Message"*, %"class.mojo::Message"** %18, align 8
  %27 = getelementptr inbounds %"class.mojo::Message", %"class.mojo::Message"* %26, i64 0, i32 1, i32 2
  %28 = load i8*, i8** %27, align 8
  %29 = getelementptr inbounds i8, i8* %28, i64 %23
  %30 = bitcast i8* %29 to %"class.blink::mojom::internal::WebBluetoothDeviceId_Data"*
  br label %31

31:                                               ; preds = %5, %25
  %32 = phi %"class.blink::mojom::internal::WebBluetoothDeviceId_Data"* [ %30, %25 ], [ null, %5 ]
  %33 = bitcast i8* %22 to i64*
  %34 = icmp eq %"class.blink::mojom::internal::WebBluetoothDeviceId_Data"* %32, null
  %35 = ptrtoint %"class.blink::mojom::internal::WebBluetoothDeviceId_Data"* %32 to i64
  %36 = ptrtoint i8* %22 to i64
  %37 = sub i64 %35, %36
  %38 = select i1 %34, i64 0, i64 %37
  store i64 %38, i64* %33, align 8
  %39 = load i8*, i8** %13, align 8
  %40 = getelementptr inbounds i8, i8* %39, i64 %12
  %41 = getelementptr inbounds i8, i8* %40, i64 16
  %42 = bitcast i8* %41 to i32*
  store i32 %2, i32* %42, align 4
  %43 = bitcast %"class.mojo::internal::MessageFragment.115"* %8 to i8*
  call void @llvm.lifetime.start.p0i8(i64 16, i8* nonnull %43) #12
  %44 = getelementptr inbounds %"class.mojo::internal::MessageFragment.115", %"class.mojo::internal::MessageFragment.115"* %8, i64 0, i32 0
  %45 = getelementptr inbounds %"class.mojo::internal::MessageFragment.115", %"class.mojo::internal::MessageFragment.115"* %8, i64 0, i32 1
  store %"class.mojo::Message"* %6, %"class.mojo::Message"** %44, align 8
  store i64 -1, i64* %45, align 8
  call void @_ZN4mojo8internal10SerializerIN9bluetooth5mojom12UUIDDataViewEKN3WTF6StringEE9SerializeERS7_RNS0_15MessageFragmentINS3_8internal9UUID_DataEEE(%"class.WTF::String"* dereferenceable(8) %3, %"class.mojo::internal::MessageFragment.115"* nonnull dereferenceable(16) %8) #12
  %46 = load i8*, i8** %13, align 8
  %47 = getelementptr inbounds i8, i8* %46, i64 %12
  %48 = getelementptr inbounds i8, i8* %47, i64 24
  %49 = load i64, i64* %45, align 8
  %50 = icmp eq i64 %49, -1
  br i1 %50, label %57, label %51

51:                                               ; preds = %31
  %52 = load %"class.mojo::Message"*, %"class.mojo::Message"** %44, align 8
  %53 = getelementptr inbounds %"class.mojo::Message", %"class.mojo::Message"* %52, i64 0, i32 1, i32 2
  %54 = load i8*, i8** %53, align 8
  %55 = getelementptr inbounds i8, i8* %54, i64 %49
  %56 = bitcast i8* %55 to %"class.bluetooth::mojom::internal::UUID_Data"*
  br label %57

57:                                               ; preds = %51, %31
  %58 = phi %"class.bluetooth::mojom::internal::UUID_Data"* [ %56, %51 ], [ null, %31 ]
  %59 = bitcast i8* %48 to i64*
  %60 = icmp eq %"class.bluetooth::mojom::internal::UUID_Data"* %58, null
  %61 = ptrtoint %"class.bluetooth::mojom::internal::UUID_Data"* %58 to i64
  %62 = ptrtoint i8* %48 to i64
  %63 = sub i64 %61, %62
  %64 = select i1 %60, i64 0, i64 %63
  store i64 %64, i64* %59, align 8
  %65 = call i8* @_Znwm(i64 16) #13
  %66 = getelementptr inbounds %"class.base::OnceCallback.112", %"class.base::OnceCallback.112"* %4, i64 0, i32 0, i32 0, i32 0
  %67 = bitcast %"class.base::OnceCallback.112"* %4 to i64*
  %68 = load i64, i64* %67, align 8
  store %"class.base::internal::BindStateBase"* null, %"class.base::internal::BindStateBase"** %66, align 8
  %69 = bitcast i8* %65 to i32 (...)***
  store i32 (...)** bitcast (i8** getelementptr inbounds ({ [6 x i8*] }, { [6 x i8*] }* @_ZTVN5blink5mojom5blink68WebBluetoothService_RemoteServerGetPrimaryServices_ForwardToCallbackE, i64 0, inrange i32 0, i64 2) to i32 (...)**), i32 (...)*** %69, align 8
  %70 = getelementptr inbounds i8, i8* %65, i64 8
  %71 = getelementptr inbounds %"class.base::OnceCallback.112", %"class.base::OnceCallback.112"* %9, i64 0, i32 0, i32 0, i32 0
  %72 = bitcast i8* %70 to i64*
  store i64 %68, i64* %72, align 8
  store %"class.base::internal::BindStateBase"* null, %"class.base::internal::BindStateBase"** %71, align 8
  %73 = bitcast i8* %65 to %"class.mojo::MessageReceiver"*
  %74 = getelementptr inbounds %"class.base::OnceCallback.112", %"class.base::OnceCallback.112"* %9, i64 0, i32 0
  call void @_ZN4base8internal12CallbackBaseD2Ev(%"class.base::internal::CallbackBase"* nonnull %74) #12
  %75 = getelementptr inbounds %"class.blink::mojom::blink::WebBluetoothServiceProxy", %"class.blink::mojom::blink::WebBluetoothServiceProxy"* %0, i64 0, i32 1
  %76 = load %"class.mojo::MessageReceiverWithResponder"*, %"class.mojo::MessageReceiverWithResponder"** %75, align 8
  %77 = bitcast %"class.mojo::MessageReceiverWithResponder"* %76 to i1 (%"class.mojo::MessageReceiverWithResponder"*, %"class.mojo::Message"*, %"class.mojo::MessageReceiver"*)***
  %78 = load i1 (%"class.mojo::MessageReceiverWithResponder"*, %"class.mojo::Message"*, %"class.mojo::MessageReceiver"*)**, i1 (%"class.mojo::MessageReceiverWithResponder"*, %"class.mojo::Message"*, %"class.mojo::MessageReceiver"*)*** %77, align 8
  %79 = getelementptr inbounds i1 (%"class.mojo::MessageReceiverWithResponder"*, %"class.mojo::Message"*, %"class.mojo::MessageReceiver"*)*, i1 (%"class.mojo::MessageReceiverWithResponder"*, %"class.mojo::Message"*, %"class.mojo::MessageReceiver"*)** %78, i64 4
  %80 = load i1 (%"class.mojo::MessageReceiverWithResponder"*, %"class.mojo::Message"*, %"class.mojo::MessageReceiver"*)*, i1 (%"class.mojo::MessageReceiverWithResponder"*, %"class.mojo::Message"*, %"class.mojo::MessageReceiver"*)** %79, align 8
  %81 = call zeroext i1 %80(%"class.mojo::MessageReceiverWithResponder"* %76, %"class.mojo::Message"* nonnull %6, %"class.mojo::MessageReceiver"* nonnull %73) #12
  call void @llvm.lifetime.end.p0i8(i64 16, i8* nonnull %43) #12
  call void @llvm.lifetime.end.p0i8(i64 16, i8* nonnull %17) #12
  call void @_ZN4mojo7MessageD1Ev(%"class.mojo::Message"* nonnull %6) #12
  call void @llvm.lifetime.end.p0i8(i64 120, i8* nonnull %10) #12
  ret void
}

; Function Attrs: nounwind
declare void @_ZN4base8internal12CallbackBaseD2Ev(%"class.base::internal::CallbackBase"*) unnamed_addr #7

; Function Attrs: nounwind ssp uwtable
define hidden void @_ZN5blink5mojom5blink24WebBluetoothServiceProxy31RemoteServiceGetCharacteristicsERKN3WTF6StringENS0_29WebBluetoothGATTQueryQuantityES6_N4base12OnceCallbackIFvNS0_18WebBluetoothResultEN4absl8optionalINS3_6VectorIN4mojo9StructPtrINS1_36WebBluetoothRemoteGATTCharacteristicEEELj0ENS3_18PartitionAllocatorEEEEEEEE(%"class.blink::mojom::blink::WebBluetoothServiceProxy"* nocapture readonly, %"class.WTF::String"* dereferenceable(8), i32, %"class.WTF::String"* dereferenceable(8), %"class.base::OnceCallback.116"* nocapture) unnamed_addr #0 align 2 {
  %6 = alloca %"class.WTF::StringUTF8Adaptor", align 8
  %7 = alloca %"class.mojo::Message", align 8
  %8 = alloca %"class.mojo::internal::MessageFragment.115", align 8
  %9 = alloca %"class.base::OnceCallback.116", align 8
  %10 = bitcast %"class.mojo::Message"* %7 to i8*
  call void @llvm.lifetime.start.p0i8(i64 120, i8* nonnull %10) #12
  call void @llvm.memset.p0i8.i64(i8* nonnull align 8 %10, i8 -86, i64 120, i1 false)
  call void @_ZN4mojo7MessageC1EjjmmPNSt3__16vectorINS_16ScopedHandleBaseINS_6HandleEEENS1_9allocatorIS5_EEEE(%"class.mojo::Message"* nonnull %7, i32 501096322, i32 1, i64 0, i64 0, %"class.std::__1::vector"* null) #12
  %11 = getelementptr inbounds %"class.mojo::Message", %"class.mojo::Message"* %7, i64 0, i32 1
  %12 = call i64 @_ZN4mojo8internal6Buffer8AllocateEm(%"class.mojo::internal::Buffer"* %11, i64 32) #12
  %13 = getelementptr inbounds %"class.mojo::Message", %"class.mojo::Message"* %7, i64 0, i32 1, i32 2
  %14 = load i8*, i8** %13, align 8
  %15 = getelementptr inbounds i8, i8* %14, i64 %12
  %16 = bitcast i8* %15 to %"class.blink::mojom::internal::WebBluetoothService_RemoteServiceGetCharacteristics_Params_Data"*
  call void @_ZN5blink5mojom8internal63WebBluetoothService_RemoteServiceGetCharacteristics_Params_DataC1Ev(%"class.blink::mojom::internal::WebBluetoothService_RemoteServiceGetCharacteristics_Params_Data"* %16) #12
  %17 = getelementptr inbounds %"class.WTF::String", %"class.WTF::String"* %1, i64 0, i32 0, i32 0
  %18 = load %"class.WTF::StringImpl"*, %"class.WTF::StringImpl"** %17, align 8
  %19 = icmp eq %"class.WTF::StringImpl"* %18, null
  br i1 %19, label %20, label %25

20:                                               ; preds = %5
  %21 = load i8*, i8** %13, align 8
  %22 = getelementptr inbounds i8, i8* %21, i64 %12
  %23 = getelementptr inbounds i8, i8* %22, i64 8
  %24 = bitcast i8* %23 to %"struct.mojo::internal::Pointer.110"*
  br label %57

25:                                               ; preds = %5
  %26 = bitcast %"class.WTF::StringUTF8Adaptor"* %6 to i8*
  call void @llvm.lifetime.start.p0i8(i64 40, i8* nonnull %26) #12
  call void @llvm.memset.p0i8.i64(i8* nonnull align 8 %26, i8 -86, i64 40, i1 false) #12
  call void @_ZN4mojo12StringTraitsIN3WTF6StringEE7GetUTF8ERKS2_(%"class.WTF::StringUTF8Adaptor"* nonnull sret %6, %"class.WTF::String"* dereferenceable(8) %1) #12
  %27 = getelementptr inbounds %"class.WTF::StringUTF8Adaptor", %"class.WTF::StringUTF8Adaptor"* %6, i64 0, i32 2
  %28 = load i32, i32* %27, align 8
  %29 = icmp ugt i32 %28, -9
  br i1 %29, label %40, label %30

30:                                               ; preds = %25
  %31 = add nuw i32 %28, 8
  %32 = zext i32 %31 to i64
  %33 = call i64 @_ZN4mojo8internal6Buffer8AllocateEm(%"class.mojo::internal::Buffer"* %11, i64 %32) #12
  %34 = load i8*, i8** %13, align 8
  %35 = getelementptr inbounds i8, i8* %34, i64 %33
  %36 = bitcast i8* %35 to i32*
  store i32 %31, i32* %36, align 1
  %37 = getelementptr inbounds i8, i8* %35, i64 4
  %38 = bitcast i8* %37 to i32*
  store i32 %28, i32* %38, align 1
  %39 = load i32, i32* %27, align 8
  br label %40

40:                                               ; preds = %25, %30
  %41 = phi i64 [ -1, %25 ], [ %33, %30 ]
  %42 = phi i32 [ %28, %25 ], [ %39, %30 ]
  %43 = load i8*, i8** %13, align 8
  %44 = getelementptr inbounds i8, i8* %43, i64 %41
  %45 = getelementptr inbounds i8, i8* %44, i64 8
  %46 = getelementptr inbounds %"class.WTF::StringUTF8Adaptor", %"class.WTF::StringUTF8Adaptor"* %6, i64 0, i32 1
  %47 = load i8*, i8** %46, align 8
  %48 = zext i32 %42 to i64
  call void @llvm.memcpy.p0i8.p0i8.i64(i8* align 1 %45, i8* align 1 %47, i64 %48, i1 false) #12
  call void @_ZN3WTF17StringUTF8AdaptorD1Ev(%"class.WTF::StringUTF8Adaptor"* nonnull %6) #12
  call void @llvm.lifetime.end.p0i8(i64 40, i8* nonnull %26) #12
  %49 = load i8*, i8** %13, align 8
  %50 = getelementptr inbounds i8, i8* %49, i64 %12
  %51 = getelementptr inbounds i8, i8* %50, i64 8
  %52 = bitcast i8* %51 to %"struct.mojo::internal::Pointer.110"*
  %53 = icmp eq i64 %41, -1
  br i1 %53, label %57, label %54

54:                                               ; preds = %40
  %55 = getelementptr inbounds i8, i8* %49, i64 %41
  %56 = bitcast i8* %55 to %"class.mojo::internal::Array_Data"*
  br label %57

57:                                               ; preds = %20, %40, %54
  %58 = phi %"struct.mojo::internal::Pointer.110"* [ %52, %54 ], [ %52, %40 ], [ %24, %20 ]
  %59 = phi %"class.mojo::internal::Array_Data"* [ %56, %54 ], [ null, %40 ], [ null, %20 ]
  %60 = getelementptr inbounds %"struct.mojo::internal::Pointer.110", %"struct.mojo::internal::Pointer.110"* %58, i64 0, i32 0
  %61 = icmp eq %"class.mojo::internal::Array_Data"* %59, null
  %62 = ptrtoint %"class.mojo::internal::Array_Data"* %59 to i64
  %63 = ptrtoint %"struct.mojo::internal::Pointer.110"* %58 to i64
  %64 = sub i64 %62, %63
  %65 = select i1 %61, i64 0, i64 %64
  store i64 %65, i64* %60, align 8
  %66 = load i8*, i8** %13, align 8
  %67 = getelementptr inbounds i8, i8* %66, i64 %12
  %68 = getelementptr inbounds i8, i8* %67, i64 16
  %69 = bitcast i8* %68 to i32*
  store i32 %2, i32* %69, align 4
  %70 = bitcast %"class.mojo::internal::MessageFragment.115"* %8 to i8*
  call void @llvm.lifetime.start.p0i8(i64 16, i8* nonnull %70) #12
  %71 = getelementptr inbounds %"class.mojo::internal::MessageFragment.115", %"class.mojo::internal::MessageFragment.115"* %8, i64 0, i32 0
  %72 = getelementptr inbounds %"class.mojo::internal::MessageFragment.115", %"class.mojo::internal::MessageFragment.115"* %8, i64 0, i32 1
  store %"class.mojo::Message"* %7, %"class.mojo::Message"** %71, align 8
  store i64 -1, i64* %72, align 8
  call void @_ZN4mojo8internal10SerializerIN9bluetooth5mojom12UUIDDataViewEKN3WTF6StringEE9SerializeERS7_RNS0_15MessageFragmentINS3_8internal9UUID_DataEEE(%"class.WTF::String"* dereferenceable(8) %3, %"class.mojo::internal::MessageFragment.115"* nonnull dereferenceable(16) %8) #12
  %73 = load i8*, i8** %13, align 8
  %74 = getelementptr inbounds i8, i8* %73, i64 %12
  %75 = getelementptr inbounds i8, i8* %74, i64 24
  %76 = load i64, i64* %72, align 8
  %77 = icmp eq i64 %76, -1
  br i1 %77, label %84, label %78

78:                                               ; preds = %57
  %79 = load %"class.mojo::Message"*, %"class.mojo::Message"** %71, align 8
  %80 = getelementptr inbounds %"class.mojo::Message", %"class.mojo::Message"* %79, i64 0, i32 1, i32 2
  %81 = load i8*, i8** %80, align 8
  %82 = getelementptr inbounds i8, i8* %81, i64 %76
  %83 = bitcast i8* %82 to %"class.bluetooth::mojom::internal::UUID_Data"*
  br label %84

84:                                               ; preds = %78, %57
  %85 = phi %"class.bluetooth::mojom::internal::UUID_Data"* [ %83, %78 ], [ null, %57 ]
  %86 = bitcast i8* %75 to i64*
  %87 = icmp eq %"class.bluetooth::mojom::internal::UUID_Data"* %85, null
  %88 = ptrtoint %"class.bluetooth::mojom::internal::UUID_Data"* %85 to i64
  %89 = ptrtoint i8* %75 to i64
  %90 = sub i64 %88, %89
  %91 = select i1 %87, i64 0, i64 %90
  store i64 %91, i64* %86, align 8
  %92 = call i8* @_Znwm(i64 16) #13
  %93 = getelementptr inbounds %"class.base::OnceCallback.116", %"class.base::OnceCallback.116"* %4, i64 0, i32 0, i32 0, i32 0
  %94 = bitcast %"class.base::OnceCallback.116"* %4 to i64*
  %95 = load i64, i64* %94, align 8
  store %"class.base::internal::BindStateBase"* null, %"class.base::internal::BindStateBase"** %93, align 8
  %96 = bitcast i8* %92 to i32 (...)***
  store i32 (...)** bitcast (i8** getelementptr inbounds ({ [6 x i8*] }, { [6 x i8*] }* @_ZTVN5blink5mojom5blink69WebBluetoothService_RemoteServiceGetCharacteristics_ForwardToCallbackE, i64 0, inrange i32 0, i64 2) to i32 (...)**), i32 (...)*** %96, align 8
  %97 = getelementptr inbounds i8, i8* %92, i64 8
  %98 = getelementptr inbounds %"class.base::OnceCallback.116", %"class.base::OnceCallback.116"* %9, i64 0, i32 0, i32 0, i32 0
  %99 = bitcast i8* %97 to i64*
  store i64 %95, i64* %99, align 8
  store %"class.base::internal::BindStateBase"* null, %"class.base::internal::BindStateBase"** %98, align 8
  %100 = bitcast i8* %92 to %"class.mojo::MessageReceiver"*
  %101 = getelementptr inbounds %"class.base::OnceCallback.116", %"class.base::OnceCallback.116"* %9, i64 0, i32 0
  call void @_ZN4base8internal12CallbackBaseD2Ev(%"class.base::internal::CallbackBase"* nonnull %101) #12
  %102 = getelementptr inbounds %"class.blink::mojom::blink::WebBluetoothServiceProxy", %"class.blink::mojom::blink::WebBluetoothServiceProxy"* %0, i64 0, i32 1
  %103 = load %"class.mojo::MessageReceiverWithResponder"*, %"class.mojo::MessageReceiverWithResponder"** %102, align 8
  %104 = bitcast %"class.mojo::MessageReceiverWithResponder"* %103 to i1 (%"class.mojo::MessageReceiverWithResponder"*, %"class.mojo::Message"*, %"class.mojo::MessageReceiver"*)***
  %105 = load i1 (%"class.mojo::MessageReceiverWithResponder"*, %"class.mojo::Message"*, %"class.mojo::MessageReceiver"*)**, i1 (%"class.mojo::MessageReceiverWithResponder"*, %"class.mojo::Message"*, %"class.mojo::MessageReceiver"*)*** %104, align 8
  %106 = getelementptr inbounds i1 (%"class.mojo::MessageReceiverWithResponder"*, %"class.mojo::Message"*, %"class.mojo::MessageReceiver"*)*, i1 (%"class.mojo::MessageReceiverWithResponder"*, %"class.mojo::Message"*, %"class.mojo::MessageReceiver"*)** %105, i64 4
  %107 = load i1 (%"class.mojo::MessageReceiverWithResponder"*, %"class.mojo::Message"*, %"class.mojo::MessageReceiver"*)*, i1 (%"class.mojo::MessageReceiverWithResponder"*, %"class.mojo::Message"*, %"class.mojo::MessageReceiver"*)** %106, align 8
  %108 = call zeroext i1 %107(%"class.mojo::MessageReceiverWithResponder"* %103, %"class.mojo::Message"* nonnull %7, %"class.mojo::MessageReceiver"* nonnull %100) #12
  call void @llvm.lifetime.end.p0i8(i64 16, i8* nonnull %70) #12
  call void @_ZN4mojo7MessageD1Ev(%"class.mojo::Message"* nonnull %7) #12
  call void @llvm.lifetime.end.p0i8(i64 120, i8* nonnull %10) #12
  ret void
}

; Function Attrs: nounwind ssp uwtable
define hidden void @_ZN5blink5mojom5blink24WebBluetoothServiceProxy29RemoteCharacteristicReadValueERKN3WTF6StringEN4base12OnceCallbackIFvNS0_18WebBluetoothResultERKN4absl8optionalINS3_6VectorIhLj0ENS3_18PartitionAllocatorEEEEEEEE(%"class.blink::mojom::blink::WebBluetoothServiceProxy"* nocapture readonly, %"class.WTF::String"* dereferenceable(8), %"class.base::OnceCallback.119"* nocapture) unnamed_addr #0 align 2 {
  %4 = alloca %"class.WTF::StringUTF8Adaptor", align 8
  %5 = alloca %"class.mojo::Message", align 8
  %6 = alloca %"class.base::OnceCallback.119", align 8
  %7 = bitcast %"class.mojo::Message"* %5 to i8*
  call void @llvm.lifetime.start.p0i8(i64 120, i8* nonnull %7) #12
  call void @llvm.memset.p0i8.i64(i8* nonnull align 8 %7, i8 -86, i64 120, i1 false)
  call void @_ZN4mojo7MessageC1EjjmmPNSt3__16vectorINS_16ScopedHandleBaseINS_6HandleEEENS1_9allocatorIS5_EEEE(%"class.mojo::Message"* nonnull %5, i32 132459802, i32 1, i64 0, i64 0, %"class.std::__1::vector"* null) #12
  %8 = getelementptr inbounds %"class.mojo::Message", %"class.mojo::Message"* %5, i64 0, i32 1
  %9 = call i64 @_ZN4mojo8internal6Buffer8AllocateEm(%"class.mojo::internal::Buffer"* %8, i64 16) #12
  %10 = getelementptr inbounds %"class.mojo::Message", %"class.mojo::Message"* %5, i64 0, i32 1, i32 2
  %11 = load i8*, i8** %10, align 8
  %12 = getelementptr inbounds i8, i8* %11, i64 %9
  %13 = bitcast i8* %12 to %"class.blink::mojom::internal::WebBluetoothService_RemoteCharacteristicReadValue_Params_Data"*
  call void @_ZN5blink5mojom8internal61WebBluetoothService_RemoteCharacteristicReadValue_Params_DataC1Ev(%"class.blink::mojom::internal::WebBluetoothService_RemoteCharacteristicReadValue_Params_Data"* %13) #12
  %14 = getelementptr inbounds %"class.WTF::String", %"class.WTF::String"* %1, i64 0, i32 0, i32 0
  %15 = load %"class.WTF::StringImpl"*, %"class.WTF::StringImpl"** %14, align 8
  %16 = icmp eq %"class.WTF::StringImpl"* %15, null
  br i1 %16, label %17, label %22

17:                                               ; preds = %3
  %18 = load i8*, i8** %10, align 8
  %19 = getelementptr inbounds i8, i8* %18, i64 %9
  %20 = getelementptr inbounds i8, i8* %19, i64 8
  %21 = bitcast i8* %20 to %"struct.mojo::internal::Pointer.110"*
  br label %54

22:                                               ; preds = %3
  %23 = bitcast %"class.WTF::StringUTF8Adaptor"* %4 to i8*
  call void @llvm.lifetime.start.p0i8(i64 40, i8* nonnull %23) #12
  call void @llvm.memset.p0i8.i64(i8* nonnull align 8 %23, i8 -86, i64 40, i1 false) #12
  call void @_ZN4mojo12StringTraitsIN3WTF6StringEE7GetUTF8ERKS2_(%"class.WTF::StringUTF8Adaptor"* nonnull sret %4, %"class.WTF::String"* dereferenceable(8) %1) #12
  %24 = getelementptr inbounds %"class.WTF::StringUTF8Adaptor", %"class.WTF::StringUTF8Adaptor"* %4, i64 0, i32 2
  %25 = load i32, i32* %24, align 8
  %26 = icmp ugt i32 %25, -9
  br i1 %26, label %37, label %27

27:                                               ; preds = %22
  %28 = add nuw i32 %25, 8
  %29 = zext i32 %28 to i64
  %30 = call i64 @_ZN4mojo8internal6Buffer8AllocateEm(%"class.mojo::internal::Buffer"* %8, i64 %29) #12
  %31 = load i8*, i8** %10, align 8
  %32 = getelementptr inbounds i8, i8* %31, i64 %30
  %33 = bitcast i8* %32 to i32*
  store i32 %28, i32* %33, align 1
  %34 = getelementptr inbounds i8, i8* %32, i64 4
  %35 = bitcast i8* %34 to i32*
  store i32 %25, i32* %35, align 1
  %36 = load i32, i32* %24, align 8
  br label %37

37:                                               ; preds = %22, %27
  %38 = phi i64 [ -1, %22 ], [ %30, %27 ]
  %39 = phi i32 [ %25, %22 ], [ %36, %27 ]
  %40 = load i8*, i8** %10, align 8
  %41 = getelementptr inbounds i8, i8* %40, i64 %38
  %42 = getelementptr inbounds i8, i8* %41, i64 8
  %43 = getelementptr inbounds %"class.WTF::StringUTF8Adaptor", %"class.WTF::StringUTF8Adaptor"* %4, i64 0, i32 1
  %44 = load i8*, i8** %43, align 8
  %45 = zext i32 %39 to i64
  call void @llvm.memcpy.p0i8.p0i8.i64(i8* align 1 %42, i8* align 1 %44, i64 %45, i1 false) #12
  call void @_ZN3WTF17StringUTF8AdaptorD1Ev(%"class.WTF::StringUTF8Adaptor"* nonnull %4) #12
  call void @llvm.lifetime.end.p0i8(i64 40, i8* nonnull %23) #12
  %46 = load i8*, i8** %10, align 8
  %47 = getelementptr inbounds i8, i8* %46, i64 %9
  %48 = getelementptr inbounds i8, i8* %47, i64 8
  %49 = bitcast i8* %48 to %"struct.mojo::internal::Pointer.110"*
  %50 = icmp eq i64 %38, -1
  br i1 %50, label %54, label %51

51:                                               ; preds = %37
  %52 = getelementptr inbounds i8, i8* %46, i64 %38
  %53 = bitcast i8* %52 to %"class.mojo::internal::Array_Data"*
  br label %54

54:                                               ; preds = %51, %37, %17
  %55 = phi %"struct.mojo::internal::Pointer.110"* [ %49, %51 ], [ %49, %37 ], [ %21, %17 ]
  %56 = phi %"class.mojo::internal::Array_Data"* [ %53, %51 ], [ null, %37 ], [ null, %17 ]
  %57 = getelementptr inbounds %"struct.mojo::internal::Pointer.110", %"struct.mojo::internal::Pointer.110"* %55, i64 0, i32 0
  %58 = icmp eq %"class.mojo::internal::Array_Data"* %56, null
  %59 = ptrtoint %"class.mojo::internal::Array_Data"* %56 to i64
  %60 = ptrtoint %"struct.mojo::internal::Pointer.110"* %55 to i64
  %61 = sub i64 %59, %60
  %62 = select i1 %58, i64 0, i64 %61
  store i64 %62, i64* %57, align 8
  %63 = call i8* @_Znwm(i64 16) #13
  %64 = getelementptr inbounds %"class.base::OnceCallback.119", %"class.base::OnceCallback.119"* %2, i64 0, i32 0, i32 0, i32 0
  %65 = bitcast %"class.base::OnceCallback.119"* %2 to i64*
  %66 = load i64, i64* %65, align 8
  store %"class.base::internal::BindStateBase"* null, %"class.base::internal::BindStateBase"** %64, align 8
  %67 = bitcast i8* %63 to i32 (...)***
  store i32 (...)** bitcast (i8** getelementptr inbounds ({ [6 x i8*] }, { [6 x i8*] }* @_ZTVN5blink5mojom5blink67WebBluetoothService_RemoteCharacteristicReadValue_ForwardToCallbackE, i64 0, inrange i32 0, i64 2) to i32 (...)**), i32 (...)*** %67, align 8
  %68 = getelementptr inbounds i8, i8* %63, i64 8
  %69 = getelementptr inbounds %"class.base::OnceCallback.119", %"class.base::OnceCallback.119"* %6, i64 0, i32 0, i32 0, i32 0
  %70 = bitcast i8* %68 to i64*
  store i64 %66, i64* %70, align 8
  store %"class.base::internal::BindStateBase"* null, %"class.base::internal::BindStateBase"** %69, align 8
  %71 = bitcast i8* %63 to %"class.mojo::MessageReceiver"*
  %72 = getelementptr inbounds %"class.base::OnceCallback.119", %"class.base::OnceCallback.119"* %6, i64 0, i32 0
  call void @_ZN4base8internal12CallbackBaseD2Ev(%"class.base::internal::CallbackBase"* nonnull %72) #12
  %73 = getelementptr inbounds %"class.blink::mojom::blink::WebBluetoothServiceProxy", %"class.blink::mojom::blink::WebBluetoothServiceProxy"* %0, i64 0, i32 1
  %74 = load %"class.mojo::MessageReceiverWithResponder"*, %"class.mojo::MessageReceiverWithResponder"** %73, align 8
  %75 = bitcast %"class.mojo::MessageReceiverWithResponder"* %74 to i1 (%"class.mojo::MessageReceiverWithResponder"*, %"class.mojo::Message"*, %"class.mojo::MessageReceiver"*)***
  %76 = load i1 (%"class.mojo::MessageReceiverWithResponder"*, %"class.mojo::Message"*, %"class.mojo::MessageReceiver"*)**, i1 (%"class.mojo::MessageReceiverWithResponder"*, %"class.mojo::Message"*, %"class.mojo::MessageReceiver"*)*** %75, align 8
  %77 = getelementptr inbounds i1 (%"class.mojo::MessageReceiverWithResponder"*, %"class.mojo::Message"*, %"class.mojo::MessageReceiver"*)*, i1 (%"class.mojo::MessageReceiverWithResponder"*, %"class.mojo::Message"*, %"class.mojo::MessageReceiver"*)** %76, i64 4
  %78 = load i1 (%"class.mojo::MessageReceiverWithResponder"*, %"class.mojo::Message"*, %"class.mojo::MessageReceiver"*)*, i1 (%"class.mojo::MessageReceiverWithResponder"*, %"class.mojo::Message"*, %"class.mojo::MessageReceiver"*)** %77, align 8
  %79 = call zeroext i1 %78(%"class.mojo::MessageReceiverWithResponder"* %74, %"class.mojo::Message"* nonnull %5, %"class.mojo::MessageReceiver"* nonnull %71) #12
  call void @_ZN4mojo7MessageD1Ev(%"class.mojo::Message"* nonnull %5) #12
  call void @llvm.lifetime.end.p0i8(i64 120, i8* nonnull %7) #12
  ret void
}

; Function Attrs: nounwind ssp uwtable
define hidden void @_ZN5blink5mojom5blink24WebBluetoothServiceProxy30RemoteCharacteristicWriteValueERKN3WTF6StringERKNS3_6VectorIhLj0ENS3_18PartitionAllocatorEEENS0_21WebBluetoothWriteTypeEN4base12OnceCallbackIFvNS0_18WebBluetoothResultEEEE(%"class.blink::mojom::blink::WebBluetoothServiceProxy"* nocapture readonly, %"class.WTF::String"* dereferenceable(8), %"class.WTF::Vector.75"* dereferenceable(16), i32, %"class.base::OnceCallback.106"* nocapture) unnamed_addr #0 align 2 {
  %6 = alloca %"class.WTF::StringUTF8Adaptor", align 8
  %7 = alloca %"class.mojo::Message", align 8
  %8 = alloca %"class.mojo::internal::ContainerValidateParams", align 8
  %9 = alloca %"class.base::OnceCallback.106", align 8
  %10 = bitcast %"class.mojo::Message"* %7 to i8*
  call void @llvm.lifetime.start.p0i8(i64 120, i8* nonnull %10) #12
  call void @llvm.memset.p0i8.i64(i8* nonnull align 8 %10, i8 -86, i64 120, i1 false)
  call void @_ZN4mojo7MessageC1EjjmmPNSt3__16vectorINS_16ScopedHandleBaseINS_6HandleEEENS1_9allocatorIS5_EEEE(%"class.mojo::Message"* nonnull %7, i32 1665417437, i32 1, i64 0, i64 0, %"class.std::__1::vector"* null) #12
  %11 = getelementptr inbounds %"class.mojo::Message", %"class.mojo::Message"* %7, i64 0, i32 1
  %12 = call i64 @_ZN4mojo8internal6Buffer8AllocateEm(%"class.mojo::internal::Buffer"* %11, i64 32) #12
  %13 = getelementptr inbounds %"class.mojo::Message", %"class.mojo::Message"* %7, i64 0, i32 1, i32 2
  %14 = load i8*, i8** %13, align 8
  %15 = getelementptr inbounds i8, i8* %14, i64 %12
  %16 = bitcast i8* %15 to %"class.blink::mojom::internal::WebBluetoothService_RemoteCharacteristicWriteValue_Params_Data"*
  call void @_ZN5blink5mojom8internal62WebBluetoothService_RemoteCharacteristicWriteValue_Params_DataC1Ev(%"class.blink::mojom::internal::WebBluetoothService_RemoteCharacteristicWriteValue_Params_Data"* %16) #12
  %17 = getelementptr inbounds %"class.WTF::String", %"class.WTF::String"* %1, i64 0, i32 0, i32 0
  %18 = load %"class.WTF::StringImpl"*, %"class.WTF::StringImpl"** %17, align 8
  %19 = icmp eq %"class.WTF::StringImpl"* %18, null
  br i1 %19, label %20, label %25

20:                                               ; preds = %5
  %21 = load i8*, i8** %13, align 8
  %22 = getelementptr inbounds i8, i8* %21, i64 %12
  %23 = getelementptr inbounds i8, i8* %22, i64 8
  %24 = bitcast i8* %23 to %"struct.mojo::internal::Pointer.110"*
  br label %57

25:                                               ; preds = %5
  %26 = bitcast %"class.WTF::StringUTF8Adaptor"* %6 to i8*
  call void @llvm.lifetime.start.p0i8(i64 40, i8* nonnull %26) #12
  call void @llvm.memset.p0i8.i64(i8* nonnull align 8 %26, i8 -86, i64 40, i1 false) #12
  call void @_ZN4mojo12StringTraitsIN3WTF6StringEE7GetUTF8ERKS2_(%"class.WTF::StringUTF8Adaptor"* nonnull sret %6, %"class.WTF::String"* dereferenceable(8) %1) #12
  %27 = getelementptr inbounds %"class.WTF::StringUTF8Adaptor", %"class.WTF::StringUTF8Adaptor"* %6, i64 0, i32 2
  %28 = load i32, i32* %27, align 8
  %29 = icmp ugt i32 %28, -9
  br i1 %29, label %40, label %30

30:                                               ; preds = %25
  %31 = add nuw i32 %28, 8
  %32 = zext i32 %31 to i64
  %33 = call i64 @_ZN4mojo8internal6Buffer8AllocateEm(%"class.mojo::internal::Buffer"* %11, i64 %32) #12
  %34 = load i8*, i8** %13, align 8
  %35 = getelementptr inbounds i8, i8* %34, i64 %33
  %36 = bitcast i8* %35 to i32*
  store i32 %31, i32* %36, align 1
  %37 = getelementptr inbounds i8, i8* %35, i64 4
  %38 = bitcast i8* %37 to i32*
  store i32 %28, i32* %38, align 1
  %39 = load i32, i32* %27, align 8
  br label %40

40:                                               ; preds = %25, %30
  %41 = phi i64 [ -1, %25 ], [ %33, %30 ]
  %42 = phi i32 [ %28, %25 ], [ %39, %30 ]
  %43 = load i8*, i8** %13, align 8
  %44 = getelementptr inbounds i8, i8* %43, i64 %41
  %45 = getelementptr inbounds i8, i8* %44, i64 8
  %46 = getelementptr inbounds %"class.WTF::StringUTF8Adaptor", %"class.WTF::StringUTF8Adaptor"* %6, i64 0, i32 1
  %47 = load i8*, i8** %46, align 8
  %48 = zext i32 %42 to i64
  call void @llvm.memcpy.p0i8.p0i8.i64(i8* align 1 %45, i8* align 1 %47, i64 %48, i1 false) #12
  call void @_ZN3WTF17StringUTF8AdaptorD1Ev(%"class.WTF::StringUTF8Adaptor"* nonnull %6) #12
  call void @llvm.lifetime.end.p0i8(i64 40, i8* nonnull %26) #12
  %49 = load i8*, i8** %13, align 8
  %50 = getelementptr inbounds i8, i8* %49, i64 %12
  %51 = getelementptr inbounds i8, i8* %50, i64 8
  %52 = bitcast i8* %51 to %"struct.mojo::internal::Pointer.110"*
  %53 = icmp eq i64 %41, -1
  br i1 %53, label %57, label %54

54:                                               ; preds = %40
  %55 = getelementptr inbounds i8, i8* %49, i64 %41
  %56 = bitcast i8* %55 to %"class.mojo::internal::Array_Data"*
  br label %57

57:                                               ; preds = %20, %40, %54
  %58 = phi %"struct.mojo::internal::Pointer.110"* [ %52, %54 ], [ %52, %40 ], [ %24, %20 ]
  %59 = phi %"class.mojo::internal::Array_Data"* [ %56, %54 ], [ null, %40 ], [ null, %20 ]
  %60 = getelementptr inbounds %"struct.mojo::internal::Pointer.110", %"struct.mojo::internal::Pointer.110"* %58, i64 0, i32 0
  %61 = icmp eq %"class.mojo::internal::Array_Data"* %59, null
  %62 = ptrtoint %"class.mojo::internal::Array_Data"* %59 to i64
  %63 = ptrtoint %"struct.mojo::internal::Pointer.110"* %58 to i64
  %64 = sub i64 %62, %63
  %65 = select i1 %61, i64 0, i64 %64
  store i64 %65, i64* %60, align 8
  %66 = bitcast %"class.mojo::internal::ContainerValidateParams"* %8 to i8*
  call void @llvm.lifetime.start.p0i8(i64 32, i8* nonnull %66) #12
  %67 = bitcast %"class.mojo::internal::ContainerValidateParams"* %8 to i64*
  store i64 -6148914691236517206, i64* %67, align 8
  %68 = getelementptr inbounds %"class.mojo::internal::ContainerValidateParams", %"class.mojo::internal::ContainerValidateParams"* %8, i64 0, i32 0
  store i32 0, i32* %68, align 8
  %69 = getelementptr inbounds %"class.mojo::internal::ContainerValidateParams", %"class.mojo::internal::ContainerValidateParams"* %8, i64 0, i32 1
  store i8 0, i8* %69, align 4
  %70 = getelementptr inbounds %"class.mojo::internal::ContainerValidateParams", %"class.mojo::internal::ContainerValidateParams"* %8, i64 0, i32 2
  %71 = getelementptr inbounds %"class.WTF::Vector.75", %"class.WTF::Vector.75"* %2, i64 0, i32 0, i32 0, i32 2
  %72 = bitcast %"class.mojo::internal::ContainerValidateParams"** %70 to i8*
  call void @llvm.memset.p0i8.i64(i8* align 8 %72, i8 0, i64 24, i1 false)
  %73 = load i32, i32* %71, align 4
  %74 = icmp ugt i32 %73, -9
  br i1 %74, label %86, label %75

75:                                               ; preds = %57
  %76 = add nuw i32 %73, 8
  %77 = zext i32 %76 to i64
  %78 = call i64 @_ZN4mojo8internal6Buffer8AllocateEm(%"class.mojo::internal::Buffer"* %11, i64 %77) #12
  %79 = load i8*, i8** %13, align 8
  %80 = getelementptr inbounds i8, i8* %79, i64 %78
  %81 = bitcast i8* %80 to i32*
  store i32 %76, i32* %81, align 1
  %82 = getelementptr inbounds i8, i8* %80, i64 4
  %83 = bitcast i8* %82 to i32*
  store i32 %73, i32* %83, align 1
  %84 = load i32, i32* %71, align 4
  %85 = icmp eq i32 %84, 0
  br i1 %85, label %105, label %86

86:                                               ; preds = %75, %57
  %87 = phi i64 [ -1, %57 ], [ %78, %75 ]
  %88 = phi i32 [ %73, %57 ], [ %84, %75 ]
  %89 = zext i32 %88 to i64
  %90 = getelementptr inbounds %"class.WTF::Vector.75", %"class.WTF::Vector.75"* %2, i64 0, i32 0, i32 0, i32 0
  %91 = load i8*, i8** %90, align 8
  %92 = load i8*, i8** %13, align 8
  %93 = getelementptr inbounds i8, i8* %92, i64 %87
  %94 = icmp eq i8* %91, null
  %95 = getelementptr inbounds i8, i8* %93, i64 8
  br i1 %94, label %97, label %96

96:                                               ; preds = %86
  call void @llvm.memcpy.p0i8.p0i8.i64(i8* align 1 %95, i8* nonnull align 1 %91, i64 %89, i1 false) #12
  br label %105

97:                                               ; preds = %86, %97
  %98 = phi i64 [ %99, %97 ], [ 0, %86 ]
  %99 = add nuw nsw i64 %98, 1
  %100 = trunc i64 %98 to i32
  %101 = call dereferenceable(1) i8* @_ZNK3WTF6VectorIhLj0ENS_18PartitionAllocatorEE2atEj(%"class.WTF::Vector.75"* %2, i32 %100) #12
  %102 = load i8, i8* %101, align 1
  %103 = getelementptr inbounds i8, i8* %95, i64 %98
  store i8 %102, i8* %103, align 1
  %104 = icmp eq i64 %99, %89
  br i1 %104, label %105, label %97

105:                                              ; preds = %97, %75, %96
  %106 = phi i64 [ %87, %96 ], [ %78, %75 ], [ %87, %97 ]
  %107 = load i8*, i8** %13, align 8
  %108 = getelementptr inbounds i8, i8* %107, i64 %12
  %109 = getelementptr inbounds i8, i8* %108, i64 16
  %110 = icmp eq i64 %106, -1
  %111 = getelementptr inbounds i8, i8* %107, i64 %106
  %112 = bitcast i8* %111 to %"class.mojo::internal::Array_Data.124"*
  %113 = select i1 %110, %"class.mojo::internal::Array_Data.124"* null, %"class.mojo::internal::Array_Data.124"* %112
  %114 = bitcast i8* %109 to i64*
  %115 = icmp eq %"class.mojo::internal::Array_Data.124"* %113, null
  %116 = ptrtoint %"class.mojo::internal::Array_Data.124"* %113 to i64
  %117 = ptrtoint i8* %109 to i64
  %118 = sub i64 %116, %117
  %119 = select i1 %115, i64 0, i64 %118
  store i64 %119, i64* %114, align 8
  %120 = load i8*, i8** %13, align 8
  %121 = getelementptr inbounds i8, i8* %120, i64 %12
  %122 = getelementptr inbounds i8, i8* %121, i64 24
  %123 = bitcast i8* %122 to i32*
  store i32 %3, i32* %123, align 4
  %124 = call i8* @_Znwm(i64 16) #13
  %125 = getelementptr inbounds %"class.base::OnceCallback.106", %"class.base::OnceCallback.106"* %4, i64 0, i32 0, i32 0, i32 0
  %126 = bitcast %"class.base::OnceCallback.106"* %4 to i64*
  %127 = load i64, i64* %126, align 8
  store %"class.base::internal::BindStateBase"* null, %"class.base::internal::BindStateBase"** %125, align 8
  %128 = bitcast i8* %124 to i32 (...)***
  store i32 (...)** bitcast (i8** getelementptr inbounds ({ [6 x i8*] }, { [6 x i8*] }* @_ZTVN5blink5mojom5blink68WebBluetoothService_RemoteCharacteristicWriteValue_ForwardToCallbackE, i64 0, inrange i32 0, i64 2) to i32 (...)**), i32 (...)*** %128, align 8
  %129 = getelementptr inbounds i8, i8* %124, i64 8
  %130 = getelementptr inbounds %"class.base::OnceCallback.106", %"class.base::OnceCallback.106"* %9, i64 0, i32 0, i32 0, i32 0
  %131 = bitcast i8* %129 to i64*
  store i64 %127, i64* %131, align 8
  store %"class.base::internal::BindStateBase"* null, %"class.base::internal::BindStateBase"** %130, align 8
  %132 = bitcast i8* %124 to %"class.mojo::MessageReceiver"*
  %133 = getelementptr inbounds %"class.base::OnceCallback.106", %"class.base::OnceCallback.106"* %9, i64 0, i32 0
  call void @_ZN4base8internal12CallbackBaseD2Ev(%"class.base::internal::CallbackBase"* nonnull %133) #12
  %134 = getelementptr inbounds %"class.blink::mojom::blink::WebBluetoothServiceProxy", %"class.blink::mojom::blink::WebBluetoothServiceProxy"* %0, i64 0, i32 1
  %135 = load %"class.mojo::MessageReceiverWithResponder"*, %"class.mojo::MessageReceiverWithResponder"** %134, align 8
  %136 = bitcast %"class.mojo::MessageReceiverWithResponder"* %135 to i1 (%"class.mojo::MessageReceiverWithResponder"*, %"class.mojo::Message"*, %"class.mojo::MessageReceiver"*)***
  %137 = load i1 (%"class.mojo::MessageReceiverWithResponder"*, %"class.mojo::Message"*, %"class.mojo::MessageReceiver"*)**, i1 (%"class.mojo::MessageReceiverWithResponder"*, %"class.mojo::Message"*, %"class.mojo::MessageReceiver"*)*** %136, align 8
  %138 = getelementptr inbounds i1 (%"class.mojo::MessageReceiverWithResponder"*, %"class.mojo::Message"*, %"class.mojo::MessageReceiver"*)*, i1 (%"class.mojo::MessageReceiverWithResponder"*, %"class.mojo::Message"*, %"class.mojo::MessageReceiver"*)** %137, i64 4
  %139 = load i1 (%"class.mojo::MessageReceiverWithResponder"*, %"class.mojo::Message"*, %"class.mojo::MessageReceiver"*)*, i1 (%"class.mojo::MessageReceiverWithResponder"*, %"class.mojo::Message"*, %"class.mojo::MessageReceiver"*)** %138, align 8
  %140 = call zeroext i1 %139(%"class.mojo::MessageReceiverWithResponder"* %135, %"class.mojo::Message"* nonnull %7, %"class.mojo::MessageReceiver"* nonnull %132) #12
  call void @_ZN4mojo8internal23ContainerValidateParamsD2Ev(%"class.mojo::internal::ContainerValidateParams"* nonnull %8) #12
  call void @llvm.lifetime.end.p0i8(i64 32, i8* nonnull %66) #12
  call void @_ZN4mojo7MessageD1Ev(%"class.mojo::Message"* nonnull %7) #12
  call void @llvm.lifetime.end.p0i8(i64 120, i8* nonnull %10) #12
  ret void
}

; Function Attrs: argmemonly nounwind
declare void @llvm.memcpy.p0i8.p0i8.i64(i8* nocapture writeonly, i8* nocapture readonly, i64, i1 immarg) #1

; Function Attrs: nounwind ssp uwtable
define linkonce_odr hidden void @_ZN4mojo8internal23ContainerValidateParamsD2Ev(%"class.mojo::internal::ContainerValidateParams"*) unnamed_addr #0 comdat align 2 {
  %2 = getelementptr inbounds %"class.mojo::internal::ContainerValidateParams", %"class.mojo::internal::ContainerValidateParams"* %0, i64 0, i32 3
  %3 = load %"class.mojo::internal::ContainerValidateParams"*, %"class.mojo::internal::ContainerValidateParams"** %2, align 8
  %4 = icmp eq %"class.mojo::internal::ContainerValidateParams"* %3, null
  br i1 %4, label %7, label %5

5:                                                ; preds = %1
  tail call void @_ZN4mojo8internal23ContainerValidateParamsD2Ev(%"class.mojo::internal::ContainerValidateParams"* nonnull %3) #12
  %6 = bitcast %"class.mojo::internal::ContainerValidateParams"* %3 to i8*
  tail call void @_ZdlPv(i8* %6) #13
  br label %7

7:                                                ; preds = %1, %5
  %8 = getelementptr inbounds %"class.mojo::internal::ContainerValidateParams", %"class.mojo::internal::ContainerValidateParams"* %0, i64 0, i32 2
  %9 = load %"class.mojo::internal::ContainerValidateParams"*, %"class.mojo::internal::ContainerValidateParams"** %8, align 8
  %10 = icmp eq %"class.mojo::internal::ContainerValidateParams"* %9, null
  br i1 %10, label %13, label %11

11:                                               ; preds = %7
  tail call void @_ZN4mojo8internal23ContainerValidateParamsD2Ev(%"class.mojo::internal::ContainerValidateParams"* nonnull %9) #12
  %12 = bitcast %"class.mojo::internal::ContainerValidateParams"* %9 to i8*
  tail call void @_ZdlPv(i8* %12) #13
  ret void

13:                                               ; preds = %7
  ret void
}

; Function Attrs: nounwind ssp uwtable
define hidden void @_ZN5blink5mojom5blink24WebBluetoothServiceProxy38RemoteCharacteristicStartNotificationsERKN3WTF6StringEN4mojo23PendingAssociatedRemoteINS1_32WebBluetoothCharacteristicClientEEEN4base12OnceCallbackIFvNS0_18WebBluetoothResultEEEE(%"class.blink::mojom::blink::WebBluetoothServiceProxy"* nocapture readonly, %"class.WTF::String"* dereferenceable(8), %"class.mojo::PendingAssociatedRemote.125"*, %"class.base::OnceCallback.106"* nocapture) unnamed_addr #0 align 2 {
  %5 = alloca %"class.mojo::ScopedInterfaceEndpointHandle", align 8
  %6 = alloca %"class.WTF::StringUTF8Adaptor", align 8
  %7 = alloca %"class.mojo::Message", align 8
  %8 = alloca %"class.base::OnceCallback.106", align 8
  %9 = bitcast %"class.mojo::Message"* %7 to i8*
  call void @llvm.lifetime.start.p0i8(i64 120, i8* nonnull %9) #12
  call void @llvm.memset.p0i8.i64(i8* nonnull align 8 %9, i8 -86, i64 120, i1 false)
  call void @_ZN4mojo7MessageC1EjjmmPNSt3__16vectorINS_16ScopedHandleBaseINS_6HandleEEENS1_9allocatorIS5_EEEE(%"class.mojo::Message"* nonnull %7, i32 649973803, i32 1, i64 0, i64 0, %"class.std::__1::vector"* null) #12
  %10 = getelementptr inbounds %"class.mojo::Message", %"class.mojo::Message"* %7, i64 0, i32 1
  %11 = call i64 @_ZN4mojo8internal6Buffer8AllocateEm(%"class.mojo::internal::Buffer"* %10, i64 24) #12
  %12 = getelementptr inbounds %"class.mojo::Message", %"class.mojo::Message"* %7, i64 0, i32 1, i32 2
  %13 = load i8*, i8** %12, align 8
  %14 = getelementptr inbounds i8, i8* %13, i64 %11
  %15 = bitcast i8* %14 to %"class.blink::mojom::internal::WebBluetoothService_RemoteCharacteristicStartNotifications_Params_Data"*
  call void @_ZN5blink5mojom8internal70WebBluetoothService_RemoteCharacteristicStartNotifications_Params_DataC1Ev(%"class.blink::mojom::internal::WebBluetoothService_RemoteCharacteristicStartNotifications_Params_Data"* %15) #12
  %16 = getelementptr inbounds %"class.WTF::String", %"class.WTF::String"* %1, i64 0, i32 0, i32 0
  %17 = load %"class.WTF::StringImpl"*, %"class.WTF::StringImpl"** %16, align 8
  %18 = icmp eq %"class.WTF::StringImpl"* %17, null
  br i1 %18, label %19, label %24

19:                                               ; preds = %4
  %20 = load i8*, i8** %12, align 8
  %21 = getelementptr inbounds i8, i8* %20, i64 %11
  %22 = getelementptr inbounds i8, i8* %21, i64 8
  %23 = bitcast i8* %22 to %"struct.mojo::internal::Pointer.110"*
  br label %56

24:                                               ; preds = %4
  %25 = bitcast %"class.WTF::StringUTF8Adaptor"* %6 to i8*
  call void @llvm.lifetime.start.p0i8(i64 40, i8* nonnull %25) #12
  call void @llvm.memset.p0i8.i64(i8* nonnull align 8 %25, i8 -86, i64 40, i1 false) #12
  call void @_ZN4mojo12StringTraitsIN3WTF6StringEE7GetUTF8ERKS2_(%"class.WTF::StringUTF8Adaptor"* nonnull sret %6, %"class.WTF::String"* dereferenceable(8) %1) #12
  %26 = getelementptr inbounds %"class.WTF::StringUTF8Adaptor", %"class.WTF::StringUTF8Adaptor"* %6, i64 0, i32 2
  %27 = load i32, i32* %26, align 8
  %28 = icmp ugt i32 %27, -9
  br i1 %28, label %39, label %29

29:                                               ; preds = %24
  %30 = add nuw i32 %27, 8
  %31 = zext i32 %30 to i64
  %32 = call i64 @_ZN4mojo8internal6Buffer8AllocateEm(%"class.mojo::internal::Buffer"* %10, i64 %31) #12
  %33 = load i8*, i8** %12, align 8
  %34 = getelementptr inbounds i8, i8* %33, i64 %32
  %35 = bitcast i8* %34 to i32*
  store i32 %30, i32* %35, align 1
  %36 = getelementptr inbounds i8, i8* %34, i64 4
  %37 = bitcast i8* %36 to i32*
  store i32 %27, i32* %37, align 1
  %38 = load i32, i32* %26, align 8
  br label %39

39:                                               ; preds = %24, %29
  %40 = phi i64 [ -1, %24 ], [ %32, %29 ]
  %41 = phi i32 [ %27, %24 ], [ %38, %29 ]
  %42 = load i8*, i8** %12, align 8
  %43 = getelementptr inbounds i8, i8* %42, i64 %40
  %44 = getelementptr inbounds i8, i8* %43, i64 8
  %45 = getelementptr inbounds %"class.WTF::StringUTF8Adaptor", %"class.WTF::StringUTF8Adaptor"* %6, i64 0, i32 1
  %46 = load i8*, i8** %45, align 8
  %47 = zext i32 %41 to i64
  call void @llvm.memcpy.p0i8.p0i8.i64(i8* align 1 %44, i8* align 1 %46, i64 %47, i1 false) #12
  call void @_ZN3WTF17StringUTF8AdaptorD1Ev(%"class.WTF::StringUTF8Adaptor"* nonnull %6) #12
  call void @llvm.lifetime.end.p0i8(i64 40, i8* nonnull %25) #12
  %48 = load i8*, i8** %12, align 8
  %49 = getelementptr inbounds i8, i8* %48, i64 %11
  %50 = getelementptr inbounds i8, i8* %49, i64 8
  %51 = bitcast i8* %50 to %"struct.mojo::internal::Pointer.110"*
  %52 = icmp eq i64 %40, -1
  br i1 %52, label %56, label %53

53:                                               ; preds = %39
  %54 = getelementptr inbounds i8, i8* %48, i64 %40
  %55 = bitcast i8* %54 to %"class.mojo::internal::Array_Data"*
  br label %56

56:                                               ; preds = %53, %39, %19
  %57 = phi %"struct.mojo::internal::Pointer.110"* [ %51, %53 ], [ %51, %39 ], [ %23, %19 ]
  %58 = phi %"class.mojo::internal::Array_Data"* [ %55, %53 ], [ null, %39 ], [ null, %19 ]
  %59 = getelementptr inbounds %"struct.mojo::internal::Pointer.110", %"struct.mojo::internal::Pointer.110"* %57, i64 0, i32 0
  %60 = icmp eq %"class.mojo::internal::Array_Data"* %58, null
  %61 = ptrtoint %"class.mojo::internal::Array_Data"* %58 to i64
  %62 = ptrtoint %"struct.mojo::internal::Pointer.110"* %57 to i64
  %63 = sub i64 %61, %62
  %64 = select i1 %60, i64 0, i64 %63
  store i64 %64, i64* %59, align 8
  %65 = load i8*, i8** %12, align 8
  %66 = getelementptr inbounds i8, i8* %65, i64 %11
  %67 = getelementptr inbounds i8, i8* %66, i64 16
  %68 = bitcast i8* %67 to %"struct.mojo::internal::AssociatedInterface_Data"*
  %69 = bitcast %"class.mojo::ScopedInterfaceEndpointHandle"* %5 to i8*
  call void @llvm.lifetime.start.p0i8(i64 8, i8* nonnull %69) #12
  %70 = getelementptr inbounds %"class.mojo::PendingAssociatedRemote.125", %"class.mojo::PendingAssociatedRemote.125"* %2, i64 0, i32 0
  call void @_ZN4mojo29ScopedInterfaceEndpointHandleC1EOS0_(%"class.mojo::ScopedInterfaceEndpointHandle"* nonnull %5, %"class.mojo::ScopedInterfaceEndpointHandle"* dereferenceable(8) %70) #12
  %71 = getelementptr inbounds %"class.mojo::PendingAssociatedRemote.125", %"class.mojo::PendingAssociatedRemote.125"* %2, i64 0, i32 1
  %72 = load i32, i32* %71, align 8
  call void @_ZN4mojo8internal32SerializeAssociatedInterfaceInfoENS_29ScopedInterfaceEndpointHandleEjRNS_7MessageERNS0_24AssociatedInterface_DataE(%"class.mojo::ScopedInterfaceEndpointHandle"* nonnull %5, i32 %72, %"class.mojo::Message"* nonnull dereferenceable(120) %7, %"struct.mojo::internal::AssociatedInterface_Data"* dereferenceable(8) %68) #12
  call void @_ZN4mojo29ScopedInterfaceEndpointHandleD1Ev(%"class.mojo::ScopedInterfaceEndpointHandle"* nonnull %5) #12
  call void @llvm.lifetime.end.p0i8(i64 8, i8* nonnull %69) #12
  %73 = call i8* @_Znwm(i64 16) #13
  %74 = getelementptr inbounds %"class.base::OnceCallback.106", %"class.base::OnceCallback.106"* %3, i64 0, i32 0, i32 0, i32 0
  %75 = bitcast %"class.base::OnceCallback.106"* %3 to i64*
  %76 = load i64, i64* %75, align 8
  store %"class.base::internal::BindStateBase"* null, %"class.base::internal::BindStateBase"** %74, align 8
  %77 = bitcast i8* %73 to i32 (...)***
  store i32 (...)** bitcast (i8** getelementptr inbounds ({ [6 x i8*] }, { [6 x i8*] }* @_ZTVN5blink5mojom5blink76WebBluetoothService_RemoteCharacteristicStartNotifications_ForwardToCallbackE, i64 0, inrange i32 0, i64 2) to i32 (...)**), i32 (...)*** %77, align 8
  %78 = getelementptr inbounds i8, i8* %73, i64 8
  %79 = getelementptr inbounds %"class.base::OnceCallback.106", %"class.base::OnceCallback.106"* %8, i64 0, i32 0, i32 0, i32 0
  %80 = bitcast i8* %78 to i64*
  store i64 %76, i64* %80, align 8
  store %"class.base::internal::BindStateBase"* null, %"class.base::internal::BindStateBase"** %79, align 8
  %81 = bitcast i8* %73 to %"class.mojo::MessageReceiver"*
  %82 = getelementptr inbounds %"class.base::OnceCallback.106", %"class.base::OnceCallback.106"* %8, i64 0, i32 0
  call void @_ZN4base8internal12CallbackBaseD2Ev(%"class.base::internal::CallbackBase"* nonnull %82) #12
  %83 = getelementptr inbounds %"class.blink::mojom::blink::WebBluetoothServiceProxy", %"class.blink::mojom::blink::WebBluetoothServiceProxy"* %0, i64 0, i32 1
  %84 = load %"class.mojo::MessageReceiverWithResponder"*, %"class.mojo::MessageReceiverWithResponder"** %83, align 8
  %85 = bitcast %"class.mojo::MessageReceiverWithResponder"* %84 to i1 (%"class.mojo::MessageReceiverWithResponder"*, %"class.mojo::Message"*, %"class.mojo::MessageReceiver"*)***
  %86 = load i1 (%"class.mojo::MessageReceiverWithResponder"*, %"class.mojo::Message"*, %"class.mojo::MessageReceiver"*)**, i1 (%"class.mojo::MessageReceiverWithResponder"*, %"class.mojo::Message"*, %"class.mojo::MessageReceiver"*)*** %85, align 8
  %87 = getelementptr inbounds i1 (%"class.mojo::MessageReceiverWithResponder"*, %"class.mojo::Message"*, %"class.mojo::MessageReceiver"*)*, i1 (%"class.mojo::MessageReceiverWithResponder"*, %"class.mojo::Message"*, %"class.mojo::MessageReceiver"*)** %86, i64 4
  %88 = load i1 (%"class.mojo::MessageReceiverWithResponder"*, %"class.mojo::Message"*, %"class.mojo::MessageReceiver"*)*, i1 (%"class.mojo::MessageReceiverWithResponder"*, %"class.mojo::Message"*, %"class.mojo::MessageReceiver"*)** %87, align 8
  %89 = call zeroext i1 %88(%"class.mojo::MessageReceiverWithResponder"* %84, %"class.mojo::Message"* nonnull %7, %"class.mojo::MessageReceiver"* nonnull %81) #12
  call void @_ZN4mojo7MessageD1Ev(%"class.mojo::Message"* nonnull %7) #12
  call void @llvm.lifetime.end.p0i8(i64 120, i8* nonnull %9) #12
  ret void
}

; Function Attrs: nounwind ssp uwtable
define hidden void @_ZN5blink5mojom5blink24WebBluetoothServiceProxy37RemoteCharacteristicStopNotificationsERKN3WTF6StringEN4base12OnceCallbackIFvvEEE(%"class.blink::mojom::blink::WebBluetoothServiceProxy"* nocapture readonly, %"class.WTF::String"* dereferenceable(8), %"class.base::OnceCallback.128"* nocapture) unnamed_addr #0 align 2 {
  %4 = alloca %"class.WTF::StringUTF8Adaptor", align 8
  %5 = alloca %"class.mojo::Message", align 8
  %6 = alloca %"class.base::OnceCallback.128", align 8
  %7 = bitcast %"class.mojo::Message"* %5 to i8*
  call void @llvm.lifetime.start.p0i8(i64 120, i8* nonnull %7) #12
  call void @llvm.memset.p0i8.i64(i8* nonnull align 8 %7, i8 -86, i64 120, i1 false)
  call void @_ZN4mojo7MessageC1EjjmmPNSt3__16vectorINS_16ScopedHandleBaseINS_6HandleEEENS1_9allocatorIS5_EEEE(%"class.mojo::Message"* nonnull %5, i32 2069003051, i32 1, i64 0, i64 0, %"class.std::__1::vector"* null) #12
  %8 = getelementptr inbounds %"class.mojo::Message", %"class.mojo::Message"* %5, i64 0, i32 1
  %9 = call i64 @_ZN4mojo8internal6Buffer8AllocateEm(%"class.mojo::internal::Buffer"* %8, i64 16) #12
  %10 = getelementptr inbounds %"class.mojo::Message", %"class.mojo::Message"* %5, i64 0, i32 1, i32 2
  %11 = load i8*, i8** %10, align 8
  %12 = getelementptr inbounds i8, i8* %11, i64 %9
  %13 = bitcast i8* %12 to %"class.blink::mojom::internal::WebBluetoothService_RemoteCharacteristicStopNotifications_Params_Data"*
  call void @_ZN5blink5mojom8internal69WebBluetoothService_RemoteCharacteristicStopNotifications_Params_DataC1Ev(%"class.blink::mojom::internal::WebBluetoothService_RemoteCharacteristicStopNotifications_Params_Data"* %13) #12
  %14 = getelementptr inbounds %"class.WTF::String", %"class.WTF::String"* %1, i64 0, i32 0, i32 0
  %15 = load %"class.WTF::StringImpl"*, %"class.WTF::StringImpl"** %14, align 8
  %16 = icmp eq %"class.WTF::StringImpl"* %15, null
  br i1 %16, label %17, label %22

17:                                               ; preds = %3
  %18 = load i8*, i8** %10, align 8
  %19 = getelementptr inbounds i8, i8* %18, i64 %9
  %20 = getelementptr inbounds i8, i8* %19, i64 8
  %21 = bitcast i8* %20 to %"struct.mojo::internal::Pointer.110"*
  br label %54

22:                                               ; preds = %3
  %23 = bitcast %"class.WTF::StringUTF8Adaptor"* %4 to i8*
  call void @llvm.lifetime.start.p0i8(i64 40, i8* nonnull %23) #12
  call void @llvm.memset.p0i8.i64(i8* nonnull align 8 %23, i8 -86, i64 40, i1 false) #12
  call void @_ZN4mojo12StringTraitsIN3WTF6StringEE7GetUTF8ERKS2_(%"class.WTF::StringUTF8Adaptor"* nonnull sret %4, %"class.WTF::String"* dereferenceable(8) %1) #12
  %24 = getelementptr inbounds %"class.WTF::StringUTF8Adaptor", %"class.WTF::StringUTF8Adaptor"* %4, i64 0, i32 2
  %25 = load i32, i32* %24, align 8
  %26 = icmp ugt i32 %25, -9
  br i1 %26, label %37, label %27

27:                                               ; preds = %22
  %28 = add nuw i32 %25, 8
  %29 = zext i32 %28 to i64
  %30 = call i64 @_ZN4mojo8internal6Buffer8AllocateEm(%"class.mojo::internal::Buffer"* %8, i64 %29) #12
  %31 = load i8*, i8** %10, align 8
  %32 = getelementptr inbounds i8, i8* %31, i64 %30
  %33 = bitcast i8* %32 to i32*
  store i32 %28, i32* %33, align 1
  %34 = getelementptr inbounds i8, i8* %32, i64 4
  %35 = bitcast i8* %34 to i32*
  store i32 %25, i32* %35, align 1
  %36 = load i32, i32* %24, align 8
  br label %37

37:                                               ; preds = %22, %27
  %38 = phi i64 [ -1, %22 ], [ %30, %27 ]
  %39 = phi i32 [ %25, %22 ], [ %36, %27 ]
  %40 = load i8*, i8** %10, align 8
  %41 = getelementptr inbounds i8, i8* %40, i64 %38
  %42 = getelementptr inbounds i8, i8* %41, i64 8
  %43 = getelementptr inbounds %"class.WTF::StringUTF8Adaptor", %"class.WTF::StringUTF8Adaptor"* %4, i64 0, i32 1
  %44 = load i8*, i8** %43, align 8
  %45 = zext i32 %39 to i64
  call void @llvm.memcpy.p0i8.p0i8.i64(i8* align 1 %42, i8* align 1 %44, i64 %45, i1 false) #12
  call void @_ZN3WTF17StringUTF8AdaptorD1Ev(%"class.WTF::StringUTF8Adaptor"* nonnull %4) #12
  call void @llvm.lifetime.end.p0i8(i64 40, i8* nonnull %23) #12
  %46 = load i8*, i8** %10, align 8
  %47 = getelementptr inbounds i8, i8* %46, i64 %9
  %48 = getelementptr inbounds i8, i8* %47, i64 8
  %49 = bitcast i8* %48 to %"struct.mojo::internal::Pointer.110"*
  %50 = icmp eq i64 %38, -1
  br i1 %50, label %54, label %51

51:                                               ; preds = %37
  %52 = getelementptr inbounds i8, i8* %46, i64 %38
  %53 = bitcast i8* %52 to %"class.mojo::internal::Array_Data"*
  br label %54

54:                                               ; preds = %51, %37, %17
  %55 = phi %"struct.mojo::internal::Pointer.110"* [ %49, %51 ], [ %49, %37 ], [ %21, %17 ]
  %56 = phi %"class.mojo::internal::Array_Data"* [ %53, %51 ], [ null, %37 ], [ null, %17 ]
  %57 = getelementptr inbounds %"struct.mojo::internal::Pointer.110", %"struct.mojo::internal::Pointer.110"* %55, i64 0, i32 0
  %58 = icmp eq %"class.mojo::internal::Array_Data"* %56, null
  %59 = ptrtoint %"class.mojo::internal::Array_Data"* %56 to i64
  %60 = ptrtoint %"struct.mojo::internal::Pointer.110"* %55 to i64
  %61 = sub i64 %59, %60
  %62 = select i1 %58, i64 0, i64 %61
  store i64 %62, i64* %57, align 8
  %63 = call i8* @_Znwm(i64 16) #13
  %64 = getelementptr inbounds %"class.base::OnceCallback.128", %"class.base::OnceCallback.128"* %2, i64 0, i32 0, i32 0, i32 0
  %65 = bitcast %"class.base::OnceCallback.128"* %2 to i64*
  %66 = load i64, i64* %65, align 8
  store %"class.base::internal::BindStateBase"* null, %"class.base::internal::BindStateBase"** %64, align 8
  %67 = bitcast i8* %63 to i32 (...)***
  store i32 (...)** bitcast (i8** getelementptr inbounds ({ [6 x i8*] }, { [6 x i8*] }* @_ZTVN5blink5mojom5blink75WebBluetoothService_RemoteCharacteristicStopNotifications_ForwardToCallbackE, i64 0, inrange i32 0, i64 2) to i32 (...)**), i32 (...)*** %67, align 8
  %68 = getelementptr inbounds i8, i8* %63, i64 8
  %69 = getelementptr inbounds %"class.base::OnceCallback.128", %"class.base::OnceCallback.128"* %6, i64 0, i32 0, i32 0, i32 0
  %70 = bitcast i8* %68 to i64*
  store i64 %66, i64* %70, align 8
  store %"class.base::internal::BindStateBase"* null, %"class.base::internal::BindStateBase"** %69, align 8
  %71 = bitcast i8* %63 to %"class.mojo::MessageReceiver"*
  %72 = getelementptr inbounds %"class.base::OnceCallback.128", %"class.base::OnceCallback.128"* %6, i64 0, i32 0
  call void @_ZN4base8internal12CallbackBaseD2Ev(%"class.base::internal::CallbackBase"* nonnull %72) #12
  %73 = getelementptr inbounds %"class.blink::mojom::blink::WebBluetoothServiceProxy", %"class.blink::mojom::blink::WebBluetoothServiceProxy"* %0, i64 0, i32 1
  %74 = load %"class.mojo::MessageReceiverWithResponder"*, %"class.mojo::MessageReceiverWithResponder"** %73, align 8
  %75 = bitcast %"class.mojo::MessageReceiverWithResponder"* %74 to i1 (%"class.mojo::MessageReceiverWithResponder"*, %"class.mojo::Message"*, %"class.mojo::MessageReceiver"*)***
  %76 = load i1 (%"class.mojo::MessageReceiverWithResponder"*, %"class.mojo::Message"*, %"class.mojo::MessageReceiver"*)**, i1 (%"class.mojo::MessageReceiverWithResponder"*, %"class.mojo::Message"*, %"class.mojo::MessageReceiver"*)*** %75, align 8
  %77 = getelementptr inbounds i1 (%"class.mojo::MessageReceiverWithResponder"*, %"class.mojo::Message"*, %"class.mojo::MessageReceiver"*)*, i1 (%"class.mojo::MessageReceiverWithResponder"*, %"class.mojo::Message"*, %"class.mojo::MessageReceiver"*)** %76, i64 4
  %78 = load i1 (%"class.mojo::MessageReceiverWithResponder"*, %"class.mojo::Message"*, %"class.mojo::MessageReceiver"*)*, i1 (%"class.mojo::MessageReceiverWithResponder"*, %"class.mojo::Message"*, %"class.mojo::MessageReceiver"*)** %77, align 8
  %79 = call zeroext i1 %78(%"class.mojo::MessageReceiverWithResponder"* %74, %"class.mojo::Message"* nonnull %5, %"class.mojo::MessageReceiver"* nonnull %71) #12
  call void @_ZN4mojo7MessageD1Ev(%"class.mojo::Message"* nonnull %5) #12
  call void @llvm.lifetime.end.p0i8(i64 120, i8* nonnull %7) #12
  ret void
}

; Function Attrs: nounwind ssp uwtable
define hidden void @_ZN5blink5mojom5blink24WebBluetoothServiceProxy34RemoteCharacteristicGetDescriptorsERKN3WTF6StringENS0_29WebBluetoothGATTQueryQuantityES6_N4base12OnceCallbackIFvNS0_18WebBluetoothResultEN4absl8optionalINS3_6VectorIN4mojo9StructPtrINS1_32WebBluetoothRemoteGATTDescriptorEEELj0ENS3_18PartitionAllocatorEEEEEEEE(%"class.blink::mojom::blink::WebBluetoothServiceProxy"* nocapture readonly, %"class.WTF::String"* dereferenceable(8), i32, %"class.WTF::String"* dereferenceable(8), %"class.base::OnceCallback.130"* nocapture) unnamed_addr #0 align 2 {
  %6 = alloca %"class.WTF::StringUTF8Adaptor", align 8
  %7 = alloca %"class.mojo::Message", align 8
  %8 = alloca %"class.mojo::internal::MessageFragment.115", align 8
  %9 = alloca %"class.base::OnceCallback.130", align 8
  %10 = bitcast %"class.mojo::Message"* %7 to i8*
  call void @llvm.lifetime.start.p0i8(i64 120, i8* nonnull %10) #12
  call void @llvm.memset.p0i8.i64(i8* nonnull align 8 %10, i8 -86, i64 120, i1 false)
  call void @_ZN4mojo7MessageC1EjjmmPNSt3__16vectorINS_16ScopedHandleBaseINS_6HandleEEENS1_9allocatorIS5_EEEE(%"class.mojo::Message"* nonnull %7, i32 790741108, i32 1, i64 0, i64 0, %"class.std::__1::vector"* null) #12
  %11 = getelementptr inbounds %"class.mojo::Message", %"class.mojo::Message"* %7, i64 0, i32 1
  %12 = call i64 @_ZN4mojo8internal6Buffer8AllocateEm(%"class.mojo::internal::Buffer"* %11, i64 32) #12
  %13 = getelementptr inbounds %"class.mojo::Message", %"class.mojo::Message"* %7, i64 0, i32 1, i32 2
  %14 = load i8*, i8** %13, align 8
  %15 = getelementptr inbounds i8, i8* %14, i64 %12
  %16 = bitcast i8* %15 to %"class.blink::mojom::internal::WebBluetoothService_RemoteCharacteristicGetDescriptors_Params_Data"*
  call void @_ZN5blink5mojom8internal66WebBluetoothService_RemoteCharacteristicGetDescriptors_Params_DataC1Ev(%"class.blink::mojom::internal::WebBluetoothService_RemoteCharacteristicGetDescriptors_Params_Data"* %16) #12
  %17 = getelementptr inbounds %"class.WTF::String", %"class.WTF::String"* %1, i64 0, i32 0, i32 0
  %18 = load %"class.WTF::StringImpl"*, %"class.WTF::StringImpl"** %17, align 8
  %19 = icmp eq %"class.WTF::StringImpl"* %18, null
  br i1 %19, label %20, label %25

20:                                               ; preds = %5
  %21 = load i8*, i8** %13, align 8
  %22 = getelementptr inbounds i8, i8* %21, i64 %12
  %23 = getelementptr inbounds i8, i8* %22, i64 8
  %24 = bitcast i8* %23 to %"struct.mojo::internal::Pointer.110"*
  br label %57

25:                                               ; preds = %5
  %26 = bitcast %"class.WTF::StringUTF8Adaptor"* %6 to i8*
  call void @llvm.lifetime.start.p0i8(i64 40, i8* nonnull %26) #12
  call void @llvm.memset.p0i8.i64(i8* nonnull align 8 %26, i8 -86, i64 40, i1 false) #12
  call void @_ZN4mojo12StringTraitsIN3WTF6StringEE7GetUTF8ERKS2_(%"class.WTF::StringUTF8Adaptor"* nonnull sret %6, %"class.WTF::String"* dereferenceable(8) %1) #12
  %27 = getelementptr inbounds %"class.WTF::StringUTF8Adaptor", %"class.WTF::StringUTF8Adaptor"* %6, i64 0, i32 2
  %28 = load i32, i32* %27, align 8
  %29 = icmp ugt i32 %28, -9
  br i1 %29, label %40, label %30

30:                                               ; preds = %25
  %31 = add nuw i32 %28, 8
  %32 = zext i32 %31 to i64
  %33 = call i64 @_ZN4mojo8internal6Buffer8AllocateEm(%"class.mojo::internal::Buffer"* %11, i64 %32) #12
  %34 = load i8*, i8** %13, align 8
  %35 = getelementptr inbounds i8, i8* %34, i64 %33
  %36 = bitcast i8* %35 to i32*
  store i32 %31, i32* %36, align 1
  %37 = getelementptr inbounds i8, i8* %35, i64 4
  %38 = bitcast i8* %37 to i32*
  store i32 %28, i32* %38, align 1
  %39 = load i32, i32* %27, align 8
  br label %40

40:                                               ; preds = %25, %30
  %41 = phi i64 [ -1, %25 ], [ %33, %30 ]
  %42 = phi i32 [ %28, %25 ], [ %39, %30 ]
  %43 = load i8*, i8** %13, align 8
  %44 = getelementptr inbounds i8, i8* %43, i64 %41
  %45 = getelementptr inbounds i8, i8* %44, i64 8
  %46 = getelementptr inbounds %"class.WTF::StringUTF8Adaptor", %"class.WTF::StringUTF8Adaptor"* %6, i64 0, i32 1
  %47 = load i8*, i8** %46, align 8
  %48 = zext i32 %42 to i64
  call void @llvm.memcpy.p0i8.p0i8.i64(i8* align 1 %45, i8* align 1 %47, i64 %48, i1 false) #12
  call void @_ZN3WTF17StringUTF8AdaptorD1Ev(%"class.WTF::StringUTF8Adaptor"* nonnull %6) #12
  call void @llvm.lifetime.end.p0i8(i64 40, i8* nonnull %26) #12
  %49 = load i8*, i8** %13, align 8
  %50 = getelementptr inbounds i8, i8* %49, i64 %12
  %51 = getelementptr inbounds i8, i8* %50, i64 8
  %52 = bitcast i8* %51 to %"struct.mojo::internal::Pointer.110"*
  %53 = icmp eq i64 %41, -1
  br i1 %53, label %57, label %54

54:                                               ; preds = %40
  %55 = getelementptr inbounds i8, i8* %49, i64 %41
  %56 = bitcast i8* %55 to %"class.mojo::internal::Array_Data"*
  br label %57

57:                                               ; preds = %20, %40, %54
  %58 = phi %"struct.mojo::internal::Pointer.110"* [ %52, %54 ], [ %52, %40 ], [ %24, %20 ]
  %59 = phi %"class.mojo::internal::Array_Data"* [ %56, %54 ], [ null, %40 ], [ null, %20 ]
  %60 = getelementptr inbounds %"struct.mojo::internal::Pointer.110", %"struct.mojo::internal::Pointer.110"* %58, i64 0, i32 0
  %61 = icmp eq %"class.mojo::internal::Array_Data"* %59, null
  %62 = ptrtoint %"class.mojo::internal::Array_Data"* %59 to i64
  %63 = ptrtoint %"struct.mojo::internal::Pointer.110"* %58 to i64
  %64 = sub i64 %62, %63
  %65 = select i1 %61, i64 0, i64 %64
  store i64 %65, i64* %60, align 8
  %66 = load i8*, i8** %13, align 8
  %67 = getelementptr inbounds i8, i8* %66, i64 %12
  %68 = getelementptr inbounds i8, i8* %67, i64 16
  %69 = bitcast i8* %68 to i32*
  store i32 %2, i32* %69, align 4
  %70 = bitcast %"class.mojo::internal::MessageFragment.115"* %8 to i8*
  call void @llvm.lifetime.start.p0i8(i64 16, i8* nonnull %70) #12
  %71 = getelementptr inbounds %"class.mojo::internal::MessageFragment.115", %"class.mojo::internal::MessageFragment.115"* %8, i64 0, i32 0
  %72 = getelementptr inbounds %"class.mojo::internal::MessageFragment.115", %"class.mojo::internal::MessageFragment.115"* %8, i64 0, i32 1
  store %"class.mojo::Message"* %7, %"class.mojo::Message"** %71, align 8
  store i64 -1, i64* %72, align 8
  call void @_ZN4mojo8internal10SerializerIN9bluetooth5mojom12UUIDDataViewEKN3WTF6StringEE9SerializeERS7_RNS0_15MessageFragmentINS3_8internal9UUID_DataEEE(%"class.WTF::String"* dereferenceable(8) %3, %"class.mojo::internal::MessageFragment.115"* nonnull dereferenceable(16) %8) #12
  %73 = load i8*, i8** %13, align 8
  %74 = getelementptr inbounds i8, i8* %73, i64 %12
  %75 = getelementptr inbounds i8, i8* %74, i64 24
  %76 = load i64, i64* %72, align 8
  %77 = icmp eq i64 %76, -1
  br i1 %77, label %84, label %78

78:                                               ; preds = %57
  %79 = load %"class.mojo::Message"*, %"class.mojo::Message"** %71, align 8
  %80 = getelementptr inbounds %"class.mojo::Message", %"class.mojo::Message"* %79, i64 0, i32 1, i32 2
  %81 = load i8*, i8** %80, align 8
  %82 = getelementptr inbounds i8, i8* %81, i64 %76
  %83 = bitcast i8* %82 to %"class.bluetooth::mojom::internal::UUID_Data"*
  br label %84

84:                                               ; preds = %78, %57
  %85 = phi %"class.bluetooth::mojom::internal::UUID_Data"* [ %83, %78 ], [ null, %57 ]
  %86 = bitcast i8* %75 to i64*
  %87 = icmp eq %"class.bluetooth::mojom::internal::UUID_Data"* %85, null
  %88 = ptrtoint %"class.bluetooth::mojom::internal::UUID_Data"* %85 to i64
  %89 = ptrtoint i8* %75 to i64
  %90 = sub i64 %88, %89
  %91 = select i1 %87, i64 0, i64 %90
  store i64 %91, i64* %86, align 8
  %92 = call i8* @_Znwm(i64 16) #13
  %93 = getelementptr inbounds %"class.base::OnceCallback.130", %"class.base::OnceCallback.130"* %4, i64 0, i32 0, i32 0, i32 0
  %94 = bitcast %"class.base::OnceCallback.130"* %4 to i64*
  %95 = load i64, i64* %94, align 8
  store %"class.base::internal::BindStateBase"* null, %"class.base::internal::BindStateBase"** %93, align 8
  %96 = bitcast i8* %92 to i32 (...)***
  store i32 (...)** bitcast (i8** getelementptr inbounds ({ [6 x i8*] }, { [6 x i8*] }* @_ZTVN5blink5mojom5blink72WebBluetoothService_RemoteCharacteristicGetDescriptors_ForwardToCallbackE, i64 0, inrange i32 0, i64 2) to i32 (...)**), i32 (...)*** %96, align 8
  %97 = getelementptr inbounds i8, i8* %92, i64 8
  %98 = getelementptr inbounds %"class.base::OnceCallback.130", %"class.base::OnceCallback.130"* %9, i64 0, i32 0, i32 0, i32 0
  %99 = bitcast i8* %97 to i64*
  store i64 %95, i64* %99, align 8
  store %"class.base::internal::BindStateBase"* null, %"class.base::internal::BindStateBase"** %98, align 8
  %100 = bitcast i8* %92 to %"class.mojo::MessageReceiver"*
  %101 = getelementptr inbounds %"class.base::OnceCallback.130", %"class.base::OnceCallback.130"* %9, i64 0, i32 0
  call void @_ZN4base8internal12CallbackBaseD2Ev(%"class.base::internal::CallbackBase"* nonnull %101) #12
  %102 = getelementptr inbounds %"class.blink::mojom::blink::WebBluetoothServiceProxy", %"class.blink::mojom::blink::WebBluetoothServiceProxy"* %0, i64 0, i32 1
  %103 = load %"class.mojo::MessageReceiverWithResponder"*, %"class.mojo::MessageReceiverWithResponder"** %102, align 8
  %104 = bitcast %"class.mojo::MessageReceiverWithResponder"* %103 to i1 (%"class.mojo::MessageReceiverWithResponder"*, %"class.mojo::Message"*, %"class.mojo::MessageReceiver"*)***
  %105 = load i1 (%"class.mojo::MessageReceiverWithResponder"*, %"class.mojo::Message"*, %"class.mojo::MessageReceiver"*)**, i1 (%"class.mojo::MessageReceiverWithResponder"*, %"class.mojo::Message"*, %"class.mojo::MessageReceiver"*)*** %104, align 8
  %106 = getelementptr inbounds i1 (%"class.mojo::MessageReceiverWithResponder"*, %"class.mojo::Message"*, %"class.mojo::MessageReceiver"*)*, i1 (%"class.mojo::MessageReceiverWithResponder"*, %"class.mojo::Message"*, %"class.mojo::MessageReceiver"*)** %105, i64 4
  %107 = load i1 (%"class.mojo::MessageReceiverWithResponder"*, %"class.mojo::Message"*, %"class.mojo::MessageReceiver"*)*, i1 (%"class.mojo::MessageReceiverWithResponder"*, %"class.mojo::Message"*, %"class.mojo::MessageReceiver"*)** %106, align 8
  %108 = call zeroext i1 %107(%"class.mojo::MessageReceiverWithResponder"* %103, %"class.mojo::Message"* nonnull %7, %"class.mojo::MessageReceiver"* nonnull %100) #12
  call void @llvm.lifetime.end.p0i8(i64 16, i8* nonnull %70) #12
  call void @_ZN4mojo7MessageD1Ev(%"class.mojo::Message"* nonnull %7) #12
  call void @llvm.lifetime.end.p0i8(i64 120, i8* nonnull %10) #12
  ret void
}

; Function Attrs: nounwind ssp uwtable
define hidden void @_ZN5blink5mojom5blink24WebBluetoothServiceProxy25RemoteDescriptorReadValueERKN3WTF6StringEN4base12OnceCallbackIFvNS0_18WebBluetoothResultERKN4absl8optionalINS3_6VectorIhLj0ENS3_18PartitionAllocatorEEEEEEEE(%"class.blink::mojom::blink::WebBluetoothServiceProxy"* nocapture readonly, %"class.WTF::String"* dereferenceable(8), %"class.base::OnceCallback.119"* nocapture) unnamed_addr #0 align 2 {
  %4 = alloca %"class.WTF::StringUTF8Adaptor", align 8
  %5 = alloca %"class.mojo::Message", align 8
  %6 = alloca %"class.base::OnceCallback.119", align 8
  %7 = bitcast %"class.mojo::Message"* %5 to i8*
  call void @llvm.lifetime.start.p0i8(i64 120, i8* nonnull %7) #12
  call void @llvm.memset.p0i8.i64(i8* nonnull align 8 %7, i8 -86, i64 120, i1 false)
  call void @_ZN4mojo7MessageC1EjjmmPNSt3__16vectorINS_16ScopedHandleBaseINS_6HandleEEENS1_9allocatorIS5_EEEE(%"class.mojo::Message"* nonnull %5, i32 1388517646, i32 1, i64 0, i64 0, %"class.std::__1::vector"* null) #12
  %8 = getelementptr inbounds %"class.mojo::Message", %"class.mojo::Message"* %5, i64 0, i32 1
  %9 = call i64 @_ZN4mojo8internal6Buffer8AllocateEm(%"class.mojo::internal::Buffer"* %8, i64 16) #12
  %10 = getelementptr inbounds %"class.mojo::Message", %"class.mojo::Message"* %5, i64 0, i32 1, i32 2
  %11 = load i8*, i8** %10, align 8
  %12 = getelementptr inbounds i8, i8* %11, i64 %9
  %13 = bitcast i8* %12 to %"class.blink::mojom::internal::WebBluetoothService_RemoteDescriptorReadValue_Params_Data"*
  call void @_ZN5blink5mojom8internal57WebBluetoothService_RemoteDescriptorReadValue_Params_DataC1Ev(%"class.blink::mojom::internal::WebBluetoothService_RemoteDescriptorReadValue_Params_Data"* %13) #12
  %14 = getelementptr inbounds %"class.WTF::String", %"class.WTF::String"* %1, i64 0, i32 0, i32 0
  %15 = load %"class.WTF::StringImpl"*, %"class.WTF::StringImpl"** %14, align 8
  %16 = icmp eq %"class.WTF::StringImpl"* %15, null
  br i1 %16, label %17, label %22

17:                                               ; preds = %3
  %18 = load i8*, i8** %10, align 8
  %19 = getelementptr inbounds i8, i8* %18, i64 %9
  %20 = getelementptr inbounds i8, i8* %19, i64 8
  %21 = bitcast i8* %20 to %"struct.mojo::internal::Pointer.110"*
  br label %54

22:                                               ; preds = %3
  %23 = bitcast %"class.WTF::StringUTF8Adaptor"* %4 to i8*
  call void @llvm.lifetime.start.p0i8(i64 40, i8* nonnull %23) #12
  call void @llvm.memset.p0i8.i64(i8* nonnull align 8 %23, i8 -86, i64 40, i1 false) #12
  call void @_ZN4mojo12StringTraitsIN3WTF6StringEE7GetUTF8ERKS2_(%"class.WTF::StringUTF8Adaptor"* nonnull sret %4, %"class.WTF::String"* dereferenceable(8) %1) #12
  %24 = getelementptr inbounds %"class.WTF::StringUTF8Adaptor", %"class.WTF::StringUTF8Adaptor"* %4, i64 0, i32 2
  %25 = load i32, i32* %24, align 8
  %26 = icmp ugt i32 %25, -9
  br i1 %26, label %37, label %27

27:                                               ; preds = %22
  %28 = add nuw i32 %25, 8
  %29 = zext i32 %28 to i64
  %30 = call i64 @_ZN4mojo8internal6Buffer8AllocateEm(%"class.mojo::internal::Buffer"* %8, i64 %29) #12
  %31 = load i8*, i8** %10, align 8
  %32 = getelementptr inbounds i8, i8* %31, i64 %30
  %33 = bitcast i8* %32 to i32*
  store i32 %28, i32* %33, align 1
  %34 = getelementptr inbounds i8, i8* %32, i64 4
  %35 = bitcast i8* %34 to i32*
  store i32 %25, i32* %35, align 1
  %36 = load i32, i32* %24, align 8
  br label %37

37:                                               ; preds = %22, %27
  %38 = phi i64 [ -1, %22 ], [ %30, %27 ]
  %39 = phi i32 [ %25, %22 ], [ %36, %27 ]
  %40 = load i8*, i8** %10, align 8
  %41 = getelementptr inbounds i8, i8* %40, i64 %38
  %42 = getelementptr inbounds i8, i8* %41, i64 8
  %43 = getelementptr inbounds %"class.WTF::StringUTF8Adaptor", %"class.WTF::StringUTF8Adaptor"* %4, i64 0, i32 1
  %44 = load i8*, i8** %43, align 8
  %45 = zext i32 %39 to i64
  call void @llvm.memcpy.p0i8.p0i8.i64(i8* align 1 %42, i8* align 1 %44, i64 %45, i1 false) #12
  call void @_ZN3WTF17StringUTF8AdaptorD1Ev(%"class.WTF::StringUTF8Adaptor"* nonnull %4) #12
  call void @llvm.lifetime.end.p0i8(i64 40, i8* nonnull %23) #12
  %46 = load i8*, i8** %10, align 8
  %47 = getelementptr inbounds i8, i8* %46, i64 %9
  %48 = getelementptr inbounds i8, i8* %47, i64 8
  %49 = bitcast i8* %48 to %"struct.mojo::internal::Pointer.110"*
  %50 = icmp eq i64 %38, -1
  br i1 %50, label %54, label %51

51:                                               ; preds = %37
  %52 = getelementptr inbounds i8, i8* %46, i64 %38
  %53 = bitcast i8* %52 to %"class.mojo::internal::Array_Data"*
  br label %54

54:                                               ; preds = %51, %37, %17
  %55 = phi %"struct.mojo::internal::Pointer.110"* [ %49, %51 ], [ %49, %37 ], [ %21, %17 ]
  %56 = phi %"class.mojo::internal::Array_Data"* [ %53, %51 ], [ null, %37 ], [ null, %17 ]
  %57 = getelementptr inbounds %"struct.mojo::internal::Pointer.110", %"struct.mojo::internal::Pointer.110"* %55, i64 0, i32 0
  %58 = icmp eq %"class.mojo::internal::Array_Data"* %56, null
  %59 = ptrtoint %"class.mojo::internal::Array_Data"* %56 to i64
  %60 = ptrtoint %"struct.mojo::internal::Pointer.110"* %55 to i64
  %61 = sub i64 %59, %60
  %62 = select i1 %58, i64 0, i64 %61
  store i64 %62, i64* %57, align 8
  %63 = call i8* @_Znwm(i64 16) #13
  %64 = getelementptr inbounds %"class.base::OnceCallback.119", %"class.base::OnceCallback.119"* %2, i64 0, i32 0, i32 0, i32 0
  %65 = bitcast %"class.base::OnceCallback.119"* %2 to i64*
  %66 = load i64, i64* %65, align 8
  store %"class.base::internal::BindStateBase"* null, %"class.base::internal::BindStateBase"** %64, align 8
  %67 = bitcast i8* %63 to i32 (...)***
  store i32 (...)** bitcast (i8** getelementptr inbounds ({ [6 x i8*] }, { [6 x i8*] }* @_ZTVN5blink5mojom5blink63WebBluetoothService_RemoteDescriptorReadValue_ForwardToCallbackE, i64 0, inrange i32 0, i64 2) to i32 (...)**), i32 (...)*** %67, align 8
  %68 = getelementptr inbounds i8, i8* %63, i64 8
  %69 = getelementptr inbounds %"class.base::OnceCallback.119", %"class.base::OnceCallback.119"* %6, i64 0, i32 0, i32 0, i32 0
  %70 = bitcast i8* %68 to i64*
  store i64 %66, i64* %70, align 8
  store %"class.base::internal::BindStateBase"* null, %"class.base::internal::BindStateBase"** %69, align 8
  %71 = bitcast i8* %63 to %"class.mojo::MessageReceiver"*
  %72 = getelementptr inbounds %"class.base::OnceCallback.119", %"class.base::OnceCallback.119"* %6, i64 0, i32 0
  call void @_ZN4base8internal12CallbackBaseD2Ev(%"class.base::internal::CallbackBase"* nonnull %72) #12
  %73 = getelementptr inbounds %"class.blink::mojom::blink::WebBluetoothServiceProxy", %"class.blink::mojom::blink::WebBluetoothServiceProxy"* %0, i64 0, i32 1
  %74 = load %"class.mojo::MessageReceiverWithResponder"*, %"class.mojo::MessageReceiverWithResponder"** %73, align 8
  %75 = bitcast %"class.mojo::MessageReceiverWithResponder"* %74 to i1 (%"class.mojo::MessageReceiverWithResponder"*, %"class.mojo::Message"*, %"class.mojo::MessageReceiver"*)***
  %76 = load i1 (%"class.mojo::MessageReceiverWithResponder"*, %"class.mojo::Message"*, %"class.mojo::MessageReceiver"*)**, i1 (%"class.mojo::MessageReceiverWithResponder"*, %"class.mojo::Message"*, %"class.mojo::MessageReceiver"*)*** %75, align 8
  %77 = getelementptr inbounds i1 (%"class.mojo::MessageReceiverWithResponder"*, %"class.mojo::Message"*, %"class.mojo::MessageReceiver"*)*, i1 (%"class.mojo::MessageReceiverWithResponder"*, %"class.mojo::Message"*, %"class.mojo::MessageReceiver"*)** %76, i64 4
  %78 = load i1 (%"class.mojo::MessageReceiverWithResponder"*, %"class.mojo::Message"*, %"class.mojo::MessageReceiver"*)*, i1 (%"class.mojo::MessageReceiverWithResponder"*, %"class.mojo::Message"*, %"class.mojo::MessageReceiver"*)** %77, align 8
  %79 = call zeroext i1 %78(%"class.mojo::MessageReceiverWithResponder"* %74, %"class.mojo::Message"* nonnull %5, %"class.mojo::MessageReceiver"* nonnull %71) #12
  call void @_ZN4mojo7MessageD1Ev(%"class.mojo::Message"* nonnull %5) #12
  call void @llvm.lifetime.end.p0i8(i64 120, i8* nonnull %7) #12
  ret void
}

; Function Attrs: nounwind ssp uwtable
define hidden void @_ZN5blink5mojom5blink24WebBluetoothServiceProxy26RemoteDescriptorWriteValueERKN3WTF6StringERKNS3_6VectorIhLj0ENS3_18PartitionAllocatorEEEN4base12OnceCallbackIFvNS0_18WebBluetoothResultEEEE(%"class.blink::mojom::blink::WebBluetoothServiceProxy"* nocapture readonly, %"class.WTF::String"* dereferenceable(8), %"class.WTF::Vector.75"* dereferenceable(16), %"class.base::OnceCallback.106"* nocapture) unnamed_addr #0 align 2 {
  %5 = alloca %"class.WTF::StringUTF8Adaptor", align 8
  %6 = alloca %"class.mojo::Message", align 8
  %7 = alloca %"class.mojo::internal::ContainerValidateParams", align 8
  %8 = alloca %"class.base::OnceCallback.106", align 8
  %9 = bitcast %"class.mojo::Message"* %6 to i8*
  call void @llvm.lifetime.start.p0i8(i64 120, i8* nonnull %9) #12
  call void @llvm.memset.p0i8.i64(i8* nonnull align 8 %9, i8 -86, i64 120, i1 false)
  call void @_ZN4mojo7MessageC1EjjmmPNSt3__16vectorINS_16ScopedHandleBaseINS_6HandleEEENS1_9allocatorIS5_EEEE(%"class.mojo::Message"* nonnull %6, i32 2004041849, i32 1, i64 0, i64 0, %"class.std::__1::vector"* null) #12
  %10 = getelementptr inbounds %"class.mojo::Message", %"class.mojo::Message"* %6, i64 0, i32 1
  %11 = call i64 @_ZN4mojo8internal6Buffer8AllocateEm(%"class.mojo::internal::Buffer"* %10, i64 24) #12
  %12 = getelementptr inbounds %"class.mojo::Message", %"class.mojo::Message"* %6, i64 0, i32 1, i32 2
  %13 = load i8*, i8** %12, align 8
  %14 = getelementptr inbounds i8, i8* %13, i64 %11
  %15 = bitcast i8* %14 to %"class.blink::mojom::internal::WebBluetoothService_RemoteDescriptorWriteValue_Params_Data"*
  call void @_ZN5blink5mojom8internal58WebBluetoothService_RemoteDescriptorWriteValue_Params_DataC1Ev(%"class.blink::mojom::internal::WebBluetoothService_RemoteDescriptorWriteValue_Params_Data"* %15) #12
  %16 = getelementptr inbounds %"class.WTF::String", %"class.WTF::String"* %1, i64 0, i32 0, i32 0
  %17 = load %"class.WTF::StringImpl"*, %"class.WTF::StringImpl"** %16, align 8
  %18 = icmp eq %"class.WTF::StringImpl"* %17, null
  br i1 %18, label %19, label %24

19:                                               ; preds = %4
  %20 = load i8*, i8** %12, align 8
  %21 = getelementptr inbounds i8, i8* %20, i64 %11
  %22 = getelementptr inbounds i8, i8* %21, i64 8
  %23 = bitcast i8* %22 to %"struct.mojo::internal::Pointer.110"*
  br label %56

24:                                               ; preds = %4
  %25 = bitcast %"class.WTF::StringUTF8Adaptor"* %5 to i8*
  call void @llvm.lifetime.start.p0i8(i64 40, i8* nonnull %25) #12
  call void @llvm.memset.p0i8.i64(i8* nonnull align 8 %25, i8 -86, i64 40, i1 false) #12
  call void @_ZN4mojo12StringTraitsIN3WTF6StringEE7GetUTF8ERKS2_(%"class.WTF::StringUTF8Adaptor"* nonnull sret %5, %"class.WTF::String"* dereferenceable(8) %1) #12
  %26 = getelementptr inbounds %"class.WTF::StringUTF8Adaptor", %"class.WTF::StringUTF8Adaptor"* %5, i64 0, i32 2
  %27 = load i32, i32* %26, align 8
  %28 = icmp ugt i32 %27, -9
  br i1 %28, label %39, label %29

29:                                               ; preds = %24
  %30 = add nuw i32 %27, 8
  %31 = zext i32 %30 to i64
  %32 = call i64 @_ZN4mojo8internal6Buffer8AllocateEm(%"class.mojo::internal::Buffer"* %10, i64 %31) #12
  %33 = load i8*, i8** %12, align 8
  %34 = getelementptr inbounds i8, i8* %33, i64 %32
  %35 = bitcast i8* %34 to i32*
  store i32 %30, i32* %35, align 1
  %36 = getelementptr inbounds i8, i8* %34, i64 4
  %37 = bitcast i8* %36 to i32*
  store i32 %27, i32* %37, align 1
  %38 = load i32, i32* %26, align 8
  br label %39

39:                                               ; preds = %24, %29
  %40 = phi i64 [ -1, %24 ], [ %32, %29 ]
  %41 = phi i32 [ %27, %24 ], [ %38, %29 ]
  %42 = load i8*, i8** %12, align 8
  %43 = getelementptr inbounds i8, i8* %42, i64 %40
  %44 = getelementptr inbounds i8, i8* %43, i64 8
  %45 = getelementptr inbounds %"class.WTF::StringUTF8Adaptor", %"class.WTF::StringUTF8Adaptor"* %5, i64 0, i32 1
  %46 = load i8*, i8** %45, align 8
  %47 = zext i32 %41 to i64
  call void @llvm.memcpy.p0i8.p0i8.i64(i8* align 1 %44, i8* align 1 %46, i64 %47, i1 false) #12
  call void @_ZN3WTF17StringUTF8AdaptorD1Ev(%"class.WTF::StringUTF8Adaptor"* nonnull %5) #12
  call void @llvm.lifetime.end.p0i8(i64 40, i8* nonnull %25) #12
  %48 = load i8*, i8** %12, align 8
  %49 = getelementptr inbounds i8, i8* %48, i64 %11
  %50 = getelementptr inbounds i8, i8* %49, i64 8
  %51 = bitcast i8* %50 to %"struct.mojo::internal::Pointer.110"*
  %52 = icmp eq i64 %40, -1
  br i1 %52, label %56, label %53

53:                                               ; preds = %39
  %54 = getelementptr inbounds i8, i8* %48, i64 %40
  %55 = bitcast i8* %54 to %"class.mojo::internal::Array_Data"*
  br label %56

56:                                               ; preds = %19, %39, %53
  %57 = phi %"struct.mojo::internal::Pointer.110"* [ %51, %53 ], [ %51, %39 ], [ %23, %19 ]
  %58 = phi %"class.mojo::internal::Array_Data"* [ %55, %53 ], [ null, %39 ], [ null, %19 ]
  %59 = getelementptr inbounds %"struct.mojo::internal::Pointer.110", %"struct.mojo::internal::Pointer.110"* %57, i64 0, i32 0
  %60 = icmp eq %"class.mojo::internal::Array_Data"* %58, null
  %61 = ptrtoint %"class.mojo::internal::Array_Data"* %58 to i64
  %62 = ptrtoint %"struct.mojo::internal::Pointer.110"* %57 to i64
  %63 = sub i64 %61, %62
  %64 = select i1 %60, i64 0, i64 %63
  store i64 %64, i64* %59, align 8
  %65 = bitcast %"class.mojo::internal::ContainerValidateParams"* %7 to i8*
  call void @llvm.lifetime.start.p0i8(i64 32, i8* nonnull %65) #12
  %66 = bitcast %"class.mojo::internal::ContainerValidateParams"* %7 to i64*
  store i64 -6148914691236517206, i64* %66, align 8
  %67 = getelementptr inbounds %"class.mojo::internal::ContainerValidateParams", %"class.mojo::internal::ContainerValidateParams"* %7, i64 0, i32 0
  store i32 0, i32* %67, align 8
  %68 = getelementptr inbounds %"class.mojo::internal::ContainerValidateParams", %"class.mojo::internal::ContainerValidateParams"* %7, i64 0, i32 1
  store i8 0, i8* %68, align 4
  %69 = getelementptr inbounds %"class.mojo::internal::ContainerValidateParams", %"class.mojo::internal::ContainerValidateParams"* %7, i64 0, i32 2
  %70 = getelementptr inbounds %"class.WTF::Vector.75", %"class.WTF::Vector.75"* %2, i64 0, i32 0, i32 0, i32 2
  %71 = bitcast %"class.mojo::internal::ContainerValidateParams"** %69 to i8*
  call void @llvm.memset.p0i8.i64(i8* align 8 %71, i8 0, i64 24, i1 false)
  %72 = load i32, i32* %70, align 4
  %73 = icmp ugt i32 %72, -9
  br i1 %73, label %85, label %74

74:                                               ; preds = %56
  %75 = add nuw i32 %72, 8
  %76 = zext i32 %75 to i64
  %77 = call i64 @_ZN4mojo8internal6Buffer8AllocateEm(%"class.mojo::internal::Buffer"* %10, i64 %76) #12
  %78 = load i8*, i8** %12, align 8
  %79 = getelementptr inbounds i8, i8* %78, i64 %77
  %80 = bitcast i8* %79 to i32*
  store i32 %75, i32* %80, align 1
  %81 = getelementptr inbounds i8, i8* %79, i64 4
  %82 = bitcast i8* %81 to i32*
  store i32 %72, i32* %82, align 1
  %83 = load i32, i32* %70, align 4
  %84 = icmp eq i32 %83, 0
  br i1 %84, label %104, label %85

85:                                               ; preds = %74, %56
  %86 = phi i64 [ -1, %56 ], [ %77, %74 ]
  %87 = phi i32 [ %72, %56 ], [ %83, %74 ]
  %88 = zext i32 %87 to i64
  %89 = getelementptr inbounds %"class.WTF::Vector.75", %"class.WTF::Vector.75"* %2, i64 0, i32 0, i32 0, i32 0
  %90 = load i8*, i8** %89, align 8
  %91 = load i8*, i8** %12, align 8
  %92 = getelementptr inbounds i8, i8* %91, i64 %86
  %93 = icmp eq i8* %90, null
  %94 = getelementptr inbounds i8, i8* %92, i64 8
  br i1 %93, label %96, label %95

95:                                               ; preds = %85
  call void @llvm.memcpy.p0i8.p0i8.i64(i8* align 1 %94, i8* nonnull align 1 %90, i64 %88, i1 false) #12
  br label %104

96:                                               ; preds = %85, %96
  %97 = phi i64 [ %98, %96 ], [ 0, %85 ]
  %98 = add nuw nsw i64 %97, 1
  %99 = trunc i64 %97 to i32
  %100 = call dereferenceable(1) i8* @_ZNK3WTF6VectorIhLj0ENS_18PartitionAllocatorEE2atEj(%"class.WTF::Vector.75"* %2, i32 %99) #12
  %101 = load i8, i8* %100, align 1
  %102 = getelementptr inbounds i8, i8* %94, i64 %97
  store i8 %101, i8* %102, align 1
  %103 = icmp eq i64 %98, %88
  br i1 %103, label %104, label %96

104:                                              ; preds = %96, %74, %95
  %105 = phi i64 [ %86, %95 ], [ %77, %74 ], [ %86, %96 ]
  %106 = load i8*, i8** %12, align 8
  %107 = getelementptr inbounds i8, i8* %106, i64 %11
  %108 = getelementptr inbounds i8, i8* %107, i64 16
  %109 = icmp eq i64 %105, -1
  %110 = getelementptr inbounds i8, i8* %106, i64 %105
  %111 = bitcast i8* %110 to %"class.mojo::internal::Array_Data.124"*
  %112 = select i1 %109, %"class.mojo::internal::Array_Data.124"* null, %"class.mojo::internal::Array_Data.124"* %111
  %113 = bitcast i8* %108 to i64*
  %114 = icmp eq %"class.mojo::internal::Array_Data.124"* %112, null
  %115 = ptrtoint %"class.mojo::internal::Array_Data.124"* %112 to i64
  %116 = ptrtoint i8* %108 to i64
  %117 = sub i64 %115, %116
  %118 = select i1 %114, i64 0, i64 %117
  store i64 %118, i64* %113, align 8
  %119 = call i8* @_Znwm(i64 16) #13
  %120 = getelementptr inbounds %"class.base::OnceCallback.106", %"class.base::OnceCallback.106"* %3, i64 0, i32 0, i32 0, i32 0
  %121 = bitcast %"class.base::OnceCallback.106"* %3 to i64*
  %122 = load i64, i64* %121, align 8
  store %"class.base::internal::BindStateBase"* null, %"class.base::internal::BindStateBase"** %120, align 8
  %123 = bitcast i8* %119 to i32 (...)***
  store i32 (...)** bitcast (i8** getelementptr inbounds ({ [6 x i8*] }, { [6 x i8*] }* @_ZTVN5blink5mojom5blink64WebBluetoothService_RemoteDescriptorWriteValue_ForwardToCallbackE, i64 0, inrange i32 0, i64 2) to i32 (...)**), i32 (...)*** %123, align 8
  %124 = getelementptr inbounds i8, i8* %119, i64 8
  %125 = getelementptr inbounds %"class.base::OnceCallback.106", %"class.base::OnceCallback.106"* %8, i64 0, i32 0, i32 0, i32 0
  %126 = bitcast i8* %124 to i64*
  store i64 %122, i64* %126, align 8
  store %"class.base::internal::BindStateBase"* null, %"class.base::internal::BindStateBase"** %125, align 8
  %127 = bitcast i8* %119 to %"class.mojo::MessageReceiver"*
  %128 = getelementptr inbounds %"class.base::OnceCallback.106", %"class.base::OnceCallback.106"* %8, i64 0, i32 0
  call void @_ZN4base8internal12CallbackBaseD2Ev(%"class.base::internal::CallbackBase"* nonnull %128) #12
  %129 = getelementptr inbounds %"class.blink::mojom::blink::WebBluetoothServiceProxy", %"class.blink::mojom::blink::WebBluetoothServiceProxy"* %0, i64 0, i32 1
  %130 = load %"class.mojo::MessageReceiverWithResponder"*, %"class.mojo::MessageReceiverWithResponder"** %129, align 8
  %131 = bitcast %"class.mojo::MessageReceiverWithResponder"* %130 to i1 (%"class.mojo::MessageReceiverWithResponder"*, %"class.mojo::Message"*, %"class.mojo::MessageReceiver"*)***
  %132 = load i1 (%"class.mojo::MessageReceiverWithResponder"*, %"class.mojo::Message"*, %"class.mojo::MessageReceiver"*)**, i1 (%"class.mojo::MessageReceiverWithResponder"*, %"class.mojo::Message"*, %"class.mojo::MessageReceiver"*)*** %131, align 8
  %133 = getelementptr inbounds i1 (%"class.mojo::MessageReceiverWithResponder"*, %"class.mojo::Message"*, %"class.mojo::MessageReceiver"*)*, i1 (%"class.mojo::MessageReceiverWithResponder"*, %"class.mojo::Message"*, %"class.mojo::MessageReceiver"*)** %132, i64 4
  %134 = load i1 (%"class.mojo::MessageReceiverWithResponder"*, %"class.mojo::Message"*, %"class.mojo::MessageReceiver"*)*, i1 (%"class.mojo::MessageReceiverWithResponder"*, %"class.mojo::Message"*, %"class.mojo::MessageReceiver"*)** %133, align 8
  %135 = call zeroext i1 %134(%"class.mojo::MessageReceiverWithResponder"* %130, %"class.mojo::Message"* nonnull %6, %"class.mojo::MessageReceiver"* nonnull %127) #12
  call void @_ZN4mojo8internal23ContainerValidateParamsD2Ev(%"class.mojo::internal::ContainerValidateParams"* nonnull %7) #12
  call void @llvm.lifetime.end.p0i8(i64 32, i8* nonnull %65) #12
  call void @_ZN4mojo7MessageD1Ev(%"class.mojo::Message"* nonnull %6) #12
  call void @llvm.lifetime.end.p0i8(i64 120, i8* nonnull %9) #12
  ret void
}

; Function Attrs: nounwind ssp uwtable
define hidden void @_ZN5blink5mojom5blink24WebBluetoothServiceProxy20RequestScanningStartEN4mojo23PendingAssociatedRemoteINS1_31WebBluetoothAdvertisementClientEEENS3_9StructPtrINS1_32WebBluetoothRequestLEScanOptionsEEEN4base12OnceCallbackIFvNS0_18WebBluetoothResultEEEE(%"class.blink::mojom::blink::WebBluetoothServiceProxy"* nocapture readonly, %"class.mojo::PendingAssociatedRemote.134"*, %"class.mojo::StructPtr.136"*, %"class.base::OnceCallback.106"* nocapture) unnamed_addr #0 align 2 {
  %5 = alloca %"class.mojo::ScopedInterfaceEndpointHandle", align 8
  %6 = alloca %"class.mojo::Message", align 8
  %7 = alloca %"class.mojo::internal::MessageFragment.145", align 8
  %8 = alloca %"class.base::OnceCallback.106", align 8
  %9 = bitcast %"class.mojo::Message"* %6 to i8*
  call void @llvm.lifetime.start.p0i8(i64 120, i8* nonnull %9) #12
  call void @llvm.memset.p0i8.i64(i8* nonnull align 8 %9, i8 -86, i64 120, i1 false)
  call void @_ZN4mojo7MessageC1EjjmmPNSt3__16vectorINS_16ScopedHandleBaseINS_6HandleEEENS1_9allocatorIS5_EEEE(%"class.mojo::Message"* nonnull %6, i32 942878455, i32 1, i64 0, i64 0, %"class.std::__1::vector"* null) #12
  %10 = getelementptr inbounds %"class.mojo::Message", %"class.mojo::Message"* %6, i64 0, i32 1
  %11 = call i64 @_ZN4mojo8internal6Buffer8AllocateEm(%"class.mojo::internal::Buffer"* %10, i64 24) #12
  %12 = getelementptr inbounds %"class.mojo::Message", %"class.mojo::Message"* %6, i64 0, i32 1, i32 2
  %13 = load i8*, i8** %12, align 8
  %14 = getelementptr inbounds i8, i8* %13, i64 %11
  %15 = bitcast i8* %14 to %"class.blink::mojom::internal::WebBluetoothService_RequestScanningStart_Params_Data"*
  call void @_ZN5blink5mojom8internal52WebBluetoothService_RequestScanningStart_Params_DataC1Ev(%"class.blink::mojom::internal::WebBluetoothService_RequestScanningStart_Params_Data"* %15) #12
  %16 = load i8*, i8** %12, align 8
  %17 = getelementptr inbounds i8, i8* %16, i64 %11
  %18 = getelementptr inbounds i8, i8* %17, i64 8
  %19 = bitcast i8* %18 to %"struct.mojo::internal::AssociatedInterface_Data"*
  %20 = bitcast %"class.mojo::ScopedInterfaceEndpointHandle"* %5 to i8*
  call void @llvm.lifetime.start.p0i8(i64 8, i8* nonnull %20) #12
  %21 = getelementptr inbounds %"class.mojo::PendingAssociatedRemote.134", %"class.mojo::PendingAssociatedRemote.134"* %1, i64 0, i32 0
  call void @_ZN4mojo29ScopedInterfaceEndpointHandleC1EOS0_(%"class.mojo::ScopedInterfaceEndpointHandle"* nonnull %5, %"class.mojo::ScopedInterfaceEndpointHandle"* dereferenceable(8) %21) #12
  %22 = getelementptr inbounds %"class.mojo::PendingAssociatedRemote.134", %"class.mojo::PendingAssociatedRemote.134"* %1, i64 0, i32 1
  %23 = load i32, i32* %22, align 8
  call void @_ZN4mojo8internal32SerializeAssociatedInterfaceInfoENS_29ScopedInterfaceEndpointHandleEjRNS_7MessageERNS0_24AssociatedInterface_DataE(%"class.mojo::ScopedInterfaceEndpointHandle"* nonnull %5, i32 %23, %"class.mojo::Message"* nonnull dereferenceable(120) %6, %"struct.mojo::internal::AssociatedInterface_Data"* dereferenceable(8) %19) #12
  call void @_ZN4mojo29ScopedInterfaceEndpointHandleD1Ev(%"class.mojo::ScopedInterfaceEndpointHandle"* nonnull %5) #12
  call void @llvm.lifetime.end.p0i8(i64 8, i8* nonnull %20) #12
  %24 = bitcast %"class.mojo::internal::MessageFragment.145"* %7 to i8*
  call void @llvm.lifetime.start.p0i8(i64 16, i8* nonnull %24) #12
  %25 = getelementptr inbounds %"class.mojo::internal::MessageFragment.145", %"class.mojo::internal::MessageFragment.145"* %7, i64 0, i32 0
  %26 = getelementptr inbounds %"class.mojo::internal::MessageFragment.145", %"class.mojo::internal::MessageFragment.145"* %7, i64 0, i32 1
  store %"class.mojo::Message"* %6, %"class.mojo::Message"** %25, align 8
  store i64 -1, i64* %26, align 8
  call void @_ZN4mojo8internal10SerializerIN5blink5mojom40WebBluetoothRequestLEScanOptionsDataViewENS_9StructPtrINS3_5blink32WebBluetoothRequestLEScanOptionsEEEE9SerializeERS8_RNS0_15MessageFragmentINS3_8internal37WebBluetoothRequestLEScanOptions_DataEEE(%"class.mojo::StructPtr.136"* dereferenceable(8) %2, %"class.mojo::internal::MessageFragment.145"* nonnull dereferenceable(16) %7) #12
  %27 = load i8*, i8** %12, align 8
  %28 = getelementptr inbounds i8, i8* %27, i64 %11
  %29 = getelementptr inbounds i8, i8* %28, i64 16
  %30 = load i64, i64* %26, align 8
  %31 = icmp eq i64 %30, -1
  br i1 %31, label %38, label %32

32:                                               ; preds = %4
  %33 = load %"class.mojo::Message"*, %"class.mojo::Message"** %25, align 8
  %34 = getelementptr inbounds %"class.mojo::Message", %"class.mojo::Message"* %33, i64 0, i32 1, i32 2
  %35 = load i8*, i8** %34, align 8
  %36 = getelementptr inbounds i8, i8* %35, i64 %30
  %37 = bitcast i8* %36 to %"class.blink::mojom::internal::WebBluetoothRequestLEScanOptions_Data"*
  br label %38

38:                                               ; preds = %32, %4
  %39 = phi %"class.blink::mojom::internal::WebBluetoothRequestLEScanOptions_Data"* [ %37, %32 ], [ null, %4 ]
  %40 = bitcast i8* %29 to i64*
  %41 = icmp eq %"class.blink::mojom::internal::WebBluetoothRequestLEScanOptions_Data"* %39, null
  %42 = ptrtoint %"class.blink::mojom::internal::WebBluetoothRequestLEScanOptions_Data"* %39 to i64
  %43 = ptrtoint i8* %29 to i64
  %44 = sub i64 %42, %43
  %45 = select i1 %41, i64 0, i64 %44
  store i64 %45, i64* %40, align 8
  %46 = call i8* @_Znwm(i64 16) #13
  %47 = getelementptr inbounds %"class.base::OnceCallback.106", %"class.base::OnceCallback.106"* %3, i64 0, i32 0, i32 0, i32 0
  %48 = bitcast %"class.base::OnceCallback.106"* %3 to i64*
  %49 = load i64, i64* %48, align 8
  store %"class.base::internal::BindStateBase"* null, %"class.base::internal::BindStateBase"** %47, align 8
  %50 = bitcast i8* %46 to i32 (...)***
  store i32 (...)** bitcast (i8** getelementptr inbounds ({ [6 x i8*] }, { [6 x i8*] }* @_ZTVN5blink5mojom5blink58WebBluetoothService_RequestScanningStart_ForwardToCallbackE, i64 0, inrange i32 0, i64 2) to i32 (...)**), i32 (...)*** %50, align 8
  %51 = getelementptr inbounds i8, i8* %46, i64 8
  %52 = getelementptr inbounds %"class.base::OnceCallback.106", %"class.base::OnceCallback.106"* %8, i64 0, i32 0, i32 0, i32 0
  %53 = bitcast i8* %51 to i64*
  store i64 %49, i64* %53, align 8
  store %"class.base::internal::BindStateBase"* null, %"class.base::internal::BindStateBase"** %52, align 8
  %54 = bitcast i8* %46 to %"class.mojo::MessageReceiver"*
  %55 = getelementptr inbounds %"class.base::OnceCallback.106", %"class.base::OnceCallback.106"* %8, i64 0, i32 0
  call void @_ZN4base8internal12CallbackBaseD2Ev(%"class.base::internal::CallbackBase"* nonnull %55) #12
  %56 = getelementptr inbounds %"class.blink::mojom::blink::WebBluetoothServiceProxy", %"class.blink::mojom::blink::WebBluetoothServiceProxy"* %0, i64 0, i32 1
  %57 = load %"class.mojo::MessageReceiverWithResponder"*, %"class.mojo::MessageReceiverWithResponder"** %56, align 8
  %58 = bitcast %"class.mojo::MessageReceiverWithResponder"* %57 to i1 (%"class.mojo::MessageReceiverWithResponder"*, %"class.mojo::Message"*, %"class.mojo::MessageReceiver"*)***
  %59 = load i1 (%"class.mojo::MessageReceiverWithResponder"*, %"class.mojo::Message"*, %"class.mojo::MessageReceiver"*)**, i1 (%"class.mojo::MessageReceiverWithResponder"*, %"class.mojo::Message"*, %"class.mojo::MessageReceiver"*)*** %58, align 8
  %60 = getelementptr inbounds i1 (%"class.mojo::MessageReceiverWithResponder"*, %"class.mojo::Message"*, %"class.mojo::MessageReceiver"*)*, i1 (%"class.mojo::MessageReceiverWithResponder"*, %"class.mojo::Message"*, %"class.mojo::MessageReceiver"*)** %59, i64 4
  %61 = load i1 (%"class.mojo::MessageReceiverWithResponder"*, %"class.mojo::Message"*, %"class.mojo::MessageReceiver"*)*, i1 (%"class.mojo::MessageReceiverWithResponder"*, %"class.mojo::Message"*, %"class.mojo::MessageReceiver"*)** %60, align 8
  %62 = call zeroext i1 %61(%"class.mojo::MessageReceiverWithResponder"* %57, %"class.mojo::Message"* nonnull %6, %"class.mojo::MessageReceiver"* nonnull %54) #12
  call void @llvm.lifetime.end.p0i8(i64 16, i8* nonnull %24) #12
  call void @_ZN4mojo7MessageD1Ev(%"class.mojo::Message"* nonnull %6) #12
  call void @llvm.lifetime.end.p0i8(i64 120, i8* nonnull %9) #12
  ret void
}

; Function Attrs: nounwind ssp uwtable
define hidden void @_ZN5blink5mojom5blink24WebBluetoothServiceProxy28WatchAdvertisementsForDeviceERKN3WTF6StringEN4mojo23PendingAssociatedRemoteINS1_31WebBluetoothAdvertisementClientEEEN4base12OnceCallbackIFvNS0_18WebBluetoothResultEEEE(%"class.blink::mojom::blink::WebBluetoothServiceProxy"* nocapture readonly, %"class.WTF::String"* dereferenceable(8), %"class.mojo::PendingAssociatedRemote.134"*, %"class.base::OnceCallback.106"* nocapture) unnamed_addr #0 align 2 {
  %5 = alloca %"class.mojo::ScopedInterfaceEndpointHandle", align 8
  %6 = alloca %"class.mojo::Message", align 8
  %7 = alloca %"class.mojo::internal::MessageFragment.108", align 8
  %8 = alloca %"class.base::OnceCallback.106", align 8
  %9 = bitcast %"class.mojo::Message"* %6 to i8*
  call void @llvm.lifetime.start.p0i8(i64 120, i8* nonnull %9) #12
  call void @llvm.memset.p0i8.i64(i8* nonnull align 8 %9, i8 -86, i64 120, i1 false)
  call void @_ZN4mojo7MessageC1EjjmmPNSt3__16vectorINS_16ScopedHandleBaseINS_6HandleEEENS1_9allocatorIS5_EEEE(%"class.mojo::Message"* nonnull %6, i32 986676873, i32 1, i64 0, i64 0, %"class.std::__1::vector"* null) #12
  %10 = getelementptr inbounds %"class.mojo::Message", %"class.mojo::Message"* %6, i64 0, i32 1
  %11 = call i64 @_ZN4mojo8internal6Buffer8AllocateEm(%"class.mojo::internal::Buffer"* %10, i64 24) #12
  %12 = getelementptr inbounds %"class.mojo::Message", %"class.mojo::Message"* %6, i64 0, i32 1, i32 2
  %13 = load i8*, i8** %12, align 8
  %14 = getelementptr inbounds i8, i8* %13, i64 %11
  %15 = bitcast i8* %14 to %"class.blink::mojom::internal::WebBluetoothService_WatchAdvertisementsForDevice_Params_Data"*
  call void @_ZN5blink5mojom8internal60WebBluetoothService_WatchAdvertisementsForDevice_Params_DataC1Ev(%"class.blink::mojom::internal::WebBluetoothService_WatchAdvertisementsForDevice_Params_Data"* %15) #12
  %16 = bitcast %"class.mojo::internal::MessageFragment.108"* %7 to i8*
  call void @llvm.lifetime.start.p0i8(i64 16, i8* nonnull %16) #12
  %17 = getelementptr inbounds %"class.mojo::internal::MessageFragment.108", %"class.mojo::internal::MessageFragment.108"* %7, i64 0, i32 0
  %18 = getelementptr inbounds %"class.mojo::internal::MessageFragment.108", %"class.mojo::internal::MessageFragment.108"* %7, i64 0, i32 1
  store %"class.mojo::Message"* %6, %"class.mojo::Message"** %17, align 8
  store i64 -1, i64* %18, align 8
  call void @_ZN4mojo8internal10SerializerIN5blink5mojom28WebBluetoothDeviceIdDataViewEKN3WTF6StringEE9SerializeERS7_RNS0_15MessageFragmentINS3_8internal25WebBluetoothDeviceId_DataEEE(%"class.WTF::String"* dereferenceable(8) %1, %"class.mojo::internal::MessageFragment.108"* nonnull dereferenceable(16) %7) #12
  %19 = load i8*, i8** %12, align 8
  %20 = getelementptr inbounds i8, i8* %19, i64 %11
  %21 = getelementptr inbounds i8, i8* %20, i64 8
  %22 = load i64, i64* %18, align 8
  %23 = icmp eq i64 %22, -1
  br i1 %23, label %30, label %24

24:                                               ; preds = %4
  %25 = load %"class.mojo::Message"*, %"class.mojo::Message"** %17, align 8
  %26 = getelementptr inbounds %"class.mojo::Message", %"class.mojo::Message"* %25, i64 0, i32 1, i32 2
  %27 = load i8*, i8** %26, align 8
  %28 = getelementptr inbounds i8, i8* %27, i64 %22
  %29 = bitcast i8* %28 to %"class.blink::mojom::internal::WebBluetoothDeviceId_Data"*
  br label %30

30:                                               ; preds = %24, %4
  %31 = phi %"class.blink::mojom::internal::WebBluetoothDeviceId_Data"* [ %29, %24 ], [ null, %4 ]
  %32 = bitcast i8* %21 to i64*
  %33 = icmp eq %"class.blink::mojom::internal::WebBluetoothDeviceId_Data"* %31, null
  %34 = ptrtoint %"class.blink::mojom::internal::WebBluetoothDeviceId_Data"* %31 to i64
  %35 = ptrtoint i8* %21 to i64
  %36 = sub i64 %34, %35
  %37 = select i1 %33, i64 0, i64 %36
  store i64 %37, i64* %32, align 8
  %38 = load i8*, i8** %12, align 8
  %39 = getelementptr inbounds i8, i8* %38, i64 %11
  %40 = getelementptr inbounds i8, i8* %39, i64 16
  %41 = bitcast i8* %40 to %"struct.mojo::internal::AssociatedInterface_Data"*
  %42 = bitcast %"class.mojo::ScopedInterfaceEndpointHandle"* %5 to i8*
  call void @llvm.lifetime.start.p0i8(i64 8, i8* nonnull %42) #12
  %43 = getelementptr inbounds %"class.mojo::PendingAssociatedRemote.134", %"class.mojo::PendingAssociatedRemote.134"* %2, i64 0, i32 0
  call void @_ZN4mojo29ScopedInterfaceEndpointHandleC1EOS0_(%"class.mojo::ScopedInterfaceEndpointHandle"* nonnull %5, %"class.mojo::ScopedInterfaceEndpointHandle"* dereferenceable(8) %43) #12
  %44 = getelementptr inbounds %"class.mojo::PendingAssociatedRemote.134", %"class.mojo::PendingAssociatedRemote.134"* %2, i64 0, i32 1
  %45 = load i32, i32* %44, align 8
  call void @_ZN4mojo8internal32SerializeAssociatedInterfaceInfoENS_29ScopedInterfaceEndpointHandleEjRNS_7MessageERNS0_24AssociatedInterface_DataE(%"class.mojo::ScopedInterfaceEndpointHandle"* nonnull %5, i32 %45, %"class.mojo::Message"* nonnull dereferenceable(120) %6, %"struct.mojo::internal::AssociatedInterface_Data"* dereferenceable(8) %41) #12
  call void @_ZN4mojo29ScopedInterfaceEndpointHandleD1Ev(%"class.mojo::ScopedInterfaceEndpointHandle"* nonnull %5) #12
  call void @llvm.lifetime.end.p0i8(i64 8, i8* nonnull %42) #12
  %46 = call i8* @_Znwm(i64 16) #13
  %47 = getelementptr inbounds %"class.base::OnceCallback.106", %"class.base::OnceCallback.106"* %3, i64 0, i32 0, i32 0, i32 0
  %48 = bitcast %"class.base::OnceCallback.106"* %3 to i64*
  %49 = load i64, i64* %48, align 8
  store %"class.base::internal::BindStateBase"* null, %"class.base::internal::BindStateBase"** %47, align 8
  %50 = bitcast i8* %46 to i32 (...)***
  store i32 (...)** bitcast (i8** getelementptr inbounds ({ [6 x i8*] }, { [6 x i8*] }* @_ZTVN5blink5mojom5blink66WebBluetoothService_WatchAdvertisementsForDevice_ForwardToCallbackE, i64 0, inrange i32 0, i64 2) to i32 (...)**), i32 (...)*** %50, align 8
  %51 = getelementptr inbounds i8, i8* %46, i64 8
  %52 = getelementptr inbounds %"class.base::OnceCallback.106", %"class.base::OnceCallback.106"* %8, i64 0, i32 0, i32 0, i32 0
  %53 = bitcast i8* %51 to i64*
  store i64 %49, i64* %53, align 8
  store %"class.base::internal::BindStateBase"* null, %"class.base::internal::BindStateBase"** %52, align 8
  %54 = bitcast i8* %46 to %"class.mojo::MessageReceiver"*
  %55 = getelementptr inbounds %"class.base::OnceCallback.106", %"class.base::OnceCallback.106"* %8, i64 0, i32 0
  call void @_ZN4base8internal12CallbackBaseD2Ev(%"class.base::internal::CallbackBase"* nonnull %55) #12
  %56 = getelementptr inbounds %"class.blink::mojom::blink::WebBluetoothServiceProxy", %"class.blink::mojom::blink::WebBluetoothServiceProxy"* %0, i64 0, i32 1
  %57 = load %"class.mojo::MessageReceiverWithResponder"*, %"class.mojo::MessageReceiverWithResponder"** %56, align 8
  %58 = bitcast %"class.mojo::MessageReceiverWithResponder"* %57 to i1 (%"class.mojo::MessageReceiverWithResponder"*, %"class.mojo::Message"*, %"class.mojo::MessageReceiver"*)***
  %59 = load i1 (%"class.mojo::MessageReceiverWithResponder"*, %"class.mojo::Message"*, %"class.mojo::MessageReceiver"*)**, i1 (%"class.mojo::MessageReceiverWithResponder"*, %"class.mojo::Message"*, %"class.mojo::MessageReceiver"*)*** %58, align 8
  %60 = getelementptr inbounds i1 (%"class.mojo::MessageReceiverWithResponder"*, %"class.mojo::Message"*, %"class.mojo::MessageReceiver"*)*, i1 (%"class.mojo::MessageReceiverWithResponder"*, %"class.mojo::Message"*, %"class.mojo::MessageReceiver"*)** %59, i64 4
  %61 = load i1 (%"class.mojo::MessageReceiverWithResponder"*, %"class.mojo::Message"*, %"class.mojo::MessageReceiver"*)*, i1 (%"class.mojo::MessageReceiverWithResponder"*, %"class.mojo::Message"*, %"class.mojo::MessageReceiver"*)** %60, align 8
  %62 = call zeroext i1 %61(%"class.mojo::MessageReceiverWithResponder"* %57, %"class.mojo::Message"* nonnull %6, %"class.mojo::MessageReceiver"* nonnull %54) #12
  call void @llvm.lifetime.end.p0i8(i64 16, i8* nonnull %16) #12
  call void @_ZN4mojo7MessageD1Ev(%"class.mojo::Message"* nonnull %6) #12
  call void @llvm.lifetime.end.p0i8(i64 120, i8* nonnull %9) #12
  ret void
}

; Function Attrs: nounwind ssp uwtable
define hidden zeroext i1 @_ZN5blink5mojom5blink53WebBluetoothService_GetAvailability_ForwardToCallback6AcceptEPN4mojo7MessageE(%"class.blink::mojom::blink::WebBluetoothService_GetAvailability_ForwardToCallback"* nocapture, %"class.mojo::Message"*) unnamed_addr #0 align 2 {
  %3 = alloca %"class.base::OnceCallback", align 8
  %4 = tail call i8* @_ZNK4mojo7Message7payloadEv(%"class.mojo::Message"* %1) #12
  %5 = getelementptr inbounds %"class.blink::mojom::blink::WebBluetoothService_GetAvailability_ForwardToCallback", %"class.blink::mojom::blink::WebBluetoothService_GetAvailability_ForwardToCallback"* %0, i64 0, i32 1, i32 0, i32 0, i32 0
  %6 = load %"class.base::internal::BindStateBase"*, %"class.base::internal::BindStateBase"** %5, align 8
  %7 = icmp eq %"class.base::internal::BindStateBase"* %6, null
  br i1 %7, label %20, label %8

8:                                                ; preds = %2
  %9 = ptrtoint %"class.base::internal::BindStateBase"* %6 to i64
  %10 = getelementptr inbounds i8, i8* %4, i64 8
  %11 = load i8, i8* %10, align 1
  %12 = and i8 %11, 1
  %13 = icmp ne i8 %12, 0
  %14 = bitcast %"class.base::OnceCallback"* %3 to i8*
  call void @llvm.lifetime.start.p0i8(i64 8, i8* nonnull %14) #12
  %15 = bitcast %"class.base::OnceCallback"* %3 to i64*
  store i64 %9, i64* %15, align 8
  store %"class.base::internal::BindStateBase"* null, %"class.base::internal::BindStateBase"** %5, align 8
  %16 = getelementptr inbounds %"class.base::OnceCallback", %"class.base::OnceCallback"* %3, i64 0, i32 0
  %17 = getelementptr inbounds %"class.base::internal::BindStateBase", %"class.base::internal::BindStateBase"* %6, i64 0, i32 1
  %18 = bitcast void ()** %17 to void (%"class.base::internal::BindStateBase"*, i1)**
  %19 = load void (%"class.base::internal::BindStateBase"*, i1)*, void (%"class.base::internal::BindStateBase"*, i1)** %18, align 8
  tail call void %19(%"class.base::internal::BindStateBase"* nonnull %6, i1 zeroext %13) #12
  call void @_ZN4base8internal12CallbackBaseD2Ev(%"class.base::internal::CallbackBase"* nonnull %16) #12
  call void @llvm.lifetime.end.p0i8(i64 8, i8* nonnull %14) #12
  br label %20

20:                                               ; preds = %2, %8
  ret i1 true
}

declare void @_ZN4mojo8internal31ReportValidationErrorForMessageEPNS_7MessageENS0_15ValidationErrorEPKcjb(%"class.mojo::Message"*, i32, i8*, i32, i1 zeroext) local_unnamed_addr #2

; Function Attrs: nounwind ssp uwtable
define hidden void @_ZN5blink5mojom5blink52WebBluetoothService_GetAvailability_ProxyToResponder3RunEb(%"class.blink::mojom::blink::WebBluetoothService_GetAvailability_ProxyToResponder"* nocapture, i1 zeroext) #0 align 2 {
  %3 = alloca %"class.mojo::Message", align 8
  %4 = zext i1 %1 to i8
  %5 = getelementptr inbounds %"class.blink::mojom::blink::WebBluetoothService_GetAvailability_ProxyToResponder", %"class.blink::mojom::blink::WebBluetoothService_GetAvailability_ProxyToResponder"* %0, i64 0, i32 1
  %6 = load i8, i8* %5, align 8, !range !2
  %7 = icmp eq i8 %6, 0
  %8 = select i1 %7, i32 2, i32 6
  %9 = bitcast %"class.mojo::Message"* %3 to i8*
  call void @llvm.lifetime.start.p0i8(i64 120, i8* nonnull %9) #12
  call void @llvm.memset.p0i8.i64(i8* nonnull align 8 %9, i8 -86, i64 120, i1 false)
  call void @_ZN4mojo7MessageC1EjjmmPNSt3__16vectorINS_16ScopedHandleBaseINS_6HandleEEENS1_9allocatorIS5_EEEE(%"class.mojo::Message"* nonnull %3, i32 1172563722, i32 %8, i64 0, i64 0, %"class.std::__1::vector"* null) #12
  %10 = getelementptr inbounds %"class.mojo::Message", %"class.mojo::Message"* %3, i64 0, i32 1
  %11 = call i64 @_ZN4mojo8internal6Buffer8AllocateEm(%"class.mojo::internal::Buffer"* %10, i64 16) #12
  %12 = getelementptr inbounds %"class.mojo::Message", %"class.mojo::Message"* %3, i64 0, i32 1, i32 2
  %13 = load i8*, i8** %12, align 8
  %14 = getelementptr inbounds i8, i8* %13, i64 %11
  %15 = bitcast i8* %14 to %"class.blink::mojom::internal::WebBluetoothService_GetAvailability_ResponseParams_Data"*
  call void @_ZN5blink5mojom8internal55WebBluetoothService_GetAvailability_ResponseParams_DataC1Ev(%"class.blink::mojom::internal::WebBluetoothService_GetAvailability_ResponseParams_Data"* %15) #12
  %16 = load i8*, i8** %12, align 8
  %17 = getelementptr inbounds i8, i8* %16, i64 %11
  %18 = getelementptr inbounds i8, i8* %17, i64 8
  %19 = load i8, i8* %18, align 1
  %20 = and i8 %19, -2
  %21 = or i8 %20, %4
  store i8 %21, i8* %18, align 1
  %22 = getelementptr inbounds %"class.blink::mojom::blink::WebBluetoothService_GetAvailability_ProxyToResponder", %"class.blink::mojom::blink::WebBluetoothService_GetAvailability_ProxyToResponder"* %0, i64 0, i32 0
  %23 = load i64, i64* %22, align 8
  %24 = bitcast i8** %12 to %"struct.mojo::internal::MessageHeaderV1"**
  %25 = load %"struct.mojo::internal::MessageHeaderV1"*, %"struct.mojo::internal::MessageHeaderV1"** %24, align 8
  %26 = getelementptr inbounds %"struct.mojo::internal::MessageHeaderV1", %"struct.mojo::internal::MessageHeaderV1"* %25, i64 0, i32 1
  store i64 %23, i64* %26, align 1
  %27 = getelementptr inbounds %"class.blink::mojom::blink::WebBluetoothService_GetAvailability_ProxyToResponder", %"class.blink::mojom::blink::WebBluetoothService_GetAvailability_ProxyToResponder"* %0, i64 0, i32 2, i32 0, i32 0, i32 0
  %28 = load %"class.mojo::MessageReceiverWithStatus"*, %"class.mojo::MessageReceiverWithStatus"** %27, align 8
  %29 = getelementptr inbounds %"class.mojo::MessageReceiverWithStatus", %"class.mojo::MessageReceiverWithStatus"* %28, i64 0, i32 0
  %30 = bitcast %"class.mojo::MessageReceiverWithStatus"* %28 to i1 (%"class.mojo::MessageReceiver"*, %"class.mojo::Message"*)***
  %31 = load i1 (%"class.mojo::MessageReceiver"*, %"class.mojo::Message"*)**, i1 (%"class.mojo::MessageReceiver"*, %"class.mojo::Message"*)*** %30, align 8
  %32 = getelementptr inbounds i1 (%"class.mojo::MessageReceiver"*, %"class.mojo::Message"*)*, i1 (%"class.mojo::MessageReceiver"*, %"class.mojo::Message"*)** %31, i64 3
  %33 = load i1 (%"class.mojo::MessageReceiver"*, %"class.mojo::Message"*)*, i1 (%"class.mojo::MessageReceiver"*, %"class.mojo::Message"*)** %32, align 8
  %34 = call zeroext i1 %33(%"class.mojo::MessageReceiver"* %29, %"class.mojo::Message"* nonnull %3) #12
  %35 = load %"class.mojo::MessageReceiverWithStatus"*, %"class.mojo::MessageReceiverWithStatus"** %27, align 8
  store %"class.mojo::MessageReceiverWithStatus"* null, %"class.mojo::MessageReceiverWithStatus"** %27, align 8
  %36 = icmp eq %"class.mojo::MessageReceiverWithStatus"* %35, null
  br i1 %36, label %42, label %37

37:                                               ; preds = %2
  %38 = bitcast %"class.mojo::MessageReceiverWithStatus"* %35 to void (%"class.mojo::MessageReceiverWithStatus"*)***
  %39 = load void (%"class.mojo::MessageReceiverWithStatus"*)**, void (%"class.mojo::MessageReceiverWithStatus"*)*** %38, align 8
  %40 = getelementptr inbounds void (%"class.mojo::MessageReceiverWithStatus"*)*, void (%"class.mojo::MessageReceiverWithStatus"*)** %39, i64 1
  %41 = load void (%"class.mojo::MessageReceiverWithStatus"*)*, void (%"class.mojo::MessageReceiverWithStatus"*)** %40, align 8
  call void %41(%"class.mojo::MessageReceiverWithStatus"* nonnull %35) #12
  br label %42

42:                                               ; preds = %2, %37
  call void @_ZN4mojo7MessageD1Ev(%"class.mojo::Message"* nonnull %3) #12
  call void @llvm.lifetime.end.p0i8(i64 120, i8* nonnull %9) #12
  ret void
}

; Function Attrs: nounwind ssp uwtable
define hidden zeroext i1 @_ZN5blink5mojom5blink51WebBluetoothService_RequestDevice_ForwardToCallback6AcceptEPN4mojo7MessageE(%"class.blink::mojom::blink::WebBluetoothService_RequestDevice_ForwardToCallback"* nocapture, %"class.mojo::Message"*) unnamed_addr #0 align 2 {
  %3 = alloca %"class.base::OnceCallback.98", align 8
  %4 = alloca %"class.mojo::StructPtr.63", align 8
  %5 = alloca %"class.mojo::StructPtr.63", align 8
  %6 = tail call i8* @_ZNK4mojo7Message7payloadEv(%"class.mojo::Message"* %1) #12
  %7 = bitcast %"class.mojo::StructPtr.63"* %4 to i8*
  call void @llvm.lifetime.start.p0i8(i64 8, i8* nonnull %7) #12
  %8 = getelementptr inbounds %"class.mojo::StructPtr.63", %"class.mojo::StructPtr.63"* %4, i64 0, i32 0, i32 0, i32 0, i32 0
  %9 = bitcast %"class.mojo::StructPtr.63"* %4 to i64*
  store i64 0, i64* %9, align 8
  %10 = getelementptr inbounds i8, i8* %6, i64 8
  %11 = bitcast i8* %10 to i32*
  %12 = load i32, i32* %11, align 4
  %13 = getelementptr inbounds i8, i8* %6, i64 16
  %14 = bitcast i8* %13 to i64*
  %15 = load i64, i64* %14, align 8
  %16 = icmp eq i64 %15, 0
  %17 = getelementptr inbounds i8, i8* %13, i64 %15
  %18 = bitcast i8* %17 to %"class.blink::mojom::internal::WebBluetoothDevice_Data"*
  %19 = select i1 %16, %"class.blink::mojom::internal::WebBluetoothDevice_Data"* null, %"class.blink::mojom::internal::WebBluetoothDevice_Data"* %18
  %20 = call zeroext i1 @_ZN4mojo8internal10SerializerIN5blink5mojom26WebBluetoothDeviceDataViewENS_9StructPtrINS3_5blink18WebBluetoothDeviceEEEE11DeserializeEPNS3_8internal23WebBluetoothDevice_DataEPS8_PNS_7MessageE(%"class.blink::mojom::internal::WebBluetoothDevice_Data"* %19, %"class.mojo::StructPtr.63"* nonnull %4, %"class.mojo::Message"* %1) #12
  br i1 %20, label %22, label %21

21:                                               ; preds = %2
  call void @_ZN4mojo8internal31ReportValidationErrorForMessageEPNS_7MessageENS0_15ValidationErrorEPKcjb(%"class.mojo::Message"* %1, i32 17, i8* getelementptr inbounds ([32 x i8], [32 x i8]* @_ZN5blink5mojom5blink19WebBluetoothService5Name_E, i64 0, i64 0), i32 1, i1 zeroext true) #12
  br label %75

22:                                               ; preds = %2
  %23 = getelementptr inbounds %"class.blink::mojom::blink::WebBluetoothService_RequestDevice_ForwardToCallback", %"class.blink::mojom::blink::WebBluetoothService_RequestDevice_ForwardToCallback"* %0, i64 0, i32 1, i32 0, i32 0, i32 0
  %24 = load %"class.base::internal::BindStateBase"*, %"class.base::internal::BindStateBase"** %23, align 8
  %25 = icmp eq %"class.base::internal::BindStateBase"* %24, null
  br i1 %25, label %75, label %26

26:                                               ; preds = %22
  %27 = ptrtoint %"class.base::internal::BindStateBase"* %24 to i64
  %28 = bitcast %"class.mojo::StructPtr.63"* %5 to i64*
  %29 = getelementptr inbounds %"class.mojo::StructPtr.63", %"class.mojo::StructPtr.63"* %5, i64 0, i32 0, i32 0, i32 0, i32 0
  %30 = load i64, i64* %9, align 8
  store i64 %30, i64* %28, align 8
  store i64 0, i64* %9, align 8
  %31 = bitcast %"class.base::OnceCallback.98"* %3 to i8*
  call void @llvm.lifetime.start.p0i8(i64 8, i8* nonnull %31) #12
  %32 = bitcast %"class.base::OnceCallback.98"* %3 to i64*
  store i64 %27, i64* %32, align 8
  store %"class.base::internal::BindStateBase"* null, %"class.base::internal::BindStateBase"** %23, align 8
  %33 = getelementptr inbounds %"class.base::OnceCallback.98", %"class.base::OnceCallback.98"* %3, i64 0, i32 0
  %34 = getelementptr inbounds %"class.base::internal::BindStateBase", %"class.base::internal::BindStateBase"* %24, i64 0, i32 1
  %35 = bitcast void ()** %34 to void (%"class.base::internal::BindStateBase"*, i32, %"class.mojo::StructPtr.63"*)**
  %36 = load void (%"class.base::internal::BindStateBase"*, i32, %"class.mojo::StructPtr.63"*)*, void (%"class.base::internal::BindStateBase"*, i32, %"class.mojo::StructPtr.63"*)** %35, align 8
  call void %36(%"class.base::internal::BindStateBase"* nonnull %24, i32 %12, %"class.mojo::StructPtr.63"* nonnull dereferenceable(8) %5) #12
  call void @_ZN4base8internal12CallbackBaseD2Ev(%"class.base::internal::CallbackBase"* nonnull %33) #12
  call void @llvm.lifetime.end.p0i8(i64 8, i8* nonnull %31) #12
  %37 = load %"class.blink::mojom::blink::WebBluetoothDevice"*, %"class.blink::mojom::blink::WebBluetoothDevice"** %29, align 8
  store %"class.blink::mojom::blink::WebBluetoothDevice"* null, %"class.blink::mojom::blink::WebBluetoothDevice"** %29, align 8
  %38 = icmp eq %"class.blink::mojom::blink::WebBluetoothDevice"* %37, null
  br i1 %38, label %75, label %39

39:                                               ; preds = %26
  %40 = getelementptr inbounds %"class.blink::mojom::blink::WebBluetoothDevice", %"class.blink::mojom::blink::WebBluetoothDevice"* %37, i64 0, i32 1, i32 0, i32 0
  %41 = load %"class.WTF::StringImpl"*, %"class.WTF::StringImpl"** %40, align 8
  %42 = icmp eq %"class.WTF::StringImpl"* %41, null
  br i1 %42, label %56, label %43

43:                                               ; preds = %39
  %44 = getelementptr inbounds %"class.WTF::StringImpl", %"class.WTF::StringImpl"* %41, i64 0, i32 2, i32 0, i32 0, i32 0, i32 0, i32 0
  %45 = load atomic i32, i32* %44 monotonic, align 4
  %46 = and i32 %45, 2
  %47 = icmp eq i32 %46, 0
  %48 = getelementptr inbounds %"class.WTF::StringImpl", %"class.WTF::StringImpl"* %41, i64 0, i32 0
  %49 = load i32, i32* %48, align 4
  br i1 %47, label %50, label %52

50:                                               ; preds = %43
  %51 = add i32 %49, -1
  store i32 %51, i32* %48, align 4
  br label %52

52:                                               ; preds = %50, %43
  %53 = phi i32 [ %51, %50 ], [ %49, %43 ]
  %54 = icmp eq i32 %53, 0
  br i1 %54, label %55, label %56

55:                                               ; preds = %52
  call void @_ZNK3WTF10StringImpl18DestroyIfNotStaticEv(%"class.WTF::StringImpl"* nonnull %41) #12
  br label %56

56:                                               ; preds = %55, %52, %39
  %57 = getelementptr inbounds %"class.blink::mojom::blink::WebBluetoothDevice", %"class.blink::mojom::blink::WebBluetoothDevice"* %37, i64 0, i32 0, i32 0, i32 0
  %58 = load %"class.WTF::StringImpl"*, %"class.WTF::StringImpl"** %57, align 8
  %59 = icmp eq %"class.WTF::StringImpl"* %58, null
  br i1 %59, label %73, label %60

60:                                               ; preds = %56
  %61 = getelementptr inbounds %"class.WTF::StringImpl", %"class.WTF::StringImpl"* %58, i64 0, i32 2, i32 0, i32 0, i32 0, i32 0, i32 0
  %62 = load atomic i32, i32* %61 monotonic, align 4
  %63 = and i32 %62, 2
  %64 = icmp eq i32 %63, 0
  %65 = getelementptr inbounds %"class.WTF::StringImpl", %"class.WTF::StringImpl"* %58, i64 0, i32 0
  %66 = load i32, i32* %65, align 4
  br i1 %64, label %67, label %69

67:                                               ; preds = %60
  %68 = add i32 %66, -1
  store i32 %68, i32* %65, align 4
  br label %69

69:                                               ; preds = %67, %60
  %70 = phi i32 [ %68, %67 ], [ %66, %60 ]
  %71 = icmp eq i32 %70, 0
  br i1 %71, label %72, label %73

72:                                               ; preds = %69
  call void @_ZNK3WTF10StringImpl18DestroyIfNotStaticEv(%"class.WTF::StringImpl"* nonnull %58) #12
  br label %73

73:                                               ; preds = %72, %69, %56
  %74 = bitcast %"class.blink::mojom::blink::WebBluetoothDevice"* %37 to i8*
  call void @_ZdlPv(i8* %74) #13
  br label %75

75:                                               ; preds = %73, %26, %22, %21
  %76 = phi i1 [ false, %21 ], [ true, %22 ], [ true, %26 ], [ true, %73 ]
  %77 = load %"class.blink::mojom::blink::WebBluetoothDevice"*, %"class.blink::mojom::blink::WebBluetoothDevice"** %8, align 8
  store %"class.blink::mojom::blink::WebBluetoothDevice"* null, %"class.blink::mojom::blink::WebBluetoothDevice"** %8, align 8
  %78 = icmp eq %"class.blink::mojom::blink::WebBluetoothDevice"* %77, null
  br i1 %78, label %115, label %79

79:                                               ; preds = %75
  %80 = getelementptr inbounds %"class.blink::mojom::blink::WebBluetoothDevice", %"class.blink::mojom::blink::WebBluetoothDevice"* %77, i64 0, i32 1, i32 0, i32 0
  %81 = load %"class.WTF::StringImpl"*, %"class.WTF::StringImpl"** %80, align 8
  %82 = icmp eq %"class.WTF::StringImpl"* %81, null
  br i1 %82, label %96, label %83

83:                                               ; preds = %79
  %84 = getelementptr inbounds %"class.WTF::StringImpl", %"class.WTF::StringImpl"* %81, i64 0, i32 2, i32 0, i32 0, i32 0, i32 0, i32 0
  %85 = load atomic i32, i32* %84 monotonic, align 4
  %86 = and i32 %85, 2
  %87 = icmp eq i32 %86, 0
  %88 = getelementptr inbounds %"class.WTF::StringImpl", %"class.WTF::StringImpl"* %81, i64 0, i32 0
  %89 = load i32, i32* %88, align 4
  br i1 %87, label %90, label %92

90:                                               ; preds = %83
  %91 = add i32 %89, -1
  store i32 %91, i32* %88, align 4
  br label %92

92:                                               ; preds = %90, %83
  %93 = phi i32 [ %91, %90 ], [ %89, %83 ]
  %94 = icmp eq i32 %93, 0
  br i1 %94, label %95, label %96

95:                                               ; preds = %92
  call void @_ZNK3WTF10StringImpl18DestroyIfNotStaticEv(%"class.WTF::StringImpl"* nonnull %81) #12
  br label %96

96:                                               ; preds = %95, %92, %79
  %97 = getelementptr inbounds %"class.blink::mojom::blink::WebBluetoothDevice", %"class.blink::mojom::blink::WebBluetoothDevice"* %77, i64 0, i32 0, i32 0, i32 0
  %98 = load %"class.WTF::StringImpl"*, %"class.WTF::StringImpl"** %97, align 8
  %99 = icmp eq %"class.WTF::StringImpl"* %98, null
  br i1 %99, label %113, label %100

100:                                              ; preds = %96
  %101 = getelementptr inbounds %"class.WTF::StringImpl", %"class.WTF::StringImpl"* %98, i64 0, i32 2, i32 0, i32 0, i32 0, i32 0, i32 0
  %102 = load atomic i32, i32* %101 monotonic, align 4
  %103 = and i32 %102, 2
  %104 = icmp eq i32 %103, 0
  %105 = getelementptr inbounds %"class.WTF::StringImpl", %"class.WTF::StringImpl"* %98, i64 0, i32 0
  %106 = load i32, i32* %105, align 4
  br i1 %104, label %107, label %109

107:                                              ; preds = %100
  %108 = add i32 %106, -1
  store i32 %108, i32* %105, align 4
  br label %109

109:                                              ; preds = %107, %100
  %110 = phi i32 [ %108, %107 ], [ %106, %100 ]
  %111 = icmp eq i32 %110, 0
  br i1 %111, label %112, label %113

112:                                              ; preds = %109
  call void @_ZNK3WTF10StringImpl18DestroyIfNotStaticEv(%"class.WTF::StringImpl"* nonnull %98) #12
  br label %113

113:                                              ; preds = %112, %109, %96
  %114 = bitcast %"class.blink::mojom::blink::WebBluetoothDevice"* %77 to i8*
  call void @_ZdlPv(i8* %114) #13
  br label %115

115:                                              ; preds = %75, %113
  call void @llvm.lifetime.end.p0i8(i64 8, i8* nonnull %7) #12
  ret i1 %76
}

; Function Attrs: nounwind ssp uwtable
define hidden void @_ZN5blink5mojom5blink50WebBluetoothService_RequestDevice_ProxyToResponder3RunENS0_18WebBluetoothResultEN4mojo9StructPtrINS1_18WebBluetoothDeviceEEE(%"class.blink::mojom::blink::WebBluetoothService_RequestDevice_ProxyToResponder"* nocapture, i32, %"class.mojo::StructPtr.63"*) #0 align 2 {
  %4 = alloca %"class.mojo::Message", align 8
  %5 = alloca %"class.mojo::internal::MessageFragment.156", align 8
  %6 = getelementptr inbounds %"class.blink::mojom::blink::WebBluetoothService_RequestDevice_ProxyToResponder", %"class.blink::mojom::blink::WebBluetoothService_RequestDevice_ProxyToResponder"* %0, i64 0, i32 1
  %7 = load i8, i8* %6, align 8, !range !2
  %8 = icmp eq i8 %7, 0
  %9 = select i1 %8, i32 2, i32 6
  %10 = bitcast %"class.mojo::Message"* %4 to i8*
  call void @llvm.lifetime.start.p0i8(i64 120, i8* nonnull %10) #12
  call void @llvm.memset.p0i8.i64(i8* nonnull align 8 %10, i8 -86, i64 120, i1 false)
  call void @_ZN4mojo7MessageC1EjjmmPNSt3__16vectorINS_16ScopedHandleBaseINS_6HandleEEENS1_9allocatorIS5_EEEE(%"class.mojo::Message"* nonnull %4, i32 953739893, i32 %9, i64 0, i64 0, %"class.std::__1::vector"* null) #12
  %11 = getelementptr inbounds %"class.mojo::Message", %"class.mojo::Message"* %4, i64 0, i32 1
  %12 = call i64 @_ZN4mojo8internal6Buffer8AllocateEm(%"class.mojo::internal::Buffer"* %11, i64 24) #12
  %13 = getelementptr inbounds %"class.mojo::Message", %"class.mojo::Message"* %4, i64 0, i32 1, i32 2
  %14 = load i8*, i8** %13, align 8
  %15 = getelementptr inbounds i8, i8* %14, i64 %12
  %16 = bitcast i8* %15 to %"class.blink::mojom::internal::WebBluetoothService_RequestDevice_ResponseParams_Data"*
  call void @_ZN5blink5mojom8internal53WebBluetoothService_RequestDevice_ResponseParams_DataC1Ev(%"class.blink::mojom::internal::WebBluetoothService_RequestDevice_ResponseParams_Data"* %16) #12
  %17 = load i8*, i8** %13, align 8
  %18 = getelementptr inbounds i8, i8* %17, i64 %12
  %19 = getelementptr inbounds i8, i8* %18, i64 8
  %20 = bitcast i8* %19 to i32*
  store i32 %1, i32* %20, align 4
  %21 = bitcast %"class.mojo::internal::MessageFragment.156"* %5 to i8*
  call void @llvm.lifetime.start.p0i8(i64 16, i8* nonnull %21) #12
  %22 = getelementptr inbounds %"class.mojo::internal::MessageFragment.156", %"class.mojo::internal::MessageFragment.156"* %5, i64 0, i32 0
  %23 = getelementptr inbounds %"class.mojo::internal::MessageFragment.156", %"class.mojo::internal::MessageFragment.156"* %5, i64 0, i32 1
  store %"class.mojo::Message"* %4, %"class.mojo::Message"** %22, align 8
  store i64 -1, i64* %23, align 8
  call void @_ZN4mojo8internal10SerializerIN5blink5mojom26WebBluetoothDeviceDataViewENS_9StructPtrINS3_5blink18WebBluetoothDeviceEEEE9SerializeERS8_RNS0_15MessageFragmentINS3_8internal23WebBluetoothDevice_DataEEE(%"class.mojo::StructPtr.63"* dereferenceable(8) %2, %"class.mojo::internal::MessageFragment.156"* nonnull dereferenceable(16) %5) #12
  %24 = load i8*, i8** %13, align 8
  %25 = getelementptr inbounds i8, i8* %24, i64 %12
  %26 = getelementptr inbounds i8, i8* %25, i64 16
  %27 = load i64, i64* %23, align 8
  %28 = icmp eq i64 %27, -1
  br i1 %28, label %35, label %29

29:                                               ; preds = %3
  %30 = load %"class.mojo::Message"*, %"class.mojo::Message"** %22, align 8
  %31 = getelementptr inbounds %"class.mojo::Message", %"class.mojo::Message"* %30, i64 0, i32 1, i32 2
  %32 = load i8*, i8** %31, align 8
  %33 = getelementptr inbounds i8, i8* %32, i64 %27
  %34 = bitcast i8* %33 to %"class.blink::mojom::internal::WebBluetoothDevice_Data"*
  br label %35

35:                                               ; preds = %3, %29
  %36 = phi %"class.blink::mojom::internal::WebBluetoothDevice_Data"* [ %34, %29 ], [ null, %3 ]
  %37 = bitcast i8* %26 to i64*
  %38 = icmp eq %"class.blink::mojom::internal::WebBluetoothDevice_Data"* %36, null
  %39 = ptrtoint %"class.blink::mojom::internal::WebBluetoothDevice_Data"* %36 to i64
  %40 = ptrtoint i8* %26 to i64
  %41 = sub i64 %39, %40
  %42 = select i1 %38, i64 0, i64 %41
  store i64 %42, i64* %37, align 8
  %43 = getelementptr inbounds %"class.blink::mojom::blink::WebBluetoothService_RequestDevice_ProxyToResponder", %"class.blink::mojom::blink::WebBluetoothService_RequestDevice_ProxyToResponder"* %0, i64 0, i32 0
  %44 = load i64, i64* %43, align 8
  %45 = bitcast i8** %13 to %"struct.mojo::internal::MessageHeaderV1"**
  %46 = load %"struct.mojo::internal::MessageHeaderV1"*, %"struct.mojo::internal::MessageHeaderV1"** %45, align 8
  %47 = getelementptr inbounds %"struct.mojo::internal::MessageHeaderV1", %"struct.mojo::internal::MessageHeaderV1"* %46, i64 0, i32 1
  store i64 %44, i64* %47, align 1
  %48 = getelementptr inbounds %"class.blink::mojom::blink::WebBluetoothService_RequestDevice_ProxyToResponder", %"class.blink::mojom::blink::WebBluetoothService_RequestDevice_ProxyToResponder"* %0, i64 0, i32 2, i32 0, i32 0, i32 0
  %49 = load %"class.mojo::MessageReceiverWithStatus"*, %"class.mojo::MessageReceiverWithStatus"** %48, align 8
  %50 = getelementptr inbounds %"class.mojo::MessageReceiverWithStatus", %"class.mojo::MessageReceiverWithStatus"* %49, i64 0, i32 0
  %51 = bitcast %"class.mojo::MessageReceiverWithStatus"* %49 to i1 (%"class.mojo::MessageReceiver"*, %"class.mojo::Message"*)***
  %52 = load i1 (%"class.mojo::MessageReceiver"*, %"class.mojo::Message"*)**, i1 (%"class.mojo::MessageReceiver"*, %"class.mojo::Message"*)*** %51, align 8
  %53 = getelementptr inbounds i1 (%"class.mojo::MessageReceiver"*, %"class.mojo::Message"*)*, i1 (%"class.mojo::MessageReceiver"*, %"class.mojo::Message"*)** %52, i64 3
  %54 = load i1 (%"class.mojo::MessageReceiver"*, %"class.mojo::Message"*)*, i1 (%"class.mojo::MessageReceiver"*, %"class.mojo::Message"*)** %53, align 8
  %55 = call zeroext i1 %54(%"class.mojo::MessageReceiver"* %50, %"class.mojo::Message"* nonnull %4) #12
  %56 = load %"class.mojo::MessageReceiverWithStatus"*, %"class.mojo::MessageReceiverWithStatus"** %48, align 8
  store %"class.mojo::MessageReceiverWithStatus"* null, %"class.mojo::MessageReceiverWithStatus"** %48, align 8
  %57 = icmp eq %"class.mojo::MessageReceiverWithStatus"* %56, null
  br i1 %57, label %63, label %58

58:                                               ; preds = %35
  %59 = bitcast %"class.mojo::MessageReceiverWithStatus"* %56 to void (%"class.mojo::MessageReceiverWithStatus"*)***
  %60 = load void (%"class.mojo::MessageReceiverWithStatus"*)**, void (%"class.mojo::MessageReceiverWithStatus"*)*** %59, align 8
  %61 = getelementptr inbounds void (%"class.mojo::MessageReceiverWithStatus"*)*, void (%"class.mojo::MessageReceiverWithStatus"*)** %60, i64 1
  %62 = load void (%"class.mojo::MessageReceiverWithStatus"*)*, void (%"class.mojo::MessageReceiverWithStatus"*)** %61, align 8
  call void %62(%"class.mojo::MessageReceiverWithStatus"* nonnull %56) #12
  br label %63

63:                                               ; preds = %35, %58
  call void @llvm.lifetime.end.p0i8(i64 16, i8* nonnull %21) #12
  call void @_ZN4mojo7MessageD1Ev(%"class.mojo::Message"* nonnull %4) #12
  call void @llvm.lifetime.end.p0i8(i64 120, i8* nonnull %10) #12
  ret void
}

; Function Attrs: nounwind ssp uwtable
define hidden zeroext i1 @_ZN5blink5mojom5blink48WebBluetoothService_GetDevices_ForwardToCallback6AcceptEPN4mojo7MessageE(%"class.blink::mojom::blink::WebBluetoothService_GetDevices_ForwardToCallback"* nocapture, %"class.mojo::Message"*) unnamed_addr #0 align 2 {
  %3 = alloca %"class.base::OnceCallback.104", align 8
  %4 = alloca %"class.WTF::Vector.158", align 8
  %5 = alloca %"class.WTF::Vector.158", align 8
  %6 = tail call i8* @_ZNK4mojo7Message7payloadEv(%"class.mojo::Message"* %1) #12
  %7 = bitcast %"class.WTF::Vector.158"* %4 to i8*
  call void @llvm.lifetime.start.p0i8(i64 16, i8* nonnull %7) #12
  %8 = getelementptr inbounds %"class.WTF::Vector.158", %"class.WTF::Vector.158"* %4, i64 0, i32 0, i32 0, i32 0
  %9 = getelementptr inbounds %"class.WTF::Vector.158", %"class.WTF::Vector.158"* %4, i64 0, i32 0, i32 0, i32 1
  %10 = getelementptr inbounds %"class.WTF::Vector.158", %"class.WTF::Vector.158"* %4, i64 0, i32 0, i32 0, i32 2
  call void @llvm.memset.p0i8.i64(i8* nonnull align 8 %7, i8 0, i64 16, i1 false) #12
  %11 = getelementptr inbounds i8, i8* %6, i64 8
  %12 = bitcast i8* %11 to i64*
  %13 = load i64, i64* %12, align 8
  %14 = icmp eq i64 %13, 0
  br i1 %14, label %20, label %15

15:                                               ; preds = %2
  %16 = getelementptr inbounds i8, i8* %11, i64 %13
  %17 = bitcast i8* %16 to %"class.mojo::internal::Array_Data.165"*
  %18 = call zeroext i1 @_ZN4mojo8internal15ArraySerializerINS_13ArrayDataViewIN5blink5mojom26WebBluetoothDeviceDataViewEEEN3WTF6VectorINS_9StructPtrINS4_5blink18WebBluetoothDeviceEEELj0ENS7_18PartitionAllocatorEEENS0_13ArrayIteratorINS_11ArrayTraitsISE_EESE_Lb0EEEvE19DeserializeElementsEPNS0_10Array_DataINS0_7PointerINS4_8internal23WebBluetoothDevice_DataEEEEEPSE_PNS_7MessageE(%"class.mojo::internal::Array_Data.165"* nonnull %17, %"class.WTF::Vector.158"* nonnull %4, %"class.mojo::Message"* %1) #12
  br i1 %18, label %20, label %19

19:                                               ; preds = %15
  call void @_ZN4mojo8internal31ReportValidationErrorForMessageEPNS_7MessageENS0_15ValidationErrorEPKcjb(%"class.mojo::Message"* %1, i32 17, i8* getelementptr inbounds ([32 x i8], [32 x i8]* @_ZN5blink5mojom5blink19WebBluetoothService5Name_E, i64 0, i64 0), i32 2, i1 zeroext true) #12
  br label %54

20:                                               ; preds = %2, %15
  %21 = getelementptr inbounds %"class.blink::mojom::blink::WebBluetoothService_GetDevices_ForwardToCallback", %"class.blink::mojom::blink::WebBluetoothService_GetDevices_ForwardToCallback"* %0, i64 0, i32 1, i32 0, i32 0, i32 0
  %22 = load %"class.base::internal::BindStateBase"*, %"class.base::internal::BindStateBase"** %21, align 8
  %23 = icmp eq %"class.base::internal::BindStateBase"* %22, null
  br i1 %23, label %54, label %24

24:                                               ; preds = %20
  %25 = ptrtoint %"class.base::internal::BindStateBase"* %22 to i64
  %26 = getelementptr inbounds %"class.WTF::Vector.158", %"class.WTF::Vector.158"* %5, i64 0, i32 0, i32 0, i32 1
  %27 = getelementptr inbounds %"class.WTF::Vector.158", %"class.WTF::Vector.158"* %5, i64 0, i32 0, i32 0, i32 2
  %28 = bitcast %"class.WTF::Vector.158"* %4 to i64*
  %29 = bitcast %"class.WTF::Vector.158"* %5 to i64*
  store i64 0, i64* %29, align 8
  %30 = load i64, i64* %28, align 8
  %31 = bitcast %"class.WTF::Vector.158"* %5 to i64*
  store atomic i64 0, i64* %28 monotonic, align 8
  store atomic i64 %30, i64* %31 monotonic, align 8
  %32 = load i32, i32* %9, align 8
  store i32 %32, i32* %26, align 8
  store i32 0, i32* %9, align 8
  %33 = load i32, i32* %10, align 4
  store i32 %33, i32* %27, align 4
  store i32 0, i32* %10, align 4
  %34 = bitcast %"class.base::OnceCallback.104"* %3 to i8*
  call void @llvm.lifetime.start.p0i8(i64 8, i8* nonnull %34) #12
  %35 = bitcast %"class.base::OnceCallback.104"* %3 to i64*
  store i64 %25, i64* %35, align 8
  store %"class.base::internal::BindStateBase"* null, %"class.base::internal::BindStateBase"** %21, align 8
  %36 = getelementptr inbounds %"class.base::OnceCallback.104", %"class.base::OnceCallback.104"* %3, i64 0, i32 0
  %37 = getelementptr inbounds %"class.base::internal::BindStateBase", %"class.base::internal::BindStateBase"* %22, i64 0, i32 1
  %38 = bitcast void ()** %37 to void (%"class.base::internal::BindStateBase"*, %"class.WTF::Vector.158"*)**
  %39 = load void (%"class.base::internal::BindStateBase"*, %"class.WTF::Vector.158"*)*, void (%"class.base::internal::BindStateBase"*, %"class.WTF::Vector.158"*)** %38, align 8
  call void %39(%"class.base::internal::BindStateBase"* nonnull %22, %"class.WTF::Vector.158"* nonnull dereferenceable(16) %5) #12
  call void @_ZN4base8internal12CallbackBaseD2Ev(%"class.base::internal::CallbackBase"* nonnull %36) #12
  call void @llvm.lifetime.end.p0i8(i64 8, i8* nonnull %34) #12
  %40 = getelementptr inbounds %"class.WTF::Vector.158", %"class.WTF::Vector.158"* %5, i64 0, i32 0, i32 0, i32 0
  %41 = load %"class.mojo::StructPtr.63"*, %"class.mojo::StructPtr.63"** %40, align 8
  %42 = icmp eq %"class.mojo::StructPtr.63"* %41, null
  br i1 %42, label %54, label %43, !prof !4

43:                                               ; preds = %24
  %44 = bitcast %"class.mojo::StructPtr.63"* %41 to i8*
  %45 = load i32, i32* %27, align 4
  %46 = icmp eq i32 %45, 0
  br i1 %46, label %52, label %47, !prof !3

47:                                               ; preds = %43
  %48 = zext i32 %45 to i64
  %49 = getelementptr inbounds %"class.mojo::StructPtr.63", %"class.mojo::StructPtr.63"* %41, i64 %48
  call void @_ZN3WTF16VectorDestructorILb1EN4mojo9StructPtrIN5blink5mojom5blink18WebBluetoothDeviceEEEE8DestructEPS7_S9_(%"class.mojo::StructPtr.63"* nonnull %41, %"class.mojo::StructPtr.63"* %49) #12
  store i32 0, i32* %27, align 4
  %50 = bitcast %"class.WTF::Vector.158"* %5 to i8**
  %51 = load i8*, i8** %50, align 8
  br label %52

52:                                               ; preds = %47, %43
  %53 = phi i8* [ %51, %47 ], [ %44, %43 ]
  call void @_ZN3WTF18PartitionAllocator11FreeBackingEPv(i8* %53) #12
  store %"class.mojo::StructPtr.63"* null, %"class.mojo::StructPtr.63"** %40, align 8
  br label %54

54:                                               ; preds = %52, %24, %20, %19
  %55 = phi i1 [ false, %19 ], [ true, %20 ], [ true, %24 ], [ true, %52 ]
  %56 = load %"class.mojo::StructPtr.63"*, %"class.mojo::StructPtr.63"** %8, align 8
  %57 = icmp eq %"class.mojo::StructPtr.63"* %56, null
  br i1 %57, label %69, label %58, !prof !4

58:                                               ; preds = %54
  %59 = bitcast %"class.mojo::StructPtr.63"* %56 to i8*
  %60 = load i32, i32* %10, align 4
  %61 = icmp eq i32 %60, 0
  br i1 %61, label %67, label %62, !prof !3

62:                                               ; preds = %58
  %63 = zext i32 %60 to i64
  %64 = getelementptr inbounds %"class.mojo::StructPtr.63", %"class.mojo::StructPtr.63"* %56, i64 %63
  call void @_ZN3WTF16VectorDestructorILb1EN4mojo9StructPtrIN5blink5mojom5blink18WebBluetoothDeviceEEEE8DestructEPS7_S9_(%"class.mojo::StructPtr.63"* nonnull %56, %"class.mojo::StructPtr.63"* %64) #12
  store i32 0, i32* %10, align 4
  %65 = bitcast %"class.WTF::Vector.158"* %4 to i8**
  %66 = load i8*, i8** %65, align 8
  br label %67

67:                                               ; preds = %62, %58
  %68 = phi i8* [ %66, %62 ], [ %59, %58 ]
  call void @_ZN3WTF18PartitionAllocator11FreeBackingEPv(i8* %68) #12
  store %"class.mojo::StructPtr.63"* null, %"class.mojo::StructPtr.63"** %8, align 8
  br label %69

69:                                               ; preds = %54, %67
  call void @llvm.lifetime.end.p0i8(i64 16, i8* nonnull %7) #12
  ret i1 %55
}

; Function Attrs: nounwind ssp uwtable
define hidden void @_ZN5blink5mojom5blink47WebBluetoothService_GetDevices_ProxyToResponder3RunEN3WTF6VectorIN4mojo9StructPtrINS1_18WebBluetoothDeviceEEELj0ENS3_18PartitionAllocatorEEE(%"class.blink::mojom::blink::WebBluetoothService_GetDevices_ProxyToResponder"* nocapture, %"class.WTF::Vector.158"*) #0 align 2 {
  %3 = alloca %"class.mojo::internal::MessageFragment.156", align 8
  %4 = alloca %"class.mojo::Message", align 8
  %5 = alloca %"class.mojo::internal::ContainerValidateParams", align 8
  %6 = getelementptr inbounds %"class.blink::mojom::blink::WebBluetoothService_GetDevices_ProxyToResponder", %"class.blink::mojom::blink::WebBluetoothService_GetDevices_ProxyToResponder"* %0, i64 0, i32 1
  %7 = load i8, i8* %6, align 8, !range !2
  %8 = icmp eq i8 %7, 0
  %9 = select i1 %8, i32 2, i32 6
  %10 = bitcast %"class.mojo::Message"* %4 to i8*
  call void @llvm.lifetime.start.p0i8(i64 120, i8* nonnull %10) #12
  call void @llvm.memset.p0i8.i64(i8* nonnull align 8 %10, i8 -86, i64 120, i1 false)
  call void @_ZN4mojo7MessageC1EjjmmPNSt3__16vectorINS_16ScopedHandleBaseINS_6HandleEEENS1_9allocatorIS5_EEEE(%"class.mojo::Message"* nonnull %4, i32 97698673, i32 %9, i64 0, i64 0, %"class.std::__1::vector"* null) #12
  %11 = getelementptr inbounds %"class.mojo::Message", %"class.mojo::Message"* %4, i64 0, i32 1
  %12 = call i64 @_ZN4mojo8internal6Buffer8AllocateEm(%"class.mojo::internal::Buffer"* %11, i64 16) #12
  %13 = getelementptr inbounds %"class.mojo::Message", %"class.mojo::Message"* %4, i64 0, i32 1, i32 2
  %14 = load i8*, i8** %13, align 8
  %15 = getelementptr inbounds i8, i8* %14, i64 %12
  %16 = bitcast i8* %15 to %"class.blink::mojom::internal::WebBluetoothService_GetDevices_ResponseParams_Data"*
  call void @_ZN5blink5mojom8internal50WebBluetoothService_GetDevices_ResponseParams_DataC1Ev(%"class.blink::mojom::internal::WebBluetoothService_GetDevices_ResponseParams_Data"* %16) #12
  %17 = ptrtoint %"class.mojo::Message"* %4 to i64
  %18 = bitcast %"class.mojo::internal::ContainerValidateParams"* %5 to i8*
  call void @llvm.lifetime.start.p0i8(i64 32, i8* nonnull %18) #12
  %19 = bitcast %"class.mojo::internal::ContainerValidateParams"* %5 to i64*
  store i64 -6148914691236517206, i64* %19, align 8
  %20 = getelementptr inbounds %"class.mojo::internal::ContainerValidateParams", %"class.mojo::internal::ContainerValidateParams"* %5, i64 0, i32 0
  store i32 0, i32* %20, align 8
  %21 = getelementptr inbounds %"class.mojo::internal::ContainerValidateParams", %"class.mojo::internal::ContainerValidateParams"* %5, i64 0, i32 1
  store i8 0, i8* %21, align 4
  %22 = getelementptr inbounds %"class.mojo::internal::ContainerValidateParams", %"class.mojo::internal::ContainerValidateParams"* %5, i64 0, i32 2
  %23 = getelementptr inbounds %"class.WTF::Vector.158", %"class.WTF::Vector.158"* %1, i64 0, i32 0, i32 0, i32 2
  %24 = bitcast %"class.mojo::internal::ContainerValidateParams"** %22 to i8*
