; ModuleID = '../../chrome/browser/web_applications/web_app_proto_utils.cc'
source_filename = "../../chrome/browser/web_applications/web_app_proto_utils.cc"
target datalayout = "e-m:e-i64:64-f80:128-n8:16:32:64-S128"
target triple = "x86_64-unknown-linux-gnu"

module asm ".symver exp, exp@GLIBC_2.2.5"
module asm ".symver exp2, exp2@GLIBC_2.2.5"
module asm ".symver exp2f, exp2f@GLIBC_2.2.5"
module asm ".symver expf, expf@GLIBC_2.2.5"
module asm ".symver lgamma, lgamma@GLIBC_2.2.5"
module asm ".symver lgammaf, lgammaf@GLIBC_2.2.5"
module asm ".symver lgammal, lgammal@GLIBC_2.2.5"
module asm ".symver log, log@GLIBC_2.2.5"
module asm ".symver log2, log2@GLIBC_2.2.5"
module asm ".symver log2f, log2f@GLIBC_2.2.5"
module asm ".symver logf, logf@GLIBC_2.2.5"
module asm ".symver pow, pow@GLIBC_2.2.5"
module asm ".symver powf, powf@GLIBC_2.2.5"

%"class.google::protobuf::internal::ExplicitlyConstructed" = type { %"union.google::protobuf::internal::ExplicitlyConstructed<std::__1::basic_string<char, std::__1::char_traits<char>, std::__1::allocator<char> > >::AlignedUnion" }
%"union.google::protobuf::internal::ExplicitlyConstructed<std::__1::basic_string<char, std::__1::char_traits<char>, std::__1::allocator<char> > >::AlignedUnion" = type { i64, [16 x i8] }
%"class.absl::optional" = type { %"class.absl::optional_internal::optional_data" }
%"class.absl::optional_internal::optional_data" = type { %"class.absl::optional_internal::optional_data_base" }
%"class.absl::optional_internal::optional_data_base" = type { %"class.absl::optional_internal::optional_data_dtor_base" }
%"class.absl::optional_internal::optional_data_dtor_base" = type { i8, %union.anon }
%union.anon = type { %"class.std::__1::vector" }
%"class.std::__1::vector" = type { %"class.std::__1::__vector_base" }
%"class.std::__1::__vector_base" = type { %struct.WebApplicationIconInfo*, %struct.WebApplicationIconInfo*, %"class.std::__1::__compressed_pair.10" }
%struct.WebApplicationIconInfo = type <{ %class.GURL, %"class.absl::optional.5", i32, [4 x i8] }>
%class.GURL = type { %"class.std::__1::basic_string", i8, %"struct.url::Parsed", %"class.std::__1::unique_ptr" }
%"class.std::__1::basic_string" = type { %"class.std::__1::__compressed_pair" }
%"class.std::__1::__compressed_pair" = type { %"struct.std::__1::__compressed_pair_elem" }
%"struct.std::__1::__compressed_pair_elem" = type { %"struct.std::__1::basic_string<char, std::__1::char_traits<char>, std::__1::allocator<char> >::__rep" }
%"struct.std::__1::basic_string<char, std::__1::char_traits<char>, std::__1::allocator<char> >::__rep" = type { %union.anon.0 }
%union.anon.0 = type { %"struct.std::__1::basic_string<char, std::__1::char_traits<char>, std::__1::allocator<char> >::__long" }
%"struct.std::__1::basic_string<char, std::__1::char_traits<char>, std::__1::allocator<char> >::__long" = type { i8*, i64, i64 }
%"struct.url::Parsed" = type { %"struct.url::Component", %"struct.url::Component", %"struct.url::Component", %"struct.url::Component", %"struct.url::Component", %"struct.url::Component", %"struct.url::Component", %"struct.url::Component", i8, %"struct.url::Parsed"* }
%"struct.url::Component" = type { i32, i32 }
%"class.std::__1::unique_ptr" = type { %"class.std::__1::__compressed_pair.2" }
%"class.std::__1::__compressed_pair.2" = type { %"struct.std::__1::__compressed_pair_elem.3" }
%"struct.std::__1::__compressed_pair_elem.3" = type { %class.GURL* }
%"class.absl::optional.5" = type { %"class.absl::optional_internal::optional_data.6" }
%"class.absl::optional_internal::optional_data.6" = type { %"class.absl::optional_internal::optional_data_base.7" }
%"class.absl::optional_internal::optional_data_base.7" = type { %"class.absl::optional_internal::optional_data_dtor_base.8" }
%"class.absl::optional_internal::optional_data_dtor_base.8" = type { i8, %union.anon.9 }
%union.anon.9 = type { i32 }
%"class.std::__1::__compressed_pair.10" = type { %"struct.std::__1::__compressed_pair_elem.11" }
%"struct.std::__1::__compressed_pair_elem.11" = type { %struct.WebApplicationIconInfo* }
%"class.google::protobuf::RepeatedPtrField" = type { %"class.google::protobuf::internal::RepeatedPtrFieldBase" }
%"class.google::protobuf::internal::RepeatedPtrFieldBase" = type { %"class.google::protobuf::Arena"*, i32, i32, %"struct.google::protobuf::internal::RepeatedPtrFieldBase::Rep"* }
%"class.google::protobuf::Arena" = type { %"class.google::protobuf::internal::ArenaImpl", void (%"class.std::type_info"*, i64, i8*)*, void (%"class.google::protobuf::Arena"*, i8*, i64)*, void (%"class.google::protobuf::Arena"*, i8*, i64)*, i8* }
%"class.google::protobuf::internal::ArenaImpl" = type { %"struct.std::__1::atomic", %"struct.std::__1::atomic", %"struct.std::__1::atomic.15", %"class.google::protobuf::internal::ArenaImpl::Block"*, i64, %"struct.google::protobuf::internal::ArenaImpl::Options" }
%"struct.std::__1::atomic" = type { %"struct.std::__1::__atomic_base" }
%"struct.std::__1::__atomic_base" = type { %"struct.std::__1::__cxx_atomic_impl" }
%"struct.std::__1::__cxx_atomic_impl" = type { %"struct.std::__1::__cxx_atomic_base_impl" }
%"struct.std::__1::__cxx_atomic_base_impl" = type { %"class.google::protobuf::internal::ArenaImpl::SerialArena"* }
%"class.google::protobuf::internal::ArenaImpl::SerialArena" = type { %"class.google::protobuf::internal::ArenaImpl"*, i8*, %"class.google::protobuf::internal::ArenaImpl::Block"*, %"struct.google::protobuf::internal::ArenaImpl::CleanupChunk"*, %"class.google::protobuf::internal::ArenaImpl::SerialArena"*, i8*, i8*, %"struct.google::protobuf::internal::ArenaImpl::CleanupNode"*, %"struct.google::protobuf::internal::ArenaImpl::CleanupNode"* }
%"struct.google::protobuf::internal::ArenaImpl::CleanupChunk" = type { i64, %"struct.google::protobuf::internal::ArenaImpl::CleanupChunk"*, [1 x %"struct.google::protobuf::internal::ArenaImpl::CleanupNode"] }
%"struct.google::protobuf::internal::ArenaImpl::CleanupNode" = type { i8*, void (i8*)* }
%"struct.std::__1::atomic.15" = type { %"struct.std::__1::__atomic_base.16" }
%"struct.std::__1::__atomic_base.16" = type { %"struct.std::__1::__atomic_base.17" }
%"struct.std::__1::__atomic_base.17" = type { %"struct.std::__1::__cxx_atomic_impl.18" }
%"struct.std::__1::__cxx_atomic_impl.18" = type { %"struct.std::__1::__cxx_atomic_base_impl.19" }
%"struct.std::__1::__cxx_atomic_base_impl.19" = type { i64 }
%"class.google::protobuf::internal::ArenaImpl::Block" = type { %"class.google::protobuf::internal::ArenaImpl::Block"*, i64, i64 }
%"struct.google::protobuf::internal::ArenaImpl::Options" = type { i64, i64, i8*, i64, i8* (i64)*, void (i8*, i64)* }
%"class.std::type_info" = type { i32 (...)**, i8* }
%"struct.google::protobuf::internal::RepeatedPtrFieldBase::Rep" = type { i32, [268435454 x i8*] }
%"class.sync_pb::WebAppIconInfo" = type { %"class.google::protobuf::MessageLite", %"class.google::protobuf::internal::HasBits", %"class.google::protobuf::internal::CachedSize", %"struct.google::protobuf::internal::ArenaStringPtr", i32, i32 }
%"class.google::protobuf::MessageLite" = type { i32 (...)**, %"class.google::protobuf::internal::InternalMetadata" }
%"class.google::protobuf::internal::InternalMetadata" = type { i8* }
%"class.google::protobuf::internal::HasBits" = type { [1 x i32] }
%"class.google::protobuf::internal::CachedSize" = type { %"struct.std::__1::atomic.20" }
%"struct.std::__1::atomic.20" = type { %"struct.std::__1::__atomic_base.21" }
%"struct.std::__1::__atomic_base.21" = type { %"struct.std::__1::__atomic_base.22" }
%"struct.std::__1::__atomic_base.22" = type { %"struct.std::__1::__cxx_atomic_impl.23" }
%"struct.std::__1::__cxx_atomic_impl.23" = type { %"struct.std::__1::__cxx_atomic_base_impl.24" }
%"struct.std::__1::__cxx_atomic_base_impl.24" = type { i32 }
%"struct.google::protobuf::internal::ArenaStringPtr" = type { %"class.std::__1::basic_string"* }
%"struct.std::__1::basic_string<char, std::__1::char_traits<char>, std::__1::allocator<char> >::__short" = type { [23 x i8], %struct.anon }
%struct.anon = type { i8 }
%"class.sync_pb::WebAppSpecifics" = type { %"class.google::protobuf::MessageLite", %"class.google::protobuf::internal::HasBits", %"class.google::protobuf::internal::CachedSize", %"class.google::protobuf::RepeatedPtrField", %"struct.google::protobuf::internal::ArenaStringPtr", %"struct.google::protobuf::internal::ArenaStringPtr", %"struct.google::protobuf::internal::ArenaStringPtr", %"struct.google::protobuf::internal::ArenaStringPtr", %"struct.google::protobuf::internal::ArenaStringPtr", %"struct.google::protobuf::internal::ArenaStringPtr", i32, i32 }
%"class.web_app::WebApp" = type <{ %"class.std::__1::basic_string", %"class.std::__1::bitset", %"class.std::__1::basic_string", %"class.std::__1::basic_string", %class.GURL, %"class.absl::optional.30", %class.GURL, %"class.absl::optional.35", %"class.absl::optional.35", i32, i32, %"class.std::__1::vector.40", %"class.syncer::Ordinal", %"class.syncer::Ordinal", %"class.absl::optional.47", i8, i8, i8, [7 x i8], %"class.std::__1::vector", %"class.base::internal::flat_tree", %"class.base::internal::flat_tree", %"class.base::internal::flat_tree", i8, [7 x i8], %"class.std::__1::vector.59", %"class.std::__1::vector.82", %"class.std::__1::vector.89", %"class.absl::optional.111", %"class.std::__1::vector.94", %"class.std::__1::vector.123", %class.GURL, %"class.base::Time", %"class.base::Time", %"class.base::Time", i32, [4 x i8], %"struct.web_app::WebApp::SyncFallbackData", %"class.std::__1::vector.130", i32, %"struct.web_app::WebApp::ClientData", [4 x i8], %class.GURL, %"class.absl::optional.30", i8, [7 x i8] }>
%"class.std::__1::bitset" = type { %"class.std::__1::__bitset" }
%"class.std::__1::__bitset" = type { i64 }
%"class.absl::optional.35" = type { %"class.absl::optional_internal::optional_data.36" }
%"class.absl::optional_internal::optional_data.36" = type { %"class.absl::optional_internal::optional_data_base.37" }
%"class.absl::optional_internal::optional_data_base.37" = type { %"class.absl::optional_internal::optional_data_dtor_base.38" }
%"class.absl::optional_internal::optional_data_dtor_base.38" = type { i8, %union.anon.39 }
%union.anon.39 = type { i32 }
%"class.std::__1::vector.40" = type { %"class.std::__1::__vector_base.41" }
%"class.std::__1::__vector_base.41" = type { i32*, i32*, %"class.std::__1::__compressed_pair.42" }
%"class.std::__1::__compressed_pair.42" = type { %"struct.std::__1::__compressed_pair_elem.43" }
%"struct.std::__1::__compressed_pair_elem.43" = type { i32* }
%"class.syncer::Ordinal" = type <{ %"class.std::__1::basic_string", i8, [7 x i8] }>
%"class.absl::optional.47" = type { %"class.absl::optional_internal::optional_data.48" }
%"class.absl::optional_internal::optional_data.48" = type { %"class.absl::optional_internal::optional_data_base.49" }
%"class.absl::optional_internal::optional_data_base.49" = type { %"class.absl::optional_internal::optional_data_dtor_base.50" }
%"class.absl::optional_internal::optional_data_dtor_base.50" = type { i8, %union.anon.51 }
%union.anon.51 = type { %"struct.web_app::WebAppChromeOsData" }
%"struct.web_app::WebAppChromeOsData" = type { i8, i8, i8, i8, i8 }
%"class.base::internal::flat_tree" = type { %"class.std::__1::vector.52" }
%"class.std::__1::vector.52" = type { %"class.std::__1::__vector_base.53" }
%"class.std::__1::__vector_base.53" = type { i32*, i32*, %"class.std::__1::__compressed_pair.54" }
%"class.std::__1::__compressed_pair.54" = type { %"struct.std::__1::__compressed_pair_elem.55" }
%"struct.std::__1::__compressed_pair_elem.55" = type { i32* }
%"class.std::__1::vector.59" = type { %"class.std::__1::__vector_base.60" }
%"class.std::__1::__vector_base.60" = type { %struct.WebApplicationShortcutsMenuItemInfo*, %struct.WebApplicationShortcutsMenuItemInfo*, %"class.std::__1::__compressed_pair.77" }
%struct.WebApplicationShortcutsMenuItemInfo = type { %"class.std::__1::basic_string.61", %class.GURL, %"class.std::__1::vector.70", %"class.std::__1::vector.70", %"class.std::__1::vector.70" }
%"class.std::__1::basic_string.61" = type { %"class.std::__1::__compressed_pair.62" }
%"class.std::__1::__compressed_pair.62" = type { %"struct.std::__1::__compressed_pair_elem.63" }
%"struct.std::__1::__compressed_pair_elem.63" = type { %"struct.std::__1::basic_string<char16_t, std::__1::char_traits<char16_t>, std::__1::allocator<char16_t> >::__rep" }
%"struct.std::__1::basic_string<char16_t, std::__1::char_traits<char16_t>, std::__1::allocator<char16_t> >::__rep" = type { %union.anon.64 }
%union.anon.64 = type { %"struct.std::__1::basic_string<char16_t, std::__1::char_traits<char16_t>, std::__1::allocator<char16_t> >::__long" }
%"struct.std::__1::basic_string<char16_t, std::__1::char_traits<char16_t>, std::__1::allocator<char16_t> >::__long" = type { i16*, i64, i64 }
%"class.std::__1::vector.70" = type { %"class.std::__1::__vector_base.71" }
%"class.std::__1::__vector_base.71" = type { %"struct.WebApplicationShortcutsMenuItemInfo::Icon"*, %"struct.WebApplicationShortcutsMenuItemInfo::Icon"*, %"class.std::__1::__compressed_pair.72" }
%"struct.WebApplicationShortcutsMenuItemInfo::Icon" = type <{ %class.GURL, i32, [4 x i8] }>
%"class.std::__1::__compressed_pair.72" = type { %"struct.std::__1::__compressed_pair_elem.73" }
%"struct.std::__1::__compressed_pair_elem.73" = type { %"struct.WebApplicationShortcutsMenuItemInfo::Icon"* }
%"class.std::__1::__compressed_pair.77" = type { %"struct.std::__1::__compressed_pair_elem.78" }
%"struct.std::__1::__compressed_pair_elem.78" = type { %struct.WebApplicationShortcutsMenuItemInfo* }
%"class.std::__1::vector.82" = type { %"class.std::__1::__vector_base.83" }
%"class.std::__1::__vector_base.83" = type { %struct.IconSizes*, %struct.IconSizes*, %"class.std::__1::__compressed_pair.84" }
%struct.IconSizes = type { %"class.std::__1::vector.52", %"class.std::__1::vector.52", %"class.std::__1::vector.52" }
%"class.std::__1::__compressed_pair.84" = type { %"struct.std::__1::__compressed_pair_elem.85" }
%"struct.std::__1::__compressed_pair_elem.85" = type { %struct.IconSizes* }
%"class.std::__1::vector.89" = type { %"class.std::__1::__vector_base.90" }
%"class.std::__1::__vector_base.90" = type { %"struct.apps::FileHandler"*, %"struct.apps::FileHandler"*, %"class.std::__1::__compressed_pair.106" }
%"struct.apps::FileHandler" = type { %class.GURL, %"class.std::__1::vector.91" }
%"class.std::__1::vector.91" = type { %"class.std::__1::__vector_base.92" }
%"class.std::__1::__vector_base.92" = type { %"struct.apps::FileHandler::AcceptEntry"*, %"struct.apps::FileHandler::AcceptEntry"*, %"class.std::__1::__compressed_pair.101" }
%"struct.apps::FileHandler::AcceptEntry" = type { %"class.std::__1::basic_string", %"class.base::internal::flat_tree.93" }
%"class.base::internal::flat_tree.93" = type { %"class.std::__1::vector.94" }
%"class.std::__1::__compressed_pair.101" = type { %"struct.std::__1::__compressed_pair_elem.102" }
%"struct.std::__1::__compressed_pair_elem.102" = type { %"struct.apps::FileHandler::AcceptEntry"* }
%"class.std::__1::__compressed_pair.106" = type { %"struct.std::__1::__compressed_pair_elem.107" }
%"struct.std::__1::__compressed_pair_elem.107" = type { %"struct.apps::FileHandler"* }
%"class.absl::optional.111" = type { %"class.absl::optional_internal::optional_data.112" }
%"class.absl::optional_internal::optional_data.112" = type { %"class.absl::optional_internal::optional_data_base.113" }
%"class.absl::optional_internal::optional_data_base.113" = type { %"class.absl::optional_internal::optional_data_dtor_base.114" }
%"class.absl::optional_internal::optional_data_dtor_base.114" = type { i8, %union.anon.115 }
%union.anon.115 = type { %"struct.apps::ShareTarget" }
%"struct.apps::ShareTarget" = type { %class.GURL, i32, i32, %"struct.apps::ShareTarget::Params" }
%"struct.apps::ShareTarget::Params" = type { %"class.std::__1::basic_string", %"class.std::__1::basic_string", %"class.std::__1::basic_string", %"class.std::__1::vector.116" }
%"class.std::__1::vector.116" = type { %"class.std::__1::__vector_base.117" }
%"class.std::__1::__vector_base.117" = type { %"struct.apps::ShareTarget::Files"*, %"struct.apps::ShareTarget::Files"*, %"class.std::__1::__compressed_pair.118" }
%"struct.apps::ShareTarget::Files" = type { %"class.std::__1::basic_string", %"class.std::__1::vector.94" }
%"class.std::__1::__compressed_pair.118" = type { %"struct.std::__1::__compressed_pair_elem.119" }
%"struct.std::__1::__compressed_pair_elem.119" = type { %"struct.apps::ShareTarget::Files"* }
%"class.std::__1::vector.94" = type { %"class.std::__1::__vector_base.95" }
%"class.std::__1::__vector_base.95" = type { %"class.std::__1::basic_string"*, %"class.std::__1::basic_string"*, %"class.std::__1::__compressed_pair.96" }
%"class.std::__1::__compressed_pair.96" = type { %"struct.std::__1::__compressed_pair_elem.97" }
%"struct.std::__1::__compressed_pair_elem.97" = type { %"class.std::__1::basic_string"* }
%"class.std::__1::vector.123" = type { %"class.std::__1::__vector_base.124" }
%"class.std::__1::__vector_base.124" = type { %"struct.apps::ProtocolHandlerInfo"*, %"struct.apps::ProtocolHandlerInfo"*, %"class.std::__1::__compressed_pair.125" }
%"struct.apps::ProtocolHandlerInfo" = type { %"class.std::__1::basic_string", %class.GURL }
%"class.std::__1::__compressed_pair.125" = type { %"struct.std::__1::__compressed_pair_elem.126" }
%"struct.std::__1::__compressed_pair_elem.126" = type { %"struct.apps::ProtocolHandlerInfo"* }
%"class.base::Time" = type { %"class.base::time_internal::TimeBase" }
%"class.base::time_internal::TimeBase" = type { i64 }
%"struct.web_app::WebApp::SyncFallbackData" = type { %"class.std::__1::basic_string", %"class.absl::optional.35", %class.GURL, %"class.std::__1::vector" }
%"class.std::__1::vector.130" = type { %"class.std::__1::__vector_base.131" }
%"class.std::__1::__vector_base.131" = type { %"struct.apps::UrlHandlerInfo"*, %"struct.apps::UrlHandlerInfo"*, %"class.std::__1::__compressed_pair.137" }
%"struct.apps::UrlHandlerInfo" = type { %"class.url::Origin", i8, %"class.std::__1::vector.94", %"class.std::__1::vector.94" }
%"class.url::Origin" = type { %"class.url::SchemeHostPort", %"class.absl::optional.132" }
%"class.url::SchemeHostPort" = type <{ %"class.std::__1::basic_string", %"class.std::__1::basic_string", i16, [6 x i8] }>
%"class.absl::optional.132" = type { %"class.absl::optional_internal::optional_data.133" }
%"class.absl::optional_internal::optional_data.133" = type { %"class.absl::optional_internal::optional_data_base.134" }
%"class.absl::optional_internal::optional_data_base.134" = type { %"class.absl::optional_internal::optional_data_dtor_base.135" }
%"class.absl::optional_internal::optional_data_dtor_base.135" = type { i8, %union.anon.136 }
%union.anon.136 = type { %"class.url::Origin::Nonce" }
%"class.url::Origin::Nonce" = type { %"class.base::UnguessableToken" }
%"class.base::UnguessableToken" = type { %"class.base::Token" }
%"class.base::Token" = type { i64, i64 }
%"class.std::__1::__compressed_pair.137" = type { %"struct.std::__1::__compressed_pair_elem.138" }
%"struct.std::__1::__compressed_pair_elem.138" = type { %"struct.apps::UrlHandlerInfo"* }
%"struct.web_app::WebApp::ClientData" = type { %"class.absl::optional.142" }
%"class.absl::optional.142" = type { %"class.absl::optional_internal::optional_data.143" }
%"class.absl::optional_internal::optional_data.143" = type { %"class.absl::optional_internal::optional_data_base.144" }
%"class.absl::optional_internal::optional_data_base.144" = type { %"class.absl::optional_internal::optional_data_dtor_base.145" }
%"class.absl::optional_internal::optional_data_dtor_base.145" = type { i8, %union.anon.146 }
%union.anon.146 = type { %"struct.web_app::WebAppSystemWebAppData" }
%"struct.web_app::WebAppSystemWebAppData" = type { i32 }
%"class.absl::optional.30" = type { %"class.absl::optional_internal::optional_data.31" }
%"class.absl::optional_internal::optional_data.31" = type { %"class.absl::optional_internal::optional_data_base.32" }
%"class.absl::optional_internal::optional_data_base.32" = type { %"class.absl::optional_internal::optional_data_dtor_base.33" }
%"class.absl::optional_internal::optional_data_dtor_base.33" = type { i8, %union.anon.34 }
%union.anon.34 = type { %"class.std::__1::basic_string" }
%"class.logging::CheckError" = type { %"class.logging::LogMessage"* }
%"class.logging::LogMessage" = type { i32 (...)**, i32, %"class.std::__1::basic_ostringstream", i64, i8*, i32, %"class.base::ScopedClearLastErrorBase" }
%"class.std::__1::basic_ostringstream" = type { %"class.std::__1::basic_ostream.base", %"class.std::__1::basic_stringbuf", %"class.std::__1::basic_ios.base" }
%"class.std::__1::basic_ostream.base" = type { i32 (...)** }
%"class.std::__1::basic_stringbuf" = type <{ %"class.std::__1::basic_streambuf", %"class.std::__1::basic_string", i8*, i32, [4 x i8] }>
%"class.std::__1::basic_streambuf" = type { i32 (...)**, %"class.std::__1::locale", i8*, i8*, i8*, i8*, i8*, i8* }
%"class.std::__1::locale" = type { %"class.std::__1::locale::__imp"* }
%"class.std::__1::locale::__imp" = type opaque
%"class.std::__1::basic_ios.base" = type <{ %"class.std::__1::ios_base", %"class.std::__1::basic_ostream"*, i32 }>
%"class.std::__1::ios_base" = type { i32 (...)**, i32, i64, i64, i32, i32, i8*, i8*, void (i32, %"class.std::__1::ios_base"*, i32)**, i32*, i64, i64, i64*, i64, i64, i8**, i64, i64 }
%"class.std::__1::basic_ostream" = type { i32 (...)**, %"class.std::__1::basic_ios.base" }
%"class.base::ScopedClearLastErrorBase" = type { i32 }
%"struct.google::protobuf::internal::InternalMetadata::ContainerBase" = type { %"class.google::protobuf::Arena"* }
%"class.absl::optional.147" = type { %"class.absl::optional_internal::optional_data.148" }
%"class.absl::optional_internal::optional_data.148" = type { %"class.absl::optional_internal::optional_data_base.149" }
%"class.absl::optional_internal::optional_data_base.149" = type { %"class.absl::optional_internal::optional_data_dtor_base.150" }
%"class.absl::optional_internal::optional_data_dtor_base.150" = type { i8, %union.anon.151 }
%union.anon.151 = type { %"struct.web_app::WebApp::SyncFallbackData" }
%"class.std::__1::__vector_base_common" = type { i8 }

$_ZN6google8protobuf8internal14ArenaStringPtr14CreateInstanceEPNS0_5ArenaEPKNSt3__112basic_stringIcNS5_11char_traitsIcEENS5_9allocatorIcEEEE = comdat any

$_ZN6google8protobuf8internal21arena_destruct_objectINSt3__112basic_stringIcNS3_11char_traitsIcEENS3_9allocatorIcEEEEEEvPv = comdat any

$_ZNSt3__16vectorI22WebApplicationIconInfoNS_9allocatorIS1_EEE21__push_back_slow_pathIS1_EEvOT_ = comdat any

$_ZN6google8protobuf8internal18GenericTypeHandlerIN7sync_pb14WebAppIconInfoEE5MergeERKS4_PS4_ = comdat any

@_ZN6google8protobuf8internal26fixed_address_empty_stringE = external global %"class.google::protobuf::internal::ExplicitlyConstructed", align 8
@.str.4 = private unnamed_addr constant [37 x i8] c"../../components/sync/base/ordinal.h\00", align 1
@.str.5 = private unnamed_addr constant [10 x i8] c"IsValid()\00", align 1
@switch.table._ZN7web_app25WebAppIconInfoToSyncProtoERK22WebApplicationIconInfo = private unnamed_addr constant [3 x i32] [i32 1, i32 3, i32 2], align 4

; Function Attrs: nounwind ssp uwtable
define hidden void @_ZN7web_app20ParseWebAppIconInfosEPKcN6google8protobuf16RepeatedPtrFieldIN7sync_pb14WebAppIconInfoEEE(%"class.absl::optional"* noalias nocapture sret, i8* nocapture readnone, %"class.google::protobuf::RepeatedPtrField"* nocapture readonly) local_unnamed_addr #0 {
  %4 = alloca %"class.std::__1::vector", align 16
  %5 = alloca %struct.WebApplicationIconInfo, align 8
  %6 = alloca %class.GURL, align 8
  %7 = bitcast %"class.std::__1::vector"* %4 to i8*
  call void @llvm.lifetime.start.p0i8(i64 24, i8* nonnull %7) #10
  %8 = getelementptr inbounds %"class.std::__1::vector", %"class.std::__1::vector"* %4, i64 0, i32 0, i32 0
  %9 = getelementptr inbounds %"class.std::__1::vector", %"class.std::__1::vector"* %4, i64 0, i32 0, i32 1
  %10 = getelementptr inbounds %"class.std::__1::vector", %"class.std::__1::vector"* %4, i64 0, i32 0, i32 2, i32 0, i32 0
  call void @llvm.memset.p0i8.i64(i8* nonnull align 16 %7, i8 0, i64 24, i1 false) #10
  %11 = getelementptr inbounds %"class.google::protobuf::RepeatedPtrField", %"class.google::protobuf::RepeatedPtrField"* %2, i64 0, i32 0, i32 3
  %12 = load %"struct.google::protobuf::internal::RepeatedPtrFieldBase::Rep"*, %"struct.google::protobuf::internal::RepeatedPtrFieldBase::Rep"** %11, align 8
  %13 = icmp eq %"struct.google::protobuf::internal::RepeatedPtrFieldBase::Rep"* %12, null
  %14 = getelementptr inbounds %"struct.google::protobuf::internal::RepeatedPtrFieldBase::Rep", %"struct.google::protobuf::internal::RepeatedPtrFieldBase::Rep"* %12, i64 0, i32 1, i64 0
  %15 = select i1 %13, i8** null, i8** %14
  %16 = getelementptr inbounds %"class.google::protobuf::RepeatedPtrField", %"class.google::protobuf::RepeatedPtrField"* %2, i64 0, i32 0, i32 1
  %17 = load i32, i32* %16, align 8
  %18 = sext i32 %17 to i64
  %19 = getelementptr inbounds i8*, i8** %15, i64 %18
  %20 = icmp eq i32 %17, 0
  br i1 %20, label %106, label %21

21:                                               ; preds = %3
  %22 = bitcast %struct.WebApplicationIconInfo* %5 to i8*
  %23 = getelementptr inbounds %struct.WebApplicationIconInfo, %struct.WebApplicationIconInfo* %5, i64 0, i32 1, i32 0, i32 0, i32 0, i32 0
  %24 = bitcast i8* %23 to i64*
  %25 = bitcast %class.GURL* %6 to i8*
  %26 = getelementptr inbounds %struct.WebApplicationIconInfo, %struct.WebApplicationIconInfo* %5, i64 0, i32 0
  %27 = getelementptr inbounds %struct.WebApplicationIconInfo, %struct.WebApplicationIconInfo* %5, i64 0, i32 0, i32 1
  %28 = getelementptr inbounds %struct.WebApplicationIconInfo, %struct.WebApplicationIconInfo* %5, i64 0, i32 2
  %29 = bitcast %struct.WebApplicationIconInfo** %9 to i64*
  br label %30

30:                                               ; preds = %21, %98
  %31 = phi i8** [ %15, %21 ], [ %99, %98 ]
  %32 = bitcast i8** %31 to %"class.sync_pb::WebAppIconInfo"**
  %33 = load %"class.sync_pb::WebAppIconInfo"*, %"class.sync_pb::WebAppIconInfo"** %32, align 8
  call void @llvm.lifetime.start.p0i8(i64 136, i8* nonnull %22) #10
  call void @llvm.memset.p0i8.i64(i8* nonnull align 8 %22, i8 -86, i64 136, i1 false)
  call void @_ZN22WebApplicationIconInfoC1Ev(%struct.WebApplicationIconInfo* nonnull %5) #10
  %34 = getelementptr inbounds %"class.sync_pb::WebAppIconInfo", %"class.sync_pb::WebAppIconInfo"* %33, i64 0, i32 1, i32 0, i64 0
  %35 = load i32, i32* %34, align 4
  %36 = and i32 %35, 2
  %37 = icmp eq i32 %36, 0
  br i1 %37, label %45, label %38

38:                                               ; preds = %30
  %39 = getelementptr inbounds %"class.sync_pb::WebAppIconInfo", %"class.sync_pb::WebAppIconInfo"* %33, i64 0, i32 4
  %40 = load i32, i32* %39, align 8
  %41 = zext i32 %40 to i64
  %42 = shl nuw i64 %41, 32
  %43 = or i64 %42, 1
  store i64 %43, i64* %24, align 8
  %44 = load i32, i32* %34, align 4
  br label %45

45:                                               ; preds = %30, %38
  %46 = phi i32 [ %35, %30 ], [ %44, %38 ]
  %47 = and i32 %46, 1
  %48 = icmp eq i32 %47, 0
  br i1 %48, label %49, label %53

49:                                               ; preds = %45
  %50 = getelementptr inbounds %"class.absl::optional", %"class.absl::optional"* %0, i64 0, i32 0, i32 0, i32 0, i32 0
  store i8 0, i8* %50, align 8
  %51 = getelementptr inbounds %"class.absl::optional", %"class.absl::optional"* %0, i64 0, i32 0, i32 0, i32 0, i32 1
  %52 = bitcast %union.anon* %51 to i8*
  call void @llvm.memset.p0i8.i64(i8* align 8 %52, i8 0, i64 24, i1 false) #10
  call void @_ZN22WebApplicationIconInfoD1Ev(%struct.WebApplicationIconInfo* nonnull %5) #10
  call void @llvm.lifetime.end.p0i8(i64 136, i8* nonnull %22) #10
  br label %114

53:                                               ; preds = %45
  call void @llvm.lifetime.start.p0i8(i64 120, i8* nonnull %25) #10
  %54 = getelementptr inbounds %"class.sync_pb::WebAppIconInfo", %"class.sync_pb::WebAppIconInfo"* %33, i64 0, i32 3, i32 0
  %55 = load %"class.std::__1::basic_string"*, %"class.std::__1::basic_string"** %54, align 8
  %56 = bitcast %"class.std::__1::basic_string"* %55 to %"struct.std::__1::basic_string<char, std::__1::char_traits<char>, std::__1::allocator<char> >::__short"*
  %57 = getelementptr inbounds %"struct.std::__1::basic_string<char, std::__1::char_traits<char>, std::__1::allocator<char> >::__short", %"struct.std::__1::basic_string<char, std::__1::char_traits<char>, std::__1::allocator<char> >::__short"* %56, i64 0, i32 1, i32 0
  %58 = load i8, i8* %57, align 1
  %59 = icmp slt i8 %58, 0
  %60 = getelementptr inbounds %"class.std::__1::basic_string", %"class.std::__1::basic_string"* %55, i64 0, i32 0, i32 0, i32 0, i32 0, i32 0, i32 0
  %61 = load i8*, i8** %60, align 8
  %62 = bitcast %"class.std::__1::basic_string"* %55 to i8*
  %63 = select i1 %59, i8* %61, i8* %62
  %64 = getelementptr inbounds %"class.std::__1::basic_string", %"class.std::__1::basic_string"* %55, i64 0, i32 0, i32 0, i32 0, i32 0, i32 0, i32 1
  %65 = load i64, i64* %64, align 8
  %66 = zext i8 %58 to i64
  %67 = select i1 %59, i64 %65, i64 %66
  call void @_ZN4GURLC1EN4base16BasicStringPieceIcNSt3__111char_traitsIcEEEE(%class.GURL* nonnull %6, i8* %63, i64 %67) #10
  %68 = call dereferenceable(120) %class.GURL* @_ZN4GURLaSEOS_(%class.GURL* nonnull %26, %class.GURL* nonnull dereferenceable(120) %6) #10
  call void @_ZN4GURLD1Ev(%class.GURL* nonnull %6) #10
  call void @llvm.lifetime.end.p0i8(i64 120, i8* nonnull %25) #10
  %69 = load i8, i8* %27, align 8, !range !2
  %70 = icmp eq i8 %69, 0
  br i1 %70, label %71, label %75

71:                                               ; preds = %53
  %72 = getelementptr inbounds %"class.absl::optional", %"class.absl::optional"* %0, i64 0, i32 0, i32 0, i32 0, i32 0
  store i8 0, i8* %72, align 8
  %73 = getelementptr inbounds %"class.absl::optional", %"class.absl::optional"* %0, i64 0, i32 0, i32 0, i32 0, i32 1
  %74 = bitcast %union.anon* %73 to i8*
  call void @llvm.memset.p0i8.i64(i8* align 8 %74, i8 0, i64 24, i1 false) #10
  call void @_ZN22WebApplicationIconInfoD1Ev(%struct.WebApplicationIconInfo* nonnull %5) #10
  call void @llvm.lifetime.end.p0i8(i64 136, i8* nonnull %22) #10
  br label %114

75:                                               ; preds = %53
  %76 = load i32, i32* %34, align 4
  %77 = and i32 %76, 4
  %78 = icmp eq i32 %77, 0
  br i1 %78, label %89, label %79

79:                                               ; preds = %75
  %80 = getelementptr inbounds %"class.sync_pb::WebAppIconInfo", %"class.sync_pb::WebAppIconInfo"* %33, i64 0, i32 5
  %81 = load i32, i32* %80, align 4
  switch i32 %81, label %84 [
    i32 0, label %85
    i32 1, label %89
    i32 2, label %82
    i32 3, label %83
  ]

82:                                               ; preds = %79
  br label %89

83:                                               ; preds = %79
  br label %89

84:                                               ; preds = %79
  unreachable

85:                                               ; preds = %79
  %86 = getelementptr inbounds %"class.absl::optional", %"class.absl::optional"* %0, i64 0, i32 0, i32 0, i32 0, i32 0
  store i8 0, i8* %86, align 8
  %87 = getelementptr inbounds %"class.absl::optional", %"class.absl::optional"* %0, i64 0, i32 0, i32 0, i32 0, i32 1
  %88 = bitcast %union.anon* %87 to i8*
  call void @llvm.memset.p0i8.i64(i8* align 8 %88, i8 0, i64 24, i1 false) #10
  call void @_ZN22WebApplicationIconInfoD1Ev(%struct.WebApplicationIconInfo* nonnull %5) #10
  call void @llvm.lifetime.end.p0i8(i64 136, i8* nonnull %22) #10
  br label %114

89:                                               ; preds = %79, %75, %82, %83
  %90 = phi i32 [ 2, %82 ], [ 1, %83 ], [ 0, %75 ], [ 0, %79 ]
  store i32 %90, i32* %28, align 8
  %91 = load %struct.WebApplicationIconInfo*, %struct.WebApplicationIconInfo** %9, align 8
  %92 = load %struct.WebApplicationIconInfo*, %struct.WebApplicationIconInfo** %10, align 16
  %93 = icmp ult %struct.WebApplicationIconInfo* %91, %92
  br i1 %93, label %94, label %97

94:                                               ; preds = %89
  call void @_ZN22WebApplicationIconInfoC1EOS_(%struct.WebApplicationIconInfo* %91, %struct.WebApplicationIconInfo* nonnull dereferenceable(136) %5) #10
  %95 = getelementptr inbounds %struct.WebApplicationIconInfo, %struct.WebApplicationIconInfo* %91, i64 1
  %96 = ptrtoint %struct.WebApplicationIconInfo* %95 to i64
  store i64 %96, i64* %29, align 8
  br label %98

97:                                               ; preds = %89
  call void @_ZNSt3__16vectorI22WebApplicationIconInfoNS_9allocatorIS1_EEE21__push_back_slow_pathIS1_EEvOT_(%"class.std::__1::vector"* nonnull %4, %struct.WebApplicationIconInfo* nonnull dereferenceable(136) %5) #10
  br label %98

98:                                               ; preds = %97, %94
  call void @_ZN22WebApplicationIconInfoD1Ev(%struct.WebApplicationIconInfo* nonnull %5) #10
  call void @llvm.lifetime.end.p0i8(i64 136, i8* nonnull %22) #10
  %99 = getelementptr inbounds i8*, i8** %31, i64 1
  %100 = icmp eq i8** %99, %19
  br i1 %100, label %101, label %30

101:                                              ; preds = %98
  %102 = bitcast %"class.std::__1::vector"* %4 to <2 x i64>*
  %103 = load <2 x i64>, <2 x i64>* %102, align 16
  %104 = bitcast %struct.WebApplicationIconInfo** %10 to i64*
  %105 = load i64, i64* %104, align 16
  br label %106

106:                                              ; preds = %3, %101
  %107 = phi i64 [ %105, %101 ], [ 0, %3 ]
  %108 = phi <2 x i64> [ %103, %101 ], [ zeroinitializer, %3 ]
  %109 = getelementptr inbounds %"class.absl::optional", %"class.absl::optional"* %0, i64 0, i32 0, i32 0, i32 0, i32 0
  store i8 1, i8* %109, align 8
  %110 = getelementptr inbounds %"class.absl::optional", %"class.absl::optional"* %0, i64 0, i32 0, i32 0, i32 0, i32 1, i32 0
  %111 = bitcast %"class.std::__1::vector"* %110 to <2 x i64>*
  store <2 x i64> %108, <2 x i64>* %111, align 8
  %112 = getelementptr inbounds %"class.absl::optional", %"class.absl::optional"* %0, i64 0, i32 0, i32 0, i32 0, i32 1, i32 0, i32 0, i32 2, i32 0, i32 0
  %113 = bitcast %struct.WebApplicationIconInfo** %112 to i64*
  store i64 %107, i64* %113, align 8
  call void @llvm.memset.p0i8.i64(i8* nonnull align 16 %7, i8 0, i64 24, i1 false) #10
  br label %114

114:                                              ; preds = %49, %71, %85, %106
  %115 = load %struct.WebApplicationIconInfo*, %struct.WebApplicationIconInfo** %8, align 16
  %116 = icmp eq %struct.WebApplicationIconInfo* %115, null
  br i1 %116, label %130, label %117

117:                                              ; preds = %114
  %118 = bitcast %struct.WebApplicationIconInfo* %115 to i8*
  %119 = load %struct.WebApplicationIconInfo*, %struct.WebApplicationIconInfo** %9, align 8
  %120 = icmp eq %struct.WebApplicationIconInfo* %119, %115
  br i1 %120, label %128, label %121

121:                                              ; preds = %117, %121
  %122 = phi %struct.WebApplicationIconInfo* [ %123, %121 ], [ %119, %117 ]
  %123 = getelementptr inbounds %struct.WebApplicationIconInfo, %struct.WebApplicationIconInfo* %122, i64 -1
  call void @_ZN22WebApplicationIconInfoD1Ev(%struct.WebApplicationIconInfo* %123) #10
  %124 = icmp eq %struct.WebApplicationIconInfo* %123, %115
  br i1 %124, label %125, label %121

125:                                              ; preds = %121
  %126 = bitcast %"class.std::__1::vector"* %4 to i8**
  %127 = load i8*, i8** %126, align 16
  br label %128

128:                                              ; preds = %125, %117
  %129 = phi i8* [ %127, %125 ], [ %118, %117 ]
  store %struct.WebApplicationIconInfo* %115, %struct.WebApplicationIconInfo** %9, align 8
  call void @_ZdlPv(i8* %129) #11
  br label %130

130:                                              ; preds = %114, %128
  call void @llvm.lifetime.end.p0i8(i64 24, i8* nonnull %7) #10
  ret void
}

; Function Attrs: argmemonly nounwind
declare void @llvm.lifetime.start.p0i8(i64 immarg, i8* nocapture) #1

; Function Attrs: argmemonly nounwind
declare void @llvm.memset.p0i8.i64(i8* nocapture writeonly, i8, i64, i1 immarg) #1

declare void @_ZN22WebApplicationIconInfoC1Ev(%struct.WebApplicationIconInfo*) unnamed_addr #2

; Function Attrs: argmemonly nounwind
declare void @llvm.memcpy.p0i8.p0i8.i64(i8* nocapture writeonly, i8* nocapture readonly, i64, i1 immarg) #1

; Function Attrs: argmemonly nounwind
declare void @llvm.lifetime.end.p0i8(i64 immarg, i8* nocapture) #1

declare void @_ZN4GURLC1EN4base16BasicStringPieceIcNSt3__111char_traitsIcEEEE(%class.GURL*, i8*, i64) unnamed_addr #2

; Function Attrs: nounwind
declare dereferenceable(120) %class.GURL* @_ZN4GURLaSEOS_(%class.GURL*, %class.GURL* dereferenceable(120)) local_unnamed_addr #3

; Function Attrs: nounwind
declare void @_ZN4GURLD1Ev(%class.GURL*) unnamed_addr #3

; Function Attrs: nounwind
declare void @_ZN22WebApplicationIconInfoD1Ev(%struct.WebApplicationIconInfo*) unnamed_addr #3

; Function Attrs: nounwind ssp uwtable
define hidden void @_ZN7web_app17WebAppToSyncProtoERKNS_6WebAppE(%"class.sync_pb::WebAppSpecifics"* noalias sret, %"class.web_app::WebApp"* dereferenceable(1464)) local_unnamed_addr #0 {
  %3 = alloca %"class.logging::CheckError", align 8
  %4 = alloca %"class.logging::CheckError", align 8
  %5 = alloca %"class.syncer::Ordinal", align 8
  %6 = alloca %"class.std::__1::basic_string", align 8
  %7 = alloca %"class.syncer::Ordinal", align 8
  %8 = alloca %"class.syncer::Ordinal", align 8
  %9 = alloca %"class.std::__1::basic_string", align 8
  %10 = alloca %"class.syncer::Ordinal", align 8
  %11 = alloca %"class.sync_pb::WebAppIconInfo", align 8
  %12 = bitcast %"class.sync_pb::WebAppSpecifics"* %0 to i8*
  tail call void @llvm.memset.p0i8.i64(i8* align 8 %12, i8 -86, i64 104, i1 false)
  tail call void @_ZN7sync_pb15WebAppSpecificsC2EPN6google8protobuf5ArenaE(%"class.sync_pb::WebAppSpecifics"* %0, %"class.google::protobuf::Arena"* null) #10
  %13 = getelementptr inbounds %"class.web_app::WebApp", %"class.web_app::WebApp"* %1, i64 0, i32 43, i32 0, i32 0, i32 0, i32 0
  %14 = load i8, i8* %13, align 8, !range !2
  %15 = icmp eq i8 %14, 0
  br i1 %15, label %71, label %16

16:                                               ; preds = %2
  %17 = getelementptr inbounds %"class.web_app::WebApp", %"class.web_app::WebApp"* %1, i64 0, i32 43, i32 0, i32 0, i32 0, i32 1, i32 0
  %18 = getelementptr inbounds %"class.sync_pb::WebAppSpecifics", %"class.sync_pb::WebAppSpecifics"* %0, i64 0, i32 1, i32 0, i64 0
  %19 = load i32, i32* %18, align 8
  %20 = or i32 %19, 32
  store i32 %20, i32* %18, align 8
  %21 = getelementptr inbounds %"class.sync_pb::WebAppSpecifics", %"class.sync_pb::WebAppSpecifics"* %0, i64 0, i32 9
  %22 = getelementptr inbounds %"class.sync_pb::WebAppSpecifics", %"class.sync_pb::WebAppSpecifics"* %0, i64 0, i32 0, i32 1
  %23 = bitcast %"class.google::protobuf::internal::InternalMetadata"* %22 to i64*
  %24 = load i64, i64* %23, align 8
  %25 = and i64 %24, 1
  %26 = icmp eq i64 %25, 0
  %27 = and i64 %24, -2
  br i1 %26, label %32, label %28, !prof !3

28:                                               ; preds = %16
  %29 = inttoptr i64 %27 to %"struct.google::protobuf::internal::InternalMetadata::ContainerBase"*
  %30 = getelementptr inbounds %"struct.google::protobuf::internal::InternalMetadata::ContainerBase", %"struct.google::protobuf::internal::InternalMetadata::ContainerBase"* %29, i64 0, i32 0
  %31 = load %"class.google::protobuf::Arena"*, %"class.google::protobuf::Arena"** %30, align 8
  br label %34

32:                                               ; preds = %16
  %33 = inttoptr i64 %27 to %"class.google::protobuf::Arena"*
  br label %34

34:                                               ; preds = %32, %28
  %35 = phi %"class.google::protobuf::Arena"* [ %31, %28 ], [ %33, %32 ]
  %36 = getelementptr inbounds %"struct.google::protobuf::internal::ArenaStringPtr", %"struct.google::protobuf::internal::ArenaStringPtr"* %21, i64 0, i32 0
  %37 = load %"class.std::__1::basic_string"*, %"class.std::__1::basic_string"** %36, align 8
  %38 = icmp eq %"class.std::__1::basic_string"* %37, bitcast (%"class.google::protobuf::internal::ExplicitlyConstructed"* @_ZN6google8protobuf8internal26fixed_address_empty_stringE to %"class.std::__1::basic_string"*)
  br i1 %38, label %39, label %40

39:                                               ; preds = %34
  tail call void @_ZN6google8protobuf8internal14ArenaStringPtr14CreateInstanceEPNS0_5ArenaEPKNSt3__112basic_stringIcNS5_11char_traitsIcEENS5_9allocatorIcEEEE(%"struct.google::protobuf::internal::ArenaStringPtr"* %21, %"class.google::protobuf::Arena"* %35, %"class.std::__1::basic_string"* %17) #10
  br label %71

40:                                               ; preds = %34
  %41 = icmp eq %"class.std::__1::basic_string"* %37, %17
  br i1 %41, label %71, label %42

42:                                               ; preds = %40
  %43 = bitcast %"class.std::__1::basic_string"* %37 to %"struct.std::__1::basic_string<char, std::__1::char_traits<char>, std::__1::allocator<char> >::__short"*
  %44 = getelementptr inbounds %"struct.std::__1::basic_string<char, std::__1::char_traits<char>, std::__1::allocator<char> >::__short", %"struct.std::__1::basic_string<char, std::__1::char_traits<char>, std::__1::allocator<char> >::__short"* %43, i64 0, i32 1, i32 0
  %45 = load i8, i8* %44, align 1
  %46 = icmp slt i8 %45, 0
  %47 = bitcast %"class.std::__1::basic_string"* %17 to %"struct.std::__1::basic_string<char, std::__1::char_traits<char>, std::__1::allocator<char> >::__short"*
  %48 = getelementptr inbounds %"struct.std::__1::basic_string<char, std::__1::char_traits<char>, std::__1::allocator<char> >::__short", %"struct.std::__1::basic_string<char, std::__1::char_traits<char>, std::__1::allocator<char> >::__short"* %47, i64 0, i32 1, i32 0
  %49 = load i8, i8* %48, align 1
  %50 = icmp slt i8 %49, 0
  br i1 %46, label %61, label %51

51:                                               ; preds = %42
  br i1 %50, label %55, label %52

52:                                               ; preds = %51
  %53 = bitcast %"class.std::__1::basic_string"* %37 to i8*
  %54 = bitcast %"class.std::__1::basic_string"* %17 to i8*
  tail call void @llvm.memcpy.p0i8.p0i8.i64(i8* align 8 %53, i8* align 8 %54, i64 24, i1 false) #10
  br label %71

55:                                               ; preds = %51
  %56 = getelementptr inbounds %"class.std::__1::basic_string", %"class.std::__1::basic_string"* %17, i64 0, i32 0, i32 0, i32 0, i32 0, i32 0, i32 0
  %57 = load i8*, i8** %56, align 8
  %58 = getelementptr inbounds %"class.web_app::WebApp", %"class.web_app::WebApp"* %1, i64 0, i32 43, i32 0, i32 0, i32 0, i32 1, i32 0, i32 0, i32 0, i32 0, i32 0, i32 0, i32 1
  %59 = load i64, i64* %58, align 8
  %60 = tail call dereferenceable(24) %"class.std::__1::basic_string"* @_ZNSt3__112basic_stringIcNS_11char_traitsIcEENS_9allocatorIcEEE17__assign_no_aliasILb1EEERS5_PKcm(%"class.std::__1::basic_string"* %37, i8* %57, i64 %59) #10
  br label %71

61:                                               ; preds = %42
  %62 = getelementptr inbounds %"class.std::__1::basic_string", %"class.std::__1::basic_string"* %17, i64 0, i32 0, i32 0, i32 0, i32 0, i32 0, i32 0
  %63 = load i8*, i8** %62, align 8
  %64 = getelementptr inbounds %"class.web_app::WebApp", %"class.web_app::WebApp"* %1, i64 0, i32 43, i32 0, i32 0, i32 0, i32 1, i32 0, i32 0, i32 0, i32 0, i32 0, i32 0, i32 1
  %65 = load i64, i64* %64, align 8
  %66 = bitcast %"class.std::__1::basic_string"* %17 to i8*
  %67 = zext i8 %49 to i64
  %68 = select i1 %50, i8* %63, i8* %66
  %69 = select i1 %50, i64 %65, i64 %67
  %70 = tail call dereferenceable(24) %"class.std::__1::basic_string"* @_ZNSt3__112basic_stringIcNS_11char_traitsIcEENS_9allocatorIcEEE17__assign_no_aliasILb0EEERS5_PKcm(%"class.std::__1::basic_string"* %37, i8* %68, i64 %69) #10
  br label %71

71:                                               ; preds = %2, %61, %55, %52, %40, %39
  %72 = getelementptr inbounds %"class.web_app::WebApp", %"class.web_app::WebApp"* %1, i64 0, i32 4
  %73 = tail call dereferenceable(24) %"class.std::__1::basic_string"* @_ZNK4GURL4specEv(%class.GURL* %72) #10
  %74 = getelementptr inbounds %"class.sync_pb::WebAppSpecifics", %"class.sync_pb::WebAppSpecifics"* %0, i64 0, i32 1, i32 0, i64 0
  %75 = load i32, i32* %74, align 8
  %76 = or i32 %75, 1
  store i32 %76, i32* %74, align 8
  %77 = getelementptr inbounds %"class.sync_pb::WebAppSpecifics", %"class.sync_pb::WebAppSpecifics"* %0, i64 0, i32 4
  %78 = getelementptr inbounds %"class.sync_pb::WebAppSpecifics", %"class.sync_pb::WebAppSpecifics"* %0, i64 0, i32 0, i32 1
  %79 = bitcast %"class.google::protobuf::internal::InternalMetadata"* %78 to i64*
  %80 = load i64, i64* %79, align 8
  %81 = and i64 %80, 1
  %82 = icmp eq i64 %81, 0
  %83 = and i64 %80, -2
  br i1 %82, label %88, label %84, !prof !3

84:                                               ; preds = %71
  %85 = inttoptr i64 %83 to %"struct.google::protobuf::internal::InternalMetadata::ContainerBase"*
  %86 = getelementptr inbounds %"struct.google::protobuf::internal::InternalMetadata::ContainerBase", %"struct.google::protobuf::internal::InternalMetadata::ContainerBase"* %85, i64 0, i32 0
  %87 = load %"class.google::protobuf::Arena"*, %"class.google::protobuf::Arena"** %86, align 8
  br label %90

88:                                               ; preds = %71
  %89 = inttoptr i64 %83 to %"class.google::protobuf::Arena"*
  br label %90

90:                                               ; preds = %88, %84
  %91 = phi %"class.google::protobuf::Arena"* [ %87, %84 ], [ %89, %88 ]
  %92 = getelementptr inbounds %"struct.google::protobuf::internal::ArenaStringPtr", %"struct.google::protobuf::internal::ArenaStringPtr"* %77, i64 0, i32 0
  %93 = load %"class.std::__1::basic_string"*, %"class.std::__1::basic_string"** %92, align 8
  %94 = icmp eq %"class.std::__1::basic_string"* %93, bitcast (%"class.google::protobuf::internal::ExplicitlyConstructed"* @_ZN6google8protobuf8internal26fixed_address_empty_stringE to %"class.std::__1::basic_string"*)
  br i1 %94, label %95, label %96

95:                                               ; preds = %90
  tail call void @_ZN6google8protobuf8internal14ArenaStringPtr14CreateInstanceEPNS0_5ArenaEPKNSt3__112basic_stringIcNS5_11char_traitsIcEENS5_9allocatorIcEEEE(%"struct.google::protobuf::internal::ArenaStringPtr"* %77, %"class.google::protobuf::Arena"* %91, %"class.std::__1::basic_string"* %73) #10
  br label %127

96:                                               ; preds = %90
  %97 = icmp eq %"class.std::__1::basic_string"* %93, %73
  br i1 %97, label %127, label %98

98:                                               ; preds = %96
  %99 = bitcast %"class.std::__1::basic_string"* %93 to %"struct.std::__1::basic_string<char, std::__1::char_traits<char>, std::__1::allocator<char> >::__short"*
  %100 = getelementptr inbounds %"struct.std::__1::basic_string<char, std::__1::char_traits<char>, std::__1::allocator<char> >::__short", %"struct.std::__1::basic_string<char, std::__1::char_traits<char>, std::__1::allocator<char> >::__short"* %99, i64 0, i32 1, i32 0
  %101 = load i8, i8* %100, align 1
  %102 = icmp slt i8 %101, 0
  %103 = bitcast %"class.std::__1::basic_string"* %73 to %"struct.std::__1::basic_string<char, std::__1::char_traits<char>, std::__1::allocator<char> >::__short"*
  %104 = getelementptr inbounds %"struct.std::__1::basic_string<char, std::__1::char_traits<char>, std::__1::allocator<char> >::__short", %"struct.std::__1::basic_string<char, std::__1::char_traits<char>, std::__1::allocator<char> >::__short"* %103, i64 0, i32 1, i32 0
  %105 = load i8, i8* %104, align 1
  %106 = icmp slt i8 %105, 0
  br i1 %102, label %117, label %107

107:                                              ; preds = %98
  br i1 %106, label %111, label %108

108:                                              ; preds = %107
  %109 = bitcast %"class.std::__1::basic_string"* %93 to i8*
  %110 = bitcast %"class.std::__1::basic_string"* %73 to i8*
  tail call void @llvm.memcpy.p0i8.p0i8.i64(i8* align 8 %109, i8* align 8 %110, i64 24, i1 false) #10
  br label %127

111:                                              ; preds = %107
  %112 = getelementptr inbounds %"class.std::__1::basic_string", %"class.std::__1::basic_string"* %73, i64 0, i32 0, i32 0, i32 0, i32 0, i32 0, i32 0
  %113 = load i8*, i8** %112, align 8
  %114 = getelementptr inbounds %"class.std::__1::basic_string", %"class.std::__1::basic_string"* %73, i64 0, i32 0, i32 0, i32 0, i32 0, i32 0, i32 1
  %115 = load i64, i64* %114, align 8
  %116 = tail call dereferenceable(24) %"class.std::__1::basic_string"* @_ZNSt3__112basic_stringIcNS_11char_traitsIcEENS_9allocatorIcEEE17__assign_no_aliasILb1EEERS5_PKcm(%"class.std::__1::basic_string"* %93, i8* %113, i64 %115) #10
  br label %127

117:                                              ; preds = %98
  %118 = getelementptr inbounds %"class.std::__1::basic_string", %"class.std::__1::basic_string"* %73, i64 0, i32 0, i32 0, i32 0, i32 0, i32 0, i32 0
  %119 = load i8*, i8** %118, align 8
  %120 = getelementptr inbounds %"class.std::__1::basic_string", %"class.std::__1::basic_string"* %73, i64 0, i32 0, i32 0, i32 0, i32 0, i32 0, i32 1
  %121 = load i64, i64* %120, align 8
  %122 = bitcast %"class.std::__1::basic_string"* %73 to i8*
  %123 = zext i8 %105 to i64
  %124 = select i1 %106, i8* %119, i8* %122
  %125 = select i1 %106, i64 %121, i64 %123
  %126 = tail call dereferenceable(24) %"class.std::__1::basic_string"* @_ZNSt3__112basic_stringIcNS_11char_traitsIcEENS_9allocatorIcEEE17__assign_no_aliasILb0EEERS5_PKcm(%"class.std::__1::basic_string"* %93, i8* %124, i64 %125) #10
  br label %127

127:                                              ; preds = %95, %96, %108, %111, %117
  %128 = getelementptr inbounds %"class.web_app::WebApp", %"class.web_app::WebApp"* %1, i64 0, i32 10
  %129 = load i32, i32* %128, align 4
  %130 = icmp eq i32 %129, 1
  %131 = select i1 %130, i32 1, i32 3
  %132 = load i32, i32* %74, align 8
  %133 = getelementptr inbounds %"class.sync_pb::WebAppSpecifics", %"class.sync_pb::WebAppSpecifics"* %0, i64 0, i32 10
  store i32 %131, i32* %133, align 8
  %134 = getelementptr inbounds %"class.web_app::WebApp", %"class.web_app::WebApp"* %1, i64 0, i32 37
  %135 = getelementptr inbounds %"struct.web_app::WebApp::SyncFallbackData", %"struct.web_app::WebApp::SyncFallbackData"* %134, i64 0, i32 0
  %136 = or i32 %132, 66
  store i32 %136, i32* %74, align 8
  %137 = getelementptr inbounds %"class.sync_pb::WebAppSpecifics", %"class.sync_pb::WebAppSpecifics"* %0, i64 0, i32 5
  %138 = load i64, i64* %79, align 8
  %139 = and i64 %138, 1
  %140 = icmp eq i64 %139, 0
  %141 = and i64 %138, -2
  br i1 %140, label %146, label %142, !prof !3

142:                                              ; preds = %127
  %143 = inttoptr i64 %141 to %"struct.google::protobuf::internal::InternalMetadata::ContainerBase"*
  %144 = getelementptr inbounds %"struct.google::protobuf::internal::InternalMetadata::ContainerBase", %"struct.google::protobuf::internal::InternalMetadata::ContainerBase"* %143, i64 0, i32 0
  %145 = load %"class.google::protobuf::Arena"*, %"class.google::protobuf::Arena"** %144, align 8
  br label %148

146:                                              ; preds = %127
  %147 = inttoptr i64 %141 to %"class.google::protobuf::Arena"*
  br label %148

148:                                              ; preds = %146, %142
  %149 = phi %"class.google::protobuf::Arena"* [ %145, %142 ], [ %147, %146 ]
  %150 = getelementptr inbounds %"struct.google::protobuf::internal::ArenaStringPtr", %"struct.google::protobuf::internal::ArenaStringPtr"* %137, i64 0, i32 0
  %151 = load %"class.std::__1::basic_string"*, %"class.std::__1::basic_string"** %150, align 8
  %152 = icmp eq %"class.std::__1::basic_string"* %151, bitcast (%"class.google::protobuf::internal::ExplicitlyConstructed"* @_ZN6google8protobuf8internal26fixed_address_empty_stringE to %"class.std::__1::basic_string"*)
  br i1 %152, label %153, label %154

153:                                              ; preds = %148
  tail call void @_ZN6google8protobuf8internal14ArenaStringPtr14CreateInstanceEPNS0_5ArenaEPKNSt3__112basic_stringIcNS5_11char_traitsIcEENS5_9allocatorIcEEEE(%"struct.google::protobuf::internal::ArenaStringPtr"* %137, %"class.google::protobuf::Arena"* %149, %"class.std::__1::basic_string"* %135) #10
  br label %185

154:                                              ; preds = %148
  %155 = icmp eq %"class.std::__1::basic_string"* %151, %135
  br i1 %155, label %185, label %156

156:                                              ; preds = %154
  %157 = bitcast %"class.std::__1::basic_string"* %151 to %"struct.std::__1::basic_string<char, std::__1::char_traits<char>, std::__1::allocator<char> >::__short"*
  %158 = getelementptr inbounds %"struct.std::__1::basic_string<char, std::__1::char_traits<char>, std::__1::allocator<char> >::__short", %"struct.std::__1::basic_string<char, std::__1::char_traits<char>, std::__1::allocator<char> >::__short"* %157, i64 0, i32 1, i32 0
  %159 = load i8, i8* %158, align 1
  %160 = icmp slt i8 %159, 0
  %161 = bitcast %"struct.web_app::WebApp::SyncFallbackData"* %134 to %"struct.std::__1::basic_string<char, std::__1::char_traits<char>, std::__1::allocator<char> >::__short"*
  %162 = getelementptr inbounds %"struct.std::__1::basic_string<char, std::__1::char_traits<char>, std::__1::allocator<char> >::__short", %"struct.std::__1::basic_string<char, std::__1::char_traits<char>, std::__1::allocator<char> >::__short"* %161, i64 0, i32 1, i32 0
  %163 = load i8, i8* %162, align 1
  %164 = icmp slt i8 %163, 0
  br i1 %160, label %175, label %165

165:                                              ; preds = %156
  br i1 %164, label %169, label %166

166:                                              ; preds = %165
  %167 = bitcast %"class.std::__1::basic_string"* %151 to i8*
  %168 = bitcast %"struct.web_app::WebApp::SyncFallbackData"* %134 to i8*
  tail call void @llvm.memcpy.p0i8.p0i8.i64(i8* align 8 %167, i8* align 8 %168, i64 24, i1 false) #10
  br label %185

169:                                              ; preds = %165
  %170 = getelementptr inbounds %"struct.web_app::WebApp::SyncFallbackData", %"struct.web_app::WebApp::SyncFallbackData"* %134, i64 0, i32 0, i32 0, i32 0, i32 0, i32 0, i32 0, i32 0
  %171 = load i8*, i8** %170, align 8
  %172 = getelementptr inbounds %"class.web_app::WebApp", %"class.web_app::WebApp"* %1, i64 0, i32 37, i32 0, i32 0, i32 0, i32 0, i32 0, i32 0, i32 1
  %173 = load i64, i64* %172, align 8
  %174 = tail call dereferenceable(24) %"class.std::__1::basic_string"* @_ZNSt3__112basic_stringIcNS_11char_traitsIcEENS_9allocatorIcEEE17__assign_no_aliasILb1EEERS5_PKcm(%"class.std::__1::basic_string"* %151, i8* %171, i64 %173) #10
  br label %185

175:                                              ; preds = %156
  %176 = getelementptr inbounds %"struct.web_app::WebApp::SyncFallbackData", %"struct.web_app::WebApp::SyncFallbackData"* %134, i64 0, i32 0, i32 0, i32 0, i32 0, i32 0, i32 0, i32 0
  %177 = load i8*, i8** %176, align 8
  %178 = getelementptr inbounds %"class.web_app::WebApp", %"class.web_app::WebApp"* %1, i64 0, i32 37, i32 0, i32 0, i32 0, i32 0, i32 0, i32 0, i32 1
  %179 = load i64, i64* %178, align 8
  %180 = bitcast %"struct.web_app::WebApp::SyncFallbackData"* %134 to i8*
  %181 = zext i8 %163 to i64
  %182 = select i1 %164, i8* %177, i8* %180
  %183 = select i1 %164, i64 %179, i64 %181
  %184 = tail call dereferenceable(24) %"class.std::__1::basic_string"* @_ZNSt3__112basic_stringIcNS_11char_traitsIcEENS_9allocatorIcEEE17__assign_no_aliasILb0EEERS5_PKcm(%"class.std::__1::basic_string"* %151, i8* %182, i64 %183) #10
  br label %185

185:                                              ; preds = %153, %154, %166, %169, %175
  %186 = getelementptr inbounds %"class.web_app::WebApp", %"class.web_app::WebApp"* %1, i64 0, i32 37, i32 1, i32 0, i32 0, i32 0, i32 0
  %187 = load i8, i8* %186, align 4, !range !2
  %188 = icmp eq i8 %187, 0
  br i1 %188, label %195, label %189

189:                                              ; preds = %185
  %190 = getelementptr inbounds %"class.web_app::WebApp", %"class.web_app::WebApp"* %1, i64 0, i32 37, i32 1, i32 0, i32 0, i32 0, i32 1, i32 0
  %191 = load i32, i32* %190, align 4
  %192 = load i32, i32* %74, align 8
  %193 = or i32 %192, 128
  store i32 %193, i32* %74, align 8
  %194 = getelementptr inbounds %"class.sync_pb::WebAppSpecifics", %"class.sync_pb::WebAppSpecifics"* %0, i64 0, i32 11
  store i32 %191, i32* %194, align 4
  br label %195

195:                                              ; preds = %185, %189
  %196 = bitcast %"class.syncer::Ordinal"* %5 to i8*
  call void @llvm.lifetime.start.p0i8(i64 32, i8* nonnull %196) #10
  %197 = getelementptr inbounds %"class.web_app::WebApp", %"class.web_app::WebApp"* %1, i64 0, i32 12
  %198 = bitcast %"class.syncer::Ordinal"* %197 to %"struct.std::__1::basic_string<char, std::__1::char_traits<char>, std::__1::allocator<char> >::__short"*
  %199 = getelementptr inbounds %"struct.std::__1::basic_string<char, std::__1::char_traits<char>, std::__1::allocator<char> >::__short", %"struct.std::__1::basic_string<char, std::__1::char_traits<char>, std::__1::allocator<char> >::__short"* %198, i64 0, i32 1, i32 0
  %200 = load i8, i8* %199, align 1, !noalias !4
  %201 = icmp slt i8 %200, 0
  br i1 %201, label %204, label %202

202:                                              ; preds = %195
  %203 = bitcast %"class.syncer::Ordinal"* %197 to i8*
  call void @llvm.memcpy.p0i8.p0i8.i64(i8* nonnull align 8 %196, i8* align 8 %203, i64 24, i1 false) #10
  br label %210

204:                                              ; preds = %195
  %205 = getelementptr inbounds %"class.syncer::Ordinal", %"class.syncer::Ordinal"* %5, i64 0, i32 0
  %206 = getelementptr inbounds %"class.syncer::Ordinal", %"class.syncer::Ordinal"* %197, i64 0, i32 0, i32 0, i32 0, i32 0, i32 0, i32 0, i32 0
  %207 = load i8*, i8** %206, align 8, !noalias !4
  %208 = getelementptr inbounds %"class.web_app::WebApp", %"class.web_app::WebApp"* %1, i64 0, i32 12, i32 0, i32 0, i32 0, i32 0, i32 0, i32 0, i32 1
  %209 = load i64, i64* %208, align 8, !noalias !4
  call void @_ZNSt3__112basic_stringIcNS_11char_traitsIcEENS_9allocatorIcEEE25__init_copy_ctor_externalEPKcm(%"class.std::__1::basic_string"* nonnull %205, i8* %207, i64 %209) #10
  br label %210

210:                                              ; preds = %202, %204
  %211 = getelementptr inbounds %"class.syncer::Ordinal", %"class.syncer::Ordinal"* %5, i64 0, i32 1
  %212 = getelementptr inbounds %"class.web_app::WebApp", %"class.web_app::WebApp"* %1, i64 0, i32 12, i32 1
  %213 = load i8, i8* %212, align 8, !range !2, !noalias !4
  store i8 %213, i8* %211, align 8, !alias.scope !4
  %214 = icmp eq i8 %213, 0
  %215 = bitcast %"class.syncer::Ordinal"* %5 to %"struct.std::__1::basic_string<char, std::__1::char_traits<char>, std::__1::allocator<char> >::__short"*
  %216 = getelementptr inbounds %"struct.std::__1::basic_string<char, std::__1::char_traits<char>, std::__1::allocator<char> >::__short", %"struct.std::__1::basic_string<char, std::__1::char_traits<char>, std::__1::allocator<char> >::__short"* %215, i64 0, i32 1, i32 0
  %217 = load i8, i8* %216, align 1
  %218 = icmp slt i8 %217, 0
  br i1 %218, label %219, label %222

219:                                              ; preds = %210
  %220 = getelementptr inbounds %"class.syncer::Ordinal", %"class.syncer::Ordinal"* %5, i64 0, i32 0, i32 0, i32 0, i32 0, i32 0, i32 0, i32 0
  %221 = load i8*, i8** %220, align 8
  call void @_ZdlPv(i8* %221) #11
  br label %222

222:                                              ; preds = %210, %219
  call void @llvm.lifetime.end.p0i8(i64 32, i8* nonnull %196) #10
  br i1 %214, label %318, label %223

223:                                              ; preds = %222
  %224 = bitcast %"class.std::__1::basic_string"* %6 to i8*
  call void @llvm.lifetime.start.p0i8(i64 24, i8* nonnull %224) #10
  %225 = bitcast %"class.syncer::Ordinal"* %7 to i8*
  call void @llvm.lifetime.start.p0i8(i64 32, i8* nonnull %225) #10
  %226 = load i8, i8* %199, align 1, !noalias !7
  %227 = icmp slt i8 %226, 0
  br i1 %227, label %230, label %228

228:                                              ; preds = %223
  %229 = bitcast %"class.syncer::Ordinal"* %197 to i8*
  call void @llvm.memcpy.p0i8.p0i8.i64(i8* nonnull align 8 %225, i8* align 8 %229, i64 24, i1 false) #10
  br label %236

230:                                              ; preds = %223
  %231 = getelementptr inbounds %"class.syncer::Ordinal", %"class.syncer::Ordinal"* %7, i64 0, i32 0
  %232 = getelementptr inbounds %"class.syncer::Ordinal", %"class.syncer::Ordinal"* %197, i64 0, i32 0, i32 0, i32 0, i32 0, i32 0, i32 0, i32 0
  %233 = load i8*, i8** %232, align 8, !noalias !7
  %234 = getelementptr inbounds %"class.web_app::WebApp", %"class.web_app::WebApp"* %1, i64 0, i32 12, i32 0, i32 0, i32 0, i32 0, i32 0, i32 0, i32 1
  %235 = load i64, i64* %234, align 8, !noalias !7
  call void @_ZNSt3__112basic_stringIcNS_11char_traitsIcEENS_9allocatorIcEEE25__init_copy_ctor_externalEPKcm(%"class.std::__1::basic_string"* nonnull %231, i8* %233, i64 %235) #10
  br label %236

236:                                              ; preds = %228, %230
  %237 = getelementptr inbounds %"class.syncer::Ordinal", %"class.syncer::Ordinal"* %7, i64 0, i32 1
  %238 = load i8, i8* %212, align 8, !range !2, !noalias !7
  store i8 %238, i8* %237, align 8, !alias.scope !7
  %239 = icmp eq i8 %238, 0
  br i1 %239, label %240, label %243

240:                                              ; preds = %236
  %241 = bitcast %"class.logging::CheckError"* %4 to i8*
  call void @llvm.lifetime.start.p0i8(i64 8, i8* nonnull %241) #10, !noalias !10
  call void @_ZN7logging10CheckError5CheckEPKciS2_(%"class.logging::CheckError"* nonnull sret %4, i8* getelementptr inbounds ([37 x i8], [37 x i8]* @.str.4, i64 0, i64 0), i32 367, i8* getelementptr inbounds ([10 x i8], [10 x i8]* @.str.5, i64 0, i64 0)) #10
  %242 = call dereferenceable(160) %"class.std::__1::basic_ostream"* @_ZN7logging10CheckError6streamEv(%"class.logging::CheckError"* nonnull %4) #10
  call void @_ZN7logging10CheckErrorD1Ev(%"class.logging::CheckError"* nonnull %4) #10
  call void @llvm.lifetime.end.p0i8(i64 8, i8* nonnull %241) #10, !noalias !10
  br label %243

243:                                              ; preds = %240, %236
  %244 = bitcast %"class.syncer::Ordinal"* %7 to %"struct.std::__1::basic_string<char, std::__1::char_traits<char>, std::__1::allocator<char> >::__short"*
  %245 = getelementptr inbounds %"struct.std::__1::basic_string<char, std::__1::char_traits<char>, std::__1::allocator<char> >::__short", %"struct.std::__1::basic_string<char, std::__1::char_traits<char>, std::__1::allocator<char> >::__short"* %244, i64 0, i32 1, i32 0
  %246 = load i8, i8* %245, align 1, !noalias !10
  %247 = icmp slt i8 %246, 0
  br i1 %247, label %249, label %248

248:                                              ; preds = %243
  call void @llvm.memcpy.p0i8.p0i8.i64(i8* nonnull align 8 %224, i8* nonnull align 8 %225, i64 24, i1 false) #10
  br label %254

249:                                              ; preds = %243
  %250 = getelementptr inbounds %"class.syncer::Ordinal", %"class.syncer::Ordinal"* %7, i64 0, i32 0, i32 0, i32 0, i32 0, i32 0, i32 0, i32 0
  %251 = load i8*, i8** %250, align 8, !noalias !10
  %252 = getelementptr inbounds %"class.syncer::Ordinal", %"class.syncer::Ordinal"* %7, i64 0, i32 0, i32 0, i32 0, i32 0, i32 0, i32 0, i32 1
  %253 = load i64, i64* %252, align 8, !noalias !10
  call void @_ZNSt3__112basic_stringIcNS_11char_traitsIcEENS_9allocatorIcEEE25__init_copy_ctor_externalEPKcm(%"class.std::__1::basic_string"* nonnull %6, i8* %251, i64 %253) #10
  br label %254

254:                                              ; preds = %248, %249
  %255 = load i32, i32* %74, align 8
  %256 = or i32 %255, 8
  store i32 %256, i32* %74, align 8
  %257 = getelementptr inbounds %"class.sync_pb::WebAppSpecifics", %"class.sync_pb::WebAppSpecifics"* %0, i64 0, i32 7
  %258 = load i64, i64* %79, align 8
  %259 = and i64 %258, 1
  %260 = icmp eq i64 %259, 0
  %261 = and i64 %258, -2
  br i1 %260, label %266, label %262, !prof !3

262:                                              ; preds = %254
  %263 = inttoptr i64 %261 to %"struct.google::protobuf::internal::InternalMetadata::ContainerBase"*
  %264 = getelementptr inbounds %"struct.google::protobuf::internal::InternalMetadata::ContainerBase", %"struct.google::protobuf::internal::InternalMetadata::ContainerBase"* %263, i64 0, i32 0
  %265 = load %"class.google::protobuf::Arena"*, %"class.google::protobuf::Arena"** %264, align 8
  br label %268

266:                                              ; preds = %254
  %267 = inttoptr i64 %261 to %"class.google::protobuf::Arena"*
  br label %268

268:                                              ; preds = %266, %262
  %269 = phi %"class.google::protobuf::Arena"* [ %265, %262 ], [ %267, %266 ]
  %270 = getelementptr inbounds %"struct.google::protobuf::internal::ArenaStringPtr", %"struct.google::protobuf::internal::ArenaStringPtr"* %257, i64 0, i32 0
  %271 = load %"class.std::__1::basic_string"*, %"class.std::__1::basic_string"** %270, align 8
  %272 = icmp eq %"class.std::__1::basic_string"* %271, bitcast (%"class.google::protobuf::internal::ExplicitlyConstructed"* @_ZN6google8protobuf8internal26fixed_address_empty_stringE to %"class.std::__1::basic_string"*)
  br i1 %272, label %273, label %274

273:                                              ; preds = %268
  call void @_ZN6google8protobuf8internal14ArenaStringPtr14CreateInstanceEPNS0_5ArenaEPKNSt3__112basic_stringIcNS5_11char_traitsIcEENS5_9allocatorIcEEEE(%"struct.google::protobuf::internal::ArenaStringPtr"* %257, %"class.google::protobuf::Arena"* %269, %"class.std::__1::basic_string"* nonnull %6) #10
  br label %303

274:                                              ; preds = %268
  %275 = icmp eq %"class.std::__1::basic_string"* %271, %6
  br i1 %275, label %303, label %276

276:                                              ; preds = %274
  %277 = bitcast %"class.std::__1::basic_string"* %271 to %"struct.std::__1::basic_string<char, std::__1::char_traits<char>, std::__1::allocator<char> >::__short"*
  %278 = getelementptr inbounds %"struct.std::__1::basic_string<char, std::__1::char_traits<char>, std::__1::allocator<char> >::__short", %"struct.std::__1::basic_string<char, std::__1::char_traits<char>, std::__1::allocator<char> >::__short"* %277, i64 0, i32 1, i32 0
  %279 = load i8, i8* %278, align 1
  %280 = icmp slt i8 %279, 0
  %281 = bitcast %"class.std::__1::basic_string"* %6 to %"struct.std::__1::basic_string<char, std::__1::char_traits<char>, std::__1::allocator<char> >::__short"*
  %282 = getelementptr inbounds %"struct.std::__1::basic_string<char, std::__1::char_traits<char>, std::__1::allocator<char> >::__short", %"struct.std::__1::basic_string<char, std::__1::char_traits<char>, std::__1::allocator<char> >::__short"* %281, i64 0, i32 1, i32 0
  %283 = load i8, i8* %282, align 1
  %284 = icmp slt i8 %283, 0
  br i1 %280, label %294, label %285

285:                                              ; preds = %276
  br i1 %284, label %288, label %286

286:                                              ; preds = %285
  %287 = bitcast %"class.std::__1::basic_string"* %271 to i8*
  call void @llvm.memcpy.p0i8.p0i8.i64(i8* align 8 %287, i8* nonnull align 8 %224, i64 24, i1 false) #10
  br label %303

288:                                              ; preds = %285
  %289 = getelementptr inbounds %"class.std::__1::basic_string", %"class.std::__1::basic_string"* %6, i64 0, i32 0, i32 0, i32 0, i32 0, i32 0, i32 0
  %290 = load i8*, i8** %289, align 8
  %291 = getelementptr inbounds %"class.std::__1::basic_string", %"class.std::__1::basic_string"* %6, i64 0, i32 0, i32 0, i32 0, i32 0, i32 0, i32 1
  %292 = load i64, i64* %291, align 8
  %293 = call dereferenceable(24) %"class.std::__1::basic_string"* @_ZNSt3__112basic_stringIcNS_11char_traitsIcEENS_9allocatorIcEEE17__assign_no_aliasILb1EEERS5_PKcm(%"class.std::__1::basic_string"* %271, i8* %290, i64 %292) #10
  br label %303

294:                                              ; preds = %276
  %295 = getelementptr inbounds %"class.std::__1::basic_string", %"class.std::__1::basic_string"* %6, i64 0, i32 0, i32 0, i32 0, i32 0, i32 0, i32 0
  %296 = load i8*, i8** %295, align 8
  %297 = getelementptr inbounds %"class.std::__1::basic_string", %"class.std::__1::basic_string"* %6, i64 0, i32 0, i32 0, i32 0, i32 0, i32 0, i32 1
  %298 = load i64, i64* %297, align 8
  %299 = zext i8 %283 to i64
  %300 = select i1 %284, i8* %296, i8* %224
  %301 = select i1 %284, i64 %298, i64 %299
  %302 = call dereferenceable(24) %"class.std::__1::basic_string"* @_ZNSt3__112basic_stringIcNS_11char_traitsIcEENS_9allocatorIcEEE17__assign_no_aliasILb0EEERS5_PKcm(%"class.std::__1::basic_string"* %271, i8* %300, i64 %301) #10
  br label %303

303:                                              ; preds = %273, %274, %286, %288, %294
  %304 = bitcast %"class.std::__1::basic_string"* %6 to %"struct.std::__1::basic_string<char, std::__1::char_traits<char>, std::__1::allocator<char> >::__short"*
  %305 = getelementptr inbounds %"struct.std::__1::basic_string<char, std::__1::char_traits<char>, std::__1::allocator<char> >::__short", %"struct.std::__1::basic_string<char, std::__1::char_traits<char>, std::__1::allocator<char> >::__short"* %304, i64 0, i32 1, i32 0
  %306 = load i8, i8* %305, align 1
  %307 = icmp slt i8 %306, 0
  br i1 %307, label %308, label %311

308:                                              ; preds = %303
  %309 = getelementptr inbounds %"class.std::__1::basic_string", %"class.std::__1::basic_string"* %6, i64 0, i32 0, i32 0, i32 0, i32 0, i32 0, i32 0
  %310 = load i8*, i8** %309, align 8
  call void @_ZdlPv(i8* %310) #11
  br label %311

311:                                              ; preds = %303, %308
  %312 = load i8, i8* %245, align 1
  %313 = icmp slt i8 %312, 0
  br i1 %313, label %314, label %317

314:                                              ; preds = %311
  %315 = getelementptr inbounds %"class.syncer::Ordinal", %"class.syncer::Ordinal"* %7, i64 0, i32 0, i32 0, i32 0, i32 0, i32 0, i32 0, i32 0
  %316 = load i8*, i8** %315, align 8
  call void @_ZdlPv(i8* %316) #11
  br label %317

317:                                              ; preds = %311, %314
  call void @llvm.lifetime.end.p0i8(i64 32, i8* nonnull %225) #10
  call void @llvm.lifetime.end.p0i8(i64 24, i8* nonnull %224) #10
  br label %318

318:                                              ; preds = %222, %317
  %319 = bitcast %"class.syncer::Ordinal"* %8 to i8*
  call void @llvm.lifetime.start.p0i8(i64 32, i8* nonnull %319) #10
  %320 = getelementptr inbounds %"class.web_app::WebApp", %"class.web_app::WebApp"* %1, i64 0, i32 13
  %321 = bitcast %"class.syncer::Ordinal"* %320 to %"struct.std::__1::basic_string<char, std::__1::char_traits<char>, std::__1::allocator<char> >::__short"*
  %322 = getelementptr inbounds %"struct.std::__1::basic_string<char, std::__1::char_traits<char>, std::__1::allocator<char> >::__short", %"struct.std::__1::basic_string<char, std::__1::char_traits<char>, std::__1::allocator<char> >::__short"* %321, i64 0, i32 1, i32 0
  %323 = load i8, i8* %322, align 1, !noalias !13
  %324 = icmp slt i8 %323, 0
  br i1 %324, label %327, label %325

325:                                              ; preds = %318
  %326 = bitcast %"class.syncer::Ordinal"* %320 to i8*
  call void @llvm.memcpy.p0i8.p0i8.i64(i8* nonnull align 8 %319, i8* align 8 %326, i64 24, i1 false) #10
  br label %333

327:                                              ; preds = %318
  %328 = getelementptr inbounds %"class.syncer::Ordinal", %"class.syncer::Ordinal"* %8, i64 0, i32 0
  %329 = getelementptr inbounds %"class.syncer::Ordinal", %"class.syncer::Ordinal"* %320, i64 0, i32 0, i32 0, i32 0, i32 0, i32 0, i32 0, i32 0
  %330 = load i8*, i8** %329, align 8, !noalias !13
  %331 = getelementptr inbounds %"class.web_app::WebApp", %"class.web_app::WebApp"* %1, i64 0, i32 13, i32 0, i32 0, i32 0, i32 0, i32 0, i32 0, i32 1
  %332 = load i64, i64* %331, align 8, !noalias !13
  call void @_ZNSt3__112basic_stringIcNS_11char_traitsIcEENS_9allocatorIcEEE25__init_copy_ctor_externalEPKcm(%"class.std::__1::basic_string"* nonnull %328, i8* %330, i64 %332) #10
  br label %333

333:                                              ; preds = %325, %327
  %334 = getelementptr inbounds %"class.syncer::Ordinal", %"class.syncer::Ordinal"* %8, i64 0, i32 1
  %335 = getelementptr inbounds %"class.web_app::WebApp", %"class.web_app::WebApp"* %1, i64 0, i32 13, i32 1
  %336 = load i8, i8* %335, align 8, !range !2, !noalias !13
  store i8 %336, i8* %334, align 8, !alias.scope !13
  %337 = icmp eq i8 %336, 0
  %338 = bitcast %"class.syncer::Ordinal"* %8 to %"struct.std::__1::basic_string<char, std::__1::char_traits<char>, std::__1::allocator<char> >::__short"*
  %339 = getelementptr inbounds %"struct.std::__1::basic_string<char, std::__1::char_traits<char>, std::__1::allocator<char> >::__short", %"struct.std::__1::basic_string<char, std::__1::char_traits<char>, std::__1::allocator<char> >::__short"* %338, i64 0, i32 1, i32 0
  %340 = load i8, i8* %339, align 1
  %341 = icmp slt i8 %340, 0
  br i1 %341, label %342, label %345

342:                                              ; preds = %333
  %343 = getelementptr inbounds %"class.syncer::Ordinal", %"class.syncer::Ordinal"* %8, i64 0, i32 0, i32 0, i32 0, i32 0, i32 0, i32 0, i32 0
  %344 = load i8*, i8** %343, align 8
  call void @_ZdlPv(i8* %344) #11
  br label %345

345:                                              ; preds = %333, %342
  call void @llvm.lifetime.end.p0i8(i64 32, i8* nonnull %319) #10
  br i1 %337, label %441, label %346

346:                                              ; preds = %345
  %347 = bitcast %"class.std::__1::basic_string"* %9 to i8*
  call void @llvm.lifetime.start.p0i8(i64 24, i8* nonnull %347) #10
  %348 = bitcast %"class.syncer::Ordinal"* %10 to i8*
  call void @llvm.lifetime.start.p0i8(i64 32, i8* nonnull %348) #10
  %349 = load i8, i8* %322, align 1, !noalias !16
  %350 = icmp slt i8 %349, 0
  br i1 %350, label %353, label %351

351:                                              ; preds = %346
  %352 = bitcast %"class.syncer::Ordinal"* %320 to i8*
  call void @llvm.memcpy.p0i8.p0i8.i64(i8* nonnull align 8 %348, i8* align 8 %352, i64 24, i1 false) #10
  br label %359

353:                                              ; preds = %346
  %354 = getelementptr inbounds %"class.syncer::Ordinal", %"class.syncer::Ordinal"* %10, i64 0, i32 0
  %355 = getelementptr inbounds %"class.syncer::Ordinal", %"class.syncer::Ordinal"* %320, i64 0, i32 0, i32 0, i32 0, i32 0, i32 0, i32 0, i32 0
  %356 = load i8*, i8** %355, align 8, !noalias !16
  %357 = getelementptr inbounds %"class.web_app::WebApp", %"class.web_app::WebApp"* %1, i64 0, i32 13, i32 0, i32 0, i32 0, i32 0, i32 0, i32 0, i32 1
  %358 = load i64, i64* %357, align 8, !noalias !16
  call void @_ZNSt3__112basic_stringIcNS_11char_traitsIcEENS_9allocatorIcEEE25__init_copy_ctor_externalEPKcm(%"class.std::__1::basic_string"* nonnull %354, i8* %356, i64 %358) #10
  br label %359

359:                                              ; preds = %351, %353
  %360 = getelementptr inbounds %"class.syncer::Ordinal", %"class.syncer::Ordinal"* %10, i64 0, i32 1
  %361 = load i8, i8* %335, align 8, !range !2, !noalias !16
  store i8 %361, i8* %360, align 8, !alias.scope !16
  %362 = icmp eq i8 %361, 0
  br i1 %362, label %363, label %366

363:                                              ; preds = %359
  %364 = bitcast %"class.logging::CheckError"* %3 to i8*
  call void @llvm.lifetime.start.p0i8(i64 8, i8* nonnull %364) #10, !noalias !19
  call void @_ZN7logging10CheckError5CheckEPKciS2_(%"class.logging::CheckError"* nonnull sret %3, i8* getelementptr inbounds ([37 x i8], [37 x i8]* @.str.4, i64 0, i64 0), i32 367, i8* getelementptr inbounds ([10 x i8], [10 x i8]* @.str.5, i64 0, i64 0)) #10
  %365 = call dereferenceable(160) %"class.std::__1::basic_ostream"* @_ZN7logging10CheckError6streamEv(%"class.logging::CheckError"* nonnull %3) #10
  call void @_ZN7logging10CheckErrorD1Ev(%"class.logging::CheckError"* nonnull %3) #10
  call void @llvm.lifetime.end.p0i8(i64 8, i8* nonnull %364) #10, !noalias !19
  br label %366

366:                                              ; preds = %363, %359
  %367 = bitcast %"class.syncer::Ordinal"* %10 to %"struct.std::__1::basic_string<char, std::__1::char_traits<char>, std::__1::allocator<char> >::__short"*
  %368 = getelementptr inbounds %"struct.std::__1::basic_string<char, std::__1::char_traits<char>, std::__1::allocator<char> >::__short", %"struct.std::__1::basic_string<char, std::__1::char_traits<char>, std::__1::allocator<char> >::__short"* %367, i64 0, i32 1, i32 0
  %369 = load i8, i8* %368, align 1, !noalias !19
  %370 = icmp slt i8 %369, 0
  br i1 %370, label %372, label %371

371:                                              ; preds = %366
  call void @llvm.memcpy.p0i8.p0i8.i64(i8* nonnull align 8 %347, i8* nonnull align 8 %348, i64 24, i1 false) #10
  br label %377

372:                                              ; preds = %366
  %373 = getelementptr inbounds %"class.syncer::Ordinal", %"class.syncer::Ordinal"* %10, i64 0, i32 0, i32 0, i32 0, i32 0, i32 0, i32 0, i32 0
  %374 = load i8*, i8** %373, align 8, !noalias !19
  %375 = getelementptr inbounds %"class.syncer::Ordinal", %"class.syncer::Ordinal"* %10, i64 0, i32 0, i32 0, i32 0, i32 0, i32 0, i32 0, i32 1
  %376 = load i64, i64* %375, align 8, !noalias !19
  call void @_ZNSt3__112basic_stringIcNS_11char_traitsIcEENS_9allocatorIcEEE25__init_copy_ctor_externalEPKcm(%"class.std::__1::basic_string"* nonnull %9, i8* %374, i64 %376) #10
  br label %377

377:                                              ; preds = %371, %372
  %378 = load i32, i32* %74, align 8
  %379 = or i32 %378, 16
  store i32 %379, i32* %74, align 8
  %380 = getelementptr inbounds %"class.sync_pb::WebAppSpecifics", %"class.sync_pb::WebAppSpecifics"* %0, i64 0, i32 8
  %381 = load i64, i64* %79, align 8
  %382 = and i64 %381, 1
  %383 = icmp eq i64 %382, 0
  %384 = and i64 %381, -2
  br i1 %383, label %389, label %385, !prof !3

385:                                              ; preds = %377
  %386 = inttoptr i64 %384 to %"struct.google::protobuf::internal::InternalMetadata::ContainerBase"*
  %387 = getelementptr inbounds %"struct.google::protobuf::internal::InternalMetadata::ContainerBase", %"struct.google::protobuf::internal::InternalMetadata::ContainerBase"* %386, i64 0, i32 0
  %388 = load %"class.google::protobuf::Arena"*, %"class.google::protobuf::Arena"** %387, align 8
  br label %391

389:                                              ; preds = %377
  %390 = inttoptr i64 %384 to %"class.google::protobuf::Arena"*
  br label %391

391:                                              ; preds = %389, %385
  %392 = phi %"class.google::protobuf::Arena"* [ %388, %385 ], [ %390, %389 ]
  %393 = getelementptr inbounds %"struct.google::protobuf::internal::ArenaStringPtr", %"struct.google::protobuf::internal::ArenaStringPtr"* %380, i64 0, i32 0
  %394 = load %"class.std::__1::basic_string"*, %"class.std::__1::basic_string"** %393, align 8
  %395 = icmp eq %"class.std::__1::basic_string"* %394, bitcast (%"class.google::protobuf::internal::ExplicitlyConstructed"* @_ZN6google8protobuf8internal26fixed_address_empty_stringE to %"class.std::__1::basic_string"*)
  br i1 %395, label %396, label %397

396:                                              ; preds = %391
  call void @_ZN6google8protobuf8internal14ArenaStringPtr14CreateInstanceEPNS0_5ArenaEPKNSt3__112basic_stringIcNS5_11char_traitsIcEENS5_9allocatorIcEEEE(%"struct.google::protobuf::internal::ArenaStringPtr"* %380, %"class.google::protobuf::Arena"* %392, %"class.std::__1::basic_string"* nonnull %9) #10
  br label %426

397:                                              ; preds = %391
  %398 = icmp eq %"class.std::__1::basic_string"* %394, %9
  br i1 %398, label %426, label %399

399:                                              ; preds = %397
  %400 = bitcast %"class.std::__1::basic_string"* %394 to %"struct.std::__1::basic_string<char, std::__1::char_traits<char>, std::__1::allocator<char> >::__short"*
  %401 = getelementptr inbounds %"struct.std::__1::basic_string<char, std::__1::char_traits<char>, std::__1::allocator<char> >::__short", %"struct.std::__1::basic_string<char, std::__1::char_traits<char>, std::__1::allocator<char> >::__short"* %400, i64 0, i32 1, i32 0
  %402 = load i8, i8* %401, align 1
  %403 = icmp slt i8 %402, 0
  %404 = bitcast %"class.std::__1::basic_string"* %9 to %"struct.std::__1::basic_string<char, std::__1::char_traits<char>, std::__1::allocator<char> >::__short"*
  %405 = getelementptr inbounds %"struct.std::__1::basic_string<char, std::__1::char_traits<char>, std::__1::allocator<char> >::__short", %"struct.std::__1::basic_string<char, std::__1::char_traits<char>, std::__1::allocator<char> >::__short"* %404, i64 0, i32 1, i32 0
  %406 = load i8, i8* %405, align 1
  %407 = icmp slt i8 %406, 0
  br i1 %403, label %417, label %408

408:                                              ; preds = %399
  br i1 %407, label %411, label %409

409:                                              ; preds = %408
  %410 = bitcast %"class.std::__1::basic_string"* %394 to i8*
  call void @llvm.memcpy.p0i8.p0i8.i64(i8* align 8 %410, i8* nonnull align 8 %347, i64 24, i1 false) #10
  br label %426

411:                                              ; preds = %408
  %412 = getelementptr inbounds %"class.std::__1::basic_string", %"class.std::__1::basic_string"* %9, i64 0, i32 0, i32 0, i32 0, i32 0, i32 0, i32 0
  %413 = load i8*, i8** %412, align 8
  %414 = getelementptr inbounds %"class.std::__1::basic_string", %"class.std::__1::basic_string"* %9, i64 0, i32 0, i32 0, i32 0, i32 0, i32 0, i32 1
  %415 = load i64, i64* %414, align 8
  %416 = call dereferenceable(24) %"class.std::__1::basic_string"* @_ZNSt3__112basic_stringIcNS_11char_traitsIcEENS_9allocatorIcEEE17__assign_no_aliasILb1EEERS5_PKcm(%"class.std::__1::basic_string"* %394, i8* %413, i64 %415) #10
  br label %426

417:                                              ; preds = %399
  %418 = getelementptr inbounds %"class.std::__1::basic_string", %"class.std::__1::basic_string"* %9, i64 0, i32 0, i32 0, i32 0, i32 0, i32 0, i32 0
  %419 = load i8*, i8** %418, align 8
  %420 = getelementptr inbounds %"class.std::__1::basic_string", %"class.std::__1::basic_string"* %9, i64 0, i32 0, i32 0, i32 0, i32 0, i32 0, i32 1
  %421 = load i64, i64* %420, align 8
  %422 = zext i8 %406 to i64
  %423 = select i1 %407, i8* %419, i8* %347
  %424 = select i1 %407, i64 %421, i64 %422
  %425 = call dereferenceable(24) %"class.std::__1::basic_string"* @_ZNSt3__112basic_stringIcNS_11char_traitsIcEENS_9allocatorIcEEE17__assign_no_aliasILb0EEERS5_PKcm(%"class.std::__1::basic_string"* %394, i8* %423, i64 %424) #10
  br label %426

426:                                              ; preds = %396, %397, %409, %411, %417
  %427 = bitcast %"class.std::__1::basic_string"* %9 to %"struct.std::__1::basic_string<char, std::__1::char_traits<char>, std::__1::allocator<char> >::__short"*
  %428 = getelementptr inbounds %"struct.std::__1::basic_string<char, std::__1::char_traits<char>, std::__1::allocator<char> >::__short", %"struct.std::__1::basic_string<char, std::__1::char_traits<char>, std::__1::allocator<char> >::__short"* %427, i64 0, i32 1, i32 0
  %429 = load i8, i8* %428, align 1
  %430 = icmp slt i8 %429, 0
  br i1 %430, label %431, label %434

431:                                              ; preds = %426
  %432 = getelementptr inbounds %"class.std::__1::basic_string", %"class.std::__1::basic_string"* %9, i64 0, i32 0, i32 0, i32 0, i32 0, i32 0, i32 0
  %433 = load i8*, i8** %432, align 8
  call void @_ZdlPv(i8* %433) #11
  br label %434

434:                                              ; preds = %426, %431
  %435 = load i8, i8* %368, align 1
  %436 = icmp slt i8 %435, 0
  br i1 %436, label %437, label %440

437:                                              ; preds = %434
  %438 = getelementptr inbounds %"class.syncer::Ordinal", %"class.syncer::Ordinal"* %10, i64 0, i32 0, i32 0, i32 0, i32 0, i32 0, i32 0, i32 0
  %439 = load i8*, i8** %438, align 8
  call void @_ZdlPv(i8* %439) #11
  br label %440

440:                                              ; preds = %434, %437
  call void @llvm.lifetime.end.p0i8(i64 32, i8* nonnull %348) #10
  call void @llvm.lifetime.end.p0i8(i64 24, i8* nonnull %347) #10
  br label %441

441:                                              ; preds = %345, %440
  %442 = getelementptr inbounds %"class.web_app::WebApp", %"class.web_app::WebApp"* %1, i64 0, i32 37, i32 2, i32 1
  %443 = load i8, i8* %442, align 8, !range !2
  %444 = icmp eq i8 %443, 0
  br i1 %444, label %498, label %445

445:                                              ; preds = %441
  %446 = getelementptr inbounds %"class.web_app::WebApp", %"class.web_app::WebApp"* %1, i64 0, i32 37, i32 2
  %447 = call dereferenceable(24) %"class.std::__1::basic_string"* @_ZNK4GURL4specEv(%class.GURL* %446) #10
  %448 = load i32, i32* %74, align 8
  %449 = or i32 %448, 4
  store i32 %449, i32* %74, align 8
  %450 = getelementptr inbounds %"class.sync_pb::WebAppSpecifics", %"class.sync_pb::WebAppSpecifics"* %0, i64 0, i32 6
  %451 = load i64, i64* %79, align 8
  %452 = and i64 %451, 1
  %453 = icmp eq i64 %452, 0
  %454 = and i64 %451, -2
  br i1 %453, label %459, label %455, !prof !3

455:                                              ; preds = %445
  %456 = inttoptr i64 %454 to %"struct.google::protobuf::internal::InternalMetadata::ContainerBase"*
  %457 = getelementptr inbounds %"struct.google::protobuf::internal::InternalMetadata::ContainerBase", %"struct.google::protobuf::internal::InternalMetadata::ContainerBase"* %456, i64 0, i32 0
  %458 = load %"class.google::protobuf::Arena"*, %"class.google::protobuf::Arena"** %457, align 8
  br label %461

459:                                              ; preds = %445
  %460 = inttoptr i64 %454 to %"class.google::protobuf::Arena"*
  br label %461

461:                                              ; preds = %459, %455
  %462 = phi %"class.google::protobuf::Arena"* [ %458, %455 ], [ %460, %459 ]
  %463 = getelementptr inbounds %"struct.google::protobuf::internal::ArenaStringPtr", %"struct.google::protobuf::internal::ArenaStringPtr"* %450, i64 0, i32 0
  %464 = load %"class.std::__1::basic_string"*, %"class.std::__1::basic_string"** %463, align 8
  %465 = icmp eq %"class.std::__1::basic_string"* %464, bitcast (%"class.google::protobuf::internal::ExplicitlyConstructed"* @_ZN6google8protobuf8internal26fixed_address_empty_stringE to %"class.std::__1::basic_string"*)
  br i1 %465, label %466, label %467

466:                                              ; preds = %461
  call void @_ZN6google8protobuf8internal14ArenaStringPtr14CreateInstanceEPNS0_5ArenaEPKNSt3__112basic_stringIcNS5_11char_traitsIcEENS5_9allocatorIcEEEE(%"struct.google::protobuf::internal::ArenaStringPtr"* %450, %"class.google::protobuf::Arena"* %462, %"class.std::__1::basic_string"* %447) #10
  br label %498

467:                                              ; preds = %461
  %468 = icmp eq %"class.std::__1::basic_string"* %464, %447
  br i1 %468, label %498, label %469

469:                                              ; preds = %467
  %470 = bitcast %"class.std::__1::basic_string"* %464 to %"struct.std::__1::basic_string<char, std::__1::char_traits<char>, std::__1::allocator<char> >::__short"*
  %471 = getelementptr inbounds %"struct.std::__1::basic_string<char, std::__1::char_traits<char>, std::__1::allocator<char> >::__short", %"struct.std::__1::basic_string<char, std::__1::char_traits<char>, std::__1::allocator<char> >::__short"* %470, i64 0, i32 1, i32 0
  %472 = load i8, i8* %471, align 1
  %473 = icmp slt i8 %472, 0
  %474 = bitcast %"class.std::__1::basic_string"* %447 to %"struct.std::__1::basic_string<char, std::__1::char_traits<char>, std::__1::allocator<char> >::__short"*
  %475 = getelementptr inbounds %"struct.std::__1::basic_string<char, std::__1::char_traits<char>, std::__1::allocator<char> >::__short", %"struct.std::__1::basic_string<char, std::__1::char_traits<char>, std::__1::allocator<char> >::__short"* %474, i64 0, i32 1, i32 0
  %476 = load i8, i8* %475, align 1
  %477 = icmp slt i8 %476, 0
  br i1 %473, label %488, label %478

478:                                              ; preds = %469
  br i1 %477, label %482, label %479

479:                                              ; preds = %478
  %480 = bitcast %"class.std::__1::basic_string"* %464 to i8*
  %481 = bitcast %"class.std::__1::basic_string"* %447 to i8*
  call void @llvm.memcpy.p0i8.p0i8.i64(i8* align 8 %480, i8* align 8 %481, i64 24, i1 false) #10
  br label %498

482:                                              ; preds = %478
  %483 = getelementptr inbounds %"class.std::__1::basic_string", %"class.std::__1::basic_string"* %447, i64 0, i32 0, i32 0, i32 0, i32 0, i32 0, i32 0
  %484 = load i8*, i8** %483, align 8
  %485 = getelementptr inbounds %"class.std::__1::basic_string", %"class.std::__1::basic_string"* %447, i64 0, i32 0, i32 0, i32 0, i32 0, i32 0, i32 1
  %486 = load i64, i64* %485, align 8
  %487 = call dereferenceable(24) %"class.std::__1::basic_string"* @_ZNSt3__112basic_stringIcNS_11char_traitsIcEENS_9allocatorIcEEE17__assign_no_aliasILb1EEERS5_PKcm(%"class.std::__1::basic_string"* %464, i8* %484, i64 %486) #10
  br label %498

488:                                              ; preds = %469
  %489 = getelementptr inbounds %"class.std::__1::basic_string", %"class.std::__1::basic_string"* %447, i64 0, i32 0, i32 0, i32 0, i32 0, i32 0, i32 0
  %490 = load i8*, i8** %489, align 8
  %491 = getelementptr inbounds %"class.std::__1::basic_string", %"class.std::__1::basic_string"* %447, i64 0, i32 0, i32 0, i32 0, i32 0, i32 0, i32 1
  %492 = load i64, i64* %491, align 8
  %493 = bitcast %"class.std::__1::basic_string"* %447 to i8*
  %494 = zext i8 %476 to i64
  %495 = select i1 %477, i8* %490, i8* %493
  %496 = select i1 %477, i64 %492, i64 %494
  %497 = call dereferenceable(24) %"class.std::__1::basic_string"* @_ZNSt3__112basic_stringIcNS_11char_traitsIcEENS_9allocatorIcEEE17__assign_no_aliasILb0EEERS5_PKcm(%"class.std::__1::basic_string"* %464, i8* %495, i64 %496) #10
  br label %498

498:                                              ; preds = %441, %488, %482, %479, %467, %466
  %499 = getelementptr inbounds %"class.web_app::WebApp", %"class.web_app::WebApp"* %1, i64 0, i32 37, i32 3, i32 0, i32 0
  %500 = load %struct.WebApplicationIconInfo*, %struct.WebApplicationIconInfo** %499, align 8
  %501 = getelementptr inbounds %"class.web_app::WebApp", %"class.web_app::WebApp"* %1, i64 0, i32 37, i32 3, i32 0, i32 1
  %502 = load %struct.WebApplicationIconInfo*, %struct.WebApplicationIconInfo** %501, align 8
  %503 = icmp eq %struct.WebApplicationIconInfo* %500, %502
  br i1 %503, label %514, label %504

504:                                              ; preds = %498
  %505 = bitcast %"class.sync_pb::WebAppIconInfo"* %11 to i8*
  %506 = getelementptr inbounds %"class.sync_pb::WebAppSpecifics", %"class.sync_pb::WebAppSpecifics"* %0, i64 0, i32 3
  %507 = getelementptr inbounds %"class.google::protobuf::RepeatedPtrField", %"class.google::protobuf::RepeatedPtrField"* %506, i64 0, i32 0
  %508 = getelementptr inbounds %"class.sync_pb::WebAppSpecifics", %"class.sync_pb::WebAppSpecifics"* %0, i64 0, i32 3, i32 0, i32 3
  %509 = getelementptr inbounds %"class.sync_pb::WebAppSpecifics", %"class.sync_pb::WebAppSpecifics"* %0, i64 0, i32 3, i32 0, i32 1
  %510 = getelementptr inbounds %"class.sync_pb::WebAppSpecifics", %"class.sync_pb::WebAppSpecifics"* %0, i64 0, i32 3, i32 0, i32 2
  %511 = getelementptr inbounds %"class.google::protobuf::RepeatedPtrField", %"class.google::protobuf::RepeatedPtrField"* %506, i64 0, i32 0, i32 0
  %512 = getelementptr inbounds %"class.sync_pb::WebAppIconInfo", %"class.sync_pb::WebAppIconInfo"* %11, i64 0, i32 0, i32 1
  %513 = bitcast %"class.google::protobuf::internal::InternalMetadata"* %512 to i64*
  br label %515

514:                                              ; preds = %587, %498
  ret void

515:                                              ; preds = %504, %587
  %516 = phi %struct.WebApplicationIconInfo* [ %500, %504 ], [ %588, %587 ]
  call void @llvm.lifetime.start.p0i8(i64 40, i8* nonnull %505) #10
  call void @_ZN7web_app25WebAppIconInfoToSyncProtoERK22WebApplicationIconInfo(%"class.sync_pb::WebAppIconInfo"* nonnull sret %11, %struct.WebApplicationIconInfo* dereferenceable(136) %516)
  %517 = load %"struct.google::protobuf::internal::RepeatedPtrFieldBase::Rep"*, %"struct.google::protobuf::internal::RepeatedPtrFieldBase::Rep"** %508, align 8
  %518 = icmp eq %"struct.google::protobuf::internal::RepeatedPtrFieldBase::Rep"* %517, null
  br i1 %518, label %519, label %521

519:                                              ; preds = %515
  %520 = load i32, i32* %510, align 4
  br label %535

521:                                              ; preds = %515
  %522 = load i32, i32* %509, align 8
  %523 = getelementptr inbounds %"struct.google::protobuf::internal::RepeatedPtrFieldBase::Rep", %"struct.google::protobuf::internal::RepeatedPtrFieldBase::Rep"* %517, i64 0, i32 0
  %524 = load i32, i32* %523, align 8
  %525 = icmp slt i32 %522, %524
  br i1 %525, label %526, label %532

526:                                              ; preds = %521
  %527 = add nsw i32 %522, 1
  store i32 %527, i32* %509, align 8
  %528 = sext i32 %522 to i64
  %529 = getelementptr inbounds %"struct.google::protobuf::internal::RepeatedPtrFieldBase::Rep", %"struct.google::protobuf::internal::RepeatedPtrFieldBase::Rep"* %517, i64 0, i32 1, i64 %528
  %530 = bitcast i8** %529 to %"class.sync_pb::WebAppIconInfo"**
  %531 = load %"class.sync_pb::WebAppIconInfo"*, %"class.sync_pb::WebAppIconInfo"** %530, align 8
  br label %554

532:                                              ; preds = %521
  %533 = load i32, i32* %510, align 4
  %534 = icmp eq i32 %524, %533
  br i1 %534, label %535, label %541

535:                                              ; preds = %532, %519
  %536 = phi i32 [ %520, %519 ], [ %524, %532 ]
  %537 = add nsw i32 %536, 1
  call void @_ZN6google8protobuf8internal20RepeatedPtrFieldBase7ReserveEi(%"class.google::protobuf::internal::RepeatedPtrFieldBase"* %507, i32 %537) #10
  %538 = load %"struct.google::protobuf::internal::RepeatedPtrFieldBase::Rep"*, %"struct.google::protobuf::internal::RepeatedPtrFieldBase::Rep"** %508, align 8
  %539 = getelementptr inbounds %"struct.google::protobuf::internal::RepeatedPtrFieldBase::Rep", %"struct.google::protobuf::internal::RepeatedPtrFieldBase::Rep"* %538, i64 0, i32 0
  %540 = load i32, i32* %539, align 8
  br label %541

541:                                              ; preds = %535, %532
  %542 = phi i32 [ %540, %535 ], [ %524, %532 ]
  %543 = phi %"struct.google::protobuf::internal::RepeatedPtrFieldBase::Rep"* [ %538, %535 ], [ %517, %532 ]
  %544 = getelementptr inbounds %"struct.google::protobuf::internal::RepeatedPtrFieldBase::Rep", %"struct.google::protobuf::internal::RepeatedPtrFieldBase::Rep"* %543, i64 0, i32 0
  %545 = add nsw i32 %542, 1
  store i32 %545, i32* %544, align 8
  %546 = load %"class.google::protobuf::Arena"*, %"class.google::protobuf::Arena"** %511, align 8
  %547 = call %"class.sync_pb::WebAppIconInfo"* @_ZN6google8protobuf5Arena18CreateMaybeMessageIN7sync_pb14WebAppIconInfoEJEEEPT_PS1_DpOT0_(%"class.google::protobuf::Arena"* %546) #10
  %548 = load %"struct.google::protobuf::internal::RepeatedPtrFieldBase::Rep"*, %"struct.google::protobuf::internal::RepeatedPtrFieldBase::Rep"** %508, align 8
  %549 = load i32, i32* %509, align 8
  %550 = add nsw i32 %549, 1
  store i32 %550, i32* %509, align 8
  %551 = sext i32 %549 to i64
  %552 = getelementptr inbounds %"struct.google::protobuf::internal::RepeatedPtrFieldBase::Rep", %"struct.google::protobuf::internal::RepeatedPtrFieldBase::Rep"* %548, i64 0, i32 1, i64 %551
  %553 = bitcast i8** %552 to %"class.sync_pb::WebAppIconInfo"**
  store %"class.sync_pb::WebAppIconInfo"* %547, %"class.sync_pb::WebAppIconInfo"** %553, align 8
  br label %554

554:                                              ; preds = %526, %541
  %555 = phi %"class.sync_pb::WebAppIconInfo"* [ %531, %526 ], [ %547, %541 ]
  %556 = getelementptr inbounds %"class.sync_pb::WebAppIconInfo", %"class.sync_pb::WebAppIconInfo"* %555, i64 0, i32 0, i32 1
  %557 = bitcast %"class.google::protobuf::internal::InternalMetadata"* %556 to i64*
  %558 = load i64, i64* %557, align 8
  %559 = and i64 %558, 1
  %560 = icmp eq i64 %559, 0
  %561 = and i64 %558, -2
  br i1 %560, label %566, label %562, !prof !3

562:                                              ; preds = %554
  %563 = inttoptr i64 %561 to %"struct.google::protobuf::internal::InternalMetadata::ContainerBase"*
  %564 = getelementptr inbounds %"struct.google::protobuf::internal::InternalMetadata::ContainerBase", %"struct.google::protobuf::internal::InternalMetadata::ContainerBase"* %563, i64 0, i32 0
  %565 = load %"class.google::protobuf::Arena"*, %"class.google::protobuf::Arena"** %564, align 8
  br label %568

566:                                              ; preds = %554
  %567 = inttoptr i64 %561 to %"class.google::protobuf::Arena"*
  br label %568

568:                                              ; preds = %566, %562
  %569 = phi %"class.google::protobuf::Arena"* [ %565, %562 ], [ %567, %566 ]
  %570 = load i64, i64* %513, align 8
  %571 = and i64 %570, 1
  %572 = icmp eq i64 %571, 0
  %573 = and i64 %570, -2
  br i1 %572, label %578, label %574, !prof !3

574:                                              ; preds = %568
  %575 = inttoptr i64 %573 to %"struct.google::protobuf::internal::InternalMetadata::ContainerBase"*
  %576 = getelementptr inbounds %"struct.google::protobuf::internal::InternalMetadata::ContainerBase", %"struct.google::protobuf::internal::InternalMetadata::ContainerBase"* %575, i64 0, i32 0
  %577 = load %"class.google::protobuf::Arena"*, %"class.google::protobuf::Arena"** %576, align 8
  br label %580

578:                                              ; preds = %568
  %579 = inttoptr i64 %573 to %"class.google::protobuf::Arena"*
  br label %580

580:                                              ; preds = %578, %574
  %581 = phi %"class.google::protobuf::Arena"* [ %577, %574 ], [ %579, %578 ]
  %582 = icmp eq %"class.google::protobuf::Arena"* %569, %581
  br i1 %582, label %583, label %586

583:                                              ; preds = %580
  %584 = icmp eq %"class.sync_pb::WebAppIconInfo"* %555, %11
  br i1 %584, label %587, label %585

585:                                              ; preds = %583
  call void @_ZN7sync_pb14WebAppIconInfo12InternalSwapEPS0_(%"class.sync_pb::WebAppIconInfo"* %555, %"class.sync_pb::WebAppIconInfo"* nonnull %11) #10
  br label %587

586:                                              ; preds = %580
  call void @_ZN7sync_pb14WebAppIconInfo8CopyFromERKS0_(%"class.sync_pb::WebAppIconInfo"* %555, %"class.sync_pb::WebAppIconInfo"* nonnull dereferenceable(40) %11) #10
  br label %587

587:                                              ; preds = %583, %585, %586
  call void @_ZN7sync_pb14WebAppIconInfoD1Ev(%"class.sync_pb::WebAppIconInfo"* nonnull %11) #10
  call void @llvm.lifetime.end.p0i8(i64 40, i8* nonnull %505) #10
  %588 = getelementptr inbounds %struct.WebApplicationIconInfo, %struct.WebApplicationIconInfo* %516, i64 1
  %589 = icmp eq %struct.WebApplicationIconInfo* %588, %502
  br i1 %589, label %514, label %515
}

declare dereferenceable(24) %"class.std::__1::basic_string"* @_ZNK4GURL4specEv(%class.GURL*) local_unnamed_addr #2

; Function Attrs: norecurse nounwind readnone ssp uwtable
define hidden i32 @_ZN7web_app32ToWebAppSpecificsUserDisplayModeEN5blink5mojom11DisplayModeE(i32) local_unnamed_addr #4 {
  %2 = icmp eq i32 %0, 1
  %3 = select i1 %2, i32 1, i32 3
  ret i32 %3
}

; Function Attrs: nounwind ssp uwtable
define hidden void @_ZN7web_app25WebAppIconInfoToSyncProtoERK22WebApplicationIconInfo(%"class.sync_pb::WebAppIconInfo"* noalias sret, %struct.WebApplicationIconInfo* dereferenceable(136)) local_unnamed_addr #0 {
  %3 = bitcast %"class.sync_pb::WebAppIconInfo"* %0 to i8*
  tail call void @llvm.memset.p0i8.i64(i8* align 8 %3, i8 -86, i64 40, i1 false)
  tail call void @_ZN7sync_pb14WebAppIconInfoC2EPN6google8protobuf5ArenaE(%"class.sync_pb::WebAppIconInfo"* %0, %"class.google::protobuf::Arena"* null) #10
  %4 = getelementptr inbounds %struct.WebApplicationIconInfo, %struct.WebApplicationIconInfo* %1, i64 0, i32 1, i32 0, i32 0, i32 0, i32 0
  %5 = load i8, i8* %4, align 4, !range !2
  %6 = icmp eq i8 %5, 0
  br i1 %6, label %14, label %7

7:                                                ; preds = %2
  %8 = getelementptr inbounds %struct.WebApplicationIconInfo, %struct.WebApplicationIconInfo* %1, i64 0, i32 1, i32 0, i32 0, i32 0, i32 1, i32 0
  %9 = load i32, i32* %8, align 4
  %10 = getelementptr inbounds %"class.sync_pb::WebAppIconInfo", %"class.sync_pb::WebAppIconInfo"* %0, i64 0, i32 1, i32 0, i64 0
  %11 = load i32, i32* %10, align 8
  %12 = or i32 %11, 2
  store i32 %12, i32* %10, align 8
  %13 = getelementptr inbounds %"class.sync_pb::WebAppIconInfo", %"class.sync_pb::WebAppIconInfo"* %0, i64 0, i32 4
  store i32 %9, i32* %13, align 8
  br label %14

14:                                               ; preds = %2, %7
  %15 = getelementptr inbounds %struct.WebApplicationIconInfo, %struct.WebApplicationIconInfo* %1, i64 0, i32 0
  %16 = tail call dereferenceable(24) %"class.std::__1::basic_string"* @_ZNK4GURL4specEv(%class.GURL* %15) #10
  %17 = getelementptr inbounds %"class.sync_pb::WebAppIconInfo", %"class.sync_pb::WebAppIconInfo"* %0, i64 0, i32 1, i32 0, i64 0
  %18 = load i32, i32* %17, align 8
  %19 = or i32 %18, 1
  store i32 %19, i32* %17, align 8
  %20 = getelementptr inbounds %"class.sync_pb::WebAppIconInfo", %"class.sync_pb::WebAppIconInfo"* %0, i64 0, i32 3
  %21 = getelementptr inbounds %"class.sync_pb::WebAppIconInfo", %"class.sync_pb::WebAppIconInfo"* %0, i64 0, i32 0, i32 1
  %22 = bitcast %"class.google::protobuf::internal::InternalMetadata"* %21 to i64*
  %23 = load i64, i64* %22, align 8
  %24 = and i64 %23, 1
  %25 = icmp eq i64 %24, 0
  %26 = and i64 %23, -2
  br i1 %25, label %31, label %27, !prof !3

27:                                               ; preds = %14
  %28 = inttoptr i64 %26 to %"struct.google::protobuf::internal::InternalMetadata::ContainerBase"*
  %29 = getelementptr inbounds %"struct.google::protobuf::internal::InternalMetadata::ContainerBase", %"struct.google::protobuf::internal::InternalMetadata::ContainerBase"* %28, i64 0, i32 0
  %30 = load %"class.google::protobuf::Arena"*, %"class.google::protobuf::Arena"** %29, align 8
  br label %33

31:                                               ; preds = %14
  %32 = inttoptr i64 %26 to %"class.google::protobuf::Arena"*
  br label %33

33:                                               ; preds = %31, %27
  %34 = phi %"class.google::protobuf::Arena"* [ %30, %27 ], [ %32, %31 ]
  %35 = getelementptr inbounds %"struct.google::protobuf::internal::ArenaStringPtr", %"struct.google::protobuf::internal::ArenaStringPtr"* %20, i64 0, i32 0
  %36 = load %"class.std::__1::basic_string"*, %"class.std::__1::basic_string"** %35, align 8
  %37 = icmp eq %"class.std::__1::basic_string"* %36, bitcast (%"class.google::protobuf::internal::ExplicitlyConstructed"* @_ZN6google8protobuf8internal26fixed_address_empty_stringE to %"class.std::__1::basic_string"*)
  br i1 %37, label %38, label %39

38:                                               ; preds = %33
  tail call void @_ZN6google8protobuf8internal14ArenaStringPtr14CreateInstanceEPNS0_5ArenaEPKNSt3__112basic_stringIcNS5_11char_traitsIcEENS5_9allocatorIcEEEE(%"struct.google::protobuf::internal::ArenaStringPtr"* %20, %"class.google::protobuf::Arena"* %34, %"class.std::__1::basic_string"* %16) #10
  br label %70

39:                                               ; preds = %33
  %40 = icmp eq %"class.std::__1::basic_string"* %36, %16
  br i1 %40, label %70, label %41

41:                                               ; preds = %39
  %42 = bitcast %"class.std::__1::basic_string"* %36 to %"struct.std::__1::basic_string<char, std::__1::char_traits<char>, std::__1::allocator<char> >::__short"*
  %43 = getelementptr inbounds %"struct.std::__1::basic_string<char, std::__1::char_traits<char>, std::__1::allocator<char> >::__short", %"struct.std::__1::basic_string<char, std::__1::char_traits<char>, std::__1::allocator<char> >::__short"* %42, i64 0, i32 1, i32 0
  %44 = load i8, i8* %43, align 1
  %45 = icmp slt i8 %44, 0
  %46 = bitcast %"class.std::__1::basic_string"* %16 to %"struct.std::__1::basic_string<char, std::__1::char_traits<char>, std::__1::allocator<char> >::__short"*
  %47 = getelementptr inbounds %"struct.std::__1::basic_string<char, std::__1::char_traits<char>, std::__1::allocator<char> >::__short", %"struct.std::__1::basic_string<char, std::__1::char_traits<char>, std::__1::allocator<char> >::__short"* %46, i64 0, i32 1, i32 0
  %48 = load i8, i8* %47, align 1
  %49 = icmp slt i8 %48, 0
  br i1 %45, label %60, label %50

50:                                               ; preds = %41
  br i1 %49, label %54, label %51

51:                                               ; preds = %50
  %52 = bitcast %"class.std::__1::basic_string"* %36 to i8*
  %53 = bitcast %"class.std::__1::basic_string"* %16 to i8*
  tail call void @llvm.memcpy.p0i8.p0i8.i64(i8* align 8 %52, i8* align 8 %53, i64 24, i1 false) #10
  br label %70

54:                                               ; preds = %50
  %55 = getelementptr inbounds %"class.std::__1::basic_string", %"class.std::__1::basic_string"* %16, i64 0, i32 0, i32 0, i32 0, i32 0, i32 0, i32 0
  %56 = load i8*, i8** %55, align 8
  %57 = getelementptr inbounds %"class.std::__1::basic_string", %"class.std::__1::basic_string"* %16, i64 0, i32 0, i32 0, i32 0, i32 0, i32 0, i32 1
  %58 = load i64, i64* %57, align 8
  %59 = tail call dereferenceable(24) %"class.std::__1::basic_string"* @_ZNSt3__112basic_stringIcNS_11char_traitsIcEENS_9allocatorIcEEE17__assign_no_aliasILb1EEERS5_PKcm(%"class.std::__1::basic_string"* %36, i8* %56, i64 %58) #10
  br label %70

60:                                               ; preds = %41
  %61 = getelementptr inbounds %"class.std::__1::basic_string", %"class.std::__1::basic_string"* %16, i64 0, i32 0, i32 0, i32 0, i32 0, i32 0, i32 0
  %62 = load i8*, i8** %61, align 8
  %63 = getelementptr inbounds %"class.std::__1::basic_string", %"class.std::__1::basic_string"* %16, i64 0, i32 0, i32 0, i32 0, i32 0, i32 0, i32 1
  %64 = load i64, i64* %63, align 8
  %65 = bitcast %"class.std::__1::basic_string"* %16 to i8*
  %66 = zext i8 %48 to i64
  %67 = select i1 %49, i8* %62, i8* %65
  %68 = select i1 %49, i64 %64, i64 %66
  %69 = tail call dereferenceable(24) %"class.std::__1::basic_string"* @_ZNSt3__112basic_stringIcNS_11char_traitsIcEENS_9allocatorIcEEE17__assign_no_aliasILb0EEERS5_PKcm(%"class.std::__1::basic_string"* %36, i8* %67, i64 %68) #10
  br label %70

70:                                               ; preds = %38, %39, %51, %54, %60
  %71 = getelementptr inbounds %struct.WebApplicationIconInfo, %struct.WebApplicationIconInfo* %1, i64 0, i32 2
  %72 = load i32, i32* %71, align 8
  %73 = sext i32 %72 to i64
  %74 = getelementptr inbounds [3 x i32], [3 x i32]* @switch.table._ZN7web_app25WebAppIconInfoToSyncProtoERK22WebApplicationIconInfo, i64 0, i64 %73
  %75 = load i32, i32* %74, align 4
  %76 = load i32, i32* %17, align 8
  %77 = or i32 %76, 4
  store i32 %77, i32* %17, align 8
  %78 = getelementptr inbounds %"class.sync_pb::WebAppIconInfo", %"class.sync_pb::WebAppIconInfo"* %0, i64 0, i32 5
  store i32 %75, i32* %78, align 4
  ret void
}

; Function Attrs: nounwind
declare void @_ZN7sync_pb14WebAppIconInfoD1Ev(%"class.sync_pb::WebAppIconInfo"*) unnamed_addr #3

; Function Attrs: nounwind ssp uwtable
define hidden void @_ZN7web_app27ParseSyncFallbackDataStructERKN7sync_pb15WebAppSpecificsE(%"class.absl::optional.147"* noalias sret, %"class.sync_pb::WebAppSpecifics"* nocapture readonly dereferenceable(104)) local_unnamed_addr #0 {
  %3 = alloca %"struct.web_app::WebApp::SyncFallbackData", align 8
  %4 = alloca %class.GURL, align 8
  %5 = alloca %"class.absl::optional", align 8
  %6 = alloca %"class.google::protobuf::RepeatedPtrField", align 8
  %7 = bitcast %"struct.web_app::WebApp::SyncFallbackData"* %3 to i8*
  call void @llvm.lifetime.start.p0i8(i64 176, i8* nonnull %7) #10
  call void @llvm.memset.p0i8.i64(i8* nonnull align 8 %7, i8 -86, i64 176, i1 false)
  call void @_ZN7web_app6WebApp16SyncFallbackDataC1Ev(%"struct.web_app::WebApp::SyncFallbackData"* nonnull %3) #10
  %8 = getelementptr inbounds %"class.sync_pb::WebAppSpecifics", %"class.sync_pb::WebAppSpecifics"* %1, i64 0, i32 5, i32 0
  %9 = load %"class.std::__1::basic_string"*, %"class.std::__1::basic_string"** %8, align 8
  %10 = getelementptr inbounds %"struct.web_app::WebApp::SyncFallbackData", %"struct.web_app::WebApp::SyncFallbackData"* %3, i64 0, i32 0
  %11 = icmp eq %"class.std::__1::basic_string"* %10, %9
  br i1 %11, label %40, label %12

12:                                               ; preds = %2
  %13 = bitcast %"struct.web_app::WebApp::SyncFallbackData"* %3 to %"struct.std::__1::basic_string<char, std::__1::char_traits<char>, std::__1::allocator<char> >::__short"*
  %14 = getelementptr inbounds %"struct.std::__1::basic_string<char, std::__1::char_traits<char>, std::__1::allocator<char> >::__short", %"struct.std::__1::basic_string<char, std::__1::char_traits<char>, std::__1::allocator<char> >::__short"* %13, i64 0, i32 1, i32 0
  %15 = load i8, i8* %14, align 1
  %16 = icmp slt i8 %15, 0
  %17 = bitcast %"class.std::__1::basic_string"* %9 to %"struct.std::__1::basic_string<char, std::__1::char_traits<char>, std::__1::allocator<char> >::__short"*
  %18 = getelementptr inbounds %"struct.std::__1::basic_string<char, std::__1::char_traits<char>, std::__1::allocator<char> >::__short", %"struct.std::__1::basic_string<char, std::__1::char_traits<char>, std::__1::allocator<char> >::__short"* %17, i64 0, i32 1, i32 0
  %19 = load i8, i8* %18, align 1
  %20 = icmp slt i8 %19, 0
  br i1 %16, label %30, label %21

21:                                               ; preds = %12
  br i1 %20, label %24, label %22

22:                                               ; preds = %21
  %23 = bitcast %"class.std::__1::basic_string"* %9 to i8*
  call void @llvm.memcpy.p0i8.p0i8.i64(i8* nonnull align 8 %7, i8* align 8 %23, i64 24, i1 false) #10
  br label %40

24:                                               ; preds = %21
  %25 = getelementptr inbounds %"class.std::__1::basic_string", %"class.std::__1::basic_string"* %9, i64 0, i32 0, i32 0, i32 0, i32 0, i32 0, i32 0
  %26 = load i8*, i8** %25, align 8
  %27 = getelementptr inbounds %"class.std::__1::basic_string", %"class.std::__1::basic_string"* %9, i64 0, i32 0, i32 0, i32 0, i32 0, i32 0, i32 1
  %28 = load i64, i64* %27, align 8
  %29 = call dereferenceable(24) %"class.std::__1::basic_string"* @_ZNSt3__112basic_stringIcNS_11char_traitsIcEENS_9allocatorIcEEE17__assign_no_aliasILb1EEERS5_PKcm(%"class.std::__1::basic_string"* nonnull %10, i8* %26, i64 %28) #10
  br label %40

30:                                               ; preds = %12
  %31 = getelementptr inbounds %"class.std::__1::basic_string", %"class.std::__1::basic_string"* %9, i64 0, i32 0, i32 0, i32 0, i32 0, i32 0, i32 0
  %32 = load i8*, i8** %31, align 8
  %33 = getelementptr inbounds %"class.std::__1::basic_string", %"class.std::__1::basic_string"* %9, i64 0, i32 0, i32 0, i32 0, i32 0, i32 0, i32 1
  %34 = load i64, i64* %33, align 8
  %35 = bitcast %"class.std::__1::basic_string"* %9 to i8*
  %36 = zext i8 %19 to i64
  %37 = select i1 %20, i8* %32, i8* %35
  %38 = select i1 %20, i64 %34, i64 %36
  %39 = call dereferenceable(24) %"class.std::__1::basic_string"* @_ZNSt3__112basic_stringIcNS_11char_traitsIcEENS_9allocatorIcEEE17__assign_no_aliasILb0EEERS5_PKcm(%"class.std::__1::basic_string"* nonnull %10, i8* %37, i64 %38) #10
  br label %40

40:                                               ; preds = %2, %22, %24, %30
  %41 = getelementptr inbounds %"class.sync_pb::WebAppSpecifics", %"class.sync_pb::WebAppSpecifics"* %1, i64 0, i32 1, i32 0, i64 0
  %42 = load i32, i32* %41, align 4
  %43 = trunc i32 %42 to i8
  %44 = icmp slt i8 %43, 0
  br i1 %44, label %45, label %53

45:                                               ; preds = %40
  %46 = getelementptr inbounds %"class.sync_pb::WebAppSpecifics", %"class.sync_pb::WebAppSpecifics"* %1, i64 0, i32 11
  %47 = load i32, i32* %46, align 4
  %48 = getelementptr inbounds %"struct.web_app::WebApp::SyncFallbackData", %"struct.web_app::WebApp::SyncFallbackData"* %3, i64 0, i32 1, i32 0, i32 0, i32 0, i32 0
  %49 = bitcast i8* %48 to i64*
  %50 = zext i32 %47 to i64
  %51 = shl nuw i64 %50, 32
  %52 = or i64 %51, 1
  store i64 %52, i64* %49, align 8
  br label %53

53:                                               ; preds = %45, %40
  %54 = and i32 %42, 4
  %55 = icmp eq i32 %54, 0
  br i1 %55, label %81, label %56

56:                                               ; preds = %53
  %57 = bitcast %class.GURL* %4 to i8*
  call void @llvm.lifetime.start.p0i8(i64 120, i8* nonnull %57) #10
  %58 = getelementptr inbounds %"class.sync_pb::WebAppSpecifics", %"class.sync_pb::WebAppSpecifics"* %1, i64 0, i32 6, i32 0
  %59 = load %"class.std::__1::basic_string"*, %"class.std::__1::basic_string"** %58, align 8
  %60 = bitcast %"class.std::__1::basic_string"* %59 to %"struct.std::__1::basic_string<char, std::__1::char_traits<char>, std::__1::allocator<char> >::__short"*
  %61 = getelementptr inbounds %"struct.std::__1::basic_string<char, std::__1::char_traits<char>, std::__1::allocator<char> >::__short", %"struct.std::__1::basic_string<char, std::__1::char_traits<char>, std::__1::allocator<char> >::__short"* %60, i64 0, i32 1, i32 0
  %62 = load i8, i8* %61, align 1
  %63 = icmp slt i8 %62, 0
  %64 = getelementptr inbounds %"class.std::__1::basic_string", %"class.std::__1::basic_string"* %59, i64 0, i32 0, i32 0, i32 0, i32 0, i32 0, i32 0
  %65 = load i8*, i8** %64, align 8
  %66 = bitcast %"class.std::__1::basic_string"* %59 to i8*
  %67 = select i1 %63, i8* %65, i8* %66
  %68 = getelementptr inbounds %"class.std::__1::basic_string", %"class.std::__1::basic_string"* %59, i64 0, i32 0, i32 0, i32 0, i32 0, i32 0, i32 1
  %69 = load i64, i64* %68, align 8
  %70 = zext i8 %62 to i64
  %71 = select i1 %63, i64 %69, i64 %70
  call void @_ZN4GURLC1EN4base16BasicStringPieceIcNSt3__111char_traitsIcEEEE(%class.GURL* nonnull %4, i8* %67, i64 %71) #10
  %72 = getelementptr inbounds %"struct.web_app::WebApp::SyncFallbackData", %"struct.web_app::WebApp::SyncFallbackData"* %3, i64 0, i32 2
  %73 = call dereferenceable(120) %class.GURL* @_ZN4GURLaSEOS_(%class.GURL* %72, %class.GURL* nonnull dereferenceable(120) %4) #10
  call void @_ZN4GURLD1Ev(%class.GURL* nonnull %4) #10
  call void @llvm.lifetime.end.p0i8(i64 120, i8* nonnull %57) #10
  %74 = getelementptr inbounds %"struct.web_app::WebApp::SyncFallbackData", %"struct.web_app::WebApp::SyncFallbackData"* %3, i64 0, i32 2, i32 1
  %75 = load i8, i8* %74, align 8, !range !2
  %76 = icmp eq i8 %75, 0
  br i1 %76, label %77, label %81

77:                                               ; preds = %56
  %78 = getelementptr inbounds %"class.absl::optional.147", %"class.absl::optional.147"* %0, i64 0, i32 0, i32 0, i32 0, i32 0
  store i8 0, i8* %78, align 8
  %79 = getelementptr inbounds %"class.absl::optional.147", %"class.absl::optional.147"* %0, i64 0, i32 0, i32 0, i32 0, i32 1
  %80 = bitcast %union.anon.151* %79 to i8*
  call void @llvm.memset.p0i8.i64(i8* align 8 %80, i8 0, i64 176, i1 false) #10
  br label %232

81:                                               ; preds = %56, %53
  %82 = getelementptr inbounds %"class.absl::optional", %"class.absl::optional"* %5, i64 0, i32 0, i32 0, i32 0, i32 0
  call void @llvm.lifetime.start.p0i8(i64 32, i8* nonnull %82) #10
  call void @llvm.memset.p0i8.i64(i8* nonnull align 8 %82, i8 -86, i64 32, i1 false)
  %83 = bitcast %"class.google::protobuf::RepeatedPtrField"* %6 to i8*
  call void @llvm.memset.p0i8.i64(i8* nonnull align 8 %83, i8 0, i64 24, i1 false) #10
  %84 = getelementptr inbounds %"class.sync_pb::WebAppSpecifics", %"class.sync_pb::WebAppSpecifics"* %1, i64 0, i32 3, i32 0, i32 1
  %85 = load i32, i32* %84, align 8
  %86 = icmp eq i32 %85, 0
  br i1 %86, label %142, label %87

87:                                               ; preds = %81
  %88 = getelementptr inbounds %"class.google::protobuf::RepeatedPtrField", %"class.google::protobuf::RepeatedPtrField"* %6, i64 0, i32 0
  %89 = getelementptr inbounds %"class.sync_pb::WebAppSpecifics", %"class.sync_pb::WebAppSpecifics"* %1, i64 0, i32 3, i32 0, i32 3
  %90 = load %"struct.google::protobuf::internal::RepeatedPtrFieldBase::Rep"*, %"struct.google::protobuf::internal::RepeatedPtrFieldBase::Rep"** %89, align 8
  %91 = call i8** @_ZN6google8protobuf8internal20RepeatedPtrFieldBase14InternalExtendEi(%"class.google::protobuf::internal::RepeatedPtrFieldBase"* nonnull %88, i32 %85) #10
  %92 = getelementptr inbounds %"class.google::protobuf::RepeatedPtrField", %"class.google::protobuf::RepeatedPtrField"* %6, i64 0, i32 0, i32 3
  %93 = load %"struct.google::protobuf::internal::RepeatedPtrFieldBase::Rep"*, %"struct.google::protobuf::internal::RepeatedPtrFieldBase::Rep"** %92, align 8
  %94 = getelementptr inbounds %"struct.google::protobuf::internal::RepeatedPtrFieldBase::Rep", %"struct.google::protobuf::internal::RepeatedPtrFieldBase::Rep"* %93, i64 0, i32 0
  %95 = load i32, i32* %94, align 8
  %96 = getelementptr inbounds %"class.google::protobuf::RepeatedPtrField", %"class.google::protobuf::RepeatedPtrField"* %6, i64 0, i32 0, i32 1
  %97 = load i32, i32* %96, align 8
  %98 = sub i32 %95, %97
  %99 = icmp sgt i32 %98, 0
  %100 = icmp sgt i32 %85, 0
  %101 = and i1 %100, %99
  br i1 %101, label %102, label %105

102:                                              ; preds = %87
  %103 = sext i32 %85 to i64
  %104 = sext i32 %98 to i64
  br label %111

105:                                              ; preds = %111, %87
  %106 = getelementptr inbounds %"class.google::protobuf::RepeatedPtrField", %"class.google::protobuf::RepeatedPtrField"* %6, i64 0, i32 0, i32 0
  %107 = load %"class.google::protobuf::Arena"*, %"class.google::protobuf::Arena"** %106, align 8
  %108 = icmp slt i32 %98, %85
  br i1 %108, label %109, label %134

109:                                              ; preds = %105
  %110 = sext i32 %98 to i64
  br label %123

111:                                              ; preds = %111, %102
  %112 = phi i64 [ 0, %102 ], [ %119, %111 ]
  %113 = getelementptr inbounds %"struct.google::protobuf::internal::RepeatedPtrFieldBase::Rep", %"struct.google::protobuf::internal::RepeatedPtrFieldBase::Rep"* %90, i64 0, i32 1, i64 %112
  %114 = bitcast i8** %113 to %"class.sync_pb::WebAppIconInfo"**
  %115 = load %"class.sync_pb::WebAppIconInfo"*, %"class.sync_pb::WebAppIconInfo"** %114, align 8
  %116 = getelementptr inbounds i8*, i8** %91, i64 %112
  %117 = bitcast i8** %116 to %"class.sync_pb::WebAppIconInfo"**
  %118 = load %"class.sync_pb::WebAppIconInfo"*, %"class.sync_pb::WebAppIconInfo"** %117, align 8
  call void @_ZN6google8protobuf8internal18GenericTypeHandlerIN7sync_pb14WebAppIconInfoEE5MergeERKS4_PS4_(%"class.sync_pb::WebAppIconInfo"* dereferenceable(40) %115, %"class.sync_pb::WebAppIconInfo"* %118) #10
  %119 = add nuw nsw i64 %112, 1
  %120 = icmp slt i64 %119, %104
  %121 = icmp slt i64 %119, %103
  %122 = and i1 %120, %121
  br i1 %122, label %111, label %105

123:                                              ; preds = %123, %109
  %124 = phi i64 [ %110, %109 ], [ %131, %123 ]
  %125 = getelementptr inbounds %"struct.google::protobuf::internal::RepeatedPtrFieldBase::Rep", %"struct.google::protobuf::internal::RepeatedPtrFieldBase::Rep"* %90, i64 0, i32 1, i64 %124
  %126 = bitcast i8** %125 to %"class.sync_pb::WebAppIconInfo"**
  %127 = load %"class.sync_pb::WebAppIconInfo"*, %"class.sync_pb::WebAppIconInfo"** %126, align 8
  %128 = call %"class.sync_pb::WebAppIconInfo"* @_ZN6google8protobuf5Arena18CreateMaybeMessageIN7sync_pb14WebAppIconInfoEJEEEPT_PS1_DpOT0_(%"class.google::protobuf::Arena"* %107) #10
  call void @_ZN6google8protobuf8internal18GenericTypeHandlerIN7sync_pb14WebAppIconInfoEE5MergeERKS4_PS4_(%"class.sync_pb::WebAppIconInfo"* dereferenceable(40) %127, %"class.sync_pb::WebAppIconInfo"* %128) #10
  %129 = getelementptr inbounds i8*, i8** %91, i64 %124
  %130 = bitcast i8** %129 to %"class.sync_pb::WebAppIconInfo"**
  store %"class.sync_pb::WebAppIconInfo"* %128, %"class.sync_pb::WebAppIconInfo"** %130, align 8
  %131 = add nsw i64 %124, 1
  %132 = trunc i64 %131 to i32
  %133 = icmp eq i32 %85, %132
  br i1 %133, label %134, label %123

134:                                              ; preds = %123, %105
  %135 = load i32, i32* %96, align 8
  %136 = add nsw i32 %135, %85
  store i32 %136, i32* %96, align 8
  %137 = load %"struct.google::protobuf::internal::RepeatedPtrFieldBase::Rep"*, %"struct.google::protobuf::internal::RepeatedPtrFieldBase::Rep"** %92, align 8
  %138 = getelementptr inbounds %"struct.google::protobuf::internal::RepeatedPtrFieldBase::Rep", %"struct.google::protobuf::internal::RepeatedPtrFieldBase::Rep"* %137, i64 0, i32 0
  %139 = load i32, i32* %138, align 8
  %140 = icmp slt i32 %139, %136
  br i1 %140, label %141, label %142

141:                                              ; preds = %134
  store i32 %136, i32* %138, align 8
  br label %142

142:                                              ; preds = %81, %134, %141
  call void @_ZN7web_app20ParseWebAppIconInfosEPKcN6google8protobuf16RepeatedPtrFieldIN7sync_pb14WebAppIconInfoEEE(%"class.absl::optional"* nonnull sret %5, i8* undef, %"class.google::protobuf::RepeatedPtrField"* nonnull %6)
  %143 = getelementptr inbounds %"class.google::protobuf::RepeatedPtrField", %"class.google::protobuf::RepeatedPtrField"* %6, i64 0, i32 0, i32 3
  %144 = load %"struct.google::protobuf::internal::RepeatedPtrFieldBase::Rep"*, %"struct.google::protobuf::internal::RepeatedPtrFieldBase::Rep"** %143, align 8
  %145 = icmp eq %"struct.google::protobuf::internal::RepeatedPtrFieldBase::Rep"* %144, null
  %146 = bitcast %"struct.google::protobuf::internal::RepeatedPtrFieldBase::Rep"* %144 to i8*
  br i1 %145, label %176, label %147

147:                                              ; preds = %142
  %148 = getelementptr inbounds %"class.google::protobuf::RepeatedPtrField", %"class.google::protobuf::RepeatedPtrField"* %6, i64 0, i32 0, i32 0
  %149 = load %"class.google::protobuf::Arena"*, %"class.google::protobuf::Arena"** %148, align 8
  %150 = icmp eq %"class.google::protobuf::Arena"* %149, null
  br i1 %150, label %151, label %176

151:                                              ; preds = %147
  %152 = getelementptr inbounds %"struct.google::protobuf::internal::RepeatedPtrFieldBase::Rep", %"struct.google::protobuf::internal::RepeatedPtrFieldBase::Rep"* %144, i64 0, i32 0
  %153 = load i32, i32* %152, align 8
  %154 = icmp sgt i32 %153, 0
  br i1 %154, label %155, label %160

155:                                              ; preds = %151
  %156 = zext i32 %153 to i64
  br label %162

157:                                              ; preds = %173
  %158 = bitcast %"struct.google::protobuf::internal::RepeatedPtrFieldBase::Rep"** %143 to i8**
  %159 = load i8*, i8** %158, align 8
  br label %160

160:                                              ; preds = %157, %151
  %161 = phi i8* [ %159, %157 ], [ %146, %151 ]
  call void @_ZdlPv(i8* %161) #10
  br label %176

162:                                              ; preds = %173, %155
  %163 = phi i64 [ 0, %155 ], [ %174, %173 ]
  %164 = getelementptr inbounds %"struct.google::protobuf::internal::RepeatedPtrFieldBase::Rep", %"struct.google::protobuf::internal::RepeatedPtrFieldBase::Rep"* %144, i64 0, i32 1, i64 %163
  %165 = bitcast i8** %164 to %"class.sync_pb::WebAppIconInfo"**
  %166 = load %"class.sync_pb::WebAppIconInfo"*, %"class.sync_pb::WebAppIconInfo"** %165, align 8
  %167 = icmp eq %"class.sync_pb::WebAppIconInfo"* %166, null
  br i1 %167, label %173, label %168

168:                                              ; preds = %162
  %169 = bitcast %"class.sync_pb::WebAppIconInfo"* %166 to void (%"class.sync_pb::WebAppIconInfo"*)***
  %170 = load void (%"class.sync_pb::WebAppIconInfo"*)**, void (%"class.sync_pb::WebAppIconInfo"*)*** %169, align 8
  %171 = getelementptr inbounds void (%"class.sync_pb::WebAppIconInfo"*)*, void (%"class.sync_pb::WebAppIconInfo"*)** %170, i64 1
  %172 = load void (%"class.sync_pb::WebAppIconInfo"*)*, void (%"class.sync_pb::WebAppIconInfo"*)** %171, align 8
  call void %172(%"class.sync_pb::WebAppIconInfo"* nonnull %166) #10
  br label %173

173:                                              ; preds = %168, %162
  %174 = add nuw nsw i64 %163, 1
  %175 = icmp eq i64 %174, %156
  br i1 %175, label %157, label %162

176:                                              ; preds = %142, %147, %160
  store %"struct.google::protobuf::internal::RepeatedPtrFieldBase::Rep"* null, %"struct.google::protobuf::internal::RepeatedPtrFieldBase::Rep"** %143, align 8
  %177 = load i8, i8* %82, align 8, !range !2
  %178 = icmp eq i8 %177, 0
  br i1 %178, label %179, label %183

179:                                              ; preds = %176
  %180 = getelementptr inbounds %"class.absl::optional.147", %"class.absl::optional.147"* %0, i64 0, i32 0, i32 0, i32 0, i32 0
  store i8 0, i8* %180, align 8
  %181 = getelementptr inbounds %"class.absl::optional.147", %"class.absl::optional.147"* %0, i64 0, i32 0, i32 0, i32 0, i32 1
  %182 = bitcast %union.anon.151* %181 to i8*
  call void @llvm.memset.p0i8.i64(i8* align 8 %182, i8 0, i64 176, i1 false) #10
  br label %231

183:                                              ; preds = %176
  %184 = getelementptr inbounds %"class.absl::optional", %"class.absl::optional"* %5, i64 0, i32 0, i32 0, i32 0, i32 1, i32 0
  %185 = getelementptr inbounds %"struct.web_app::WebApp::SyncFallbackData", %"struct.web_app::WebApp::SyncFallbackData"* %3, i64 0, i32 3
  %186 = getelementptr inbounds %"class.std::__1::vector", %"class.std::__1::vector"* %185, i64 0, i32 0, i32 0
  %187 = load %struct.WebApplicationIconInfo*, %struct.WebApplicationIconInfo** %186, align 8
  %188 = icmp eq %struct.WebApplicationIconInfo* %187, null
  br i1 %188, label %204, label %189

189:                                              ; preds = %183
  %190 = bitcast %struct.WebApplicationIconInfo* %187 to i8*
  %191 = getelementptr inbounds %"struct.web_app::WebApp::SyncFallbackData", %"struct.web_app::WebApp::SyncFallbackData"* %3, i64 0, i32 3, i32 0, i32 1
  %192 = load %struct.WebApplicationIconInfo*, %struct.WebApplicationIconInfo** %191, align 8
  %193 = icmp eq %struct.WebApplicationIconInfo* %192, %187
  br i1 %193, label %201, label %194

194:                                              ; preds = %189, %194
  %195 = phi %struct.WebApplicationIconInfo* [ %196, %194 ], [ %192, %189 ]
  %196 = getelementptr inbounds %struct.WebApplicationIconInfo, %struct.WebApplicationIconInfo* %195, i64 -1
  call void @_ZN22WebApplicationIconInfoD1Ev(%struct.WebApplicationIconInfo* %196) #10
  %197 = icmp eq %struct.WebApplicationIconInfo* %196, %187
  br i1 %197, label %198, label %194

198:                                              ; preds = %194
  %199 = bitcast %"class.std::__1::vector"* %185 to i8**
  %200 = load i8*, i8** %199, align 8
  br label %201

201:                                              ; preds = %198, %189
  %202 = phi i8* [ %200, %198 ], [ %190, %189 ]
  store %struct.WebApplicationIconInfo* %187, %struct.WebApplicationIconInfo** %191, align 8
  call void @_ZdlPv(i8* %202) #11
  %203 = bitcast %"class.std::__1::vector"* %185 to i8*
  call void @llvm.memset.p0i8.i64(i8* align 8 %203, i8 0, i64 24, i1 false) #10
  br label %204

204:                                              ; preds = %201, %183
  %205 = bitcast %"class.std::__1::vector"* %184 to <2 x i64>*
  %206 = load <2 x i64>, <2 x i64>* %205, align 8
  %207 = bitcast %"class.std::__1::vector"* %185 to <2 x i64>*
  store <2 x i64> %206, <2 x i64>* %207, align 8
  %208 = getelementptr inbounds %"class.absl::optional", %"class.absl::optional"* %5, i64 0, i32 0, i32 0, i32 0, i32 1, i32 0, i32 0, i32 2, i32 0, i32 0
  %209 = bitcast %struct.WebApplicationIconInfo** %208 to i64*
  %210 = load i64, i64* %209, align 8
  %211 = getelementptr inbounds %"struct.web_app::WebApp::SyncFallbackData", %"struct.web_app::WebApp::SyncFallbackData"* %3, i64 0, i32 3, i32 0, i32 2, i32 0, i32 0
  %212 = bitcast %struct.WebApplicationIconInfo** %211 to i64*
  store i64 %210, i64* %212, align 8
  %213 = bitcast %"class.std::__1::vector"* %184 to i8*
  call void @llvm.memset.p0i8.i64(i8* align 8 %213, i8 0, i64 24, i1 false) #10
  %214 = getelementptr inbounds %"class.absl::optional.147", %"class.absl::optional.147"* %0, i64 0, i32 0, i32 0, i32 0, i32 0
  store i8 1, i8* %214, align 8
  %215 = getelementptr inbounds %"class.absl::optional.147", %"class.absl::optional.147"* %0, i64 0, i32 0, i32 0, i32 0, i32 1, i32 0
  call void @_ZN7web_app6WebApp16SyncFallbackDataC1ERKS1_(%"struct.web_app::WebApp::SyncFallbackData"* %215, %"struct.web_app::WebApp::SyncFallbackData"* nonnull dereferenceable(176) %3) #10
  br i1 %178, label %231, label %216

216:                                              ; preds = %204
  %217 = getelementptr inbounds %"class.absl::optional", %"class.absl::optional"* %5, i64 0, i32 0, i32 0, i32 0, i32 1, i32 0, i32 0, i32 0
  %218 = load %struct.WebApplicationIconInfo*, %struct.WebApplicationIconInfo** %217, align 8
  %219 = icmp eq %struct.WebApplicationIconInfo* %218, null
  %220 = bitcast %struct.WebApplicationIconInfo* %218 to i8*
  br i1 %219, label %230, label %221

221:                                              ; preds = %216
  %222 = getelementptr inbounds %"class.absl::optional", %"class.absl::optional"* %5, i64 0, i32 0, i32 0, i32 0, i32 1, i32 0, i32 0, i32 1
  %223 = load %struct.WebApplicationIconInfo*, %struct.WebApplicationIconInfo** %222, align 8
  %224 = icmp eq %struct.WebApplicationIconInfo* %223, %218
  br i1 %224, label %229, label %225

225:                                              ; preds = %221, %225
  %226 = phi %struct.WebApplicationIconInfo* [ %227, %225 ], [ %223, %221 ]
  %227 = getelementptr inbounds %struct.WebApplicationIconInfo, %struct.WebApplicationIconInfo* %226, i64 -1
  call void @_ZN22WebApplicationIconInfoD1Ev(%struct.WebApplicationIconInfo* %227) #10
  %228 = icmp eq %struct.WebApplicationIconInfo* %227, %218
  br i1 %228, label %229, label %225

229:                                              ; preds = %225, %221
  store %struct.WebApplicationIconInfo* %218, %struct.WebApplicationIconInfo** %222, align 8
  call void @_ZdlPv(i8* %220) #11
  br label %230

230:                                              ; preds = %229, %216
  store i8 0, i8* %82, align 8
  br label %231

231:                                              ; preds = %179, %204, %230
  call void @llvm.lifetime.end.p0i8(i64 32, i8* nonnull %82) #10
  br label %232

232:                                              ; preds = %231, %77
  call void @_ZN7web_app6WebApp16SyncFallbackDataD1Ev(%"struct.web_app::WebApp::SyncFallbackData"* nonnull %3) #10
  call void @llvm.lifetime.end.p0i8(i64 176, i8* nonnull %7) #10
  ret void
}

declare void @_ZN7web_app6WebApp16SyncFallbackDataC1Ev(%"struct.web_app::WebApp::SyncFallbackData"*) unnamed_addr #2

; Function Attrs: nounwind
declare void @_ZN7web_app6WebApp16SyncFallbackDataD1Ev(%"struct.web_app::WebApp::SyncFallbackData"*) unnamed_addr #3

; Function Attrs: norecurse nounwind readnone ssp uwtable
define hidden i32 @_ZN7web_app18ToRunOnOsLoginModeENS_28WebAppProto_RunOnOsLoginModeE(i32) local_unnamed_addr #4 {
  %2 = icmp eq i32 %0, 1
  %3 = zext i1 %2 to i32
  %4 = icmp eq i32 %0, 2
  %5 = select i1 %4, i32 2, i32 %3
  ret i32 %5
}

; Function Attrs: norecurse nounwind readnone ssp uwtable
define hidden i32 @_ZN7web_app29ToWebAppProtoRunOnOsLoginModeENS_16RunOnOsLoginModeE(i32) local_unnamed_addr #4 {
  ret i32 %0
}

declare void @_ZN7sync_pb15WebAppSpecificsC2EPN6google8protobuf5ArenaE(%"class.sync_pb::WebAppSpecifics"*, %"class.google::protobuf::Arena"*) unnamed_addr #2

; Function Attrs: noinline nounwind ssp uwtable
define linkonce_odr hidden void @_ZN6google8protobuf8internal14ArenaStringPtr14CreateInstanceEPNS0_5ArenaEPKNSt3__112basic_stringIcNS5_11char_traitsIcEENS5_9allocatorIcEEEE(%"struct.google::protobuf::internal::ArenaStringPtr"*, %"class.google::protobuf::Arena"*, %"class.std::__1::basic_string"*) local_unnamed_addr #5 comdat align 2 {
  %4 = icmp eq %"class.google::protobuf::Arena"* %1, null
  br i1 %4, label %5, label %19

5:                                                ; preds = %3
  %6 = tail call i8* @_Znwm(i64 24) #11
  %7 = bitcast i8* %6 to %"class.std::__1::basic_string"*
  %8 = bitcast %"class.std::__1::basic_string"* %2 to %"struct.std::__1::basic_string<char, std::__1::char_traits<char>, std::__1::allocator<char> >::__short"*
  %9 = getelementptr inbounds %"struct.std::__1::basic_string<char, std::__1::char_traits<char>, std::__1::allocator<char> >::__short", %"struct.std::__1::basic_string<char, std::__1::char_traits<char>, std::__1::allocator<char> >::__short"* %8, i64 0, i32 1, i32 0
  %10 = load i8, i8* %9, align 1
  %11 = icmp slt i8 %10, 0
  br i1 %11, label %14, label %12

12:                                               ; preds = %5
  %13 = bitcast %"class.std::__1::basic_string"* %2 to i8*
  tail call void @llvm.memcpy.p0i8.p0i8.i64(i8* nonnull align 8 %6, i8* align 8 %13, i64 24, i1 false) #10
  br label %39

14:                                               ; preds = %5
  %15 = getelementptr inbounds %"class.std::__1::basic_string", %"class.std::__1::basic_string"* %2, i64 0, i32 0, i32 0, i32 0, i32 0, i32 0, i32 0
  %16 = load i8*, i8** %15, align 8
  %17 = getelementptr inbounds %"class.std::__1::basic_string", %"class.std::__1::basic_string"* %2, i64 0, i32 0, i32 0, i32 0, i32 0, i32 0, i32 1
  %18 = load i64, i64* %17, align 8
  tail call void @_ZNSt3__112basic_stringIcNS_11char_traitsIcEENS_9allocatorIcEEE25__init_copy_ctor_externalEPKcm(%"class.std::__1::basic_string"* nonnull %7, i8* %16, i64 %18) #10
  br label %39

19:                                               ; preds = %3
  %20 = getelementptr inbounds %"class.google::protobuf::Arena", %"class.google::protobuf::Arena"* %1, i64 0, i32 4
  %21 = load i8*, i8** %20, align 8
  %22 = icmp eq i8* %21, null
  br i1 %22, label %24, label %23, !prof !3

23:                                               ; preds = %19
  tail call void @_ZNK6google8protobuf5Arena17OnArenaAllocationEPKSt9type_infom(%"class.google::protobuf::Arena"* nonnull %1, %"class.std::type_info"* null, i64 24) #10
  br label %24

24:                                               ; preds = %23, %19
  %25 = getelementptr inbounds %"class.google::protobuf::Arena", %"class.google::protobuf::Arena"* %1, i64 0, i32 0
  %26 = tail call i8* @_ZN6google8protobuf8internal9ArenaImpl28AllocateAlignedAndAddCleanupEmPFvPvE(%"class.google::protobuf::internal::ArenaImpl"* %25, i64 24, void (i8*)* nonnull @_ZN6google8protobuf8internal21arena_destruct_objectINSt3__112basic_stringIcNS3_11char_traitsIcEENS3_9allocatorIcEEEEEEvPv) #10
  %27 = bitcast i8* %26 to %"class.std::__1::basic_string"*
  %28 = bitcast %"class.std::__1::basic_string"* %2 to %"struct.std::__1::basic_string<char, std::__1::char_traits<char>, std::__1::allocator<char> >::__short"*
  %29 = getelementptr inbounds %"struct.std::__1::basic_string<char, std::__1::char_traits<char>, std::__1::allocator<char> >::__short", %"struct.std::__1::basic_string<char, std::__1::char_traits<char>, std::__1::allocator<char> >::__short"* %28, i64 0, i32 1, i32 0
  %30 = load i8, i8* %29, align 1
  %31 = icmp slt i8 %30, 0
  br i1 %31, label %34, label %32

32:                                               ; preds = %24
  %33 = bitcast %"class.std::__1::basic_string"* %2 to i8*
  tail call void @llvm.memcpy.p0i8.p0i8.i64(i8* align 8 %26, i8* align 8 %33, i64 24, i1 false) #10
  br label %39

34:                                               ; preds = %24
  %35 = getelementptr inbounds %"class.std::__1::basic_string", %"class.std::__1::basic_string"* %2, i64 0, i32 0, i32 0, i32 0, i32 0, i32 0, i32 0
  %36 = load i8*, i8** %35, align 8
  %37 = getelementptr inbounds %"class.std::__1::basic_string", %"class.std::__1::basic_string"* %2, i64 0, i32 0, i32 0, i32 0, i32 0, i32 0, i32 1
  %38 = load i64, i64* %37, align 8
  tail call void @_ZNSt3__112basic_stringIcNS_11char_traitsIcEENS_9allocatorIcEEE25__init_copy_ctor_externalEPKcm(%"class.std::__1::basic_string"* %27, i8* %36, i64 %38) #10
  br label %39

39:                                               ; preds = %12, %14, %32, %34
  %40 = phi %"class.std::__1::basic_string"* [ %7, %12 ], [ %7, %14 ], [ %27, %32 ], [ %27, %34 ]
  %41 = getelementptr inbounds %"struct.google::protobuf::internal::ArenaStringPtr", %"struct.google::protobuf::internal::ArenaStringPtr"* %0, i64 0, i32 0
  store %"class.std::__1::basic_string"* %40, %"class.std::__1::basic_string"** %41, align 8
  ret void
}

; Function Attrs: nobuiltin nofree
declare noalias nonnull i8* @_Znwm(i64) local_unnamed_addr #6

declare void @_ZNSt3__112basic_stringIcNS_11char_traitsIcEENS_9allocatorIcEEE25__init_copy_ctor_externalEPKcm(%"class.std::__1::basic_string"*, i8*, i64) local_unnamed_addr #2

declare i8* @_ZN6google8protobuf8internal9ArenaImpl28AllocateAlignedAndAddCleanupEmPFvPvE(%"class.google::protobuf::internal::ArenaImpl"*, i64, void (i8*)*) local_unnamed_addr #2

; Function Attrs: nounwind ssp uwtable
define linkonce_odr hidden void @_ZN6google8protobuf8internal21arena_destruct_objectINSt3__112basic_stringIcNS3_11char_traitsIcEENS3_9allocatorIcEEEEEEvPv(i8*) #0 comdat {
  %2 = getelementptr inbounds i8, i8* %0, i64 23
  %3 = load i8, i8* %2, align 1
  %4 = icmp slt i8 %3, 0
  br i1 %4, label %5, label %8

5:                                                ; preds = %1
  %6 = bitcast i8* %0 to i8**
  %7 = load i8*, i8** %6, align 8
  tail call void @_ZdlPv(i8* %7) #11
  br label %8

8:                                                ; preds = %1, %5
  ret void
}

declare void @_ZNK6google8protobuf5Arena17OnArenaAllocationEPKSt9type_infom(%"class.google::protobuf::Arena"*, %"class.std::type_info"*, i64) local_unnamed_addr #2

declare void @_ZN6google8protobuf8internal20RepeatedPtrFieldBase7ReserveEi(%"class.google::protobuf::internal::RepeatedPtrFieldBase"*, i32) local_unnamed_addr #2

declare %"class.sync_pb::WebAppIconInfo"* @_ZN6google8protobuf5Arena18CreateMaybeMessageIN7sync_pb14WebAppIconInfoEJEEEPT_PS1_DpOT0_(%"class.google::protobuf::Arena"*) local_unnamed_addr #2

declare void @_ZN7sync_pb14WebAppIconInfo12InternalSwapEPS0_(%"class.sync_pb::WebAppIconInfo"*, %"class.sync_pb::WebAppIconInfo"*) local_unnamed_addr #2

declare void @_ZN7sync_pb14WebAppIconInfo8CopyFromERKS0_(%"class.sync_pb::WebAppIconInfo"*, %"class.sync_pb::WebAppIconInfo"* dereferenceable(40)) local_unnamed_addr #2

declare void @_ZN7sync_pb14WebAppIconInfoC2EPN6google8protobuf5ArenaE(%"class.sync_pb::WebAppIconInfo"*, %"class.google::protobuf::Arena"*) unnamed_addr #2

declare void @_ZN7web_app6WebApp16SyncFallbackDataC1ERKS1_(%"struct.web_app::WebApp::SyncFallbackData"*, %"struct.web_app::WebApp::SyncFallbackData"* dereferenceable(176)) unnamed_addr #2

; Function Attrs: nobuiltin nounwind
declare void @_ZdlPv(i8*) local_unnamed_addr #7

declare dereferenceable(24) %"class.std::__1::basic_string"* @_ZNSt3__112basic_stringIcNS_11char_traitsIcEENS_9allocatorIcEEE17__assign_no_aliasILb1EEERS5_PKcm(%"class.std::__1::basic_string"*, i8*, i64) local_unnamed_addr #2

declare dereferenceable(24) %"class.std::__1::basic_string"* @_ZNSt3__112basic_stringIcNS_11char_traitsIcEENS_9allocatorIcEEE17__assign_no_aliasILb0EEERS5_PKcm(%"class.std::__1::basic_string"*, i8*, i64) local_unnamed_addr #2

; Function Attrs: inlinehint nounwind ssp uwtable
define linkonce_odr hidden void @_ZNSt3__16vectorI22WebApplicationIconInfoNS_9allocatorIS1_EEE21__push_back_slow_pathIS1_EEvOT_(%"class.std::__1::vector"*, %struct.WebApplicationIconInfo* dereferenceable(136)) local_unnamed_addr #8 comdat align 2 {
  %3 = getelementptr inbounds %"class.std::__1::vector", %"class.std::__1::vector"* %0, i64 0, i32 0, i32 1
  %4 = bitcast %struct.WebApplicationIconInfo** %3 to i64*
  %5 = load i64, i64* %4, align 8
  %6 = bitcast %"class.std::__1::vector"* %0 to i64*
  %7 = load i64, i64* %6, align 8
  %8 = sub i64 %5, %7
  %9 = sdiv exact i64 %8, 136
  %10 = add nsw i64 %9, 1
  %11 = icmp ugt i64 %10, 135637824071393761
  br i1 %11, label %12, label %14

12:                                               ; preds = %2
  %13 = bitcast %"class.std::__1::vector"* %0 to %"class.std::__1::__vector_base_common"*
  tail call void @_ZNKSt3__120__vector_base_commonILb1EE20__throw_length_errorEv(%"class.std::__1::__vector_base_common"* %13) #12
  unreachable

14:                                               ; preds = %2
  %15 = getelementptr inbounds %"class.std::__1::vector", %"class.std::__1::vector"* %0, i64 0, i32 0, i32 2, i32 0, i32 0
  %16 = bitcast %struct.WebApplicationIconInfo** %15 to i64*
  %17 = load i64, i64* %16, align 8
  %18 = sub i64 %17, %7
  %19 = sdiv exact i64 %18, 136
  %20 = icmp ult i64 %19, 67818912035696880
  br i1 %20, label %21, label %26

21:                                               ; preds = %14
  %22 = shl nsw i64 %19, 1
  %23 = icmp ult i64 %22, %10
  %24 = select i1 %23, i64 %10, i64 %22
  %25 = icmp eq i64 %24, 0
  br i1 %25, label %31, label %26

26:                                               ; preds = %14, %21
  %27 = phi i64 [ %24, %21 ], [ 135637824071393761, %14 ]
  %28 = mul i64 %27, 136
  %29 = tail call i8* @_Znwm(i64 %28) #11
  %30 = bitcast i8* %29 to %struct.WebApplicationIconInfo*
  br label %31

31:                                               ; preds = %21, %26
  %32 = phi i64 [ %27, %26 ], [ 0, %21 ]
  %33 = phi %struct.WebApplicationIconInfo* [ %30, %26 ], [ null, %21 ]
  %34 = getelementptr inbounds %struct.WebApplicationIconInfo, %struct.WebApplicationIconInfo* %33, i64 %9
  %35 = getelementptr inbounds %struct.WebApplicationIconInfo, %struct.WebApplicationIconInfo* %33, i64 %32
  %36 = ptrtoint %struct.WebApplicationIconInfo* %35 to i64
  tail call void @_ZN22WebApplicationIconInfoC1EOS_(%struct.WebApplicationIconInfo* %34, %struct.WebApplicationIconInfo* dereferenceable(136) %1) #10
  %37 = getelementptr inbounds %struct.WebApplicationIconInfo, %struct.WebApplicationIconInfo* %34, i64 1
  %38 = ptrtoint %struct.WebApplicationIconInfo* %37 to i64
  %39 = getelementptr inbounds %"class.std::__1::vector", %"class.std::__1::vector"* %0, i64 0, i32 0, i32 0
  %40 = load %struct.WebApplicationIconInfo*, %struct.WebApplicationIconInfo** %39, align 8
  %41 = load %struct.WebApplicationIconInfo*, %struct.WebApplicationIconInfo** %3, align 8
  %42 = icmp eq %struct.WebApplicationIconInfo* %41, %40
  br i1 %42, label %43, label %45

43:                                               ; preds = %31
  %44 = ptrtoint %struct.WebApplicationIconInfo* %40 to i64
  br label %54

45:                                               ; preds = %31, %45
  %46 = phi %struct.WebApplicationIconInfo* [ %48, %45 ], [ %34, %31 ]
  %47 = phi %struct.WebApplicationIconInfo* [ %49, %45 ], [ %41, %31 ]
  %48 = getelementptr inbounds %struct.WebApplicationIconInfo, %struct.WebApplicationIconInfo* %46, i64 -1
  %49 = getelementptr inbounds %struct.WebApplicationIconInfo, %struct.WebApplicationIconInfo* %47, i64 -1
  tail call void @_ZN22WebApplicationIconInfoC1EOS_(%struct.WebApplicationIconInfo* %48, %struct.WebApplicationIconInfo* dereferenceable(136) %49) #10
  %50 = icmp eq %struct.WebApplicationIconInfo* %49, %40
  br i1 %50, label %51, label %45

51:                                               ; preds = %45
  %52 = load i64, i64* %6, align 8
  %53 = load %struct.WebApplicationIconInfo*, %struct.WebApplicationIconInfo** %3, align 8
  br label %54

54:                                               ; preds = %43, %51
  %55 = phi %struct.WebApplicationIconInfo* [ %40, %43 ], [ %53, %51 ]
  %56 = phi %struct.WebApplicationIconInfo* [ %34, %43 ], [ %48, %51 ]
  %57 = phi i64 [ %44, %43 ], [ %52, %51 ]
  %58 = ptrtoint %struct.WebApplicationIconInfo* %56 to i64
  store i64 %58, i64* %6, align 8
  store i64 %38, i64* %4, align 8
  store i64 %36, i64* %16, align 8
  %59 = inttoptr i64 %57 to %struct.WebApplicationIconInfo*
  %60 = icmp eq %struct.WebApplicationIconInfo* %55, %59
  br i1 %60, label %65, label %61

61:                                               ; preds = %54, %61
  %62 = phi %struct.WebApplicationIconInfo* [ %63, %61 ], [ %55, %54 ]
  %63 = getelementptr inbounds %struct.WebApplicationIconInfo, %struct.WebApplicationIconInfo* %62, i64 -1
  tail call void @_ZN22WebApplicationIconInfoD1Ev(%struct.WebApplicationIconInfo* %63) #10
  %64 = icmp eq %struct.WebApplicationIconInfo* %63, %59
  br i1 %64, label %65, label %61

65:                                               ; preds = %61, %54
  %66 = icmp eq i64 %57, 0
  br i1 %66, label %69, label %67

67:                                               ; preds = %65
  %68 = inttoptr i64 %57 to i8*
  tail call void @_ZdlPv(i8* %68) #11
  br label %69

69:                                               ; preds = %65, %67
  ret void
}

; Function Attrs: nounwind
declare void @_ZN22WebApplicationIconInfoC1EOS_(%struct.WebApplicationIconInfo*, %struct.WebApplicationIconInfo* dereferenceable(136)) unnamed_addr #3

; Function Attrs: noreturn
declare void @_ZNKSt3__120__vector_base_commonILb1EE20__throw_length_errorEv(%"class.std::__1::__vector_base_common"*) local_unnamed_addr #9

declare void @_ZN7logging10CheckError5CheckEPKciS2_(%"class.logging::CheckError"* sret, i8*, i32, i8*) local_unnamed_addr #2

declare dereferenceable(160) %"class.std::__1::basic_ostream"* @_ZN7logging10CheckError6streamEv(%"class.logging::CheckError"*) local_unnamed_addr #2

; Function Attrs: nounwind
declare void @_ZN7logging10CheckErrorD1Ev(%"class.logging::CheckError"*) unnamed_addr #3

declare i8** @_ZN6google8protobuf8internal20RepeatedPtrFieldBase14InternalExtendEi(%"class.google::protobuf::internal::RepeatedPtrFieldBase"*, i32) local_unnamed_addr #2

; Function Attrs: noinline nounwind ssp uwtable
define linkonce_odr hidden void @_ZN6google8protobuf8internal18GenericTypeHandlerIN7sync_pb14WebAppIconInfoEE5MergeERKS4_PS4_(%"class.sync_pb::WebAppIconInfo"* dereferenceable(40), %"class.sync_pb::WebAppIconInfo"*) local_unnamed_addr #5 comdat align 2 {
  tail call void @_ZN7sync_pb14WebAppIconInfo9MergeFromERKS0_(%"class.sync_pb::WebAppIconInfo"* %1, %"class.sync_pb::WebAppIconInfo"* dereferenceable(40) %0) #10
  ret void
}

declare void @_ZN7sync_pb14WebAppIconInfo9MergeFromERKS0_(%"class.sync_pb::WebAppIconInfo"*, %"class.sync_pb::WebAppIconInfo"* dereferenceable(40)) local_unnamed_addr #2

attributes #0 = { nounwind ssp uwtable "correctly-rounded-divide-sqrt-fp-math"="false" "disable-tail-calls"="false" "less-precise-fpmad"="false" "min-legal-vector-width"="0" "no-frame-pointer-elim"="false" "no-frame-pointer-elim-non-leaf" "no-infs-fp-math"="false" "no-jump-tables"="false" "no-nans-fp-math"="false" "no-signed-zeros-fp-math"="false" "no-trapping-math"="false" "null-pointer-is-valid"="true" "stack-protector-buffer-size"="4" "target-cpu"="x86-64" "target-features"="+cx8,+fxsr,+mmx,+sse,+sse2,+sse3,+x87" "unsafe-fp-math"="false" "use-soft-float"="false" }
attributes #1 = { argmemonly nounwind }
attributes #2 = { "correctly-rounded-divide-sqrt-fp-math"="false" "disable-tail-calls"="false" "less-precise-fpmad"="false" "no-frame-pointer-elim"="false" "no-frame-pointer-elim-non-leaf" "no-infs-fp-math"="false" "no-nans-fp-math"="false" "no-signed-zeros-fp-math"="false" "no-trapping-math"="false" "null-pointer-is-valid"="true" "stack-protector-buffer-size"="4" "target-cpu"="x86-64" "target-features"="+cx8,+fxsr,+mmx,+sse,+sse2,+sse3,+x87" "unsafe-fp-math"="false" "use-soft-float"="false" }
attributes #3 = { nounwind "correctly-rounded-divide-sqrt-fp-math"="false" "disable-tail-calls"="false" "less-precise-fpmad"="false" "no-frame-pointer-elim"="false" "no-frame-pointer-elim-non-leaf" "no-infs-fp-math"="false" "no-nans-fp-math"="false" "no-signed-zeros-fp-math"="false" "no-trapping-math"="false" "null-pointer-is-valid"="true" "stack-protector-buffer-size"="4" "target-cpu"="x86-64" "target-features"="+cx8,+fxsr,+mmx,+sse,+sse2,+sse3,+x87" "unsafe-fp-math"="false" "use-soft-float"="false" }
attributes #4 = { norecurse nounwind readnone ssp uwtable "correctly-rounded-divide-sqrt-fp-math"="false" "disable-tail-calls"="false" "less-precise-fpmad"="false" "min-legal-vector-width"="0" "no-frame-pointer-elim"="false" "no-frame-pointer-elim-non-leaf" "no-infs-fp-math"="false" "no-jump-tables"="false" "no-nans-fp-math"="false" "no-signed-zeros-fp-math"="false" "no-trapping-math"="false" "null-pointer-is-valid"="true" "stack-protector-buffer-size"="4" "target-cpu"="x86-64" "target-features"="+cx8,+fxsr,+mmx,+sse,+sse2,+sse3,+x87" "unsafe-fp-math"="false" "use-soft-float"="false" }
attributes #5 = { noinline nounwind ssp uwtable "correctly-rounded-divide-sqrt-fp-math"="false" "disable-tail-calls"="false" "less-precise-fpmad"="false" "min-legal-vector-width"="0" "no-frame-pointer-elim"="false" "no-frame-pointer-elim-non-leaf" "no-infs-fp-math"="false" "no-jump-tables"="false" "no-nans-fp-math"="false" "no-signed-zeros-fp-math"="false" "no-trapping-math"="false" "null-pointer-is-valid"="true" "stack-protector-buffer-size"="4" "target-cpu"="x86-64" "target-features"="+cx8,+fxsr,+mmx,+sse,+sse2,+sse3,+x87" "unsafe-fp-math"="false" "use-soft-float"="false" }
attributes #6 = { nobuiltin nofree "correctly-rounded-divide-sqrt-fp-math"="false" "disable-tail-calls"="false" "less-precise-fpmad"="false" "no-frame-pointer-elim"="false" "no-frame-pointer-elim-non-leaf" "no-infs-fp-math"="false" "no-nans-fp-math"="false" "no-signed-zeros-fp-math"="false" "no-trapping-math"="false" "null-pointer-is-valid"="true" "stack-protector-buffer-size"="4" "target-cpu"="x86-64" "target-features"="+cx8,+fxsr,+mmx,+sse,+sse2,+sse3,+x87" "unsafe-fp-math"="false" "use-soft-float"="false" }
attributes #7 = { nobuiltin nounwind "correctly-rounded-divide-sqrt-fp-math"="false" "disable-tail-calls"="false" "less-precise-fpmad"="false" "no-frame-pointer-elim"="false" "no-frame-pointer-elim-non-leaf" "no-infs-fp-math"="false" "no-nans-fp-math"="false" "no-signed-zeros-fp-math"="false" "no-trapping-math"="false" "null-pointer-is-valid"="true" "stack-protector-buffer-size"="4" "target-cpu"="x86-64" "target-features"="+cx8,+fxsr,+mmx,+sse,+sse2,+sse3,+x87" "unsafe-fp-math"="false" "use-soft-float"="false" }
attributes #8 = { inlinehint nounwind ssp uwtable "correctly-rounded-divide-sqrt-fp-math"="false" "disable-tail-calls"="false" "less-precise-fpmad"="false" "min-legal-vector-width"="0" "no-frame-pointer-elim"="false" "no-frame-pointer-elim-non-leaf" "no-infs-fp-math"="false" "no-jump-tables"="false" "no-nans-fp-math"="false" "no-signed-zeros-fp-math"="false" "no-trapping-math"="false" "null-pointer-is-valid"="true" "stack-protector-buffer-size"="4" "target-cpu"="x86-64" "target-features"="+cx8,+fxsr,+mmx,+sse,+sse2,+sse3,+x87" "unsafe-fp-math"="false" "use-soft-float"="false" }
attributes #9 = { noreturn "correctly-rounded-divide-sqrt-fp-math"="false" "disable-tail-calls"="false" "less-precise-fpmad"="false" "no-frame-pointer-elim"="false" "no-frame-pointer-elim-non-leaf" "no-infs-fp-math"="false" "no-nans-fp-math"="false" "no-signed-zeros-fp-math"="false" "no-trapping-math"="false" "null-pointer-is-valid"="true" "stack-protector-buffer-size"="4" "target-cpu"="x86-64" "target-features"="+cx8,+fxsr,+mmx,+sse,+sse2,+sse3,+x87" "unsafe-fp-math"="false" "use-soft-float"="false" }
attributes #10 = { nounwind }
attributes #11 = { builtin nounwind }
attributes #12 = { noreturn nounwind }

!llvm.module.flags = !{!0, !1}

!0 = !{i32 1, !"wchar_size", i32 4}
!1 = !{i32 7, !"PIC Level", i32 2}
!2 = !{i8 0, i8 2}
!3 = !{!"branch_weights", i32 2000, i32 1}
!4 = !{!5}
!5 = distinct !{!5, !6, !"_ZNK7web_app6WebApp17user_page_ordinalEv: argument 0"}
!6 = distinct !{!6, !"_ZNK7web_app6WebApp17user_page_ordinalEv"}
!7 = !{!8}
!8 = distinct !{!8, !9, !"_ZNK7web_app6WebApp17user_page_ordinalEv: argument 0"}
!9 = distinct !{!9, !"_ZNK7web_app6WebApp17user_page_ordinalEv"}
!10 = !{!11}
!11 = distinct !{!11, !12, !"_ZNK6syncer7OrdinalINS_19StringOrdinalTraitsEE15ToInternalValueEv: argument 0"}
!12 = distinct !{!12, !"_ZNK6syncer7OrdinalINS_19StringOrdinalTraitsEE15ToInternalValueEv"}
!13 = !{!14}
!14 = distinct !{!14, !15, !"_ZNK7web_app6WebApp19user_launch_ordinalEv: argument 0"}
!15 = distinct !{!15, !"_ZNK7web_app6WebApp19user_launch_ordinalEv"}
!16 = !{!17}
!17 = distinct !{!17, !18, !"_ZNK7web_app6WebApp19user_launch_ordinalEv: argument 0"}
!18 = distinct !{!18, !"_ZNK7web_app6WebApp19user_launch_ordinalEv"}
!19 = !{!20}
!20 = distinct !{!20, !21, !"_ZNK6syncer7OrdinalINS_19StringOrdinalTraitsEE15ToInternalValueEv: argument 0"}
!21 = distinct !{!21, !"_ZNK6syncer7OrdinalINS_19StringOrdinalTraitsEE15ToInternalValueEv"}
