; ModuleID = '../../extensions/browser/api/web_request/web_request_api_constants.cc'
source_filename = "../../extensions/browser/api/web_request/web_request_api_constants.cc"
target datalayout = "e-m:e-i64:64-f80:128-n8:16:32:64-S128"
target triple = "x86_64-unknown-linux-gnu"

@_ZN35extension_web_request_api_constants14kChallengerKeyE = hidden local_unnamed_addr constant [11 x i8] c"challenger\00", align 1
@_ZN35extension_web_request_api_constants9kErrorKeyE = hidden local_unnamed_addr constant [6 x i8] c"error\00", align 1
@_ZN35extension_web_request_api_constants11kFrameIdKeyE = hidden local_unnamed_addr constant [8 x i8] c"frameId\00", align 1
@_ZN35extension_web_request_api_constants17kParentFrameIdKeyE = hidden local_unnamed_addr constant [14 x i8] c"parentFrameId\00", align 1
@_ZN35extension_web_request_api_constants13kProcessIdKeyE = hidden local_unnamed_addr constant [10 x i8] c"processId\00", align 1
@_ZN35extension_web_request_api_constants10kFromCacheE = hidden local_unnamed_addr constant [10 x i8] c"fromCache\00", align 1
@_ZN35extension_web_request_api_constants8kHostKeyE = hidden local_unnamed_addr constant [5 x i8] c"host\00", align 1
@_ZN35extension_web_request_api_constants6kIpKeyE = hidden local_unnamed_addr constant [3 x i8] c"ip\00", align 1
@_ZN35extension_web_request_api_constants8kPortKeyE = hidden local_unnamed_addr constant [5 x i8] c"port\00", align 1
@_ZN35extension_web_request_api_constants10kMethodKeyE = hidden local_unnamed_addr constant [7 x i8] c"method\00", align 1
@_ZN35extension_web_request_api_constants15kRedirectUrlKeyE = hidden local_unnamed_addr constant [12 x i8] c"redirectUrl\00", align 1
@_ZN35extension_web_request_api_constants13kRequestIdKeyE = hidden local_unnamed_addr constant [10 x i8] c"requestId\00", align 1
@_ZN35extension_web_request_api_constants14kStatusCodeKeyE = hidden local_unnamed_addr constant [11 x i8] c"statusCode\00", align 1
@_ZN35extension_web_request_api_constants14kStatusLineKeyE = hidden local_unnamed_addr constant [11 x i8] c"statusLine\00", align 1
@_ZN35extension_web_request_api_constants9kTabIdKeyE = hidden local_unnamed_addr constant [6 x i8] c"tabId\00", align 1
@_ZN35extension_web_request_api_constants13kTimeStampKeyE = hidden local_unnamed_addr constant [10 x i8] c"timeStamp\00", align 1
@_ZN35extension_web_request_api_constants8kTypeKeyE = hidden local_unnamed_addr constant [5 x i8] c"type\00", align 1
@_ZN35extension_web_request_api_constants7kUrlKeyE = hidden local_unnamed_addr constant [4 x i8] c"url\00", align 1
@_ZN35extension_web_request_api_constants15kRequestBodyKeyE = hidden local_unnamed_addr constant [12 x i8] c"requestBody\00", align 1
@_ZN35extension_web_request_api_constants20kRequestBodyErrorKeyE = hidden local_unnamed_addr constant [6 x i8] c"error\00", align 1
@_ZN35extension_web_request_api_constants23kRequestBodyFormDataKeyE = hidden local_unnamed_addr constant [9 x i8] c"formData\00", align 1
@_ZN35extension_web_request_api_constants18kRequestBodyRawKeyE = hidden local_unnamed_addr constant [4 x i8] c"raw\00", align 1
@_ZN35extension_web_request_api_constants23kRequestBodyRawBytesKeyE = hidden local_unnamed_addr constant [6 x i8] c"bytes\00", align 1
@_ZN35extension_web_request_api_constants22kRequestBodyRawFileKeyE = hidden local_unnamed_addr constant [5 x i8] c"file\00", align 1
@_ZN35extension_web_request_api_constants18kRequestHeadersKeyE = hidden local_unnamed_addr constant [15 x i8] c"requestHeaders\00", align 1
@_ZN35extension_web_request_api_constants19kResponseHeadersKeyE = hidden local_unnamed_addr constant [16 x i8] c"responseHeaders\00", align 16
@_ZN35extension_web_request_api_constants14kHeaderNameKeyE = hidden local_unnamed_addr constant [5 x i8] c"name\00", align 1
@_ZN35extension_web_request_api_constants15kHeaderValueKeyE = hidden local_unnamed_addr constant [6 x i8] c"value\00", align 1
@_ZN35extension_web_request_api_constants21kHeaderBinaryValueKeyE = hidden local_unnamed_addr constant [12 x i8] c"binaryValue\00", align 1
@_ZN35extension_web_request_api_constants11kIsProxyKeyE = hidden local_unnamed_addr constant [8 x i8] c"isProxy\00", align 1
@_ZN35extension_web_request_api_constants11kMessageKeyE = hidden local_unnamed_addr constant [8 x i8] c"message\00", align 1
@_ZN35extension_web_request_api_constants10kSchemeKeyE = hidden local_unnamed_addr constant [7 x i8] c"scheme\00", align 1
@_ZN35extension_web_request_api_constants9kStageKeyE = hidden local_unnamed_addr constant [6 x i8] c"stage\00", align 1
@_ZN35extension_web_request_api_constants9kRealmKeyE = hidden local_unnamed_addr constant [6 x i8] c"realm\00", align 1
@_ZN35extension_web_request_api_constants19kAuthCredentialsKeyE = hidden local_unnamed_addr constant [16 x i8] c"authCredentials\00", align 16
@_ZN35extension_web_request_api_constants12kUsernameKeyE = hidden local_unnamed_addr constant [9 x i8] c"username\00", align 1
@_ZN35extension_web_request_api_constants12kPasswordKeyE = hidden local_unnamed_addr constant [9 x i8] c"password\00", align 1
@_ZN35extension_web_request_api_constants13kInitiatorKeyE = hidden local_unnamed_addr constant [10 x i8] c"initiator\00", align 1
@_ZN35extension_web_request_api_constants22kOnBeforeRedirectEventE = hidden local_unnamed_addr constant [28 x i8] c"webRequest.onBeforeRedirect\00", align 16
@_ZN35extension_web_request_api_constants25kOnBeforeSendHeadersEventE = hidden local_unnamed_addr constant [31 x i8] c"webRequest.onBeforeSendHeaders\00", align 16
@_ZN35extension_web_request_api_constants17kOnCompletedEventE = hidden local_unnamed_addr constant [23 x i8] c"webRequest.onCompleted\00", align 16
@_ZN35extension_web_request_api_constants23kOnHeadersReceivedEventE = hidden local_unnamed_addr constant [29 x i8] c"webRequest.onHeadersReceived\00", align 16
@_ZN35extension_web_request_api_constants23kOnResponseStartedEventE = hidden local_unnamed_addr constant [29 x i8] c"webRequest.onResponseStarted\00", align 16
@_ZN35extension_web_request_api_constants19kOnSendHeadersEventE = hidden local_unnamed_addr constant [25 x i8] c"webRequest.onSendHeaders\00", align 16
@_ZN35extension_web_request_api_constants20kOnAuthRequiredEventE = hidden local_unnamed_addr constant [26 x i8] c"webRequest.onAuthRequired\00", align 16
@_ZN35extension_web_request_api_constants17kOnBeforeRedirectE = hidden local_unnamed_addr constant [17 x i8] c"onBeforeRedirect\00", align 16
@_ZN35extension_web_request_api_constants16kOnBeforeRequestE = hidden local_unnamed_addr constant [16 x i8] c"onBeforeRequest\00", align 16
@_ZN35extension_web_request_api_constants20kOnBeforeSendHeadersE = hidden local_unnamed_addr constant [20 x i8] c"onBeforeSendHeaders\00", align 16
@_ZN35extension_web_request_api_constants12kOnCompletedE = hidden local_unnamed_addr constant [12 x i8] c"onCompleted\00", align 1
@_ZN35extension_web_request_api_constants16kOnErrorOccurredE = hidden local_unnamed_addr constant [16 x i8] c"onErrorOccurred\00", align 16
@_ZN35extension_web_request_api_constants18kOnHeadersReceivedE = hidden local_unnamed_addr constant [18 x i8] c"onHeadersReceived\00", align 16
@_ZN35extension_web_request_api_constants18kOnResponseStartedE = hidden local_unnamed_addr constant [18 x i8] c"onResponseStarted\00", align 16
@_ZN35extension_web_request_api_constants14kOnSendHeadersE = hidden local_unnamed_addr constant [14 x i8] c"onSendHeaders\00", align 1
@_ZN35extension_web_request_api_constants15kOnAuthRequiredE = hidden local_unnamed_addr constant [15 x i8] c"onAuthRequired\00", align 1
@_ZN35extension_web_request_api_constants37kInvalidPublicSessionBlockingResponseE = hidden local_unnamed_addr constant [56 x i8] c"Only the 'cancel' action is allowed in Public Sessions.\00", align 16
@_ZN35extension_web_request_api_constants19kInvalidRedirectUrlE = hidden local_unnamed_addr constant [36 x i8] c"redirectUrl '*' is not a valid URL.\00", align 16
@_ZN35extension_web_request_api_constants24kInvalidBlockingResponseE = hidden local_unnamed_addr constant [53 x i8] c"cancel cannot be true in the presence of other keys.\00", align 16
@_ZN35extension_web_request_api_constants24kInvalidRequestFilterUrlE = hidden local_unnamed_addr constant [32 x i8] c"'*' is not a valid URL pattern.\00", align 16
@_ZN35extension_web_request_api_constants27kBlockingPermissionRequiredE = hidden local_unnamed_addr constant [136 x i8] c"You do not have permission to use blocking webRequest listeners. Be sure to declare the webRequestBlocking permission in your manifest.\00", align 16
@_ZN35extension_web_request_api_constants24kHostPermissionsRequiredE = hidden local_unnamed_addr constant [122 x i8] c"You need to request host permissions in the manifest file in order to be notified about requests from the webRequest API.\00", align 16
@_ZN35extension_web_request_api_constants28kInvalidHeaderKeyCombinationE = hidden local_unnamed_addr constant [59 x i8] c"requestHeaders and responseHeaders cannot both be present.\00", align 16
@_ZN35extension_web_request_api_constants14kInvalidHeaderE = hidden local_unnamed_addr constant [34 x i8] c"Invalid header specification '*'.\00", align 16
@_ZN35extension_web_request_api_constants18kInvalidHeaderNameE = hidden local_unnamed_addr constant [21 x i8] c"Invalid header name.\00", align 16
@_ZN35extension_web_request_api_constants19kInvalidHeaderValueE = hidden local_unnamed_addr constant [33 x i8] c"Header '*' has an invalid value.\00", align 16

!llvm.module.flags = !{!0, !1}

!0 = !{i32 1, !"wchar_size", i32 4}
!1 = !{i32 7, !"PIC Level", i32 2}
