; ModuleID = 'gen/third_party/blink/public/mojom/webdatabase/web_database.mojom-blink-test-utils.cc'
source_filename = "gen/third_party/blink/public/mojom/webdatabase/web_database.mojom-blink-test-utils.cc"
target datalayout = "e-m:e-i64:64-f80:128-n8:16:32:64-S128"
target triple = "x86_64-unknown-linux-gnu"

module asm ".symver exp, exp@GLIBC_2.2.5"
module asm ".symver exp2, exp2@GLIBC_2.2.5"
module asm ".symver exp2f, exp2f@GLIBC_2.2.5"
module asm ".symver expf, expf@GLIBC_2.2.5"
module asm ".symver lgamma, lgamma@GLIBC_2.2.5"
module asm ".symver lgammaf, lgammaf@GLIBC_2.2.5"
module asm ".symver lgammal, lgammal@GLIBC_2.2.5"
module asm ".symver log, log@GLIBC_2.2.5"
module asm ".symver log2, log2@GLIBC_2.2.5"
module asm ".symver log2f, log2f@GLIBC_2.2.5"
module asm ".symver logf, logf@GLIBC_2.2.5"
module asm ".symver pow, pow@GLIBC_2.2.5"
module asm ".symver powf, powf@GLIBC_2.2.5"

%"class.blink::mojom::blink::WebDatabaseAsyncWaiter" = type { %"class.blink::mojom::blink::WebDatabase"* }
%"class.blink::mojom::blink::WebDatabase" = type { i32 (...)** }
%"class.blink::mojom::blink::WebDatabaseHostAsyncWaiter" = type { %"class.blink::mojom::blink::WebDatabaseHost"* }
%"class.blink::mojom::blink::WebDatabaseHost" = type { i32 (...)** }
%"class.blink::mojom::blink::WebDatabaseInterceptorForTesting" = type { %"class.blink::mojom::blink::WebDatabase" }
%class.scoped_refptr = type { %"class.blink::SecurityOrigin"* }
%"class.blink::SecurityOrigin" = type { %"class.WTF::RefCounted", %"class.WTF::String", %"class.WTF::String", %"class.WTF::String", i16, %"class.absl::optional", i8, i8, i8, i8, i8, i8, %"class.base::UnguessableToken", %class.scoped_refptr }
%"class.WTF::RefCounted" = type { %"class.base::RefCounted" }
%"class.base::RefCounted" = type { %"class.base::subtle::RefCountedBase" }
%"class.base::subtle::RefCountedBase" = type { i32 }
%"class.WTF::String" = type { %class.scoped_refptr.0 }
%class.scoped_refptr.0 = type { %"class.WTF::StringImpl"* }
%"class.WTF::StringImpl" = type { i32, i32, %"struct.std::__1::atomic" }
%"struct.std::__1::atomic" = type { %"struct.std::__1::__atomic_base" }
%"struct.std::__1::__atomic_base" = type { %"struct.std::__1::__atomic_base.1" }
%"struct.std::__1::__atomic_base.1" = type { %"struct.std::__1::__cxx_atomic_impl" }
%"struct.std::__1::__cxx_atomic_impl" = type { %"struct.std::__1::__cxx_atomic_base_impl" }
%"struct.std::__1::__cxx_atomic_base_impl" = type { i32 }
%"class.absl::optional" = type { %"class.absl::optional_internal::optional_data" }
%"class.absl::optional_internal::optional_data" = type { %"class.absl::optional_internal::optional_data_base" }
%"class.absl::optional_internal::optional_data_base" = type { %"class.absl::optional_internal::optional_data_dtor_base" }
%"class.absl::optional_internal::optional_data_dtor_base" = type { i8, %union.anon }
%union.anon = type { %"class.url::Origin::Nonce" }
%"class.url::Origin::Nonce" = type { %"class.base::UnguessableToken" }
%"class.base::UnguessableToken" = type { %"class.base::Token" }
%"class.base::Token" = type { i64, i64 }
%"class.blink::mojom::blink::WebDatabaseHostInterceptorForTesting" = type { %"class.blink::mojom::blink::WebDatabaseHost" }
%"class.base::OnceCallback" = type { %"class.base::internal::CallbackBase" }
%"class.base::internal::CallbackBase" = type { %class.scoped_refptr.2 }
%class.scoped_refptr.2 = type { %"class.base::internal::BindStateBase"* }
%"class.base::internal::BindStateBase" = type { %"class.base::RefCountedThreadSafe", void ()*, void (%"class.base::internal::BindStateBase"*)*, i1 (%"class.base::internal::BindStateBase"*, i32)* }
%"class.base::RefCountedThreadSafe" = type { %"class.base::subtle::RefCountedThreadSafeBase" }
%"class.base::subtle::RefCountedThreadSafeBase" = type { %"class.base::AtomicRefCount" }
%"class.base::AtomicRefCount" = type { %"struct.std::__1::atomic.3" }
%"struct.std::__1::atomic.3" = type { %"struct.std::__1::__atomic_base.4" }
%"struct.std::__1::__atomic_base.4" = type { %"struct.std::__1::__atomic_base.5" }
%"struct.std::__1::__atomic_base.5" = type { %"struct.std::__1::__cxx_atomic_impl.6" }
%"struct.std::__1::__cxx_atomic_impl.6" = type { %"struct.std::__1::__cxx_atomic_base_impl.7" }
%"struct.std::__1::__cxx_atomic_base_impl.7" = type { i32 }
%"class.base::OnceCallback.8" = type { %"class.base::internal::CallbackBase" }
%"class.base::OnceCallback.9" = type { %"class.base::internal::CallbackBase" }
%"class.base::OnceCallback.10" = type { %"class.base::internal::CallbackBase" }
%"class.base::File" = type <{ %"class.base::ScopedGeneric", %"class.base::FilePath", %"class.base::FileTracing::ScopedEnabler", [3 x i8], i32, i8, i8, [6 x i8] }>
%"class.base::ScopedGeneric" = type <{ i32 (...)**, %"struct.base::ScopedGeneric<int, base::internal::ScopedFDCloseTraits>::Data", i8, [3 x i8] }>
%"struct.base::ScopedGeneric<int, base::internal::ScopedFDCloseTraits>::Data" = type { i32 }
%"class.base::FilePath" = type { %"class.std::__1::basic_string" }
%"class.std::__1::basic_string" = type { %"class.std::__1::__compressed_pair" }
%"class.std::__1::__compressed_pair" = type { %"struct.std::__1::__compressed_pair_elem" }
%"struct.std::__1::__compressed_pair_elem" = type { %"struct.std::__1::basic_string<char, std::__1::char_traits<char>, std::__1::allocator<char> >::__rep" }
%"struct.std::__1::basic_string<char, std::__1::char_traits<char>, std::__1::allocator<char> >::__rep" = type { %union.anon.11 }
%union.anon.11 = type { %"struct.std::__1::basic_string<char, std::__1::char_traits<char>, std::__1::allocator<char> >::__long" }
%"struct.std::__1::basic_string<char, std::__1::char_traits<char>, std::__1::allocator<char> >::__long" = type { i8*, i64, i64 }
%"class.base::FileTracing::ScopedEnabler" = type { i8 }
%"class.base::RunLoop" = type { %"class.base::RunLoop::Delegate"*, i32, i8, i8, i8, i8, i8, %class.scoped_refptr.25, %"class.base::WeakPtrFactory" }
%"class.base::RunLoop::Delegate" = type <{ i32 (...)**, %"class.std::__1::stack", %"class.base::ObserverList", i8, [7 x i8] }>
%"class.std::__1::stack" = type { %"class.std::__1::vector" }
%"class.std::__1::vector" = type { %"class.std::__1::__vector_base" }
%"class.std::__1::__vector_base" = type { %"class.base::RunLoop"**, %"class.base::RunLoop"**, %"class.std::__1::__compressed_pair.13" }
%"class.std::__1::__compressed_pair.13" = type { %"struct.std::__1::__compressed_pair_elem.14" }
%"struct.std::__1::__compressed_pair_elem.14" = type { %"class.base::RunLoop"** }
%"class.base::ObserverList" = type <{ %"class.std::__1::vector.18", %"class.base::LinkedList", i64, i32, [4 x i8] }>
%"class.std::__1::vector.18" = type { %"class.std::__1::__vector_base.19" }
%"class.std::__1::__vector_base.19" = type { %"class.base::internal::UncheckedObserverAdapter"*, %"class.base::internal::UncheckedObserverAdapter"*, %"class.std::__1::__compressed_pair.20" }
%"class.base::internal::UncheckedObserverAdapter" = type { i8* }
%"class.std::__1::__compressed_pair.20" = type { %"struct.std::__1::__compressed_pair_elem.21" }
%"struct.std::__1::__compressed_pair_elem.21" = type { %"class.base::internal::UncheckedObserverAdapter"* }
%"class.base::LinkedList" = type { %"class.base::LinkNode" }
%"class.base::LinkNode" = type { %"class.base::internal::LinkNodeBase" }
%"class.base::internal::LinkNodeBase" = type { %"class.base::internal::LinkNodeBase"*, %"class.base::internal::LinkNodeBase"* }
%class.scoped_refptr.25 = type { %"class.base::SingleThreadTaskRunner"* }
%"class.base::SingleThreadTaskRunner" = type { %"class.base::SequencedTaskRunner.base", [4 x i8] }
%"class.base::SequencedTaskRunner.base" = type { %"class.base::TaskRunner.base" }
%"class.base::TaskRunner.base" = type <{ i32 (...)**, %"class.base::RefCountedThreadSafe.26" }>
%"class.base::RefCountedThreadSafe.26" = type { %"class.base::subtle::RefCountedThreadSafeBase" }
%"class.base::WeakPtrFactory" = type { %"class.base::internal::WeakPtrFactoryBase" }
%"class.base::internal::WeakPtrFactoryBase" = type { %"class.base::internal::WeakReferenceOwner", i64 }
%"class.base::internal::WeakReferenceOwner" = type { %class.scoped_refptr.27 }
%class.scoped_refptr.27 = type { %"class.base::internal::WeakReference::Flag"* }
%"class.base::internal::WeakReference::Flag" = type <{ %"class.base::RefCountedThreadSafe.28", %"class.base::AtomicFlag", [3 x i8] }>
%"class.base::RefCountedThreadSafe.28" = type { %"class.base::subtle::RefCountedThreadSafeBase" }
%"class.base::AtomicFlag" = type { %"struct.std::__1::atomic.29" }
%"struct.std::__1::atomic.29" = type { %"struct.std::__1::__atomic_base.30" }
%"struct.std::__1::__atomic_base.30" = type { %"struct.std::__1::__atomic_base.31" }
%"struct.std::__1::__atomic_base.31" = type { %"struct.std::__1::__cxx_atomic_impl.32" }
%"struct.std::__1::__cxx_atomic_impl.32" = type { %"struct.std::__1::__cxx_atomic_base_impl.33" }
%"struct.std::__1::__cxx_atomic_base_impl.33" = type { i8 }
%"class.base::Location" = type { i8*, i8*, i32, i8* }

$_ZN5blink5mojom5blink11WebDatabaseD2Ev = comdat any

$_ZN5blink5mojom5blink32WebDatabaseInterceptorForTestingD0Ev = comdat any

$_ZN5blink5mojom5blink15WebDatabaseHostD2Ev = comdat any

$_ZN5blink5mojom5blink36WebDatabaseHostInterceptorForTestingD0Ev = comdat any

@.str = private unnamed_addr constant [9 x i8] c"OpenFile\00", align 1
@.str.1 = private unnamed_addr constant [86 x i8] c"gen/third_party/blink/public/mojom/webdatabase/web_database.mojom-blink-test-utils.cc\00", align 1
@.str.2 = private unnamed_addr constant [11 x i8] c"DeleteFile\00", align 1
@.str.3 = private unnamed_addr constant [18 x i8] c"GetFileAttributes\00", align 1
@.str.4 = private unnamed_addr constant [12 x i8] c"SetFileSize\00", align 1
@.str.5 = private unnamed_addr constant [18 x i8] c"GetSpaceAvailable\00", align 1
@_ZTVN5blink5mojom5blink32WebDatabaseInterceptorForTestingE = hidden unnamed_addr constant { [7 x i8*] } { [7 x i8*] [i8* null, i8* null, i8* bitcast (void (%"class.blink::mojom::blink::WebDatabase"*)* @_ZN5blink5mojom5blink11WebDatabaseD2Ev to i8*), i8* bitcast (void (%"class.blink::mojom::blink::WebDatabaseInterceptorForTesting"*)* @_ZN5blink5mojom5blink32WebDatabaseInterceptorForTestingD0Ev to i8*), i8* bitcast (void (%"class.blink::mojom::blink::WebDatabaseInterceptorForTesting"*, %class.scoped_refptr*, %"class.WTF::String"*, i64)* @_ZN5blink5mojom5blink32WebDatabaseInterceptorForTesting10UpdateSizeERK13scoped_refptrIKNS_14SecurityOriginEERKN3WTF6StringEl to i8*), i8* bitcast (void (%"class.blink::mojom::blink::WebDatabaseInterceptorForTesting"*, %class.scoped_refptr*, %"class.WTF::String"*)* @_ZN5blink5mojom5blink32WebDatabaseInterceptorForTesting16CloseImmediatelyERK13scoped_refptrIKNS_14SecurityOriginEERKN3WTF6StringE to i8*), i8* bitcast (void ()* @__cxa_pure_virtual to i8*)] }, align 8
@_ZTVN5blink5mojom5blink36WebDatabaseHostInterceptorForTestingE = hidden unnamed_addr constant { [19 x i8*] } { [19 x i8*] [i8* null, i8* null, i8* bitcast (void (%"class.blink::mojom::blink::WebDatabaseHost"*)* @_ZN5blink5mojom5blink15WebDatabaseHostD2Ev to i8*), i8* bitcast (void (%"class.blink::mojom::blink::WebDatabaseHostInterceptorForTesting"*)* @_ZN5blink5mojom5blink36WebDatabaseHostInterceptorForTestingD0Ev to i8*), i8* bitcast (i1 (%"class.blink::mojom::blink::WebDatabaseHost"*, %"class.WTF::String"*, i32, %"class.base::File"*)* @_ZN5blink5mojom5blink15WebDatabaseHost8OpenFileERKN3WTF6StringEiPN4base4FileE to i8*), i8* bitcast (void (%"class.blink::mojom::blink::WebDatabaseHostInterceptorForTesting"*, %"class.WTF::String"*, i32, %"class.base::OnceCallback"*)* @_ZN5blink5mojom5blink36WebDatabaseHostInterceptorForTesting8OpenFileERKN3WTF6StringEiN4base12OnceCallbackIFvNS7_4FileEEEE to i8*), i8* bitcast (i1 (%"class.blink::mojom::blink::WebDatabaseHost"*, %"class.WTF::String"*, i1, i32*)* @_ZN5blink5mojom5blink15WebDatabaseHost10DeleteFileERKN3WTF6StringEbPi to i8*), i8* bitcast (void (%"class.blink::mojom::blink::WebDatabaseHostInterceptorForTesting"*, %"class.WTF::String"*, i1, %"class.base::OnceCallback.8"*)* @_ZN5blink5mojom5blink36WebDatabaseHostInterceptorForTesting10DeleteFileERKN3WTF6StringEbN4base12OnceCallbackIFviEEE to i8*), i8* bitcast (i1 (%"class.blink::mojom::blink::WebDatabaseHost"*, %"class.WTF::String"*, i32*)* @_ZN5blink5mojom5blink15WebDatabaseHost17GetFileAttributesERKN3WTF6StringEPi to i8*), i8* bitcast (void (%"class.blink::mojom::blink::WebDatabaseHostInterceptorForTesting"*, %"class.WTF::String"*, %"class.base::OnceCallback.8"*)* @_ZN5blink5mojom5blink36WebDatabaseHostInterceptorForTesting17GetFileAttributesERKN3WTF6StringEN4base12OnceCallbackIFviEEE to i8*), i8* bitcast (i1 (%"class.blink::mojom::blink::WebDatabaseHost"*, %"class.WTF::String"*, i64, i8*)* @_ZN5blink5mojom5blink15WebDatabaseHost11SetFileSizeERKN3WTF6StringElPb to i8*), i8* bitcast (void (%"class.blink::mojom::blink::WebDatabaseHostInterceptorForTesting"*, %"class.WTF::String"*, i64, %"class.base::OnceCallback.9"*)* @_ZN5blink5mojom5blink36WebDatabaseHostInterceptorForTesting11SetFileSizeERKN3WTF6StringElN4base12OnceCallbackIFvbEEE to i8*), i8* bitcast (i1 (%"class.blink::mojom::blink::WebDatabaseHost"*, %class.scoped_refptr*, i64*)* @_ZN5blink5mojom5blink15WebDatabaseHost17GetSpaceAvailableERK13scoped_refptrIKNS_14SecurityOriginEEPl to i8*), i8* bitcast (void (%"class.blink::mojom::blink::WebDatabaseHostInterceptorForTesting"*, %class.scoped_refptr*, %"class.base::OnceCallback.10"*)* @_ZN5blink5mojom5blink36WebDatabaseHostInterceptorForTesting17GetSpaceAvailableERK13scoped_refptrIKNS_14SecurityOriginEEN4base12OnceCallbackIFvlEEE to i8*), i8* bitcast (void (%"class.blink::mojom::blink::WebDatabaseHostInterceptorForTesting"*, %class.scoped_refptr*, %"class.WTF::String"*, %"class.WTF::String"*)* @_ZN5blink5mojom5blink36WebDatabaseHostInterceptorForTesting6OpenedERK13scoped_refptrIKNS_14SecurityOriginEERKN3WTF6StringESC_ to i8*), i8* bitcast (void (%"class.blink::mojom::blink::WebDatabaseHostInterceptorForTesting"*, %class.scoped_refptr*, %"class.WTF::String"*)* @_ZN5blink5mojom5blink36WebDatabaseHostInterceptorForTesting8ModifiedERK13scoped_refptrIKNS_14SecurityOriginEERKN3WTF6StringE to i8*), i8* bitcast (void (%"class.blink::mojom::blink::WebDatabaseHostInterceptorForTesting"*, %class.scoped_refptr*, %"class.WTF::String"*)* @_ZN5blink5mojom5blink36WebDatabaseHostInterceptorForTesting6ClosedERK13scoped_refptrIKNS_14SecurityOriginEERKN3WTF6StringE to i8*), i8* bitcast (void (%"class.blink::mojom::blink::WebDatabaseHostInterceptorForTesting"*, %class.scoped_refptr*, %"class.WTF::String"*, i32)* @_ZN5blink5mojom5blink36WebDatabaseHostInterceptorForTesting17HandleSqliteErrorERK13scoped_refptrIKNS_14SecurityOriginEERKN3WTF6StringEi to i8*), i8* bitcast (void ()* @__cxa_pure_virtual to i8*)] }, align 8

@_ZN5blink5mojom5blink22WebDatabaseAsyncWaiterC1EPNS1_11WebDatabaseE = hidden unnamed_addr alias void (%"class.blink::mojom::blink::WebDatabaseAsyncWaiter"*, %"class.blink::mojom::blink::WebDatabase"*), void (%"class.blink::mojom::blink::WebDatabaseAsyncWaiter"*, %"class.blink::mojom::blink::WebDatabase"*)* @_ZN5blink5mojom5blink22WebDatabaseAsyncWaiterC2EPNS1_11WebDatabaseE
@_ZN5blink5mojom5blink22WebDatabaseAsyncWaiterD1Ev = hidden unnamed_addr alias void (%"class.blink::mojom::blink::WebDatabaseAsyncWaiter"*), void (%"class.blink::mojom::blink::WebDatabaseAsyncWaiter"*)* @_ZN5blink5mojom5blink22WebDatabaseAsyncWaiterD2Ev
@_ZN5blink5mojom5blink26WebDatabaseHostAsyncWaiterC1EPNS1_15WebDatabaseHostE = hidden unnamed_addr alias void (%"class.blink::mojom::blink::WebDatabaseHostAsyncWaiter"*, %"class.blink::mojom::blink::WebDatabaseHost"*), void (%"class.blink::mojom::blink::WebDatabaseHostAsyncWaiter"*, %"class.blink::mojom::blink::WebDatabaseHost"*)* @_ZN5blink5mojom5blink26WebDatabaseHostAsyncWaiterC2EPNS1_15WebDatabaseHostE
@_ZN5blink5mojom5blink26WebDatabaseHostAsyncWaiterD1Ev = hidden unnamed_addr alias void (%"class.blink::mojom::blink::WebDatabaseHostAsyncWaiter"*), void (%"class.blink::mojom::blink::WebDatabaseHostAsyncWaiter"*)* @_ZN5blink5mojom5blink26WebDatabaseHostAsyncWaiterD2Ev

; Function Attrs: nounwind ssp uwtable
define hidden void @_ZN5blink5mojom5blink32WebDatabaseInterceptorForTesting10UpdateSizeERK13scoped_refptrIKNS_14SecurityOriginEERKN3WTF6StringEl(%"class.blink::mojom::blink::WebDatabaseInterceptorForTesting"*, %class.scoped_refptr* dereferenceable(8), %"class.WTF::String"* dereferenceable(8), i64) unnamed_addr #0 align 2 {
  %5 = bitcast %"class.blink::mojom::blink::WebDatabaseInterceptorForTesting"* %0 to %"class.blink::mojom::blink::WebDatabase"* (%"class.blink::mojom::blink::WebDatabaseInterceptorForTesting"*)***
  %6 = load %"class.blink::mojom::blink::WebDatabase"* (%"class.blink::mojom::blink::WebDatabaseInterceptorForTesting"*)**, %"class.blink::mojom::blink::WebDatabase"* (%"class.blink::mojom::blink::WebDatabaseInterceptorForTesting"*)*** %5, align 8
  %7 = getelementptr inbounds %"class.blink::mojom::blink::WebDatabase"* (%"class.blink::mojom::blink::WebDatabaseInterceptorForTesting"*)*, %"class.blink::mojom::blink::WebDatabase"* (%"class.blink::mojom::blink::WebDatabaseInterceptorForTesting"*)** %6, i64 4
  %8 = load %"class.blink::mojom::blink::WebDatabase"* (%"class.blink::mojom::blink::WebDatabaseInterceptorForTesting"*)*, %"class.blink::mojom::blink::WebDatabase"* (%"class.blink::mojom::blink::WebDatabaseInterceptorForTesting"*)** %7, align 8
  %9 = tail call %"class.blink::mojom::blink::WebDatabase"* %8(%"class.blink::mojom::blink::WebDatabaseInterceptorForTesting"* %0) #10
  %10 = bitcast %"class.blink::mojom::blink::WebDatabase"* %9 to void (%"class.blink::mojom::blink::WebDatabase"*, %class.scoped_refptr*, %"class.WTF::String"*, i64)***
  %11 = load void (%"class.blink::mojom::blink::WebDatabase"*, %class.scoped_refptr*, %"class.WTF::String"*, i64)**, void (%"class.blink::mojom::blink::WebDatabase"*, %class.scoped_refptr*, %"class.WTF::String"*, i64)*** %10, align 8
  %12 = getelementptr inbounds void (%"class.blink::mojom::blink::WebDatabase"*, %class.scoped_refptr*, %"class.WTF::String"*, i64)*, void (%"class.blink::mojom::blink::WebDatabase"*, %class.scoped_refptr*, %"class.WTF::String"*, i64)** %11, i64 2
  %13 = load void (%"class.blink::mojom::blink::WebDatabase"*, %class.scoped_refptr*, %"class.WTF::String"*, i64)*, void (%"class.blink::mojom::blink::WebDatabase"*, %class.scoped_refptr*, %"class.WTF::String"*, i64)** %12, align 8
  tail call void %13(%"class.blink::mojom::blink::WebDatabase"* %9, %class.scoped_refptr* dereferenceable(8) %1, %"class.WTF::String"* dereferenceable(8) %2, i64 %3) #10
  ret void
}

; Function Attrs: nounwind ssp uwtable
define hidden void @_ZN5blink5mojom5blink32WebDatabaseInterceptorForTesting16CloseImmediatelyERK13scoped_refptrIKNS_14SecurityOriginEERKN3WTF6StringE(%"class.blink::mojom::blink::WebDatabaseInterceptorForTesting"*, %class.scoped_refptr* dereferenceable(8), %"class.WTF::String"* dereferenceable(8)) unnamed_addr #0 align 2 {
  %4 = bitcast %"class.blink::mojom::blink::WebDatabaseInterceptorForTesting"* %0 to %"class.blink::mojom::blink::WebDatabase"* (%"class.blink::mojom::blink::WebDatabaseInterceptorForTesting"*)***
  %5 = load %"class.blink::mojom::blink::WebDatabase"* (%"class.blink::mojom::blink::WebDatabaseInterceptorForTesting"*)**, %"class.blink::mojom::blink::WebDatabase"* (%"class.blink::mojom::blink::WebDatabaseInterceptorForTesting"*)*** %4, align 8
  %6 = getelementptr inbounds %"class.blink::mojom::blink::WebDatabase"* (%"class.blink::mojom::blink::WebDatabaseInterceptorForTesting"*)*, %"class.blink::mojom::blink::WebDatabase"* (%"class.blink::mojom::blink::WebDatabaseInterceptorForTesting"*)** %5, i64 4
  %7 = load %"class.blink::mojom::blink::WebDatabase"* (%"class.blink::mojom::blink::WebDatabaseInterceptorForTesting"*)*, %"class.blink::mojom::blink::WebDatabase"* (%"class.blink::mojom::blink::WebDatabaseInterceptorForTesting"*)** %6, align 8
  %8 = tail call %"class.blink::mojom::blink::WebDatabase"* %7(%"class.blink::mojom::blink::WebDatabaseInterceptorForTesting"* %0) #10
  %9 = bitcast %"class.blink::mojom::blink::WebDatabase"* %8 to void (%"class.blink::mojom::blink::WebDatabase"*, %class.scoped_refptr*, %"class.WTF::String"*)***
  %10 = load void (%"class.blink::mojom::blink::WebDatabase"*, %class.scoped_refptr*, %"class.WTF::String"*)**, void (%"class.blink::mojom::blink::WebDatabase"*, %class.scoped_refptr*, %"class.WTF::String"*)*** %9, align 8
  %11 = getelementptr inbounds void (%"class.blink::mojom::blink::WebDatabase"*, %class.scoped_refptr*, %"class.WTF::String"*)*, void (%"class.blink::mojom::blink::WebDatabase"*, %class.scoped_refptr*, %"class.WTF::String"*)** %10, i64 3
  %12 = load void (%"class.blink::mojom::blink::WebDatabase"*, %class.scoped_refptr*, %"class.WTF::String"*)*, void (%"class.blink::mojom::blink::WebDatabase"*, %class.scoped_refptr*, %"class.WTF::String"*)** %11, align 8
  tail call void %12(%"class.blink::mojom::blink::WebDatabase"* %8, %class.scoped_refptr* dereferenceable(8) %1, %"class.WTF::String"* dereferenceable(8) %2) #10
  ret void
}

; Function Attrs: nofree norecurse nounwind ssp uwtable writeonly
define hidden void @_ZN5blink5mojom5blink22WebDatabaseAsyncWaiterC2EPNS1_11WebDatabaseE(%"class.blink::mojom::blink::WebDatabaseAsyncWaiter"* nocapture, %"class.blink::mojom::blink::WebDatabase"*) unnamed_addr #1 align 2 {
  %3 = getelementptr inbounds %"class.blink::mojom::blink::WebDatabaseAsyncWaiter", %"class.blink::mojom::blink::WebDatabaseAsyncWaiter"* %0, i64 0, i32 0
  store %"class.blink::mojom::blink::WebDatabase"* %1, %"class.blink::mojom::blink::WebDatabase"** %3, align 8
  ret void
}

; Function Attrs: norecurse nounwind readnone ssp uwtable
define hidden void @_ZN5blink5mojom5blink22WebDatabaseAsyncWaiterD2Ev(%"class.blink::mojom::blink::WebDatabaseAsyncWaiter"* nocapture) unnamed_addr #2 align 2 {
  ret void
}

; Function Attrs: nounwind ssp uwtable
define hidden void @_ZN5blink5mojom5blink36WebDatabaseHostInterceptorForTesting8OpenFileERKN3WTF6StringEiN4base12OnceCallbackIFvNS7_4FileEEEE(%"class.blink::mojom::blink::WebDatabaseHostInterceptorForTesting"*, %"class.WTF::String"* dereferenceable(8), i32, %"class.base::OnceCallback"* nocapture) unnamed_addr #0 align 2 {
  %5 = alloca %"class.base::OnceCallback", align 8
  %6 = bitcast %"class.blink::mojom::blink::WebDatabaseHostInterceptorForTesting"* %0 to %"class.blink::mojom::blink::WebDatabaseHost"* (%"class.blink::mojom::blink::WebDatabaseHostInterceptorForTesting"*)***
  %7 = load %"class.blink::mojom::blink::WebDatabaseHost"* (%"class.blink::mojom::blink::WebDatabaseHostInterceptorForTesting"*)**, %"class.blink::mojom::blink::WebDatabaseHost"* (%"class.blink::mojom::blink::WebDatabaseHostInterceptorForTesting"*)*** %6, align 8
  %8 = getelementptr inbounds %"class.blink::mojom::blink::WebDatabaseHost"* (%"class.blink::mojom::blink::WebDatabaseHostInterceptorForTesting"*)*, %"class.blink::mojom::blink::WebDatabaseHost"* (%"class.blink::mojom::blink::WebDatabaseHostInterceptorForTesting"*)** %7, i64 16
  %9 = load %"class.blink::mojom::blink::WebDatabaseHost"* (%"class.blink::mojom::blink::WebDatabaseHostInterceptorForTesting"*)*, %"class.blink::mojom::blink::WebDatabaseHost"* (%"class.blink::mojom::blink::WebDatabaseHostInterceptorForTesting"*)** %8, align 8
  %10 = tail call %"class.blink::mojom::blink::WebDatabaseHost"* %9(%"class.blink::mojom::blink::WebDatabaseHostInterceptorForTesting"* %0) #10
  %11 = getelementptr inbounds %"class.base::OnceCallback", %"class.base::OnceCallback"* %3, i64 0, i32 0, i32 0, i32 0
  %12 = bitcast %"class.base::OnceCallback"* %3 to i64*
  %13 = load i64, i64* %12, align 8
  %14 = bitcast %"class.base::OnceCallback"* %5 to i64*
  store i64 %13, i64* %14, align 8
  store %"class.base::internal::BindStateBase"* null, %"class.base::internal::BindStateBase"** %11, align 8
  %15 = bitcast %"class.blink::mojom::blink::WebDatabaseHost"* %10 to void (%"class.blink::mojom::blink::WebDatabaseHost"*, %"class.WTF::String"*, i32, %"class.base::OnceCallback"*)***
  %16 = load void (%"class.blink::mojom::blink::WebDatabaseHost"*, %"class.WTF::String"*, i32, %"class.base::OnceCallback"*)**, void (%"class.blink::mojom::blink::WebDatabaseHost"*, %"class.WTF::String"*, i32, %"class.base::OnceCallback"*)*** %15, align 8
  %17 = getelementptr inbounds void (%"class.blink::mojom::blink::WebDatabaseHost"*, %"class.WTF::String"*, i32, %"class.base::OnceCallback"*)*, void (%"class.blink::mojom::blink::WebDatabaseHost"*, %"class.WTF::String"*, i32, %"class.base::OnceCallback"*)** %16, i64 3
  %18 = load void (%"class.blink::mojom::blink::WebDatabaseHost"*, %"class.WTF::String"*, i32, %"class.base::OnceCallback"*)*, void (%"class.blink::mojom::blink::WebDatabaseHost"*, %"class.WTF::String"*, i32, %"class.base::OnceCallback"*)** %17, align 8
  call void %18(%"class.blink::mojom::blink::WebDatabaseHost"* %10, %"class.WTF::String"* dereferenceable(8) %1, i32 %2, %"class.base::OnceCallback"* nonnull %5) #10
  %19 = getelementptr inbounds %"class.base::OnceCallback", %"class.base::OnceCallback"* %5, i64 0, i32 0
  call void @_ZN4base8internal12CallbackBaseD2Ev(%"class.base::internal::CallbackBase"* nonnull %19) #10
  ret void
}

; Function Attrs: nounwind ssp uwtable
define hidden void @_ZN5blink5mojom5blink36WebDatabaseHostInterceptorForTesting10DeleteFileERKN3WTF6StringEbN4base12OnceCallbackIFviEEE(%"class.blink::mojom::blink::WebDatabaseHostInterceptorForTesting"*, %"class.WTF::String"* dereferenceable(8), i1 zeroext, %"class.base::OnceCallback.8"* nocapture) unnamed_addr #0 align 2 {
  %5 = alloca %"class.base::OnceCallback.8", align 8
  %6 = bitcast %"class.blink::mojom::blink::WebDatabaseHostInterceptorForTesting"* %0 to %"class.blink::mojom::blink::WebDatabaseHost"* (%"class.blink::mojom::blink::WebDatabaseHostInterceptorForTesting"*)***
  %7 = load %"class.blink::mojom::blink::WebDatabaseHost"* (%"class.blink::mojom::blink::WebDatabaseHostInterceptorForTesting"*)**, %"class.blink::mojom::blink::WebDatabaseHost"* (%"class.blink::mojom::blink::WebDatabaseHostInterceptorForTesting"*)*** %6, align 8
  %8 = getelementptr inbounds %"class.blink::mojom::blink::WebDatabaseHost"* (%"class.blink::mojom::blink::WebDatabaseHostInterceptorForTesting"*)*, %"class.blink::mojom::blink::WebDatabaseHost"* (%"class.blink::mojom::blink::WebDatabaseHostInterceptorForTesting"*)** %7, i64 16
  %9 = load %"class.blink::mojom::blink::WebDatabaseHost"* (%"class.blink::mojom::blink::WebDatabaseHostInterceptorForTesting"*)*, %"class.blink::mojom::blink::WebDatabaseHost"* (%"class.blink::mojom::blink::WebDatabaseHostInterceptorForTesting"*)** %8, align 8
  %10 = tail call %"class.blink::mojom::blink::WebDatabaseHost"* %9(%"class.blink::mojom::blink::WebDatabaseHostInterceptorForTesting"* %0) #10
  %11 = getelementptr inbounds %"class.base::OnceCallback.8", %"class.base::OnceCallback.8"* %3, i64 0, i32 0, i32 0, i32 0
  %12 = bitcast %"class.base::OnceCallback.8"* %3 to i64*
  %13 = load i64, i64* %12, align 8
  %14 = bitcast %"class.base::OnceCallback.8"* %5 to i64*
  store i64 %13, i64* %14, align 8
  store %"class.base::internal::BindStateBase"* null, %"class.base::internal::BindStateBase"** %11, align 8
  %15 = bitcast %"class.blink::mojom::blink::WebDatabaseHost"* %10 to void (%"class.blink::mojom::blink::WebDatabaseHost"*, %"class.WTF::String"*, i1, %"class.base::OnceCallback.8"*)***
  %16 = load void (%"class.blink::mojom::blink::WebDatabaseHost"*, %"class.WTF::String"*, i1, %"class.base::OnceCallback.8"*)**, void (%"class.blink::mojom::blink::WebDatabaseHost"*, %"class.WTF::String"*, i1, %"class.base::OnceCallback.8"*)*** %15, align 8
  %17 = getelementptr inbounds void (%"class.blink::mojom::blink::WebDatabaseHost"*, %"class.WTF::String"*, i1, %"class.base::OnceCallback.8"*)*, void (%"class.blink::mojom::blink::WebDatabaseHost"*, %"class.WTF::String"*, i1, %"class.base::OnceCallback.8"*)** %16, i64 5
  %18 = load void (%"class.blink::mojom::blink::WebDatabaseHost"*, %"class.WTF::String"*, i1, %"class.base::OnceCallback.8"*)*, void (%"class.blink::mojom::blink::WebDatabaseHost"*, %"class.WTF::String"*, i1, %"class.base::OnceCallback.8"*)** %17, align 8
  call void %18(%"class.blink::mojom::blink::WebDatabaseHost"* %10, %"class.WTF::String"* dereferenceable(8) %1, i1 zeroext %2, %"class.base::OnceCallback.8"* nonnull %5) #10
  %19 = getelementptr inbounds %"class.base::OnceCallback.8", %"class.base::OnceCallback.8"* %5, i64 0, i32 0
  call void @_ZN4base8internal12CallbackBaseD2Ev(%"class.base::internal::CallbackBase"* nonnull %19) #10
  ret void
}

; Function Attrs: nounwind ssp uwtable
define hidden void @_ZN5blink5mojom5blink36WebDatabaseHostInterceptorForTesting17GetFileAttributesERKN3WTF6StringEN4base12OnceCallbackIFviEEE(%"class.blink::mojom::blink::WebDatabaseHostInterceptorForTesting"*, %"class.WTF::String"* dereferenceable(8), %"class.base::OnceCallback.8"* nocapture) unnamed_addr #0 align 2 {
  %4 = alloca %"class.base::OnceCallback.8", align 8
  %5 = bitcast %"class.blink::mojom::blink::WebDatabaseHostInterceptorForTesting"* %0 to %"class.blink::mojom::blink::WebDatabaseHost"* (%"class.blink::mojom::blink::WebDatabaseHostInterceptorForTesting"*)***
  %6 = load %"class.blink::mojom::blink::WebDatabaseHost"* (%"class.blink::mojom::blink::WebDatabaseHostInterceptorForTesting"*)**, %"class.blink::mojom::blink::WebDatabaseHost"* (%"class.blink::mojom::blink::WebDatabaseHostInterceptorForTesting"*)*** %5, align 8
  %7 = getelementptr inbounds %"class.blink::mojom::blink::WebDatabaseHost"* (%"class.blink::mojom::blink::WebDatabaseHostInterceptorForTesting"*)*, %"class.blink::mojom::blink::WebDatabaseHost"* (%"class.blink::mojom::blink::WebDatabaseHostInterceptorForTesting"*)** %6, i64 16
  %8 = load %"class.blink::mojom::blink::WebDatabaseHost"* (%"class.blink::mojom::blink::WebDatabaseHostInterceptorForTesting"*)*, %"class.blink::mojom::blink::WebDatabaseHost"* (%"class.blink::mojom::blink::WebDatabaseHostInterceptorForTesting"*)** %7, align 8
  %9 = tail call %"class.blink::mojom::blink::WebDatabaseHost"* %8(%"class.blink::mojom::blink::WebDatabaseHostInterceptorForTesting"* %0) #10
  %10 = getelementptr inbounds %"class.base::OnceCallback.8", %"class.base::OnceCallback.8"* %2, i64 0, i32 0, i32 0, i32 0
  %11 = bitcast %"class.base::OnceCallback.8"* %2 to i64*
  %12 = load i64, i64* %11, align 8
  %13 = bitcast %"class.base::OnceCallback.8"* %4 to i64*
  store i64 %12, i64* %13, align 8
  store %"class.base::internal::BindStateBase"* null, %"class.base::internal::BindStateBase"** %10, align 8
  %14 = bitcast %"class.blink::mojom::blink::WebDatabaseHost"* %9 to void (%"class.blink::mojom::blink::WebDatabaseHost"*, %"class.WTF::String"*, %"class.base::OnceCallback.8"*)***
  %15 = load void (%"class.blink::mojom::blink::WebDatabaseHost"*, %"class.WTF::String"*, %"class.base::OnceCallback.8"*)**, void (%"class.blink::mojom::blink::WebDatabaseHost"*, %"class.WTF::String"*, %"class.base::OnceCallback.8"*)*** %14, align 8
  %16 = getelementptr inbounds void (%"class.blink::mojom::blink::WebDatabaseHost"*, %"class.WTF::String"*, %"class.base::OnceCallback.8"*)*, void (%"class.blink::mojom::blink::WebDatabaseHost"*, %"class.WTF::String"*, %"class.base::OnceCallback.8"*)** %15, i64 7
  %17 = load void (%"class.blink::mojom::blink::WebDatabaseHost"*, %"class.WTF::String"*, %"class.base::OnceCallback.8"*)*, void (%"class.blink::mojom::blink::WebDatabaseHost"*, %"class.WTF::String"*, %"class.base::OnceCallback.8"*)** %16, align 8
  call void %17(%"class.blink::mojom::blink::WebDatabaseHost"* %9, %"class.WTF::String"* dereferenceable(8) %1, %"class.base::OnceCallback.8"* nonnull %4) #10
  %18 = getelementptr inbounds %"class.base::OnceCallback.8", %"class.base::OnceCallback.8"* %4, i64 0, i32 0
  call void @_ZN4base8internal12CallbackBaseD2Ev(%"class.base::internal::CallbackBase"* nonnull %18) #10
  ret void
}

; Function Attrs: nounwind ssp uwtable
define hidden void @_ZN5blink5mojom5blink36WebDatabaseHostInterceptorForTesting11SetFileSizeERKN3WTF6StringElN4base12OnceCallbackIFvbEEE(%"class.blink::mojom::blink::WebDatabaseHostInterceptorForTesting"*, %"class.WTF::String"* dereferenceable(8), i64, %"class.base::OnceCallback.9"* nocapture) unnamed_addr #0 align 2 {
  %5 = alloca %"class.base::OnceCallback.9", align 8
  %6 = bitcast %"class.blink::mojom::blink::WebDatabaseHostInterceptorForTesting"* %0 to %"class.blink::mojom::blink::WebDatabaseHost"* (%"class.blink::mojom::blink::WebDatabaseHostInterceptorForTesting"*)***
  %7 = load %"class.blink::mojom::blink::WebDatabaseHost"* (%"class.blink::mojom::blink::WebDatabaseHostInterceptorForTesting"*)**, %"class.blink::mojom::blink::WebDatabaseHost"* (%"class.blink::mojom::blink::WebDatabaseHostInterceptorForTesting"*)*** %6, align 8
  %8 = getelementptr inbounds %"class.blink::mojom::blink::WebDatabaseHost"* (%"class.blink::mojom::blink::WebDatabaseHostInterceptorForTesting"*)*, %"class.blink::mojom::blink::WebDatabaseHost"* (%"class.blink::mojom::blink::WebDatabaseHostInterceptorForTesting"*)** %7, i64 16
  %9 = load %"class.blink::mojom::blink::WebDatabaseHost"* (%"class.blink::mojom::blink::WebDatabaseHostInterceptorForTesting"*)*, %"class.blink::mojom::blink::WebDatabaseHost"* (%"class.blink::mojom::blink::WebDatabaseHostInterceptorForTesting"*)** %8, align 8
  %10 = tail call %"class.blink::mojom::blink::WebDatabaseHost"* %9(%"class.blink::mojom::blink::WebDatabaseHostInterceptorForTesting"* %0) #10
  %11 = getelementptr inbounds %"class.base::OnceCallback.9", %"class.base::OnceCallback.9"* %3, i64 0, i32 0, i32 0, i32 0
  %12 = bitcast %"class.base::OnceCallback.9"* %3 to i64*
  %13 = load i64, i64* %12, align 8
  %14 = bitcast %"class.base::OnceCallback.9"* %5 to i64*
  store i64 %13, i64* %14, align 8
  store %"class.base::internal::BindStateBase"* null, %"class.base::internal::BindStateBase"** %11, align 8
  %15 = bitcast %"class.blink::mojom::blink::WebDatabaseHost"* %10 to void (%"class.blink::mojom::blink::WebDatabaseHost"*, %"class.WTF::String"*, i64, %"class.base::OnceCallback.9"*)***
  %16 = load void (%"class.blink::mojom::blink::WebDatabaseHost"*, %"class.WTF::String"*, i64, %"class.base::OnceCallback.9"*)**, void (%"class.blink::mojom::blink::WebDatabaseHost"*, %"class.WTF::String"*, i64, %"class.base::OnceCallback.9"*)*** %15, align 8
  %17 = getelementptr inbounds void (%"class.blink::mojom::blink::WebDatabaseHost"*, %"class.WTF::String"*, i64, %"class.base::OnceCallback.9"*)*, void (%"class.blink::mojom::blink::WebDatabaseHost"*, %"class.WTF::String"*, i64, %"class.base::OnceCallback.9"*)** %16, i64 9
  %18 = load void (%"class.blink::mojom::blink::WebDatabaseHost"*, %"class.WTF::String"*, i64, %"class.base::OnceCallback.9"*)*, void (%"class.blink::mojom::blink::WebDatabaseHost"*, %"class.WTF::String"*, i64, %"class.base::OnceCallback.9"*)** %17, align 8
  call void %18(%"class.blink::mojom::blink::WebDatabaseHost"* %10, %"class.WTF::String"* dereferenceable(8) %1, i64 %2, %"class.base::OnceCallback.9"* nonnull %5) #10
  %19 = getelementptr inbounds %"class.base::OnceCallback.9", %"class.base::OnceCallback.9"* %5, i64 0, i32 0
  call void @_ZN4base8internal12CallbackBaseD2Ev(%"class.base::internal::CallbackBase"* nonnull %19) #10
  ret void
}

; Function Attrs: nounwind ssp uwtable
define hidden void @_ZN5blink5mojom5blink36WebDatabaseHostInterceptorForTesting17GetSpaceAvailableERK13scoped_refptrIKNS_14SecurityOriginEEN4base12OnceCallbackIFvlEEE(%"class.blink::mojom::blink::WebDatabaseHostInterceptorForTesting"*, %class.scoped_refptr* dereferenceable(8), %"class.base::OnceCallback.10"* nocapture) unnamed_addr #0 align 2 {
  %4 = alloca %"class.base::OnceCallback.10", align 8
  %5 = bitcast %"class.blink::mojom::blink::WebDatabaseHostInterceptorForTesting"* %0 to %"class.blink::mojom::blink::WebDatabaseHost"* (%"class.blink::mojom::blink::WebDatabaseHostInterceptorForTesting"*)***
  %6 = load %"class.blink::mojom::blink::WebDatabaseHost"* (%"class.blink::mojom::blink::WebDatabaseHostInterceptorForTesting"*)**, %"class.blink::mojom::blink::WebDatabaseHost"* (%"class.blink::mojom::blink::WebDatabaseHostInterceptorForTesting"*)*** %5, align 8
  %7 = getelementptr inbounds %"class.blink::mojom::blink::WebDatabaseHost"* (%"class.blink::mojom::blink::WebDatabaseHostInterceptorForTesting"*)*, %"class.blink::mojom::blink::WebDatabaseHost"* (%"class.blink::mojom::blink::WebDatabaseHostInterceptorForTesting"*)** %6, i64 16
  %8 = load %"class.blink::mojom::blink::WebDatabaseHost"* (%"class.blink::mojom::blink::WebDatabaseHostInterceptorForTesting"*)*, %"class.blink::mojom::blink::WebDatabaseHost"* (%"class.blink::mojom::blink::WebDatabaseHostInterceptorForTesting"*)** %7, align 8
  %9 = tail call %"class.blink::mojom::blink::WebDatabaseHost"* %8(%"class.blink::mojom::blink::WebDatabaseHostInterceptorForTesting"* %0) #10
  %10 = getelementptr inbounds %"class.base::OnceCallback.10", %"class.base::OnceCallback.10"* %2, i64 0, i32 0, i32 0, i32 0
  %11 = bitcast %"class.base::OnceCallback.10"* %2 to i64*
  %12 = load i64, i64* %11, align 8
  %13 = bitcast %"class.base::OnceCallback.10"* %4 to i64*
  store i64 %12, i64* %13, align 8
  store %"class.base::internal::BindStateBase"* null, %"class.base::internal::BindStateBase"** %10, align 8
  %14 = bitcast %"class.blink::mojom::blink::WebDatabaseHost"* %9 to void (%"class.blink::mojom::blink::WebDatabaseHost"*, %class.scoped_refptr*, %"class.base::OnceCallback.10"*)***
  %15 = load void (%"class.blink::mojom::blink::WebDatabaseHost"*, %class.scoped_refptr*, %"class.base::OnceCallback.10"*)**, void (%"class.blink::mojom::blink::WebDatabaseHost"*, %class.scoped_refptr*, %"class.base::OnceCallback.10"*)*** %14, align 8
  %16 = getelementptr inbounds void (%"class.blink::mojom::blink::WebDatabaseHost"*, %class.scoped_refptr*, %"class.base::OnceCallback.10"*)*, void (%"class.blink::mojom::blink::WebDatabaseHost"*, %class.scoped_refptr*, %"class.base::OnceCallback.10"*)** %15, i64 11
  %17 = load void (%"class.blink::mojom::blink::WebDatabaseHost"*, %class.scoped_refptr*, %"class.base::OnceCallback.10"*)*, void (%"class.blink::mojom::blink::WebDatabaseHost"*, %class.scoped_refptr*, %"class.base::OnceCallback.10"*)** %16, align 8
  call void %17(%"class.blink::mojom::blink::WebDatabaseHost"* %9, %class.scoped_refptr* dereferenceable(8) %1, %"class.base::OnceCallback.10"* nonnull %4) #10
  %18 = getelementptr inbounds %"class.base::OnceCallback.10", %"class.base::OnceCallback.10"* %4, i64 0, i32 0
  call void @_ZN4base8internal12CallbackBaseD2Ev(%"class.base::internal::CallbackBase"* nonnull %18) #10
  ret void
}

; Function Attrs: nounwind
declare void @_ZN4base8internal12CallbackBaseD2Ev(%"class.base::internal::CallbackBase"*) unnamed_addr #3

; Function Attrs: nounwind ssp uwtable
define hidden void @_ZN5blink5mojom5blink36WebDatabaseHostInterceptorForTesting6OpenedERK13scoped_refptrIKNS_14SecurityOriginEERKN3WTF6StringESC_(%"class.blink::mojom::blink::WebDatabaseHostInterceptorForTesting"*, %class.scoped_refptr* dereferenceable(8), %"class.WTF::String"* dereferenceable(8), %"class.WTF::String"* dereferenceable(8)) unnamed_addr #0 align 2 {
  %5 = bitcast %"class.blink::mojom::blink::WebDatabaseHostInterceptorForTesting"* %0 to %"class.blink::mojom::blink::WebDatabaseHost"* (%"class.blink::mojom::blink::WebDatabaseHostInterceptorForTesting"*)***
  %6 = load %"class.blink::mojom::blink::WebDatabaseHost"* (%"class.blink::mojom::blink::WebDatabaseHostInterceptorForTesting"*)**, %"class.blink::mojom::blink::WebDatabaseHost"* (%"class.blink::mojom::blink::WebDatabaseHostInterceptorForTesting"*)*** %5, align 8
  %7 = getelementptr inbounds %"class.blink::mojom::blink::WebDatabaseHost"* (%"class.blink::mojom::blink::WebDatabaseHostInterceptorForTesting"*)*, %"class.blink::mojom::blink::WebDatabaseHost"* (%"class.blink::mojom::blink::WebDatabaseHostInterceptorForTesting"*)** %6, i64 16
  %8 = load %"class.blink::mojom::blink::WebDatabaseHost"* (%"class.blink::mojom::blink::WebDatabaseHostInterceptorForTesting"*)*, %"class.blink::mojom::blink::WebDatabaseHost"* (%"class.blink::mojom::blink::WebDatabaseHostInterceptorForTesting"*)** %7, align 8
  %9 = tail call %"class.blink::mojom::blink::WebDatabaseHost"* %8(%"class.blink::mojom::blink::WebDatabaseHostInterceptorForTesting"* %0) #10
  %10 = bitcast %"class.blink::mojom::blink::WebDatabaseHost"* %9 to void (%"class.blink::mojom::blink::WebDatabaseHost"*, %class.scoped_refptr*, %"class.WTF::String"*, %"class.WTF::String"*)***
  %11 = load void (%"class.blink::mojom::blink::WebDatabaseHost"*, %class.scoped_refptr*, %"class.WTF::String"*, %"class.WTF::String"*)**, void (%"class.blink::mojom::blink::WebDatabaseHost"*, %class.scoped_refptr*, %"class.WTF::String"*, %"class.WTF::String"*)*** %10, align 8
  %12 = getelementptr inbounds void (%"class.blink::mojom::blink::WebDatabaseHost"*, %class.scoped_refptr*, %"class.WTF::String"*, %"class.WTF::String"*)*, void (%"class.blink::mojom::blink::WebDatabaseHost"*, %class.scoped_refptr*, %"class.WTF::String"*, %"class.WTF::String"*)** %11, i64 12
  %13 = load void (%"class.blink::mojom::blink::WebDatabaseHost"*, %class.scoped_refptr*, %"class.WTF::String"*, %"class.WTF::String"*)*, void (%"class.blink::mojom::blink::WebDatabaseHost"*, %class.scoped_refptr*, %"class.WTF::String"*, %"class.WTF::String"*)** %12, align 8
  tail call void %13(%"class.blink::mojom::blink::WebDatabaseHost"* %9, %class.scoped_refptr* dereferenceable(8) %1, %"class.WTF::String"* dereferenceable(8) %2, %"class.WTF::String"* dereferenceable(8) %3) #10
  ret void
}

; Function Attrs: nounwind ssp uwtable
define hidden void @_ZN5blink5mojom5blink36WebDatabaseHostInterceptorForTesting8ModifiedERK13scoped_refptrIKNS_14SecurityOriginEERKN3WTF6StringE(%"class.blink::mojom::blink::WebDatabaseHostInterceptorForTesting"*, %class.scoped_refptr* dereferenceable(8), %"class.WTF::String"* dereferenceable(8)) unnamed_addr #0 align 2 {
  %4 = bitcast %"class.blink::mojom::blink::WebDatabaseHostInterceptorForTesting"* %0 to %"class.blink::mojom::blink::WebDatabaseHost"* (%"class.blink::mojom::blink::WebDatabaseHostInterceptorForTesting"*)***
  %5 = load %"class.blink::mojom::blink::WebDatabaseHost"* (%"class.blink::mojom::blink::WebDatabaseHostInterceptorForTesting"*)**, %"class.blink::mojom::blink::WebDatabaseHost"* (%"class.blink::mojom::blink::WebDatabaseHostInterceptorForTesting"*)*** %4, align 8
  %6 = getelementptr inbounds %"class.blink::mojom::blink::WebDatabaseHost"* (%"class.blink::mojom::blink::WebDatabaseHostInterceptorForTesting"*)*, %"class.blink::mojom::blink::WebDatabaseHost"* (%"class.blink::mojom::blink::WebDatabaseHostInterceptorForTesting"*)** %5, i64 16
  %7 = load %"class.blink::mojom::blink::WebDatabaseHost"* (%"class.blink::mojom::blink::WebDatabaseHostInterceptorForTesting"*)*, %"class.blink::mojom::blink::WebDatabaseHost"* (%"class.blink::mojom::blink::WebDatabaseHostInterceptorForTesting"*)** %6, align 8
  %8 = tail call %"class.blink::mojom::blink::WebDatabaseHost"* %7(%"class.blink::mojom::blink::WebDatabaseHostInterceptorForTesting"* %0) #10
  %9 = bitcast %"class.blink::mojom::blink::WebDatabaseHost"* %8 to void (%"class.blink::mojom::blink::WebDatabaseHost"*, %class.scoped_refptr*, %"class.WTF::String"*)***
  %10 = load void (%"class.blink::mojom::blink::WebDatabaseHost"*, %class.scoped_refptr*, %"class.WTF::String"*)**, void (%"class.blink::mojom::blink::WebDatabaseHost"*, %class.scoped_refptr*, %"class.WTF::String"*)*** %9, align 8
  %11 = getelementptr inbounds void (%"class.blink::mojom::blink::WebDatabaseHost"*, %class.scoped_refptr*, %"class.WTF::String"*)*, void (%"class.blink::mojom::blink::WebDatabaseHost"*, %class.scoped_refptr*, %"class.WTF::String"*)** %10, i64 13
  %12 = load void (%"class.blink::mojom::blink::WebDatabaseHost"*, %class.scoped_refptr*, %"class.WTF::String"*)*, void (%"class.blink::mojom::blink::WebDatabaseHost"*, %class.scoped_refptr*, %"class.WTF::String"*)** %11, align 8
  tail call void %12(%"class.blink::mojom::blink::WebDatabaseHost"* %8, %class.scoped_refptr* dereferenceable(8) %1, %"class.WTF::String"* dereferenceable(8) %2) #10
  ret void
}

; Function Attrs: nounwind ssp uwtable
define hidden void @_ZN5blink5mojom5blink36WebDatabaseHostInterceptorForTesting6ClosedERK13scoped_refptrIKNS_14SecurityOriginEERKN3WTF6StringE(%"class.blink::mojom::blink::WebDatabaseHostInterceptorForTesting"*, %class.scoped_refptr* dereferenceable(8), %"class.WTF::String"* dereferenceable(8)) unnamed_addr #0 align 2 {
  %4 = bitcast %"class.blink::mojom::blink::WebDatabaseHostInterceptorForTesting"* %0 to %"class.blink::mojom::blink::WebDatabaseHost"* (%"class.blink::mojom::blink::WebDatabaseHostInterceptorForTesting"*)***
  %5 = load %"class.blink::mojom::blink::WebDatabaseHost"* (%"class.blink::mojom::blink::WebDatabaseHostInterceptorForTesting"*)**, %"class.blink::mojom::blink::WebDatabaseHost"* (%"class.blink::mojom::blink::WebDatabaseHostInterceptorForTesting"*)*** %4, align 8
  %6 = getelementptr inbounds %"class.blink::mojom::blink::WebDatabaseHost"* (%"class.blink::mojom::blink::WebDatabaseHostInterceptorForTesting"*)*, %"class.blink::mojom::blink::WebDatabaseHost"* (%"class.blink::mojom::blink::WebDatabaseHostInterceptorForTesting"*)** %5, i64 16
  %7 = load %"class.blink::mojom::blink::WebDatabaseHost"* (%"class.blink::mojom::blink::WebDatabaseHostInterceptorForTesting"*)*, %"class.blink::mojom::blink::WebDatabaseHost"* (%"class.blink::mojom::blink::WebDatabaseHostInterceptorForTesting"*)** %6, align 8
  %8 = tail call %"class.blink::mojom::blink::WebDatabaseHost"* %7(%"class.blink::mojom::blink::WebDatabaseHostInterceptorForTesting"* %0) #10
  %9 = bitcast %"class.blink::mojom::blink::WebDatabaseHost"* %8 to void (%"class.blink::mojom::blink::WebDatabaseHost"*, %class.scoped_refptr*, %"class.WTF::String"*)***
  %10 = load void (%"class.blink::mojom::blink::WebDatabaseHost"*, %class.scoped_refptr*, %"class.WTF::String"*)**, void (%"class.blink::mojom::blink::WebDatabaseHost"*, %class.scoped_refptr*, %"class.WTF::String"*)*** %9, align 8
  %11 = getelementptr inbounds void (%"class.blink::mojom::blink::WebDatabaseHost"*, %class.scoped_refptr*, %"class.WTF::String"*)*, void (%"class.blink::mojom::blink::WebDatabaseHost"*, %class.scoped_refptr*, %"class.WTF::String"*)** %10, i64 14
  %12 = load void (%"class.blink::mojom::blink::WebDatabaseHost"*, %class.scoped_refptr*, %"class.WTF::String"*)*, void (%"class.blink::mojom::blink::WebDatabaseHost"*, %class.scoped_refptr*, %"class.WTF::String"*)** %11, align 8
  tail call void %12(%"class.blink::mojom::blink::WebDatabaseHost"* %8, %class.scoped_refptr* dereferenceable(8) %1, %"class.WTF::String"* dereferenceable(8) %2) #10
  ret void
}

; Function Attrs: nounwind ssp uwtable
define hidden void @_ZN5blink5mojom5blink36WebDatabaseHostInterceptorForTesting17HandleSqliteErrorERK13scoped_refptrIKNS_14SecurityOriginEERKN3WTF6StringEi(%"class.blink::mojom::blink::WebDatabaseHostInterceptorForTesting"*, %class.scoped_refptr* dereferenceable(8), %"class.WTF::String"* dereferenceable(8), i32) unnamed_addr #0 align 2 {
  %5 = bitcast %"class.blink::mojom::blink::WebDatabaseHostInterceptorForTesting"* %0 to %"class.blink::mojom::blink::WebDatabaseHost"* (%"class.blink::mojom::blink::WebDatabaseHostInterceptorForTesting"*)***
  %6 = load %"class.blink::mojom::blink::WebDatabaseHost"* (%"class.blink::mojom::blink::WebDatabaseHostInterceptorForTesting"*)**, %"class.blink::mojom::blink::WebDatabaseHost"* (%"class.blink::mojom::blink::WebDatabaseHostInterceptorForTesting"*)*** %5, align 8
  %7 = getelementptr inbounds %"class.blink::mojom::blink::WebDatabaseHost"* (%"class.blink::mojom::blink::WebDatabaseHostInterceptorForTesting"*)*, %"class.blink::mojom::blink::WebDatabaseHost"* (%"class.blink::mojom::blink::WebDatabaseHostInterceptorForTesting"*)** %6, i64 16
  %8 = load %"class.blink::mojom::blink::WebDatabaseHost"* (%"class.blink::mojom::blink::WebDatabaseHostInterceptorForTesting"*)*, %"class.blink::mojom::blink::WebDatabaseHost"* (%"class.blink::mojom::blink::WebDatabaseHostInterceptorForTesting"*)** %7, align 8
  %9 = tail call %"class.blink::mojom::blink::WebDatabaseHost"* %8(%"class.blink::mojom::blink::WebDatabaseHostInterceptorForTesting"* %0) #10
  %10 = bitcast %"class.blink::mojom::blink::WebDatabaseHost"* %9 to void (%"class.blink::mojom::blink::WebDatabaseHost"*, %class.scoped_refptr*, %"class.WTF::String"*, i32)***
  %11 = load void (%"class.blink::mojom::blink::WebDatabaseHost"*, %class.scoped_refptr*, %"class.WTF::String"*, i32)**, void (%"class.blink::mojom::blink::WebDatabaseHost"*, %class.scoped_refptr*, %"class.WTF::String"*, i32)*** %10, align 8
  %12 = getelementptr inbounds void (%"class.blink::mojom::blink::WebDatabaseHost"*, %class.scoped_refptr*, %"class.WTF::String"*, i32)*, void (%"class.blink::mojom::blink::WebDatabaseHost"*, %class.scoped_refptr*, %"class.WTF::String"*, i32)** %11, i64 15
  %13 = load void (%"class.blink::mojom::blink::WebDatabaseHost"*, %class.scoped_refptr*, %"class.WTF::String"*, i32)*, void (%"class.blink::mojom::blink::WebDatabaseHost"*, %class.scoped_refptr*, %"class.WTF::String"*, i32)** %12, align 8
  tail call void %13(%"class.blink::mojom::blink::WebDatabaseHost"* %9, %class.scoped_refptr* dereferenceable(8) %1, %"class.WTF::String"* dereferenceable(8) %2, i32 %3) #10
  ret void
}

; Function Attrs: nofree norecurse nounwind ssp uwtable writeonly
define hidden void @_ZN5blink5mojom5blink26WebDatabaseHostAsyncWaiterC2EPNS1_15WebDatabaseHostE(%"class.blink::mojom::blink::WebDatabaseHostAsyncWaiter"* nocapture, %"class.blink::mojom::blink::WebDatabaseHost"*) unnamed_addr #1 align 2 {
  %3 = getelementptr inbounds %"class.blink::mojom::blink::WebDatabaseHostAsyncWaiter", %"class.blink::mojom::blink::WebDatabaseHostAsyncWaiter"* %0, i64 0, i32 0
  store %"class.blink::mojom::blink::WebDatabaseHost"* %1, %"class.blink::mojom::blink::WebDatabaseHost"** %3, align 8
  ret void
}

; Function Attrs: norecurse nounwind readnone ssp uwtable
define hidden void @_ZN5blink5mojom5blink26WebDatabaseHostAsyncWaiterD2Ev(%"class.blink::mojom::blink::WebDatabaseHostAsyncWaiter"* nocapture) unnamed_addr #2 align 2 {
  ret void
}

; Function Attrs: nounwind ssp uwtable
define hidden void @_ZN5blink5mojom5blink26WebDatabaseHostAsyncWaiter8OpenFileERKN3WTF6StringEiPN4base4FileE(%"class.blink::mojom::blink::WebDatabaseHostAsyncWaiter"* nocapture readonly, %"class.WTF::String"* dereferenceable(8), i32, %"class.base::File"*) local_unnamed_addr #0 align 2 {
  %5 = alloca %"class.base::RunLoop", align 8
  %6 = alloca %"class.base::OnceCallback", align 8
  %7 = alloca %"class.base::Location", align 8
  %8 = ptrtoint %"class.base::File"* %3 to i64
  %9 = bitcast %"class.base::RunLoop"* %5 to i8*
  call void @llvm.lifetime.start.p0i8(i64 48, i8* nonnull %9) #10
  call void @llvm.memset.p0i8.i64(i8* nonnull align 8 %9, i8 -86, i64 48, i1 false)
  call void @_ZN4base7RunLoopC1ENS0_4TypeE(%"class.base::RunLoop"* nonnull %5, i32 0) #10
  %10 = getelementptr inbounds %"class.blink::mojom::blink::WebDatabaseHostAsyncWaiter", %"class.blink::mojom::blink::WebDatabaseHostAsyncWaiter"* %0, i64 0, i32 0
  %11 = load %"class.blink::mojom::blink::WebDatabaseHost"*, %"class.blink::mojom::blink::WebDatabaseHost"** %10, align 8
  %12 = ptrtoint %"class.base::RunLoop"* %5 to i64
  %13 = call i8* @_Znwm(i64 56) #11, !noalias !2
  %14 = bitcast i8* %13 to %"class.base::internal::BindStateBase"*
  call void @_ZN4base8internal13BindStateBaseC2EPFvvEPFvPKS1_E(%"class.base::internal::BindStateBase"* nonnull %14, void ()* bitcast (void (%"class.base::internal::BindStateBase"*, %"class.base::File"*)* @"_ZN4base8internal7InvokerINS0_9BindStateIZN5blink5mojom5blink26WebDatabaseHostAsyncWaiter8OpenFileERKN3WTF6StringEiPNS_4FileEE3$_0JPNS_7RunLoopESC_EEEFvSB_EE7RunOnceEPNS0_13BindStateBaseEOSB_" to void ()*), void (%"class.base::internal::BindStateBase"*)* nonnull @"_ZN4base8internal9BindStateIZN5blink5mojom5blink26WebDatabaseHostAsyncWaiter8OpenFileERKN3WTF6StringEiPNS_4FileEE3$_0JPNS_7RunLoopESB_EE7DestroyEPKNS0_13BindStateBaseE") #10, !noalias !2
  %15 = getelementptr inbounds i8, i8* %13, i64 40
  %16 = bitcast i8* %15 to i64*
  store i64 %12, i64* %16, align 8, !noalias !2
  %17 = getelementptr inbounds i8, i8* %13, i64 48
  %18 = bitcast i8* %17 to i64*
  store i64 %8, i64* %18, align 8, !noalias !2
  %19 = bitcast %"class.base::OnceCallback"* %6 to i8**
  store i8* %13, i8** %19, align 8, !alias.scope !2
  %20 = bitcast %"class.blink::mojom::blink::WebDatabaseHost"* %11 to void (%"class.blink::mojom::blink::WebDatabaseHost"*, %"class.WTF::String"*, i32, %"class.base::OnceCallback"*)***
  %21 = load void (%"class.blink::mojom::blink::WebDatabaseHost"*, %"class.WTF::String"*, i32, %"class.base::OnceCallback"*)**, void (%"class.blink::mojom::blink::WebDatabaseHost"*, %"class.WTF::String"*, i32, %"class.base::OnceCallback"*)*** %20, align 8
  %22 = getelementptr inbounds void (%"class.blink::mojom::blink::WebDatabaseHost"*, %"class.WTF::String"*, i32, %"class.base::OnceCallback"*)*, void (%"class.blink::mojom::blink::WebDatabaseHost"*, %"class.WTF::String"*, i32, %"class.base::OnceCallback"*)** %21, i64 3
  %23 = load void (%"class.blink::mojom::blink::WebDatabaseHost"*, %"class.WTF::String"*, i32, %"class.base::OnceCallback"*)*, void (%"class.blink::mojom::blink::WebDatabaseHost"*, %"class.WTF::String"*, i32, %"class.base::OnceCallback"*)** %22, align 8
  call void %23(%"class.blink::mojom::blink::WebDatabaseHost"* %11, %"class.WTF::String"* dereferenceable(8) %1, i32 %2, %"class.base::OnceCallback"* nonnull %6) #10
  %24 = getelementptr inbounds %"class.base::OnceCallback", %"class.base::OnceCallback"* %6, i64 0, i32 0
  call void @_ZN4base8internal12CallbackBaseD2Ev(%"class.base::internal::CallbackBase"* nonnull %24) #10
  %25 = bitcast %"class.base::Location"* %7 to i8*
  call void @llvm.lifetime.start.p0i8(i64 32, i8* nonnull %25) #10
  call void @_ZN4base8Location7CurrentEPKcS2_i(%"class.base::Location"* nonnull sret %7, i8* getelementptr inbounds ([9 x i8], [9 x i8]* @.str, i64 0, i64 0), i8* getelementptr inbounds ([86 x i8], [86 x i8]* @.str.1, i64 0, i64 0), i32 94) #10
  call void @_ZN4base7RunLoop3RunERKNS_8LocationE(%"class.base::RunLoop"* nonnull %5, %"class.base::Location"* nonnull dereferenceable(32) %7) #10
  call void @llvm.lifetime.end.p0i8(i64 32, i8* nonnull %25) #10
  call void @_ZN4base7RunLoopD1Ev(%"class.base::RunLoop"* nonnull %5) #10
  call void @llvm.lifetime.end.p0i8(i64 48, i8* nonnull %9) #10
  ret void
}

; Function Attrs: argmemonly nounwind
declare void @llvm.lifetime.start.p0i8(i64 immarg, i8* nocapture) #4

; Function Attrs: argmemonly nounwind
declare void @llvm.memset.p0i8.i64(i8* nocapture writeonly, i8, i64, i1 immarg) #4

declare void @_ZN4base7RunLoopC1ENS0_4TypeE(%"class.base::RunLoop"*, i32) unnamed_addr #5

; Function Attrs: argmemonly nounwind
declare void @llvm.lifetime.end.p0i8(i64 immarg, i8* nocapture) #4

declare void @_ZN4base7RunLoop3RunERKNS_8LocationE(%"class.base::RunLoop"*, %"class.base::Location"* dereferenceable(32)) local_unnamed_addr #5

declare void @_ZN4base8Location7CurrentEPKcS2_i(%"class.base::Location"* sret, i8*, i8*, i32) local_unnamed_addr #5

; Function Attrs: nounwind
declare void @_ZN4base7RunLoopD1Ev(%"class.base::RunLoop"*) unnamed_addr #3

; Function Attrs: nounwind ssp uwtable
define hidden void @_ZN5blink5mojom5blink26WebDatabaseHostAsyncWaiter10DeleteFileERKN3WTF6StringEbPi(%"class.blink::mojom::blink::WebDatabaseHostAsyncWaiter"* nocapture readonly, %"class.WTF::String"* dereferenceable(8), i1 zeroext, i32*) local_unnamed_addr #0 align 2 {
  %5 = alloca %"class.base::RunLoop", align 8
  %6 = alloca %"class.base::OnceCallback.8", align 8
  %7 = alloca %"class.base::Location", align 8
  %8 = ptrtoint i32* %3 to i64
  %9 = bitcast %"class.base::RunLoop"* %5 to i8*
  call void @llvm.lifetime.start.p0i8(i64 48, i8* nonnull %9) #10
  call void @llvm.memset.p0i8.i64(i8* nonnull align 8 %9, i8 -86, i64 48, i1 false)
  call void @_ZN4base7RunLoopC1ENS0_4TypeE(%"class.base::RunLoop"* nonnull %5, i32 0) #10
  %10 = getelementptr inbounds %"class.blink::mojom::blink::WebDatabaseHostAsyncWaiter", %"class.blink::mojom::blink::WebDatabaseHostAsyncWaiter"* %0, i64 0, i32 0
  %11 = load %"class.blink::mojom::blink::WebDatabaseHost"*, %"class.blink::mojom::blink::WebDatabaseHost"** %10, align 8
  %12 = ptrtoint %"class.base::RunLoop"* %5 to i64
  %13 = call i8* @_Znwm(i64 56) #11, !noalias !7
  %14 = bitcast i8* %13 to %"class.base::internal::BindStateBase"*
  call void @_ZN4base8internal13BindStateBaseC2EPFvvEPFvPKS1_E(%"class.base::internal::BindStateBase"* nonnull %14, void ()* bitcast (void (%"class.base::internal::BindStateBase"*, i32)* @"_ZN4base8internal7InvokerINS0_9BindStateIZN5blink5mojom5blink26WebDatabaseHostAsyncWaiter10DeleteFileERKN3WTF6StringEbPiE3$_1JPNS_7RunLoopESB_EEEFviEE7RunOnceEPNS0_13BindStateBaseEi" to void ()*), void (%"class.base::internal::BindStateBase"*)* nonnull @"_ZN4base8internal9BindStateIZN5blink5mojom5blink26WebDatabaseHostAsyncWaiter10DeleteFileERKN3WTF6StringEbPiE3$_1JPNS_7RunLoopESA_EE7DestroyEPKNS0_13BindStateBaseE") #10, !noalias !7
  %15 = getelementptr inbounds i8, i8* %13, i64 40
  %16 = bitcast i8* %15 to i64*
  store i64 %12, i64* %16, align 8, !noalias !7
  %17 = getelementptr inbounds i8, i8* %13, i64 48
  %18 = bitcast i8* %17 to i64*
  store i64 %8, i64* %18, align 8, !noalias !7
  %19 = bitcast %"class.base::OnceCallback.8"* %6 to i8**
  store i8* %13, i8** %19, align 8, !alias.scope !7
  %20 = bitcast %"class.blink::mojom::blink::WebDatabaseHost"* %11 to void (%"class.blink::mojom::blink::WebDatabaseHost"*, %"class.WTF::String"*, i1, %"class.base::OnceCallback.8"*)***
  %21 = load void (%"class.blink::mojom::blink::WebDatabaseHost"*, %"class.WTF::String"*, i1, %"class.base::OnceCallback.8"*)**, void (%"class.blink::mojom::blink::WebDatabaseHost"*, %"class.WTF::String"*, i1, %"class.base::OnceCallback.8"*)*** %20, align 8
  %22 = getelementptr inbounds void (%"class.blink::mojom::blink::WebDatabaseHost"*, %"class.WTF::String"*, i1, %"class.base::OnceCallback.8"*)*, void (%"class.blink::mojom::blink::WebDatabaseHost"*, %"class.WTF::String"*, i1, %"class.base::OnceCallback.8"*)** %21, i64 5
  %23 = load void (%"class.blink::mojom::blink::WebDatabaseHost"*, %"class.WTF::String"*, i1, %"class.base::OnceCallback.8"*)*, void (%"class.blink::mojom::blink::WebDatabaseHost"*, %"class.WTF::String"*, i1, %"class.base::OnceCallback.8"*)** %22, align 8
  call void %23(%"class.blink::mojom::blink::WebDatabaseHost"* %11, %"class.WTF::String"* dereferenceable(8) %1, i1 zeroext %2, %"class.base::OnceCallback.8"* nonnull %6) #10
  %24 = getelementptr inbounds %"class.base::OnceCallback.8", %"class.base::OnceCallback.8"* %6, i64 0, i32 0
  call void @_ZN4base8internal12CallbackBaseD2Ev(%"class.base::internal::CallbackBase"* nonnull %24) #10
  %25 = bitcast %"class.base::Location"* %7 to i8*
  call void @llvm.lifetime.start.p0i8(i64 32, i8* nonnull %25) #10
  call void @_ZN4base8Location7CurrentEPKcS2_i(%"class.base::Location"* nonnull sret %7, i8* getelementptr inbounds ([11 x i8], [11 x i8]* @.str.2, i64 0, i64 0), i8* getelementptr inbounds ([86 x i8], [86 x i8]* @.str.1, i64 0, i64 0), i32 109) #10
  call void @_ZN4base7RunLoop3RunERKNS_8LocationE(%"class.base::RunLoop"* nonnull %5, %"class.base::Location"* nonnull dereferenceable(32) %7) #10
  call void @llvm.lifetime.end.p0i8(i64 32, i8* nonnull %25) #10
  call void @_ZN4base7RunLoopD1Ev(%"class.base::RunLoop"* nonnull %5) #10
  call void @llvm.lifetime.end.p0i8(i64 48, i8* nonnull %9) #10
  ret void
}

; Function Attrs: nounwind ssp uwtable
define hidden void @_ZN5blink5mojom5blink26WebDatabaseHostAsyncWaiter17GetFileAttributesERKN3WTF6StringEPi(%"class.blink::mojom::blink::WebDatabaseHostAsyncWaiter"* nocapture readonly, %"class.WTF::String"* dereferenceable(8), i32*) local_unnamed_addr #0 align 2 {
  %4 = alloca %"class.base::RunLoop", align 8
  %5 = alloca %"class.base::OnceCallback.8", align 8
  %6 = alloca %"class.base::Location", align 8
  %7 = ptrtoint i32* %2 to i64
  %8 = bitcast %"class.base::RunLoop"* %4 to i8*
  call void @llvm.lifetime.start.p0i8(i64 48, i8* nonnull %8) #10
  call void @llvm.memset.p0i8.i64(i8* nonnull align 8 %8, i8 -86, i64 48, i1 false)
  call void @_ZN4base7RunLoopC1ENS0_4TypeE(%"class.base::RunLoop"* nonnull %4, i32 0) #10
  %9 = getelementptr inbounds %"class.blink::mojom::blink::WebDatabaseHostAsyncWaiter", %"class.blink::mojom::blink::WebDatabaseHostAsyncWaiter"* %0, i64 0, i32 0
  %10 = load %"class.blink::mojom::blink::WebDatabaseHost"*, %"class.blink::mojom::blink::WebDatabaseHost"** %9, align 8
  %11 = ptrtoint %"class.base::RunLoop"* %4 to i64
  %12 = call i8* @_Znwm(i64 56) #11, !noalias !12
  %13 = bitcast i8* %12 to %"class.base::internal::BindStateBase"*
  call void @_ZN4base8internal13BindStateBaseC2EPFvvEPFvPKS1_E(%"class.base::internal::BindStateBase"* nonnull %13, void ()* bitcast (void (%"class.base::internal::BindStateBase"*, i32)* @"_ZN4base8internal7InvokerINS0_9BindStateIZN5blink5mojom5blink26WebDatabaseHostAsyncWaiter17GetFileAttributesERKN3WTF6StringEPiE3$_2JPNS_7RunLoopESB_EEEFviEE7RunOnceEPNS0_13BindStateBaseEi" to void ()*), void (%"class.base::internal::BindStateBase"*)* nonnull @"_ZN4base8internal9BindStateIZN5blink5mojom5blink26WebDatabaseHostAsyncWaiter17GetFileAttributesERKN3WTF6StringEPiE3$_2JPNS_7RunLoopESA_EE7DestroyEPKNS0_13BindStateBaseE") #10, !noalias !12
  %14 = getelementptr inbounds i8, i8* %12, i64 40
  %15 = bitcast i8* %14 to i64*
  store i64 %11, i64* %15, align 8, !noalias !12
  %16 = getelementptr inbounds i8, i8* %12, i64 48
  %17 = bitcast i8* %16 to i64*
  store i64 %7, i64* %17, align 8, !noalias !12
  %18 = bitcast %"class.base::OnceCallback.8"* %5 to i8**
  store i8* %12, i8** %18, align 8, !alias.scope !12
  %19 = bitcast %"class.blink::mojom::blink::WebDatabaseHost"* %10 to void (%"class.blink::mojom::blink::WebDatabaseHost"*, %"class.WTF::String"*, %"class.base::OnceCallback.8"*)***
  %20 = load void (%"class.blink::mojom::blink::WebDatabaseHost"*, %"class.WTF::String"*, %"class.base::OnceCallback.8"*)**, void (%"class.blink::mojom::blink::WebDatabaseHost"*, %"class.WTF::String"*, %"class.base::OnceCallback.8"*)*** %19, align 8
  %21 = getelementptr inbounds void (%"class.blink::mojom::blink::WebDatabaseHost"*, %"class.WTF::String"*, %"class.base::OnceCallback.8"*)*, void (%"class.blink::mojom::blink::WebDatabaseHost"*, %"class.WTF::String"*, %"class.base::OnceCallback.8"*)** %20, i64 7
  %22 = load void (%"class.blink::mojom::blink::WebDatabaseHost"*, %"class.WTF::String"*, %"class.base::OnceCallback.8"*)*, void (%"class.blink::mojom::blink::WebDatabaseHost"*, %"class.WTF::String"*, %"class.base::OnceCallback.8"*)** %21, align 8
  call void %22(%"class.blink::mojom::blink::WebDatabaseHost"* %10, %"class.WTF::String"* dereferenceable(8) %1, %"class.base::OnceCallback.8"* nonnull %5) #10
  %23 = getelementptr inbounds %"class.base::OnceCallback.8", %"class.base::OnceCallback.8"* %5, i64 0, i32 0
  call void @_ZN4base8internal12CallbackBaseD2Ev(%"class.base::internal::CallbackBase"* nonnull %23) #10
  %24 = bitcast %"class.base::Location"* %6 to i8*
  call void @llvm.lifetime.start.p0i8(i64 32, i8* nonnull %24) #10
  call void @_ZN4base8Location7CurrentEPKcS2_i(%"class.base::Location"* nonnull sret %6, i8* getelementptr inbounds ([18 x i8], [18 x i8]* @.str.3, i64 0, i64 0), i8* getelementptr inbounds ([86 x i8], [86 x i8]* @.str.1, i64 0, i64 0), i32 124) #10
  call void @_ZN4base7RunLoop3RunERKNS_8LocationE(%"class.base::RunLoop"* nonnull %4, %"class.base::Location"* nonnull dereferenceable(32) %6) #10
  call void @llvm.lifetime.end.p0i8(i64 32, i8* nonnull %24) #10
  call void @_ZN4base7RunLoopD1Ev(%"class.base::RunLoop"* nonnull %4) #10
  call void @llvm.lifetime.end.p0i8(i64 48, i8* nonnull %8) #10
  ret void
}

; Function Attrs: nounwind ssp uwtable
define hidden void @_ZN5blink5mojom5blink26WebDatabaseHostAsyncWaiter11SetFileSizeERKN3WTF6StringElPb(%"class.blink::mojom::blink::WebDatabaseHostAsyncWaiter"* nocapture readonly, %"class.WTF::String"* dereferenceable(8), i64, i8*) local_unnamed_addr #0 align 2 {
  %5 = alloca %"class.base::RunLoop", align 8
  %6 = alloca %"class.base::OnceCallback.9", align 8
  %7 = alloca %"class.base::Location", align 8
  %8 = ptrtoint i8* %3 to i64
  %9 = bitcast %"class.base::RunLoop"* %5 to i8*
  call void @llvm.lifetime.start.p0i8(i64 48, i8* nonnull %9) #10
  call void @llvm.memset.p0i8.i64(i8* nonnull align 8 %9, i8 -86, i64 48, i1 false)
  call void @_ZN4base7RunLoopC1ENS0_4TypeE(%"class.base::RunLoop"* nonnull %5, i32 0) #10
  %10 = getelementptr inbounds %"class.blink::mojom::blink::WebDatabaseHostAsyncWaiter", %"class.blink::mojom::blink::WebDatabaseHostAsyncWaiter"* %0, i64 0, i32 0
  %11 = load %"class.blink::mojom::blink::WebDatabaseHost"*, %"class.blink::mojom::blink::WebDatabaseHost"** %10, align 8
  %12 = ptrtoint %"class.base::RunLoop"* %5 to i64
  %13 = call i8* @_Znwm(i64 56) #11, !noalias !17
  %14 = bitcast i8* %13 to %"class.base::internal::BindStateBase"*
  call void @_ZN4base8internal13BindStateBaseC2EPFvvEPFvPKS1_E(%"class.base::internal::BindStateBase"* nonnull %14, void ()* bitcast (void (%"class.base::internal::BindStateBase"*, i1)* @"_ZN4base8internal7InvokerINS0_9BindStateIZN5blink5mojom5blink26WebDatabaseHostAsyncWaiter11SetFileSizeERKN3WTF6StringElPbE3$_3JPNS_7RunLoopESB_EEEFvbEE7RunOnceEPNS0_13BindStateBaseEb" to void ()*), void (%"class.base::internal::BindStateBase"*)* nonnull @"_ZN4base8internal9BindStateIZN5blink5mojom5blink26WebDatabaseHostAsyncWaiter11SetFileSizeERKN3WTF6StringElPbE3$_3JPNS_7RunLoopESA_EE7DestroyEPKNS0_13BindStateBaseE") #10, !noalias !17
  %15 = getelementptr inbounds i8, i8* %13, i64 40
  %16 = bitcast i8* %15 to i64*
  store i64 %12, i64* %16, align 8, !noalias !17
  %17 = getelementptr inbounds i8, i8* %13, i64 48
  %18 = bitcast i8* %17 to i64*
  store i64 %8, i64* %18, align 8, !noalias !17
  %19 = bitcast %"class.base::OnceCallback.9"* %6 to i8**
  store i8* %13, i8** %19, align 8, !alias.scope !17
  %20 = bitcast %"class.blink::mojom::blink::WebDatabaseHost"* %11 to void (%"class.blink::mojom::blink::WebDatabaseHost"*, %"class.WTF::String"*, i64, %"class.base::OnceCallback.9"*)***
  %21 = load void (%"class.blink::mojom::blink::WebDatabaseHost"*, %"class.WTF::String"*, i64, %"class.base::OnceCallback.9"*)**, void (%"class.blink::mojom::blink::WebDatabaseHost"*, %"class.WTF::String"*, i64, %"class.base::OnceCallback.9"*)*** %20, align 8
  %22 = getelementptr inbounds void (%"class.blink::mojom::blink::WebDatabaseHost"*, %"class.WTF::String"*, i64, %"class.base::OnceCallback.9"*)*, void (%"class.blink::mojom::blink::WebDatabaseHost"*, %"class.WTF::String"*, i64, %"class.base::OnceCallback.9"*)** %21, i64 9
  %23 = load void (%"class.blink::mojom::blink::WebDatabaseHost"*, %"class.WTF::String"*, i64, %"class.base::OnceCallback.9"*)*, void (%"class.blink::mojom::blink::WebDatabaseHost"*, %"class.WTF::String"*, i64, %"class.base::OnceCallback.9"*)** %22, align 8
  call void %23(%"class.blink::mojom::blink::WebDatabaseHost"* %11, %"class.WTF::String"* dereferenceable(8) %1, i64 %2, %"class.base::OnceCallback.9"* nonnull %6) #10
  %24 = getelementptr inbounds %"class.base::OnceCallback.9", %"class.base::OnceCallback.9"* %6, i64 0, i32 0
  call void @_ZN4base8internal12CallbackBaseD2Ev(%"class.base::internal::CallbackBase"* nonnull %24) #10
  %25 = bitcast %"class.base::Location"* %7 to i8*
  call void @llvm.lifetime.start.p0i8(i64 32, i8* nonnull %25) #10
  call void @_ZN4base8Location7CurrentEPKcS2_i(%"class.base::Location"* nonnull sret %7, i8* getelementptr inbounds ([12 x i8], [12 x i8]* @.str.4, i64 0, i64 0), i8* getelementptr inbounds ([86 x i8], [86 x i8]* @.str.1, i64 0, i64 0), i32 139) #10
  call void @_ZN4base7RunLoop3RunERKNS_8LocationE(%"class.base::RunLoop"* nonnull %5, %"class.base::Location"* nonnull dereferenceable(32) %7) #10
  call void @llvm.lifetime.end.p0i8(i64 32, i8* nonnull %25) #10
  call void @_ZN4base7RunLoopD1Ev(%"class.base::RunLoop"* nonnull %5) #10
  call void @llvm.lifetime.end.p0i8(i64 48, i8* nonnull %9) #10
  ret void
}

; Function Attrs: nounwind ssp uwtable
define hidden void @_ZN5blink5mojom5blink26WebDatabaseHostAsyncWaiter17GetSpaceAvailableERK13scoped_refptrIKNS_14SecurityOriginEEPl(%"class.blink::mojom::blink::WebDatabaseHostAsyncWaiter"* nocapture readonly, %class.scoped_refptr* dereferenceable(8), i64*) local_unnamed_addr #0 align 2 {
  %4 = alloca %"class.base::RunLoop", align 8
  %5 = alloca %"class.base::OnceCallback.10", align 8
  %6 = alloca %"class.base::Location", align 8
  %7 = ptrtoint i64* %2 to i64
  %8 = bitcast %"class.base::RunLoop"* %4 to i8*
  call void @llvm.lifetime.start.p0i8(i64 48, i8* nonnull %8) #10
  call void @llvm.memset.p0i8.i64(i8* nonnull align 8 %8, i8 -86, i64 48, i1 false)
  call void @_ZN4base7RunLoopC1ENS0_4TypeE(%"class.base::RunLoop"* nonnull %4, i32 0) #10
  %9 = getelementptr inbounds %"class.blink::mojom::blink::WebDatabaseHostAsyncWaiter", %"class.blink::mojom::blink::WebDatabaseHostAsyncWaiter"* %0, i64 0, i32 0
  %10 = load %"class.blink::mojom::blink::WebDatabaseHost"*, %"class.blink::mojom::blink::WebDatabaseHost"** %9, align 8
  %11 = ptrtoint %"class.base::RunLoop"* %4 to i64
  %12 = call i8* @_Znwm(i64 56) #11, !noalias !22
  %13 = bitcast i8* %12 to %"class.base::internal::BindStateBase"*
  call void @_ZN4base8internal13BindStateBaseC2EPFvvEPFvPKS1_E(%"class.base::internal::BindStateBase"* nonnull %13, void ()* bitcast (void (%"class.base::internal::BindStateBase"*, i64)* @"_ZN4base8internal7InvokerINS0_9BindStateIZN5blink5mojom5blink26WebDatabaseHostAsyncWaiter17GetSpaceAvailableERK13scoped_refptrIKNS3_14SecurityOriginEEPlE3$_4JPNS_7RunLoopESD_EEEFvlEE7RunOnceEPNS0_13BindStateBaseEl" to void ()*), void (%"class.base::internal::BindStateBase"*)* nonnull @"_ZN4base8internal9BindStateIZN5blink5mojom5blink26WebDatabaseHostAsyncWaiter17GetSpaceAvailableERK13scoped_refptrIKNS2_14SecurityOriginEEPlE3$_4JPNS_7RunLoopESC_EE7DestroyEPKNS0_13BindStateBaseE") #10, !noalias !22
  %14 = getelementptr inbounds i8, i8* %12, i64 40
  %15 = bitcast i8* %14 to i64*
  store i64 %11, i64* %15, align 8, !noalias !22
  %16 = getelementptr inbounds i8, i8* %12, i64 48
  %17 = bitcast i8* %16 to i64*
  store i64 %7, i64* %17, align 8, !noalias !22
  %18 = bitcast %"class.base::OnceCallback.10"* %5 to i8**
  store i8* %12, i8** %18, align 8, !alias.scope !22
  %19 = bitcast %"class.blink::mojom::blink::WebDatabaseHost"* %10 to void (%"class.blink::mojom::blink::WebDatabaseHost"*, %class.scoped_refptr*, %"class.base::OnceCallback.10"*)***
  %20 = load void (%"class.blink::mojom::blink::WebDatabaseHost"*, %class.scoped_refptr*, %"class.base::OnceCallback.10"*)**, void (%"class.blink::mojom::blink::WebDatabaseHost"*, %class.scoped_refptr*, %"class.base::OnceCallback.10"*)*** %19, align 8
  %21 = getelementptr inbounds void (%"class.blink::mojom::blink::WebDatabaseHost"*, %class.scoped_refptr*, %"class.base::OnceCallback.10"*)*, void (%"class.blink::mojom::blink::WebDatabaseHost"*, %class.scoped_refptr*, %"class.base::OnceCallback.10"*)** %20, i64 11
  %22 = load void (%"class.blink::mojom::blink::WebDatabaseHost"*, %class.scoped_refptr*, %"class.base::OnceCallback.10"*)*, void (%"class.blink::mojom::blink::WebDatabaseHost"*, %class.scoped_refptr*, %"class.base::OnceCallback.10"*)** %21, align 8
  call void %22(%"class.blink::mojom::blink::WebDatabaseHost"* %10, %class.scoped_refptr* dereferenceable(8) %1, %"class.base::OnceCallback.10"* nonnull %5) #10
  %23 = getelementptr inbounds %"class.base::OnceCallback.10", %"class.base::OnceCallback.10"* %5, i64 0, i32 0
  call void @_ZN4base8internal12CallbackBaseD2Ev(%"class.base::internal::CallbackBase"* nonnull %23) #10
  %24 = bitcast %"class.base::Location"* %6 to i8*
  call void @llvm.lifetime.start.p0i8(i64 32, i8* nonnull %24) #10
  call void @_ZN4base8Location7CurrentEPKcS2_i(%"class.base::Location"* nonnull sret %6, i8* getelementptr inbounds ([18 x i8], [18 x i8]* @.str.5, i64 0, i64 0), i8* getelementptr inbounds ([86 x i8], [86 x i8]* @.str.1, i64 0, i64 0), i32 154) #10
  call void @_ZN4base7RunLoop3RunERKNS_8LocationE(%"class.base::RunLoop"* nonnull %4, %"class.base::Location"* nonnull dereferenceable(32) %6) #10
  call void @llvm.lifetime.end.p0i8(i64 32, i8* nonnull %24) #10
  call void @_ZN4base7RunLoopD1Ev(%"class.base::RunLoop"* nonnull %4) #10
  call void @llvm.lifetime.end.p0i8(i64 48, i8* nonnull %8) #10
  ret void
}

; Function Attrs: nounwind ssp uwtable
define linkonce_odr hidden void @_ZN5blink5mojom5blink11WebDatabaseD2Ev(%"class.blink::mojom::blink::WebDatabase"*) unnamed_addr #0 comdat align 2 {
  ret void
}

; Function Attrs: inlinehint nounwind ssp uwtable
define linkonce_odr hidden void @_ZN5blink5mojom5blink32WebDatabaseInterceptorForTestingD0Ev(%"class.blink::mojom::blink::WebDatabaseInterceptorForTesting"*) unnamed_addr #6 comdat align 2 {
  tail call void @llvm.trap() #12
  unreachable
}

declare void @__cxa_pure_virtual() unnamed_addr

; Function Attrs: nounwind ssp uwtable
define linkonce_odr hidden void @_ZN5blink5mojom5blink15WebDatabaseHostD2Ev(%"class.blink::mojom::blink::WebDatabaseHost"*) unnamed_addr #0 comdat align 2 {
  ret void
}

; Function Attrs: inlinehint nounwind ssp uwtable
define linkonce_odr hidden void @_ZN5blink5mojom5blink36WebDatabaseHostInterceptorForTestingD0Ev(%"class.blink::mojom::blink::WebDatabaseHostInterceptorForTesting"*) unnamed_addr #6 comdat align 2 {
  tail call void @llvm.trap() #12
  unreachable
}

declare zeroext i1 @_ZN5blink5mojom5blink15WebDatabaseHost8OpenFileERKN3WTF6StringEiPN4base4FileE(%"class.blink::mojom::blink::WebDatabaseHost"*, %"class.WTF::String"* dereferenceable(8), i32, %"class.base::File"*) unnamed_addr #5

declare zeroext i1 @_ZN5blink5mojom5blink15WebDatabaseHost10DeleteFileERKN3WTF6StringEbPi(%"class.blink::mojom::blink::WebDatabaseHost"*, %"class.WTF::String"* dereferenceable(8), i1 zeroext, i32*) unnamed_addr #5

declare zeroext i1 @_ZN5blink5mojom5blink15WebDatabaseHost17GetFileAttributesERKN3WTF6StringEPi(%"class.blink::mojom::blink::WebDatabaseHost"*, %"class.WTF::String"* dereferenceable(8), i32*) unnamed_addr #5

declare zeroext i1 @_ZN5blink5mojom5blink15WebDatabaseHost11SetFileSizeERKN3WTF6StringElPb(%"class.blink::mojom::blink::WebDatabaseHost"*, %"class.WTF::String"* dereferenceable(8), i64, i8*) unnamed_addr #5

declare zeroext i1 @_ZN5blink5mojom5blink15WebDatabaseHost17GetSpaceAvailableERK13scoped_refptrIKNS_14SecurityOriginEEPl(%"class.blink::mojom::blink::WebDatabaseHost"*, %class.scoped_refptr* dereferenceable(8), i64*) unnamed_addr #5

; Function Attrs: cold noreturn nounwind
declare void @llvm.trap() #7

; Function Attrs: nounwind ssp uwtable
define internal void @"_ZN4base8internal7InvokerINS0_9BindStateIZN5blink5mojom5blink26WebDatabaseHostAsyncWaiter8OpenFileERKN3WTF6StringEiPNS_4FileEE3$_0JPNS_7RunLoopESC_EEEFvSB_EE7RunOnceEPNS0_13BindStateBaseEOSB_"(%"class.base::internal::BindStateBase"* nocapture readonly, %"class.base::File"* dereferenceable(56)) #0 align 2 {
  %3 = alloca %"class.base::File", align 8
  %4 = getelementptr inbounds %"class.base::internal::BindStateBase", %"class.base::internal::BindStateBase"* %0, i64 1, i32 1
  %5 = bitcast void ()** %4 to %"class.base::RunLoop"**
  %6 = getelementptr inbounds void ()*, void ()** %4, i64 1
  %7 = bitcast void ()** %6 to %"class.base::File"**
  %8 = bitcast %"class.base::File"* %3 to i8*
  call void @llvm.lifetime.start.p0i8(i64 56, i8* nonnull %8) #10
  %9 = load %"class.base::RunLoop"*, %"class.base::RunLoop"** %5, align 8
  %10 = load %"class.base::File"*, %"class.base::File"** %7, align 8
  call void @_ZN4base4FileC1EOS0_(%"class.base::File"* nonnull %3, %"class.base::File"* dereferenceable(56) %1) #10
  %11 = call dereferenceable(56) %"class.base::File"* @_ZN4base4FileaSEOS0_(%"class.base::File"* %10, %"class.base::File"* nonnull dereferenceable(56) %3) #10
  call void @_ZN4base7RunLoop4QuitEv(%"class.base::RunLoop"* %9) #10
  call void @_ZN4base4FileD1Ev(%"class.base::File"* nonnull %3) #10
  call void @llvm.lifetime.end.p0i8(i64 56, i8* nonnull %8) #10
  ret void
}

declare void @_ZN4base4FileC1EOS0_(%"class.base::File"*, %"class.base::File"* dereferenceable(56)) unnamed_addr #5

; Function Attrs: nounwind
declare void @_ZN4base4FileD1Ev(%"class.base::File"*) unnamed_addr #3

declare dereferenceable(56) %"class.base::File"* @_ZN4base4FileaSEOS0_(%"class.base::File"*, %"class.base::File"* dereferenceable(56)) local_unnamed_addr #5

declare void @_ZN4base7RunLoop4QuitEv(%"class.base::RunLoop"*) local_unnamed_addr #5

; Function Attrs: nobuiltin nofree
declare noalias nonnull i8* @_Znwm(i64) local_unnamed_addr #8

; Function Attrs: nounwind ssp uwtable
define internal void @"_ZN4base8internal9BindStateIZN5blink5mojom5blink26WebDatabaseHostAsyncWaiter8OpenFileERKN3WTF6StringEiPNS_4FileEE3$_0JPNS_7RunLoopESB_EE7DestroyEPKNS0_13BindStateBaseE"(%"class.base::internal::BindStateBase"*) #0 align 2 {
  %2 = icmp eq %"class.base::internal::BindStateBase"* %0, null
  br i1 %2, label %5, label %3

3:                                                ; preds = %1
  %4 = bitcast %"class.base::internal::BindStateBase"* %0 to i8*
  tail call void @_ZdlPv(i8* %4) #11
  br label %5

5:                                                ; preds = %3, %1
  ret void
}

declare void @_ZN4base8internal13BindStateBaseC2EPFvvEPFvPKS1_E(%"class.base::internal::BindStateBase"*, void ()*, void (%"class.base::internal::BindStateBase"*)*) unnamed_addr #5

; Function Attrs: nobuiltin nounwind
declare void @_ZdlPv(i8*) local_unnamed_addr #9

; Function Attrs: nounwind ssp uwtable
define internal void @"_ZN4base8internal7InvokerINS0_9BindStateIZN5blink5mojom5blink26WebDatabaseHostAsyncWaiter10DeleteFileERKN3WTF6StringEbPiE3$_1JPNS_7RunLoopESB_EEEFviEE7RunOnceEPNS0_13BindStateBaseEi"(%"class.base::internal::BindStateBase"* nocapture readonly, i32) #0 align 2 {
  %3 = getelementptr inbounds %"class.base::internal::BindStateBase", %"class.base::internal::BindStateBase"* %0, i64 1, i32 1
  %4 = bitcast void ()** %3 to %"class.base::RunLoop"**
  %5 = getelementptr inbounds void ()*, void ()** %3, i64 1
  %6 = bitcast void ()** %5 to i32**
  %7 = load %"class.base::RunLoop"*, %"class.base::RunLoop"** %4, align 8
  %8 = load i32*, i32** %6, align 8
  store i32 %1, i32* %8, align 4
  tail call void @_ZN4base7RunLoop4QuitEv(%"class.base::RunLoop"* %7) #10
  ret void
}

; Function Attrs: nounwind ssp uwtable
define internal void @"_ZN4base8internal9BindStateIZN5blink5mojom5blink26WebDatabaseHostAsyncWaiter10DeleteFileERKN3WTF6StringEbPiE3$_1JPNS_7RunLoopESA_EE7DestroyEPKNS0_13BindStateBaseE"(%"class.base::internal::BindStateBase"*) #0 align 2 {
  %2 = icmp eq %"class.base::internal::BindStateBase"* %0, null
  br i1 %2, label %5, label %3

3:                                                ; preds = %1
  %4 = bitcast %"class.base::internal::BindStateBase"* %0 to i8*
  tail call void @_ZdlPv(i8* %4) #11
  br label %5

5:                                                ; preds = %3, %1
  ret void
}

; Function Attrs: nounwind ssp uwtable
define internal void @"_ZN4base8internal7InvokerINS0_9BindStateIZN5blink5mojom5blink26WebDatabaseHostAsyncWaiter17GetFileAttributesERKN3WTF6StringEPiE3$_2JPNS_7RunLoopESB_EEEFviEE7RunOnceEPNS0_13BindStateBaseEi"(%"class.base::internal::BindStateBase"* nocapture readonly, i32) #0 align 2 {
  %3 = getelementptr inbounds %"class.base::internal::BindStateBase", %"class.base::internal::BindStateBase"* %0, i64 1, i32 1
  %4 = bitcast void ()** %3 to %"class.base::RunLoop"**
  %5 = getelementptr inbounds void ()*, void ()** %3, i64 1
  %6 = bitcast void ()** %5 to i32**
  %7 = load %"class.base::RunLoop"*, %"class.base::RunLoop"** %4, align 8
  %8 = load i32*, i32** %6, align 8
  store i32 %1, i32* %8, align 4
  tail call void @_ZN4base7RunLoop4QuitEv(%"class.base::RunLoop"* %7) #10
  ret void
}

; Function Attrs: nounwind ssp uwtable
define internal void @"_ZN4base8internal9BindStateIZN5blink5mojom5blink26WebDatabaseHostAsyncWaiter17GetFileAttributesERKN3WTF6StringEPiE3$_2JPNS_7RunLoopESA_EE7DestroyEPKNS0_13BindStateBaseE"(%"class.base::internal::BindStateBase"*) #0 align 2 {
  %2 = icmp eq %"class.base::internal::BindStateBase"* %0, null
  br i1 %2, label %5, label %3

3:                                                ; preds = %1
  %4 = bitcast %"class.base::internal::BindStateBase"* %0 to i8*
  tail call void @_ZdlPv(i8* %4) #11
  br label %5

5:                                                ; preds = %3, %1
  ret void
}

; Function Attrs: nounwind ssp uwtable
define internal void @"_ZN4base8internal7InvokerINS0_9BindStateIZN5blink5mojom5blink26WebDatabaseHostAsyncWaiter11SetFileSizeERKN3WTF6StringElPbE3$_3JPNS_7RunLoopESB_EEEFvbEE7RunOnceEPNS0_13BindStateBaseEb"(%"class.base::internal::BindStateBase"* nocapture readonly, i1 zeroext) #0 align 2 {
  %3 = zext i1 %1 to i8
  %4 = getelementptr inbounds %"class.base::internal::BindStateBase", %"class.base::internal::BindStateBase"* %0, i64 1, i32 1
  %5 = bitcast void ()** %4 to %"class.base::RunLoop"**
  %6 = getelementptr inbounds void ()*, void ()** %4, i64 1
  %7 = bitcast void ()** %6 to i8**
  %8 = load %"class.base::RunLoop"*, %"class.base::RunLoop"** %5, align 8
  %9 = load i8*, i8** %7, align 8
  store i8 %3, i8* %9, align 1
  tail call void @_ZN4base7RunLoop4QuitEv(%"class.base::RunLoop"* %8) #10
  ret void
}

; Function Attrs: nounwind ssp uwtable
define internal void @"_ZN4base8internal9BindStateIZN5blink5mojom5blink26WebDatabaseHostAsyncWaiter11SetFileSizeERKN3WTF6StringElPbE3$_3JPNS_7RunLoopESA_EE7DestroyEPKNS0_13BindStateBaseE"(%"class.base::internal::BindStateBase"*) #0 align 2 {
  %2 = icmp eq %"class.base::internal::BindStateBase"* %0, null
  br i1 %2, label %5, label %3

3:                                                ; preds = %1
  %4 = bitcast %"class.base::internal::BindStateBase"* %0 to i8*
  tail call void @_ZdlPv(i8* %4) #11
  br label %5

5:                                                ; preds = %3, %1
  ret void
}

; Function Attrs: nounwind ssp uwtable
define internal void @"_ZN4base8internal7InvokerINS0_9BindStateIZN5blink5mojom5blink26WebDatabaseHostAsyncWaiter17GetSpaceAvailableERK13scoped_refptrIKNS3_14SecurityOriginEEPlE3$_4JPNS_7RunLoopESD_EEEFvlEE7RunOnceEPNS0_13BindStateBaseEl"(%"class.base::internal::BindStateBase"* nocapture readonly, i64) #0 align 2 {
  %3 = getelementptr inbounds %"class.base::internal::BindStateBase", %"class.base::internal::BindStateBase"* %0, i64 1, i32 1
  %4 = bitcast void ()** %3 to %"class.base::RunLoop"**
  %5 = getelementptr inbounds void ()*, void ()** %3, i64 1
  %6 = bitcast void ()** %5 to i64**
  %7 = load %"class.base::RunLoop"*, %"class.base::RunLoop"** %4, align 8
  %8 = load i64*, i64** %6, align 8
  store i64 %1, i64* %8, align 8
  tail call void @_ZN4base7RunLoop4QuitEv(%"class.base::RunLoop"* %7) #10
  ret void
}

; Function Attrs: nounwind ssp uwtable
define internal void @"_ZN4base8internal9BindStateIZN5blink5mojom5blink26WebDatabaseHostAsyncWaiter17GetSpaceAvailableERK13scoped_refptrIKNS2_14SecurityOriginEEPlE3$_4JPNS_7RunLoopESC_EE7DestroyEPKNS0_13BindStateBaseE"(%"class.base::internal::BindStateBase"*) #0 align 2 {
  %2 = icmp eq %"class.base::internal::BindStateBase"* %0, null
  br i1 %2, label %5, label %3

3:                                                ; preds = %1
  %4 = bitcast %"class.base::internal::BindStateBase"* %0 to i8*
  tail call void @_ZdlPv(i8* %4) #11
  br label %5

5:                                                ; preds = %3, %1
  ret void
}

attributes #0 = { nounwind ssp uwtable "correctly-rounded-divide-sqrt-fp-math"="false" "disable-tail-calls"="false" "less-precise-fpmad"="false" "min-legal-vector-width"="0" "no-frame-pointer-elim"="false" "no-frame-pointer-elim-non-leaf" "no-infs-fp-math"="false" "no-jump-tables"="false" "no-nans-fp-math"="false" "no-signed-zeros-fp-math"="false" "no-trapping-math"="false" "null-pointer-is-valid"="true" "stack-protector-buffer-size"="4" "target-cpu"="x86-64" "target-features"="+cx8,+fxsr,+mmx,+sse,+sse2,+sse3,+x87" "unsafe-fp-math"="false" "use-soft-float"="false" }
attributes #1 = { nofree norecurse nounwind ssp uwtable writeonly "correctly-rounded-divide-sqrt-fp-math"="false" "disable-tail-calls"="false" "less-precise-fpmad"="false" "min-legal-vector-width"="0" "no-frame-pointer-elim"="false" "no-frame-pointer-elim-non-leaf" "no-infs-fp-math"="false" "no-jump-tables"="false" "no-nans-fp-math"="false" "no-signed-zeros-fp-math"="false" "no-trapping-math"="false" "null-pointer-is-valid"="true" "stack-protector-buffer-size"="4" "target-cpu"="x86-64" "target-features"="+cx8,+fxsr,+mmx,+sse,+sse2,+sse3,+x87" "unsafe-fp-math"="false" "use-soft-float"="false" }
attributes #2 = { norecurse nounwind readnone ssp uwtable "correctly-rounded-divide-sqrt-fp-math"="false" "disable-tail-calls"="false" "less-precise-fpmad"="false" "min-legal-vector-width"="0" "no-frame-pointer-elim"="false" "no-frame-pointer-elim-non-leaf" "no-infs-fp-math"="false" "no-jump-tables"="false" "no-nans-fp-math"="false" "no-signed-zeros-fp-math"="false" "no-trapping-math"="false" "null-pointer-is-valid"="true" "stack-protector-buffer-size"="4" "target-cpu"="x86-64" "target-features"="+cx8,+fxsr,+mmx,+sse,+sse2,+sse3,+x87" "unsafe-fp-math"="false" "use-soft-float"="false" }
attributes #3 = { nounwind "correctly-rounded-divide-sqrt-fp-math"="false" "disable-tail-calls"="false" "less-precise-fpmad"="false" "no-frame-pointer-elim"="false" "no-frame-pointer-elim-non-leaf" "no-infs-fp-math"="false" "no-nans-fp-math"="false" "no-signed-zeros-fp-math"="false" "no-trapping-math"="false" "null-pointer-is-valid"="true" "stack-protector-buffer-size"="4" "target-cpu"="x86-64" "target-features"="+cx8,+fxsr,+mmx,+sse,+sse2,+sse3,+x87" "unsafe-fp-math"="false" "use-soft-float"="false" }
attributes #4 = { argmemonly nounwind }
attributes #5 = { "correctly-rounded-divide-sqrt-fp-math"="false" "disable-tail-calls"="false" "less-precise-fpmad"="false" "no-frame-pointer-elim"="false" "no-frame-pointer-elim-non-leaf" "no-infs-fp-math"="false" "no-nans-fp-math"="false" "no-signed-zeros-fp-math"="false" "no-trapping-math"="false" "null-pointer-is-valid"="true" "stack-protector-buffer-size"="4" "target-cpu"="x86-64" "target-features"="+cx8,+fxsr,+mmx,+sse,+sse2,+sse3,+x87" "unsafe-fp-math"="false" "use-soft-float"="false" }
attributes #6 = { inlinehint nounwind ssp uwtable "correctly-rounded-divide-sqrt-fp-math"="false" "disable-tail-calls"="false" "less-precise-fpmad"="false" "min-legal-vector-width"="0" "no-frame-pointer-elim"="false" "no-frame-pointer-elim-non-leaf" "no-infs-fp-math"="false" "no-jump-tables"="false" "no-nans-fp-math"="false" "no-signed-zeros-fp-math"="false" "no-trapping-math"="false" "null-pointer-is-valid"="true" "stack-protector-buffer-size"="4" "target-cpu"="x86-64" "target-features"="+cx8,+fxsr,+mmx,+sse,+sse2,+sse3,+x87" "unsafe-fp-math"="false" "use-soft-float"="false" }
attributes #7 = { cold noreturn nounwind }
attributes #8 = { nobuiltin nofree "correctly-rounded-divide-sqrt-fp-math"="false" "disable-tail-calls"="false" "less-precise-fpmad"="false" "no-frame-pointer-elim"="false" "no-frame-pointer-elim-non-leaf" "no-infs-fp-math"="false" "no-nans-fp-math"="false" "no-signed-zeros-fp-math"="false" "no-trapping-math"="false" "null-pointer-is-valid"="true" "stack-protector-buffer-size"="4" "target-cpu"="x86-64" "target-features"="+cx8,+fxsr,+mmx,+sse,+sse2,+sse3,+x87" "unsafe-fp-math"="false" "use-soft-float"="false" }
attributes #9 = { nobuiltin nounwind "correctly-rounded-divide-sqrt-fp-math"="false" "disable-tail-calls"="false" "less-precise-fpmad"="false" "no-frame-pointer-elim"="false" "no-frame-pointer-elim-non-leaf" "no-infs-fp-math"="false" "no-nans-fp-math"="false" "no-signed-zeros-fp-math"="false" "no-trapping-math"="false" "null-pointer-is-valid"="true" "stack-protector-buffer-size"="4" "target-cpu"="x86-64" "target-features"="+cx8,+fxsr,+mmx,+sse,+sse2,+sse3,+x87" "unsafe-fp-math"="false" "use-soft-float"="false" }
attributes #10 = { nounwind }
attributes #11 = { builtin nounwind }
attributes #12 = { noreturn nounwind }

!llvm.module.flags = !{!0, !1}

!0 = !{i32 1, !"wchar_size", i32 4}
!1 = !{i32 7, !"PIC Level", i32 2}
!2 = !{!3, !5}
!3 = distinct !{!3, !4, !"_ZN4base8internal8BindImplINS_12OnceCallbackEZN5blink5mojom5blink26WebDatabaseHostAsyncWaiter8OpenFileERKN3WTF6StringEiPNS_4FileEE3$_0JPNS_7RunLoopERSC_EEEDcOT0_DpOT1_: argument 0"}
!4 = distinct !{!4, !"_ZN4base8internal8BindImplINS_12OnceCallbackEZN5blink5mojom5blink26WebDatabaseHostAsyncWaiter8OpenFileERKN3WTF6StringEiPNS_4FileEE3$_0JPNS_7RunLoopERSC_EEEDcOT0_DpOT1_"}
!5 = distinct !{!5, !6, !"_ZN4base8BindOnceIZN5blink5mojom5blink26WebDatabaseHostAsyncWaiter8OpenFileERKN3WTF6StringEiPNS_4FileEE3$_0JPNS_7RunLoopERSA_EEENS_12OnceCallbackINS_8internal14BindTypeHelperIT_JDpT0_EE14UnboundRunTypeEEEOSI_DpOSJ_: argument 0"}
!6 = distinct !{!6, !"_ZN4base8BindOnceIZN5blink5mojom5blink26WebDatabaseHostAsyncWaiter8OpenFileERKN3WTF6StringEiPNS_4FileEE3$_0JPNS_7RunLoopERSA_EEENS_12OnceCallbackINS_8internal14BindTypeHelperIT_JDpT0_EE14UnboundRunTypeEEEOSI_DpOSJ_"}
!7 = !{!8, !10}
!8 = distinct !{!8, !9, !"_ZN4base8internal8BindImplINS_12OnceCallbackEZN5blink5mojom5blink26WebDatabaseHostAsyncWaiter10DeleteFileERKN3WTF6StringEbPiE3$_1JPNS_7RunLoopERSB_EEEDcOT0_DpOT1_: argument 0"}
!9 = distinct !{!9, !"_ZN4base8internal8BindImplINS_12OnceCallbackEZN5blink5mojom5blink26WebDatabaseHostAsyncWaiter10DeleteFileERKN3WTF6StringEbPiE3$_1JPNS_7RunLoopERSB_EEEDcOT0_DpOT1_"}
!10 = distinct !{!10, !11, !"_ZN4base8BindOnceIZN5blink5mojom5blink26WebDatabaseHostAsyncWaiter10DeleteFileERKN3WTF6StringEbPiE3$_1JPNS_7RunLoopERS9_EEENS_12OnceCallbackINS_8internal14BindTypeHelperIT_JDpT0_EE14UnboundRunTypeEEEOSH_DpOSI_: argument 0"}
!11 = distinct !{!11, !"_ZN4base8BindOnceIZN5blink5mojom5blink26WebDatabaseHostAsyncWaiter10DeleteFileERKN3WTF6StringEbPiE3$_1JPNS_7RunLoopERS9_EEENS_12OnceCallbackINS_8internal14BindTypeHelperIT_JDpT0_EE14UnboundRunTypeEEEOSH_DpOSI_"}
!12 = !{!13, !15}
!13 = distinct !{!13, !14, !"_ZN4base8internal8BindImplINS_12OnceCallbackEZN5blink5mojom5blink26WebDatabaseHostAsyncWaiter17GetFileAttributesERKN3WTF6StringEPiE3$_2JPNS_7RunLoopERSB_EEEDcOT0_DpOT1_: argument 0"}
!14 = distinct !{!14, !"_ZN4base8internal8BindImplINS_12OnceCallbackEZN5blink5mojom5blink26WebDatabaseHostAsyncWaiter17GetFileAttributesERKN3WTF6StringEPiE3$_2JPNS_7RunLoopERSB_EEEDcOT0_DpOT1_"}
!15 = distinct !{!15, !16, !"_ZN4base8BindOnceIZN5blink5mojom5blink26WebDatabaseHostAsyncWaiter17GetFileAttributesERKN3WTF6StringEPiE3$_2JPNS_7RunLoopERS9_EEENS_12OnceCallbackINS_8internal14BindTypeHelperIT_JDpT0_EE14UnboundRunTypeEEEOSH_DpOSI_: argument 0"}
!16 = distinct !{!16, !"_ZN4base8BindOnceIZN5blink5mojom5blink26WebDatabaseHostAsyncWaiter17GetFileAttributesERKN3WTF6StringEPiE3$_2JPNS_7RunLoopERS9_EEENS_12OnceCallbackINS_8internal14BindTypeHelperIT_JDpT0_EE14UnboundRunTypeEEEOSH_DpOSI_"}
!17 = !{!18, !20}
!18 = distinct !{!18, !19, !"_ZN4base8internal8BindImplINS_12OnceCallbackEZN5blink5mojom5blink26WebDatabaseHostAsyncWaiter11SetFileSizeERKN3WTF6StringElPbE3$_3JPNS_7RunLoopERSB_EEEDcOT0_DpOT1_: argument 0"}
!19 = distinct !{!19, !"_ZN4base8internal8BindImplINS_12OnceCallbackEZN5blink5mojom5blink26WebDatabaseHostAsyncWaiter11SetFileSizeERKN3WTF6StringElPbE3$_3JPNS_7RunLoopERSB_EEEDcOT0_DpOT1_"}
!20 = distinct !{!20, !21, !"_ZN4base8BindOnceIZN5blink5mojom5blink26WebDatabaseHostAsyncWaiter11SetFileSizeERKN3WTF6StringElPbE3$_3JPNS_7RunLoopERS9_EEENS_12OnceCallbackINS_8internal14BindTypeHelperIT_JDpT0_EE14UnboundRunTypeEEEOSH_DpOSI_: argument 0"}
!21 = distinct !{!21, !"_ZN4base8BindOnceIZN5blink5mojom5blink26WebDatabaseHostAsyncWaiter11SetFileSizeERKN3WTF6StringElPbE3$_3JPNS_7RunLoopERS9_EEENS_12OnceCallbackINS_8internal14BindTypeHelperIT_JDpT0_EE14UnboundRunTypeEEEOSH_DpOSI_"}
!22 = !{!23, !25}
!23 = distinct !{!23, !24, !"_ZN4base8internal8BindImplINS_12OnceCallbackEZN5blink5mojom5blink26WebDatabaseHostAsyncWaiter17GetSpaceAvailableERK13scoped_refptrIKNS3_14SecurityOriginEEPlE3$_4JPNS_7RunLoopERSD_EEEDcOT0_DpOT1_: argument 0"}
!24 = distinct !{!24, !"_ZN4base8internal8BindImplINS_12OnceCallbackEZN5blink5mojom5blink26WebDatabaseHostAsyncWaiter17GetSpaceAvailableERK13scoped_refptrIKNS3_14SecurityOriginEEPlE3$_4JPNS_7RunLoopERSD_EEEDcOT0_DpOT1_"}
!25 = distinct !{!25, !26, !"_ZN4base8BindOnceIZN5blink5mojom5blink26WebDatabaseHostAsyncWaiter17GetSpaceAvailableERK13scoped_refptrIKNS1_14SecurityOriginEEPlE3$_4JPNS_7RunLoopERSB_EEENS_12OnceCallbackINS_8internal14BindTypeHelperIT_JDpT0_EE14UnboundRunTypeEEEOSJ_DpOSK_: argument 0"}
!26 = distinct !{!26, !"_ZN4base8BindOnceIZN5blink5mojom5blink26WebDatabaseHostAsyncWaiter17GetSpaceAvailableERK13scoped_refptrIKNS1_14SecurityOriginEEPlE3$_4JPNS_7RunLoopERSB_EEENS_12OnceCallbackINS_8internal14BindTypeHelperIT_JDpT0_EE14UnboundRunTypeEEEOSJ_DpOSK_"}
