; ModuleID = 'gen/third_party/blink/public/mojom/bluetooth/web_bluetooth.mojom.cc'
source_filename = "gen/third_party/blink/public/mojom/bluetooth/web_bluetooth.mojom.cc"
target datalayout = "e-m:e-i64:64-f80:128-n8:16:32:64-S128"
target triple = "x86_64-unknown-linux-gnu"

module asm ".symver exp, exp@GLIBC_2.2.5"
module asm ".symver exp2, exp2@GLIBC_2.2.5"
module asm ".symver exp2f, exp2f@GLIBC_2.2.5"
module asm ".symver expf, expf@GLIBC_2.2.5"
module asm ".symver lgamma, lgamma@GLIBC_2.2.5"
module asm ".symver lgammaf, lgammaf@GLIBC_2.2.5"
module asm ".symver lgammal, lgammal@GLIBC_2.2.5"
module asm ".symver log, log@GLIBC_2.2.5"
module asm ".symver log2, log2@GLIBC_2.2.5"
module asm ".symver log2f, log2f@GLIBC_2.2.5"
module asm ".symver logf, logf@GLIBC_2.2.5"
module asm ".symver pow, pow@GLIBC_2.2.5"
module asm ".symver powf, powf@GLIBC_2.2.5"

%"struct.std::__1::pair.290" = type { i32, %"struct.mojo::internal::GenericValidationInfo" }
%"struct.mojo::internal::GenericValidationInfo" = type { i1 (i8*, %"class.mojo::internal::ValidationContext"*)*, i1 (i8*, %"class.mojo::internal::ValidationContext"*)* }
%"class.mojo::internal::ValidationContext" = type <{ %"class.mojo::Message"*, i8*, i32, [4 x i8], i64, i64, i32, i32, i32, i32, i32, [4 x i8] }>
%"class.mojo::Message" = type { %"class.mojo::ScopedHandleBase", %"class.mojo::internal::Buffer", %"class.std::__1::vector.37", %"class.std::__1::vector.45", %"class.mojo::ConnectionGroup::Ref"*, i8, i8, i8* }
%"class.mojo::ScopedHandleBase" = type { %"class.mojo::MessageHandle" }
%"class.mojo::MessageHandle" = type { i64 }
%"class.mojo::internal::Buffer" = type { %"class.mojo::MessageHandle", i64, i8*, i64, i64 }
%"class.std::__1::vector.37" = type { %"class.std::__1::__vector_base.38" }
%"class.std::__1::__vector_base.38" = type { %"class.mojo::ScopedHandleBase.39"*, %"class.mojo::ScopedHandleBase.39"*, %"class.std::__1::__compressed_pair.40" }
%"class.mojo::ScopedHandleBase.39" = type { %"class.mojo::Handle" }
%"class.mojo::Handle" = type { i32 }
%"class.std::__1::__compressed_pair.40" = type { %"struct.std::__1::__compressed_pair_elem.41" }
%"struct.std::__1::__compressed_pair_elem.41" = type { %"class.mojo::ScopedHandleBase.39"* }
%"class.std::__1::vector.45" = type { %"class.std::__1::__vector_base.46" }
%"class.std::__1::__vector_base.46" = type { %"class.mojo::ScopedInterfaceEndpointHandle"*, %"class.mojo::ScopedInterfaceEndpointHandle"*, %"class.std::__1::__compressed_pair.47" }
%"class.mojo::ScopedInterfaceEndpointHandle" = type { %class.scoped_refptr }
%class.scoped_refptr = type { %"class.mojo::ScopedInterfaceEndpointHandle::State"* }
%"class.mojo::ScopedInterfaceEndpointHandle::State" = type opaque
%"class.std::__1::__compressed_pair.47" = type { %"struct.std::__1::__compressed_pair_elem.48" }
%"struct.std::__1::__compressed_pair_elem.48" = type { %"class.mojo::ScopedInterfaceEndpointHandle"* }
%"class.mojo::ConnectionGroup::Ref" = type { i32, %class.scoped_refptr.52 }
%class.scoped_refptr.52 = type { %"class.mojo::ConnectionGroup"* }
%"class.mojo::ConnectionGroup" = type <{ i32 (...)**, %"class.base::RefCountedThreadSafe", [4 x i8], %"class.base::RepeatingCallback", %class.scoped_refptr.56, %"class.mojo::ConnectionGroup::Ref", %"struct.std::__1::atomic.58", [4 x i8] }>
%"class.base::RefCountedThreadSafe" = type { %"class.base::subtle::RefCountedThreadSafeBase" }
%"class.base::subtle::RefCountedThreadSafeBase" = type { %"class.base::AtomicRefCount" }
%"class.base::AtomicRefCount" = type { %"struct.std::__1::atomic" }
%"struct.std::__1::atomic" = type { %"struct.std::__1::__atomic_base" }
%"struct.std::__1::__atomic_base" = type { %"struct.std::__1::__atomic_base.53" }
%"struct.std::__1::__atomic_base.53" = type { %"struct.std::__1::__cxx_atomic_impl" }
%"struct.std::__1::__cxx_atomic_impl" = type { %"struct.std::__1::__cxx_atomic_base_impl" }
%"struct.std::__1::__cxx_atomic_base_impl" = type { i32 }
%"class.base::RepeatingCallback" = type { %"class.base::internal::CallbackBaseCopyable" }
%"class.base::internal::CallbackBaseCopyable" = type { %"class.base::internal::CallbackBase" }
%"class.base::internal::CallbackBase" = type { %class.scoped_refptr.54 }
%class.scoped_refptr.54 = type { %"class.base::internal::BindStateBase"* }
%"class.base::internal::BindStateBase" = type { %"class.base::RefCountedThreadSafe.55", void ()*, void (%"class.base::internal::BindStateBase"*)*, i1 (%"class.base::internal::BindStateBase"*, i32)* }
%"class.base::RefCountedThreadSafe.55" = type { %"class.base::subtle::RefCountedThreadSafeBase" }
%class.scoped_refptr.56 = type { %"class.base::SequencedTaskRunner"* }
%"class.base::SequencedTaskRunner" = type { %"class.base::TaskRunner.base", [4 x i8] }
%"class.base::TaskRunner.base" = type <{ i32 (...)**, %"class.base::RefCountedThreadSafe.57" }>
%"class.base::RefCountedThreadSafe.57" = type { %"class.base::subtle::RefCountedThreadSafeBase" }
%"struct.std::__1::atomic.58" = type { %"struct.std::__1::__atomic_base.59" }
%"struct.std::__1::__atomic_base.59" = type { %"struct.std::__1::__atomic_base.60" }
%"struct.std::__1::__atomic_base.60" = type { %"struct.std::__1::__cxx_atomic_impl.61" }
%"struct.std::__1::__cxx_atomic_impl.61" = type { %"struct.std::__1::__cxx_atomic_base_impl.62" }
%"struct.std::__1::__cxx_atomic_base_impl.62" = type { i32 }
%"class.blink::mojom::WebBluetoothLeScanFilter" = type { %"class.absl::optional", %"class.absl::optional.7", %"class.absl::optional.7", %"class.absl::optional.12" }
%"class.absl::optional" = type { %"class.absl::optional_internal::optional_data" }
%"class.absl::optional_internal::optional_data" = type { %"class.absl::optional_internal::optional_data_base" }
%"class.absl::optional_internal::optional_data_base" = type { %"class.absl::optional_internal::optional_data_dtor_base" }
%"class.absl::optional_internal::optional_data_dtor_base" = type { i8, %union.anon }
%union.anon = type { %"class.std::__1::vector" }
%"class.std::__1::vector" = type { %"class.std::__1::__vector_base" }
%"class.std::__1::__vector_base" = type { %"class.device::BluetoothUUID"*, %"class.device::BluetoothUUID"*, %"class.std::__1::__compressed_pair.2" }
%"class.device::BluetoothUUID" = type { i32, %"class.std::__1::basic_string", %"class.std::__1::basic_string" }
%"class.std::__1::basic_string" = type { %"class.std::__1::__compressed_pair" }
%"class.std::__1::__compressed_pair" = type { %"struct.std::__1::__compressed_pair_elem" }
%"struct.std::__1::__compressed_pair_elem" = type { %"struct.std::__1::basic_string<char, std::__1::char_traits<char>, std::__1::allocator<char> >::__rep" }
%"struct.std::__1::basic_string<char, std::__1::char_traits<char>, std::__1::allocator<char> >::__rep" = type { %union.anon.0 }
%union.anon.0 = type { %"struct.std::__1::basic_string<char, std::__1::char_traits<char>, std::__1::allocator<char> >::__long" }
%"struct.std::__1::basic_string<char, std::__1::char_traits<char>, std::__1::allocator<char> >::__long" = type { i8*, i64, i64 }
%"class.std::__1::__compressed_pair.2" = type { %"struct.std::__1::__compressed_pair_elem.3" }
%"struct.std::__1::__compressed_pair_elem.3" = type { %"class.device::BluetoothUUID"* }
%"class.absl::optional.7" = type { %"class.absl::optional_internal::optional_data.8" }
%"class.absl::optional_internal::optional_data.8" = type { %"class.absl::optional_internal::optional_data_base.9" }
%"class.absl::optional_internal::optional_data_base.9" = type { %"class.absl::optional_internal::optional_data_dtor_base.10" }
%"class.absl::optional_internal::optional_data_dtor_base.10" = type { i8, %union.anon.11 }
%union.anon.11 = type { %"class.std::__1::basic_string" }
%"class.absl::optional.12" = type { %"class.absl::optional_internal::optional_data.13" }
%"class.absl::optional_internal::optional_data.13" = type { %"class.absl::optional_internal::optional_data_base.14" }
%"class.absl::optional_internal::optional_data_base.14" = type { %"class.absl::optional_internal::optional_data_dtor_base.15" }
%"class.absl::optional_internal::optional_data_dtor_base.15" = type { i8, %union.anon.16 }
%union.anon.16 = type { %"class.base::flat_map" }
%"class.base::flat_map" = type { %"class.base::internal::flat_tree" }
%"class.base::internal::flat_tree" = type { %"class.std::__1::vector.17" }
%"class.std::__1::vector.17" = type { %"class.std::__1::__vector_base.18" }
%"class.std::__1::__vector_base.18" = type { %"struct.std::__1::pair"*, %"struct.std::__1::pair"*, %"class.std::__1::__compressed_pair.27" }
%"struct.std::__1::pair" = type { %"class.mojo::InlinedStructPtr", %"class.std::__1::vector.19" }
%"class.mojo::InlinedStructPtr" = type { %"class.blink::mojom::WebBluetoothCompany", i32 }
%"class.blink::mojom::WebBluetoothCompany" = type { i16 }
%"class.std::__1::vector.19" = type { %"class.std::__1::__vector_base.20" }
%"class.std::__1::__vector_base.20" = type { %"class.mojo::InlinedStructPtr.21"*, %"class.mojo::InlinedStructPtr.21"*, %"class.std::__1::__compressed_pair.22" }
%"class.mojo::InlinedStructPtr.21" = type { %"class.blink::mojom::WebBluetoothDataFilter", i32 }
%"class.blink::mojom::WebBluetoothDataFilter" = type { i8, i8 }
%"class.std::__1::__compressed_pair.22" = type { %"struct.std::__1::__compressed_pair_elem.23" }
%"struct.std::__1::__compressed_pair_elem.23" = type { %"class.mojo::InlinedStructPtr.21"* }
%"class.std::__1::__compressed_pair.27" = type { %"struct.std::__1::__compressed_pair_elem.28" }
%"struct.std::__1::__compressed_pair_elem.28" = type { %"struct.std::__1::pair"* }
%"class.blink::mojom::WebBluetoothRequestDeviceOptions" = type <{ %"class.absl::optional.63", %"class.std::__1::vector", %"class.std::__1::vector.78", i8, [7 x i8] }>
%"class.absl::optional.63" = type { %"class.absl::optional_internal::optional_data.64" }
%"class.absl::optional_internal::optional_data.64" = type { %"class.absl::optional_internal::optional_data_base.65" }
%"class.absl::optional_internal::optional_data_base.65" = type { %"class.absl::optional_internal::optional_data_dtor_base.66" }
%"class.absl::optional_internal::optional_data_dtor_base.66" = type { i8, %union.anon.67 }
%union.anon.67 = type { %"class.std::__1::vector.68" }
%"class.std::__1::vector.68" = type { %"class.std::__1::__vector_base.69" }
%"class.std::__1::__vector_base.69" = type { %"class.mojo::StructPtr"*, %"class.mojo::StructPtr"*, %"class.std::__1::__compressed_pair.73" }
%"class.mojo::StructPtr" = type { %"class.std::__1::unique_ptr" }
%"class.std::__1::unique_ptr" = type { %"class.std::__1::__compressed_pair.70" }
%"class.std::__1::__compressed_pair.70" = type { %"struct.std::__1::__compressed_pair_elem.71" }
%"struct.std::__1::__compressed_pair_elem.71" = type { %"class.blink::mojom::WebBluetoothLeScanFilter"* }
%"class.std::__1::__compressed_pair.73" = type { %"struct.std::__1::__compressed_pair_elem.74" }
%"struct.std::__1::__compressed_pair_elem.74" = type { %"class.mojo::StructPtr"* }
%"class.std::__1::vector.78" = type { %"class.std::__1::__vector_base.79" }
%"class.std::__1::__vector_base.79" = type { i16*, i16*, %"class.std::__1::__compressed_pair.80" }
%"class.std::__1::__compressed_pair.80" = type { %"struct.std::__1::__compressed_pair_elem.81" }
%"struct.std::__1::__compressed_pair_elem.81" = type { i16* }
%"class.blink::mojom::WebBluetoothRequestLEScanOptions" = type <{ %"class.absl::optional.63", i8, i8, [6 x i8] }>
%"class.blink::mojom::WebBluetoothDeviceId" = type { %"class.std::__1::basic_string" }
%"class.blink::mojom::WebBluetoothDevice" = type { %"class.blink::WebBluetoothDeviceId", %"class.absl::optional.7" }
%"class.blink::WebBluetoothDeviceId" = type { %"class.std::__1::basic_string" }
%"class.blink::mojom::WebBluetoothRemoteGATTService" = type { %"class.std::__1::basic_string", %"class.device::BluetoothUUID" }
%"class.blink::mojom::WebBluetoothRemoteGATTCharacteristic" = type <{ %"class.std::__1::basic_string", %"class.device::BluetoothUUID", i32, [4 x i8] }>
%"class.blink::mojom::WebBluetoothAdvertisingEvent" = type { %"class.mojo::StructPtr.85", %"class.absl::optional.7", %"class.std::__1::vector", i8, i16, i8, i8, i8, i8, %"class.base::flat_map.92", %"class.base::flat_map.109" }
%"class.mojo::StructPtr.85" = type { %"class.std::__1::unique_ptr.86" }
%"class.std::__1::unique_ptr.86" = type { %"class.std::__1::__compressed_pair.87" }
%"class.std::__1::__compressed_pair.87" = type { %"struct.std::__1::__compressed_pair_elem.88" }
%"struct.std::__1::__compressed_pair_elem.88" = type { %"class.blink::mojom::WebBluetoothDevice"* }
%"class.base::flat_map.92" = type { %"class.base::internal::flat_tree.93" }
%"class.base::internal::flat_tree.93" = type { %"class.std::__1::vector.94" }
%"class.std::__1::vector.94" = type { %"class.std::__1::__vector_base.95" }
%"class.std::__1::__vector_base.95" = type { %"struct.std::__1::pair.96"*, %"struct.std::__1::pair.96"*, %"class.std::__1::__compressed_pair.104" }
%"struct.std::__1::pair.96" = type { i16, %"class.std::__1::vector.97" }
%"class.std::__1::vector.97" = type { %"class.std::__1::__vector_base.98" }
%"class.std::__1::__vector_base.98" = type { i8*, i8*, %"class.std::__1::__compressed_pair.99" }
%"class.std::__1::__compressed_pair.99" = type { %"struct.std::__1::__compressed_pair_elem.100" }
%"struct.std::__1::__compressed_pair_elem.100" = type { i8* }
%"class.std::__1::__compressed_pair.104" = type { %"struct.std::__1::__compressed_pair_elem.105" }
%"struct.std::__1::__compressed_pair_elem.105" = type { %"struct.std::__1::pair.96"* }
%"class.base::flat_map.109" = type { %"class.base::internal::flat_tree.110" }
%"class.base::internal::flat_tree.110" = type { %"class.std::__1::vector.111" }
%"class.std::__1::vector.111" = type { %"class.std::__1::__vector_base.112" }
%"class.std::__1::__vector_base.112" = type { %"struct.std::__1::pair.113"*, %"struct.std::__1::pair.113"*, %"class.std::__1::__compressed_pair.114" }
%"struct.std::__1::pair.113" = type { %"class.device::BluetoothUUID", %"class.std::__1::vector.97" }
%"class.std::__1::__compressed_pair.114" = type { %"struct.std::__1::__compressed_pair_elem.115" }
%"struct.std::__1::__compressed_pair_elem.115" = type { %"struct.std::__1::pair.113"* }
%"class.blink::mojom::WebBluetoothRemoteGATTDescriptor" = type { %"class.std::__1::basic_string", %"class.device::BluetoothUUID" }
%"class.blink::mojom::WebBluetoothServiceProxy" = type { %"class.blink::mojom::WebBluetoothService", %"class.mojo::MessageReceiverWithResponder"* }
%"class.blink::mojom::WebBluetoothService" = type { i32 (...)** }
%"class.mojo::MessageReceiverWithResponder" = type { %"class.mojo::MessageReceiver" }
%"class.mojo::MessageReceiver" = type { i32 (...)** }
%"class.blink::mojom::WebBluetoothServerClientProxy" = type { %"class.blink::mojom::WebBluetoothServerClient", %"class.mojo::MessageReceiverWithResponder"* }
%"class.blink::mojom::WebBluetoothServerClient" = type { i32 (...)** }
%"class.blink::mojom::WebBluetoothCharacteristicClientProxy" = type { %"class.blink::mojom::WebBluetoothCharacteristicClient", %"class.mojo::MessageReceiverWithResponder"* }
%"class.blink::mojom::WebBluetoothCharacteristicClient" = type { i32 (...)** }
%"class.blink::mojom::WebBluetoothAdvertisementClientProxy" = type { %"class.blink::mojom::WebBluetoothAdvertisementClient", %"class.mojo::MessageReceiverWithResponder"* }
%"class.blink::mojom::WebBluetoothAdvertisementClient" = type { i32 (...)** }
%"struct.std::__1::basic_string<char, std::__1::char_traits<char>, std::__1::allocator<char> >::__short" = type { [23 x i8], %struct.anon }
%struct.anon = type { i8 }
%"class.perfetto::TracedValue" = type <{ %"class.perfetto::protos::pbzero::DebugAnnotation"*, %"class.perfetto::internal::CheckedScope", [7 x i8] }>
%"class.perfetto::protos::pbzero::DebugAnnotation" = type { %"class.protozero::Message.base", [7 x i8] }
%"class.protozero::Message.base" = type <{ %"class.protozero::ScatteredStreamWriter"*, %"class.protozero::MessageArena"*, %"class.protozero::Message"*, i8*, i32, i32, i8 }>
%"class.protozero::ScatteredStreamWriter" = type { %"class.protozero::ScatteredStreamWriter::Delegate"*, %"struct.protozero::ContiguousMemoryRange", i8*, i64 }
%"class.protozero::ScatteredStreamWriter::Delegate" = type { i32 (...)** }
%"struct.protozero::ContiguousMemoryRange" = type { i8*, i8* }
%"class.protozero::MessageArena" = type { %"class.std::__1::list" }
%"class.std::__1::list" = type { %"class.std::__1::__list_imp" }
%"class.std::__1::__list_imp" = type { %"struct.std::__1::__list_node_base", %"class.std::__1::__compressed_pair.32" }
%"struct.std::__1::__list_node_base" = type { %"struct.std::__1::__list_node_base"*, %"struct.std::__1::__list_node_base"* }
%"class.std::__1::__compressed_pair.32" = type { %"struct.std::__1::__compressed_pair_elem.33" }
%"struct.std::__1::__compressed_pair_elem.33" = type { i64 }
%"class.protozero::Message" = type <{ %"class.protozero::ScatteredStreamWriter"*, %"class.protozero::MessageArena"*, %"class.protozero::Message"*, i8*, i32, i32, i8, [7 x i8] }>
%"class.perfetto::internal::CheckedScope" = type { i8 }
%"class.perfetto::TracedDictionary" = type <{ %"class.protozero::Message"*, i32, %"class.perfetto::internal::CheckedScope", [3 x i8] }>
%"class.perfetto::TracedArray" = type <{ %"class.perfetto::protos::pbzero::DebugAnnotation"*, %"class.perfetto::internal::CheckedScope", [7 x i8] }>
%"class.std::__1::__vector_base_common" = type { i8 }
%"class.base::OnceCallback" = type { %"class.base::internal::CallbackBase" }
%"class.blink::mojom::internal::WebBluetoothService_GetAvailability_Params_Data" = type { %"struct.mojo::internal::StructHeader" }
%"struct.mojo::internal::StructHeader" = type { i32, i32 }
%"class.mojo::StructPtr.125" = type { %"class.std::__1::unique_ptr.126" }
%"class.std::__1::unique_ptr.126" = type { %"class.std::__1::__compressed_pair.127" }
%"class.std::__1::__compressed_pair.127" = type { %"struct.std::__1::__compressed_pair_elem.128" }
%"struct.std::__1::__compressed_pair_elem.128" = type { %"class.blink::mojom::WebBluetoothRequestDeviceOptions"* }
%"class.base::OnceCallback.132" = type { %"class.base::internal::CallbackBase" }
%"class.mojo::internal::MessageFragment.134" = type { %"class.mojo::Message"*, i64 }
%"class.blink::mojom::internal::WebBluetoothService_RequestDevice_Params_Data" = type { %"struct.mojo::internal::StructHeader", %"struct.mojo::internal::Pointer" }
%"struct.mojo::internal::Pointer" = type { i64 }
%"class.blink::mojom::internal::WebBluetoothRequestDeviceOptions_Data" = type { %"struct.mojo::internal::StructHeader", %"struct.mojo::internal::Pointer.135", %"struct.mojo::internal::Pointer.136", %"struct.mojo::internal::Pointer.137", i8, [7 x i8] }
%"struct.mojo::internal::Pointer.135" = type { i64 }
%"struct.mojo::internal::Pointer.136" = type { i64 }
%"struct.mojo::internal::Pointer.137" = type { i64 }
%"class.base::OnceCallback.138" = type { %"class.base::internal::CallbackBase" }
%"class.blink::mojom::internal::WebBluetoothService_GetDevices_Params_Data" = type { %"struct.mojo::internal::StructHeader" }
%"class.mojo::PendingAssociatedRemote" = type <{ %"class.mojo::ScopedInterfaceEndpointHandle", i32, [4 x i8] }>
%"class.base::OnceCallback.140" = type { %"class.base::internal::CallbackBase" }
%"class.mojo::internal::MessageFragment.157" = type { %"class.mojo::Message"*, i64 }
%"class.blink::mojom::internal::WebBluetoothService_RemoteServerConnect_Params_Data" = type { %"struct.mojo::internal::StructHeader", %"struct.mojo::internal::Pointer.143", %"struct.mojo::internal::AssociatedInterface_Data" }
%"struct.mojo::internal::Pointer.143" = type { i64 }
%"struct.mojo::internal::AssociatedInterface_Data" = type { %"struct.mojo::internal::AssociatedEndpointHandle_Data", i32 }
%"struct.mojo::internal::AssociatedEndpointHandle_Data" = type { i32 }
%"class.blink::mojom::internal::WebBluetoothDeviceId_Data" = type { %"struct.mojo::internal::StructHeader", %"struct.mojo::internal::Pointer.144" }
%"struct.mojo::internal::Pointer.144" = type { i64 }
%"class.mojo::internal::Array_Data" = type { %"struct.mojo::internal::ArrayHeader" }
%"struct.mojo::internal::ArrayHeader" = type { i32, i32 }
%"class.blink::mojom::internal::WebBluetoothService_RemoteServerDisconnect_Params_Data" = type { %"struct.mojo::internal::StructHeader", %"struct.mojo::internal::Pointer.143" }
%"class.absl::optional.146" = type { %"class.absl::optional_internal::optional_data.147" }
%"class.absl::optional_internal::optional_data.147" = type { %"class.absl::optional_internal::optional_data_base.148" }
%"class.absl::optional_internal::optional_data_base.148" = type { %"class.absl::optional_internal::optional_data_dtor_base.149" }
%"class.absl::optional_internal::optional_data_dtor_base.149" = type { i8, %union.anon.150 }
%union.anon.150 = type { %"class.device::BluetoothUUID" }
%"class.base::OnceCallback.151" = type { %"class.base::internal::CallbackBase" }
%"class.blink::mojom::internal::WebBluetoothService_RemoteServerGetPrimaryServices_Params_Data" = type { %"struct.mojo::internal::StructHeader", %"struct.mojo::internal::Pointer.143", i32, [4 x i8], %"struct.mojo::internal::Pointer.153" }
%"struct.mojo::internal::Pointer.153" = type { i64 }
%"class.bluetooth::mojom::internal::UUID_Data" = type { %"struct.mojo::internal::StructHeader", %"struct.mojo::internal::Pointer.144" }
%"class.base::OnceCallback.155" = type { %"class.base::internal::CallbackBase" }
%"class.blink::mojom::internal::WebBluetoothService_RemoteServiceGetCharacteristics_Params_Data" = type { %"struct.mojo::internal::StructHeader", %"struct.mojo::internal::Pointer.144", i32, [4 x i8], %"struct.mojo::internal::Pointer.153" }
%"class.base::OnceCallback.158" = type { %"class.base::internal::CallbackBase" }
%"class.blink::mojom::internal::WebBluetoothService_RemoteCharacteristicReadValue_Params_Data" = type { %"struct.mojo::internal::StructHeader", %"struct.mojo::internal::Pointer.144" }
%"class.mojo::internal::ContainerValidateParams" = type { i32, i8, %"class.mojo::internal::ContainerValidateParams"*, %"class.mojo::internal::ContainerValidateParams"*, i1 (i32, %"class.mojo::internal::ValidationContext"*)* }
%"class.blink::mojom::internal::WebBluetoothService_RemoteCharacteristicWriteValue_Params_Data" = type { %"struct.mojo::internal::StructHeader", %"struct.mojo::internal::Pointer.144", %"struct.mojo::internal::Pointer.161", i32, [4 x i8] }
%"struct.mojo::internal::Pointer.161" = type { i64 }
%"class.mojo::internal::Array_Data.163" = type { %"struct.mojo::internal::ArrayHeader" }
%"class.mojo::PendingAssociatedRemote.164" = type <{ %"class.mojo::ScopedInterfaceEndpointHandle", i32, [4 x i8] }>
%"class.blink::mojom::internal::WebBluetoothService_RemoteCharacteristicStartNotifications_Params_Data" = type { %"struct.mojo::internal::StructHeader", %"struct.mojo::internal::Pointer.144", %"struct.mojo::internal::AssociatedInterface_Data" }
%"class.base::OnceCallback.167" = type { %"class.base::internal::CallbackBase" }
%"class.blink::mojom::internal::WebBluetoothService_RemoteCharacteristicStopNotifications_Params_Data" = type { %"struct.mojo::internal::StructHeader", %"struct.mojo::internal::Pointer.144" }
%"class.base::OnceCallback.169" = type { %"class.base::internal::CallbackBase" }
%"class.blink::mojom::internal::WebBluetoothService_RemoteCharacteristicGetDescriptors_Params_Data" = type { %"struct.mojo::internal::StructHeader", %"struct.mojo::internal::Pointer.144", i32, [4 x i8], %"struct.mojo::internal::Pointer.153" }
%"class.blink::mojom::internal::WebBluetoothService_RemoteDescriptorReadValue_Params_Data" = type { %"struct.mojo::internal::StructHeader", %"struct.mojo::internal::Pointer.144" }
%"class.blink::mojom::internal::WebBluetoothService_RemoteDescriptorWriteValue_Params_Data" = type { %"struct.mojo::internal::StructHeader", %"struct.mojo::internal::Pointer.144", %"struct.mojo::internal::Pointer.161" }
%"class.mojo::PendingAssociatedRemote.173" = type <{ %"class.mojo::ScopedInterfaceEndpointHandle", i32, [4 x i8] }>
%"class.mojo::StructPtr.175" = type { %"class.std::__1::unique_ptr.176" }
%"class.std::__1::unique_ptr.176" = type { %"class.std::__1::__compressed_pair.177" }
%"class.std::__1::__compressed_pair.177" = type { %"struct.std::__1::__compressed_pair_elem.178" }
%"struct.std::__1::__compressed_pair_elem.178" = type { %"class.blink::mojom::WebBluetoothRequestLEScanOptions"* }
%"class.mojo::internal::MessageFragment.184" = type { %"class.mojo::Message"*, i64 }
%"class.blink::mojom::internal::WebBluetoothService_RequestScanningStart_Params_Data" = type { %"struct.mojo::internal::StructHeader", %"struct.mojo::internal::AssociatedInterface_Data", %"struct.mojo::internal::Pointer.183" }
%"struct.mojo::internal::Pointer.183" = type { i64 }
%"class.blink::mojom::internal::WebBluetoothRequestLEScanOptions_Data" = type { %"struct.mojo::internal::StructHeader", %"struct.mojo::internal::Pointer.135", i8, [7 x i8] }
%"class.blink::mojom::internal::WebBluetoothService_WatchAdvertisementsForDevice_Params_Data" = type { %"struct.mojo::internal::StructHeader", %"struct.mojo::internal::Pointer.143", %"struct.mojo::internal::AssociatedInterface_Data" }
%"class.blink::mojom::WebBluetoothService_GetAvailability_ForwardToCallback" = type { %"class.mojo::MessageReceiver", %"class.base::OnceCallback" }
%"class.blink::mojom::WebBluetoothService_GetAvailability_ProxyToResponder" = type { i64, i8, %"class.std::__1::unique_ptr.186" }
%"class.std::__1::unique_ptr.186" = type { %"class.std::__1::__compressed_pair.187" }
%"class.std::__1::__compressed_pair.187" = type { %"struct.std::__1::__compressed_pair_elem.188" }
%"struct.std::__1::__compressed_pair_elem.188" = type { %"class.mojo::MessageReceiverWithStatus"* }
%"class.mojo::MessageReceiverWithStatus" = type { %"class.mojo::MessageReceiver" }
%"class.blink::mojom::internal::WebBluetoothService_GetAvailability_ResponseParams_Data" = type { %"struct.mojo::internal::StructHeader", i8, [7 x i8] }
%"struct.mojo::internal::MessageHeaderV1" = type { %"struct.mojo::internal::MessageHeader", i64 }
%"struct.mojo::internal::MessageHeader" = type { %"struct.mojo::internal::StructHeader", i32, i32, i32, i32 }
%"class.blink::mojom::WebBluetoothService_RequestDevice_ForwardToCallback" = type { %"class.mojo::MessageReceiver", %"class.base::OnceCallback.132" }
%"class.blink::mojom::internal::WebBluetoothDevice_Data" = type { %"struct.mojo::internal::StructHeader", %"struct.mojo::internal::Pointer.143", %"struct.mojo::internal::Pointer.144" }
%"class.blink::mojom::WebBluetoothService_RequestDevice_ProxyToResponder" = type { i64, i8, %"class.std::__1::unique_ptr.186" }
%"class.mojo::internal::MessageFragment.195" = type { %"class.mojo::Message"*, i64 }
%"class.blink::mojom::internal::WebBluetoothService_RequestDevice_ResponseParams_Data" = type { %"struct.mojo::internal::StructHeader", i32, [4 x i8], %"struct.mojo::internal::Pointer.193" }
%"struct.mojo::internal::Pointer.193" = type { i64 }
%"class.blink::mojom::WebBluetoothService_GetDevices_ForwardToCallback" = type { %"class.mojo::MessageReceiver", %"class.base::OnceCallback.138" }
%"class.std::__1::vector.197" = type { %"class.std::__1::__vector_base.198" }
%"class.std::__1::__vector_base.198" = type { %"class.mojo::StructPtr.85"*, %"class.mojo::StructPtr.85"*, %"class.std::__1::__compressed_pair.199" }
%"class.std::__1::__compressed_pair.199" = type { %"struct.std::__1::__compressed_pair_elem.200" }
%"struct.std::__1::__compressed_pair_elem.200" = type { %"class.mojo::StructPtr.85"* }
%"class.blink::mojom::WebBluetoothService_GetDevices_ResponseParamsDataView" = type { %"class.blink::mojom::internal::WebBluetoothService_GetDevices_ResponseParams_Data"*, %"class.mojo::Message"* }
%"class.blink::mojom::internal::WebBluetoothService_GetDevices_ResponseParams_Data" = type { %"struct.mojo::internal::StructHeader", %"struct.mojo::internal::Pointer.196" }
%"struct.mojo::internal::Pointer.196" = type { i64 }
%"class.mojo::internal::Array_Data.206" = type { %"struct.mojo::internal::ArrayHeader" }
%"class.blink::mojom::WebBluetoothService_GetDevices_ProxyToResponder" = type { i64, i8, %"class.std::__1::unique_ptr.186" }
%"class.blink::mojom::WebBluetoothService_RemoteServerConnect_ForwardToCallback" = type { %"class.mojo::MessageReceiver", %"class.base::OnceCallback.140" }
%"class.blink::mojom::WebBluetoothService_RemoteServerConnect_ProxyToResponder" = type { i64, i8, %"class.std::__1::unique_ptr.186" }
%"class.blink::mojom::internal::WebBluetoothService_RemoteServerConnect_ResponseParams_Data" = type { %"struct.mojo::internal::StructHeader", i32, [4 x i8] }
%"class.blink::mojom::WebBluetoothService_RemoteServerGetPrimaryServices_ForwardToCallback" = type { %"class.mojo::MessageReceiver", %"class.base::OnceCallback.151" }
%"class.mojo::internal::Array_Data.230" = type { %"struct.mojo::internal::ArrayHeader" }
%"class.absl::optional.209" = type { %"class.absl::optional_internal::optional_data.210" }
%"class.absl::optional_internal::optional_data.210" = type { %"class.absl::optional_internal::optional_data_base.211" }
%"class.absl::optional_internal::optional_data_base.211" = type { %"class.absl::optional_internal::optional_data_dtor_base.212" }
%"class.absl::optional_internal::optional_data_dtor_base.212" = type { i8, %union.anon.213 }
%union.anon.213 = type { %"class.std::__1::vector.214" }
%"class.std::__1::vector.214" = type { %"class.std::__1::__vector_base.215" }
%"class.std::__1::__vector_base.215" = type { %"class.mojo::StructPtr.216"*, %"class.mojo::StructPtr.216"*, %"class.std::__1::__compressed_pair.223" }
%"class.mojo::StructPtr.216" = type { %"class.std::__1::unique_ptr.217" }
%"class.std::__1::unique_ptr.217" = type { %"class.std::__1::__compressed_pair.218" }
%"class.std::__1::__compressed_pair.218" = type { %"struct.std::__1::__compressed_pair_elem.219" }
%"struct.std::__1::__compressed_pair_elem.219" = type { %"class.blink::mojom::WebBluetoothRemoteGATTService"* }
%"class.std::__1::__compressed_pair.223" = type { %"struct.std::__1::__compressed_pair_elem.224" }
%"struct.std::__1::__compressed_pair_elem.224" = type { %"class.mojo::StructPtr.216"* }
%"class.blink::mojom::WebBluetoothService_RemoteServerGetPrimaryServices_ResponseParamsDataView" = type { %"class.blink::mojom::internal::WebBluetoothService_RemoteServerGetPrimaryServices_ResponseParams_Data"*, %"class.mojo::Message"* }
%"class.blink::mojom::internal::WebBluetoothService_RemoteServerGetPrimaryServices_ResponseParams_Data" = type { %"struct.mojo::internal::StructHeader", i32, [4 x i8], %"struct.mojo::internal::Pointer.208" }
%"struct.mojo::internal::Pointer.208" = type { i64 }
%"class.blink::mojom::WebBluetoothService_RemoteServerGetPrimaryServices_ProxyToResponder" = type { i64, i8, %"class.std::__1::unique_ptr.186" }
%"class.mojo::internal::MessageFragment.517" = type { %"class.mojo::Message"*, i64 }
%"class.blink::mojom::internal::WebBluetoothRemoteGATTService_Data" = type { %"struct.mojo::internal::StructHeader", %"struct.mojo::internal::Pointer.144", %"struct.mojo::internal::Pointer.153" }
%"class.blink::mojom::WebBluetoothService_RemoteServiceGetCharacteristics_ForwardToCallback" = type { %"class.mojo::MessageReceiver", %"class.base::OnceCallback.155" }
%"class.mojo::internal::Array_Data.253" = type { %"struct.mojo::internal::ArrayHeader" }
%"class.absl::optional.232" = type { %"class.absl::optional_internal::optional_data.233" }
%"class.absl::optional_internal::optional_data.233" = type { %"class.absl::optional_internal::optional_data_base.234" }
%"class.absl::optional_internal::optional_data_base.234" = type { %"class.absl::optional_internal::optional_data_dtor_base.235" }
%"class.absl::optional_internal::optional_data_dtor_base.235" = type { i8, %union.anon.236 }
%union.anon.236 = type { %"class.std::__1::vector.237" }
%"class.std::__1::vector.237" = type { %"class.std::__1::__vector_base.238" }
%"class.std::__1::__vector_base.238" = type { %"class.mojo::StructPtr.239"*, %"class.mojo::StructPtr.239"*, %"class.std::__1::__compressed_pair.246" }
%"class.mojo::StructPtr.239" = type { %"class.std::__1::unique_ptr.240" }
%"class.std::__1::unique_ptr.240" = type { %"class.std::__1::__compressed_pair.241" }
%"class.std::__1::__compressed_pair.241" = type { %"struct.std::__1::__compressed_pair_elem.242" }
%"struct.std::__1::__compressed_pair_elem.242" = type { %"class.blink::mojom::WebBluetoothRemoteGATTCharacteristic"* }
%"class.std::__1::__compressed_pair.246" = type { %"struct.std::__1::__compressed_pair_elem.247" }
%"struct.std::__1::__compressed_pair_elem.247" = type { %"class.mojo::StructPtr.239"* }
%"class.blink::mojom::WebBluetoothService_RemoteServiceGetCharacteristics_ResponseParamsDataView" = type { %"class.blink::mojom::internal::WebBluetoothService_RemoteServiceGetCharacteristics_ResponseParams_Data"*, %"class.mojo::Message"* }
%"class.blink::mojom::internal::WebBluetoothService_RemoteServiceGetCharacteristics_ResponseParams_Data" = type { %"struct.mojo::internal::StructHeader", i32, [4 x i8], %"struct.mojo::internal::Pointer.231" }
%"struct.mojo::internal::Pointer.231" = type { i64 }
%"class.blink::mojom::WebBluetoothService_RemoteServiceGetCharacteristics_ProxyToResponder" = type { i64, i8, %"class.std::__1::unique_ptr.186" }
%"class.mojo::internal::MessageFragment.522" = type { %"class.mojo::Message"*, i64 }
%"class.blink::mojom::internal::WebBluetoothRemoteGATTCharacteristic_Data" = type { %"struct.mojo::internal::StructHeader", %"struct.mojo::internal::Pointer.144", %"struct.mojo::internal::Pointer.153", i32, [4 x i8] }
%"class.blink::mojom::WebBluetoothService_RemoteCharacteristicReadValue_ForwardToCallback" = type { %"class.mojo::MessageReceiver", %"class.base::OnceCallback.158" }
%"class.absl::optional.254" = type { %"class.absl::optional_internal::optional_data.255" }
%"class.absl::optional_internal::optional_data.255" = type { %"class.absl::optional_internal::optional_data_base.256" }
%"class.absl::optional_internal::optional_data_base.256" = type { %"class.absl::optional_internal::optional_data_dtor_base.257" }
%"class.absl::optional_internal::optional_data_dtor_base.257" = type { i8, %union.anon.258 }
%union.anon.258 = type { %"class.std::__1::vector.97" }
%"class.blink::mojom::WebBluetoothService_RemoteCharacteristicReadValue_ResponseParamsDataView" = type { %"class.blink::mojom::internal::WebBluetoothService_RemoteCharacteristicReadValue_ResponseParams_Data"*, %"class.mojo::Message"* }
%"class.blink::mojom::internal::WebBluetoothService_RemoteCharacteristicReadValue_ResponseParams_Data" = type { %"struct.mojo::internal::StructHeader", i32, [4 x i8], %"struct.mojo::internal::Pointer.161" }
%"class.blink::mojom::WebBluetoothService_RemoteCharacteristicReadValue_ProxyToResponder" = type { i64, i8, %"class.std::__1::unique_ptr.186" }
%"class.blink::mojom::WebBluetoothService_RemoteCharacteristicWriteValue_ForwardToCallback" = type { %"class.mojo::MessageReceiver", %"class.base::OnceCallback.140" }
%"class.blink::mojom::WebBluetoothService_RemoteCharacteristicWriteValue_ProxyToResponder" = type { i64, i8, %"class.std::__1::unique_ptr.186" }
%"class.blink::mojom::internal::WebBluetoothService_RemoteCharacteristicWriteValue_ResponseParams_Data" = type { %"struct.mojo::internal::StructHeader", i32, [4 x i8] }
%"class.blink::mojom::WebBluetoothService_RemoteCharacteristicStartNotifications_ForwardToCallback" = type { %"class.mojo::MessageReceiver", %"class.base::OnceCallback.140" }
%"class.blink::mojom::WebBluetoothService_RemoteCharacteristicStartNotifications_ProxyToResponder" = type { i64, i8, %"class.std::__1::unique_ptr.186" }
%"class.blink::mojom::internal::WebBluetoothService_RemoteCharacteristicStartNotifications_ResponseParams_Data" = type { %"struct.mojo::internal::StructHeader", i32, [4 x i8] }
%"class.blink::mojom::WebBluetoothService_RemoteCharacteristicStopNotifications_ForwardToCallback" = type { %"class.mojo::MessageReceiver", %"class.base::OnceCallback.167" }
%"class.blink::mojom::WebBluetoothService_RemoteCharacteristicStopNotifications_ProxyToResponder" = type { i64, i8, %"class.std::__1::unique_ptr.186" }
%"class.blink::mojom::internal::WebBluetoothService_RemoteCharacteristicStopNotifications_ResponseParams_Data" = type { %"struct.mojo::internal::StructHeader" }
%"class.blink::mojom::WebBluetoothService_RemoteCharacteristicGetDescriptors_ForwardToCallback" = type { %"class.mojo::MessageReceiver", %"class.base::OnceCallback.169" }
%"class.mojo::internal::Array_Data.285" = type { %"struct.mojo::internal::ArrayHeader" }
%"class.absl::optional.264" = type { %"class.absl::optional_internal::optional_data.265" }
%"class.absl::optional_internal::optional_data.265" = type { %"class.absl::optional_internal::optional_data_base.266" }
%"class.absl::optional_internal::optional_data_base.266" = type { %"class.absl::optional_internal::optional_data_dtor_base.267" }
%"class.absl::optional_internal::optional_data_dtor_base.267" = type { i8, %union.anon.268 }
%union.anon.268 = type { %"class.std::__1::vector.269" }
%"class.std::__1::vector.269" = type { %"class.std::__1::__vector_base.270" }
%"class.std::__1::__vector_base.270" = type { %"class.mojo::StructPtr.271"*, %"class.mojo::StructPtr.271"*, %"class.std::__1::__compressed_pair.278" }
%"class.mojo::StructPtr.271" = type { %"class.std::__1::unique_ptr.272" }
%"class.std::__1::unique_ptr.272" = type { %"class.std::__1::__compressed_pair.273" }
%"class.std::__1::__compressed_pair.273" = type { %"struct.std::__1::__compressed_pair_elem.274" }
%"struct.std::__1::__compressed_pair_elem.274" = type { %"class.blink::mojom::WebBluetoothRemoteGATTDescriptor"* }
%"class.std::__1::__compressed_pair.278" = type { %"struct.std::__1::__compressed_pair_elem.279" }
%"struct.std::__1::__compressed_pair_elem.279" = type { %"class.mojo::StructPtr.271"* }
%"class.blink::mojom::WebBluetoothService_RemoteCharacteristicGetDescriptors_ResponseParamsDataView" = type { %"class.blink::mojom::internal::WebBluetoothService_RemoteCharacteristicGetDescriptors_ResponseParams_Data"*, %"class.mojo::Message"* }
%"class.blink::mojom::internal::WebBluetoothService_RemoteCharacteristicGetDescriptors_ResponseParams_Data" = type { %"struct.mojo::internal::StructHeader", i32, [4 x i8], %"struct.mojo::internal::Pointer.263" }
%"struct.mojo::internal::Pointer.263" = type { i64 }
%"class.blink::mojom::WebBluetoothService_RemoteCharacteristicGetDescriptors_ProxyToResponder" = type { i64, i8, %"class.std::__1::unique_ptr.186" }
%"class.mojo::internal::MessageFragment.530" = type { %"class.mojo::Message"*, i64 }
%"class.blink::mojom::internal::WebBluetoothRemoteGATTDescriptor_Data" = type { %"struct.mojo::internal::StructHeader", %"struct.mojo::internal::Pointer.144", %"struct.mojo::internal::Pointer.153" }
%"class.blink::mojom::WebBluetoothService_RemoteDescriptorReadValue_ForwardToCallback" = type { %"class.mojo::MessageReceiver", %"class.base::OnceCallback.158" }
%"class.blink::mojom::WebBluetoothService_RemoteDescriptorReadValue_ResponseParamsDataView" = type { %"class.blink::mojom::internal::WebBluetoothService_RemoteDescriptorReadValue_ResponseParams_Data"*, %"class.mojo::Message"* }
%"class.blink::mojom::internal::WebBluetoothService_RemoteDescriptorReadValue_ResponseParams_Data" = type { %"struct.mojo::internal::StructHeader", i32, [4 x i8], %"struct.mojo::internal::Pointer.161" }
%"class.blink::mojom::WebBluetoothService_RemoteDescriptorReadValue_ProxyToResponder" = type { i64, i8, %"class.std::__1::unique_ptr.186" }
%"class.blink::mojom::WebBluetoothService_RemoteDescriptorWriteValue_ForwardToCallback" = type { %"class.mojo::MessageReceiver", %"class.base::OnceCallback.140" }
%"class.blink::mojom::WebBluetoothService_RemoteDescriptorWriteValue_ProxyToResponder" = type { i64, i8, %"class.std::__1::unique_ptr.186" }
%"class.blink::mojom::internal::WebBluetoothService_RemoteDescriptorWriteValue_ResponseParams_Data" = type { %"struct.mojo::internal::StructHeader", i32, [4 x i8] }
%"class.blink::mojom::WebBluetoothService_RequestScanningStart_ForwardToCallback" = type { %"class.mojo::MessageReceiver", %"class.base::OnceCallback.140" }
%"class.blink::mojom::WebBluetoothService_RequestScanningStart_ProxyToResponder" = type { i64, i8, %"class.std::__1::unique_ptr.186" }
%"class.blink::mojom::internal::WebBluetoothService_RequestScanningStart_ResponseParams_Data" = type { %"struct.mojo::internal::StructHeader", i32, [4 x i8] }
%"class.blink::mojom::WebBluetoothService_WatchAdvertisementsForDevice_ForwardToCallback" = type { %"class.mojo::MessageReceiver", %"class.base::OnceCallback.140" }
%"class.blink::mojom::WebBluetoothService_WatchAdvertisementsForDevice_ProxyToResponder" = type { i64, i8, %"class.std::__1::unique_ptr.186" }
%"class.blink::mojom::internal::WebBluetoothService_WatchAdvertisementsForDevice_ResponseParams_Data" = type { %"struct.mojo::internal::StructHeader", i32, [4 x i8] }
%"class.base::TaskAnnotator::ScopedSetIpcHash" = type { %"class.base::TaskAnnotator::ScopedSetIpcHash"*, i32, i8* }
%"class.blink::mojom::WebBluetoothServiceRequestValidator" = type { %"class.mojo::MessageReceiver" }
%"class.blink::mojom::WebBluetoothServiceResponseValidator" = type { %"class.mojo::MessageReceiver" }
%"class.blink::mojom::internal::WebBluetoothServerClient_GATTServerDisconnected_Params_Data" = type { %"struct.mojo::internal::StructHeader" }
%"class.blink::mojom::WebBluetoothServerClientRequestValidator" = type { %"class.mojo::MessageReceiver" }
%"class.blink::mojom::internal::WebBluetoothCharacteristicClient_RemoteCharacteristicValueChanged_Params_Data" = type { %"struct.mojo::internal::StructHeader", %"struct.mojo::internal::Pointer.161" }
%"class.blink::mojom::WebBluetoothCharacteristicClientRequestValidator" = type { %"class.mojo::MessageReceiver" }
%"class.mojo::StructPtr.293" = type { %"class.std::__1::unique_ptr.294" }
%"class.std::__1::unique_ptr.294" = type { %"class.std::__1::__compressed_pair.295" }
%"class.std::__1::__compressed_pair.295" = type { %"struct.std::__1::__compressed_pair_elem.296" }
%"struct.std::__1::__compressed_pair_elem.296" = type { %"class.blink::mojom::WebBluetoothAdvertisingEvent"* }
%"class.mojo::internal::MessageFragment.301" = type { %"class.mojo::Message"*, i64 }
%"class.blink::mojom::internal::WebBluetoothAdvertisementClient_AdvertisingEvent_Params_Data" = type { %"struct.mojo::internal::StructHeader", %"struct.mojo::internal::Pointer.302" }
%"struct.mojo::internal::Pointer.302" = type { i64 }
%"class.blink::mojom::internal::WebBluetoothAdvertisingEvent_Data" = type { %"struct.mojo::internal::StructHeader", %"struct.mojo::internal::Pointer.193", %"struct.mojo::internal::Pointer.144", %"struct.mojo::internal::Pointer.136", i8, i8, i16, i8, [3 x i8], %"struct.mojo::internal::Pointer.303", %"struct.mojo::internal::Pointer.304" }
%"struct.mojo::internal::Pointer.303" = type { i64 }
%"struct.mojo::internal::Pointer.304" = type { i64 }
%"class.blink::mojom::WebBluetoothAdvertisementClientRequestValidator" = type { %"class.mojo::MessageReceiver" }
%"class.blink::mojom::internal::WebBluetoothLeScanFilter_Data" = type { %"struct.mojo::internal::StructHeader", %"struct.mojo::internal::Pointer.136", %"struct.mojo::internal::Pointer.144", %"struct.mojo::internal::Pointer.144", %"struct.mojo::internal::Pointer.305" }
%"struct.mojo::internal::Pointer.305" = type { i64 }
%"class.mojo::internal::Array_Data.482" = type { %"struct.mojo::internal::ArrayHeader" }
%"class.blink::mojom::WebBluetoothLeScanFilterDataView" = type { %"class.blink::mojom::internal::WebBluetoothLeScanFilter_Data"*, %"class.mojo::Message"* }
%"class.mojo::internal::Map_Data" = type { %"struct.mojo::internal::StructHeader", %"struct.mojo::internal::Pointer.488", %"struct.mojo::internal::Pointer.489" }
%"struct.mojo::internal::Pointer.488" = type { i64 }
%"struct.mojo::internal::Pointer.489" = type { i64 }
%"class.blink::mojom::internal::WebBluetoothCompany_Data" = type { %"struct.mojo::internal::StructHeader", i16, [6 x i8] }
%"class.blink::mojom::internal::WebBluetoothDataFilter_Data" = type { %"struct.mojo::internal::StructHeader", i8, i8, [6 x i8] }
%"class.mojo::internal::Array_Data.480" = type { %"struct.mojo::internal::ArrayHeader" }
%"class.blink::mojom::WebBluetoothRequestDeviceOptionsDataView" = type { %"class.blink::mojom::internal::WebBluetoothRequestDeviceOptions_Data"*, %"class.mojo::Message"* }
%"class.blink::mojom::WebBluetoothRequestLEScanOptionsDataView" = type { %"class.blink::mojom::internal::WebBluetoothRequestLEScanOptions_Data"*, %"class.mojo::Message"* }
%"class.mojo::InlinedStructPtr.306" = type <{ %"class.blink::mojom::WebBluetoothDeviceId", i32, [4 x i8] }>
%"class.blink::mojom::WebBluetoothDeviceDataView" = type { %"class.blink::mojom::internal::WebBluetoothDevice_Data"*, %"class.mojo::Message"* }
%"class.blink::mojom::WebBluetoothAdvertisingEventDataView" = type { %"class.blink::mojom::internal::WebBluetoothAdvertisingEvent_Data"*, %"class.mojo::Message"* }
%"class.mojo::internal::Map_Data.534" = type { %"struct.mojo::internal::StructHeader", %"struct.mojo::internal::Pointer.137", %"struct.mojo::internal::Pointer.535" }
%"struct.mojo::internal::Pointer.535" = type { i64 }
%"class.mojo::internal::Map_Data.537" = type { %"struct.mojo::internal::StructHeader", %"struct.mojo::internal::Pointer.136", %"struct.mojo::internal::Pointer.535" }
%"class.std::__1::unique_ptr.349" = type { %"class.std::__1::__compressed_pair.350" }
%"class.std::__1::__compressed_pair.350" = type { %"struct.std::__1::__compressed_pair_elem.351" }
%"struct.std::__1::__compressed_pair_elem.351" = type { %"class.blink::mojom::WebBluetoothService_RemoteServerGetPrimaryServices_ProxyToResponder"* }
%"class.std::__1::unique_ptr.360" = type { %"class.std::__1::__compressed_pair.361" }
%"class.std::__1::__compressed_pair.361" = type { %"struct.std::__1::__compressed_pair_elem.362" }
%"struct.std::__1::__compressed_pair_elem.362" = type { %"class.blink::mojom::WebBluetoothService_RemoteServiceGetCharacteristics_ProxyToResponder"* }
%"class.std::__1::unique_ptr.415" = type { %"class.std::__1::__compressed_pair.416" }
%"class.std::__1::__compressed_pair.416" = type { %"struct.std::__1::__compressed_pair_elem.417" }
%"struct.std::__1::__compressed_pair_elem.417" = type { %"class.blink::mojom::WebBluetoothService_RemoteCharacteristicGetDescriptors_ProxyToResponder"* }
%"class.mojo::internal::ArrayIterator.509" = type { %"class.std::__1::vector"*, i64 }
%"class.mojo::internal::MessageFragment.485" = type { %"class.mojo::Message"*, i64 }
%"class.mojo::internal::MessageFragment.481" = type { %"class.mojo::Message"*, i64 }
%"class.mojo::internal::Array_Data.484" = type { %"struct.mojo::internal::ArrayHeader" }
%"class.mojo::internal::MessageFragment.487" = type { %"class.mojo::Message"*, i64 }
%"class.mojo::internal::MessageFragment.495" = type { %"class.mojo::Message"*, i64 }
%"class.mojo::internal::MapValueReader" = type { %"class.mojo::internal::MapReaderBase" }
%"class.mojo::internal::MapReaderBase" = type { %"class.base::flat_map"*, %"class.std::__1::__wrap_iter.493" }
%"class.std::__1::__wrap_iter.493" = type { %"struct.std::__1::pair"* }
%"class.mojo::internal::Array_Data.494" = type { %"struct.mojo::internal::ArrayHeader" }
%"class.mojo::internal::Array_Data.503" = type { %"struct.mojo::internal::ArrayHeader" }
%"class.mojo::internal::Array_Data.496" = type { %"struct.mojo::internal::ArrayHeader" }
%"class.mojo::internal::MessageFragment.533" = type { %"class.mojo::Message"*, i64 }
%"class.mojo::internal::MessageFragment.536" = type { %"class.mojo::Message"*, i64 }
%"class.mojo::internal::Array_Data.543" = type { %"struct.mojo::internal::ArrayHeader" }
%"class.mojo::internal::MapKeyReader.544" = type { %"class.mojo::internal::MapReaderBase.545" }
%"class.mojo::internal::MapReaderBase.545" = type { %"class.base::flat_map.109"*, %"class.std::__1::__wrap_iter.546" }
%"class.std::__1::__wrap_iter.546" = type { %"struct.std::__1::pair.113"* }
%"class.std::__1::vector.556" = type { %"class.std::__1::__vector_base.557" }
%"class.std::__1::__vector_base.557" = type { %"class.std::__1::vector.19"*, %"class.std::__1::vector.19"*, %"class.std::__1::__compressed_pair.558" }
%"class.std::__1::__compressed_pair.558" = type { %"struct.std::__1::__compressed_pair_elem.559" }
%"struct.std::__1::__compressed_pair_elem.559" = type { %"class.std::__1::vector.19"* }
%"struct.std::__1::__split_buffer" = type { %"struct.std::__1::pair"*, %"struct.std::__1::pair"*, %"struct.std::__1::pair"*, %"class.std::__1::__compressed_pair.570" }
%"class.std::__1::__compressed_pair.570" = type { %"struct.std::__1::__compressed_pair_elem.28", %"struct.std::__1::__compressed_pair_elem.571" }
%"struct.std::__1::__compressed_pair_elem.571" = type { %"class.std::__1::allocator.30"* }
%"class.std::__1::allocator.30" = type { i8 }
%"class.std::__1::vector.574" = type { %"class.std::__1::__vector_base.575" }
%"class.std::__1::__vector_base.575" = type { %"class.std::__1::vector.97"*, %"class.std::__1::vector.97"*, %"class.std::__1::__compressed_pair.576" }
%"class.std::__1::__compressed_pair.576" = type { %"struct.std::__1::__compressed_pair_elem.577" }
%"struct.std::__1::__compressed_pair_elem.577" = type { %"class.std::__1::vector.97"* }
%"struct.std::__1::__split_buffer.587" = type { %"struct.std::__1::pair.96"*, %"struct.std::__1::pair.96"*, %"struct.std::__1::pair.96"*, %"class.std::__1::__compressed_pair.588" }
%"class.std::__1::__compressed_pair.588" = type { %"struct.std::__1::__compressed_pair_elem.105", %"struct.std::__1::__compressed_pair_elem.589" }
%"struct.std::__1::__compressed_pair_elem.589" = type { %"class.std::__1::allocator.107"* }
%"class.std::__1::allocator.107" = type { i8 }
%"struct.std::__1::__temp_value.595" = type { %"struct.std::__1::aligned_storage<80, 8>::type", %"class.std::__1::allocator.117"* }
%"struct.std::__1::aligned_storage<80, 8>::type" = type { [80 x i8] }
%"class.std::__1::allocator.117" = type { i8 }
%"struct.std::__1::__split_buffer.596" = type { %"struct.std::__1::pair.113"*, %"struct.std::__1::pair.113"*, %"struct.std::__1::pair.113"*, %"class.std::__1::__compressed_pair.597" }
%"class.std::__1::__compressed_pair.597" = type { %"struct.std::__1::__compressed_pair_elem.115", %"struct.std::__1::__compressed_pair_elem.598" }
%"struct.std::__1::__compressed_pair_elem.598" = type { %"class.std::__1::allocator.117"* }

$_ZN4mojo8internal23ContainerValidateParamsD2Ev = comdat any

$_ZN5blink5mojom53WebBluetoothService_GetDevices_ResponseParamsDataView11ReadDevicesINSt3__16vectorIN4mojo9StructPtrINS0_18WebBluetoothDeviceEEENS3_9allocatorIS8_EEEEEEbPT_ = comdat any

$_ZN5blink5mojom53WebBluetoothService_GetAvailability_ForwardToCallbackD2Ev = comdat any

$_ZN5blink5mojom53WebBluetoothService_GetAvailability_ForwardToCallbackD0Ev = comdat any

$_ZN5blink5mojom51WebBluetoothService_RequestDevice_ForwardToCallbackD2Ev = comdat any

$_ZN5blink5mojom51WebBluetoothService_RequestDevice_ForwardToCallbackD0Ev = comdat any

$_ZN5blink5mojom48WebBluetoothService_GetDevices_ForwardToCallbackD2Ev = comdat any

$_ZN5blink5mojom48WebBluetoothService_GetDevices_ForwardToCallbackD0Ev = comdat any

$_ZN5blink5mojom57WebBluetoothService_RemoteServerConnect_ForwardToCallbackD2Ev = comdat any

$_ZN5blink5mojom57WebBluetoothService_RemoteServerConnect_ForwardToCallbackD0Ev = comdat any

$_ZN5blink5mojom68WebBluetoothService_RemoteServerGetPrimaryServices_ForwardToCallbackD2Ev = comdat any

$_ZN5blink5mojom68WebBluetoothService_RemoteServerGetPrimaryServices_ForwardToCallbackD0Ev = comdat any

$_ZN5blink5mojom69WebBluetoothService_RemoteServiceGetCharacteristics_ForwardToCallbackD2Ev = comdat any

$_ZN5blink5mojom69WebBluetoothService_RemoteServiceGetCharacteristics_ForwardToCallbackD0Ev = comdat any

$_ZN5blink5mojom67WebBluetoothService_RemoteCharacteristicReadValue_ForwardToCallbackD2Ev = comdat any

$_ZN5blink5mojom67WebBluetoothService_RemoteCharacteristicReadValue_ForwardToCallbackD0Ev = comdat any

$_ZN5blink5mojom68WebBluetoothService_RemoteCharacteristicWriteValue_ForwardToCallbackD2Ev = comdat any

$_ZN5blink5mojom68WebBluetoothService_RemoteCharacteristicWriteValue_ForwardToCallbackD0Ev = comdat any

$_ZN5blink5mojom76WebBluetoothService_RemoteCharacteristicStartNotifications_ForwardToCallbackD2Ev = comdat any

$_ZN5blink5mojom76WebBluetoothService_RemoteCharacteristicStartNotifications_ForwardToCallbackD0Ev = comdat any

$_ZN5blink5mojom75WebBluetoothService_RemoteCharacteristicStopNotifications_ForwardToCallbackD2Ev = comdat any

$_ZN5blink5mojom75WebBluetoothService_RemoteCharacteristicStopNotifications_ForwardToCallbackD0Ev = comdat any

$_ZN5blink5mojom72WebBluetoothService_RemoteCharacteristicGetDescriptors_ForwardToCallbackD2Ev = comdat any

$_ZN5blink5mojom72WebBluetoothService_RemoteCharacteristicGetDescriptors_ForwardToCallbackD0Ev = comdat any

$_ZN5blink5mojom63WebBluetoothService_RemoteDescriptorReadValue_ForwardToCallbackD2Ev = comdat any

$_ZN5blink5mojom63WebBluetoothService_RemoteDescriptorReadValue_ForwardToCallbackD0Ev = comdat any

$_ZN5blink5mojom64WebBluetoothService_RemoteDescriptorWriteValue_ForwardToCallbackD2Ev = comdat any

$_ZN5blink5mojom64WebBluetoothService_RemoteDescriptorWriteValue_ForwardToCallbackD0Ev = comdat any

$_ZN5blink5mojom58WebBluetoothService_RequestScanningStart_ForwardToCallbackD2Ev = comdat any

$_ZN5blink5mojom58WebBluetoothService_RequestScanningStart_ForwardToCallbackD0Ev = comdat any

$_ZN5blink5mojom66WebBluetoothService_WatchAdvertisementsForDevice_ForwardToCallbackD2Ev = comdat any

$_ZN5blink5mojom66WebBluetoothService_WatchAdvertisementsForDevice_ForwardToCallbackD0Ev = comdat any

$_ZN5blink5mojom19WebBluetoothServiceD2Ev = comdat any

$_ZN5blink5mojom24WebBluetoothServiceProxyD0Ev = comdat any

$_ZN4mojo15MessageReceiverD2Ev = comdat any

$_ZN5blink5mojom35WebBluetoothServiceRequestValidatorD0Ev = comdat any

$_ZN5blink5mojom36WebBluetoothServiceResponseValidatorD0Ev = comdat any

$_ZN5blink5mojom24WebBluetoothServerClientD2Ev = comdat any

$_ZN5blink5mojom29WebBluetoothServerClientProxyD0Ev = comdat any

$_ZN5blink5mojom40WebBluetoothServerClientRequestValidatorD0Ev = comdat any

$_ZN5blink5mojom32WebBluetoothCharacteristicClientD2Ev = comdat any

$_ZN5blink5mojom37WebBluetoothCharacteristicClientProxyD0Ev = comdat any

$_ZN5blink5mojom48WebBluetoothCharacteristicClientRequestValidatorD0Ev = comdat any

$_ZN5blink5mojom31WebBluetoothAdvertisementClientD2Ev = comdat any

$_ZN5blink5mojom36WebBluetoothAdvertisementClientProxyD0Ev = comdat any

$_ZN5blink5mojom47WebBluetoothAdvertisementClientRequestValidatorD0Ev = comdat any

$_ZNSt3__16vectorINS_4pairItNS0_IhNS_9allocatorIhEEEEEENS2_IS5_EEEC2ERKS7_ = comdat any

$_ZNSt3__14pairIN6device13BluetoothUUIDENS_6vectorIhNS_9allocatorIhEEEEEC2ERKS7_ = comdat any

$_ZN4base8internal7InvokerINS0_9BindStateIMN5blink5mojom52WebBluetoothService_GetAvailability_ProxyToResponderEFvbEJNSt3__110unique_ptrIS5_NS8_14default_deleteIS5_EEEEEEEFvbEE7RunOnceEPNS0_13BindStateBaseEb = comdat any

$_ZN4base8internal9BindStateIMN5blink5mojom52WebBluetoothService_GetAvailability_ProxyToResponderEFvbEJNSt3__110unique_ptrIS4_NS7_14default_deleteIS4_EEEEEE7DestroyEPKNS0_13BindStateBaseE = comdat any

$_ZN4base8internal7InvokerINS0_9BindStateIMN5blink5mojom50WebBluetoothService_RequestDevice_ProxyToResponderEFvNS4_18WebBluetoothResultEN4mojo9StructPtrINS4_18WebBluetoothDeviceEEEEJNSt3__110unique_ptrIS5_NSD_14default_deleteIS5_EEEEEEEFvS6_SA_EE7RunOnceEPNS0_13BindStateBaseES6_OSA_ = comdat any

$_ZN4base8internal9BindStateIMN5blink5mojom50WebBluetoothService_RequestDevice_ProxyToResponderEFvNS3_18WebBluetoothResultEN4mojo9StructPtrINS3_18WebBluetoothDeviceEEEEJNSt3__110unique_ptrIS4_NSC_14default_deleteIS4_EEEEEE7DestroyEPKNS0_13BindStateBaseE = comdat any

$_ZN4base8internal7InvokerINS0_9BindStateIMN5blink5mojom47WebBluetoothService_GetDevices_ProxyToResponderEFvNSt3__16vectorIN4mojo9StructPtrINS4_18WebBluetoothDeviceEEENS6_9allocatorISB_EEEEEJNS6_10unique_ptrIS5_NS6_14default_deleteIS5_EEEEEEEFvSE_EE7RunOnceEPNS0_13BindStateBaseEOSE_ = comdat any

$_ZN4base8internal9BindStateIMN5blink5mojom47WebBluetoothService_GetDevices_ProxyToResponderEFvNSt3__16vectorIN4mojo9StructPtrINS3_18WebBluetoothDeviceEEENS5_9allocatorISA_EEEEEJNS5_10unique_ptrIS4_NS5_14default_deleteIS4_EEEEEE7DestroyEPKNS0_13BindStateBaseE = comdat any

$_ZN4base8internal7InvokerINS0_9BindStateIMN5blink5mojom56WebBluetoothService_RemoteServerConnect_ProxyToResponderEFvNS4_18WebBluetoothResultEEJNSt3__110unique_ptrIS5_NS9_14default_deleteIS5_EEEEEEEFvS6_EE7RunOnceEPNS0_13BindStateBaseES6_ = comdat any

$_ZN4base8internal9BindStateIMN5blink5mojom56WebBluetoothService_RemoteServerConnect_ProxyToResponderEFvNS3_18WebBluetoothResultEEJNSt3__110unique_ptrIS4_NS8_14default_deleteIS4_EEEEEE7DestroyEPKNS0_13BindStateBaseE = comdat any

$_ZN4base8internal7InvokerINS0_9BindStateIMN5blink5mojom67WebBluetoothService_RemoteServerGetPrimaryServices_ProxyToResponderEFvNS4_18WebBluetoothResultEN4absl8optionalINSt3__16vectorIN4mojo9StructPtrINS4_29WebBluetoothRemoteGATTServiceEEENS9_9allocatorISE_EEEEEEEJNS9_10unique_ptrIS5_NS9_14default_deleteIS5_EEEEEEEFvS6_SI_EE7RunOnceEPNS0_13BindStateBaseES6_OSI_ = comdat any

$_ZN4base8internal12InvokeHelperILb0EvE8MakeItSoIMN5blink5mojom67WebBluetoothService_RemoteServerGetPrimaryServices_ProxyToResponderEFvNS5_18WebBluetoothResultEN4absl8optionalINSt3__16vectorIN4mojo9StructPtrINS5_29WebBluetoothRemoteGATTServiceEEENSA_9allocatorISF_EEEEEEEJNSA_10unique_ptrIS6_NSA_14default_deleteIS6_EEEES7_SJ_EEEvOT_DpOT0_ = comdat any

$_ZN4base8internal9BindStateIMN5blink5mojom67WebBluetoothService_RemoteServerGetPrimaryServices_ProxyToResponderEFvNS3_18WebBluetoothResultEN4absl8optionalINSt3__16vectorIN4mojo9StructPtrINS3_29WebBluetoothRemoteGATTServiceEEENS8_9allocatorISD_EEEEEEEJNS8_10unique_ptrIS4_NS8_14default_deleteIS4_EEEEEE7DestroyEPKNS0_13BindStateBaseE = comdat any

$_ZN4base8internal7InvokerINS0_9BindStateIMN5blink5mojom68WebBluetoothService_RemoteServiceGetCharacteristics_ProxyToResponderEFvNS4_18WebBluetoothResultEN4absl8optionalINSt3__16vectorIN4mojo9StructPtrINS4_36WebBluetoothRemoteGATTCharacteristicEEENS9_9allocatorISE_EEEEEEEJNS9_10unique_ptrIS5_NS9_14default_deleteIS5_EEEEEEEFvS6_SI_EE7RunOnceEPNS0_13BindStateBaseES6_OSI_ = comdat any

$_ZN4base8internal12InvokeHelperILb0EvE8MakeItSoIMN5blink5mojom68WebBluetoothService_RemoteServiceGetCharacteristics_ProxyToResponderEFvNS5_18WebBluetoothResultEN4absl8optionalINSt3__16vectorIN4mojo9StructPtrINS5_36WebBluetoothRemoteGATTCharacteristicEEENSA_9allocatorISF_EEEEEEEJNSA_10unique_ptrIS6_NSA_14default_deleteIS6_EEEES7_SJ_EEEvOT_DpOT0_ = comdat any

$_ZN4base8internal9BindStateIMN5blink5mojom68WebBluetoothService_RemoteServiceGetCharacteristics_ProxyToResponderEFvNS3_18WebBluetoothResultEN4absl8optionalINSt3__16vectorIN4mojo9StructPtrINS3_36WebBluetoothRemoteGATTCharacteristicEEENS8_9allocatorISD_EEEEEEEJNS8_10unique_ptrIS4_NS8_14default_deleteIS4_EEEEEE7DestroyEPKNS0_13BindStateBaseE = comdat any

$_ZN4base8internal7InvokerINS0_9BindStateIMN5blink5mojom66WebBluetoothService_RemoteCharacteristicReadValue_ProxyToResponderEFvNS4_18WebBluetoothResultERKN4absl8optionalINSt3__16vectorIhNS9_9allocatorIhEEEEEEEJNS9_10unique_ptrIS5_NS9_14default_deleteIS5_EEEEEEEFvS6_SG_EE7RunOnceEPNS0_13BindStateBaseES6_SG_ = comdat any

$_ZN4base8internal9BindStateIMN5blink5mojom66WebBluetoothService_RemoteCharacteristicReadValue_ProxyToResponderEFvNS3_18WebBluetoothResultERKN4absl8optionalINSt3__16vectorIhNS8_9allocatorIhEEEEEEEJNS8_10unique_ptrIS4_NS8_14default_deleteIS4_EEEEEE7DestroyEPKNS0_13BindStateBaseE = comdat any

$_ZN4base8internal7InvokerINS0_9BindStateIMN5blink5mojom67WebBluetoothService_RemoteCharacteristicWriteValue_ProxyToResponderEFvNS4_18WebBluetoothResultEEJNSt3__110unique_ptrIS5_NS9_14default_deleteIS5_EEEEEEEFvS6_EE7RunOnceEPNS0_13BindStateBaseES6_ = comdat any

$_ZN4base8internal9BindStateIMN5blink5mojom67WebBluetoothService_RemoteCharacteristicWriteValue_ProxyToResponderEFvNS3_18WebBluetoothResultEEJNSt3__110unique_ptrIS4_NS8_14default_deleteIS4_EEEEEE7DestroyEPKNS0_13BindStateBaseE = comdat any

$_ZN4base8internal7InvokerINS0_9BindStateIMN5blink5mojom75WebBluetoothService_RemoteCharacteristicStartNotifications_ProxyToResponderEFvNS4_18WebBluetoothResultEEJNSt3__110unique_ptrIS5_NS9_14default_deleteIS5_EEEEEEEFvS6_EE7RunOnceEPNS0_13BindStateBaseES6_ = comdat any

$_ZN4base8internal9BindStateIMN5blink5mojom75WebBluetoothService_RemoteCharacteristicStartNotifications_ProxyToResponderEFvNS3_18WebBluetoothResultEEJNSt3__110unique_ptrIS4_NS8_14default_deleteIS4_EEEEEE7DestroyEPKNS0_13BindStateBaseE = comdat any

$_ZN4base8internal7InvokerINS0_9BindStateIMN5blink5mojom74WebBluetoothService_RemoteCharacteristicStopNotifications_ProxyToResponderEFvvEJNSt3__110unique_ptrIS5_NS8_14default_deleteIS5_EEEEEEEFvvEE7RunOnceEPNS0_13BindStateBaseE = comdat any

$_ZN4base8internal9BindStateIMN5blink5mojom74WebBluetoothService_RemoteCharacteristicStopNotifications_ProxyToResponderEFvvEJNSt3__110unique_ptrIS4_NS7_14default_deleteIS4_EEEEEE7DestroyEPKNS0_13BindStateBaseE = comdat any

$_ZN4base8internal7InvokerINS0_9BindStateIMN5blink5mojom71WebBluetoothService_RemoteCharacteristicGetDescriptors_ProxyToResponderEFvNS4_18WebBluetoothResultEN4absl8optionalINSt3__16vectorIN4mojo9StructPtrINS4_32WebBluetoothRemoteGATTDescriptorEEENS9_9allocatorISE_EEEEEEEJNS9_10unique_ptrIS5_NS9_14default_deleteIS5_EEEEEEEFvS6_SI_EE7RunOnceEPNS0_13BindStateBaseES6_OSI_ = comdat any

$_ZN4base8internal12InvokeHelperILb0EvE8MakeItSoIMN5blink5mojom71WebBluetoothService_RemoteCharacteristicGetDescriptors_ProxyToResponderEFvNS5_18WebBluetoothResultEN4absl8optionalINSt3__16vectorIN4mojo9StructPtrINS5_32WebBluetoothRemoteGATTDescriptorEEENSA_9allocatorISF_EEEEEEEJNSA_10unique_ptrIS6_NSA_14default_deleteIS6_EEEES7_SJ_EEEvOT_DpOT0_ = comdat any

$_ZN4base8internal9BindStateIMN5blink5mojom71WebBluetoothService_RemoteCharacteristicGetDescriptors_ProxyToResponderEFvNS3_18WebBluetoothResultEN4absl8optionalINSt3__16vectorIN4mojo9StructPtrINS3_32WebBluetoothRemoteGATTDescriptorEEENS8_9allocatorISD_EEEEEEEJNS8_10unique_ptrIS4_NS8_14default_deleteIS4_EEEEEE7DestroyEPKNS0_13BindStateBaseE = comdat any

$_ZN4base8internal7InvokerINS0_9BindStateIMN5blink5mojom62WebBluetoothService_RemoteDescriptorReadValue_ProxyToResponderEFvNS4_18WebBluetoothResultERKN4absl8optionalINSt3__16vectorIhNS9_9allocatorIhEEEEEEEJNS9_10unique_ptrIS5_NS9_14default_deleteIS5_EEEEEEEFvS6_SG_EE7RunOnceEPNS0_13BindStateBaseES6_SG_ = comdat any

$_ZN4base8internal9BindStateIMN5blink5mojom62WebBluetoothService_RemoteDescriptorReadValue_ProxyToResponderEFvNS3_18WebBluetoothResultERKN4absl8optionalINSt3__16vectorIhNS8_9allocatorIhEEEEEEEJNS8_10unique_ptrIS4_NS8_14default_deleteIS4_EEEEEE7DestroyEPKNS0_13BindStateBaseE = comdat any

$_ZN4base8internal7InvokerINS0_9BindStateIMN5blink5mojom63WebBluetoothService_RemoteDescriptorWriteValue_ProxyToResponderEFvNS4_18WebBluetoothResultEEJNSt3__110unique_ptrIS5_NS9_14default_deleteIS5_EEEEEEEFvS6_EE7RunOnceEPNS0_13BindStateBaseES6_ = comdat any

$_ZN4base8internal9BindStateIMN5blink5mojom63WebBluetoothService_RemoteDescriptorWriteValue_ProxyToResponderEFvNS3_18WebBluetoothResultEEJNSt3__110unique_ptrIS4_NS8_14default_deleteIS4_EEEEEE7DestroyEPKNS0_13BindStateBaseE = comdat any

$_ZN4base8internal7InvokerINS0_9BindStateIMN5blink5mojom57WebBluetoothService_RequestScanningStart_ProxyToResponderEFvNS4_18WebBluetoothResultEEJNSt3__110unique_ptrIS5_NS9_14default_deleteIS5_EEEEEEEFvS6_EE7RunOnceEPNS0_13BindStateBaseES6_ = comdat any

$_ZN4base8internal9BindStateIMN5blink5mojom57WebBluetoothService_RequestScanningStart_ProxyToResponderEFvNS3_18WebBluetoothResultEEJNSt3__110unique_ptrIS4_NS8_14default_deleteIS4_EEEEEE7DestroyEPKNS0_13BindStateBaseE = comdat any

$_ZN4base8internal7InvokerINS0_9BindStateIMN5blink5mojom65WebBluetoothService_WatchAdvertisementsForDevice_ProxyToResponderEFvNS4_18WebBluetoothResultEEJNSt3__110unique_ptrIS5_NS9_14default_deleteIS5_EEEEEEEFvS6_EE7RunOnceEPNS0_13BindStateBaseES6_ = comdat any

$_ZN4base8internal9BindStateIMN5blink5mojom65WebBluetoothService_WatchAdvertisementsForDevice_ProxyToResponderEFvNS3_18WebBluetoothResultEEJNSt3__110unique_ptrIS4_NS8_14default_deleteIS4_EEEEEE7DestroyEPKNS0_13BindStateBaseE = comdat any

$_ZN4mojo8internal10SerializerIN5blink5mojom40WebBluetoothRequestDeviceOptionsDataViewENS_9StructPtrINS3_32WebBluetoothRequestDeviceOptionsEEEE9SerializeERS7_RNS0_15MessageFragmentINS3_8internal37WebBluetoothRequestDeviceOptions_DataEEE = comdat any

$_ZN4mojo8internal10SerializerIN5blink5mojom32WebBluetoothLeScanFilterDataViewEKNS_9StructPtrINS3_24WebBluetoothLeScanFilterEEEE9SerializeERS8_RNS0_15MessageFragmentINS3_8internal29WebBluetoothLeScanFilter_DataEEE = comdat any

$_ZN4mojo8internal10SerializerINS_11MapDataViewIN5blink5mojom27WebBluetoothCompanyDataViewENS_13ArrayDataViewINS4_30WebBluetoothDataFilterDataViewEEEEEKN4base8flat_mapINS_16InlinedStructPtrINS4_19WebBluetoothCompanyEEENSt3__16vectorINSC_INS4_22WebBluetoothDataFilterEEENSF_9allocatorISI_EEEENSF_4lessIvEENSG_INSF_4pairISE_SL_EENSJ_ISP_EEEEEEE9SerializeERST_RNS0_15MessageFragmentINS0_8Map_DataINS0_7PointerINS4_8internal24WebBluetoothCompany_DataEEENSY_INS0_10Array_DataINSY_INSZ_27WebBluetoothDataFilter_DataEEEEEEEEEEEPKNS0_23ContainerValidateParamsE = comdat any

$_ZN4mojo8internal15ArraySerializerINS_13ArrayDataViewINS2_IN5blink5mojom30WebBluetoothDataFilterDataViewEEEEENSt3__16vectorINS9_INS_16InlinedStructPtrINS4_22WebBluetoothDataFilterEEENS8_9allocatorISC_EEEENSD_ISF_EEEENS0_14MapValueReaderIKN4base8flat_mapINSA_INS4_19WebBluetoothCompanyEEESF_NS8_4lessIvEENS9_INS8_4pairISM_SF_EENSD_ISQ_EEEEEEEEvE17SerializeElementsEPSV_RNS0_15MessageFragmentINS0_10Array_DataINS0_7PointerINSZ_INS10_INS4_8internal27WebBluetoothDataFilter_DataEEEEEEEEEEEPKNS0_23ContainerValidateParamsE = comdat any

$_ZN4mojo8internal15ArraySerializerINS_13ArrayDataViewIN9bluetooth5mojom12UUIDDataViewEEEKNSt3__16vectorIN6device13BluetoothUUIDENS7_9allocatorISA_EEEENS0_13ArrayIteratorINS_11ArrayTraitsISD_EESE_Lb0EEEvE17SerializeElementsEPSI_RNS0_15MessageFragmentINS0_10Array_DataINS0_7PointerINS4_8internal9UUID_DataEEEEEEEPKNS0_23ContainerValidateParamsE = comdat any

$_ZN4mojo8internal10SerializerINS_14StringDataViewEKNSt3__112basic_stringIcNS3_11char_traitsIcEENS3_9allocatorIcEEEEE9SerializeERSA_RNS0_15MessageFragmentINS0_10Array_DataIcEEEE = comdat any

$_ZN4mojo8internal10SerializerIN5blink5mojom40WebBluetoothRequestLEScanOptionsDataViewENS_9StructPtrINS3_32WebBluetoothRequestLEScanOptionsEEEE9SerializeERS7_RNS0_15MessageFragmentINS3_8internal37WebBluetoothRequestLEScanOptions_DataEEE = comdat any

$_ZN4mojo8internal10SerializerIN5blink5mojom26WebBluetoothDeviceDataViewENS_9StructPtrINS3_18WebBluetoothDeviceEEEE9SerializeERS7_RNS0_15MessageFragmentINS3_8internal23WebBluetoothDevice_DataEEE = comdat any

$_ZN4mojo8internal15ArraySerializerINS_13ArrayDataViewIN5blink5mojom26WebBluetoothDeviceDataViewEEENSt3__16vectorINS_9StructPtrINS4_18WebBluetoothDeviceEEENS7_9allocatorISB_EEEENS0_13ArrayIteratorINS_11ArrayTraitsISE_EESE_Lb0EEEvE19DeserializeElementsEPNS0_10Array_DataINS0_7PointerINS4_8internal23WebBluetoothDevice_DataEEEEEPSE_PNS_7MessageE = comdat any

$_ZN4mojo11ArrayTraitsINSt3__16vectorINS_9StructPtrIN5blink5mojom18WebBluetoothDeviceEEENS1_9allocatorIS7_EEEEE6ResizeERSA_m = comdat any

$_ZN4mojo8internal11DeserializeINS_13ArrayDataViewIN5blink5mojom37WebBluetoothRemoteGATTServiceDataViewEEERPNS0_10Array_DataINS0_7PointerINS4_8internal34WebBluetoothRemoteGATTService_DataEEEEEN4absl8optionalINSt3__16vectorINS_9StructPtrINS4_29WebBluetoothRemoteGATTServiceEEENSH_9allocatorISL_EEEEEEJRPNS_7MessageEELPv0EEEbOT0_PT1_DpOT2_ = comdat any

$_ZN4absl8optionalINSt3__16vectorIN4mojo9StructPtrIN5blink5mojom29WebBluetoothRemoteGATTServiceEEENS1_9allocatorIS8_EEEEE7emplaceIJEvEERSB_DpOT_ = comdat any

$_ZN4mojo8internal15ArraySerializerINS_13ArrayDataViewIN5blink5mojom37WebBluetoothRemoteGATTServiceDataViewEEENSt3__16vectorINS_9StructPtrINS4_29WebBluetoothRemoteGATTServiceEEENS7_9allocatorISB_EEEENS0_13ArrayIteratorINS_11ArrayTraitsISE_EESE_Lb0EEEvE19DeserializeElementsEPNS0_10Array_DataINS0_7PointerINS4_8internal34WebBluetoothRemoteGATTService_DataEEEEEPSE_PNS_7MessageE = comdat any

$_ZN4mojo11ArrayTraitsINSt3__16vectorINS_9StructPtrIN5blink5mojom29WebBluetoothRemoteGATTServiceEEENS1_9allocatorIS7_EEEEE6ResizeERSA_m = comdat any

$_ZN4mojo8internal10SerializerIN5blink5mojom37WebBluetoothRemoteGATTServiceDataViewENS_9StructPtrINS3_29WebBluetoothRemoteGATTServiceEEEE9SerializeERS7_RNS0_15MessageFragmentINS3_8internal34WebBluetoothRemoteGATTService_DataEEE = comdat any

$_ZN4mojo8internal11DeserializeINS_13ArrayDataViewIN5blink5mojom44WebBluetoothRemoteGATTCharacteristicDataViewEEERPNS0_10Array_DataINS0_7PointerINS4_8internal41WebBluetoothRemoteGATTCharacteristic_DataEEEEEN4absl8optionalINSt3__16vectorINS_9StructPtrINS4_36WebBluetoothRemoteGATTCharacteristicEEENSH_9allocatorISL_EEEEEEJRPNS_7MessageEELPv0EEEbOT0_PT1_DpOT2_ = comdat any

$_ZN4absl8optionalINSt3__16vectorIN4mojo9StructPtrIN5blink5mojom36WebBluetoothRemoteGATTCharacteristicEEENS1_9allocatorIS8_EEEEE7emplaceIJEvEERSB_DpOT_ = comdat any

$_ZN4mojo8internal15ArraySerializerINS_13ArrayDataViewIN5blink5mojom44WebBluetoothRemoteGATTCharacteristicDataViewEEENSt3__16vectorINS_9StructPtrINS4_36WebBluetoothRemoteGATTCharacteristicEEENS7_9allocatorISB_EEEENS0_13ArrayIteratorINS_11ArrayTraitsISE_EESE_Lb0EEEvE19DeserializeElementsEPNS0_10Array_DataINS0_7PointerINS4_8internal41WebBluetoothRemoteGATTCharacteristic_DataEEEEEPSE_PNS_7MessageE = comdat any

$_ZN4mojo11ArrayTraitsINSt3__16vectorINS_9StructPtrIN5blink5mojom36WebBluetoothRemoteGATTCharacteristicEEENS1_9allocatorIS7_EEEEE6ResizeERSA_m = comdat any

$_ZN4mojo8internal10SerializerIN5blink5mojom44WebBluetoothRemoteGATTCharacteristicDataViewENS_9StructPtrINS3_36WebBluetoothRemoteGATTCharacteristicEEEE9SerializeERS7_RNS0_15MessageFragmentINS3_8internal41WebBluetoothRemoteGATTCharacteristic_DataEEE = comdat any

$_ZN4mojo8internal11DeserializeINS_13ArrayDataViewIhEERPNS0_10Array_DataIhEEN4absl8optionalINSt3__16vectorIhNSA_9allocatorIhEEEEEEJRPNS_7MessageEELPv0EEEbOT0_PT1_DpOT2_ = comdat any

$_ZN4mojo8internal11DeserializeINS_13ArrayDataViewIN5blink5mojom40WebBluetoothRemoteGATTDescriptorDataViewEEERPNS0_10Array_DataINS0_7PointerINS4_8internal37WebBluetoothRemoteGATTDescriptor_DataEEEEEN4absl8optionalINSt3__16vectorINS_9StructPtrINS4_32WebBluetoothRemoteGATTDescriptorEEENSH_9allocatorISL_EEEEEEJRPNS_7MessageEELPv0EEEbOT0_PT1_DpOT2_ = comdat any

$_ZN4absl8optionalINSt3__16vectorIN4mojo9StructPtrIN5blink5mojom32WebBluetoothRemoteGATTDescriptorEEENS1_9allocatorIS8_EEEEE7emplaceIJEvEERSB_DpOT_ = comdat any

$_ZN4mojo8internal15ArraySerializerINS_13ArrayDataViewIN5blink5mojom40WebBluetoothRemoteGATTDescriptorDataViewEEENSt3__16vectorINS_9StructPtrINS4_32WebBluetoothRemoteGATTDescriptorEEENS7_9allocatorISB_EEEENS0_13ArrayIteratorINS_11ArrayTraitsISE_EESE_Lb0EEEvE19DeserializeElementsEPNS0_10Array_DataINS0_7PointerINS4_8internal37WebBluetoothRemoteGATTDescriptor_DataEEEEEPSE_PNS_7MessageE = comdat any

$_ZN4mojo11ArrayTraitsINSt3__16vectorINS_9StructPtrIN5blink5mojom32WebBluetoothRemoteGATTDescriptorEEENS1_9allocatorIS7_EEEEE6ResizeERSA_m = comdat any

$_ZN4mojo8internal10SerializerIN5blink5mojom40WebBluetoothRemoteGATTDescriptorDataViewENS_9StructPtrINS3_32WebBluetoothRemoteGATTDescriptorEEEE9SerializeERS7_RNS0_15MessageFragmentINS3_8internal37WebBluetoothRemoteGATTDescriptor_DataEEE = comdat any

$_ZN4mojo12StructTraitsIN5blink5mojom28WebBluetoothDeviceIdDataViewENS1_20WebBluetoothDeviceIdEE4ReadES3_PS4_ = comdat any

$_ZN4mojo8internal10SerializerINS_34AssociatedInterfacePtrInfoDataViewIN5blink5mojom37WebBluetoothServerClientInterfaceBaseEEENS_23PendingAssociatedRemoteINS4_24WebBluetoothServerClientEEEE11DeserializeEPNS0_24AssociatedInterface_DataEPS9_PNS_7MessageE = comdat any

$_ZN4mojo12StructTraitsIN9bluetooth5mojom12UUIDDataViewEN6device13BluetoothUUIDEE4ReadES3_PS5_ = comdat any

$_ZN4mojo8internal10SerializerINS_34AssociatedInterfacePtrInfoDataViewIN5blink5mojom45WebBluetoothCharacteristicClientInterfaceBaseEEENS_23PendingAssociatedRemoteINS4_32WebBluetoothCharacteristicClientEEEE11DeserializeEPNS0_24AssociatedInterface_DataEPS9_PNS_7MessageE = comdat any

$_ZN4mojo8internal10SerializerINS_34AssociatedInterfacePtrInfoDataViewIN5blink5mojom44WebBluetoothAdvertisementClientInterfaceBaseEEENS_23PendingAssociatedRemoteINS4_31WebBluetoothAdvertisementClientEEEE11DeserializeEPNS0_24AssociatedInterface_DataEPS9_PNS_7MessageE = comdat any

$_ZN4mojo8internal10SerializerIN5blink5mojom36WebBluetoothAdvertisingEventDataViewENS_9StructPtrINS3_28WebBluetoothAdvertisingEventEEEE9SerializeERS7_RNS0_15MessageFragmentINS3_8internal33WebBluetoothAdvertisingEvent_DataEEE = comdat any

$_ZN4mojo8internal10SerializerIN5blink5mojom26WebBluetoothDeviceDataViewEKNS_9StructPtrINS3_18WebBluetoothDeviceEEEE9SerializeERS8_RNS0_15MessageFragmentINS3_8internal23WebBluetoothDevice_DataEEE = comdat any

$_ZN4mojo8internal10SerializerINS_11MapDataViewItNS_13ArrayDataViewIhEEEEKN4base8flat_mapItNSt3__16vectorIhNS8_9allocatorIhEEEENS8_4lessIvEENS9_INS8_4pairItSC_EENSA_ISG_EEEEEEE9SerializeERSK_RNS0_15MessageFragmentINS0_8Map_DataItNS0_7PointerINS0_10Array_DataIhEEEEEEEEPKNS0_23ContainerValidateParamsE = comdat any

$_ZN4mojo8internal10SerializerINS_11MapDataViewIN9bluetooth5mojom12UUIDDataViewENS_13ArrayDataViewIhEEEEKN4base8flat_mapIN6device13BluetoothUUIDENSt3__16vectorIhNSD_9allocatorIhEEEENSD_4lessIvEENSE_INSD_4pairISC_SH_EENSF_ISL_EEEEEEE9SerializeERSP_RNS0_15MessageFragmentINS0_8Map_DataINS0_7PointerINS4_8internal9UUID_DataEEENSU_INS0_10Array_DataIhEEEEEEEEPKNS0_23ContainerValidateParamsE = comdat any

$_ZN4mojo8internal15ArraySerializerINS_13ArrayDataViewIN9bluetooth5mojom12UUIDDataViewEEENSt3__16vectorIN6device13BluetoothUUIDENS7_9allocatorISA_EEEENS0_12MapKeyReaderIKN4base8flat_mapISA_NS8_IhNSB_IhEEEENS7_4lessIvEENS8_INS7_4pairISA_SI_EENSB_ISM_EEEEEEEEvE17SerializeElementsEPSR_RNS0_15MessageFragmentINS0_10Array_DataINS0_7PointerINS4_8internal9UUID_DataEEEEEEEPKNS0_23ContainerValidateParamsE = comdat any

$_ZN4mojo8internal11DeserializeINS_13ArrayDataViewIN9bluetooth5mojom12UUIDDataViewEEERPNS0_10Array_DataINS0_7PointerINS4_8internal9UUID_DataEEEEEN4absl8optionalINSt3__16vectorIN6device13BluetoothUUIDENSH_9allocatorISK_EEEEEEJRPNS_7MessageEELPv0EEEbOT0_PT1_DpOT2_ = comdat any

$_ZN4mojo8internal15ArraySerializerINS_13ArrayDataViewIN9bluetooth5mojom12UUIDDataViewEEENSt3__16vectorIN6device13BluetoothUUIDENS7_9allocatorISA_EEEENS0_13ArrayIteratorINS_11ArrayTraitsISD_EESD_Lb0EEEvE19DeserializeElementsEPNS0_10Array_DataINS0_7PointerINS4_8internal9UUID_DataEEEEEPSD_PNS_7MessageE = comdat any

$_ZN4mojo8internal11DeserializeINS_14StringDataViewERPNS0_10Array_DataIcEEN4absl8optionalINSt3__112basic_stringIcNS9_11char_traitsIcEENS9_9allocatorIcEEEEEEJRPNS_7MessageEELPv0EEEbOT0_PT1_DpOT2_ = comdat any

$_ZN4mojo8internal10SerializerINS_11MapDataViewIN5blink5mojom27WebBluetoothCompanyDataViewENS_13ArrayDataViewINS4_30WebBluetoothDataFilterDataViewEEEEEN4base8flat_mapINS_16InlinedStructPtrINS4_19WebBluetoothCompanyEEENSt3__16vectorINSC_INS4_22WebBluetoothDataFilterEEENSF_9allocatorISI_EEEENSF_4lessIvEENSG_INSF_4pairISE_SL_EENSJ_ISP_EEEEEEE11DeserializeEPNS0_8Map_DataINS0_7PointerINS4_8internal24WebBluetoothCompany_DataEEENSV_INS0_10Array_DataINSV_INSW_27WebBluetoothDataFilter_DataEEEEEEEEEPSS_PNS_7MessageE = comdat any

$_ZN4mojo8internal15ArraySerializerINS_13ArrayDataViewINS2_IN5blink5mojom30WebBluetoothDataFilterDataViewEEEEENSt3__16vectorINS9_INS_16InlinedStructPtrINS4_22WebBluetoothDataFilterEEENS8_9allocatorISC_EEEENSD_ISF_EEEENS0_14MapValueReaderIN4base8flat_mapINSA_INS4_19WebBluetoothCompanyEEESF_NS8_4lessIvEENS9_INS8_4pairISM_SF_EENSD_ISQ_EEEEEEEEvE19DeserializeElementsEPNS0_10Array_DataINS0_7PointerINSW_INSX_INS4_8internal27WebBluetoothDataFilter_DataEEEEEEEEEPSH_PNS_7MessageE = comdat any

$_ZNSt3__16vectorINS_4pairIN4mojo16InlinedStructPtrIN5blink5mojom19WebBluetoothCompanyEEENS0_INS3_INS5_22WebBluetoothDataFilterEEENS_9allocatorIS9_EEEEEENSA_ISD_EEE7emplaceIJSD_EEENS_11__wrap_iterIPSD_EENSH_IPKSD_EEDpOT_ = comdat any

$_ZNSt3__16vectorINS_4pairIN4mojo16InlinedStructPtrIN5blink5mojom19WebBluetoothCompanyEEENS0_INS3_INS5_22WebBluetoothDataFilterEEENS_9allocatorIS9_EEEEEENSA_ISD_EEE12__move_rangeEPSD_SG_SG_ = comdat any

$_ZNSt3__114__split_bufferINS_4pairIN4mojo16InlinedStructPtrIN5blink5mojom19WebBluetoothCompanyEEENS_6vectorINS3_INS5_22WebBluetoothDataFilterEEENS_9allocatorISA_EEEEEERNSB_ISE_EEE12emplace_backIJSE_EEEvDpOT_ = comdat any

$_ZN4mojo8internal11DeserializeINS_13ArrayDataViewIN5blink5mojom32WebBluetoothLeScanFilterDataViewEEERPNS0_10Array_DataINS0_7PointerINS4_8internal29WebBluetoothLeScanFilter_DataEEEEEN4absl8optionalINSt3__16vectorINS_9StructPtrINS4_24WebBluetoothLeScanFilterEEENSH_9allocatorISL_EEEEEEJRPNS_7MessageEELPv0EEEbOT0_PT1_DpOT2_ = comdat any

$_ZN4mojo11ArrayTraitsINSt3__16vectorINS_9StructPtrIN5blink5mojom24WebBluetoothLeScanFilterEEENS1_9allocatorIS7_EEEEE6ResizeERSA_m = comdat any

$_ZNSt3__14swapIN5blink5mojom20WebBluetoothDeviceIdEEENS_9enable_ifIXaasr21is_move_constructibleIT_EE5valuesr18is_move_assignableIS5_EE5valueEvE4typeERS5_S8_ = comdat any

$_ZN4mojo8internal10SerializerINS_11MapDataViewItNS_13ArrayDataViewIhEEEEN4base8flat_mapItNSt3__16vectorIhNS8_9allocatorIhEEEENS8_4lessIvEENS9_INS8_4pairItSC_EENSA_ISG_EEEEEEE11DeserializeEPNS0_8Map_DataItNS0_7PointerINS0_10Array_DataIhEEEEEEPSJ_PNS_7MessageE = comdat any

$_ZN4mojo8internal15ArraySerializerINS_13ArrayDataViewINS2_IhEEEENSt3__16vectorINS6_IhNS5_9allocatorIhEEEENS7_IS9_EEEENS0_14MapValueReaderIN4base8flat_mapItS9_NS5_4lessIvEENS6_INS5_4pairItS9_EENS7_ISI_EEEEEEEEvE19DeserializeElementsEPNS0_10Array_DataINS0_7PointerINSO_IhEEEEEEPSB_PNS_7MessageE = comdat any

$_ZNSt3__16vectorINS_4pairItNS0_IhNS_9allocatorIhEEEEEENS2_IS5_EEE7emplaceIJS5_EEENS_11__wrap_iterIPS5_EENS9_IPKS5_EEDpOT_ = comdat any

$_ZNSt3__114__split_bufferINS_4pairItNS_6vectorIhNS_9allocatorIhEEEEEERNS3_IS6_EEE12emplace_backIJS6_EEEvDpOT_ = comdat any

$_ZN4mojo8internal10SerializerINS_11MapDataViewIN9bluetooth5mojom12UUIDDataViewENS_13ArrayDataViewIhEEEEN4base8flat_mapIN6device13BluetoothUUIDENSt3__16vectorIhNSD_9allocatorIhEEEENSD_4lessIvEENSE_INSD_4pairISC_SH_EENSF_ISL_EEEEEEE11DeserializeEPNS0_8Map_DataINS0_7PointerINS4_8internal9UUID_DataEEENSR_INS0_10Array_DataIhEEEEEEPSO_PNS_7MessageE = comdat any

$_ZN4mojo8internal15ArraySerializerINS_13ArrayDataViewIN9bluetooth5mojom12UUIDDataViewEEENSt3__16vectorIN6device13BluetoothUUIDENS7_9allocatorISA_EEEENS0_12MapKeyReaderIN4base8flat_mapISA_NS8_IhNSB_IhEEEENS7_4lessIvEENS8_INS7_4pairISA_SI_EENSB_ISM_EEEEEEEEvE19DeserializeElementsEPNS0_10Array_DataINS0_7PointerINS4_8internal9UUID_DataEEEEEPSD_PNS_7MessageE = comdat any

$_ZN4mojo8internal15ArraySerializerINS_13ArrayDataViewINS2_IhEEEENSt3__16vectorINS6_IhNS5_9allocatorIhEEEENS7_IS9_EEEENS0_14MapValueReaderIN4base8flat_mapIN6device13BluetoothUUIDES9_NS5_4lessIvEENS6_INS5_4pairISG_S9_EENS7_ISK_EEEEEEEEvE19DeserializeElementsEPNS0_10Array_DataINS0_7PointerINSQ_IhEEEEEEPSB_PNS_7MessageE = comdat any

$_ZNSt3__16vectorINS_4pairIN6device13BluetoothUUIDENS0_IhNS_9allocatorIhEEEEEENS4_IS7_EEE7emplaceIJS7_EEENS_11__wrap_iterIPS7_EENSB_IPKS7_EEDpOT_ = comdat any

$_ZNSt3__16vectorINS_4pairIN6device13BluetoothUUIDENS0_IhNS_9allocatorIhEEEEEENS4_IS7_EEE12__move_rangeEPS7_SA_SA_ = comdat any

$_ZNSt3__14pairIN6device13BluetoothUUIDENS_6vectorIhNS_9allocatorIhEEEEEaSEOS7_ = comdat any

$_ZNSt3__114__split_bufferINS_4pairIN6device13BluetoothUUIDENS_6vectorIhNS_9allocatorIhEEEEEERNS5_IS8_EEE12emplace_backIJS8_EEEvDpOT_ = comdat any

$_ZNSt3__16vectorINS_4pairIN6device13BluetoothUUIDENS0_IhNS_9allocatorIhEEEEEENS4_IS7_EEE26__swap_out_circular_bufferERNS_14__split_bufferIS7_RS8_EEPS7_ = comdat any

@.str = private unnamed_addr constant [9 x i8] c"services\00", align 1
@.str.1 = private unnamed_addr constant [8 x i8] c"<value>\00", align 1
@.str.2 = private unnamed_addr constant [5 x i8] c"name\00", align 1
@.str.3 = private unnamed_addr constant [12 x i8] c"name_prefix\00", align 1
@.str.4 = private unnamed_addr constant [18 x i8] c"manufacturer_data\00", align 1
@.str.5 = private unnamed_addr constant [3 x i8] c"id\00", align 1
@.str.6 = private unnamed_addr constant [5 x i8] c"data\00", align 1
@.str.7 = private unnamed_addr constant [5 x i8] c"mask\00", align 1
@.str.8 = private unnamed_addr constant [8 x i8] c"filters\00", align 1
@.str.9 = private unnamed_addr constant [18 x i8] c"optional_services\00", align 1
@.str.10 = private unnamed_addr constant [27 x i8] c"optional_manufacturer_data\00", align 1
@.str.11 = private unnamed_addr constant [19 x i8] c"accept_all_devices\00", align 1
@.str.12 = private unnamed_addr constant [22 x i8] c"keep_repeated_devices\00", align 1
@.str.13 = private unnamed_addr constant [26 x i8] c"accept_all_advertisements\00", align 1
@.str.14 = private unnamed_addr constant [10 x i8] c"device_id\00", align 1
@.str.15 = private unnamed_addr constant [12 x i8] c"instance_id\00", align 1
@.str.16 = private unnamed_addr constant [5 x i8] c"uuid\00", align 1
@.str.17 = private unnamed_addr constant [11 x i8] c"properties\00", align 1
@.str.18 = private unnamed_addr constant [7 x i8] c"device\00", align 1
@.str.19 = private unnamed_addr constant [6 x i8] c"uuids\00", align 1
@.str.20 = private unnamed_addr constant [18 x i8] c"appearance_is_set\00", align 1
@.str.21 = private unnamed_addr constant [11 x i8] c"appearance\00", align 1
@.str.22 = private unnamed_addr constant [16 x i8] c"tx_power_is_set\00", align 1
@.str.23 = private unnamed_addr constant [9 x i8] c"tx_power\00", align 1
@.str.24 = private unnamed_addr constant [12 x i8] c"rssi_is_set\00", align 1
@.str.25 = private unnamed_addr constant [5 x i8] c"rssi\00", align 1
@.str.26 = private unnamed_addr constant [13 x i8] c"service_data\00", align 1
@_ZN5blink5mojom19WebBluetoothService5Name_E = hidden constant [32 x i8] c"blink.mojom.WebBluetoothService\00", align 16
@_ZTVN5blink5mojom24WebBluetoothServiceProxyE = hidden unnamed_addr constant { [20 x i8*] } { [20 x i8*] [i8* null, i8* null, i8* bitcast (void (%"class.blink::mojom::WebBluetoothService"*)* @_ZN5blink5mojom19WebBluetoothServiceD2Ev to i8*), i8* bitcast (void (%"class.blink::mojom::WebBluetoothServiceProxy"*)* @_ZN5blink5mojom24WebBluetoothServiceProxyD0Ev to i8*), i8* bitcast (void (%"class.blink::mojom::WebBluetoothServiceProxy"*, %"class.base::OnceCallback"*)* @_ZN5blink5mojom24WebBluetoothServiceProxy15GetAvailabilityEN4base12OnceCallbackIFvbEEE to i8*), i8* bitcast (void (%"class.blink::mojom::WebBluetoothServiceProxy"*, %"class.mojo::StructPtr.125"*, %"class.base::OnceCallback.132"*)* @_ZN5blink5mojom24WebBluetoothServiceProxy13RequestDeviceEN4mojo9StructPtrINS0_32WebBluetoothRequestDeviceOptionsEEEN4base12OnceCallbackIFvNS0_18WebBluetoothResultENS3_INS0_18WebBluetoothDeviceEEEEEE to i8*), i8* bitcast (void (%"class.blink::mojom::WebBluetoothServiceProxy"*, %"class.base::OnceCallback.138"*)* @_ZN5blink5mojom24WebBluetoothServiceProxy10GetDevicesEN4base12OnceCallbackIFvNSt3__16vectorIN4mojo9StructPtrINS0_18WebBluetoothDeviceEEENS4_9allocatorIS9_EEEEEEE to i8*), i8* bitcast (void (%"class.blink::mojom::WebBluetoothServiceProxy"*, %"class.blink::WebBluetoothDeviceId"*, %"class.mojo::PendingAssociatedRemote"*, %"class.base::OnceCallback.140"*)* @_ZN5blink5mojom24WebBluetoothServiceProxy19RemoteServerConnectERKNS_20WebBluetoothDeviceIdEN4mojo23PendingAssociatedRemoteINS0_24WebBluetoothServerClientEEEN4base12OnceCallbackIFvNS0_18WebBluetoothResultEEEE to i8*), i8* bitcast (void (%"class.blink::mojom::WebBluetoothServiceProxy"*, %"class.blink::WebBluetoothDeviceId"*)* @_ZN5blink5mojom24WebBluetoothServiceProxy22RemoteServerDisconnectERKNS_20WebBluetoothDeviceIdE to i8*), i8* bitcast (void (%"class.blink::mojom::WebBluetoothServiceProxy"*, %"class.blink::WebBluetoothDeviceId"*, i32, %"class.absl::optional.146"*, %"class.base::OnceCallback.151"*)* @_ZN5blink5mojom24WebBluetoothServiceProxy30RemoteServerGetPrimaryServicesERKNS_20WebBluetoothDeviceIdENS0_29WebBluetoothGATTQueryQuantityERKN4absl8optionalIN6device13BluetoothUUIDEEEN4base12OnceCallbackIFvNS0_18WebBluetoothResultENS7_INSt3__16vectorIN4mojo9StructPtrINS0_29WebBluetoothRemoteGATTServiceEEENSG_9allocatorISL_EEEEEEEEE to i8*), i8* bitcast (void (%"class.blink::mojom::WebBluetoothServiceProxy"*, %"class.std::__1::basic_string"*, i32, %"class.absl::optional.146"*, %"class.base::OnceCallback.155"*)* @_ZN5blink5mojom24WebBluetoothServiceProxy31RemoteServiceGetCharacteristicsERKNSt3__112basic_stringIcNS2_11char_traitsIcEENS2_9allocatorIcEEEENS0_29WebBluetoothGATTQueryQuantityERKN4absl8optionalIN6device13BluetoothUUIDEEEN4base12OnceCallbackIFvNS0_18WebBluetoothResultENSD_INS2_6vectorIN4mojo9StructPtrINS0_36WebBluetoothRemoteGATTCharacteristicEEENS6_ISQ_EEEEEEEEE to i8*), i8* bitcast (void (%"class.blink::mojom::WebBluetoothServiceProxy"*, %"class.std::__1::basic_string"*, %"class.base::OnceCallback.158"*)* @_ZN5blink5mojom24WebBluetoothServiceProxy29RemoteCharacteristicReadValueERKNSt3__112basic_stringIcNS2_11char_traitsIcEENS2_9allocatorIcEEEEN4base12OnceCallbackIFvNS0_18WebBluetoothResultERKN4absl8optionalINS2_6vectorIhNS6_IhEEEEEEEEE to i8*), i8* bitcast (void (%"class.blink::mojom::WebBluetoothServiceProxy"*, %"class.std::__1::basic_string"*, %"class.std::__1::vector.97"*, i32, %"class.base::OnceCallback.140"*)* @_ZN5blink5mojom24WebBluetoothServiceProxy30RemoteCharacteristicWriteValueERKNSt3__112basic_stringIcNS2_11char_traitsIcEENS2_9allocatorIcEEEERKNS2_6vectorIhNS6_IhEEEENS0_21WebBluetoothWriteTypeEN4base12OnceCallbackIFvNS0_18WebBluetoothResultEEEE to i8*), i8* bitcast (void (%"class.blink::mojom::WebBluetoothServiceProxy"*, %"class.std::__1::basic_string"*, %"class.mojo::PendingAssociatedRemote.164"*, %"class.base::OnceCallback.140"*)* @_ZN5blink5mojom24WebBluetoothServiceProxy38RemoteCharacteristicStartNotificationsERKNSt3__112basic_stringIcNS2_11char_traitsIcEENS2_9allocatorIcEEEEN4mojo23PendingAssociatedRemoteINS0_32WebBluetoothCharacteristicClientEEEN4base12OnceCallbackIFvNS0_18WebBluetoothResultEEEE to i8*), i8* bitcast (void (%"class.blink::mojom::WebBluetoothServiceProxy"*, %"class.std::__1::basic_string"*, %"class.base::OnceCallback.167"*)* @_ZN5blink5mojom24WebBluetoothServiceProxy37RemoteCharacteristicStopNotificationsERKNSt3__112basic_stringIcNS2_11char_traitsIcEENS2_9allocatorIcEEEEN4base12OnceCallbackIFvvEEE to i8*), i8* bitcast (void (%"class.blink::mojom::WebBluetoothServiceProxy"*, %"class.std::__1::basic_string"*, i32, %"class.absl::optional.146"*, %"class.base::OnceCallback.169"*)* @_ZN5blink5mojom24WebBluetoothServiceProxy34RemoteCharacteristicGetDescriptorsERKNSt3__112basic_stringIcNS2_11char_traitsIcEENS2_9allocatorIcEEEENS0_29WebBluetoothGATTQueryQuantityERKN4absl8optionalIN6device13BluetoothUUIDEEEN4base12OnceCallbackIFvNS0_18WebBluetoothResultENSD_INS2_6vectorIN4mojo9StructPtrINS0_32WebBluetoothRemoteGATTDescriptorEEENS6_ISQ_EEEEEEEEE to i8*), i8* bitcast (void (%"class.blink::mojom::WebBluetoothServiceProxy"*, %"class.std::__1::basic_string"*, %"class.base::OnceCallback.158"*)* @_ZN5blink5mojom24WebBluetoothServiceProxy25RemoteDescriptorReadValueERKNSt3__112basic_stringIcNS2_11char_traitsIcEENS2_9allocatorIcEEEEN4base12OnceCallbackIFvNS0_18WebBluetoothResultERKN4absl8optionalINS2_6vectorIhNS6_IhEEEEEEEEE to i8*), i8* bitcast (void (%"class.blink::mojom::WebBluetoothServiceProxy"*, %"class.std::__1::basic_string"*, %"class.std::__1::vector.97"*, %"class.base::OnceCallback.140"*)* @_ZN5blink5mojom24WebBluetoothServiceProxy26RemoteDescriptorWriteValueERKNSt3__112basic_stringIcNS2_11char_traitsIcEENS2_9allocatorIcEEEERKNS2_6vectorIhNS6_IhEEEEN4base12OnceCallbackIFvNS0_18WebBluetoothResultEEEE to i8*), i8* bitcast (void (%"class.blink::mojom::WebBluetoothServiceProxy"*, %"class.mojo::PendingAssociatedRemote.173"*, %"class.mojo::StructPtr.175"*, %"class.base::OnceCallback.140"*)* @_ZN5blink5mojom24WebBluetoothServiceProxy20RequestScanningStartEN4mojo23PendingAssociatedRemoteINS0_31WebBluetoothAdvertisementClientEEENS2_9StructPtrINS0_32WebBluetoothRequestLEScanOptionsEEEN4base12OnceCallbackIFvNS0_18WebBluetoothResultEEEE to i8*), i8* bitcast (void (%"class.blink::mojom::WebBluetoothServiceProxy"*, %"class.blink::WebBluetoothDeviceId"*, %"class.mojo::PendingAssociatedRemote.173"*, %"class.base::OnceCallback.140"*)* @_ZN5blink5mojom24WebBluetoothServiceProxy28WatchAdvertisementsForDeviceERKNS_20WebBluetoothDeviceIdEN4mojo23PendingAssociatedRemoteINS0_31WebBluetoothAdvertisementClientEEEN4base12OnceCallbackIFvNS0_18WebBluetoothResultEEEE to i8*)] }, align 8
@_ZN5blink5mojomL34kWebBluetoothServiceValidationInfoE = internal constant [16 x %"struct.std::__1::pair.290"] [%"struct.std::__1::pair.290" { i32 1172563722, %"struct.mojo::internal::GenericValidationInfo" { i1 (i8*, %"class.mojo::internal::ValidationContext"*)* @_ZN5blink5mojom8internal47WebBluetoothService_GetAvailability_Params_Data8ValidateEPKvPN4mojo8internal17ValidationContextE, i1 (i8*, %"class.mojo::internal::ValidationContext"*)* @_ZN5blink5mojom8internal55WebBluetoothService_GetAvailability_ResponseParams_Data8ValidateEPKvPN4mojo8internal17ValidationContextE } }, %"struct.std::__1::pair.290" { i32 953739893, %"struct.mojo::internal::GenericValidationInfo" { i1 (i8*, %"class.mojo::internal::ValidationContext"*)* @_ZN5blink5mojom8internal45WebBluetoothService_RequestDevice_Params_Data8ValidateEPKvPN4mojo8internal17ValidationContextE, i1 (i8*, %"class.mojo::internal::ValidationContext"*)* @_ZN5blink5mojom8internal53WebBluetoothService_RequestDevice_ResponseParams_Data8ValidateEPKvPN4mojo8internal17ValidationContextE } }, %"struct.std::__1::pair.290" { i32 97698673, %"struct.mojo::internal::GenericValidationInfo" { i1 (i8*, %"class.mojo::internal::ValidationContext"*)* @_ZN5blink5mojom8internal42WebBluetoothService_GetDevices_Params_Data8ValidateEPKvPN4mojo8internal17ValidationContextE, i1 (i8*, %"class.mojo::internal::ValidationContext"*)* @_ZN5blink5mojom8internal50WebBluetoothService_GetDevices_ResponseParams_Data8ValidateEPKvPN4mojo8internal17ValidationContextE } }, %"struct.std::__1::pair.290" { i32 447768052, %"struct.mojo::internal::GenericValidationInfo" { i1 (i8*, %"class.mojo::internal::ValidationContext"*)* @_ZN5blink5mojom8internal51WebBluetoothService_RemoteServerConnect_Params_Data8ValidateEPKvPN4mojo8internal17ValidationContextE, i1 (i8*, %"class.mojo::internal::ValidationContext"*)* @_ZN5blink5mojom8internal59WebBluetoothService_RemoteServerConnect_ResponseParams_Data8ValidateEPKvPN4mojo8internal17ValidationContextE } }, %"struct.std::__1::pair.290" { i32 391156665, %"struct.mojo::internal::GenericValidationInfo" { i1 (i8*, %"class.mojo::internal::ValidationContext"*)* @_ZN5blink5mojom8internal54WebBluetoothService_RemoteServerDisconnect_Params_Data8ValidateEPKvPN4mojo8internal17ValidationContextE, i1 (i8*, %"class.mojo::internal::ValidationContext"*)* null } }, %"struct.std::__1::pair.290" { i32 1127621537, %"struct.mojo::internal::GenericValidationInfo" { i1 (i8*, %"class.mojo::internal::ValidationContext"*)* @_ZN5blink5mojom8internal62WebBluetoothService_RemoteServerGetPrimaryServices_Params_Data8ValidateEPKvPN4mojo8internal17ValidationContextE, i1 (i8*, %"class.mojo::internal::ValidationContext"*)* @_ZN5blink5mojom8internal70WebBluetoothService_RemoteServerGetPrimaryServices_ResponseParams_Data8ValidateEPKvPN4mojo8internal17ValidationContextE } }, %"struct.std::__1::pair.290" { i32 501096322, %"struct.mojo::internal::GenericValidationInfo" { i1 (i8*, %"class.mojo::internal::ValidationContext"*)* @_ZN5blink5mojom8internal63WebBluetoothService_RemoteServiceGetCharacteristics_Params_Data8ValidateEPKvPN4mojo8internal17ValidationContextE, i1 (i8*, %"class.mojo::internal::ValidationContext"*)* @_ZN5blink5mojom8internal71WebBluetoothService_RemoteServiceGetCharacteristics_ResponseParams_Data8ValidateEPKvPN4mojo8internal17ValidationContextE } }, %"struct.std::__1::pair.290" { i32 132459802, %"struct.mojo::internal::GenericValidationInfo" { i1 (i8*, %"class.mojo::internal::ValidationContext"*)* @_ZN5blink5mojom8internal61WebBluetoothService_RemoteCharacteristicReadValue_Params_Data8ValidateEPKvPN4mojo8internal17ValidationContextE, i1 (i8*, %"class.mojo::internal::ValidationContext"*)* @_ZN5blink5mojom8internal69WebBluetoothService_RemoteCharacteristicReadValue_ResponseParams_Data8ValidateEPKvPN4mojo8internal17ValidationContextE } }, %"struct.std::__1::pair.290" { i32 1665417437, %"struct.mojo::internal::GenericValidationInfo" { i1 (i8*, %"class.mojo::internal::ValidationContext"*)* @_ZN5blink5mojom8internal62WebBluetoothService_RemoteCharacteristicWriteValue_Params_Data8ValidateEPKvPN4mojo8internal17ValidationContextE, i1 (i8*, %"class.mojo::internal::ValidationContext"*)* @_ZN5blink5mojom8internal70WebBluetoothService_RemoteCharacteristicWriteValue_ResponseParams_Data8ValidateEPKvPN4mojo8internal17ValidationContextE } }, %"struct.std::__1::pair.290" { i32 649973803, %"struct.mojo::internal::GenericValidationInfo" { i1 (i8*, %"class.mojo::internal::ValidationContext"*)* @_ZN5blink5mojom8internal70WebBluetoothService_RemoteCharacteristicStartNotifications_Params_Data8ValidateEPKvPN4mojo8internal17ValidationContextE, i1 (i8*, %"class.mojo::internal::ValidationContext"*)* @_ZN5blink5mojom8internal78WebBluetoothService_RemoteCharacteristicStartNotifications_ResponseParams_Data8ValidateEPKvPN4mojo8internal17ValidationContextE } }, %"struct.std::__1::pair.290" { i32 2069003051, %"struct.mojo::internal::GenericValidationInfo" { i1 (i8*, %"class.mojo::internal::ValidationContext"*)* @_ZN5blink5mojom8internal69WebBluetoothService_RemoteCharacteristicStopNotifications_Params_Data8ValidateEPKvPN4mojo8internal17ValidationContextE, i1 (i8*, %"class.mojo::internal::ValidationContext"*)* @_ZN5blink5mojom8internal77WebBluetoothService_RemoteCharacteristicStopNotifications_ResponseParams_Data8ValidateEPKvPN4mojo8internal17ValidationContextE } }, %"struct.std::__1::pair.290" { i32 790741108, %"struct.mojo::internal::GenericValidationInfo" { i1 (i8*, %"class.mojo::internal::ValidationContext"*)* @_ZN5blink5mojom8internal66WebBluetoothService_RemoteCharacteristicGetDescriptors_Params_Data8ValidateEPKvPN4mojo8internal17ValidationContextE, i1 (i8*, %"class.mojo::internal::ValidationContext"*)* @_ZN5blink5mojom8internal74WebBluetoothService_RemoteCharacteristicGetDescriptors_ResponseParams_Data8ValidateEPKvPN4mojo8internal17ValidationContextE } }, %"struct.std::__1::pair.290" { i32 1388517646, %"struct.mojo::internal::GenericValidationInfo" { i1 (i8*, %"class.mojo::internal::ValidationContext"*)* @_ZN5blink5mojom8internal57WebBluetoothService_RemoteDescriptorReadValue_Params_Data8ValidateEPKvPN4mojo8internal17ValidationContextE, i1 (i8*, %"class.mojo::internal::ValidationContext"*)* @_ZN5blink5mojom8internal65WebBluetoothService_RemoteDescriptorReadValue_ResponseParams_Data8ValidateEPKvPN4mojo8internal17ValidationContextE } }, %"struct.std::__1::pair.290" { i32 2004041849, %"struct.mojo::internal::GenericValidationInfo" { i1 (i8*, %"class.mojo::internal::ValidationContext"*)* @_ZN5blink5mojom8internal58WebBluetoothService_RemoteDescriptorWriteValue_Params_Data8ValidateEPKvPN4mojo8internal17ValidationContextE, i1 (i8*, %"class.mojo::internal::ValidationContext"*)* @_ZN5blink5mojom8internal66WebBluetoothService_RemoteDescriptorWriteValue_ResponseParams_Data8ValidateEPKvPN4mojo8internal17ValidationContextE } }, %"struct.std::__1::pair.290" { i32 942878455, %"struct.mojo::internal::GenericValidationInfo" { i1 (i8*, %"class.mojo::internal::ValidationContext"*)* @_ZN5blink5mojom8internal52WebBluetoothService_RequestScanningStart_Params_Data8ValidateEPKvPN4mojo8internal17ValidationContextE, i1 (i8*, %"class.mojo::internal::ValidationContext"*)* @_ZN5blink5mojom8internal60WebBluetoothService_RequestScanningStart_ResponseParams_Data8ValidateEPKvPN4mojo8internal17ValidationContextE } }, %"struct.std::__1::pair.290" { i32 986676873, %"struct.mojo::internal::GenericValidationInfo" { i1 (i8*, %"class.mojo::internal::ValidationContext"*)* @_ZN5blink5mojom8internal60WebBluetoothService_WatchAdvertisementsForDevice_Params_Data8ValidateEPKvPN4mojo8internal17ValidationContextE, i1 (i8*, %"class.mojo::internal::ValidationContext"*)* @_ZN5blink5mojom8internal68WebBluetoothService_WatchAdvertisementsForDevice_ResponseParams_Data8ValidateEPKvPN4mojo8internal17ValidationContextE } }], align 16
@_ZN5blink5mojom24WebBluetoothServerClient5Name_E = hidden constant [37 x i8] c"blink.mojom.WebBluetoothServerClient\00", align 16
@_ZTVN5blink5mojom29WebBluetoothServerClientProxyE = hidden unnamed_addr constant { [5 x i8*] } { [5 x i8*] [i8* null, i8* null, i8* bitcast (void (%"class.blink::mojom::WebBluetoothServerClient"*)* @_ZN5blink5mojom24WebBluetoothServerClientD2Ev to i8*), i8* bitcast (void (%"class.blink::mojom::WebBluetoothServerClientProxy"*)* @_ZN5blink5mojom29WebBluetoothServerClientProxyD0Ev to i8*), i8* bitcast (void (%"class.blink::mojom::WebBluetoothServerClientProxy"*)* @_ZN5blink5mojom29WebBluetoothServerClientProxy22GATTServerDisconnectedEv to i8*)] }, align 8
@_ZN5blink5mojomL39kWebBluetoothServerClientValidationInfoE = internal constant [1 x %"struct.std::__1::pair.290"] [%"struct.std::__1::pair.290" { i32 339134341, %"struct.mojo::internal::GenericValidationInfo" { i1 (i8*, %"class.mojo::internal::ValidationContext"*)* @_ZN5blink5mojom8internal59WebBluetoothServerClient_GATTServerDisconnected_Params_Data8ValidateEPKvPN4mojo8internal17ValidationContextE, i1 (i8*, %"class.mojo::internal::ValidationContext"*)* null } }], align 16
@_ZN5blink5mojom32WebBluetoothCharacteristicClient5Name_E = hidden constant [45 x i8] c"blink.mojom.WebBluetoothCharacteristicClient\00", align 16
@_ZTVN5blink5mojom37WebBluetoothCharacteristicClientProxyE = hidden unnamed_addr constant { [5 x i8*] } { [5 x i8*] [i8* null, i8* null, i8* bitcast (void (%"class.blink::mojom::WebBluetoothCharacteristicClient"*)* @_ZN5blink5mojom32WebBluetoothCharacteristicClientD2Ev to i8*), i8* bitcast (void (%"class.blink::mojom::WebBluetoothCharacteristicClientProxy"*)* @_ZN5blink5mojom37WebBluetoothCharacteristicClientProxyD0Ev to i8*), i8* bitcast (void (%"class.blink::mojom::WebBluetoothCharacteristicClientProxy"*, %"class.std::__1::vector.97"*)* @_ZN5blink5mojom37WebBluetoothCharacteristicClientProxy32RemoteCharacteristicValueChangedERKNSt3__16vectorIhNS2_9allocatorIhEEEE to i8*)] }, align 8
@_ZN5blink5mojomL47kWebBluetoothCharacteristicClientValidationInfoE = internal constant [1 x %"struct.std::__1::pair.290"] [%"struct.std::__1::pair.290" { i32 1931507195, %"struct.mojo::internal::GenericValidationInfo" { i1 (i8*, %"class.mojo::internal::ValidationContext"*)* @_ZN5blink5mojom8internal77WebBluetoothCharacteristicClient_RemoteCharacteristicValueChanged_Params_Data8ValidateEPKvPN4mojo8internal17ValidationContextE, i1 (i8*, %"class.mojo::internal::ValidationContext"*)* null } }], align 16
@_ZN5blink5mojom31WebBluetoothAdvertisementClient5Name_E = hidden constant [44 x i8] c"blink.mojom.WebBluetoothAdvertisementClient\00", align 16
@_ZTVN5blink5mojom36WebBluetoothAdvertisementClientProxyE = hidden unnamed_addr constant { [5 x i8*] } { [5 x i8*] [i8* null, i8* null, i8* bitcast (void (%"class.blink::mojom::WebBluetoothAdvertisementClient"*)* @_ZN5blink5mojom31WebBluetoothAdvertisementClientD2Ev to i8*), i8* bitcast (void (%"class.blink::mojom::WebBluetoothAdvertisementClientProxy"*)* @_ZN5blink5mojom36WebBluetoothAdvertisementClientProxyD0Ev to i8*), i8* bitcast (void (%"class.blink::mojom::WebBluetoothAdvertisementClientProxy"*, %"class.mojo::StructPtr.293"*)* @_ZN5blink5mojom36WebBluetoothAdvertisementClientProxy16AdvertisingEventEN4mojo9StructPtrINS0_28WebBluetoothAdvertisingEventEEE to i8*)] }, align 8
@_ZN5blink5mojomL46kWebBluetoothAdvertisementClientValidationInfoE = internal constant [1 x %"struct.std::__1::pair.290"] [%"struct.std::__1::pair.290" { i32 942658099, %"struct.mojo::internal::GenericValidationInfo" { i1 (i8*, %"class.mojo::internal::ValidationContext"*)* @_ZN5blink5mojom8internal60WebBluetoothAdvertisementClient_AdvertisingEvent_Params_Data8ValidateEPKvPN4mojo8internal17ValidationContextE, i1 (i8*, %"class.mojo::internal::ValidationContext"*)* null } }], align 16
@_ZTVN5blink5mojom53WebBluetoothService_GetAvailability_ForwardToCallbackE = hidden unnamed_addr constant { [6 x i8*] } { [6 x i8*] [i8* null, i8* null, i8* bitcast (void (%"class.blink::mojom::WebBluetoothService_GetAvailability_ForwardToCallback"*)* @_ZN5blink5mojom53WebBluetoothService_GetAvailability_ForwardToCallbackD2Ev to i8*), i8* bitcast (void (%"class.blink::mojom::WebBluetoothService_GetAvailability_ForwardToCallback"*)* @_ZN5blink5mojom53WebBluetoothService_GetAvailability_ForwardToCallbackD0Ev to i8*), i8* bitcast (i1 (%"class.mojo::MessageReceiver"*)* @_ZN4mojo15MessageReceiver25PrefersSerializedMessagesEv to i8*), i8* bitcast (i1 (%"class.blink::mojom::WebBluetoothService_GetAvailability_ForwardToCallback"*, %"class.mojo::Message"*)* @_ZN5blink5mojom53WebBluetoothService_GetAvailability_ForwardToCallback6AcceptEPN4mojo7MessageE to i8*)] }, align 8
@_ZTVN5blink5mojom51WebBluetoothService_RequestDevice_ForwardToCallbackE = hidden unnamed_addr constant { [6 x i8*] } { [6 x i8*] [i8* null, i8* null, i8* bitcast (void (%"class.blink::mojom::WebBluetoothService_RequestDevice_ForwardToCallback"*)* @_ZN5blink5mojom51WebBluetoothService_RequestDevice_ForwardToCallbackD2Ev to i8*), i8* bitcast (void (%"class.blink::mojom::WebBluetoothService_RequestDevice_ForwardToCallback"*)* @_ZN5blink5mojom51WebBluetoothService_RequestDevice_ForwardToCallbackD0Ev to i8*), i8* bitcast (i1 (%"class.mojo::MessageReceiver"*)* @_ZN4mojo15MessageReceiver25PrefersSerializedMessagesEv to i8*), i8* bitcast (i1 (%"class.blink::mojom::WebBluetoothService_RequestDevice_ForwardToCallback"*, %"class.mojo::Message"*)* @_ZN5blink5mojom51WebBluetoothService_RequestDevice_ForwardToCallback6AcceptEPN4mojo7MessageE to i8*)] }, align 8
@_ZTVN5blink5mojom48WebBluetoothService_GetDevices_ForwardToCallbackE = hidden unnamed_addr constant { [6 x i8*] } { [6 x i8*] [i8* null, i8* null, i8* bitcast (void (%"class.blink::mojom::WebBluetoothService_GetDevices_ForwardToCallback"*)* @_ZN5blink5mojom48WebBluetoothService_GetDevices_ForwardToCallbackD2Ev to i8*), i8* bitcast (void (%"class.blink::mojom::WebBluetoothService_GetDevices_ForwardToCallback"*)* @_ZN5blink5mojom48WebBluetoothService_GetDevices_ForwardToCallbackD0Ev to i8*), i8* bitcast (i1 (%"class.mojo::MessageReceiver"*)* @_ZN4mojo15MessageReceiver25PrefersSerializedMessagesEv to i8*), i8* bitcast (i1 (%"class.blink::mojom::WebBluetoothService_GetDevices_ForwardToCallback"*, %"class.mojo::Message"*)* @_ZN5blink5mojom48WebBluetoothService_GetDevices_ForwardToCallback6AcceptEPN4mojo7MessageE to i8*)] }, align 8
@_ZTVN5blink5mojom57WebBluetoothService_RemoteServerConnect_ForwardToCallbackE = hidden unnamed_addr constant { [6 x i8*] } { [6 x i8*] [i8* null, i8* null, i8* bitcast (void (%"class.blink::mojom::WebBluetoothService_RemoteServerConnect_ForwardToCallback"*)* @_ZN5blink5mojom57WebBluetoothService_RemoteServerConnect_ForwardToCallbackD2Ev to i8*), i8* bitcast (void (%"class.blink::mojom::WebBluetoothService_RemoteServerConnect_ForwardToCallback"*)* @_ZN5blink5mojom57WebBluetoothService_RemoteServerConnect_ForwardToCallbackD0Ev to i8*), i8* bitcast (i1 (%"class.mojo::MessageReceiver"*)* @_ZN4mojo15MessageReceiver25PrefersSerializedMessagesEv to i8*), i8* bitcast (i1 (%"class.blink::mojom::WebBluetoothService_RemoteServerConnect_ForwardToCallback"*, %"class.mojo::Message"*)* @_ZN5blink5mojom57WebBluetoothService_RemoteServerConnect_ForwardToCallback6AcceptEPN4mojo7MessageE to i8*)] }, align 8
@_ZTVN5blink5mojom68WebBluetoothService_RemoteServerGetPrimaryServices_ForwardToCallbackE = hidden unnamed_addr constant { [6 x i8*] } { [6 x i8*] [i8* null, i8* null, i8* bitcast (void (%"class.blink::mojom::WebBluetoothService_RemoteServerGetPrimaryServices_ForwardToCallback"*)* @_ZN5blink5mojom68WebBluetoothService_RemoteServerGetPrimaryServices_ForwardToCallbackD2Ev to i8*), i8* bitcast (void (%"class.blink::mojom::WebBluetoothService_RemoteServerGetPrimaryServices_ForwardToCallback"*)* @_ZN5blink5mojom68WebBluetoothService_RemoteServerGetPrimaryServices_ForwardToCallbackD0Ev to i8*), i8* bitcast (i1 (%"class.mojo::MessageReceiver"*)* @_ZN4mojo15MessageReceiver25PrefersSerializedMessagesEv to i8*), i8* bitcast (i1 (%"class.blink::mojom::WebBluetoothService_RemoteServerGetPrimaryServices_ForwardToCallback"*, %"class.mojo::Message"*)* @_ZN5blink5mojom68WebBluetoothService_RemoteServerGetPrimaryServices_ForwardToCallback6AcceptEPN4mojo7MessageE to i8*)] }, align 8
@_ZTVN5blink5mojom69WebBluetoothService_RemoteServiceGetCharacteristics_ForwardToCallbackE = hidden unnamed_addr constant { [6 x i8*] } { [6 x i8*] [i8* null, i8* null, i8* bitcast (void (%"class.blink::mojom::WebBluetoothService_RemoteServiceGetCharacteristics_ForwardToCallback"*)* @_ZN5blink5mojom69WebBluetoothService_RemoteServiceGetCharacteristics_ForwardToCallbackD2Ev to i8*), i8* bitcast (void (%"class.blink::mojom::WebBluetoothService_RemoteServiceGetCharacteristics_ForwardToCallback"*)* @_ZN5blink5mojom69WebBluetoothService_RemoteServiceGetCharacteristics_ForwardToCallbackD0Ev to i8*), i8* bitcast (i1 (%"class.mojo::MessageReceiver"*)* @_ZN4mojo15MessageReceiver25PrefersSerializedMessagesEv to i8*), i8* bitcast (i1 (%"class.blink::mojom::WebBluetoothService_RemoteServiceGetCharacteristics_ForwardToCallback"*, %"class.mojo::Message"*)* @_ZN5blink5mojom69WebBluetoothService_RemoteServiceGetCharacteristics_ForwardToCallback6AcceptEPN4mojo7MessageE to i8*)] }, align 8
@_ZTVN5blink5mojom67WebBluetoothService_RemoteCharacteristicReadValue_ForwardToCallbackE = hidden unnamed_addr constant { [6 x i8*] } { [6 x i8*] [i8* null, i8* null, i8* bitcast (void (%"class.blink::mojom::WebBluetoothService_RemoteCharacteristicReadValue_ForwardToCallback"*)* @_ZN5blink5mojom67WebBluetoothService_RemoteCharacteristicReadValue_ForwardToCallbackD2Ev to i8*), i8* bitcast (void (%"class.blink::mojom::WebBluetoothService_RemoteCharacteristicReadValue_ForwardToCallback"*)* @_ZN5blink5mojom67WebBluetoothService_RemoteCharacteristicReadValue_ForwardToCallbackD0Ev to i8*), i8* bitcast (i1 (%"class.mojo::MessageReceiver"*)* @_ZN4mojo15MessageReceiver25PrefersSerializedMessagesEv to i8*), i8* bitcast (i1 (%"class.blink::mojom::WebBluetoothService_RemoteCharacteristicReadValue_ForwardToCallback"*, %"class.mojo::Message"*)* @_ZN5blink5mojom67WebBluetoothService_RemoteCharacteristicReadValue_ForwardToCallback6AcceptEPN4mojo7MessageE to i8*)] }, align 8
@_ZTVN5blink5mojom68WebBluetoothService_RemoteCharacteristicWriteValue_ForwardToCallbackE = hidden unnamed_addr constant { [6 x i8*] } { [6 x i8*] [i8* null, i8* null, i8* bitcast (void (%"class.blink::mojom::WebBluetoothService_RemoteCharacteristicWriteValue_ForwardToCallback"*)* @_ZN5blink5mojom68WebBluetoothService_RemoteCharacteristicWriteValue_ForwardToCallbackD2Ev to i8*), i8* bitcast (void (%"class.blink::mojom::WebBluetoothService_RemoteCharacteristicWriteValue_ForwardToCallback"*)* @_ZN5blink5mojom68WebBluetoothService_RemoteCharacteristicWriteValue_ForwardToCallbackD0Ev to i8*), i8* bitcast (i1 (%"class.mojo::MessageReceiver"*)* @_ZN4mojo15MessageReceiver25PrefersSerializedMessagesEv to i8*), i8* bitcast (i1 (%"class.blink::mojom::WebBluetoothService_RemoteCharacteristicWriteValue_ForwardToCallback"*, %"class.mojo::Message"*)* @_ZN5blink5mojom68WebBluetoothService_RemoteCharacteristicWriteValue_ForwardToCallback6AcceptEPN4mojo7MessageE to i8*)] }, align 8
@_ZTVN5blink5mojom76WebBluetoothService_RemoteCharacteristicStartNotifications_ForwardToCallbackE = hidden unnamed_addr constant { [6 x i8*] } { [6 x i8*] [i8* null, i8* null, i8* bitcast (void (%"class.blink::mojom::WebBluetoothService_RemoteCharacteristicStartNotifications_ForwardToCallback"*)* @_ZN5blink5mojom76WebBluetoothService_RemoteCharacteristicStartNotifications_ForwardToCallbackD2Ev to i8*), i8* bitcast (void (%"class.blink::mojom::WebBluetoothService_RemoteCharacteristicStartNotifications_ForwardToCallback"*)* @_ZN5blink5mojom76WebBluetoothService_RemoteCharacteristicStartNotifications_ForwardToCallbackD0Ev to i8*), i8* bitcast (i1 (%"class.mojo::MessageReceiver"*)* @_ZN4mojo15MessageReceiver25PrefersSerializedMessagesEv to i8*), i8* bitcast (i1 (%"class.blink::mojom::WebBluetoothService_RemoteCharacteristicStartNotifications_ForwardToCallback"*, %"class.mojo::Message"*)* @_ZN5blink5mojom76WebBluetoothService_RemoteCharacteristicStartNotifications_ForwardToCallback6AcceptEPN4mojo7MessageE to i8*)] }, align 8
@_ZTVN5blink5mojom75WebBluetoothService_RemoteCharacteristicStopNotifications_ForwardToCallbackE = hidden unnamed_addr constant { [6 x i8*] } { [6 x i8*] [i8* null, i8* null, i8* bitcast (void (%"class.blink::mojom::WebBluetoothService_RemoteCharacteristicStopNotifications_ForwardToCallback"*)* @_ZN5blink5mojom75WebBluetoothService_RemoteCharacteristicStopNotifications_ForwardToCallbackD2Ev to i8*), i8* bitcast (void (%"class.blink::mojom::WebBluetoothService_RemoteCharacteristicStopNotifications_ForwardToCallback"*)* @_ZN5blink5mojom75WebBluetoothService_RemoteCharacteristicStopNotifications_ForwardToCallbackD0Ev to i8*), i8* bitcast (i1 (%"class.mojo::MessageReceiver"*)* @_ZN4mojo15MessageReceiver25PrefersSerializedMessagesEv to i8*), i8* bitcast (i1 (%"class.blink::mojom::WebBluetoothService_RemoteCharacteristicStopNotifications_ForwardToCallback"*, %"class.mojo::Message"*)* @_ZN5blink5mojom75WebBluetoothService_RemoteCharacteristicStopNotifications_ForwardToCallback6AcceptEPN4mojo7MessageE to i8*)] }, align 8
@_ZTVN5blink5mojom72WebBluetoothService_RemoteCharacteristicGetDescriptors_ForwardToCallbackE = hidden unnamed_addr constant { [6 x i8*] } { [6 x i8*] [i8* null, i8* null, i8* bitcast (void (%"class.blink::mojom::WebBluetoothService_RemoteCharacteristicGetDescriptors_ForwardToCallback"*)* @_ZN5blink5mojom72WebBluetoothService_RemoteCharacteristicGetDescriptors_ForwardToCallbackD2Ev to i8*), i8* bitcast (void (%"class.blink::mojom::WebBluetoothService_RemoteCharacteristicGetDescriptors_ForwardToCallback"*)* @_ZN5blink5mojom72WebBluetoothService_RemoteCharacteristicGetDescriptors_ForwardToCallbackD0Ev to i8*), i8* bitcast (i1 (%"class.mojo::MessageReceiver"*)* @_ZN4mojo15MessageReceiver25PrefersSerializedMessagesEv to i8*), i8* bitcast (i1 (%"class.blink::mojom::WebBluetoothService_RemoteCharacteristicGetDescriptors_ForwardToCallback"*, %"class.mojo::Message"*)* @_ZN5blink5mojom72WebBluetoothService_RemoteCharacteristicGetDescriptors_ForwardToCallback6AcceptEPN4mojo7MessageE to i8*)] }, align 8
@_ZTVN5blink5mojom63WebBluetoothService_RemoteDescriptorReadValue_ForwardToCallbackE = hidden unnamed_addr constant { [6 x i8*] } { [6 x i8*] [i8* null, i8* null, i8* bitcast (void (%"class.blink::mojom::WebBluetoothService_RemoteDescriptorReadValue_ForwardToCallback"*)* @_ZN5blink5mojom63WebBluetoothService_RemoteDescriptorReadValue_ForwardToCallbackD2Ev to i8*), i8* bitcast (void (%"class.blink::mojom::WebBluetoothService_RemoteDescriptorReadValue_ForwardToCallback"*)* @_ZN5blink5mojom63WebBluetoothService_RemoteDescriptorReadValue_ForwardToCallbackD0Ev to i8*), i8* bitcast (i1 (%"class.mojo::MessageReceiver"*)* @_ZN4mojo15MessageReceiver25PrefersSerializedMessagesEv to i8*), i8* bitcast (i1 (%"class.blink::mojom::WebBluetoothService_RemoteDescriptorReadValue_ForwardToCallback"*, %"class.mojo::Message"*)* @_ZN5blink5mojom63WebBluetoothService_RemoteDescriptorReadValue_ForwardToCallback6AcceptEPN4mojo7MessageE to i8*)] }, align 8
@_ZTVN5blink5mojom64WebBluetoothService_RemoteDescriptorWriteValue_ForwardToCallbackE = hidden unnamed_addr constant { [6 x i8*] } { [6 x i8*] [i8* null, i8* null, i8* bitcast (void (%"class.blink::mojom::WebBluetoothService_RemoteDescriptorWriteValue_ForwardToCallback"*)* @_ZN5blink5mojom64WebBluetoothService_RemoteDescriptorWriteValue_ForwardToCallbackD2Ev to i8*), i8* bitcast (void (%"class.blink::mojom::WebBluetoothService_RemoteDescriptorWriteValue_ForwardToCallback"*)* @_ZN5blink5mojom64WebBluetoothService_RemoteDescriptorWriteValue_ForwardToCallbackD0Ev to i8*), i8* bitcast (i1 (%"class.mojo::MessageReceiver"*)* @_ZN4mojo15MessageReceiver25PrefersSerializedMessagesEv to i8*), i8* bitcast (i1 (%"class.blink::mojom::WebBluetoothService_RemoteDescriptorWriteValue_ForwardToCallback"*, %"class.mojo::Message"*)* @_ZN5blink5mojom64WebBluetoothService_RemoteDescriptorWriteValue_ForwardToCallback6AcceptEPN4mojo7MessageE to i8*)] }, align 8
@_ZTVN5blink5mojom58WebBluetoothService_RequestScanningStart_ForwardToCallbackE = hidden unnamed_addr constant { [6 x i8*] } { [6 x i8*] [i8* null, i8* null, i8* bitcast (void (%"class.blink::mojom::WebBluetoothService_RequestScanningStart_ForwardToCallback"*)* @_ZN5blink5mojom58WebBluetoothService_RequestScanningStart_ForwardToCallbackD2Ev to i8*), i8* bitcast (void (%"class.blink::mojom::WebBluetoothService_RequestScanningStart_ForwardToCallback"*)* @_ZN5blink5mojom58WebBluetoothService_RequestScanningStart_ForwardToCallbackD0Ev to i8*), i8* bitcast (i1 (%"class.mojo::MessageReceiver"*)* @_ZN4mojo15MessageReceiver25PrefersSerializedMessagesEv to i8*), i8* bitcast (i1 (%"class.blink::mojom::WebBluetoothService_RequestScanningStart_ForwardToCallback"*, %"class.mojo::Message"*)* @_ZN5blink5mojom58WebBluetoothService_RequestScanningStart_ForwardToCallback6AcceptEPN4mojo7MessageE to i8*)] }, align 8
@_ZTVN5blink5mojom66WebBluetoothService_WatchAdvertisementsForDevice_ForwardToCallbackE = hidden unnamed_addr constant { [6 x i8*] } { [6 x i8*] [i8* null, i8* null, i8* bitcast (void (%"class.blink::mojom::WebBluetoothService_WatchAdvertisementsForDevice_ForwardToCallback"*)* @_ZN5blink5mojom66WebBluetoothService_WatchAdvertisementsForDevice_ForwardToCallbackD2Ev to i8*), i8* bitcast (void (%"class.blink::mojom::WebBluetoothService_WatchAdvertisementsForDevice_ForwardToCallback"*)* @_ZN5blink5mojom66WebBluetoothService_WatchAdvertisementsForDevice_ForwardToCallbackD0Ev to i8*), i8* bitcast (i1 (%"class.mojo::MessageReceiver"*)* @_ZN4mojo15MessageReceiver25PrefersSerializedMessagesEv to i8*), i8* bitcast (i1 (%"class.blink::mojom::WebBluetoothService_WatchAdvertisementsForDevice_ForwardToCallback"*, %"class.mojo::Message"*)* @_ZN5blink5mojom66WebBluetoothService_WatchAdvertisementsForDevice_ForwardToCallback6AcceptEPN4mojo7MessageE to i8*)] }, align 8
@_ZTVN5blink5mojom35WebBluetoothServiceRequestValidatorE = hidden unnamed_addr constant { [6 x i8*] } { [6 x i8*] [i8* null, i8* null, i8* bitcast (void (%"class.mojo::MessageReceiver"*)* @_ZN4mojo15MessageReceiverD2Ev to i8*), i8* bitcast (void (%"class.blink::mojom::WebBluetoothServiceRequestValidator"*)* @_ZN5blink5mojom35WebBluetoothServiceRequestValidatorD0Ev to i8*), i8* bitcast (i1 (%"class.mojo::MessageReceiver"*)* @_ZN4mojo15MessageReceiver25PrefersSerializedMessagesEv to i8*), i8* bitcast (i1 (%"class.blink::mojom::WebBluetoothServiceRequestValidator"*, %"class.mojo::Message"*)* @_ZN5blink5mojom35WebBluetoothServiceRequestValidator6AcceptEPN4mojo7MessageE to i8*)] }, align 8
@_ZTVN5blink5mojom36WebBluetoothServiceResponseValidatorE = hidden unnamed_addr constant { [6 x i8*] } { [6 x i8*] [i8* null, i8* null, i8* bitcast (void (%"class.mojo::MessageReceiver"*)* @_ZN4mojo15MessageReceiverD2Ev to i8*), i8* bitcast (void (%"class.blink::mojom::WebBluetoothServiceResponseValidator"*)* @_ZN5blink5mojom36WebBluetoothServiceResponseValidatorD0Ev to i8*), i8* bitcast (i1 (%"class.mojo::MessageReceiver"*)* @_ZN4mojo15MessageReceiver25PrefersSerializedMessagesEv to i8*), i8* bitcast (i1 (%"class.blink::mojom::WebBluetoothServiceResponseValidator"*, %"class.mojo::Message"*)* @_ZN5blink5mojom36WebBluetoothServiceResponseValidator6AcceptEPN4mojo7MessageE to i8*)] }, align 8
@_ZTVN5blink5mojom40WebBluetoothServerClientRequestValidatorE = hidden unnamed_addr constant { [6 x i8*] } { [6 x i8*] [i8* null, i8* null, i8* bitcast (void (%"class.mojo::MessageReceiver"*)* @_ZN4mojo15MessageReceiverD2Ev to i8*), i8* bitcast (void (%"class.blink::mojom::WebBluetoothServerClientRequestValidator"*)* @_ZN5blink5mojom40WebBluetoothServerClientRequestValidatorD0Ev to i8*), i8* bitcast (i1 (%"class.mojo::MessageReceiver"*)* @_ZN4mojo15MessageReceiver25PrefersSerializedMessagesEv to i8*), i8* bitcast (i1 (%"class.blink::mojom::WebBluetoothServerClientRequestValidator"*, %"class.mojo::Message"*)* @_ZN5blink5mojom40WebBluetoothServerClientRequestValidator6AcceptEPN4mojo7MessageE to i8*)] }, align 8
@_ZTVN5blink5mojom48WebBluetoothCharacteristicClientRequestValidatorE = hidden unnamed_addr constant { [6 x i8*] } { [6 x i8*] [i8* null, i8* null, i8* bitcast (void (%"class.mojo::MessageReceiver"*)* @_ZN4mojo15MessageReceiverD2Ev to i8*), i8* bitcast (void (%"class.blink::mojom::WebBluetoothCharacteristicClientRequestValidator"*)* @_ZN5blink5mojom48WebBluetoothCharacteristicClientRequestValidatorD0Ev to i8*), i8* bitcast (i1 (%"class.mojo::MessageReceiver"*)* @_ZN4mojo15MessageReceiver25PrefersSerializedMessagesEv to i8*), i8* bitcast (i1 (%"class.blink::mojom::WebBluetoothCharacteristicClientRequestValidator"*, %"class.mojo::Message"*)* @_ZN5blink5mojom48WebBluetoothCharacteristicClientRequestValidator6AcceptEPN4mojo7MessageE to i8*)] }, align 8
@_ZTVN5blink5mojom47WebBluetoothAdvertisementClientRequestValidatorE = hidden unnamed_addr constant { [6 x i8*] } { [6 x i8*] [i8* null, i8* null, i8* bitcast (void (%"class.mojo::MessageReceiver"*)* @_ZN4mojo15MessageReceiverD2Ev to i8*), i8* bitcast (void (%"class.blink::mojom::WebBluetoothAdvertisementClientRequestValidator"*)* @_ZN5blink5mojom47WebBluetoothAdvertisementClientRequestValidatorD0Ev to i8*), i8* bitcast (i1 (%"class.mojo::MessageReceiver"*)* @_ZN4mojo15MessageReceiver25PrefersSerializedMessagesEv to i8*), i8* bitcast (i1 (%"class.blink::mojom::WebBluetoothAdvertisementClientRequestValidator"*, %"class.mojo::Message"*)* @_ZN5blink5mojom47WebBluetoothAdvertisementClientRequestValidator6AcceptEPN4mojo7MessageE to i8*)] }, align 8

@_ZN5blink5mojom24WebBluetoothLeScanFilterC1Ev = hidden unnamed_addr alias void (%"class.blink::mojom::WebBluetoothLeScanFilter"*), void (%"class.blink::mojom::WebBluetoothLeScanFilter"*)* @_ZN5blink5mojom24WebBluetoothLeScanFilterC2Ev
@_ZN5blink5mojom24WebBluetoothLeScanFilterC1EN4absl8optionalINSt3__16vectorIN6device13BluetoothUUIDENS4_9allocatorIS7_EEEEEERKNS3_INS4_12basic_stringIcNS4_11char_traitsIcEENS8_IcEEEEEESJ_NS3_IN4base8flat_mapIN4mojo16InlinedStructPtrINS0_19WebBluetoothCompanyEEENS5_INSN_INS0_22WebBluetoothDataFilterEEENS8_ISR_EEEENS4_4lessIvEENS5_INS4_4pairISP_ST_EENS8_ISX_EEEEEEEE = hidden unnamed_addr alias void (%"class.blink::mojom::WebBluetoothLeScanFilter"*, %"class.absl::optional"*, %"class.absl::optional.7"*, %"class.absl::optional.7"*, %"class.absl::optional.12"*), void (%"class.blink::mojom::WebBluetoothLeScanFilter"*, %"class.absl::optional"*, %"class.absl::optional.7"*, %"class.absl::optional.7"*, %"class.absl::optional.12"*)* @_ZN5blink5mojom24WebBluetoothLeScanFilterC2EN4absl8optionalINSt3__16vectorIN6device13BluetoothUUIDENS4_9allocatorIS7_EEEEEERKNS3_INS4_12basic_stringIcNS4_11char_traitsIcEENS8_IcEEEEEESJ_NS3_IN4base8flat_mapIN4mojo16InlinedStructPtrINS0_19WebBluetoothCompanyEEENS5_INSN_INS0_22WebBluetoothDataFilterEEENS8_ISR_EEEENS4_4lessIvEENS5_INS4_4pairISP_ST_EENS8_ISX_EEEEEEEE
@_ZN5blink5mojom24WebBluetoothLeScanFilterD1Ev = hidden unnamed_addr alias void (%"class.blink::mojom::WebBluetoothLeScanFilter"*), void (%"class.blink::mojom::WebBluetoothLeScanFilter"*)* @_ZN5blink5mojom24WebBluetoothLeScanFilterD2Ev
@_ZN5blink5mojom19WebBluetoothCompanyC1Ev = hidden unnamed_addr alias void (%"class.blink::mojom::WebBluetoothCompany"*), void (%"class.blink::mojom::WebBluetoothCompany"*)* @_ZN5blink5mojom19WebBluetoothCompanyC2Ev
@_ZN5blink5mojom19WebBluetoothCompanyC1Et = hidden unnamed_addr alias void (%"class.blink::mojom::WebBluetoothCompany"*, i16), void (%"class.blink::mojom::WebBluetoothCompany"*, i16)* @_ZN5blink5mojom19WebBluetoothCompanyC2Et
@_ZN5blink5mojom19WebBluetoothCompanyD1Ev = hidden unnamed_addr alias void (%"class.blink::mojom::WebBluetoothCompany"*), void (%"class.blink::mojom::WebBluetoothCompany"*)* @_ZN5blink5mojom19WebBluetoothCompanyD2Ev
@_ZN5blink5mojom22WebBluetoothDataFilterC1Ev = hidden unnamed_addr alias void (%"class.blink::mojom::WebBluetoothDataFilter"*), void (%"class.blink::mojom::WebBluetoothDataFilter"*)* @_ZN5blink5mojom22WebBluetoothDataFilterC2Ev
@_ZN5blink5mojom22WebBluetoothDataFilterC1Ehh = hidden unnamed_addr alias void (%"class.blink::mojom::WebBluetoothDataFilter"*, i8, i8), void (%"class.blink::mojom::WebBluetoothDataFilter"*, i8, i8)* @_ZN5blink5mojom22WebBluetoothDataFilterC2Ehh
@_ZN5blink5mojom22WebBluetoothDataFilterD1Ev = hidden unnamed_addr alias void (%"class.blink::mojom::WebBluetoothDataFilter"*), void (%"class.blink::mojom::WebBluetoothDataFilter"*)* @_ZN5blink5mojom22WebBluetoothDataFilterD2Ev
@_ZN5blink5mojom32WebBluetoothRequestDeviceOptionsC1Ev = hidden unnamed_addr alias void (%"class.blink::mojom::WebBluetoothRequestDeviceOptions"*), void (%"class.blink::mojom::WebBluetoothRequestDeviceOptions"*)* @_ZN5blink5mojom32WebBluetoothRequestDeviceOptionsC2Ev
@_ZN5blink5mojom32WebBluetoothRequestDeviceOptionsC1EN4absl8optionalINSt3__16vectorIN4mojo9StructPtrINS0_24WebBluetoothLeScanFilterEEENS4_9allocatorIS9_EEEEEENS5_IN6device13BluetoothUUIDENSA_ISF_EEEENS5_ItNSA_ItEEEEb = hidden unnamed_addr alias void (%"class.blink::mojom::WebBluetoothRequestDeviceOptions"*, %"class.absl::optional.63"*, %"class.std::__1::vector"*, %"class.std::__1::vector.78"*, i1), void (%"class.blink::mojom::WebBluetoothRequestDeviceOptions"*, %"class.absl::optional.63"*, %"class.std::__1::vector"*, %"class.std::__1::vector.78"*, i1)* @_ZN5blink5mojom32WebBluetoothRequestDeviceOptionsC2EN4absl8optionalINSt3__16vectorIN4mojo9StructPtrINS0_24WebBluetoothLeScanFilterEEENS4_9allocatorIS9_EEEEEENS5_IN6device13BluetoothUUIDENSA_ISF_EEEENS5_ItNSA_ItEEEEb
@_ZN5blink5mojom32WebBluetoothRequestDeviceOptionsD1Ev = hidden unnamed_addr alias void (%"class.blink::mojom::WebBluetoothRequestDeviceOptions"*), void (%"class.blink::mojom::WebBluetoothRequestDeviceOptions"*)* @_ZN5blink5mojom32WebBluetoothRequestDeviceOptionsD2Ev
@_ZN5blink5mojom32WebBluetoothRequestLEScanOptionsC1Ev = hidden unnamed_addr alias void (%"class.blink::mojom::WebBluetoothRequestLEScanOptions"*), void (%"class.blink::mojom::WebBluetoothRequestLEScanOptions"*)* @_ZN5blink5mojom32WebBluetoothRequestLEScanOptionsC2Ev
@_ZN5blink5mojom32WebBluetoothRequestLEScanOptionsC1EN4absl8optionalINSt3__16vectorIN4mojo9StructPtrINS0_24WebBluetoothLeScanFilterEEENS4_9allocatorIS9_EEEEEEbb = hidden unnamed_addr alias void (%"class.blink::mojom::WebBluetoothRequestLEScanOptions"*, %"class.absl::optional.63"*, i1, i1), void (%"class.blink::mojom::WebBluetoothRequestLEScanOptions"*, %"class.absl::optional.63"*, i1, i1)* @_ZN5blink5mojom32WebBluetoothRequestLEScanOptionsC2EN4absl8optionalINSt3__16vectorIN4mojo9StructPtrINS0_24WebBluetoothLeScanFilterEEENS4_9allocatorIS9_EEEEEEbb
@_ZN5blink5mojom32WebBluetoothRequestLEScanOptionsD1Ev = hidden unnamed_addr alias void (%"class.blink::mojom::WebBluetoothRequestLEScanOptions"*), void (%"class.blink::mojom::WebBluetoothRequestLEScanOptions"*)* @_ZN5blink5mojom32WebBluetoothRequestLEScanOptionsD2Ev
@_ZN5blink5mojom20WebBluetoothDeviceIdC1Ev = hidden unnamed_addr alias void (%"class.blink::mojom::WebBluetoothDeviceId"*), void (%"class.blink::mojom::WebBluetoothDeviceId"*)* @_ZN5blink5mojom20WebBluetoothDeviceIdC2Ev
@_ZN5blink5mojom20WebBluetoothDeviceIdC1ERKNSt3__112basic_stringIcNS2_11char_traitsIcEENS2_9allocatorIcEEEE = hidden unnamed_addr alias void (%"class.blink::mojom::WebBluetoothDeviceId"*, %"class.std::__1::basic_string"*), void (%"class.blink::mojom::WebBluetoothDeviceId"*, %"class.std::__1::basic_string"*)* @_ZN5blink5mojom20WebBluetoothDeviceIdC2ERKNSt3__112basic_stringIcNS2_11char_traitsIcEENS2_9allocatorIcEEEE
@_ZN5blink5mojom20WebBluetoothDeviceIdD1Ev = hidden unnamed_addr alias void (%"class.blink::mojom::WebBluetoothDeviceId"*), void (%"class.blink::mojom::WebBluetoothDeviceId"*)* @_ZN5blink5mojom20WebBluetoothDeviceIdD2Ev
@_ZN5blink5mojom18WebBluetoothDeviceC1Ev = hidden unnamed_addr alias void (%"class.blink::mojom::WebBluetoothDevice"*), void (%"class.blink::mojom::WebBluetoothDevice"*)* @_ZN5blink5mojom18WebBluetoothDeviceC2Ev
@_ZN5blink5mojom18WebBluetoothDeviceC1ERKNS_20WebBluetoothDeviceIdERKN4absl8optionalINSt3__112basic_stringIcNS7_11char_traitsIcEENS7_9allocatorIcEEEEEE = hidden unnamed_addr alias void (%"class.blink::mojom::WebBluetoothDevice"*, %"class.blink::WebBluetoothDeviceId"*, %"class.absl::optional.7"*), void (%"class.blink::mojom::WebBluetoothDevice"*, %"class.blink::WebBluetoothDeviceId"*, %"class.absl::optional.7"*)* @_ZN5blink5mojom18WebBluetoothDeviceC2ERKNS_20WebBluetoothDeviceIdERKN4absl8optionalINSt3__112basic_stringIcNS7_11char_traitsIcEENS7_9allocatorIcEEEEEE
@_ZN5blink5mojom18WebBluetoothDeviceD1Ev = hidden unnamed_addr alias void (%"class.blink::mojom::WebBluetoothDevice"*), void (%"class.blink::mojom::WebBluetoothDevice"*)* @_ZN5blink5mojom18WebBluetoothDeviceD2Ev
@_ZN5blink5mojom29WebBluetoothRemoteGATTServiceC1Ev = hidden unnamed_addr alias void (%"class.blink::mojom::WebBluetoothRemoteGATTService"*), void (%"class.blink::mojom::WebBluetoothRemoteGATTService"*)* @_ZN5blink5mojom29WebBluetoothRemoteGATTServiceC2Ev
@_ZN5blink5mojom29WebBluetoothRemoteGATTServiceC1ERKNSt3__112basic_stringIcNS2_11char_traitsIcEENS2_9allocatorIcEEEERKN6device13BluetoothUUIDE = hidden unnamed_addr alias void (%"class.blink::mojom::WebBluetoothRemoteGATTService"*, %"class.std::__1::basic_string"*, %"class.device::BluetoothUUID"*), void (%"class.blink::mojom::WebBluetoothRemoteGATTService"*, %"class.std::__1::basic_string"*, %"class.device::BluetoothUUID"*)* @_ZN5blink5mojom29WebBluetoothRemoteGATTServiceC2ERKNSt3__112basic_stringIcNS2_11char_traitsIcEENS2_9allocatorIcEEEERKN6device13BluetoothUUIDE
@_ZN5blink5mojom29WebBluetoothRemoteGATTServiceD1Ev = hidden unnamed_addr alias void (%"class.blink::mojom::WebBluetoothRemoteGATTService"*), void (%"class.blink::mojom::WebBluetoothRemoteGATTService"*)* @_ZN5blink5mojom29WebBluetoothRemoteGATTServiceD2Ev
@_ZN5blink5mojom36WebBluetoothRemoteGATTCharacteristicC1Ev = hidden unnamed_addr alias void (%"class.blink::mojom::WebBluetoothRemoteGATTCharacteristic"*), void (%"class.blink::mojom::WebBluetoothRemoteGATTCharacteristic"*)* @_ZN5blink5mojom36WebBluetoothRemoteGATTCharacteristicC2Ev
@_ZN5blink5mojom36WebBluetoothRemoteGATTCharacteristicC1ERKNSt3__112basic_stringIcNS2_11char_traitsIcEENS2_9allocatorIcEEEERKN6device13BluetoothUUIDEj = hidden unnamed_addr alias void (%"class.blink::mojom::WebBluetoothRemoteGATTCharacteristic"*, %"class.std::__1::basic_string"*, %"class.device::BluetoothUUID"*, i32), void (%"class.blink::mojom::WebBluetoothRemoteGATTCharacteristic"*, %"class.std::__1::basic_string"*, %"class.device::BluetoothUUID"*, i32)* @_ZN5blink5mojom36WebBluetoothRemoteGATTCharacteristicC2ERKNSt3__112basic_stringIcNS2_11char_traitsIcEENS2_9allocatorIcEEEERKN6device13BluetoothUUIDEj
@_ZN5blink5mojom36WebBluetoothRemoteGATTCharacteristicD1Ev = hidden unnamed_addr alias void (%"class.blink::mojom::WebBluetoothRemoteGATTCharacteristic"*), void (%"class.blink::mojom::WebBluetoothRemoteGATTCharacteristic"*)* @_ZN5blink5mojom36WebBluetoothRemoteGATTCharacteristicD2Ev
@_ZN5blink5mojom28WebBluetoothAdvertisingEventC1Ev = hidden unnamed_addr alias void (%"class.blink::mojom::WebBluetoothAdvertisingEvent"*), void (%"class.blink::mojom::WebBluetoothAdvertisingEvent"*)* @_ZN5blink5mojom28WebBluetoothAdvertisingEventC2Ev
@_ZN5blink5mojom28WebBluetoothAdvertisingEventC1EN4mojo9StructPtrINS0_18WebBluetoothDeviceEEERKN4absl8optionalINSt3__112basic_stringIcNS8_11char_traitsIcEENS8_9allocatorIcEEEEEENS8_6vectorIN6device13BluetoothUUIDENSC_ISK_EEEEbtbhbhRKN4base8flat_mapItNSI_IhNSC_IhEEEENS8_4lessIvEENSI_INS8_4pairItSQ_EENSC_ISU_EEEEEERKNSO_ISK_SQ_SS_NSI_INST_ISK_SQ_EENSC_IS10_EEEEEE = hidden unnamed_addr alias void (%"class.blink::mojom::WebBluetoothAdvertisingEvent"*, %"class.mojo::StructPtr.85"*, %"class.absl::optional.7"*, %"class.std::__1::vector"*, i1, i16, i1, i8, i1, i8, %"class.base::flat_map.92"*, %"class.base::flat_map.109"*), void (%"class.blink::mojom::WebBluetoothAdvertisingEvent"*, %"class.mojo::StructPtr.85"*, %"class.absl::optional.7"*, %"class.std::__1::vector"*, i1, i16, i1, i8, i1, i8, %"class.base::flat_map.92"*, %"class.base::flat_map.109"*)* @_ZN5blink5mojom28WebBluetoothAdvertisingEventC2EN4mojo9StructPtrINS0_18WebBluetoothDeviceEEERKN4absl8optionalINSt3__112basic_stringIcNS8_11char_traitsIcEENS8_9allocatorIcEEEEEENS8_6vectorIN6device13BluetoothUUIDENSC_ISK_EEEEbtbhbhRKN4base8flat_mapItNSI_IhNSC_IhEEEENS8_4lessIvEENSI_INS8_4pairItSQ_EENSC_ISU_EEEEEERKNSO_ISK_SQ_SS_NSI_INST_ISK_SQ_EENSC_IS10_EEEEEE
@_ZN5blink5mojom28WebBluetoothAdvertisingEventD1Ev = hidden unnamed_addr alias void (%"class.blink::mojom::WebBluetoothAdvertisingEvent"*), void (%"class.blink::mojom::WebBluetoothAdvertisingEvent"*)* @_ZN5blink5mojom28WebBluetoothAdvertisingEventD2Ev
@_ZN5blink5mojom32WebBluetoothRemoteGATTDescriptorC1Ev = hidden unnamed_addr alias void (%"class.blink::mojom::WebBluetoothRemoteGATTDescriptor"*), void (%"class.blink::mojom::WebBluetoothRemoteGATTDescriptor"*)* @_ZN5blink5mojom32WebBluetoothRemoteGATTDescriptorC2Ev
@_ZN5blink5mojom32WebBluetoothRemoteGATTDescriptorC1ERKNSt3__112basic_stringIcNS2_11char_traitsIcEENS2_9allocatorIcEEEERKN6device13BluetoothUUIDE = hidden unnamed_addr alias void (%"class.blink::mojom::WebBluetoothRemoteGATTDescriptor"*, %"class.std::__1::basic_string"*, %"class.device::BluetoothUUID"*), void (%"class.blink::mojom::WebBluetoothRemoteGATTDescriptor"*, %"class.std::__1::basic_string"*, %"class.device::BluetoothUUID"*)* @_ZN5blink5mojom32WebBluetoothRemoteGATTDescriptorC2ERKNSt3__112basic_stringIcNS2_11char_traitsIcEENS2_9allocatorIcEEEERKN6device13BluetoothUUIDE
@_ZN5blink5mojom32WebBluetoothRemoteGATTDescriptorD1Ev = hidden unnamed_addr alias void (%"class.blink::mojom::WebBluetoothRemoteGATTDescriptor"*), void (%"class.blink::mojom::WebBluetoothRemoteGATTDescriptor"*)* @_ZN5blink5mojom32WebBluetoothRemoteGATTDescriptorD2Ev
@_ZN5blink5mojom24WebBluetoothServiceProxyC1EPN4mojo28MessageReceiverWithResponderE = hidden unnamed_addr alias void (%"class.blink::mojom::WebBluetoothServiceProxy"*, %"class.mojo::MessageReceiverWithResponder"*), void (%"class.blink::mojom::WebBluetoothServiceProxy"*, %"class.mojo::MessageReceiverWithResponder"*)* @_ZN5blink5mojom24WebBluetoothServiceProxyC2EPN4mojo28MessageReceiverWithResponderE
@_ZN5blink5mojom29WebBluetoothServerClientProxyC1EPN4mojo28MessageReceiverWithResponderE = hidden unnamed_addr alias void (%"class.blink::mojom::WebBluetoothServerClientProxy"*, %"class.mojo::MessageReceiverWithResponder"*), void (%"class.blink::mojom::WebBluetoothServerClientProxy"*, %"class.mojo::MessageReceiverWithResponder"*)* @_ZN5blink5mojom29WebBluetoothServerClientProxyC2EPN4mojo28MessageReceiverWithResponderE
@_ZN5blink5mojom37WebBluetoothCharacteristicClientProxyC1EPN4mojo28MessageReceiverWithResponderE = hidden unnamed_addr alias void (%"class.blink::mojom::WebBluetoothCharacteristicClientProxy"*, %"class.mojo::MessageReceiverWithResponder"*), void (%"class.blink::mojom::WebBluetoothCharacteristicClientProxy"*, %"class.mojo::MessageReceiverWithResponder"*)* @_ZN5blink5mojom37WebBluetoothCharacteristicClientProxyC2EPN4mojo28MessageReceiverWithResponderE
@_ZN5blink5mojom36WebBluetoothAdvertisementClientProxyC1EPN4mojo28MessageReceiverWithResponderE = hidden unnamed_addr alias void (%"class.blink::mojom::WebBluetoothAdvertisementClientProxy"*, %"class.mojo::MessageReceiverWithResponder"*), void (%"class.blink::mojom::WebBluetoothAdvertisementClientProxy"*, %"class.mojo::MessageReceiverWithResponder"*)* @_ZN5blink5mojom36WebBluetoothAdvertisementClientProxyC2EPN4mojo28MessageReceiverWithResponderE

; Function Attrs: nounwind ssp uwtable
define hidden void @_ZN5blink5mojom24WebBluetoothLeScanFilterC2Ev(%"class.blink::mojom::WebBluetoothLeScanFilter"* nocapture) unnamed_addr #0 align 2 {
  %2 = getelementptr inbounds %"class.blink::mojom::WebBluetoothLeScanFilter", %"class.blink::mojom::WebBluetoothLeScanFilter"* %0, i64 0, i32 0, i32 0, i32 0, i32 0, i32 0
  store i8 0, i8* %2, align 8
  %3 = getelementptr inbounds %"class.blink::mojom::WebBluetoothLeScanFilter", %"class.blink::mojom::WebBluetoothLeScanFilter"* %0, i64 0, i32 0, i32 0, i32 0, i32 0, i32 1
  %4 = getelementptr inbounds %"class.blink::mojom::WebBluetoothLeScanFilter", %"class.blink::mojom::WebBluetoothLeScanFilter"* %0, i64 0, i32 1, i32 0, i32 0, i32 0, i32 1
  %5 = getelementptr inbounds %"class.blink::mojom::WebBluetoothLeScanFilter", %"class.blink::mojom::WebBluetoothLeScanFilter"* %0, i64 0, i32 2, i32 0, i32 0, i32 0, i32 1
  %6 = getelementptr inbounds %"class.blink::mojom::WebBluetoothLeScanFilter", %"class.blink::mojom::WebBluetoothLeScanFilter"* %0, i64 0, i32 3, i32 0, i32 0, i32 0, i32 1
  %7 = bitcast %union.anon.16* %6 to i8*
  tail call void @llvm.memset.p0i8.i64(i8* align 8 %7, i8 0, i64 24, i1 false) #13
  %8 = bitcast %union.anon* %3 to i8*
  call void @llvm.memset.p0i8.i64(i8* align 8 %8, i8 0, i64 25, i1 false)
  %9 = bitcast %union.anon.11* %4 to i8*
  call void @llvm.memset.p0i8.i64(i8* align 8 %9, i8 0, i64 25, i1 false)
  %10 = bitcast %union.anon.11* %5 to i8*
  call void @llvm.memset.p0i8.i64(i8* align 8 %10, i8 0, i64 25, i1 false)
  ret void
}

; Function Attrs: nounwind ssp uwtable
define hidden void @_ZN5blink5mojom24WebBluetoothLeScanFilterC2EN4absl8optionalINSt3__16vectorIN6device13BluetoothUUIDENS4_9allocatorIS7_EEEEEERKNS3_INS4_12basic_stringIcNS4_11char_traitsIcEENS8_IcEEEEEESJ_NS3_IN4base8flat_mapIN4mojo16InlinedStructPtrINS0_19WebBluetoothCompanyEEENS5_INSN_INS0_22WebBluetoothDataFilterEEENS8_ISR_EEEENS4_4lessIvEENS5_INS4_4pairISP_ST_EENS8_ISX_EEEEEEEE(%"class.blink::mojom::WebBluetoothLeScanFilter"*, %"class.absl::optional"* nocapture, %"class.absl::optional.7"* nocapture readonly dereferenceable(32), %"class.absl::optional.7"* nocapture readonly dereferenceable(32), %"class.absl::optional.12"* nocapture) unnamed_addr #0 align 2 {
  %6 = getelementptr inbounds %"class.blink::mojom::WebBluetoothLeScanFilter", %"class.blink::mojom::WebBluetoothLeScanFilter"* %0, i64 0, i32 0, i32 0, i32 0, i32 0, i32 0
  %7 = getelementptr inbounds %"class.absl::optional", %"class.absl::optional"* %1, i64 0, i32 0, i32 0, i32 0, i32 0
  tail call void @llvm.memset.p0i8.i64(i8* align 8 %6, i8 0, i64 32, i1 false) #13
  %8 = load i8, i8* %7, align 8, !range !2
  %9 = icmp eq i8 %8, 0
  br i1 %9, label %28, label %10

10:                                               ; preds = %5
  %11 = getelementptr inbounds %"class.absl::optional", %"class.absl::optional"* %1, i64 0, i32 0, i32 0, i32 0, i32 1, i32 0
  %12 = getelementptr inbounds %"class.blink::mojom::WebBluetoothLeScanFilter", %"class.blink::mojom::WebBluetoothLeScanFilter"* %0, i64 0, i32 0, i32 0, i32 0, i32 0, i32 1, i32 0
  %13 = bitcast %"class.std::__1::vector"* %12 to i8*
  tail call void @llvm.memset.p0i8.i64(i8* align 8 %13, i8 0, i64 24, i1 false) #13
  %14 = bitcast %"class.std::__1::vector"* %11 to i64*
  %15 = load i64, i64* %14, align 8
  %16 = bitcast %"class.std::__1::vector"* %12 to i64*
  store i64 %15, i64* %16, align 8
  %17 = getelementptr inbounds %"class.absl::optional", %"class.absl::optional"* %1, i64 0, i32 0, i32 0, i32 0, i32 1, i32 0, i32 0, i32 1
  %18 = bitcast %"class.device::BluetoothUUID"** %17 to i64*
  %19 = load i64, i64* %18, align 8
  %20 = getelementptr inbounds %"class.blink::mojom::WebBluetoothLeScanFilter", %"class.blink::mojom::WebBluetoothLeScanFilter"* %0, i64 0, i32 0, i32 0, i32 0, i32 0, i32 1, i32 0, i32 0, i32 1
  %21 = bitcast %"class.device::BluetoothUUID"** %20 to i64*
  store i64 %19, i64* %21, align 8
  %22 = getelementptr inbounds %"class.absl::optional", %"class.absl::optional"* %1, i64 0, i32 0, i32 0, i32 0, i32 1, i32 0, i32 0, i32 2, i32 0, i32 0
  %23 = bitcast %"class.device::BluetoothUUID"** %22 to i64*
  %24 = load i64, i64* %23, align 8
  %25 = getelementptr inbounds %"class.blink::mojom::WebBluetoothLeScanFilter", %"class.blink::mojom::WebBluetoothLeScanFilter"* %0, i64 0, i32 0, i32 0, i32 0, i32 0, i32 1, i32 0, i32 0, i32 2, i32 0, i32 0
  %26 = bitcast %"class.device::BluetoothUUID"** %25 to i64*
  store i64 %24, i64* %26, align 8
  %27 = bitcast %"class.std::__1::vector"* %11 to i8*
  tail call void @llvm.memset.p0i8.i64(i8* align 8 %27, i8 0, i64 24, i1 false) #13
  store i8 1, i8* %6, align 8
  br label %28

28:                                               ; preds = %5, %10
  %29 = getelementptr inbounds %"class.blink::mojom::WebBluetoothLeScanFilter", %"class.blink::mojom::WebBluetoothLeScanFilter"* %0, i64 0, i32 1, i32 0, i32 0, i32 0, i32 0
  %30 = getelementptr inbounds %"class.absl::optional.7", %"class.absl::optional.7"* %2, i64 0, i32 0, i32 0, i32 0, i32 0
  tail call void @llvm.memset.p0i8.i64(i8* align 8 %29, i8 0, i64 32, i1 false) #13
  %31 = load i8, i8* %30, align 8, !range !2
  %32 = icmp eq i8 %31, 0
  br i1 %32, label %49, label %33

33:                                               ; preds = %28
  %34 = getelementptr inbounds %"class.absl::optional.7", %"class.absl::optional.7"* %2, i64 0, i32 0, i32 0, i32 0, i32 1, i32 0
  %35 = getelementptr inbounds %"class.blink::mojom::WebBluetoothLeScanFilter", %"class.blink::mojom::WebBluetoothLeScanFilter"* %0, i64 0, i32 1, i32 0, i32 0, i32 0, i32 1, i32 0
  %36 = bitcast %"class.std::__1::basic_string"* %34 to %"struct.std::__1::basic_string<char, std::__1::char_traits<char>, std::__1::allocator<char> >::__short"*
  %37 = getelementptr inbounds %"struct.std::__1::basic_string<char, std::__1::char_traits<char>, std::__1::allocator<char> >::__short", %"struct.std::__1::basic_string<char, std::__1::char_traits<char>, std::__1::allocator<char> >::__short"* %36, i64 0, i32 1, i32 0
  %38 = load i8, i8* %37, align 1
  %39 = icmp slt i8 %38, 0
  br i1 %39, label %43, label %40

40:                                               ; preds = %33
  %41 = bitcast %"class.std::__1::basic_string"* %35 to i8*
  %42 = bitcast %"class.std::__1::basic_string"* %34 to i8*
  tail call void @llvm.memcpy.p0i8.p0i8.i64(i8* align 8 %41, i8* align 8 %42, i64 24, i1 false) #13
  br label %48

43:                                               ; preds = %33
  %44 = getelementptr inbounds %"class.std::__1::basic_string", %"class.std::__1::basic_string"* %34, i64 0, i32 0, i32 0, i32 0, i32 0, i32 0, i32 0
  %45 = load i8*, i8** %44, align 8
  %46 = getelementptr inbounds %"class.absl::optional.7", %"class.absl::optional.7"* %2, i64 0, i32 0, i32 0, i32 0, i32 1, i32 0, i32 0, i32 0, i32 0, i32 0, i32 0, i32 1
  %47 = load i64, i64* %46, align 8
  tail call void @_ZNSt3__112basic_stringIcNS_11char_traitsIcEENS_9allocatorIcEEE25__init_copy_ctor_externalEPKcm(%"class.std::__1::basic_string"* %35, i8* %45, i64 %47) #13
  br label %48

48:                                               ; preds = %43, %40
  store i8 1, i8* %29, align 8
  br label %49

49:                                               ; preds = %28, %48
  %50 = getelementptr inbounds %"class.blink::mojom::WebBluetoothLeScanFilter", %"class.blink::mojom::WebBluetoothLeScanFilter"* %0, i64 0, i32 2, i32 0, i32 0, i32 0, i32 0
  %51 = getelementptr inbounds %"class.absl::optional.7", %"class.absl::optional.7"* %3, i64 0, i32 0, i32 0, i32 0, i32 0
  tail call void @llvm.memset.p0i8.i64(i8* align 8 %50, i8 0, i64 32, i1 false) #13
  %52 = load i8, i8* %51, align 8, !range !2
  %53 = icmp eq i8 %52, 0
  br i1 %53, label %70, label %54

54:                                               ; preds = %49
  %55 = getelementptr inbounds %"class.absl::optional.7", %"class.absl::optional.7"* %3, i64 0, i32 0, i32 0, i32 0, i32 1, i32 0
  %56 = getelementptr inbounds %"class.blink::mojom::WebBluetoothLeScanFilter", %"class.blink::mojom::WebBluetoothLeScanFilter"* %0, i64 0, i32 2, i32 0, i32 0, i32 0, i32 1, i32 0
  %57 = bitcast %"class.std::__1::basic_string"* %55 to %"struct.std::__1::basic_string<char, std::__1::char_traits<char>, std::__1::allocator<char> >::__short"*
  %58 = getelementptr inbounds %"struct.std::__1::basic_string<char, std::__1::char_traits<char>, std::__1::allocator<char> >::__short", %"struct.std::__1::basic_string<char, std::__1::char_traits<char>, std::__1::allocator<char> >::__short"* %57, i64 0, i32 1, i32 0
  %59 = load i8, i8* %58, align 1
  %60 = icmp slt i8 %59, 0
  br i1 %60, label %64, label %61

61:                                               ; preds = %54
  %62 = bitcast %"class.std::__1::basic_string"* %56 to i8*
  %63 = bitcast %"class.std::__1::basic_string"* %55 to i8*
  tail call void @llvm.memcpy.p0i8.p0i8.i64(i8* align 8 %62, i8* align 8 %63, i64 24, i1 false) #13
  br label %69

64:                                               ; preds = %54
  %65 = getelementptr inbounds %"class.std::__1::basic_string", %"class.std::__1::basic_string"* %55, i64 0, i32 0, i32 0, i32 0, i32 0, i32 0, i32 0
  %66 = load i8*, i8** %65, align 8
  %67 = getelementptr inbounds %"class.absl::optional.7", %"class.absl::optional.7"* %3, i64 0, i32 0, i32 0, i32 0, i32 1, i32 0, i32 0, i32 0, i32 0, i32 0, i32 0, i32 1
  %68 = load i64, i64* %67, align 8
  tail call void @_ZNSt3__112basic_stringIcNS_11char_traitsIcEENS_9allocatorIcEEE25__init_copy_ctor_externalEPKcm(%"class.std::__1::basic_string"* %56, i8* %66, i64 %68) #13
  br label %69

69:                                               ; preds = %64, %61
  store i8 1, i8* %50, align 8
  br label %70

70:                                               ; preds = %49, %69
  %71 = getelementptr inbounds %"class.blink::mojom::WebBluetoothLeScanFilter", %"class.blink::mojom::WebBluetoothLeScanFilter"* %0, i64 0, i32 3, i32 0, i32 0, i32 0, i32 0
  %72 = getelementptr inbounds %"class.absl::optional.12", %"class.absl::optional.12"* %4, i64 0, i32 0, i32 0, i32 0, i32 0
  tail call void @llvm.memset.p0i8.i64(i8* align 8 %71, i8 0, i64 32, i1 false) #13
  %73 = load i8, i8* %72, align 8, !range !2
  %74 = icmp eq i8 %73, 0
  br i1 %74, label %93, label %75

75:                                               ; preds = %70
  %76 = getelementptr inbounds %"class.absl::optional.12", %"class.absl::optional.12"* %4, i64 0, i32 0, i32 0, i32 0, i32 1, i32 0
  %77 = getelementptr inbounds %"class.blink::mojom::WebBluetoothLeScanFilter", %"class.blink::mojom::WebBluetoothLeScanFilter"* %0, i64 0, i32 3, i32 0, i32 0, i32 0, i32 1, i32 0
  %78 = bitcast %"class.base::flat_map"* %77 to i8*
  tail call void @llvm.memset.p0i8.i64(i8* align 8 %78, i8 0, i64 24, i1 false) #13
  %79 = bitcast %"class.base::flat_map"* %76 to i64*
  %80 = load i64, i64* %79, align 8
  %81 = bitcast %"class.base::flat_map"* %77 to i64*
  store i64 %80, i64* %81, align 8
  %82 = getelementptr inbounds %"class.absl::optional.12", %"class.absl::optional.12"* %4, i64 0, i32 0, i32 0, i32 0, i32 1, i32 0, i32 0, i32 0, i32 0, i32 1
  %83 = bitcast %"struct.std::__1::pair"** %82 to i64*
  %84 = load i64, i64* %83, align 8
  %85 = getelementptr inbounds %"class.blink::mojom::WebBluetoothLeScanFilter", %"class.blink::mojom::WebBluetoothLeScanFilter"* %0, i64 0, i32 3, i32 0, i32 0, i32 0, i32 1, i32 0, i32 0, i32 0, i32 0, i32 1
  %86 = bitcast %"struct.std::__1::pair"** %85 to i64*
  store i64 %84, i64* %86, align 8
  %87 = getelementptr inbounds %"class.absl::optional.12", %"class.absl::optional.12"* %4, i64 0, i32 0, i32 0, i32 0, i32 1, i32 0, i32 0, i32 0, i32 0, i32 2, i32 0, i32 0
  %88 = bitcast %"struct.std::__1::pair"** %87 to i64*
  %89 = load i64, i64* %88, align 8
  %90 = getelementptr inbounds %"class.blink::mojom::WebBluetoothLeScanFilter", %"class.blink::mojom::WebBluetoothLeScanFilter"* %0, i64 0, i32 3, i32 0, i32 0, i32 0, i32 1, i32 0, i32 0, i32 0, i32 0, i32 2, i32 0, i32 0
  %91 = bitcast %"struct.std::__1::pair"** %90 to i64*
  store i64 %89, i64* %91, align 8
  %92 = bitcast %"class.base::flat_map"* %76 to i8*
  tail call void @llvm.memset.p0i8.i64(i8* align 8 %92, i8 0, i64 24, i1 false) #13
  store i8 1, i8* %71, align 8
  br label %93

93:                                               ; preds = %70, %75
  ret void
}

; Function Attrs: nounwind ssp uwtable
define hidden void @_ZN5blink5mojom24WebBluetoothLeScanFilterD2Ev(%"class.blink::mojom::WebBluetoothLeScanFilter"* nocapture) unnamed_addr #0 align 2 {
  %2 = getelementptr inbounds %"class.blink::mojom::WebBluetoothLeScanFilter", %"class.blink::mojom::WebBluetoothLeScanFilter"* %0, i64 0, i32 3, i32 0, i32 0, i32 0, i32 0
  %3 = load i8, i8* %2, align 8, !range !2
  %4 = icmp eq i8 %3, 0
  br i1 %4, label %34, label %5

5:                                                ; preds = %1
  %6 = getelementptr inbounds %"class.blink::mojom::WebBluetoothLeScanFilter", %"class.blink::mojom::WebBluetoothLeScanFilter"* %0, i64 0, i32 3, i32 0, i32 0, i32 0, i32 1, i32 0, i32 0
  %7 = getelementptr inbounds %"class.base::internal::flat_tree", %"class.base::internal::flat_tree"* %6, i64 0, i32 0, i32 0, i32 0
  %8 = load %"struct.std::__1::pair"*, %"struct.std::__1::pair"** %7, align 8
  %9 = icmp eq %"struct.std::__1::pair"* %8, null
  br i1 %9, label %33, label %10

10:                                               ; preds = %5
  %11 = bitcast %"struct.std::__1::pair"* %8 to i8*
  %12 = getelementptr inbounds %"class.blink::mojom::WebBluetoothLeScanFilter", %"class.blink::mojom::WebBluetoothLeScanFilter"* %0, i64 0, i32 3, i32 0, i32 0, i32 0, i32 1, i32 0, i32 0, i32 0, i32 0, i32 1
  %13 = load %"struct.std::__1::pair"*, %"struct.std::__1::pair"** %12, align 8
  %14 = icmp eq %"struct.std::__1::pair"* %13, %8
  br i1 %14, label %31, label %15

15:                                               ; preds = %10, %26
  %16 = phi %"struct.std::__1::pair"* [ %17, %26 ], [ %13, %10 ]
  %17 = getelementptr inbounds %"struct.std::__1::pair", %"struct.std::__1::pair"* %16, i64 -1
  %18 = getelementptr inbounds %"struct.std::__1::pair", %"struct.std::__1::pair"* %16, i64 -1, i32 1, i32 0, i32 0
  %19 = load %"class.mojo::InlinedStructPtr.21"*, %"class.mojo::InlinedStructPtr.21"** %18, align 8
  %20 = icmp eq %"class.mojo::InlinedStructPtr.21"* %19, null
  br i1 %20, label %26, label %21

21:                                               ; preds = %15
  %22 = ptrtoint %"class.mojo::InlinedStructPtr.21"* %19 to i64
  %23 = getelementptr inbounds %"struct.std::__1::pair", %"struct.std::__1::pair"* %16, i64 -1, i32 1, i32 0, i32 1
  %24 = bitcast %"class.mojo::InlinedStructPtr.21"** %23 to i64*
  store i64 %22, i64* %24, align 8
  %25 = getelementptr inbounds %"class.mojo::InlinedStructPtr.21", %"class.mojo::InlinedStructPtr.21"* %19, i64 0, i32 0, i32 0
  tail call void @_ZdlPv(i8* %25) #14
  br label %26

26:                                               ; preds = %21, %15
  %27 = icmp eq %"struct.std::__1::pair"* %17, %8
  br i1 %27, label %28, label %15

28:                                               ; preds = %26
  %29 = bitcast %"class.base::internal::flat_tree"* %6 to i8**
  %30 = load i8*, i8** %29, align 8
  br label %31

31:                                               ; preds = %28, %10
  %32 = phi i8* [ %30, %28 ], [ %11, %10 ]
  store %"struct.std::__1::pair"* %8, %"struct.std::__1::pair"** %12, align 8
  tail call void @_ZdlPv(i8* %32) #14
  br label %33

33:                                               ; preds = %31, %5
  store i8 0, i8* %2, align 8
  br label %34

34:                                               ; preds = %1, %33
  %35 = getelementptr inbounds %"class.blink::mojom::WebBluetoothLeScanFilter", %"class.blink::mojom::WebBluetoothLeScanFilter"* %0, i64 0, i32 2, i32 0, i32 0, i32 0, i32 0
  %36 = load i8, i8* %35, align 8, !range !2
  %37 = icmp eq i8 %36, 0
  br i1 %37, label %48, label %38

38:                                               ; preds = %34
  %39 = getelementptr inbounds %"class.blink::mojom::WebBluetoothLeScanFilter", %"class.blink::mojom::WebBluetoothLeScanFilter"* %0, i64 0, i32 2, i32 0, i32 0, i32 0, i32 1, i32 0
  %40 = bitcast %"class.std::__1::basic_string"* %39 to %"struct.std::__1::basic_string<char, std::__1::char_traits<char>, std::__1::allocator<char> >::__short"*
  %41 = getelementptr inbounds %"struct.std::__1::basic_string<char, std::__1::char_traits<char>, std::__1::allocator<char> >::__short", %"struct.std::__1::basic_string<char, std::__1::char_traits<char>, std::__1::allocator<char> >::__short"* %40, i64 0, i32 1, i32 0
  %42 = load i8, i8* %41, align 1
  %43 = icmp slt i8 %42, 0
  br i1 %43, label %44, label %47

44:                                               ; preds = %38
  %45 = getelementptr inbounds %"class.std::__1::basic_string", %"class.std::__1::basic_string"* %39, i64 0, i32 0, i32 0, i32 0, i32 0, i32 0, i32 0
  %46 = load i8*, i8** %45, align 8
  tail call void @_ZdlPv(i8* %46) #14
  br label %47

47:                                               ; preds = %44, %38
  store i8 0, i8* %35, align 8
  br label %48

48:                                               ; preds = %34, %47
  %49 = getelementptr inbounds %"class.blink::mojom::WebBluetoothLeScanFilter", %"class.blink::mojom::WebBluetoothLeScanFilter"* %0, i64 0, i32 1, i32 0, i32 0, i32 0, i32 0
  %50 = load i8, i8* %49, align 8, !range !2
  %51 = icmp eq i8 %50, 0
  br i1 %51, label %62, label %52

52:                                               ; preds = %48
  %53 = getelementptr inbounds %"class.blink::mojom::WebBluetoothLeScanFilter", %"class.blink::mojom::WebBluetoothLeScanFilter"* %0, i64 0, i32 1, i32 0, i32 0, i32 0, i32 1, i32 0
  %54 = bitcast %"class.std::__1::basic_string"* %53 to %"struct.std::__1::basic_string<char, std::__1::char_traits<char>, std::__1::allocator<char> >::__short"*
  %55 = getelementptr inbounds %"struct.std::__1::basic_string<char, std::__1::char_traits<char>, std::__1::allocator<char> >::__short", %"struct.std::__1::basic_string<char, std::__1::char_traits<char>, std::__1::allocator<char> >::__short"* %54, i64 0, i32 1, i32 0
  %56 = load i8, i8* %55, align 1
  %57 = icmp slt i8 %56, 0
  br i1 %57, label %58, label %61

58:                                               ; preds = %52
  %59 = getelementptr inbounds %"class.std::__1::basic_string", %"class.std::__1::basic_string"* %53, i64 0, i32 0, i32 0, i32 0, i32 0, i32 0, i32 0
  %60 = load i8*, i8** %59, align 8
  tail call void @_ZdlPv(i8* %60) #14
  br label %61

61:                                               ; preds = %58, %52
  store i8 0, i8* %49, align 8
  br label %62

62:                                               ; preds = %48, %61
  %63 = getelementptr inbounds %"class.blink::mojom::WebBluetoothLeScanFilter", %"class.blink::mojom::WebBluetoothLeScanFilter"* %0, i64 0, i32 0, i32 0, i32 0, i32 0, i32 0
  %64 = load i8, i8* %63, align 8, !range !2
  %65 = icmp eq i8 %64, 0
  br i1 %65, label %86, label %66

66:                                               ; preds = %62
  %67 = getelementptr inbounds %"class.blink::mojom::WebBluetoothLeScanFilter", %"class.blink::mojom::WebBluetoothLeScanFilter"* %0, i64 0, i32 0, i32 0, i32 0, i32 0, i32 1, i32 0
  %68 = getelementptr inbounds %"class.std::__1::vector", %"class.std::__1::vector"* %67, i64 0, i32 0, i32 0
  %69 = load %"class.device::BluetoothUUID"*, %"class.device::BluetoothUUID"** %68, align 8
  %70 = icmp eq %"class.device::BluetoothUUID"* %69, null
  br i1 %70, label %85, label %71

71:                                               ; preds = %66
  %72 = bitcast %"class.device::BluetoothUUID"* %69 to i8*
  %73 = getelementptr inbounds %"class.blink::mojom::WebBluetoothLeScanFilter", %"class.blink::mojom::WebBluetoothLeScanFilter"* %0, i64 0, i32 0, i32 0, i32 0, i32 0, i32 1, i32 0, i32 0, i32 1
  %74 = load %"class.device::BluetoothUUID"*, %"class.device::BluetoothUUID"** %73, align 8
  %75 = icmp eq %"class.device::BluetoothUUID"* %74, %69
  br i1 %75, label %83, label %76

76:                                               ; preds = %71, %76
  %77 = phi %"class.device::BluetoothUUID"* [ %78, %76 ], [ %74, %71 ]
  %78 = getelementptr inbounds %"class.device::BluetoothUUID", %"class.device::BluetoothUUID"* %77, i64 -1
  tail call void @_ZN6device13BluetoothUUIDD1Ev(%"class.device::BluetoothUUID"* %78) #13
  %79 = icmp eq %"class.device::BluetoothUUID"* %78, %69
  br i1 %79, label %80, label %76

80:                                               ; preds = %76
  %81 = bitcast %"class.std::__1::vector"* %67 to i8**
  %82 = load i8*, i8** %81, align 8
  br label %83

83:                                               ; preds = %80, %71
  %84 = phi i8* [ %82, %80 ], [ %72, %71 ]
  store %"class.device::BluetoothUUID"* %69, %"class.device::BluetoothUUID"** %73, align 8
  tail call void @_ZdlPv(i8* %84) #14
  br label %85

85:                                               ; preds = %83, %66
  store i8 0, i8* %63, align 8
  br label %86

86:                                               ; preds = %62, %85
  ret void
}

; Function Attrs: nounwind ssp uwtable
define hidden void @_ZNK5blink5mojom24WebBluetoothLeScanFilter14WriteIntoTraceEN8perfetto11TracedValueE(%"class.blink::mojom::WebBluetoothLeScanFilter"*, %"class.perfetto::TracedValue"*) local_unnamed_addr #0 align 2 {
  %3 = alloca %"class.perfetto::TracedValue", align 8
  %4 = alloca %"class.perfetto::TracedValue", align 8
  %5 = alloca %"class.perfetto::TracedValue", align 8
  %6 = alloca %"class.perfetto::TracedValue", align 8
  %7 = alloca %"class.perfetto::TracedDictionary", align 8
  %8 = alloca %"class.perfetto::TracedValue", align 8
  %9 = alloca %"class.std::__1::basic_string", align 8
  %10 = alloca %"class.perfetto::TracedValue", align 8
  %11 = alloca %"class.perfetto::TracedValue", align 8
  %12 = alloca %"class.perfetto::TracedValue", align 8
  %13 = alloca %"class.std::__1::basic_string", align 8
  %14 = bitcast %"class.perfetto::TracedDictionary"* %7 to i8*
  call void @llvm.lifetime.start.p0i8(i64 16, i8* nonnull %14) #13
  %15 = bitcast %"class.perfetto::TracedDictionary"* %7 to i8*
  call void @llvm.memset.p0i8.i64(i8* nonnull align 8 %15, i8 -86, i64 16, i1 false)
  call void @_ZNO8perfetto11TracedValue15WriteDictionaryEv(%"class.perfetto::TracedDictionary"* nonnull sret %7, %"class.perfetto::TracedValue"* %1) #13
  call void @_ZN8perfetto16TracedDictionary7AddItemENS_12StaticStringE(%"class.perfetto::TracedValue"* nonnull sret %8, %"class.perfetto::TracedDictionary"* nonnull %7, i8* getelementptr inbounds ([9 x i8], [9 x i8]* @.str, i64 0, i64 0)) #13
  %16 = bitcast %"class.std::__1::basic_string"* %9 to i8*
  call void @llvm.lifetime.start.p0i8(i64 24, i8* nonnull %16) #13
  %17 = bitcast %"class.std::__1::basic_string"* %9 to %"struct.std::__1::basic_string<char, std::__1::char_traits<char>, std::__1::allocator<char> >::__short"*
  %18 = getelementptr inbounds %"struct.std::__1::basic_string<char, std::__1::char_traits<char>, std::__1::allocator<char> >::__short", %"struct.std::__1::basic_string<char, std::__1::char_traits<char>, std::__1::allocator<char> >::__short"* %17, i64 0, i32 1, i32 0
  store i8 7, i8* %18, align 1
  call void @llvm.memcpy.p0i8.p0i8.i64(i8* nonnull align 8 %16, i8* align 1 getelementptr inbounds ([8 x i8], [8 x i8]* @.str.1, i64 0, i64 0), i64 7, i1 false) #13
  %19 = getelementptr inbounds i8, i8* %16, i64 7
  store i8 0, i8* %19, align 1
  call void @_ZNO8perfetto11TracedValue11WriteStringERKNSt3__112basic_stringIcNS1_11char_traitsIcEENS1_9allocatorIcEEEE(%"class.perfetto::TracedValue"* nonnull %8, %"class.std::__1::basic_string"* nonnull dereferenceable(24) %9) #13
  %20 = load i8, i8* %18, align 1
  %21 = icmp slt i8 %20, 0
  br i1 %21, label %22, label %25

22:                                               ; preds = %2
  %23 = getelementptr inbounds %"class.std::__1::basic_string", %"class.std::__1::basic_string"* %9, i64 0, i32 0, i32 0, i32 0, i32 0, i32 0, i32 0
  %24 = load i8*, i8** %23, align 8
  call void @_ZdlPv(i8* %24) #14
  br label %25

25:                                               ; preds = %2, %22
  call void @llvm.lifetime.end.p0i8(i64 24, i8* nonnull %16) #13
  call void @_ZN8perfetto16TracedDictionary7AddItemENS_12StaticStringE(%"class.perfetto::TracedValue"* nonnull sret %10, %"class.perfetto::TracedDictionary"* nonnull %7, i8* getelementptr inbounds ([5 x i8], [5 x i8]* @.str.2, i64 0, i64 0)) #13
  %26 = bitcast %"class.perfetto::TracedValue"* %10 to i8*
  %27 = bitcast %"class.perfetto::TracedValue"* %6 to i8*
  call void @llvm.lifetime.start.p0i8(i64 16, i8* nonnull %27) #13
  call void @llvm.memcpy.p0i8.p0i8.i64(i8* nonnull align 8 %27, i8* nonnull align 8 %26, i64 16, i1 false) #13
  %28 = getelementptr inbounds %"class.blink::mojom::WebBluetoothLeScanFilter", %"class.blink::mojom::WebBluetoothLeScanFilter"* %0, i64 0, i32 1, i32 0, i32 0, i32 0, i32 0
  %29 = load i8, i8* %28, align 8, !range !2
  %30 = icmp eq i8 %29, 0
  br i1 %30, label %31, label %32

31:                                               ; preds = %25
  call void @_ZNO8perfetto11TracedValue12WritePointerEPKv(%"class.perfetto::TracedValue"* nonnull %6, i8* null) #13
  br label %35

32:                                               ; preds = %25
  %33 = getelementptr inbounds %"class.blink::mojom::WebBluetoothLeScanFilter", %"class.blink::mojom::WebBluetoothLeScanFilter"* %0, i64 0, i32 1, i32 0, i32 0, i32 0, i32 1, i32 0
  %34 = bitcast %"class.perfetto::TracedValue"* %5 to i8*
  call void @llvm.lifetime.start.p0i8(i64 16, i8* nonnull %34) #13
  call void @llvm.memcpy.p0i8.p0i8.i64(i8* nonnull align 8 %34, i8* nonnull align 8 %27, i64 16, i1 false) #13
  call void @_ZNO8perfetto11TracedValue11WriteStringERKNSt3__112basic_stringIcNS1_11char_traitsIcEENS1_9allocatorIcEEEE(%"class.perfetto::TracedValue"* nonnull %5, %"class.std::__1::basic_string"* dereferenceable(24) %33) #13
  call void @llvm.lifetime.end.p0i8(i64 16, i8* nonnull %34) #13
  br label %35

35:                                               ; preds = %32, %31
  call void @llvm.lifetime.end.p0i8(i64 16, i8* nonnull %27) #13
  call void @_ZN8perfetto16TracedDictionary7AddItemENS_12StaticStringE(%"class.perfetto::TracedValue"* nonnull sret %11, %"class.perfetto::TracedDictionary"* nonnull %7, i8* getelementptr inbounds ([12 x i8], [12 x i8]* @.str.3, i64 0, i64 0)) #13
  %36 = bitcast %"class.perfetto::TracedValue"* %11 to i8*
  %37 = bitcast %"class.perfetto::TracedValue"* %4 to i8*
  call void @llvm.lifetime.start.p0i8(i64 16, i8* nonnull %37) #13
  call void @llvm.memcpy.p0i8.p0i8.i64(i8* nonnull align 8 %37, i8* nonnull align 8 %36, i64 16, i1 false) #13
  %38 = getelementptr inbounds %"class.blink::mojom::WebBluetoothLeScanFilter", %"class.blink::mojom::WebBluetoothLeScanFilter"* %0, i64 0, i32 2, i32 0, i32 0, i32 0, i32 0
  %39 = load i8, i8* %38, align 8, !range !2
  %40 = icmp eq i8 %39, 0
  br i1 %40, label %41, label %42

41:                                               ; preds = %35
  call void @_ZNO8perfetto11TracedValue12WritePointerEPKv(%"class.perfetto::TracedValue"* nonnull %4, i8* null) #13
  br label %45

42:                                               ; preds = %35
  %43 = getelementptr inbounds %"class.blink::mojom::WebBluetoothLeScanFilter", %"class.blink::mojom::WebBluetoothLeScanFilter"* %0, i64 0, i32 2, i32 0, i32 0, i32 0, i32 1, i32 0
  %44 = bitcast %"class.perfetto::TracedValue"* %3 to i8*
  call void @llvm.lifetime.start.p0i8(i64 16, i8* nonnull %44) #13
  call void @llvm.memcpy.p0i8.p0i8.i64(i8* nonnull align 8 %44, i8* nonnull align 8 %37, i64 16, i1 false) #13
  call void @_ZNO8perfetto11TracedValue11WriteStringERKNSt3__112basic_stringIcNS1_11char_traitsIcEENS1_9allocatorIcEEEE(%"class.perfetto::TracedValue"* nonnull %3, %"class.std::__1::basic_string"* dereferenceable(24) %43) #13
  call void @llvm.lifetime.end.p0i8(i64 16, i8* nonnull %44) #13
  br label %45

45:                                               ; preds = %42, %41
  call void @llvm.lifetime.end.p0i8(i64 16, i8* nonnull %37) #13
  call void @_ZN8perfetto16TracedDictionary7AddItemENS_12StaticStringE(%"class.perfetto::TracedValue"* nonnull sret %12, %"class.perfetto::TracedDictionary"* nonnull %7, i8* getelementptr inbounds ([18 x i8], [18 x i8]* @.str.4, i64 0, i64 0)) #13
  %46 = bitcast %"class.std::__1::basic_string"* %13 to i8*
  call void @llvm.lifetime.start.p0i8(i64 24, i8* nonnull %46) #13
  %47 = bitcast %"class.std::__1::basic_string"* %13 to %"struct.std::__1::basic_string<char, std::__1::char_traits<char>, std::__1::allocator<char> >::__short"*
  %48 = getelementptr inbounds %"struct.std::__1::basic_string<char, std::__1::char_traits<char>, std::__1::allocator<char> >::__short", %"struct.std::__1::basic_string<char, std::__1::char_traits<char>, std::__1::allocator<char> >::__short"* %47, i64 0, i32 1, i32 0
  store i8 7, i8* %48, align 1
  call void @llvm.memcpy.p0i8.p0i8.i64(i8* nonnull align 8 %46, i8* align 1 getelementptr inbounds ([8 x i8], [8 x i8]* @.str.1, i64 0, i64 0), i64 7, i1 false) #13
  %49 = getelementptr inbounds i8, i8* %46, i64 7
  store i8 0, i8* %49, align 1
  call void @_ZNO8perfetto11TracedValue11WriteStringERKNSt3__112basic_stringIcNS1_11char_traitsIcEENS1_9allocatorIcEEEE(%"class.perfetto::TracedValue"* nonnull %12, %"class.std::__1::basic_string"* nonnull dereferenceable(24) %13) #13
  %50 = load i8, i8* %48, align 1
  %51 = icmp slt i8 %50, 0
  br i1 %51, label %52, label %55

52:                                               ; preds = %45
  %53 = getelementptr inbounds %"class.std::__1::basic_string", %"class.std::__1::basic_string"* %13, i64 0, i32 0, i32 0, i32 0, i32 0, i32 0, i32 0
  %54 = load i8*, i8** %53, align 8
  call void @_ZdlPv(i8* %54) #14
  br label %55

55:                                               ; preds = %45, %52
  call void @llvm.lifetime.end.p0i8(i64 24, i8* nonnull %46) #13
  call void @llvm.lifetime.end.p0i8(i64 16, i8* nonnull %14) #13
  ret void
}

; Function Attrs: argmemonly nounwind
declare void @llvm.lifetime.start.p0i8(i64 immarg, i8* nocapture) #1

declare void @_ZNO8perfetto11TracedValue15WriteDictionaryEv(%"class.perfetto::TracedDictionary"* sret, %"class.perfetto::TracedValue"*) local_unnamed_addr #2

declare void @_ZN8perfetto16TracedDictionary7AddItemENS_12StaticStringE(%"class.perfetto::TracedValue"* sret, %"class.perfetto::TracedDictionary"*, i8*) local_unnamed_addr #2

; Function Attrs: argmemonly nounwind
declare void @llvm.lifetime.end.p0i8(i64 immarg, i8* nocapture) #1

; Function Attrs: nounwind ssp uwtable
define hidden zeroext i1 @_ZN5blink5mojom24WebBluetoothLeScanFilter8ValidateEPKvPN4mojo8internal17ValidationContextE(i8*, %"class.mojo::internal::ValidationContext"*) local_unnamed_addr #0 align 2 {
  %3 = tail call zeroext i1 @_ZN5blink5mojom8internal29WebBluetoothLeScanFilter_Data8ValidateEPKvPN4mojo8internal17ValidationContextE(i8* %0, %"class.mojo::internal::ValidationContext"* %1) #13
  ret i1 %3
}

declare zeroext i1 @_ZN5blink5mojom8internal29WebBluetoothLeScanFilter_Data8ValidateEPKvPN4mojo8internal17ValidationContextE(i8*, %"class.mojo::internal::ValidationContext"*) local_unnamed_addr #2

; Function Attrs: nofree norecurse nounwind ssp uwtable writeonly
define hidden void @_ZN5blink5mojom19WebBluetoothCompanyC2Ev(%"class.blink::mojom::WebBluetoothCompany"* nocapture) unnamed_addr #3 align 2 {
  %2 = getelementptr inbounds %"class.blink::mojom::WebBluetoothCompany", %"class.blink::mojom::WebBluetoothCompany"* %0, i64 0, i32 0
  store i16 0, i16* %2, align 2
  ret void
}

; Function Attrs: nofree norecurse nounwind ssp uwtable writeonly
define hidden void @_ZN5blink5mojom19WebBluetoothCompanyC2Et(%"class.blink::mojom::WebBluetoothCompany"* nocapture, i16 zeroext) unnamed_addr #3 align 2 {
  %3 = getelementptr inbounds %"class.blink::mojom::WebBluetoothCompany", %"class.blink::mojom::WebBluetoothCompany"* %0, i64 0, i32 0
  store i16 %1, i16* %3, align 2
  ret void
}

; Function Attrs: norecurse nounwind readnone ssp uwtable
define hidden void @_ZN5blink5mojom19WebBluetoothCompanyD2Ev(%"class.blink::mojom::WebBluetoothCompany"* nocapture) unnamed_addr #4 align 2 {
  ret void
}

; Function Attrs: norecurse nounwind readonly ssp uwtable
define hidden i64 @_ZNK5blink5mojom19WebBluetoothCompany4HashEm(%"class.blink::mojom::WebBluetoothCompany"* nocapture readonly, i64) local_unnamed_addr #5 align 2 {
  %3 = getelementptr inbounds %"class.blink::mojom::WebBluetoothCompany", %"class.blink::mojom::WebBluetoothCompany"* %0, i64 0, i32 0
  %4 = load i16, i16* %3, align 2
  %5 = zext i16 %4 to i64
  %6 = shl i64 %1, 6
  %7 = lshr i64 %1, 2
  %8 = add i64 %7, %6
  %9 = add i64 %8, %5
  %10 = xor i64 %9, %1
  ret i64 %10
}

; Function Attrs: nounwind ssp uwtable
define hidden void @_ZNK5blink5mojom19WebBluetoothCompany14WriteIntoTraceEN8perfetto11TracedValueE(%"class.blink::mojom::WebBluetoothCompany"* nocapture readonly, %"class.perfetto::TracedValue"*) local_unnamed_addr #0 align 2 {
  %3 = alloca %"class.perfetto::TracedValue", align 8
  %4 = alloca %"class.perfetto::TracedDictionary", align 8
  %5 = alloca %"class.perfetto::TracedValue", align 8
  %6 = bitcast %"class.perfetto::TracedDictionary"* %4 to i8*
  call void @llvm.lifetime.start.p0i8(i64 16, i8* nonnull %6) #13
  %7 = bitcast %"class.perfetto::TracedDictionary"* %4 to i8*
  call void @llvm.memset.p0i8.i64(i8* nonnull align 8 %7, i8 -86, i64 16, i1 false)
  call void @_ZNO8perfetto11TracedValue15WriteDictionaryEv(%"class.perfetto::TracedDictionary"* nonnull sret %4, %"class.perfetto::TracedValue"* %1) #13
  call void @_ZN8perfetto16TracedDictionary7AddItemENS_12StaticStringE(%"class.perfetto::TracedValue"* nonnull sret %5, %"class.perfetto::TracedDictionary"* nonnull %4, i8* getelementptr inbounds ([3 x i8], [3 x i8]* @.str.5, i64 0, i64 0)) #13
  %8 = getelementptr inbounds %"class.blink::mojom::WebBluetoothCompany", %"class.blink::mojom::WebBluetoothCompany"* %0, i64 0, i32 0
  %9 = bitcast %"class.perfetto::TracedValue"* %5 to i8*
  %10 = bitcast %"class.perfetto::TracedValue"* %3 to i8*
  call void @llvm.lifetime.start.p0i8(i64 16, i8* nonnull %10) #13
  call void @llvm.memcpy.p0i8.p0i8.i64(i8* nonnull align 8 %10, i8* nonnull align 8 %9, i64 16, i1 false) #13
  %11 = load i16, i16* %8, align 2
  %12 = zext i16 %11 to i64
  call void @_ZNO8perfetto11TracedValue11WriteUInt64Em(%"class.perfetto::TracedValue"* nonnull %3, i64 %12) #13
  call void @llvm.lifetime.end.p0i8(i64 16, i8* nonnull %10) #13
  call void @llvm.lifetime.end.p0i8(i64 16, i8* nonnull %6) #13
  ret void
}

; Function Attrs: nounwind ssp uwtable
define hidden zeroext i1 @_ZN5blink5mojom19WebBluetoothCompany8ValidateEPKvPN4mojo8internal17ValidationContextE(i8*, %"class.mojo::internal::ValidationContext"*) local_unnamed_addr #0 align 2 {
  %3 = tail call zeroext i1 @_ZN5blink5mojom8internal24WebBluetoothCompany_Data8ValidateEPKvPN4mojo8internal17ValidationContextE(i8* %0, %"class.mojo::internal::ValidationContext"* %1) #13
  ret i1 %3
}

declare zeroext i1 @_ZN5blink5mojom8internal24WebBluetoothCompany_Data8ValidateEPKvPN4mojo8internal17ValidationContextE(i8*, %"class.mojo::internal::ValidationContext"*) local_unnamed_addr #2

; Function Attrs: nofree norecurse nounwind ssp uwtable writeonly
define hidden void @_ZN5blink5mojom22WebBluetoothDataFilterC2Ev(%"class.blink::mojom::WebBluetoothDataFilter"* nocapture) unnamed_addr #3 align 2 {
  %2 = getelementptr inbounds %"class.blink::mojom::WebBluetoothDataFilter", %"class.blink::mojom::WebBluetoothDataFilter"* %0, i64 0, i32 0
  store i8 0, i8* %2, align 1
  %3 = getelementptr inbounds %"class.blink::mojom::WebBluetoothDataFilter", %"class.blink::mojom::WebBluetoothDataFilter"* %0, i64 0, i32 1
  store i8 0, i8* %3, align 1
  ret void
}

; Function Attrs: nofree norecurse nounwind ssp uwtable writeonly
define hidden void @_ZN5blink5mojom22WebBluetoothDataFilterC2Ehh(%"class.blink::mojom::WebBluetoothDataFilter"* nocapture, i8 zeroext, i8 zeroext) unnamed_addr #3 align 2 {
  %4 = getelementptr inbounds %"class.blink::mojom::WebBluetoothDataFilter", %"class.blink::mojom::WebBluetoothDataFilter"* %0, i64 0, i32 0
  store i8 %1, i8* %4, align 1
  %5 = getelementptr inbounds %"class.blink::mojom::WebBluetoothDataFilter", %"class.blink::mojom::WebBluetoothDataFilter"* %0, i64 0, i32 1
  store i8 %2, i8* %5, align 1
  ret void
}

; Function Attrs: norecurse nounwind readnone ssp uwtable
define hidden void @_ZN5blink5mojom22WebBluetoothDataFilterD2Ev(%"class.blink::mojom::WebBluetoothDataFilter"* nocapture) unnamed_addr #4 align 2 {
  ret void
}

; Function Attrs: norecurse nounwind readonly ssp uwtable
define hidden i64 @_ZNK5blink5mojom22WebBluetoothDataFilter4HashEm(%"class.blink::mojom::WebBluetoothDataFilter"* nocapture readonly, i64) local_unnamed_addr #5 align 2 {
  %3 = getelementptr inbounds %"class.blink::mojom::WebBluetoothDataFilter", %"class.blink::mojom::WebBluetoothDataFilter"* %0, i64 0, i32 0
  %4 = load i8, i8* %3, align 1
  %5 = zext i8 %4 to i64
  %6 = shl i64 %1, 6
  %7 = lshr i64 %1, 2
  %8 = add i64 %7, %6
  %9 = add i64 %8, %5
  %10 = xor i64 %9, %1
  %11 = getelementptr inbounds %"class.blink::mojom::WebBluetoothDataFilter", %"class.blink::mojom::WebBluetoothDataFilter"* %0, i64 0, i32 1
  %12 = load i8, i8* %11, align 1
  %13 = zext i8 %12 to i64
  %14 = shl i64 %10, 6
  %15 = lshr i64 %10, 2
  %16 = add i64 %14, %13
  %17 = add i64 %16, %15
  %18 = xor i64 %17, %10
  ret i64 %18
}

; Function Attrs: nounwind ssp uwtable
define hidden void @_ZNK5blink5mojom22WebBluetoothDataFilter14WriteIntoTraceEN8perfetto11TracedValueE(%"class.blink::mojom::WebBluetoothDataFilter"* nocapture readonly, %"class.perfetto::TracedValue"*) local_unnamed_addr #0 align 2 {
  %3 = alloca %"class.perfetto::TracedValue", align 8
  %4 = alloca %"class.perfetto::TracedValue", align 8
  %5 = alloca %"class.perfetto::TracedDictionary", align 8
  %6 = alloca %"class.perfetto::TracedValue", align 8
  %7 = alloca %"class.perfetto::TracedValue", align 8
  %8 = bitcast %"class.perfetto::TracedDictionary"* %5 to i8*
  call void @llvm.lifetime.start.p0i8(i64 16, i8* nonnull %8) #13
  %9 = bitcast %"class.perfetto::TracedDictionary"* %5 to i8*
  call void @llvm.memset.p0i8.i64(i8* nonnull align 8 %9, i8 -86, i64 16, i1 false)
  call void @_ZNO8perfetto11TracedValue15WriteDictionaryEv(%"class.perfetto::TracedDictionary"* nonnull sret %5, %"class.perfetto::TracedValue"* %1) #13
  call void @_ZN8perfetto16TracedDictionary7AddItemENS_12StaticStringE(%"class.perfetto::TracedValue"* nonnull sret %6, %"class.perfetto::TracedDictionary"* nonnull %5, i8* getelementptr inbounds ([5 x i8], [5 x i8]* @.str.6, i64 0, i64 0)) #13
  %10 = getelementptr inbounds %"class.blink::mojom::WebBluetoothDataFilter", %"class.blink::mojom::WebBluetoothDataFilter"* %0, i64 0, i32 0
  %11 = bitcast %"class.perfetto::TracedValue"* %6 to i8*
  %12 = bitcast %"class.perfetto::TracedValue"* %3 to i8*
  call void @llvm.lifetime.start.p0i8(i64 16, i8* nonnull %12) #13
  call void @llvm.memcpy.p0i8.p0i8.i64(i8* nonnull align 8 %12, i8* nonnull align 8 %11, i64 16, i1 false) #13
  %13 = load i8, i8* %10, align 1
  %14 = zext i8 %13 to i64
  call void @_ZNO8perfetto11TracedValue11WriteUInt64Em(%"class.perfetto::TracedValue"* nonnull %3, i64 %14) #13
  call void @llvm.lifetime.end.p0i8(i64 16, i8* nonnull %12) #13
  call void @_ZN8perfetto16TracedDictionary7AddItemENS_12StaticStringE(%"class.perfetto::TracedValue"* nonnull sret %7, %"class.perfetto::TracedDictionary"* nonnull %5, i8* getelementptr inbounds ([5 x i8], [5 x i8]* @.str.7, i64 0, i64 0)) #13
  %15 = getelementptr inbounds %"class.blink::mojom::WebBluetoothDataFilter", %"class.blink::mojom::WebBluetoothDataFilter"* %0, i64 0, i32 1
  %16 = bitcast %"class.perfetto::TracedValue"* %7 to i8*
  %17 = bitcast %"class.perfetto::TracedValue"* %4 to i8*
  call void @llvm.lifetime.start.p0i8(i64 16, i8* nonnull %17) #13
  call void @llvm.memcpy.p0i8.p0i8.i64(i8* nonnull align 8 %17, i8* nonnull align 8 %16, i64 16, i1 false) #13
  %18 = load i8, i8* %15, align 1
  %19 = zext i8 %18 to i64
  call void @_ZNO8perfetto11TracedValue11WriteUInt64Em(%"class.perfetto::TracedValue"* nonnull %4, i64 %19) #13
  call void @llvm.lifetime.end.p0i8(i64 16, i8* nonnull %17) #13
  call void @llvm.lifetime.end.p0i8(i64 16, i8* nonnull %8) #13
  ret void
}

; Function Attrs: nounwind ssp uwtable
define hidden zeroext i1 @_ZN5blink5mojom22WebBluetoothDataFilter8ValidateEPKvPN4mojo8internal17ValidationContextE(i8*, %"class.mojo::internal::ValidationContext"*) local_unnamed_addr #0 align 2 {
  %3 = tail call zeroext i1 @_ZN5blink5mojom8internal27WebBluetoothDataFilter_Data8ValidateEPKvPN4mojo8internal17ValidationContextE(i8* %0, %"class.mojo::internal::ValidationContext"* %1) #13
  ret i1 %3
}

declare zeroext i1 @_ZN5blink5mojom8internal27WebBluetoothDataFilter_Data8ValidateEPKvPN4mojo8internal17ValidationContextE(i8*, %"class.mojo::internal::ValidationContext"*) local_unnamed_addr #2

; Function Attrs: nounwind ssp uwtable
define hidden void @_ZN5blink5mojom32WebBluetoothRequestDeviceOptionsC2Ev(%"class.blink::mojom::WebBluetoothRequestDeviceOptions"* nocapture) unnamed_addr #0 align 2 {
  %2 = getelementptr inbounds %"class.blink::mojom::WebBluetoothRequestDeviceOptions", %"class.blink::mojom::WebBluetoothRequestDeviceOptions"* %0, i64 0, i32 0, i32 0, i32 0, i32 0, i32 0
  store i8 0, i8* %2, align 8
  %3 = getelementptr inbounds %"class.blink::mojom::WebBluetoothRequestDeviceOptions", %"class.blink::mojom::WebBluetoothRequestDeviceOptions"* %0, i64 0, i32 0, i32 0, i32 0, i32 0, i32 1
  %4 = bitcast %union.anon.67* %3 to i8*
  call void @llvm.memset.p0i8.i64(i8* align 8 %4, i8 0, i64 73, i1 false)
  ret void
}

; Function Attrs: nounwind ssp uwtable
define hidden void @_ZN5blink5mojom32WebBluetoothRequestDeviceOptionsC2EN4absl8optionalINSt3__16vectorIN4mojo9StructPtrINS0_24WebBluetoothLeScanFilterEEENS4_9allocatorIS9_EEEEEENS5_IN6device13BluetoothUUIDENSA_ISF_EEEENS5_ItNSA_ItEEEEb(%"class.blink::mojom::WebBluetoothRequestDeviceOptions"* nocapture, %"class.absl::optional.63"* nocapture, %"class.std::__1::vector"* nocapture, %"class.std::__1::vector.78"* nocapture, i1 zeroext) unnamed_addr #0 align 2 {
  %6 = zext i1 %4 to i8
  %7 = getelementptr inbounds %"class.blink::mojom::WebBluetoothRequestDeviceOptions", %"class.blink::mojom::WebBluetoothRequestDeviceOptions"* %0, i64 0, i32 0, i32 0, i32 0, i32 0, i32 0
  %8 = getelementptr inbounds %"class.absl::optional.63", %"class.absl::optional.63"* %1, i64 0, i32 0, i32 0, i32 0, i32 0
  tail call void @llvm.memset.p0i8.i64(i8* align 8 %7, i8 0, i64 32, i1 false) #13
  %9 = load i8, i8* %8, align 8, !range !2
  %10 = icmp eq i8 %9, 0
  br i1 %10, label %29, label %11

11:                                               ; preds = %5
  %12 = getelementptr inbounds %"class.absl::optional.63", %"class.absl::optional.63"* %1, i64 0, i32 0, i32 0, i32 0, i32 1, i32 0
  %13 = getelementptr inbounds %"class.blink::mojom::WebBluetoothRequestDeviceOptions", %"class.blink::mojom::WebBluetoothRequestDeviceOptions"* %0, i64 0, i32 0, i32 0, i32 0, i32 0, i32 1, i32 0
  %14 = bitcast %"class.std::__1::vector.68"* %13 to i8*
  tail call void @llvm.memset.p0i8.i64(i8* align 8 %14, i8 0, i64 24, i1 false) #13
  %15 = bitcast %"class.std::__1::vector.68"* %12 to i64*
  %16 = load i64, i64* %15, align 8
  %17 = bitcast %"class.std::__1::vector.68"* %13 to i64*
  store i64 %16, i64* %17, align 8
  %18 = getelementptr inbounds %"class.absl::optional.63", %"class.absl::optional.63"* %1, i64 0, i32 0, i32 0, i32 0, i32 1, i32 0, i32 0, i32 1
  %19 = bitcast %"class.mojo::StructPtr"** %18 to i64*
  %20 = load i64, i64* %19, align 8
  %21 = getelementptr inbounds %"class.blink::mojom::WebBluetoothRequestDeviceOptions", %"class.blink::mojom::WebBluetoothRequestDeviceOptions"* %0, i64 0, i32 0, i32 0, i32 0, i32 0, i32 1, i32 0, i32 0, i32 1
  %22 = bitcast %"class.mojo::StructPtr"** %21 to i64*
  store i64 %20, i64* %22, align 8
  %23 = getelementptr inbounds %"class.absl::optional.63", %"class.absl::optional.63"* %1, i64 0, i32 0, i32 0, i32 0, i32 1, i32 0, i32 0, i32 2, i32 0, i32 0
  %24 = bitcast %"class.mojo::StructPtr"** %23 to i64*
  %25 = load i64, i64* %24, align 8
  %26 = getelementptr inbounds %"class.blink::mojom::WebBluetoothRequestDeviceOptions", %"class.blink::mojom::WebBluetoothRequestDeviceOptions"* %0, i64 0, i32 0, i32 0, i32 0, i32 0, i32 1, i32 0, i32 0, i32 2, i32 0, i32 0
  %27 = bitcast %"class.mojo::StructPtr"** %26 to i64*
  store i64 %25, i64* %27, align 8
  %28 = bitcast %"class.std::__1::vector.68"* %12 to i8*
  tail call void @llvm.memset.p0i8.i64(i8* align 8 %28, i8 0, i64 24, i1 false) #13
  store i8 1, i8* %7, align 8
  br label %29

29:                                               ; preds = %5, %11
  %30 = getelementptr inbounds %"class.blink::mojom::WebBluetoothRequestDeviceOptions", %"class.blink::mojom::WebBluetoothRequestDeviceOptions"* %0, i64 0, i32 1
  %31 = bitcast %"class.std::__1::vector"* %30 to i8*
  tail call void @llvm.memset.p0i8.i64(i8* align 8 %31, i8 0, i64 24, i1 false) #13
  %32 = bitcast %"class.std::__1::vector"* %2 to i64*
  %33 = load i64, i64* %32, align 8
  %34 = bitcast %"class.std::__1::vector"* %30 to i64*
  store i64 %33, i64* %34, align 8
  %35 = getelementptr inbounds %"class.std::__1::vector", %"class.std::__1::vector"* %2, i64 0, i32 0, i32 1
  %36 = bitcast %"class.device::BluetoothUUID"** %35 to i64*
  %37 = load i64, i64* %36, align 8
  %38 = getelementptr inbounds %"class.blink::mojom::WebBluetoothRequestDeviceOptions", %"class.blink::mojom::WebBluetoothRequestDeviceOptions"* %0, i64 0, i32 1, i32 0, i32 1
  %39 = bitcast %"class.device::BluetoothUUID"** %38 to i64*
  store i64 %37, i64* %39, align 8
  %40 = getelementptr inbounds %"class.std::__1::vector", %"class.std::__1::vector"* %2, i64 0, i32 0, i32 2, i32 0, i32 0
  %41 = bitcast %"class.device::BluetoothUUID"** %40 to i64*
  %42 = load i64, i64* %41, align 8
  %43 = getelementptr inbounds %"class.blink::mojom::WebBluetoothRequestDeviceOptions", %"class.blink::mojom::WebBluetoothRequestDeviceOptions"* %0, i64 0, i32 1, i32 0, i32 2, i32 0, i32 0
  %44 = bitcast %"class.device::BluetoothUUID"** %43 to i64*
  store i64 %42, i64* %44, align 8
  %45 = bitcast %"class.std::__1::vector"* %2 to i8*
  tail call void @llvm.memset.p0i8.i64(i8* align 8 %45, i8 0, i64 24, i1 false) #13
  %46 = getelementptr inbounds %"class.blink::mojom::WebBluetoothRequestDeviceOptions", %"class.blink::mojom::WebBluetoothRequestDeviceOptions"* %0, i64 0, i32 2
  %47 = bitcast %"class.std::__1::vector.78"* %46 to i8*
  tail call void @llvm.memset.p0i8.i64(i8* align 8 %47, i8 0, i64 24, i1 false) #13
  %48 = bitcast %"class.std::__1::vector.78"* %3 to i64*
  %49 = load i64, i64* %48, align 8
  %50 = bitcast %"class.std::__1::vector.78"* %46 to i64*
  store i64 %49, i64* %50, align 8
  %51 = getelementptr inbounds %"class.std::__1::vector.78", %"class.std::__1::vector.78"* %3, i64 0, i32 0, i32 1
  %52 = bitcast i16** %51 to i64*
  %53 = load i64, i64* %52, align 8
  %54 = getelementptr inbounds %"class.blink::mojom::WebBluetoothRequestDeviceOptions", %"class.blink::mojom::WebBluetoothRequestDeviceOptions"* %0, i64 0, i32 2, i32 0, i32 1
  %55 = bitcast i16** %54 to i64*
  store i64 %53, i64* %55, align 8
  %56 = getelementptr inbounds %"class.std::__1::vector.78", %"class.std::__1::vector.78"* %3, i64 0, i32 0, i32 2, i32 0, i32 0
  %57 = bitcast i16** %56 to i64*
  %58 = load i64, i64* %57, align 8
  %59 = getelementptr inbounds %"class.blink::mojom::WebBluetoothRequestDeviceOptions", %"class.blink::mojom::WebBluetoothRequestDeviceOptions"* %0, i64 0, i32 2, i32 0, i32 2, i32 0, i32 0
  %60 = bitcast i16** %59 to i64*
  store i64 %58, i64* %60, align 8
  %61 = bitcast %"class.std::__1::vector.78"* %3 to i8*
  tail call void @llvm.memset.p0i8.i64(i8* align 8 %61, i8 0, i64 24, i1 false) #13
  %62 = getelementptr inbounds %"class.blink::mojom::WebBluetoothRequestDeviceOptions", %"class.blink::mojom::WebBluetoothRequestDeviceOptions"* %0, i64 0, i32 3
  store i8 %6, i8* %62, align 8
  ret void
}

; Function Attrs: nounwind ssp uwtable
define hidden void @_ZN5blink5mojom32WebBluetoothRequestDeviceOptionsD2Ev(%"class.blink::mojom::WebBluetoothRequestDeviceOptions"* nocapture) unnamed_addr #0 align 2 {
  %2 = getelementptr inbounds %"class.blink::mojom::WebBluetoothRequestDeviceOptions", %"class.blink::mojom::WebBluetoothRequestDeviceOptions"* %0, i64 0, i32 2, i32 0, i32 0
  %3 = load i16*, i16** %2, align 8
  %4 = icmp eq i16* %3, null
  br i1 %4, label %10, label %5

5:                                                ; preds = %1
  %6 = ptrtoint i16* %3 to i64
  %7 = getelementptr inbounds %"class.blink::mojom::WebBluetoothRequestDeviceOptions", %"class.blink::mojom::WebBluetoothRequestDeviceOptions"* %0, i64 0, i32 2, i32 0, i32 1
  %8 = bitcast i16** %7 to i64*
  store i64 %6, i64* %8, align 8
  %9 = bitcast i16* %3 to i8*
  tail call void @_ZdlPv(i8* %9) #14
  br label %10

10:                                               ; preds = %1, %5
  %11 = getelementptr inbounds %"class.blink::mojom::WebBluetoothRequestDeviceOptions", %"class.blink::mojom::WebBluetoothRequestDeviceOptions"* %0, i64 0, i32 1
  %12 = getelementptr inbounds %"class.std::__1::vector", %"class.std::__1::vector"* %11, i64 0, i32 0, i32 0
  %13 = load %"class.device::BluetoothUUID"*, %"class.device::BluetoothUUID"** %12, align 8
  %14 = icmp eq %"class.device::BluetoothUUID"* %13, null
  br i1 %14, label %29, label %15

15:                                               ; preds = %10
  %16 = bitcast %"class.device::BluetoothUUID"* %13 to i8*
  %17 = getelementptr inbounds %"class.blink::mojom::WebBluetoothRequestDeviceOptions", %"class.blink::mojom::WebBluetoothRequestDeviceOptions"* %0, i64 0, i32 1, i32 0, i32 1
  %18 = load %"class.device::BluetoothUUID"*, %"class.device::BluetoothUUID"** %17, align 8
  %19 = icmp eq %"class.device::BluetoothUUID"* %18, %13
  br i1 %19, label %27, label %20

20:                                               ; preds = %15, %20
  %21 = phi %"class.device::BluetoothUUID"* [ %22, %20 ], [ %18, %15 ]
  %22 = getelementptr inbounds %"class.device::BluetoothUUID", %"class.device::BluetoothUUID"* %21, i64 -1
  tail call void @_ZN6device13BluetoothUUIDD1Ev(%"class.device::BluetoothUUID"* %22) #13
  %23 = icmp eq %"class.device::BluetoothUUID"* %22, %13
  br i1 %23, label %24, label %20

24:                                               ; preds = %20
  %25 = bitcast %"class.std::__1::vector"* %11 to i8**
  %26 = load i8*, i8** %25, align 8
  br label %27

27:                                               ; preds = %24, %15
  %28 = phi i8* [ %26, %24 ], [ %16, %15 ]
  store %"class.device::BluetoothUUID"* %13, %"class.device::BluetoothUUID"** %17, align 8
  tail call void @_ZdlPv(i8* %28) #14
  br label %29

29:                                               ; preds = %10, %27
  %30 = getelementptr inbounds %"class.blink::mojom::WebBluetoothRequestDeviceOptions", %"class.blink::mojom::WebBluetoothRequestDeviceOptions"* %0, i64 0, i32 0, i32 0, i32 0, i32 0, i32 0
  %31 = load i8, i8* %30, align 8, !range !2
  %32 = icmp eq i8 %31, 0
  br i1 %32, label %59, label %33

33:                                               ; preds = %29
  %34 = getelementptr inbounds %"class.blink::mojom::WebBluetoothRequestDeviceOptions", %"class.blink::mojom::WebBluetoothRequestDeviceOptions"* %0, i64 0, i32 0, i32 0, i32 0, i32 0, i32 1, i32 0
  %35 = getelementptr inbounds %"class.std::__1::vector.68", %"class.std::__1::vector.68"* %34, i64 0, i32 0, i32 0
  %36 = load %"class.mojo::StructPtr"*, %"class.mojo::StructPtr"** %35, align 8
  %37 = icmp eq %"class.mojo::StructPtr"* %36, null
  br i1 %37, label %58, label %38

38:                                               ; preds = %33
  %39 = bitcast %"class.mojo::StructPtr"* %36 to i8*
  %40 = getelementptr inbounds %"class.blink::mojom::WebBluetoothRequestDeviceOptions", %"class.blink::mojom::WebBluetoothRequestDeviceOptions"* %0, i64 0, i32 0, i32 0, i32 0, i32 0, i32 1, i32 0, i32 0, i32 1
  %41 = load %"class.mojo::StructPtr"*, %"class.mojo::StructPtr"** %40, align 8
  %42 = icmp eq %"class.mojo::StructPtr"* %41, %36
  br i1 %42, label %56, label %43

43:                                               ; preds = %38, %51
  %44 = phi %"class.mojo::StructPtr"* [ %45, %51 ], [ %41, %38 ]
  %45 = getelementptr inbounds %"class.mojo::StructPtr", %"class.mojo::StructPtr"* %44, i64 -1
  %46 = getelementptr inbounds %"class.mojo::StructPtr", %"class.mojo::StructPtr"* %45, i64 0, i32 0, i32 0, i32 0, i32 0
  %47 = load %"class.blink::mojom::WebBluetoothLeScanFilter"*, %"class.blink::mojom::WebBluetoothLeScanFilter"** %46, align 8
  store %"class.blink::mojom::WebBluetoothLeScanFilter"* null, %"class.blink::mojom::WebBluetoothLeScanFilter"** %46, align 8
  %48 = icmp eq %"class.blink::mojom::WebBluetoothLeScanFilter"* %47, null
  br i1 %48, label %51, label %49

49:                                               ; preds = %43
  tail call void @_ZN5blink5mojom24WebBluetoothLeScanFilterD2Ev(%"class.blink::mojom::WebBluetoothLeScanFilter"* nonnull %47) #13
  %50 = getelementptr inbounds %"class.blink::mojom::WebBluetoothLeScanFilter", %"class.blink::mojom::WebBluetoothLeScanFilter"* %47, i64 0, i32 0, i32 0, i32 0, i32 0, i32 0
  tail call void @_ZdlPv(i8* %50) #14
  br label %51

51:                                               ; preds = %49, %43
  %52 = icmp eq %"class.mojo::StructPtr"* %45, %36
  br i1 %52, label %53, label %43

53:                                               ; preds = %51
  %54 = bitcast %"class.std::__1::vector.68"* %34 to i8**
  %55 = load i8*, i8** %54, align 8
  br label %56

56:                                               ; preds = %53, %38
  %57 = phi i8* [ %55, %53 ], [ %39, %38 ]
  store %"class.mojo::StructPtr"* %36, %"class.mojo::StructPtr"** %40, align 8
  tail call void @_ZdlPv(i8* %57) #14
  br label %58

58:                                               ; preds = %56, %33
  store i8 0, i8* %30, align 8
  br label %59

59:                                               ; preds = %29, %58
  ret void
}

; Function Attrs: nounwind ssp uwtable
define hidden void @_ZNK5blink5mojom32WebBluetoothRequestDeviceOptions14WriteIntoTraceEN8perfetto11TracedValueE(%"class.blink::mojom::WebBluetoothRequestDeviceOptions"* nocapture readonly, %"class.perfetto::TracedValue"*) local_unnamed_addr #0 align 2 {
  %3 = alloca %"class.perfetto::TracedValue", align 8
  %4 = alloca %"class.perfetto::TracedValue", align 8
  %5 = alloca %"class.perfetto::TracedArray", align 8
  %6 = alloca %"class.perfetto::TracedValue", align 8
  %7 = alloca %"class.perfetto::TracedValue", align 8
  %8 = alloca %"class.perfetto::TracedValue", align 8
  %9 = alloca %"class.perfetto::TracedValue", align 8
  %10 = alloca %"class.perfetto::TracedArray", align 8
  %11 = alloca %"class.perfetto::TracedValue", align 8
  %12 = alloca %"class.perfetto::TracedValue", align 8
  %13 = alloca %"class.perfetto::TracedValue", align 8
  %14 = alloca %"class.perfetto::TracedDictionary", align 8
  %15 = alloca %"class.perfetto::TracedValue", align 8
  %16 = alloca %"class.perfetto::TracedValue", align 8
  %17 = alloca %"class.std::__1::basic_string", align 8
  %18 = alloca %"class.perfetto::TracedValue", align 8
  %19 = alloca %"class.perfetto::TracedValue", align 8
  %20 = bitcast %"class.perfetto::TracedDictionary"* %14 to i8*
  call void @llvm.lifetime.start.p0i8(i64 16, i8* nonnull %20) #13
  %21 = bitcast %"class.perfetto::TracedDictionary"* %14 to i8*
  call void @llvm.memset.p0i8.i64(i8* nonnull align 8 %21, i8 -86, i64 16, i1 false)
  call void @_ZNO8perfetto11TracedValue15WriteDictionaryEv(%"class.perfetto::TracedDictionary"* nonnull sret %14, %"class.perfetto::TracedValue"* %1) #13
  call void @_ZN8perfetto16TracedDictionary7AddItemENS_12StaticStringE(%"class.perfetto::TracedValue"* nonnull sret %15, %"class.perfetto::TracedDictionary"* nonnull %14, i8* getelementptr inbounds ([8 x i8], [8 x i8]* @.str.8, i64 0, i64 0)) #13
  %22 = bitcast %"class.perfetto::TracedValue"* %15 to i8*
  %23 = bitcast %"class.perfetto::TracedValue"* %12 to i8*
  call void @llvm.lifetime.start.p0i8(i64 16, i8* nonnull %23) #13
  call void @llvm.memcpy.p0i8.p0i8.i64(i8* nonnull align 8 %23, i8* nonnull align 8 %22, i64 16, i1 false) #13
  %24 = getelementptr inbounds %"class.blink::mojom::WebBluetoothRequestDeviceOptions", %"class.blink::mojom::WebBluetoothRequestDeviceOptions"* %0, i64 0, i32 0, i32 0, i32 0, i32 0, i32 0
  %25 = load i8, i8* %24, align 8, !range !2
  %26 = icmp eq i8 %25, 0
  br i1 %26, label %27, label %28

27:                                               ; preds = %2
  call void @_ZNO8perfetto11TracedValue12WritePointerEPKv(%"class.perfetto::TracedValue"* nonnull %12, i8* null) #13
  br label %51

28:                                               ; preds = %2
  %29 = bitcast %"class.perfetto::TracedValue"* %11 to i8*
  call void @llvm.lifetime.start.p0i8(i64 16, i8* nonnull %29)
  call void @llvm.memcpy.p0i8.p0i8.i64(i8* nonnull align 8 %29, i8* nonnull align 8 %23, i64 16, i1 false)
  %30 = bitcast %"class.perfetto::TracedArray"* %10 to i8*
  call void @llvm.lifetime.start.p0i8(i64 16, i8* nonnull %30) #13
  call void @llvm.memset.p0i8.i64(i8* nonnull align 8 %30, i8 -86, i64 16, i1 false) #13
  call void @_ZNO8perfetto11TracedValue10WriteArrayEv(%"class.perfetto::TracedArray"* nonnull sret %10, %"class.perfetto::TracedValue"* nonnull %11) #13
  %31 = getelementptr inbounds %"class.blink::mojom::WebBluetoothRequestDeviceOptions", %"class.blink::mojom::WebBluetoothRequestDeviceOptions"* %0, i64 0, i32 0, i32 0, i32 0, i32 0, i32 1, i32 0, i32 0, i32 0
  %32 = load %"class.mojo::StructPtr"*, %"class.mojo::StructPtr"** %31, align 8
  %33 = getelementptr inbounds %"class.blink::mojom::WebBluetoothRequestDeviceOptions", %"class.blink::mojom::WebBluetoothRequestDeviceOptions"* %0, i64 0, i32 0, i32 0, i32 0, i32 0, i32 1, i32 0, i32 0, i32 1
  %34 = load %"class.mojo::StructPtr"*, %"class.mojo::StructPtr"** %33, align 8
  %35 = icmp eq %"class.mojo::StructPtr"* %32, %34
  br i1 %35, label %50, label %36

36:                                               ; preds = %28
  %37 = bitcast %"class.perfetto::TracedValue"* %9 to i8*
  %38 = bitcast %"class.perfetto::TracedValue"* %8 to i8*
  %39 = bitcast %"class.perfetto::TracedValue"* %7 to i8*
  br label %40

40:                                               ; preds = %47, %36
  %41 = phi %"class.mojo::StructPtr"* [ %32, %36 ], [ %48, %47 ]
  call void @llvm.lifetime.start.p0i8(i64 16, i8* nonnull %37) #13
  call void @_ZN8perfetto11TracedArray10AppendItemEv(%"class.perfetto::TracedValue"* nonnull sret %9, %"class.perfetto::TracedArray"* nonnull %10) #13
  %42 = getelementptr inbounds %"class.mojo::StructPtr", %"class.mojo::StructPtr"* %41, i64 0, i32 0, i32 0, i32 0, i32 0
  %43 = load %"class.blink::mojom::WebBluetoothLeScanFilter"*, %"class.blink::mojom::WebBluetoothLeScanFilter"** %42, align 8
  call void @llvm.lifetime.start.p0i8(i64 16, i8* nonnull %38) #13
  call void @llvm.memcpy.p0i8.p0i8.i64(i8* nonnull align 8 %38, i8* nonnull align 8 %37, i64 16, i1 false) #13
  %44 = icmp eq %"class.blink::mojom::WebBluetoothLeScanFilter"* %43, null
  br i1 %44, label %45, label %46

45:                                               ; preds = %40
  call void @_ZNO8perfetto11TracedValue12WritePointerEPKv(%"class.perfetto::TracedValue"* nonnull %8, i8* null) #13
  br label %47

46:                                               ; preds = %40
  call void @llvm.lifetime.start.p0i8(i64 16, i8* nonnull %39) #13
  call void @llvm.memcpy.p0i8.p0i8.i64(i8* nonnull align 8 %39, i8* nonnull align 8 %38, i64 16, i1 false) #13
  call void @_ZNK5blink5mojom24WebBluetoothLeScanFilter14WriteIntoTraceEN8perfetto11TracedValueE(%"class.blink::mojom::WebBluetoothLeScanFilter"* nonnull %43, %"class.perfetto::TracedValue"* nonnull %7) #13
  call void @llvm.lifetime.end.p0i8(i64 16, i8* nonnull %39) #13
  br label %47

47:                                               ; preds = %46, %45
  call void @llvm.lifetime.end.p0i8(i64 16, i8* nonnull %38) #13
  call void @llvm.lifetime.end.p0i8(i64 16, i8* nonnull %37) #13
  %48 = getelementptr inbounds %"class.mojo::StructPtr", %"class.mojo::StructPtr"* %41, i64 1
  %49 = icmp eq %"class.mojo::StructPtr"* %48, %34
  br i1 %49, label %50, label %40

50:                                               ; preds = %47, %28
  call void @llvm.lifetime.end.p0i8(i64 16, i8* nonnull %30) #13
  call void @llvm.lifetime.end.p0i8(i64 16, i8* nonnull %29)
  br label %51

51:                                               ; preds = %50, %27
  call void @llvm.lifetime.end.p0i8(i64 16, i8* nonnull %23) #13
  call void @_ZN8perfetto16TracedDictionary7AddItemENS_12StaticStringE(%"class.perfetto::TracedValue"* nonnull sret %16, %"class.perfetto::TracedDictionary"* nonnull %14, i8* getelementptr inbounds ([18 x i8], [18 x i8]* @.str.9, i64 0, i64 0)) #13
  %52 = bitcast %"class.std::__1::basic_string"* %17 to i8*
  call void @llvm.lifetime.start.p0i8(i64 24, i8* nonnull %52) #13
  %53 = bitcast %"class.std::__1::basic_string"* %17 to %"struct.std::__1::basic_string<char, std::__1::char_traits<char>, std::__1::allocator<char> >::__short"*
  %54 = getelementptr inbounds %"struct.std::__1::basic_string<char, std::__1::char_traits<char>, std::__1::allocator<char> >::__short", %"struct.std::__1::basic_string<char, std::__1::char_traits<char>, std::__1::allocator<char> >::__short"* %53, i64 0, i32 1, i32 0
  store i8 7, i8* %54, align 1
  call void @llvm.memcpy.p0i8.p0i8.i64(i8* nonnull align 8 %52, i8* align 1 getelementptr inbounds ([8 x i8], [8 x i8]* @.str.1, i64 0, i64 0), i64 7, i1 false) #13
  %55 = getelementptr inbounds i8, i8* %52, i64 7
  store i8 0, i8* %55, align 1
  call void @_ZNO8perfetto11TracedValue11WriteStringERKNSt3__112basic_stringIcNS1_11char_traitsIcEENS1_9allocatorIcEEEE(%"class.perfetto::TracedValue"* nonnull %16, %"class.std::__1::basic_string"* nonnull dereferenceable(24) %17) #13
  %56 = load i8, i8* %54, align 1
  %57 = icmp slt i8 %56, 0
  br i1 %57, label %58, label %61

58:                                               ; preds = %51
  %59 = getelementptr inbounds %"class.std::__1::basic_string", %"class.std::__1::basic_string"* %17, i64 0, i32 0, i32 0, i32 0, i32 0, i32 0, i32 0
  %60 = load i8*, i8** %59, align 8
  call void @_ZdlPv(i8* %60) #14
  br label %61

61:                                               ; preds = %51, %58
  call void @llvm.lifetime.end.p0i8(i64 24, i8* nonnull %52) #13
  call void @_ZN8perfetto16TracedDictionary7AddItemENS_12StaticStringE(%"class.perfetto::TracedValue"* nonnull sret %18, %"class.perfetto::TracedDictionary"* nonnull %14, i8* getelementptr inbounds ([27 x i8], [27 x i8]* @.str.10, i64 0, i64 0)) #13
  %62 = bitcast %"class.perfetto::TracedValue"* %18 to i8*
  %63 = bitcast %"class.perfetto::TracedValue"* %6 to i8*
  call void @llvm.lifetime.start.p0i8(i64 16, i8* nonnull %63) #13
  call void @llvm.memcpy.p0i8.p0i8.i64(i8* nonnull align 8 %63, i8* nonnull align 8 %62, i64 16, i1 false) #13
  %64 = bitcast %"class.perfetto::TracedArray"* %5 to i8*
  call void @llvm.lifetime.start.p0i8(i64 16, i8* nonnull %64) #13
  call void @llvm.memset.p0i8.i64(i8* nonnull align 8 %64, i8 -86, i64 16, i1 false) #13
  call void @_ZNO8perfetto11TracedValue10WriteArrayEv(%"class.perfetto::TracedArray"* nonnull sret %5, %"class.perfetto::TracedValue"* nonnull %6) #13
  %65 = getelementptr inbounds %"class.blink::mojom::WebBluetoothRequestDeviceOptions", %"class.blink::mojom::WebBluetoothRequestDeviceOptions"* %0, i64 0, i32 2, i32 0, i32 0
  %66 = load i16*, i16** %65, align 8
  %67 = getelementptr inbounds %"class.blink::mojom::WebBluetoothRequestDeviceOptions", %"class.blink::mojom::WebBluetoothRequestDeviceOptions"* %0, i64 0, i32 2, i32 0, i32 1
  %68 = load i16*, i16** %67, align 8
  %69 = icmp eq i16* %66, %68
  br i1 %69, label %79, label %70

70:                                               ; preds = %61
  %71 = bitcast %"class.perfetto::TracedValue"* %4 to i8*
  %72 = bitcast %"class.perfetto::TracedValue"* %3 to i8*
  br label %73

73:                                               ; preds = %73, %70
  %74 = phi i16* [ %66, %70 ], [ %77, %73 ]
  call void @llvm.lifetime.start.p0i8(i64 16, i8* nonnull %71) #13
  call void @_ZN8perfetto11TracedArray10AppendItemEv(%"class.perfetto::TracedValue"* nonnull sret %4, %"class.perfetto::TracedArray"* nonnull %5) #13
  call void @llvm.lifetime.start.p0i8(i64 16, i8* nonnull %72) #13
  call void @llvm.memcpy.p0i8.p0i8.i64(i8* nonnull align 8 %72, i8* nonnull align 8 %71, i64 16, i1 false) #13
  %75 = load i16, i16* %74, align 2
  %76 = zext i16 %75 to i64
  call void @_ZNO8perfetto11TracedValue11WriteUInt64Em(%"class.perfetto::TracedValue"* nonnull %3, i64 %76) #13
  call void @llvm.lifetime.end.p0i8(i64 16, i8* nonnull %72) #13
  call void @llvm.lifetime.end.p0i8(i64 16, i8* nonnull %71) #13
  %77 = getelementptr inbounds i16, i16* %74, i64 1
  %78 = icmp eq i16* %77, %68
  br i1 %78, label %79, label %73

79:                                               ; preds = %73, %61
  call void @llvm.lifetime.end.p0i8(i64 16, i8* nonnull %64) #13
  call void @llvm.lifetime.end.p0i8(i64 16, i8* nonnull %63) #13
  call void @_ZN8perfetto16TracedDictionary7AddItemENS_12StaticStringE(%"class.perfetto::TracedValue"* nonnull sret %19, %"class.perfetto::TracedDictionary"* nonnull %14, i8* getelementptr inbounds ([19 x i8], [19 x i8]* @.str.11, i64 0, i64 0)) #13
  %80 = getelementptr inbounds %"class.blink::mojom::WebBluetoothRequestDeviceOptions", %"class.blink::mojom::WebBluetoothRequestDeviceOptions"* %0, i64 0, i32 3
  %81 = bitcast %"class.perfetto::TracedValue"* %19 to i8*
  %82 = bitcast %"class.perfetto::TracedValue"* %13 to i8*
  call void @llvm.lifetime.start.p0i8(i64 16, i8* nonnull %82) #13
  call void @llvm.memcpy.p0i8.p0i8.i64(i8* nonnull align 8 %82, i8* nonnull align 8 %81, i64 16, i1 false) #13
  %83 = load i8, i8* %80, align 1, !range !2
  %84 = icmp ne i8 %83, 0
  call void @_ZNO8perfetto11TracedValue12WriteBooleanEb(%"class.perfetto::TracedValue"* nonnull %13, i1 zeroext %84) #13
  call void @llvm.lifetime.end.p0i8(i64 16, i8* nonnull %82) #13
  call void @llvm.lifetime.end.p0i8(i64 16, i8* nonnull %20) #13
  ret void
}

; Function Attrs: nounwind ssp uwtable
define hidden zeroext i1 @_ZN5blink5mojom32WebBluetoothRequestDeviceOptions8ValidateEPKvPN4mojo8internal17ValidationContextE(i8*, %"class.mojo::internal::ValidationContext"*) local_unnamed_addr #0 align 2 {
  %3 = tail call zeroext i1 @_ZN5blink5mojom8internal37WebBluetoothRequestDeviceOptions_Data8ValidateEPKvPN4mojo8internal17ValidationContextE(i8* %0, %"class.mojo::internal::ValidationContext"* %1) #13
  ret i1 %3
}

declare zeroext i1 @_ZN5blink5mojom8internal37WebBluetoothRequestDeviceOptions_Data8ValidateEPKvPN4mojo8internal17ValidationContextE(i8*, %"class.mojo::internal::ValidationContext"*) local_unnamed_addr #2

; Function Attrs: nounwind ssp uwtable
define hidden void @_ZN5blink5mojom32WebBluetoothRequestLEScanOptionsC2Ev(%"class.blink::mojom::WebBluetoothRequestLEScanOptions"* nocapture) unnamed_addr #0 align 2 {
  %2 = getelementptr inbounds %"class.blink::mojom::WebBluetoothRequestLEScanOptions", %"class.blink::mojom::WebBluetoothRequestLEScanOptions"* %0, i64 0, i32 0, i32 0, i32 0, i32 0, i32 0
  store i8 0, i8* %2, align 8
  %3 = getelementptr inbounds %"class.blink::mojom::WebBluetoothRequestLEScanOptions", %"class.blink::mojom::WebBluetoothRequestLEScanOptions"* %0, i64 0, i32 0, i32 0, i32 0, i32 0, i32 1
  %4 = bitcast %union.anon.67* %3 to i8*
  call void @llvm.memset.p0i8.i64(i8* align 8 %4, i8 0, i64 26, i1 false)
  ret void
}

; Function Attrs: nounwind ssp uwtable
define hidden void @_ZN5blink5mojom32WebBluetoothRequestLEScanOptionsC2EN4absl8optionalINSt3__16vectorIN4mojo9StructPtrINS0_24WebBluetoothLeScanFilterEEENS4_9allocatorIS9_EEEEEEbb(%"class.blink::mojom::WebBluetoothRequestLEScanOptions"* nocapture, %"class.absl::optional.63"* nocapture, i1 zeroext, i1 zeroext) unnamed_addr #0 align 2 {
  %5 = zext i1 %2 to i8
  %6 = zext i1 %3 to i8
  %7 = getelementptr inbounds %"class.blink::mojom::WebBluetoothRequestLEScanOptions", %"class.blink::mojom::WebBluetoothRequestLEScanOptions"* %0, i64 0, i32 0, i32 0, i32 0, i32 0, i32 0
  %8 = getelementptr inbounds %"class.absl::optional.63", %"class.absl::optional.63"* %1, i64 0, i32 0, i32 0, i32 0, i32 0
  tail call void @llvm.memset.p0i8.i64(i8* align 8 %7, i8 0, i64 32, i1 false) #13
  %9 = load i8, i8* %8, align 8, !range !2
  %10 = icmp eq i8 %9, 0
  br i1 %10, label %29, label %11

11:                                               ; preds = %4
  %12 = getelementptr inbounds %"class.absl::optional.63", %"class.absl::optional.63"* %1, i64 0, i32 0, i32 0, i32 0, i32 1, i32 0
  %13 = getelementptr inbounds %"class.blink::mojom::WebBluetoothRequestLEScanOptions", %"class.blink::mojom::WebBluetoothRequestLEScanOptions"* %0, i64 0, i32 0, i32 0, i32 0, i32 0, i32 1, i32 0
  %14 = bitcast %"class.std::__1::vector.68"* %13 to i8*
  tail call void @llvm.memset.p0i8.i64(i8* align 8 %14, i8 0, i64 24, i1 false) #13
  %15 = bitcast %"class.std::__1::vector.68"* %12 to i64*
  %16 = load i64, i64* %15, align 8
  %17 = bitcast %"class.std::__1::vector.68"* %13 to i64*
  store i64 %16, i64* %17, align 8
  %18 = getelementptr inbounds %"class.absl::optional.63", %"class.absl::optional.63"* %1, i64 0, i32 0, i32 0, i32 0, i32 1, i32 0, i32 0, i32 1
  %19 = bitcast %"class.mojo::StructPtr"** %18 to i64*
  %20 = load i64, i64* %19, align 8
  %21 = getelementptr inbounds %"class.blink::mojom::WebBluetoothRequestLEScanOptions", %"class.blink::mojom::WebBluetoothRequestLEScanOptions"* %0, i64 0, i32 0, i32 0, i32 0, i32 0, i32 1, i32 0, i32 0, i32 1
  %22 = bitcast %"class.mojo::StructPtr"** %21 to i64*
  store i64 %20, i64* %22, align 8
  %23 = getelementptr inbounds %"class.absl::optional.63", %"class.absl::optional.63"* %1, i64 0, i32 0, i32 0, i32 0, i32 1, i32 0, i32 0, i32 2, i32 0, i32 0
  %24 = bitcast %"class.mojo::StructPtr"** %23 to i64*
  %25 = load i64, i64* %24, align 8
  %26 = getelementptr inbounds %"class.blink::mojom::WebBluetoothRequestLEScanOptions", %"class.blink::mojom::WebBluetoothRequestLEScanOptions"* %0, i64 0, i32 0, i32 0, i32 0, i32 0, i32 1, i32 0, i32 0, i32 2, i32 0, i32 0
  %27 = bitcast %"class.mojo::StructPtr"** %26 to i64*
  store i64 %25, i64* %27, align 8
  %28 = bitcast %"class.std::__1::vector.68"* %12 to i8*
  tail call void @llvm.memset.p0i8.i64(i8* align 8 %28, i8 0, i64 24, i1 false) #13
  store i8 1, i8* %7, align 8
  br label %29

29:                                               ; preds = %4, %11
  %30 = getelementptr inbounds %"class.blink::mojom::WebBluetoothRequestLEScanOptions", %"class.blink::mojom::WebBluetoothRequestLEScanOptions"* %0, i64 0, i32 1
  store i8 %5, i8* %30, align 8
  %31 = getelementptr inbounds %"class.blink::mojom::WebBluetoothRequestLEScanOptions", %"class.blink::mojom::WebBluetoothRequestLEScanOptions"* %0, i64 0, i32 2
  store i8 %6, i8* %31, align 1
  ret void
}

; Function Attrs: nounwind ssp uwtable
define hidden void @_ZN5blink5mojom32WebBluetoothRequestLEScanOptionsD2Ev(%"class.blink::mojom::WebBluetoothRequestLEScanOptions"* nocapture) unnamed_addr #0 align 2 {
  %2 = getelementptr inbounds %"class.blink::mojom::WebBluetoothRequestLEScanOptions", %"class.blink::mojom::WebBluetoothRequestLEScanOptions"* %0, i64 0, i32 0, i32 0, i32 0, i32 0, i32 0
  %3 = load i8, i8* %2, align 8, !range !2
  %4 = icmp eq i8 %3, 0
  br i1 %4, label %31, label %5

5:                                                ; preds = %1
  %6 = getelementptr inbounds %"class.blink::mojom::WebBluetoothRequestLEScanOptions", %"class.blink::mojom::WebBluetoothRequestLEScanOptions"* %0, i64 0, i32 0, i32 0, i32 0, i32 0, i32 1, i32 0
  %7 = getelementptr inbounds %"class.std::__1::vector.68", %"class.std::__1::vector.68"* %6, i64 0, i32 0, i32 0
  %8 = load %"class.mojo::StructPtr"*, %"class.mojo::StructPtr"** %7, align 8
  %9 = icmp eq %"class.mojo::StructPtr"* %8, null
  br i1 %9, label %30, label %10

10:                                               ; preds = %5
  %11 = bitcast %"class.mojo::StructPtr"* %8 to i8*
  %12 = getelementptr inbounds %"class.blink::mojom::WebBluetoothRequestLEScanOptions", %"class.blink::mojom::WebBluetoothRequestLEScanOptions"* %0, i64 0, i32 0, i32 0, i32 0, i32 0, i32 1, i32 0, i32 0, i32 1
  %13 = load %"class.mojo::StructPtr"*, %"class.mojo::StructPtr"** %12, align 8
  %14 = icmp eq %"class.mojo::StructPtr"* %13, %8
  br i1 %14, label %28, label %15

15:                                               ; preds = %10, %23
  %16 = phi %"class.mojo::StructPtr"* [ %17, %23 ], [ %13, %10 ]
  %17 = getelementptr inbounds %"class.mojo::StructPtr", %"class.mojo::StructPtr"* %16, i64 -1
  %18 = getelementptr inbounds %"class.mojo::StructPtr", %"class.mojo::StructPtr"* %17, i64 0, i32 0, i32 0, i32 0, i32 0
  %19 = load %"class.blink::mojom::WebBluetoothLeScanFilter"*, %"class.blink::mojom::WebBluetoothLeScanFilter"** %18, align 8
  store %"class.blink::mojom::WebBluetoothLeScanFilter"* null, %"class.blink::mojom::WebBluetoothLeScanFilter"** %18, align 8
  %20 = icmp eq %"class.blink::mojom::WebBluetoothLeScanFilter"* %19, null
  br i1 %20, label %23, label %21

21:                                               ; preds = %15
  tail call void @_ZN5blink5mojom24WebBluetoothLeScanFilterD2Ev(%"class.blink::mojom::WebBluetoothLeScanFilter"* nonnull %19) #13
  %22 = getelementptr inbounds %"class.blink::mojom::WebBluetoothLeScanFilter", %"class.blink::mojom::WebBluetoothLeScanFilter"* %19, i64 0, i32 0, i32 0, i32 0, i32 0, i32 0
  tail call void @_ZdlPv(i8* %22) #14
  br label %23

23:                                               ; preds = %21, %15
  %24 = icmp eq %"class.mojo::StructPtr"* %17, %8
  br i1 %24, label %25, label %15

25:                                               ; preds = %23
  %26 = bitcast %"class.std::__1::vector.68"* %6 to i8**
  %27 = load i8*, i8** %26, align 8
  br label %28

28:                                               ; preds = %25, %10
  %29 = phi i8* [ %27, %25 ], [ %11, %10 ]
  store %"class.mojo::StructPtr"* %8, %"class.mojo::StructPtr"** %12, align 8
  tail call void @_ZdlPv(i8* %29) #14
  br label %30

30:                                               ; preds = %28, %5
  store i8 0, i8* %2, align 8
  br label %31

31:                                               ; preds = %1, %30
  ret void
}

; Function Attrs: nounwind ssp uwtable
define hidden void @_ZNK5blink5mojom32WebBluetoothRequestLEScanOptions14WriteIntoTraceEN8perfetto11TracedValueE(%"class.blink::mojom::WebBluetoothRequestLEScanOptions"* nocapture readonly, %"class.perfetto::TracedValue"*) local_unnamed_addr #0 align 2 {
  %3 = alloca %"class.perfetto::TracedValue", align 8
  %4 = alloca %"class.perfetto::TracedValue", align 8
  %5 = alloca %"class.perfetto::TracedValue", align 8
  %6 = alloca %"class.perfetto::TracedValue", align 8
  %7 = alloca %"class.perfetto::TracedArray", align 8
  %8 = alloca %"class.perfetto::TracedValue", align 8
  %9 = alloca %"class.perfetto::TracedValue", align 8
  %10 = alloca %"class.perfetto::TracedValue", align 8
  %11 = alloca %"class.perfetto::TracedDictionary", align 8
  %12 = alloca %"class.perfetto::TracedValue", align 8
  %13 = alloca %"class.perfetto::TracedValue", align 8
  %14 = alloca %"class.perfetto::TracedValue", align 8
  %15 = bitcast %"class.perfetto::TracedDictionary"* %11 to i8*
  call void @llvm.lifetime.start.p0i8(i64 16, i8* nonnull %15) #13
  %16 = bitcast %"class.perfetto::TracedDictionary"* %11 to i8*
  call void @llvm.memset.p0i8.i64(i8* nonnull align 8 %16, i8 -86, i64 16, i1 false)
  call void @_ZNO8perfetto11TracedValue15WriteDictionaryEv(%"class.perfetto::TracedDictionary"* nonnull sret %11, %"class.perfetto::TracedValue"* %1) #13
  call void @_ZN8perfetto16TracedDictionary7AddItemENS_12StaticStringE(%"class.perfetto::TracedValue"* nonnull sret %12, %"class.perfetto::TracedDictionary"* nonnull %11, i8* getelementptr inbounds ([8 x i8], [8 x i8]* @.str.8, i64 0, i64 0)) #13
  %17 = bitcast %"class.perfetto::TracedValue"* %12 to i8*
  %18 = bitcast %"class.perfetto::TracedValue"* %9 to i8*
  call void @llvm.lifetime.start.p0i8(i64 16, i8* nonnull %18) #13
  call void @llvm.memcpy.p0i8.p0i8.i64(i8* nonnull align 8 %18, i8* nonnull align 8 %17, i64 16, i1 false) #13
  %19 = getelementptr inbounds %"class.blink::mojom::WebBluetoothRequestLEScanOptions", %"class.blink::mojom::WebBluetoothRequestLEScanOptions"* %0, i64 0, i32 0, i32 0, i32 0, i32 0, i32 0
  %20 = load i8, i8* %19, align 8, !range !2
  %21 = icmp eq i8 %20, 0
  br i1 %21, label %22, label %23

22:                                               ; preds = %2
  call void @_ZNO8perfetto11TracedValue12WritePointerEPKv(%"class.perfetto::TracedValue"* nonnull %9, i8* null) #13
  br label %46

23:                                               ; preds = %2
  %24 = bitcast %"class.perfetto::TracedValue"* %8 to i8*
  call void @llvm.lifetime.start.p0i8(i64 16, i8* nonnull %24)
  call void @llvm.memcpy.p0i8.p0i8.i64(i8* nonnull align 8 %24, i8* nonnull align 8 %18, i64 16, i1 false)
  %25 = bitcast %"class.perfetto::TracedArray"* %7 to i8*
  call void @llvm.lifetime.start.p0i8(i64 16, i8* nonnull %25) #13
  call void @llvm.memset.p0i8.i64(i8* nonnull align 8 %25, i8 -86, i64 16, i1 false) #13
  call void @_ZNO8perfetto11TracedValue10WriteArrayEv(%"class.perfetto::TracedArray"* nonnull sret %7, %"class.perfetto::TracedValue"* nonnull %8) #13
  %26 = getelementptr inbounds %"class.blink::mojom::WebBluetoothRequestLEScanOptions", %"class.blink::mojom::WebBluetoothRequestLEScanOptions"* %0, i64 0, i32 0, i32 0, i32 0, i32 0, i32 1, i32 0, i32 0, i32 0
  %27 = load %"class.mojo::StructPtr"*, %"class.mojo::StructPtr"** %26, align 8
  %28 = getelementptr inbounds %"class.blink::mojom::WebBluetoothRequestLEScanOptions", %"class.blink::mojom::WebBluetoothRequestLEScanOptions"* %0, i64 0, i32 0, i32 0, i32 0, i32 0, i32 1, i32 0, i32 0, i32 1
  %29 = load %"class.mojo::StructPtr"*, %"class.mojo::StructPtr"** %28, align 8
  %30 = icmp eq %"class.mojo::StructPtr"* %27, %29
  br i1 %30, label %45, label %31

31:                                               ; preds = %23
  %32 = bitcast %"class.perfetto::TracedValue"* %6 to i8*
  %33 = bitcast %"class.perfetto::TracedValue"* %5 to i8*
  %34 = bitcast %"class.perfetto::TracedValue"* %4 to i8*
  br label %35

35:                                               ; preds = %42, %31
  %36 = phi %"class.mojo::StructPtr"* [ %27, %31 ], [ %43, %42 ]
  call void @llvm.lifetime.start.p0i8(i64 16, i8* nonnull %32) #13
  call void @_ZN8perfetto11TracedArray10AppendItemEv(%"class.perfetto::TracedValue"* nonnull sret %6, %"class.perfetto::TracedArray"* nonnull %7) #13
  %37 = getelementptr inbounds %"class.mojo::StructPtr", %"class.mojo::StructPtr"* %36, i64 0, i32 0, i32 0, i32 0, i32 0
  %38 = load %"class.blink::mojom::WebBluetoothLeScanFilter"*, %"class.blink::mojom::WebBluetoothLeScanFilter"** %37, align 8
  call void @llvm.lifetime.start.p0i8(i64 16, i8* nonnull %33) #13
  call void @llvm.memcpy.p0i8.p0i8.i64(i8* nonnull align 8 %33, i8* nonnull align 8 %32, i64 16, i1 false) #13
  %39 = icmp eq %"class.blink::mojom::WebBluetoothLeScanFilter"* %38, null
  br i1 %39, label %40, label %41

40:                                               ; preds = %35
  call void @_ZNO8perfetto11TracedValue12WritePointerEPKv(%"class.perfetto::TracedValue"* nonnull %5, i8* null) #13
  br label %42

41:                                               ; preds = %35
  call void @llvm.lifetime.start.p0i8(i64 16, i8* nonnull %34) #13
  call void @llvm.memcpy.p0i8.p0i8.i64(i8* nonnull align 8 %34, i8* nonnull align 8 %33, i64 16, i1 false) #13
  call void @_ZNK5blink5mojom24WebBluetoothLeScanFilter14WriteIntoTraceEN8perfetto11TracedValueE(%"class.blink::mojom::WebBluetoothLeScanFilter"* nonnull %38, %"class.perfetto::TracedValue"* nonnull %4) #13
  call void @llvm.lifetime.end.p0i8(i64 16, i8* nonnull %34) #13
  br label %42

42:                                               ; preds = %41, %40
  call void @llvm.lifetime.end.p0i8(i64 16, i8* nonnull %33) #13
  call void @llvm.lifetime.end.p0i8(i64 16, i8* nonnull %32) #13
  %43 = getelementptr inbounds %"class.mojo::StructPtr", %"class.mojo::StructPtr"* %36, i64 1
  %44 = icmp eq %"class.mojo::StructPtr"* %43, %29
  br i1 %44, label %45, label %35

45:                                               ; preds = %42, %23
  call void @llvm.lifetime.end.p0i8(i64 16, i8* nonnull %25) #13
  call void @llvm.lifetime.end.p0i8(i64 16, i8* nonnull %24)
  br label %46

46:                                               ; preds = %45, %22
  call void @llvm.lifetime.end.p0i8(i64 16, i8* nonnull %18) #13
  call void @_ZN8perfetto16TracedDictionary7AddItemENS_12StaticStringE(%"class.perfetto::TracedValue"* nonnull sret %13, %"class.perfetto::TracedDictionary"* nonnull %11, i8* getelementptr inbounds ([22 x i8], [22 x i8]* @.str.12, i64 0, i64 0)) #13
  %47 = getelementptr inbounds %"class.blink::mojom::WebBluetoothRequestLEScanOptions", %"class.blink::mojom::WebBluetoothRequestLEScanOptions"* %0, i64 0, i32 1
  %48 = bitcast %"class.perfetto::TracedValue"* %13 to i8*
  %49 = bitcast %"class.perfetto::TracedValue"* %3 to i8*
  call void @llvm.lifetime.start.p0i8(i64 16, i8* nonnull %49) #13
  call void @llvm.memcpy.p0i8.p0i8.i64(i8* nonnull align 8 %49, i8* nonnull align 8 %48, i64 16, i1 false) #13
  %50 = load i8, i8* %47, align 1, !range !2
  %51 = icmp ne i8 %50, 0
  call void @_ZNO8perfetto11TracedValue12WriteBooleanEb(%"class.perfetto::TracedValue"* nonnull %3, i1 zeroext %51) #13
  call void @llvm.lifetime.end.p0i8(i64 16, i8* nonnull %49) #13
  call void @_ZN8perfetto16TracedDictionary7AddItemENS_12StaticStringE(%"class.perfetto::TracedValue"* nonnull sret %14, %"class.perfetto::TracedDictionary"* nonnull %11, i8* getelementptr inbounds ([26 x i8], [26 x i8]* @.str.13, i64 0, i64 0)) #13
  %52 = getelementptr inbounds %"class.blink::mojom::WebBluetoothRequestLEScanOptions", %"class.blink::mojom::WebBluetoothRequestLEScanOptions"* %0, i64 0, i32 2
  %53 = bitcast %"class.perfetto::TracedValue"* %14 to i8*
  %54 = bitcast %"class.perfetto::TracedValue"* %10 to i8*
  call void @llvm.lifetime.start.p0i8(i64 16, i8* nonnull %54) #13
  call void @llvm.memcpy.p0i8.p0i8.i64(i8* nonnull align 8 %54, i8* nonnull align 8 %53, i64 16, i1 false) #13
  %55 = load i8, i8* %52, align 1, !range !2
  %56 = icmp ne i8 %55, 0
  call void @_ZNO8perfetto11TracedValue12WriteBooleanEb(%"class.perfetto::TracedValue"* nonnull %10, i1 zeroext %56) #13
  call void @llvm.lifetime.end.p0i8(i64 16, i8* nonnull %54) #13
  call void @llvm.lifetime.end.p0i8(i64 16, i8* nonnull %15) #13
  ret void
}

; Function Attrs: nounwind ssp uwtable
define hidden zeroext i1 @_ZN5blink5mojom32WebBluetoothRequestLEScanOptions8ValidateEPKvPN4mojo8internal17ValidationContextE(i8*, %"class.mojo::internal::ValidationContext"*) local_unnamed_addr #0 align 2 {
  %3 = tail call zeroext i1 @_ZN5blink5mojom8internal37WebBluetoothRequestLEScanOptions_Data8ValidateEPKvPN4mojo8internal17ValidationContextE(i8* %0, %"class.mojo::internal::ValidationContext"* %1) #13
  ret i1 %3
}

declare zeroext i1 @_ZN5blink5mojom8internal37WebBluetoothRequestLEScanOptions_Data8ValidateEPKvPN4mojo8internal17ValidationContextE(i8*, %"class.mojo::internal::ValidationContext"*) local_unnamed_addr #2

; Function Attrs: nounwind ssp uwtable
define hidden void @_ZN5blink5mojom20WebBluetoothDeviceIdC2Ev(%"class.blink::mojom::WebBluetoothDeviceId"* nocapture) unnamed_addr #0 align 2 {
  %2 = bitcast %"class.blink::mojom::WebBluetoothDeviceId"* %0 to i8*
  tail call void @llvm.memset.p0i8.i64(i8* align 8 %2, i8 0, i64 24, i1 false) #13
  ret void
}

; Function Attrs: nounwind ssp uwtable
define hidden void @_ZN5blink5mojom20WebBluetoothDeviceIdC2ERKNSt3__112basic_stringIcNS2_11char_traitsIcEENS2_9allocatorIcEEEE(%"class.blink::mojom::WebBluetoothDeviceId"*, %"class.std::__1::basic_string"* nocapture readonly dereferenceable(24)) unnamed_addr #0 align 2 {
  %3 = bitcast %"class.std::__1::basic_string"* %1 to %"struct.std::__1::basic_string<char, std::__1::char_traits<char>, std::__1::allocator<char> >::__short"*
  %4 = getelementptr inbounds %"struct.std::__1::basic_string<char, std::__1::char_traits<char>, std::__1::allocator<char> >::__short", %"struct.std::__1::basic_string<char, std::__1::char_traits<char>, std::__1::allocator<char> >::__short"* %3, i64 0, i32 1, i32 0
  %5 = load i8, i8* %4, align 1
  %6 = icmp slt i8 %5, 0
  br i1 %6, label %10, label %7

7:                                                ; preds = %2
  %8 = bitcast %"class.blink::mojom::WebBluetoothDeviceId"* %0 to i8*
  %9 = bitcast %"class.std::__1::basic_string"* %1 to i8*
  tail call void @llvm.memcpy.p0i8.p0i8.i64(i8* align 8 %8, i8* align 8 %9, i64 24, i1 false) #13
  br label %16

10:                                               ; preds = %2
  %11 = getelementptr inbounds %"class.blink::mojom::WebBluetoothDeviceId", %"class.blink::mojom::WebBluetoothDeviceId"* %0, i64 0, i32 0
  %12 = getelementptr inbounds %"class.std::__1::basic_string", %"class.std::__1::basic_string"* %1, i64 0, i32 0, i32 0, i32 0, i32 0, i32 0, i32 0
  %13 = load i8*, i8** %12, align 8
  %14 = getelementptr inbounds %"class.std::__1::basic_string", %"class.std::__1::basic_string"* %1, i64 0, i32 0, i32 0, i32 0, i32 0, i32 0, i32 1
  %15 = load i64, i64* %14, align 8
  tail call void @_ZNSt3__112basic_stringIcNS_11char_traitsIcEENS_9allocatorIcEEE25__init_copy_ctor_externalEPKcm(%"class.std::__1::basic_string"* %11, i8* %13, i64 %15) #13
  br label %16

16:                                               ; preds = %7, %10
  ret void
}

; Function Attrs: nounwind ssp uwtable
define hidden void @_ZN5blink5mojom20WebBluetoothDeviceIdD2Ev(%"class.blink::mojom::WebBluetoothDeviceId"* nocapture readonly) unnamed_addr #0 align 2 {
  %2 = bitcast %"class.blink::mojom::WebBluetoothDeviceId"* %0 to %"struct.std::__1::basic_string<char, std::__1::char_traits<char>, std::__1::allocator<char> >::__short"*
  %3 = getelementptr inbounds %"struct.std::__1::basic_string<char, std::__1::char_traits<char>, std::__1::allocator<char> >::__short", %"struct.std::__1::basic_string<char, std::__1::char_traits<char>, std::__1::allocator<char> >::__short"* %2, i64 0, i32 1, i32 0
  %4 = load i8, i8* %3, align 1
  %5 = icmp slt i8 %4, 0
  br i1 %5, label %6, label %9

6:                                                ; preds = %1
  %7 = getelementptr inbounds %"class.blink::mojom::WebBluetoothDeviceId", %"class.blink::mojom::WebBluetoothDeviceId"* %0, i64 0, i32 0, i32 0, i32 0, i32 0, i32 0, i32 0, i32 0
  %8 = load i8*, i8** %7, align 8
  tail call void @_ZdlPv(i8* %8) #14
  br label %9

9:                                                ; preds = %1, %6
  ret void
}

; Function Attrs: nounwind ssp uwtable
define hidden void @_ZNK5blink5mojom20WebBluetoothDeviceId14WriteIntoTraceEN8perfetto11TracedValueE(%"class.blink::mojom::WebBluetoothDeviceId"*, %"class.perfetto::TracedValue"*) local_unnamed_addr #0 align 2 {
  %3 = alloca %"class.perfetto::TracedValue", align 8
  %4 = alloca %"class.perfetto::TracedDictionary", align 8
  %5 = alloca %"class.perfetto::TracedValue", align 8
  %6 = bitcast %"class.perfetto::TracedDictionary"* %4 to i8*
  call void @llvm.lifetime.start.p0i8(i64 16, i8* nonnull %6) #13
  %7 = bitcast %"class.perfetto::TracedDictionary"* %4 to i8*
  call void @llvm.memset.p0i8.i64(i8* nonnull align 8 %7, i8 -86, i64 16, i1 false)
  call void @_ZNO8perfetto11TracedValue15WriteDictionaryEv(%"class.perfetto::TracedDictionary"* nonnull sret %4, %"class.perfetto::TracedValue"* %1) #13
  call void @_ZN8perfetto16TracedDictionary7AddItemENS_12StaticStringE(%"class.perfetto::TracedValue"* nonnull sret %5, %"class.perfetto::TracedDictionary"* nonnull %4, i8* getelementptr inbounds ([10 x i8], [10 x i8]* @.str.14, i64 0, i64 0)) #13
  %8 = getelementptr inbounds %"class.blink::mojom::WebBluetoothDeviceId", %"class.blink::mojom::WebBluetoothDeviceId"* %0, i64 0, i32 0
  %9 = bitcast %"class.perfetto::TracedValue"* %5 to i8*
  %10 = bitcast %"class.perfetto::TracedValue"* %3 to i8*
  call void @llvm.lifetime.start.p0i8(i64 16, i8* nonnull %10) #13
  call void @llvm.memcpy.p0i8.p0i8.i64(i8* nonnull align 8 %10, i8* nonnull align 8 %9, i64 16, i1 false) #13
  call void @_ZNO8perfetto11TracedValue11WriteStringERKNSt3__112basic_stringIcNS1_11char_traitsIcEENS1_9allocatorIcEEEE(%"class.perfetto::TracedValue"* nonnull %3, %"class.std::__1::basic_string"* dereferenceable(24) %8) #13
  call void @llvm.lifetime.end.p0i8(i64 16, i8* nonnull %10) #13
  call void @llvm.lifetime.end.p0i8(i64 16, i8* nonnull %6) #13
  ret void
}

; Function Attrs: nounwind ssp uwtable
define hidden zeroext i1 @_ZN5blink5mojom20WebBluetoothDeviceId8ValidateEPKvPN4mojo8internal17ValidationContextE(i8*, %"class.mojo::internal::ValidationContext"*) local_unnamed_addr #0 align 2 {
  %3 = tail call zeroext i1 @_ZN5blink5mojom8internal25WebBluetoothDeviceId_Data8ValidateEPKvPN4mojo8internal17ValidationContextE(i8* %0, %"class.mojo::internal::ValidationContext"* %1) #13
  ret i1 %3
}

declare zeroext i1 @_ZN5blink5mojom8internal25WebBluetoothDeviceId_Data8ValidateEPKvPN4mojo8internal17ValidationContextE(i8*, %"class.mojo::internal::ValidationContext"*) local_unnamed_addr #2

; Function Attrs: nounwind ssp uwtable
define hidden void @_ZN5blink5mojom18WebBluetoothDeviceC2Ev(%"class.blink::mojom::WebBluetoothDevice"*) unnamed_addr #0 align 2 {
  %2 = getelementptr inbounds %"class.blink::mojom::WebBluetoothDevice", %"class.blink::mojom::WebBluetoothDevice"* %0, i64 0, i32 0
  tail call void @_ZN5blink20WebBluetoothDeviceIdC1Ev(%"class.blink::WebBluetoothDeviceId"* %2) #13
  %3 = getelementptr inbounds %"class.blink::mojom::WebBluetoothDevice", %"class.blink::mojom::WebBluetoothDevice"* %0, i64 0, i32 1, i32 0, i32 0, i32 0, i32 0
  store i8 0, i8* %3, align 8
  %4 = getelementptr inbounds %"class.blink::mojom::WebBluetoothDevice", %"class.blink::mojom::WebBluetoothDevice"* %0, i64 0, i32 1, i32 0, i32 0, i32 0, i32 1
  %5 = bitcast %union.anon.11* %4 to i8*
  tail call void @llvm.memset.p0i8.i64(i8* align 8 %5, i8 0, i64 24, i1 false) #13
  ret void
}

declare void @_ZN5blink20WebBluetoothDeviceIdC1Ev(%"class.blink::WebBluetoothDeviceId"*) unnamed_addr #2

; Function Attrs: nounwind ssp uwtable
define hidden void @_ZN5blink5mojom18WebBluetoothDeviceC2ERKNS_20WebBluetoothDeviceIdERKN4absl8optionalINSt3__112basic_stringIcNS7_11char_traitsIcEENS7_9allocatorIcEEEEEE(%"class.blink::mojom::WebBluetoothDevice"*, %"class.blink::WebBluetoothDeviceId"* nocapture readonly dereferenceable(24), %"class.absl::optional.7"* nocapture readonly dereferenceable(32)) unnamed_addr #0 align 2 {
  %4 = bitcast %"class.blink::WebBluetoothDeviceId"* %1 to %"struct.std::__1::basic_string<char, std::__1::char_traits<char>, std::__1::allocator<char> >::__short"*
  %5 = getelementptr inbounds %"struct.std::__1::basic_string<char, std::__1::char_traits<char>, std::__1::allocator<char> >::__short", %"struct.std::__1::basic_string<char, std::__1::char_traits<char>, std::__1::allocator<char> >::__short"* %4, i64 0, i32 1, i32 0
  %6 = load i8, i8* %5, align 1
  %7 = icmp slt i8 %6, 0
  br i1 %7, label %11, label %8

8:                                                ; preds = %3
  %9 = bitcast %"class.blink::mojom::WebBluetoothDevice"* %0 to i8*
  %10 = bitcast %"class.blink::WebBluetoothDeviceId"* %1 to i8*
  tail call void @llvm.memcpy.p0i8.p0i8.i64(i8* align 8 %9, i8* align 8 %10, i64 24, i1 false) #13
  br label %17

11:                                               ; preds = %3
  %12 = getelementptr inbounds %"class.blink::mojom::WebBluetoothDevice", %"class.blink::mojom::WebBluetoothDevice"* %0, i64 0, i32 0, i32 0
  %13 = getelementptr inbounds %"class.blink::WebBluetoothDeviceId", %"class.blink::WebBluetoothDeviceId"* %1, i64 0, i32 0, i32 0, i32 0, i32 0, i32 0, i32 0, i32 0
  %14 = load i8*, i8** %13, align 8
  %15 = getelementptr inbounds %"class.blink::WebBluetoothDeviceId", %"class.blink::WebBluetoothDeviceId"* %1, i64 0, i32 0, i32 0, i32 0, i32 0, i32 0, i32 0, i32 1
  %16 = load i64, i64* %15, align 8
  tail call void @_ZNSt3__112basic_stringIcNS_11char_traitsIcEENS_9allocatorIcEEE25__init_copy_ctor_externalEPKcm(%"class.std::__1::basic_string"* %12, i8* %14, i64 %16) #13
  br label %17

17:                                               ; preds = %8, %11
  %18 = getelementptr inbounds %"class.blink::mojom::WebBluetoothDevice", %"class.blink::mojom::WebBluetoothDevice"* %0, i64 0, i32 1, i32 0, i32 0, i32 0, i32 0
  %19 = getelementptr inbounds %"class.absl::optional.7", %"class.absl::optional.7"* %2, i64 0, i32 0, i32 0, i32 0, i32 0
  tail call void @llvm.memset.p0i8.i64(i8* align 8 %18, i8 0, i64 32, i1 false) #13
  %20 = load i8, i8* %19, align 8, !range !2
  %21 = icmp eq i8 %20, 0
  br i1 %21, label %38, label %22

22:                                               ; preds = %17
  %23 = getelementptr inbounds %"class.absl::optional.7", %"class.absl::optional.7"* %2, i64 0, i32 0, i32 0, i32 0, i32 1, i32 0
  %24 = getelementptr inbounds %"class.blink::mojom::WebBluetoothDevice", %"class.blink::mojom::WebBluetoothDevice"* %0, i64 0, i32 1, i32 0, i32 0, i32 0, i32 1, i32 0
  %25 = bitcast %"class.std::__1::basic_string"* %23 to %"struct.std::__1::basic_string<char, std::__1::char_traits<char>, std::__1::allocator<char> >::__short"*
  %26 = getelementptr inbounds %"struct.std::__1::basic_string<char, std::__1::char_traits<char>, std::__1::allocator<char> >::__short", %"struct.std::__1::basic_string<char, std::__1::char_traits<char>, std::__1::allocator<char> >::__short"* %25, i64 0, i32 1, i32 0
  %27 = load i8, i8* %26, align 1
  %28 = icmp slt i8 %27, 0
  br i1 %28, label %32, label %29

29:                                               ; preds = %22
  %30 = bitcast %"class.std::__1::basic_string"* %24 to i8*
  %31 = bitcast %"class.std::__1::basic_string"* %23 to i8*
  tail call void @llvm.memcpy.p0i8.p0i8.i64(i8* align 8 %30, i8* align 8 %31, i64 24, i1 false) #13
  br label %37

32:                                               ; preds = %22
  %33 = getelementptr inbounds %"class.std::__1::basic_string", %"class.std::__1::basic_string"* %23, i64 0, i32 0, i32 0, i32 0, i32 0, i32 0, i32 0
  %34 = load i8*, i8** %33, align 8
  %35 = getelementptr inbounds %"class.absl::optional.7", %"class.absl::optional.7"* %2, i64 0, i32 0, i32 0, i32 0, i32 1, i32 0, i32 0, i32 0, i32 0, i32 0, i32 0, i32 1
  %36 = load i64, i64* %35, align 8
  tail call void @_ZNSt3__112basic_stringIcNS_11char_traitsIcEENS_9allocatorIcEEE25__init_copy_ctor_externalEPKcm(%"class.std::__1::basic_string"* %24, i8* %34, i64 %36) #13
  br label %37

37:                                               ; preds = %32, %29
  store i8 1, i8* %18, align 8
  br label %38

38:                                               ; preds = %17, %37
  ret void
}

; Function Attrs: nounwind ssp uwtable
define hidden void @_ZN5blink5mojom18WebBluetoothDeviceD2Ev(%"class.blink::mojom::WebBluetoothDevice"*) unnamed_addr #0 align 2 {
  %2 = getelementptr inbounds %"class.blink::mojom::WebBluetoothDevice", %"class.blink::mojom::WebBluetoothDevice"* %0, i64 0, i32 1, i32 0, i32 0, i32 0, i32 0
  %3 = load i8, i8* %2, align 8, !range !2
  %4 = icmp eq i8 %3, 0
  br i1 %4, label %15, label %5

5:                                                ; preds = %1
  %6 = getelementptr inbounds %"class.blink::mojom::WebBluetoothDevice", %"class.blink::mojom::WebBluetoothDevice"* %0, i64 0, i32 1, i32 0, i32 0, i32 0, i32 1, i32 0
  %7 = bitcast %"class.std::__1::basic_string"* %6 to %"struct.std::__1::basic_string<char, std::__1::char_traits<char>, std::__1::allocator<char> >::__short"*
  %8 = getelementptr inbounds %"struct.std::__1::basic_string<char, std::__1::char_traits<char>, std::__1::allocator<char> >::__short", %"struct.std::__1::basic_string<char, std::__1::char_traits<char>, std::__1::allocator<char> >::__short"* %7, i64 0, i32 1, i32 0
  %9 = load i8, i8* %8, align 1
  %10 = icmp slt i8 %9, 0
  br i1 %10, label %11, label %14

11:                                               ; preds = %5
  %12 = getelementptr inbounds %"class.std::__1::basic_string", %"class.std::__1::basic_string"* %6, i64 0, i32 0, i32 0, i32 0, i32 0, i32 0, i32 0
  %13 = load i8*, i8** %12, align 8
  tail call void @_ZdlPv(i8* %13) #14
  br label %14

14:                                               ; preds = %11, %5
  store i8 0, i8* %2, align 8
  br label %15

15:                                               ; preds = %1, %14
  %16 = getelementptr inbounds %"class.blink::mojom::WebBluetoothDevice", %"class.blink::mojom::WebBluetoothDevice"* %0, i64 0, i32 0
  tail call void @_ZN5blink20WebBluetoothDeviceIdD1Ev(%"class.blink::WebBluetoothDeviceId"* %16) #13
  ret void
}

; Function Attrs: nounwind
declare void @_ZN5blink20WebBluetoothDeviceIdD1Ev(%"class.blink::WebBluetoothDeviceId"*) unnamed_addr #6

; Function Attrs: nounwind ssp uwtable
define hidden void @_ZNK5blink5mojom18WebBluetoothDevice14WriteIntoTraceEN8perfetto11TracedValueE(%"class.blink::mojom::WebBluetoothDevice"*, %"class.perfetto::TracedValue"*) local_unnamed_addr #0 align 2 {
  %3 = alloca %"class.perfetto::TracedValue", align 8
  %4 = alloca %"class.perfetto::TracedValue", align 8
  %5 = alloca %"class.perfetto::TracedDictionary", align 8
  %6 = alloca %"class.perfetto::TracedValue", align 8
  %7 = alloca %"class.std::__1::basic_string", align 8
  %8 = alloca %"class.perfetto::TracedValue", align 8
  %9 = bitcast %"class.perfetto::TracedDictionary"* %5 to i8*
  call void @llvm.lifetime.start.p0i8(i64 16, i8* nonnull %9) #13
  %10 = bitcast %"class.perfetto::TracedDictionary"* %5 to i8*
  call void @llvm.memset.p0i8.i64(i8* nonnull align 8 %10, i8 -86, i64 16, i1 false)
  call void @_ZNO8perfetto11TracedValue15WriteDictionaryEv(%"class.perfetto::TracedDictionary"* nonnull sret %5, %"class.perfetto::TracedValue"* %1) #13
  call void @_ZN8perfetto16TracedDictionary7AddItemENS_12StaticStringE(%"class.perfetto::TracedValue"* nonnull sret %6, %"class.perfetto::TracedDictionary"* nonnull %5, i8* getelementptr inbounds ([3 x i8], [3 x i8]* @.str.5, i64 0, i64 0)) #13
  %11 = bitcast %"class.std::__1::basic_string"* %7 to i8*
  call void @llvm.lifetime.start.p0i8(i64 24, i8* nonnull %11) #13
  %12 = bitcast %"class.std::__1::basic_string"* %7 to %"struct.std::__1::basic_string<char, std::__1::char_traits<char>, std::__1::allocator<char> >::__short"*
  %13 = getelementptr inbounds %"struct.std::__1::basic_string<char, std::__1::char_traits<char>, std::__1::allocator<char> >::__short", %"struct.std::__1::basic_string<char, std::__1::char_traits<char>, std::__1::allocator<char> >::__short"* %12, i64 0, i32 1, i32 0
  store i8 7, i8* %13, align 1
  call void @llvm.memcpy.p0i8.p0i8.i64(i8* nonnull align 8 %11, i8* align 1 getelementptr inbounds ([8 x i8], [8 x i8]* @.str.1, i64 0, i64 0), i64 7, i1 false) #13
  %14 = getelementptr inbounds i8, i8* %11, i64 7
  store i8 0, i8* %14, align 1
  call void @_ZNO8perfetto11TracedValue11WriteStringERKNSt3__112basic_stringIcNS1_11char_traitsIcEENS1_9allocatorIcEEEE(%"class.perfetto::TracedValue"* nonnull %6, %"class.std::__1::basic_string"* nonnull dereferenceable(24) %7) #13
  %15 = load i8, i8* %13, align 1
  %16 = icmp slt i8 %15, 0
  br i1 %16, label %17, label %20

17:                                               ; preds = %2
  %18 = getelementptr inbounds %"class.std::__1::basic_string", %"class.std::__1::basic_string"* %7, i64 0, i32 0, i32 0, i32 0, i32 0, i32 0, i32 0
  %19 = load i8*, i8** %18, align 8
  call void @_ZdlPv(i8* %19) #14
  br label %20

20:                                               ; preds = %2, %17
  call void @llvm.lifetime.end.p0i8(i64 24, i8* nonnull %11) #13
  call void @_ZN8perfetto16TracedDictionary7AddItemENS_12StaticStringE(%"class.perfetto::TracedValue"* nonnull sret %8, %"class.perfetto::TracedDictionary"* nonnull %5, i8* getelementptr inbounds ([5 x i8], [5 x i8]* @.str.2, i64 0, i64 0)) #13
  %21 = bitcast %"class.perfetto::TracedValue"* %8 to i8*
  %22 = bitcast %"class.perfetto::TracedValue"* %4 to i8*
  call void @llvm.lifetime.start.p0i8(i64 16, i8* nonnull %22) #13
  call void @llvm.memcpy.p0i8.p0i8.i64(i8* nonnull align 8 %22, i8* nonnull align 8 %21, i64 16, i1 false) #13
  %23 = getelementptr inbounds %"class.blink::mojom::WebBluetoothDevice", %"class.blink::mojom::WebBluetoothDevice"* %0, i64 0, i32 1, i32 0, i32 0, i32 0, i32 0
  %24 = load i8, i8* %23, align 8, !range !2
  %25 = icmp eq i8 %24, 0
  br i1 %25, label %26, label %27

26:                                               ; preds = %20
  call void @_ZNO8perfetto11TracedValue12WritePointerEPKv(%"class.perfetto::TracedValue"* nonnull %4, i8* null) #13
  br label %30

27:                                               ; preds = %20
  %28 = getelementptr inbounds %"class.blink::mojom::WebBluetoothDevice", %"class.blink::mojom::WebBluetoothDevice"* %0, i64 0, i32 1, i32 0, i32 0, i32 0, i32 1, i32 0
  %29 = bitcast %"class.perfetto::TracedValue"* %3 to i8*
  call void @llvm.lifetime.start.p0i8(i64 16, i8* nonnull %29) #13
  call void @llvm.memcpy.p0i8.p0i8.i64(i8* nonnull align 8 %29, i8* nonnull align 8 %22, i64 16, i1 false) #13
  call void @_ZNO8perfetto11TracedValue11WriteStringERKNSt3__112basic_stringIcNS1_11char_traitsIcEENS1_9allocatorIcEEEE(%"class.perfetto::TracedValue"* nonnull %3, %"class.std::__1::basic_string"* dereferenceable(24) %28) #13
  call void @llvm.lifetime.end.p0i8(i64 16, i8* nonnull %29) #13
  br label %30

30:                                               ; preds = %27, %26
  call void @llvm.lifetime.end.p0i8(i64 16, i8* nonnull %22) #13
  call void @llvm.lifetime.end.p0i8(i64 16, i8* nonnull %9) #13
  ret void
}

; Function Attrs: nounwind ssp uwtable
define hidden zeroext i1 @_ZN5blink5mojom18WebBluetoothDevice8ValidateEPKvPN4mojo8internal17ValidationContextE(i8*, %"class.mojo::internal::ValidationContext"*) local_unnamed_addr #0 align 2 {
  %3 = tail call zeroext i1 @_ZN5blink5mojom8internal23WebBluetoothDevice_Data8ValidateEPKvPN4mojo8internal17ValidationContextE(i8* %0, %"class.mojo::internal::ValidationContext"* %1) #13
  ret i1 %3
}

declare zeroext i1 @_ZN5blink5mojom8internal23WebBluetoothDevice_Data8ValidateEPKvPN4mojo8internal17ValidationContextE(i8*, %"class.mojo::internal::ValidationContext"*) local_unnamed_addr #2

; Function Attrs: nounwind ssp uwtable
define hidden void @_ZN5blink5mojom29WebBluetoothRemoteGATTServiceC2Ev(%"class.blink::mojom::WebBluetoothRemoteGATTService"*) unnamed_addr #0 align 2 {
  %2 = bitcast %"class.blink::mojom::WebBluetoothRemoteGATTService"* %0 to i8*
  tail call void @llvm.memset.p0i8.i64(i8* align 8 %2, i8 0, i64 24, i1 false) #13
  %3 = getelementptr inbounds %"class.blink::mojom::WebBluetoothRemoteGATTService", %"class.blink::mojom::WebBluetoothRemoteGATTService"* %0, i64 0, i32 1
  tail call void @_ZN6device13BluetoothUUIDC1Ev(%"class.device::BluetoothUUID"* %3) #13
  ret void
}

declare void @_ZN6device13BluetoothUUIDC1Ev(%"class.device::BluetoothUUID"*) unnamed_addr #2

; Function Attrs: nounwind ssp uwtable
define hidden void @_ZN5blink5mojom29WebBluetoothRemoteGATTServiceC2ERKNSt3__112basic_stringIcNS2_11char_traitsIcEENS2_9allocatorIcEEEERKN6device13BluetoothUUIDE(%"class.blink::mojom::WebBluetoothRemoteGATTService"*, %"class.std::__1::basic_string"* nocapture readonly dereferenceable(24), %"class.device::BluetoothUUID"* nocapture readonly dereferenceable(56)) unnamed_addr #0 align 2 {
  %4 = bitcast %"class.std::__1::basic_string"* %1 to %"struct.std::__1::basic_string<char, std::__1::char_traits<char>, std::__1::allocator<char> >::__short"*
  %5 = getelementptr inbounds %"struct.std::__1::basic_string<char, std::__1::char_traits<char>, std::__1::allocator<char> >::__short", %"struct.std::__1::basic_string<char, std::__1::char_traits<char>, std::__1::allocator<char> >::__short"* %4, i64 0, i32 1, i32 0
  %6 = load i8, i8* %5, align 1
  %7 = icmp slt i8 %6, 0
  br i1 %7, label %11, label %8

8:                                                ; preds = %3
  %9 = bitcast %"class.blink::mojom::WebBluetoothRemoteGATTService"* %0 to i8*
  %10 = bitcast %"class.std::__1::basic_string"* %1 to i8*
  tail call void @llvm.memcpy.p0i8.p0i8.i64(i8* align 8 %9, i8* align 8 %10, i64 24, i1 false) #13
  br label %17

11:                                               ; preds = %3
  %12 = getelementptr inbounds %"class.blink::mojom::WebBluetoothRemoteGATTService", %"class.blink::mojom::WebBluetoothRemoteGATTService"* %0, i64 0, i32 0
  %13 = getelementptr inbounds %"class.std::__1::basic_string", %"class.std::__1::basic_string"* %1, i64 0, i32 0, i32 0, i32 0, i32 0, i32 0, i32 0
  %14 = load i8*, i8** %13, align 8
  %15 = getelementptr inbounds %"class.std::__1::basic_string", %"class.std::__1::basic_string"* %1, i64 0, i32 0, i32 0, i32 0, i32 0, i32 0, i32 1
  %16 = load i64, i64* %15, align 8
  tail call void @_ZNSt3__112basic_stringIcNS_11char_traitsIcEENS_9allocatorIcEEE25__init_copy_ctor_externalEPKcm(%"class.std::__1::basic_string"* %12, i8* %14, i64 %16) #13
  br label %17

17:                                               ; preds = %8, %11
  %18 = getelementptr inbounds %"class.blink::mojom::WebBluetoothRemoteGATTService", %"class.blink::mojom::WebBluetoothRemoteGATTService"* %0, i64 0, i32 1, i32 0
  %19 = getelementptr inbounds %"class.device::BluetoothUUID", %"class.device::BluetoothUUID"* %2, i64 0, i32 0
  %20 = load i32, i32* %19, align 8
  store i32 %20, i32* %18, align 8
  %21 = getelementptr inbounds %"class.blink::mojom::WebBluetoothRemoteGATTService", %"class.blink::mojom::WebBluetoothRemoteGATTService"* %0, i64 0, i32 1, i32 1
  %22 = getelementptr inbounds %"class.device::BluetoothUUID", %"class.device::BluetoothUUID"* %2, i64 0, i32 1
  %23 = bitcast %"class.std::__1::basic_string"* %22 to %"struct.std::__1::basic_string<char, std::__1::char_traits<char>, std::__1::allocator<char> >::__short"*
  %24 = getelementptr inbounds %"struct.std::__1::basic_string<char, std::__1::char_traits<char>, std::__1::allocator<char> >::__short", %"struct.std::__1::basic_string<char, std::__1::char_traits<char>, std::__1::allocator<char> >::__short"* %23, i64 0, i32 1, i32 0
  %25 = load i8, i8* %24, align 1
  %26 = icmp slt i8 %25, 0
  br i1 %26, label %30, label %27

27:                                               ; preds = %17
  %28 = bitcast %"class.std::__1::basic_string"* %21 to i8*
  %29 = bitcast %"class.std::__1::basic_string"* %22 to i8*
  tail call void @llvm.memcpy.p0i8.p0i8.i64(i8* align 8 %28, i8* align 8 %29, i64 24, i1 false) #13
  br label %35

30:                                               ; preds = %17
  %31 = getelementptr inbounds %"class.std::__1::basic_string", %"class.std::__1::basic_string"* %22, i64 0, i32 0, i32 0, i32 0, i32 0, i32 0, i32 0
  %32 = load i8*, i8** %31, align 8
  %33 = getelementptr inbounds %"class.device::BluetoothUUID", %"class.device::BluetoothUUID"* %2, i64 0, i32 1, i32 0, i32 0, i32 0, i32 0, i32 0, i32 1
  %34 = load i64, i64* %33, align 8
  tail call void @_ZNSt3__112basic_stringIcNS_11char_traitsIcEENS_9allocatorIcEEE25__init_copy_ctor_externalEPKcm(%"class.std::__1::basic_string"* %21, i8* %32, i64 %34) #13
  br label %35

35:                                               ; preds = %30, %27
  %36 = getelementptr inbounds %"class.blink::mojom::WebBluetoothRemoteGATTService", %"class.blink::mojom::WebBluetoothRemoteGATTService"* %0, i64 0, i32 1, i32 2
  %37 = getelementptr inbounds %"class.device::BluetoothUUID", %"class.device::BluetoothUUID"* %2, i64 0, i32 2
  %38 = bitcast %"class.std::__1::basic_string"* %37 to %"struct.std::__1::basic_string<char, std::__1::char_traits<char>, std::__1::allocator<char> >::__short"*
  %39 = getelementptr inbounds %"struct.std::__1::basic_string<char, std::__1::char_traits<char>, std::__1::allocator<char> >::__short", %"struct.std::__1::basic_string<char, std::__1::char_traits<char>, std::__1::allocator<char> >::__short"* %38, i64 0, i32 1, i32 0
  %40 = load i8, i8* %39, align 1
  %41 = icmp slt i8 %40, 0
  br i1 %41, label %45, label %42

42:                                               ; preds = %35
  %43 = bitcast %"class.std::__1::basic_string"* %36 to i8*
  %44 = bitcast %"class.std::__1::basic_string"* %37 to i8*
  tail call void @llvm.memcpy.p0i8.p0i8.i64(i8* align 8 %43, i8* align 8 %44, i64 24, i1 false) #13
  br label %50

45:                                               ; preds = %35
  %46 = getelementptr inbounds %"class.std::__1::basic_string", %"class.std::__1::basic_string"* %37, i64 0, i32 0, i32 0, i32 0, i32 0, i32 0, i32 0
  %47 = load i8*, i8** %46, align 8
  %48 = getelementptr inbounds %"class.device::BluetoothUUID", %"class.device::BluetoothUUID"* %2, i64 0, i32 2, i32 0, i32 0, i32 0, i32 0, i32 0, i32 1
  %49 = load i64, i64* %48, align 8
  tail call void @_ZNSt3__112basic_stringIcNS_11char_traitsIcEENS_9allocatorIcEEE25__init_copy_ctor_externalEPKcm(%"class.std::__1::basic_string"* %36, i8* %47, i64 %49) #13
  br label %50

50:                                               ; preds = %42, %45
  ret void
}

; Function Attrs: nounwind ssp uwtable
define hidden void @_ZN5blink5mojom29WebBluetoothRemoteGATTServiceD2Ev(%"class.blink::mojom::WebBluetoothRemoteGATTService"*) unnamed_addr #0 align 2 {
  %2 = getelementptr inbounds %"class.blink::mojom::WebBluetoothRemoteGATTService", %"class.blink::mojom::WebBluetoothRemoteGATTService"* %0, i64 0, i32 1
  tail call void @_ZN6device13BluetoothUUIDD1Ev(%"class.device::BluetoothUUID"* %2) #13
  %3 = bitcast %"class.blink::mojom::WebBluetoothRemoteGATTService"* %0 to %"struct.std::__1::basic_string<char, std::__1::char_traits<char>, std::__1::allocator<char> >::__short"*
  %4 = getelementptr inbounds %"struct.std::__1::basic_string<char, std::__1::char_traits<char>, std::__1::allocator<char> >::__short", %"struct.std::__1::basic_string<char, std::__1::char_traits<char>, std::__1::allocator<char> >::__short"* %3, i64 0, i32 1, i32 0
  %5 = load i8, i8* %4, align 1
  %6 = icmp slt i8 %5, 0
  br i1 %6, label %7, label %10

7:                                                ; preds = %1
  %8 = getelementptr inbounds %"class.blink::mojom::WebBluetoothRemoteGATTService", %"class.blink::mojom::WebBluetoothRemoteGATTService"* %0, i64 0, i32 0, i32 0, i32 0, i32 0, i32 0, i32 0, i32 0
  %9 = load i8*, i8** %8, align 8
  tail call void @_ZdlPv(i8* %9) #14
  br label %10

10:                                               ; preds = %1, %7
  ret void
}

; Function Attrs: nounwind
declare void @_ZN6device13BluetoothUUIDD1Ev(%"class.device::BluetoothUUID"*) unnamed_addr #6

; Function Attrs: nounwind ssp uwtable
define hidden void @_ZNK5blink5mojom29WebBluetoothRemoteGATTService14WriteIntoTraceEN8perfetto11TracedValueE(%"class.blink::mojom::WebBluetoothRemoteGATTService"*, %"class.perfetto::TracedValue"*) local_unnamed_addr #0 align 2 {
  %3 = alloca %"class.perfetto::TracedValue", align 8
  %4 = alloca %"class.perfetto::TracedDictionary", align 8
  %5 = alloca %"class.perfetto::TracedValue", align 8
  %6 = alloca %"class.perfetto::TracedValue", align 8
  %7 = alloca %"class.std::__1::basic_string", align 8
  %8 = bitcast %"class.perfetto::TracedDictionary"* %4 to i8*
  call void @llvm.lifetime.start.p0i8(i64 16, i8* nonnull %8) #13
  %9 = bitcast %"class.perfetto::TracedDictionary"* %4 to i8*
  call void @llvm.memset.p0i8.i64(i8* nonnull align 8 %9, i8 -86, i64 16, i1 false)
  call void @_ZNO8perfetto11TracedValue15WriteDictionaryEv(%"class.perfetto::TracedDictionary"* nonnull sret %4, %"class.perfetto::TracedValue"* %1) #13
  call void @_ZN8perfetto16TracedDictionary7AddItemENS_12StaticStringE(%"class.perfetto::TracedValue"* nonnull sret %5, %"class.perfetto::TracedDictionary"* nonnull %4, i8* getelementptr inbounds ([12 x i8], [12 x i8]* @.str.15, i64 0, i64 0)) #13
  %10 = getelementptr inbounds %"class.blink::mojom::WebBluetoothRemoteGATTService", %"class.blink::mojom::WebBluetoothRemoteGATTService"* %0, i64 0, i32 0
  %11 = bitcast %"class.perfetto::TracedValue"* %5 to i8*
  %12 = bitcast %"class.perfetto::TracedValue"* %3 to i8*
  call void @llvm.lifetime.start.p0i8(i64 16, i8* nonnull %12) #13
  call void @llvm.memcpy.p0i8.p0i8.i64(i8* nonnull align 8 %12, i8* nonnull align 8 %11, i64 16, i1 false) #13
  call void @_ZNO8perfetto11TracedValue11WriteStringERKNSt3__112basic_stringIcNS1_11char_traitsIcEENS1_9allocatorIcEEEE(%"class.perfetto::TracedValue"* nonnull %3, %"class.std::__1::basic_string"* dereferenceable(24) %10) #13
  call void @llvm.lifetime.end.p0i8(i64 16, i8* nonnull %12) #13
  call void @_ZN8perfetto16TracedDictionary7AddItemENS_12StaticStringE(%"class.perfetto::TracedValue"* nonnull sret %6, %"class.perfetto::TracedDictionary"* nonnull %4, i8* getelementptr inbounds ([5 x i8], [5 x i8]* @.str.16, i64 0, i64 0)) #13
  %13 = bitcast %"class.std::__1::basic_string"* %7 to i8*
  call void @llvm.lifetime.start.p0i8(i64 24, i8* nonnull %13) #13
  %14 = bitcast %"class.std::__1::basic_string"* %7 to %"struct.std::__1::basic_string<char, std::__1::char_traits<char>, std::__1::allocator<char> >::__short"*
  %15 = getelementptr inbounds %"struct.std::__1::basic_string<char, std::__1::char_traits<char>, std::__1::allocator<char> >::__short", %"struct.std::__1::basic_string<char, std::__1::char_traits<char>, std::__1::allocator<char> >::__short"* %14, i64 0, i32 1, i32 0
  store i8 7, i8* %15, align 1
  call void @llvm.memcpy.p0i8.p0i8.i64(i8* nonnull align 8 %13, i8* align 1 getelementptr inbounds ([8 x i8], [8 x i8]* @.str.1, i64 0, i64 0), i64 7, i1 false) #13
  %16 = getelementptr inbounds i8, i8* %13, i64 7
  store i8 0, i8* %16, align 1
  call void @_ZNO8perfetto11TracedValue11WriteStringERKNSt3__112basic_stringIcNS1_11char_traitsIcEENS1_9allocatorIcEEEE(%"class.perfetto::TracedValue"* nonnull %6, %"class.std::__1::basic_string"* nonnull dereferenceable(24) %7) #13
  %17 = load i8, i8* %15, align 1
  %18 = icmp slt i8 %17, 0
  br i1 %18, label %19, label %22

19:                                               ; preds = %2
  %20 = getelementptr inbounds %"class.std::__1::basic_string", %"class.std::__1::basic_string"* %7, i64 0, i32 0, i32 0, i32 0, i32 0, i32 0, i32 0
  %21 = load i8*, i8** %20, align 8
  call void @_ZdlPv(i8* %21) #14
  br label %22

22:                                               ; preds = %2, %19
  call void @llvm.lifetime.end.p0i8(i64 24, i8* nonnull %13) #13
  call void @llvm.lifetime.end.p0i8(i64 16, i8* nonnull %8) #13
  ret void
}

; Function Attrs: nounwind ssp uwtable
define hidden zeroext i1 @_ZN5blink5mojom29WebBluetoothRemoteGATTService8ValidateEPKvPN4mojo8internal17ValidationContextE(i8*, %"class.mojo::internal::ValidationContext"*) local_unnamed_addr #0 align 2 {
  %3 = tail call zeroext i1 @_ZN5blink5mojom8internal34WebBluetoothRemoteGATTService_Data8ValidateEPKvPN4mojo8internal17ValidationContextE(i8* %0, %"class.mojo::internal::ValidationContext"* %1) #13
  ret i1 %3
}

declare zeroext i1 @_ZN5blink5mojom8internal34WebBluetoothRemoteGATTService_Data8ValidateEPKvPN4mojo8internal17ValidationContextE(i8*, %"class.mojo::internal::ValidationContext"*) local_unnamed_addr #2

; Function Attrs: nounwind ssp uwtable
define hidden void @_ZN5blink5mojom36WebBluetoothRemoteGATTCharacteristicC2Ev(%"class.blink::mojom::WebBluetoothRemoteGATTCharacteristic"*) unnamed_addr #0 align 2 {
  %2 = bitcast %"class.blink::mojom::WebBluetoothRemoteGATTCharacteristic"* %0 to i8*
  tail call void @llvm.memset.p0i8.i64(i8* align 8 %2, i8 0, i64 24, i1 false) #13
  %3 = getelementptr inbounds %"class.blink::mojom::WebBluetoothRemoteGATTCharacteristic", %"class.blink::mojom::WebBluetoothRemoteGATTCharacteristic"* %0, i64 0, i32 1
  tail call void @_ZN6device13BluetoothUUIDC1Ev(%"class.device::BluetoothUUID"* %3) #13
  %4 = getelementptr inbounds %"class.blink::mojom::WebBluetoothRemoteGATTCharacteristic", %"class.blink::mojom::WebBluetoothRemoteGATTCharacteristic"* %0, i64 0, i32 2
  store i32 0, i32* %4, align 8
  ret void
}

; Function Attrs: nounwind ssp uwtable
define hidden void @_ZN5blink5mojom36WebBluetoothRemoteGATTCharacteristicC2ERKNSt3__112basic_stringIcNS2_11char_traitsIcEENS2_9allocatorIcEEEERKN6device13BluetoothUUIDEj(%"class.blink::mojom::WebBluetoothRemoteGATTCharacteristic"*, %"class.std::__1::basic_string"* nocapture readonly dereferenceable(24), %"class.device::BluetoothUUID"* nocapture readonly dereferenceable(56), i32) unnamed_addr #0 align 2 {
  %5 = bitcast %"class.std::__1::basic_string"* %1 to %"struct.std::__1::basic_string<char, std::__1::char_traits<char>, std::__1::allocator<char> >::__short"*
  %6 = getelementptr inbounds %"struct.std::__1::basic_string<char, std::__1::char_traits<char>, std::__1::allocator<char> >::__short", %"struct.std::__1::basic_string<char, std::__1::char_traits<char>, std::__1::allocator<char> >::__short"* %5, i64 0, i32 1, i32 0
  %7 = load i8, i8* %6, align 1
  %8 = icmp slt i8 %7, 0
  br i1 %8, label %12, label %9

9:                                                ; preds = %4
  %10 = bitcast %"class.blink::mojom::WebBluetoothRemoteGATTCharacteristic"* %0 to i8*
  %11 = bitcast %"class.std::__1::basic_string"* %1 to i8*
  tail call void @llvm.memcpy.p0i8.p0i8.i64(i8* align 8 %10, i8* align 8 %11, i64 24, i1 false) #13
  br label %18

12:                                               ; preds = %4
  %13 = getelementptr inbounds %"class.blink::mojom::WebBluetoothRemoteGATTCharacteristic", %"class.blink::mojom::WebBluetoothRemoteGATTCharacteristic"* %0, i64 0, i32 0
  %14 = getelementptr inbounds %"class.std::__1::basic_string", %"class.std::__1::basic_string"* %1, i64 0, i32 0, i32 0, i32 0, i32 0, i32 0, i32 0
  %15 = load i8*, i8** %14, align 8
  %16 = getelementptr inbounds %"class.std::__1::basic_string", %"class.std::__1::basic_string"* %1, i64 0, i32 0, i32 0, i32 0, i32 0, i32 0, i32 1
  %17 = load i64, i64* %16, align 8
  tail call void @_ZNSt3__112basic_stringIcNS_11char_traitsIcEENS_9allocatorIcEEE25__init_copy_ctor_externalEPKcm(%"class.std::__1::basic_string"* %13, i8* %15, i64 %17) #13
  br label %18

18:                                               ; preds = %9, %12
  %19 = getelementptr inbounds %"class.blink::mojom::WebBluetoothRemoteGATTCharacteristic", %"class.blink::mojom::WebBluetoothRemoteGATTCharacteristic"* %0, i64 0, i32 1, i32 0
  %20 = getelementptr inbounds %"class.device::BluetoothUUID", %"class.device::BluetoothUUID"* %2, i64 0, i32 0
  %21 = load i32, i32* %20, align 8
  store i32 %21, i32* %19, align 8
  %22 = getelementptr inbounds %"class.blink::mojom::WebBluetoothRemoteGATTCharacteristic", %"class.blink::mojom::WebBluetoothRemoteGATTCharacteristic"* %0, i64 0, i32 1, i32 1
  %23 = getelementptr inbounds %"class.device::BluetoothUUID", %"class.device::BluetoothUUID"* %2, i64 0, i32 1
  %24 = bitcast %"class.std::__1::basic_string"* %23 to %"struct.std::__1::basic_string<char, std::__1::char_traits<char>, std::__1::allocator<char> >::__short"*
  %25 = getelementptr inbounds %"struct.std::__1::basic_string<char, std::__1::char_traits<char>, std::__1::allocator<char> >::__short", %"struct.std::__1::basic_string<char, std::__1::char_traits<char>, std::__1::allocator<char> >::__short"* %24, i64 0, i32 1, i32 0
  %26 = load i8, i8* %25, align 1
  %27 = icmp slt i8 %26, 0
  br i1 %27, label %31, label %28

28:                                               ; preds = %18
  %29 = bitcast %"class.std::__1::basic_string"* %22 to i8*
  %30 = bitcast %"class.std::__1::basic_string"* %23 to i8*
  tail call void @llvm.memcpy.p0i8.p0i8.i64(i8* align 8 %29, i8* align 8 %30, i64 24, i1 false) #13
  br label %36

31:                                               ; preds = %18
  %32 = getelementptr inbounds %"class.std::__1::basic_string", %"class.std::__1::basic_string"* %23, i64 0, i32 0, i32 0, i32 0, i32 0, i32 0, i32 0
  %33 = load i8*, i8** %32, align 8
  %34 = getelementptr inbounds %"class.device::BluetoothUUID", %"class.device::BluetoothUUID"* %2, i64 0, i32 1, i32 0, i32 0, i32 0, i32 0, i32 0, i32 1
  %35 = load i64, i64* %34, align 8
  tail call void @_ZNSt3__112basic_stringIcNS_11char_traitsIcEENS_9allocatorIcEEE25__init_copy_ctor_externalEPKcm(%"class.std::__1::basic_string"* %22, i8* %33, i64 %35) #13
  br label %36

36:                                               ; preds = %31, %28
  %37 = getelementptr inbounds %"class.blink::mojom::WebBluetoothRemoteGATTCharacteristic", %"class.blink::mojom::WebBluetoothRemoteGATTCharacteristic"* %0, i64 0, i32 1, i32 2
  %38 = getelementptr inbounds %"class.device::BluetoothUUID", %"class.device::BluetoothUUID"* %2, i64 0, i32 2
  %39 = bitcast %"class.std::__1::basic_string"* %38 to %"struct.std::__1::basic_string<char, std::__1::char_traits<char>, std::__1::allocator<char> >::__short"*
  %40 = getelementptr inbounds %"struct.std::__1::basic_string<char, std::__1::char_traits<char>, std::__1::allocator<char> >::__short", %"struct.std::__1::basic_string<char, std::__1::char_traits<char>, std::__1::allocator<char> >::__short"* %39, i64 0, i32 1, i32 0
  %41 = load i8, i8* %40, align 1
  %42 = icmp slt i8 %41, 0
  br i1 %42, label %46, label %43

43:                                               ; preds = %36
  %44 = bitcast %"class.std::__1::basic_string"* %37 to i8*
  %45 = bitcast %"class.std::__1::basic_string"* %38 to i8*
  tail call void @llvm.memcpy.p0i8.p0i8.i64(i8* align 8 %44, i8* align 8 %45, i64 24, i1 false) #13
  br label %51

46:                                               ; preds = %36
  %47 = getelementptr inbounds %"class.std::__1::basic_string", %"class.std::__1::basic_string"* %38, i64 0, i32 0, i32 0, i32 0, i32 0, i32 0, i32 0
  %48 = load i8*, i8** %47, align 8
  %49 = getelementptr inbounds %"class.device::BluetoothUUID", %"class.device::BluetoothUUID"* %2, i64 0, i32 2, i32 0, i32 0, i32 0, i32 0, i32 0, i32 1
  %50 = load i64, i64* %49, align 8
  tail call void @_ZNSt3__112basic_stringIcNS_11char_traitsIcEENS_9allocatorIcEEE25__init_copy_ctor_externalEPKcm(%"class.std::__1::basic_string"* %37, i8* %48, i64 %50) #13
  br label %51

51:                                               ; preds = %43, %46
  %52 = getelementptr inbounds %"class.blink::mojom::WebBluetoothRemoteGATTCharacteristic", %"class.blink::mojom::WebBluetoothRemoteGATTCharacteristic"* %0, i64 0, i32 2
  store i32 %3, i32* %52, align 8
  ret void
}

; Function Attrs: nounwind ssp uwtable
define hidden void @_ZN5blink5mojom36WebBluetoothRemoteGATTCharacteristicD2Ev(%"class.blink::mojom::WebBluetoothRemoteGATTCharacteristic"*) unnamed_addr #0 align 2 {
  %2 = getelementptr inbounds %"class.blink::mojom::WebBluetoothRemoteGATTCharacteristic", %"class.blink::mojom::WebBluetoothRemoteGATTCharacteristic"* %0, i64 0, i32 1
  tail call void @_ZN6device13BluetoothUUIDD1Ev(%"class.device::BluetoothUUID"* %2) #13
  %3 = bitcast %"class.blink::mojom::WebBluetoothRemoteGATTCharacteristic"* %0 to %"struct.std::__1::basic_string<char, std::__1::char_traits<char>, std::__1::allocator<char> >::__short"*
  %4 = getelementptr inbounds %"struct.std::__1::basic_string<char, std::__1::char_traits<char>, std::__1::allocator<char> >::__short", %"struct.std::__1::basic_string<char, std::__1::char_traits<char>, std::__1::allocator<char> >::__short"* %3, i64 0, i32 1, i32 0
  %5 = load i8, i8* %4, align 1
  %6 = icmp slt i8 %5, 0
  br i1 %6, label %7, label %10

7:                                                ; preds = %1
  %8 = getelementptr inbounds %"class.blink::mojom::WebBluetoothRemoteGATTCharacteristic", %"class.blink::mojom::WebBluetoothRemoteGATTCharacteristic"* %0, i64 0, i32 0, i32 0, i32 0, i32 0, i32 0, i32 0, i32 0
  %9 = load i8*, i8** %8, align 8
  tail call void @_ZdlPv(i8* %9) #14
  br label %10

10:                                               ; preds = %1, %7
  ret void
}

; Function Attrs: nounwind ssp uwtable
define hidden void @_ZNK5blink5mojom36WebBluetoothRemoteGATTCharacteristic14WriteIntoTraceEN8perfetto11TracedValueE(%"class.blink::mojom::WebBluetoothRemoteGATTCharacteristic"*, %"class.perfetto::TracedValue"*) local_unnamed_addr #0 align 2 {
  %3 = alloca %"class.perfetto::TracedValue", align 8
  %4 = alloca %"class.perfetto::TracedValue", align 8
  %5 = alloca %"class.perfetto::TracedDictionary", align 8
  %6 = alloca %"class.perfetto::TracedValue", align 8
  %7 = alloca %"class.perfetto::TracedValue", align 8
  %8 = alloca %"class.std::__1::basic_string", align 8
  %9 = alloca %"class.perfetto::TracedValue", align 8
  %10 = bitcast %"class.perfetto::TracedDictionary"* %5 to i8*
  call void @llvm.lifetime.start.p0i8(i64 16, i8* nonnull %10) #13
  %11 = bitcast %"class.perfetto::TracedDictionary"* %5 to i8*
  call void @llvm.memset.p0i8.i64(i8* nonnull align 8 %11, i8 -86, i64 16, i1 false)
  call void @_ZNO8perfetto11TracedValue15WriteDictionaryEv(%"class.perfetto::TracedDictionary"* nonnull sret %5, %"class.perfetto::TracedValue"* %1) #13
  call void @_ZN8perfetto16TracedDictionary7AddItemENS_12StaticStringE(%"class.perfetto::TracedValue"* nonnull sret %6, %"class.perfetto::TracedDictionary"* nonnull %5, i8* getelementptr inbounds ([12 x i8], [12 x i8]* @.str.15, i64 0, i64 0)) #13
  %12 = getelementptr inbounds %"class.blink::mojom::WebBluetoothRemoteGATTCharacteristic", %"class.blink::mojom::WebBluetoothRemoteGATTCharacteristic"* %0, i64 0, i32 0
  %13 = bitcast %"class.perfetto::TracedValue"* %6 to i8*
  %14 = bitcast %"class.perfetto::TracedValue"* %3 to i8*
  call void @llvm.lifetime.start.p0i8(i64 16, i8* nonnull %14) #13
  call void @llvm.memcpy.p0i8.p0i8.i64(i8* nonnull align 8 %14, i8* nonnull align 8 %13, i64 16, i1 false) #13
  call void @_ZNO8perfetto11TracedValue11WriteStringERKNSt3__112basic_stringIcNS1_11char_traitsIcEENS1_9allocatorIcEEEE(%"class.perfetto::TracedValue"* nonnull %3, %"class.std::__1::basic_string"* dereferenceable(24) %12) #13
  call void @llvm.lifetime.end.p0i8(i64 16, i8* nonnull %14) #13
  call void @_ZN8perfetto16TracedDictionary7AddItemENS_12StaticStringE(%"class.perfetto::TracedValue"* nonnull sret %7, %"class.perfetto::TracedDictionary"* nonnull %5, i8* getelementptr inbounds ([5 x i8], [5 x i8]* @.str.16, i64 0, i64 0)) #13
  %15 = bitcast %"class.std::__1::basic_string"* %8 to i8*
  call void @llvm.lifetime.start.p0i8(i64 24, i8* nonnull %15) #13
  %16 = bitcast %"class.std::__1::basic_string"* %8 to %"struct.std::__1::basic_string<char, std::__1::char_traits<char>, std::__1::allocator<char> >::__short"*
  %17 = getelementptr inbounds %"struct.std::__1::basic_string<char, std::__1::char_traits<char>, std::__1::allocator<char> >::__short", %"struct.std::__1::basic_string<char, std::__1::char_traits<char>, std::__1::allocator<char> >::__short"* %16, i64 0, i32 1, i32 0
  store i8 7, i8* %17, align 1
  call void @llvm.memcpy.p0i8.p0i8.i64(i8* nonnull align 8 %15, i8* align 1 getelementptr inbounds ([8 x i8], [8 x i8]* @.str.1, i64 0, i64 0), i64 7, i1 false) #13
  %18 = getelementptr inbounds i8, i8* %15, i64 7
  store i8 0, i8* %18, align 1
  call void @_ZNO8perfetto11TracedValue11WriteStringERKNSt3__112basic_stringIcNS1_11char_traitsIcEENS1_9allocatorIcEEEE(%"class.perfetto::TracedValue"* nonnull %7, %"class.std::__1::basic_string"* nonnull dereferenceable(24) %8) #13
  %19 = load i8, i8* %17, align 1
  %20 = icmp slt i8 %19, 0
  br i1 %20, label %21, label %24

21:                                               ; preds = %2
  %22 = getelementptr inbounds %"class.std::__1::basic_string", %"class.std::__1::basic_string"* %8, i64 0, i32 0, i32 0, i32 0, i32 0, i32 0, i32 0
  %23 = load i8*, i8** %22, align 8
  call void @_ZdlPv(i8* %23) #14
  br label %24

24:                                               ; preds = %21, %2
  call void @llvm.lifetime.end.p0i8(i64 24, i8* nonnull %15) #13
  call void @_ZN8perfetto16TracedDictionary7AddItemENS_12StaticStringE(%"class.perfetto::TracedValue"* nonnull sret %9, %"class.perfetto::TracedDictionary"* nonnull %5, i8* getelementptr inbounds ([11 x i8], [11 x i8]* @.str.17, i64 0, i64 0)) #13
  %25 = getelementptr inbounds %"class.blink::mojom::WebBluetoothRemoteGATTCharacteristic", %"class.blink::mojom::WebBluetoothRemoteGATTCharacteristic"* %0, i64 0, i32 2
  %26 = bitcast %"class.perfetto::TracedValue"* %9 to i8*
  %27 = bitcast %"class.perfetto::TracedValue"* %4 to i8*
  call void @llvm.lifetime.start.p0i8(i64 16, i8* nonnull %27) #13
  call void @llvm.memcpy.p0i8.p0i8.i64(i8* nonnull align 8 %27, i8* nonnull align 8 %26, i64 16, i1 false) #13
  %28 = load i32, i32* %25, align 4
  %29 = zext i32 %28 to i64
  call void @_ZNO8perfetto11TracedValue11WriteUInt64Em(%"class.perfetto::TracedValue"* nonnull %4, i64 %29) #13
  call void @llvm.lifetime.end.p0i8(i64 16, i8* nonnull %27) #13
  call void @llvm.lifetime.end.p0i8(i64 16, i8* nonnull %10) #13
  ret void
}

; Function Attrs: nounwind ssp uwtable
define hidden zeroext i1 @_ZN5blink5mojom36WebBluetoothRemoteGATTCharacteristic8ValidateEPKvPN4mojo8internal17ValidationContextE(i8*, %"class.mojo::internal::ValidationContext"*) local_unnamed_addr #0 align 2 {
  %3 = tail call zeroext i1 @_ZN5blink5mojom8internal41WebBluetoothRemoteGATTCharacteristic_Data8ValidateEPKvPN4mojo8internal17ValidationContextE(i8* %0, %"class.mojo::internal::ValidationContext"* %1) #13
  ret i1 %3
}

declare zeroext i1 @_ZN5blink5mojom8internal41WebBluetoothRemoteGATTCharacteristic_Data8ValidateEPKvPN4mojo8internal17ValidationContextE(i8*, %"class.mojo::internal::ValidationContext"*) local_unnamed_addr #2

; Function Attrs: nounwind ssp uwtable
define hidden void @_ZN5blink5mojom28WebBluetoothAdvertisingEventC2Ev(%"class.blink::mojom::WebBluetoothAdvertisingEvent"* nocapture) unnamed_addr #0 align 2 {
  %2 = bitcast %"class.blink::mojom::WebBluetoothAdvertisingEvent"* %0 to i64*
  store i64 0, i64* %2, align 8
  %3 = getelementptr inbounds %"class.blink::mojom::WebBluetoothAdvertisingEvent", %"class.blink::mojom::WebBluetoothAdvertisingEvent"* %0, i64 0, i32 1, i32 0, i32 0, i32 0, i32 0
  store i8 0, i8* %3, align 8
  %4 = getelementptr inbounds %"class.blink::mojom::WebBluetoothAdvertisingEvent", %"class.blink::mojom::WebBluetoothAdvertisingEvent"* %0, i64 0, i32 1, i32 0, i32 0, i32 0, i32 1
  %5 = getelementptr inbounds %"class.blink::mojom::WebBluetoothAdvertisingEvent", %"class.blink::mojom::WebBluetoothAdvertisingEvent"* %0, i64 0, i32 4
  %6 = bitcast %union.anon.11* %4 to i8*
  call void @llvm.memset.p0i8.i64(i8* align 8 %6, i8 0, i64 49, i1 false)
  %7 = bitcast i16* %5 to i8*
  call void @llvm.memset.p0i8.i64(i8* align 2 %7, i8 0, i64 54, i1 false)
  ret void
}

; Function Attrs: argmemonly nounwind
declare void @llvm.memset.p0i8.i64(i8* nocapture writeonly, i8, i64, i1 immarg) #1

; Function Attrs: nounwind ssp uwtable
define hidden void @_ZN5blink5mojom28WebBluetoothAdvertisingEventC2EN4mojo9StructPtrINS0_18WebBluetoothDeviceEEERKN4absl8optionalINSt3__112basic_stringIcNS8_11char_traitsIcEENS8_9allocatorIcEEEEEENS8_6vectorIN6device13BluetoothUUIDENSC_ISK_EEEEbtbhbhRKN4base8flat_mapItNSI_IhNSC_IhEEEENS8_4lessIvEENSI_INS8_4pairItSQ_EENSC_ISU_EEEEEERKNSO_ISK_SQ_SS_NSI_INST_ISK_SQ_EENSC_IS10_EEEEEE(%"class.blink::mojom::WebBluetoothAdvertisingEvent"*, %"class.mojo::StructPtr.85"* nocapture, %"class.absl::optional.7"* nocapture readonly dereferenceable(32), %"class.std::__1::vector"* nocapture, i1 zeroext, i16 zeroext, i1 zeroext, i8 zeroext, i1 zeroext, i8 zeroext, %"class.base::flat_map.92"* dereferenceable(24), %"class.base::flat_map.109"* nocapture readonly dereferenceable(24)) unnamed_addr #0 align 2 {
  %13 = zext i1 %4 to i8
  %14 = zext i1 %6 to i8
  %15 = zext i1 %8 to i8
  %16 = bitcast %"class.blink::mojom::WebBluetoothAdvertisingEvent"* %0 to i64*
  %17 = getelementptr inbounds %"class.blink::mojom::WebBluetoothAdvertisingEvent", %"class.blink::mojom::WebBluetoothAdvertisingEvent"* %0, i64 0, i32 0, i32 0, i32 0, i32 0, i32 0
  store %"class.blink::mojom::WebBluetoothDevice"* null, %"class.blink::mojom::WebBluetoothDevice"** %17, align 8
  %18 = bitcast %"class.mojo::StructPtr.85"* %1 to i64*
  %19 = load i64, i64* %18, align 8
  store i64 %19, i64* %16, align 8
  store i64 0, i64* %18, align 8
  %20 = getelementptr inbounds %"class.blink::mojom::WebBluetoothAdvertisingEvent", %"class.blink::mojom::WebBluetoothAdvertisingEvent"* %0, i64 0, i32 1, i32 0, i32 0, i32 0, i32 0
  %21 = getelementptr inbounds %"class.absl::optional.7", %"class.absl::optional.7"* %2, i64 0, i32 0, i32 0, i32 0, i32 0
  tail call void @llvm.memset.p0i8.i64(i8* align 8 %20, i8 0, i64 32, i1 false) #13
  %22 = load i8, i8* %21, align 8, !range !2
  %23 = icmp eq i8 %22, 0
  br i1 %23, label %40, label %24

24:                                               ; preds = %12
  %25 = getelementptr inbounds %"class.absl::optional.7", %"class.absl::optional.7"* %2, i64 0, i32 0, i32 0, i32 0, i32 1, i32 0
  %26 = getelementptr inbounds %"class.blink::mojom::WebBluetoothAdvertisingEvent", %"class.blink::mojom::WebBluetoothAdvertisingEvent"* %0, i64 0, i32 1, i32 0, i32 0, i32 0, i32 1, i32 0
  %27 = bitcast %"class.std::__1::basic_string"* %25 to %"struct.std::__1::basic_string<char, std::__1::char_traits<char>, std::__1::allocator<char> >::__short"*
  %28 = getelementptr inbounds %"struct.std::__1::basic_string<char, std::__1::char_traits<char>, std::__1::allocator<char> >::__short", %"struct.std::__1::basic_string<char, std::__1::char_traits<char>, std::__1::allocator<char> >::__short"* %27, i64 0, i32 1, i32 0
  %29 = load i8, i8* %28, align 1
  %30 = icmp slt i8 %29, 0
  br i1 %30, label %34, label %31

31:                                               ; preds = %24
  %32 = bitcast %"class.std::__1::basic_string"* %26 to i8*
  %33 = bitcast %"class.std::__1::basic_string"* %25 to i8*
  tail call void @llvm.memcpy.p0i8.p0i8.i64(i8* align 8 %32, i8* align 8 %33, i64 24, i1 false) #13
  br label %39

34:                                               ; preds = %24
  %35 = getelementptr inbounds %"class.std::__1::basic_string", %"class.std::__1::basic_string"* %25, i64 0, i32 0, i32 0, i32 0, i32 0, i32 0, i32 0
  %36 = load i8*, i8** %35, align 8
  %37 = getelementptr inbounds %"class.absl::optional.7", %"class.absl::optional.7"* %2, i64 0, i32 0, i32 0, i32 0, i32 1, i32 0, i32 0, i32 0, i32 0, i32 0, i32 0, i32 1
  %38 = load i64, i64* %37, align 8
  tail call void @_ZNSt3__112basic_stringIcNS_11char_traitsIcEENS_9allocatorIcEEE25__init_copy_ctor_externalEPKcm(%"class.std::__1::basic_string"* %26, i8* %36, i64 %38) #13
  br label %39

39:                                               ; preds = %34, %31
  store i8 1, i8* %20, align 8
  br label %40

40:                                               ; preds = %12, %39
  %41 = getelementptr inbounds %"class.blink::mojom::WebBluetoothAdvertisingEvent", %"class.blink::mojom::WebBluetoothAdvertisingEvent"* %0, i64 0, i32 2
  %42 = bitcast %"class.std::__1::vector"* %41 to i8*
  tail call void @llvm.memset.p0i8.i64(i8* align 8 %42, i8 0, i64 24, i1 false) #13
  %43 = bitcast %"class.std::__1::vector"* %3 to i64*
  %44 = load i64, i64* %43, align 8
  %45 = bitcast %"class.std::__1::vector"* %41 to i64*
  store i64 %44, i64* %45, align 8
  %46 = getelementptr inbounds %"class.std::__1::vector", %"class.std::__1::vector"* %3, i64 0, i32 0, i32 1
  %47 = bitcast %"class.device::BluetoothUUID"** %46 to i64*
  %48 = load i64, i64* %47, align 8
  %49 = getelementptr inbounds %"class.blink::mojom::WebBluetoothAdvertisingEvent", %"class.blink::mojom::WebBluetoothAdvertisingEvent"* %0, i64 0, i32 2, i32 0, i32 1
  %50 = bitcast %"class.device::BluetoothUUID"** %49 to i64*
  store i64 %48, i64* %50, align 8
  %51 = getelementptr inbounds %"class.std::__1::vector", %"class.std::__1::vector"* %3, i64 0, i32 0, i32 2, i32 0, i32 0
  %52 = bitcast %"class.device::BluetoothUUID"** %51 to i64*
  %53 = load i64, i64* %52, align 8
  %54 = getelementptr inbounds %"class.blink::mojom::WebBluetoothAdvertisingEvent", %"class.blink::mojom::WebBluetoothAdvertisingEvent"* %0, i64 0, i32 2, i32 0, i32 2, i32 0, i32 0
  %55 = bitcast %"class.device::BluetoothUUID"** %54 to i64*
  store i64 %53, i64* %55, align 8
  %56 = bitcast %"class.std::__1::vector"* %3 to i8*
  tail call void @llvm.memset.p0i8.i64(i8* align 8 %56, i8 0, i64 24, i1 false) #13
  %57 = getelementptr inbounds %"class.blink::mojom::WebBluetoothAdvertisingEvent", %"class.blink::mojom::WebBluetoothAdvertisingEvent"* %0, i64 0, i32 3
  store i8 %13, i8* %57, align 8
  %58 = getelementptr inbounds %"class.blink::mojom::WebBluetoothAdvertisingEvent", %"class.blink::mojom::WebBluetoothAdvertisingEvent"* %0, i64 0, i32 4
  store i16 %5, i16* %58, align 2
  %59 = getelementptr inbounds %"class.blink::mojom::WebBluetoothAdvertisingEvent", %"class.blink::mojom::WebBluetoothAdvertisingEvent"* %0, i64 0, i32 5
  store i8 %14, i8* %59, align 4
  %60 = getelementptr inbounds %"class.blink::mojom::WebBluetoothAdvertisingEvent", %"class.blink::mojom::WebBluetoothAdvertisingEvent"* %0, i64 0, i32 6
  store i8 %7, i8* %60, align 1
  %61 = getelementptr inbounds %"class.blink::mojom::WebBluetoothAdvertisingEvent", %"class.blink::mojom::WebBluetoothAdvertisingEvent"* %0, i64 0, i32 7
  store i8 %15, i8* %61, align 2
  %62 = getelementptr inbounds %"class.blink::mojom::WebBluetoothAdvertisingEvent", %"class.blink::mojom::WebBluetoothAdvertisingEvent"* %0, i64 0, i32 8
  store i8 %9, i8* %62, align 1
  %63 = getelementptr inbounds %"class.blink::mojom::WebBluetoothAdvertisingEvent", %"class.blink::mojom::WebBluetoothAdvertisingEvent"* %0, i64 0, i32 9, i32 0, i32 0
  %64 = getelementptr inbounds %"class.base::flat_map.92", %"class.base::flat_map.92"* %10, i64 0, i32 0, i32 0
  tail call void @_ZNSt3__16vectorINS_4pairItNS0_IhNS_9allocatorIhEEEEEENS2_IS5_EEEC2ERKS7_(%"class.std::__1::vector.94"* %63, %"class.std::__1::vector.94"* dereferenceable(24) %64) #13
  %65 = getelementptr inbounds %"class.blink::mojom::WebBluetoothAdvertisingEvent", %"class.blink::mojom::WebBluetoothAdvertisingEvent"* %0, i64 0, i32 10
  %66 = bitcast %"class.base::flat_map.109"* %65 to i8*
  tail call void @llvm.memset.p0i8.i64(i8* align 8 %66, i8 0, i64 24, i1 false) #13
  %67 = getelementptr inbounds %"class.base::flat_map.109", %"class.base::flat_map.109"* %11, i64 0, i32 0, i32 0, i32 0, i32 1
  %68 = bitcast %"struct.std::__1::pair.113"** %67 to i64*
  %69 = load i64, i64* %68, align 8
  %70 = bitcast %"class.base::flat_map.109"* %11 to i64*
  %71 = load i64, i64* %70, align 8
  %72 = sub i64 %69, %71
  %73 = sdiv exact i64 %72, 80
  %74 = icmp eq i64 %72, 0
  br i1 %74, label %103, label %75

75:                                               ; preds = %40
  %76 = icmp ugt i64 %73, 230584300921369395
  br i1 %76, label %77, label %79

77:                                               ; preds = %75
  %78 = bitcast %"class.base::flat_map.109"* %65 to %"class.std::__1::__vector_base_common"*
  tail call void @_ZNKSt3__120__vector_base_commonILb1EE20__throw_length_errorEv(%"class.std::__1::__vector_base_common"* %78) #15
  unreachable

79:                                               ; preds = %75
  %80 = tail call i8* @_Znwm(i64 %72) #14
  %81 = bitcast i8* %80 to %"struct.std::__1::pair.113"*
  %82 = getelementptr inbounds %"class.blink::mojom::WebBluetoothAdvertisingEvent", %"class.blink::mojom::WebBluetoothAdvertisingEvent"* %0, i64 0, i32 10, i32 0, i32 0, i32 0, i32 1
  %83 = bitcast %"struct.std::__1::pair.113"** %82 to i8**
  store i8* %80, i8** %83, align 8
  %84 = bitcast %"class.base::flat_map.109"* %65 to i8**
  store i8* %80, i8** %84, align 8
  %85 = getelementptr inbounds %"struct.std::__1::pair.113", %"struct.std::__1::pair.113"* %81, i64 %73
  %86 = getelementptr inbounds %"class.blink::mojom::WebBluetoothAdvertisingEvent", %"class.blink::mojom::WebBluetoothAdvertisingEvent"* %0, i64 0, i32 10, i32 0, i32 0, i32 0, i32 2, i32 0, i32 0
  store %"struct.std::__1::pair.113"* %85, %"struct.std::__1::pair.113"** %86, align 8
  %87 = getelementptr inbounds %"class.base::flat_map.109", %"class.base::flat_map.109"* %11, i64 0, i32 0, i32 0, i32 0, i32 0
  %88 = load %"struct.std::__1::pair.113"*, %"struct.std::__1::pair.113"** %87, align 8
  %89 = load %"struct.std::__1::pair.113"*, %"struct.std::__1::pair.113"** %67, align 8
  %90 = bitcast %"struct.std::__1::pair.113"** %82 to i64*
  %91 = ptrtoint i8* %80 to i64
  %92 = icmp eq %"struct.std::__1::pair.113"* %88, %89
  br i1 %92, label %101, label %93

93:                                               ; preds = %79, %93
  %94 = phi %"struct.std::__1::pair.113"* [ %97, %93 ], [ %81, %79 ]
  %95 = phi %"struct.std::__1::pair.113"* [ %96, %93 ], [ %88, %79 ]
  tail call void @_ZNSt3__14pairIN6device13BluetoothUUIDENS_6vectorIhNS_9allocatorIhEEEEEC2ERKS7_(%"struct.std::__1::pair.113"* %94, %"struct.std::__1::pair.113"* dereferenceable(80) %95) #13
  %96 = getelementptr inbounds %"struct.std::__1::pair.113", %"struct.std::__1::pair.113"* %95, i64 1
  %97 = getelementptr inbounds %"struct.std::__1::pair.113", %"struct.std::__1::pair.113"* %94, i64 1
  %98 = icmp eq %"struct.std::__1::pair.113"* %96, %89
  br i1 %98, label %99, label %93

99:                                               ; preds = %93
  %100 = ptrtoint %"struct.std::__1::pair.113"* %97 to i64
  br label %101

101:                                              ; preds = %99, %79
  %102 = phi i64 [ %91, %79 ], [ %100, %99 ]
  store i64 %102, i64* %90, align 8
  br label %103

103:                                              ; preds = %40, %101
  ret void
}

; Function Attrs: nounwind ssp uwtable
define hidden void @_ZN5blink5mojom28WebBluetoothAdvertisingEventD2Ev(%"class.blink::mojom::WebBluetoothAdvertisingEvent"* nocapture) unnamed_addr #0 align 2 {
  %2 = getelementptr inbounds %"class.blink::mojom::WebBluetoothAdvertisingEvent", %"class.blink::mojom::WebBluetoothAdvertisingEvent"* %0, i64 0, i32 10, i32 0
  %3 = getelementptr inbounds %"class.base::internal::flat_tree.110", %"class.base::internal::flat_tree.110"* %2, i64 0, i32 0, i32 0, i32 0
  %4 = load %"struct.std::__1::pair.113"*, %"struct.std::__1::pair.113"** %3, align 8
  %5 = icmp eq %"struct.std::__1::pair.113"* %4, null
  br i1 %5, label %29, label %6

6:                                                ; preds = %1
  %7 = bitcast %"struct.std::__1::pair.113"* %4 to i8*
  %8 = getelementptr inbounds %"class.blink::mojom::WebBluetoothAdvertisingEvent", %"class.blink::mojom::WebBluetoothAdvertisingEvent"* %0, i64 0, i32 10, i32 0, i32 0, i32 0, i32 1
  %9 = load %"struct.std::__1::pair.113"*, %"struct.std::__1::pair.113"** %8, align 8
  %10 = icmp eq %"struct.std::__1::pair.113"* %9, %4
  br i1 %10, label %27, label %11

11:                                               ; preds = %6, %21
  %12 = phi %"struct.std::__1::pair.113"* [ %13, %21 ], [ %9, %6 ]
  %13 = getelementptr inbounds %"struct.std::__1::pair.113", %"struct.std::__1::pair.113"* %12, i64 -1
  %14 = getelementptr inbounds %"struct.std::__1::pair.113", %"struct.std::__1::pair.113"* %12, i64 -1, i32 1, i32 0, i32 0
  %15 = load i8*, i8** %14, align 8
  %16 = icmp eq i8* %15, null
  br i1 %16, label %21, label %17

17:                                               ; preds = %11
  %18 = ptrtoint i8* %15 to i64
  %19 = getelementptr inbounds %"struct.std::__1::pair.113", %"struct.std::__1::pair.113"* %12, i64 -1, i32 1, i32 0, i32 1
  %20 = bitcast i8** %19 to i64*
  store i64 %18, i64* %20, align 8
  tail call void @_ZdlPv(i8* nonnull %15) #14
  br label %21

21:                                               ; preds = %17, %11
  %22 = getelementptr inbounds %"struct.std::__1::pair.113", %"struct.std::__1::pair.113"* %13, i64 0, i32 0
  tail call void @_ZN6device13BluetoothUUIDD1Ev(%"class.device::BluetoothUUID"* %22) #13
  %23 = icmp eq %"struct.std::__1::pair.113"* %13, %4
  br i1 %23, label %24, label %11

24:                                               ; preds = %21
  %25 = bitcast %"class.base::internal::flat_tree.110"* %2 to i8**
  %26 = load i8*, i8** %25, align 8
  br label %27

27:                                               ; preds = %24, %6
  %28 = phi i8* [ %26, %24 ], [ %7, %6 ]
  store %"struct.std::__1::pair.113"* %4, %"struct.std::__1::pair.113"** %8, align 8
  tail call void @_ZdlPv(i8* %28) #14
  br label %29

29:                                               ; preds = %1, %27
  %30 = getelementptr inbounds %"class.blink::mojom::WebBluetoothAdvertisingEvent", %"class.blink::mojom::WebBluetoothAdvertisingEvent"* %0, i64 0, i32 9, i32 0
  %31 = getelementptr inbounds %"class.base::internal::flat_tree.93", %"class.base::internal::flat_tree.93"* %30, i64 0, i32 0, i32 0, i32 0
  %32 = load %"struct.std::__1::pair.96"*, %"struct.std::__1::pair.96"** %31, align 8
  %33 = icmp eq %"struct.std::__1::pair.96"* %32, null
  br i1 %33, label %56, label %34

34:                                               ; preds = %29
  %35 = bitcast %"struct.std::__1::pair.96"* %32 to i8*
  %36 = getelementptr inbounds %"class.blink::mojom::WebBluetoothAdvertisingEvent", %"class.blink::mojom::WebBluetoothAdvertisingEvent"* %0, i64 0, i32 9, i32 0, i32 0, i32 0, i32 1
  %37 = load %"struct.std::__1::pair.96"*, %"struct.std::__1::pair.96"** %36, align 8
  %38 = icmp eq %"struct.std::__1::pair.96"* %37, %32
  br i1 %38, label %54, label %39

39:                                               ; preds = %34, %49
  %40 = phi %"struct.std::__1::pair.96"* [ %41, %49 ], [ %37, %34 ]
  %41 = getelementptr inbounds %"struct.std::__1::pair.96", %"struct.std::__1::pair.96"* %40, i64 -1
  %42 = getelementptr inbounds %"struct.std::__1::pair.96", %"struct.std::__1::pair.96"* %40, i64 -1, i32 1, i32 0, i32 0
  %43 = load i8*, i8** %42, align 8
  %44 = icmp eq i8* %43, null
  br i1 %44, label %49, label %45

45:                                               ; preds = %39
  %46 = ptrtoint i8* %43 to i64
  %47 = getelementptr inbounds %"struct.std::__1::pair.96", %"struct.std::__1::pair.96"* %40, i64 -1, i32 1, i32 0, i32 1
  %48 = bitcast i8** %47 to i64*
  store i64 %46, i64* %48, align 8
  tail call void @_ZdlPv(i8* nonnull %43) #14
  br label %49

49:                                               ; preds = %45, %39
  %50 = icmp eq %"struct.std::__1::pair.96"* %41, %32
  br i1 %50, label %51, label %39

51:                                               ; preds = %49
  %52 = bitcast %"class.base::internal::flat_tree.93"* %30 to i8**
  %53 = load i8*, i8** %52, align 8
  br label %54

54:                                               ; preds = %51, %34
  %55 = phi i8* [ %53, %51 ], [ %35, %34 ]
  store %"struct.std::__1::pair.96"* %32, %"struct.std::__1::pair.96"** %36, align 8
  tail call void @_ZdlPv(i8* %55) #14
  br label %56

56:                                               ; preds = %29, %54
  %57 = getelementptr inbounds %"class.blink::mojom::WebBluetoothAdvertisingEvent", %"class.blink::mojom::WebBluetoothAdvertisingEvent"* %0, i64 0, i32 2
  %58 = getelementptr inbounds %"class.std::__1::vector", %"class.std::__1::vector"* %57, i64 0, i32 0, i32 0
  %59 = load %"class.device::BluetoothUUID"*, %"class.device::BluetoothUUID"** %58, align 8
  %60 = icmp eq %"class.device::BluetoothUUID"* %59, null
  br i1 %60, label %75, label %61

61:                                               ; preds = %56
  %62 = bitcast %"class.device::BluetoothUUID"* %59 to i8*
  %63 = getelementptr inbounds %"class.blink::mojom::WebBluetoothAdvertisingEvent", %"class.blink::mojom::WebBluetoothAdvertisingEvent"* %0, i64 0, i32 2, i32 0, i32 1
  %64 = load %"class.device::BluetoothUUID"*, %"class.device::BluetoothUUID"** %63, align 8
  %65 = icmp eq %"class.device::BluetoothUUID"* %64, %59
  br i1 %65, label %73, label %66

66:                                               ; preds = %61, %66
  %67 = phi %"class.device::BluetoothUUID"* [ %68, %66 ], [ %64, %61 ]
  %68 = getelementptr inbounds %"class.device::BluetoothUUID", %"class.device::BluetoothUUID"* %67, i64 -1
  tail call void @_ZN6device13BluetoothUUIDD1Ev(%"class.device::BluetoothUUID"* %68) #13
  %69 = icmp eq %"class.device::BluetoothUUID"* %68, %59
  br i1 %69, label %70, label %66

70:                                               ; preds = %66
  %71 = bitcast %"class.std::__1::vector"* %57 to i8**
  %72 = load i8*, i8** %71, align 8
  br label %73

73:                                               ; preds = %70, %61
  %74 = phi i8* [ %72, %70 ], [ %62, %61 ]
  store %"class.device::BluetoothUUID"* %59, %"class.device::BluetoothUUID"** %63, align 8
  tail call void @_ZdlPv(i8* %74) #14
  br label %75

75:                                               ; preds = %56, %73
  %76 = getelementptr inbounds %"class.blink::mojom::WebBluetoothAdvertisingEvent", %"class.blink::mojom::WebBluetoothAdvertisingEvent"* %0, i64 0, i32 1, i32 0, i32 0, i32 0, i32 0
  %77 = load i8, i8* %76, align 8, !range !2
  %78 = icmp eq i8 %77, 0
  br i1 %78, label %89, label %79

79:                                               ; preds = %75
  %80 = getelementptr inbounds %"class.blink::mojom::WebBluetoothAdvertisingEvent", %"class.blink::mojom::WebBluetoothAdvertisingEvent"* %0, i64 0, i32 1, i32 0, i32 0, i32 0, i32 1, i32 0
  %81 = bitcast %"class.std::__1::basic_string"* %80 to %"struct.std::__1::basic_string<char, std::__1::char_traits<char>, std::__1::allocator<char> >::__short"*
  %82 = getelementptr inbounds %"struct.std::__1::basic_string<char, std::__1::char_traits<char>, std::__1::allocator<char> >::__short", %"struct.std::__1::basic_string<char, std::__1::char_traits<char>, std::__1::allocator<char> >::__short"* %81, i64 0, i32 1, i32 0
  %83 = load i8, i8* %82, align 1
  %84 = icmp slt i8 %83, 0
  br i1 %84, label %85, label %88

85:                                               ; preds = %79
  %86 = getelementptr inbounds %"class.std::__1::basic_string", %"class.std::__1::basic_string"* %80, i64 0, i32 0, i32 0, i32 0, i32 0, i32 0, i32 0
  %87 = load i8*, i8** %86, align 8
  tail call void @_ZdlPv(i8* %87) #14
  br label %88

88:                                               ; preds = %85, %79
  store i8 0, i8* %76, align 8
  br label %89

89:                                               ; preds = %75, %88
  %90 = getelementptr inbounds %"class.blink::mojom::WebBluetoothAdvertisingEvent", %"class.blink::mojom::WebBluetoothAdvertisingEvent"* %0, i64 0, i32 0, i32 0, i32 0, i32 0, i32 0
  %91 = load %"class.blink::mojom::WebBluetoothDevice"*, %"class.blink::mojom::WebBluetoothDevice"** %90, align 8
  store %"class.blink::mojom::WebBluetoothDevice"* null, %"class.blink::mojom::WebBluetoothDevice"** %90, align 8
  %92 = icmp eq %"class.blink::mojom::WebBluetoothDevice"* %91, null
  br i1 %92, label %110, label %93

93:                                               ; preds = %89
  %94 = getelementptr inbounds %"class.blink::mojom::WebBluetoothDevice", %"class.blink::mojom::WebBluetoothDevice"* %91, i64 0, i32 1, i32 0, i32 0, i32 0, i32 0
  %95 = load i8, i8* %94, align 8, !range !2
  %96 = icmp eq i8 %95, 0
  br i1 %96, label %107, label %97

97:                                               ; preds = %93
  %98 = getelementptr inbounds %"class.blink::mojom::WebBluetoothDevice", %"class.blink::mojom::WebBluetoothDevice"* %91, i64 0, i32 1, i32 0, i32 0, i32 0, i32 1, i32 0
  %99 = bitcast %"class.std::__1::basic_string"* %98 to %"struct.std::__1::basic_string<char, std::__1::char_traits<char>, std::__1::allocator<char> >::__short"*
  %100 = getelementptr inbounds %"struct.std::__1::basic_string<char, std::__1::char_traits<char>, std::__1::allocator<char> >::__short", %"struct.std::__1::basic_string<char, std::__1::char_traits<char>, std::__1::allocator<char> >::__short"* %99, i64 0, i32 1, i32 0
  %101 = load i8, i8* %100, align 1
  %102 = icmp slt i8 %101, 0
  br i1 %102, label %103, label %106

103:                                              ; preds = %97
  %104 = getelementptr inbounds %"class.std::__1::basic_string", %"class.std::__1::basic_string"* %98, i64 0, i32 0, i32 0, i32 0, i32 0, i32 0, i32 0
  %105 = load i8*, i8** %104, align 8
  tail call void @_ZdlPv(i8* %105) #14
  br label %106

106:                                              ; preds = %103, %97
  store i8 0, i8* %94, align 8
  br label %107

107:                                              ; preds = %106, %93
  %108 = getelementptr inbounds %"class.blink::mojom::WebBluetoothDevice", %"class.blink::mojom::WebBluetoothDevice"* %91, i64 0, i32 0
  tail call void @_ZN5blink20WebBluetoothDeviceIdD1Ev(%"class.blink::WebBluetoothDeviceId"* %108) #13
  %109 = bitcast %"class.blink::mojom::WebBluetoothDevice"* %91 to i8*
  tail call void @_ZdlPv(i8* %109) #14
  br label %110

110:                                              ; preds = %89, %107
  ret void
}

; Function Attrs: nounwind ssp uwtable
define hidden void @_ZNK5blink5mojom28WebBluetoothAdvertisingEvent14WriteIntoTraceEN8perfetto11TracedValueE(%"class.blink::mojom::WebBluetoothAdvertisingEvent"*, %"class.perfetto::TracedValue"*) local_unnamed_addr #0 align 2 {
  %3 = alloca %"class.perfetto::TracedValue", align 8
  %4 = alloca %"class.perfetto::TracedValue", align 8
  %5 = alloca %"class.perfetto::TracedValue", align 8
  %6 = alloca %"class.perfetto::TracedValue", align 8
  %7 = alloca %"class.perfetto::TracedValue", align 8
  %8 = alloca %"class.perfetto::TracedValue", align 8
  %9 = alloca %"class.perfetto::TracedValue", align 8
  %10 = alloca %"class.perfetto::TracedValue", align 8
  %11 = alloca %"class.perfetto::TracedValue", align 8
  %12 = alloca %"class.perfetto::TracedValue", align 8
  %13 = alloca %"class.perfetto::TracedDictionary", align 8
  %14 = alloca %"class.perfetto::TracedValue", align 8
  %15 = alloca %"class.perfetto::TracedValue", align 8
  %16 = alloca %"class.perfetto::TracedValue", align 8
  %17 = alloca %"class.std::__1::basic_string", align 8
  %18 = alloca %"class.perfetto::TracedValue", align 8
  %19 = alloca %"class.perfetto::TracedValue", align 8
  %20 = alloca %"class.perfetto::TracedValue", align 8
  %21 = alloca %"class.perfetto::TracedValue", align 8
  %22 = alloca %"class.perfetto::TracedValue", align 8
  %23 = alloca %"class.perfetto::TracedValue", align 8
  %24 = alloca %"class.perfetto::TracedValue", align 8
  %25 = alloca %"class.std::__1::basic_string", align 8
  %26 = alloca %"class.perfetto::TracedValue", align 8
  %27 = alloca %"class.std::__1::basic_string", align 8
  %28 = bitcast %"class.perfetto::TracedDictionary"* %13 to i8*
  call void @llvm.lifetime.start.p0i8(i64 16, i8* nonnull %28) #13
  %29 = bitcast %"class.perfetto::TracedDictionary"* %13 to i8*
  call void @llvm.memset.p0i8.i64(i8* nonnull align 8 %29, i8 -86, i64 16, i1 false)
  call void @_ZNO8perfetto11TracedValue15WriteDictionaryEv(%"class.perfetto::TracedDictionary"* nonnull sret %13, %"class.perfetto::TracedValue"* %1) #13
  call void @_ZN8perfetto16TracedDictionary7AddItemENS_12StaticStringE(%"class.perfetto::TracedValue"* nonnull sret %14, %"class.perfetto::TracedDictionary"* nonnull %13, i8* getelementptr inbounds ([7 x i8], [7 x i8]* @.str.18, i64 0, i64 0)) #13
  %30 = bitcast %"class.perfetto::TracedValue"* %14 to i8*
  %31 = getelementptr inbounds %"class.blink::mojom::WebBluetoothAdvertisingEvent", %"class.blink::mojom::WebBluetoothAdvertisingEvent"* %0, i64 0, i32 0, i32 0, i32 0, i32 0, i32 0
  %32 = load %"class.blink::mojom::WebBluetoothDevice"*, %"class.blink::mojom::WebBluetoothDevice"** %31, align 8
  %33 = bitcast %"class.perfetto::TracedValue"* %12 to i8*
  call void @llvm.lifetime.start.p0i8(i64 16, i8* nonnull %33) #13
  call void @llvm.memcpy.p0i8.p0i8.i64(i8* nonnull align 8 %33, i8* nonnull align 8 %30, i64 16, i1 false)
  %34 = icmp eq %"class.blink::mojom::WebBluetoothDevice"* %32, null
  br i1 %34, label %35, label %36

35:                                               ; preds = %2
  call void @_ZNO8perfetto11TracedValue12WritePointerEPKv(%"class.perfetto::TracedValue"* nonnull %12, i8* null) #13
  br label %38

36:                                               ; preds = %2
  %37 = bitcast %"class.perfetto::TracedValue"* %11 to i8*
  call void @llvm.lifetime.start.p0i8(i64 16, i8* nonnull %37) #13
  call void @llvm.memcpy.p0i8.p0i8.i64(i8* nonnull align 8 %37, i8* nonnull align 8 %33, i64 16, i1 false) #13
  call void @_ZNK5blink5mojom18WebBluetoothDevice14WriteIntoTraceEN8perfetto11TracedValueE(%"class.blink::mojom::WebBluetoothDevice"* nonnull %32, %"class.perfetto::TracedValue"* nonnull %11) #13
  call void @llvm.lifetime.end.p0i8(i64 16, i8* nonnull %37) #13
  br label %38

38:                                               ; preds = %36, %35
  call void @llvm.lifetime.end.p0i8(i64 16, i8* nonnull %33) #13
  call void @_ZN8perfetto16TracedDictionary7AddItemENS_12StaticStringE(%"class.perfetto::TracedValue"* nonnull sret %15, %"class.perfetto::TracedDictionary"* nonnull %13, i8* getelementptr inbounds ([5 x i8], [5 x i8]* @.str.2, i64 0, i64 0)) #13
  %39 = bitcast %"class.perfetto::TracedValue"* %15 to i8*
  %40 = bitcast %"class.perfetto::TracedValue"* %10 to i8*
  call void @llvm.lifetime.start.p0i8(i64 16, i8* nonnull %40) #13
  call void @llvm.memcpy.p0i8.p0i8.i64(i8* nonnull align 8 %40, i8* nonnull align 8 %39, i64 16, i1 false) #13
  %41 = getelementptr inbounds %"class.blink::mojom::WebBluetoothAdvertisingEvent", %"class.blink::mojom::WebBluetoothAdvertisingEvent"* %0, i64 0, i32 1, i32 0, i32 0, i32 0, i32 0
  %42 = load i8, i8* %41, align 8, !range !2
  %43 = icmp eq i8 %42, 0
  br i1 %43, label %44, label %45

44:                                               ; preds = %38
  call void @_ZNO8perfetto11TracedValue12WritePointerEPKv(%"class.perfetto::TracedValue"* nonnull %10, i8* null) #13
  br label %48

45:                                               ; preds = %38
  %46 = getelementptr inbounds %"class.blink::mojom::WebBluetoothAdvertisingEvent", %"class.blink::mojom::WebBluetoothAdvertisingEvent"* %0, i64 0, i32 1, i32 0, i32 0, i32 0, i32 1, i32 0
  %47 = bitcast %"class.perfetto::TracedValue"* %9 to i8*
  call void @llvm.lifetime.start.p0i8(i64 16, i8* nonnull %47) #13
  call void @llvm.memcpy.p0i8.p0i8.i64(i8* nonnull align 8 %47, i8* nonnull align 8 %40, i64 16, i1 false) #13
  call void @_ZNO8perfetto11TracedValue11WriteStringERKNSt3__112basic_stringIcNS1_11char_traitsIcEENS1_9allocatorIcEEEE(%"class.perfetto::TracedValue"* nonnull %9, %"class.std::__1::basic_string"* dereferenceable(24) %46) #13
  call void @llvm.lifetime.end.p0i8(i64 16, i8* nonnull %47) #13
  br label %48

48:                                               ; preds = %45, %44
  call void @llvm.lifetime.end.p0i8(i64 16, i8* nonnull %40) #13
  call void @_ZN8perfetto16TracedDictionary7AddItemENS_12StaticStringE(%"class.perfetto::TracedValue"* nonnull sret %16, %"class.perfetto::TracedDictionary"* nonnull %13, i8* getelementptr inbounds ([6 x i8], [6 x i8]* @.str.19, i64 0, i64 0)) #13
  %49 = bitcast %"class.std::__1::basic_string"* %17 to i8*
  call void @llvm.lifetime.start.p0i8(i64 24, i8* nonnull %49) #13
  %50 = bitcast %"class.std::__1::basic_string"* %17 to %"struct.std::__1::basic_string<char, std::__1::char_traits<char>, std::__1::allocator<char> >::__short"*
  %51 = getelementptr inbounds %"struct.std::__1::basic_string<char, std::__1::char_traits<char>, std::__1::allocator<char> >::__short", %"struct.std::__1::basic_string<char, std::__1::char_traits<char>, std::__1::allocator<char> >::__short"* %50, i64 0, i32 1, i32 0
  store i8 7, i8* %51, align 1
  call void @llvm.memcpy.p0i8.p0i8.i64(i8* nonnull align 8 %49, i8* align 1 getelementptr inbounds ([8 x i8], [8 x i8]* @.str.1, i64 0, i64 0), i64 7, i1 false) #13
  %52 = getelementptr inbounds i8, i8* %49, i64 7
  store i8 0, i8* %52, align 1
  call void @_ZNO8perfetto11TracedValue11WriteStringERKNSt3__112basic_stringIcNS1_11char_traitsIcEENS1_9allocatorIcEEEE(%"class.perfetto::TracedValue"* nonnull %16, %"class.std::__1::basic_string"* nonnull dereferenceable(24) %17) #13
  %53 = load i8, i8* %51, align 1
  %54 = icmp slt i8 %53, 0
  br i1 %54, label %55, label %58

55:                                               ; preds = %48
  %56 = getelementptr inbounds %"class.std::__1::basic_string", %"class.std::__1::basic_string"* %17, i64 0, i32 0, i32 0, i32 0, i32 0, i32 0, i32 0
  %57 = load i8*, i8** %56, align 8
  call void @_ZdlPv(i8* %57) #14
  br label %58

58:                                               ; preds = %48, %55
  call void @llvm.lifetime.end.p0i8(i64 24, i8* nonnull %49) #13
  call void @_ZN8perfetto16TracedDictionary7AddItemENS_12StaticStringE(%"class.perfetto::TracedValue"* nonnull sret %18, %"class.perfetto::TracedDictionary"* nonnull %13, i8* getelementptr inbounds ([18 x i8], [18 x i8]* @.str.20, i64 0, i64 0)) #13
  %59 = getelementptr inbounds %"class.blink::mojom::WebBluetoothAdvertisingEvent", %"class.blink::mojom::WebBluetoothAdvertisingEvent"* %0, i64 0, i32 3
  %60 = bitcast %"class.perfetto::TracedValue"* %18 to i8*
  %61 = bitcast %"class.perfetto::TracedValue"* %8 to i8*
  call void @llvm.lifetime.start.p0i8(i64 16, i8* nonnull %61) #13
  call void @llvm.memcpy.p0i8.p0i8.i64(i8* nonnull align 8 %61, i8* nonnull align 8 %60, i64 16, i1 false) #13
  %62 = load i8, i8* %59, align 1, !range !2
  %63 = icmp ne i8 %62, 0
  call void @_ZNO8perfetto11TracedValue12WriteBooleanEb(%"class.perfetto::TracedValue"* nonnull %8, i1 zeroext %63) #13
  call void @llvm.lifetime.end.p0i8(i64 16, i8* nonnull %61) #13
  call void @_ZN8perfetto16TracedDictionary7AddItemENS_12StaticStringE(%"class.perfetto::TracedValue"* nonnull sret %19, %"class.perfetto::TracedDictionary"* nonnull %13, i8* getelementptr inbounds ([11 x i8], [11 x i8]* @.str.21, i64 0, i64 0)) #13
  %64 = getelementptr inbounds %"class.blink::mojom::WebBluetoothAdvertisingEvent", %"class.blink::mojom::WebBluetoothAdvertisingEvent"* %0, i64 0, i32 4
  %65 = bitcast %"class.perfetto::TracedValue"* %19 to i8*
  %66 = bitcast %"class.perfetto::TracedValue"* %7 to i8*
  call void @llvm.lifetime.start.p0i8(i64 16, i8* nonnull %66) #13
  call void @llvm.memcpy.p0i8.p0i8.i64(i8* nonnull align 8 %66, i8* nonnull align 8 %65, i64 16, i1 false) #13
  %67 = load i16, i16* %64, align 2
  %68 = zext i16 %67 to i64
  call void @_ZNO8perfetto11TracedValue11WriteUInt64Em(%"class.perfetto::TracedValue"* nonnull %7, i64 %68) #13
  call void @llvm.lifetime.end.p0i8(i64 16, i8* nonnull %66) #13
  call void @_ZN8perfetto16TracedDictionary7AddItemENS_12StaticStringE(%"class.perfetto::TracedValue"* nonnull sret %20, %"class.perfetto::TracedDictionary"* nonnull %13, i8* getelementptr inbounds ([16 x i8], [16 x i8]* @.str.22, i64 0, i64 0)) #13
  %69 = getelementptr inbounds %"class.blink::mojom::WebBluetoothAdvertisingEvent", %"class.blink::mojom::WebBluetoothAdvertisingEvent"* %0, i64 0, i32 5
  %70 = bitcast %"class.perfetto::TracedValue"* %20 to i8*
  %71 = bitcast %"class.perfetto::TracedValue"* %6 to i8*
  call void @llvm.lifetime.start.p0i8(i64 16, i8* nonnull %71) #13
  call void @llvm.memcpy.p0i8.p0i8.i64(i8* nonnull align 8 %71, i8* nonnull align 8 %70, i64 16, i1 false) #13
  %72 = load i8, i8* %69, align 1, !range !2
  %73 = icmp ne i8 %72, 0
  call void @_ZNO8perfetto11TracedValue12WriteBooleanEb(%"class.perfetto::TracedValue"* nonnull %6, i1 zeroext %73) #13
  call void @llvm.lifetime.end.p0i8(i64 16, i8* nonnull %71) #13
  call void @_ZN8perfetto16TracedDictionary7AddItemENS_12StaticStringE(%"class.perfetto::TracedValue"* nonnull sret %21, %"class.perfetto::TracedDictionary"* nonnull %13, i8* getelementptr inbounds ([9 x i8], [9 x i8]* @.str.23, i64 0, i64 0)) #13
  %74 = getelementptr inbounds %"class.blink::mojom::WebBluetoothAdvertisingEvent", %"class.blink::mojom::WebBluetoothAdvertisingEvent"* %0, i64 0, i32 6
  %75 = bitcast %"class.perfetto::TracedValue"* %21 to i8*
  %76 = bitcast %"class.perfetto::TracedValue"* %5 to i8*
  call void @llvm.lifetime.start.p0i8(i64 16, i8* nonnull %76) #13
  call void @llvm.memcpy.p0i8.p0i8.i64(i8* nonnull align 8 %76, i8* nonnull align 8 %75, i64 16, i1 false) #13
  %77 = load i8, i8* %74, align 1
  %78 = zext i8 %77 to i64
  call void @_ZNO8perfetto11TracedValue11WriteUInt64Em(%"class.perfetto::TracedValue"* nonnull %5, i64 %78) #13
  call void @llvm.lifetime.end.p0i8(i64 16, i8* nonnull %76) #13
  call void @_ZN8perfetto16TracedDictionary7AddItemENS_12StaticStringE(%"class.perfetto::TracedValue"* nonnull sret %22, %"class.perfetto::TracedDictionary"* nonnull %13, i8* getelementptr inbounds ([12 x i8], [12 x i8]* @.str.24, i64 0, i64 0)) #13
  %79 = getelementptr inbounds %"class.blink::mojom::WebBluetoothAdvertisingEvent", %"class.blink::mojom::WebBluetoothAdvertisingEvent"* %0, i64 0, i32 7
  %80 = bitcast %"class.perfetto::TracedValue"* %22 to i8*
  %81 = bitcast %"class.perfetto::TracedValue"* %4 to i8*
  call void @llvm.lifetime.start.p0i8(i64 16, i8* nonnull %81) #13
  call void @llvm.memcpy.p0i8.p0i8.i64(i8* nonnull align 8 %81, i8* nonnull align 8 %80, i64 16, i1 false) #13
  %82 = load i8, i8* %79, align 1, !range !2
  %83 = icmp ne i8 %82, 0
  call void @_ZNO8perfetto11TracedValue12WriteBooleanEb(%"class.perfetto::TracedValue"* nonnull %4, i1 zeroext %83) #13
  call void @llvm.lifetime.end.p0i8(i64 16, i8* nonnull %81) #13
  call void @_ZN8perfetto16TracedDictionary7AddItemENS_12StaticStringE(%"class.perfetto::TracedValue"* nonnull sret %23, %"class.perfetto::TracedDictionary"* nonnull %13, i8* getelementptr inbounds ([5 x i8], [5 x i8]* @.str.25, i64 0, i64 0)) #13
  %84 = getelementptr inbounds %"class.blink::mojom::WebBluetoothAdvertisingEvent", %"class.blink::mojom::WebBluetoothAdvertisingEvent"* %0, i64 0, i32 8
  %85 = bitcast %"class.perfetto::TracedValue"* %23 to i8*
  %86 = bitcast %"class.perfetto::TracedValue"* %3 to i8*
  call void @llvm.lifetime.start.p0i8(i64 16, i8* nonnull %86) #13
  call void @llvm.memcpy.p0i8.p0i8.i64(i8* nonnull align 8 %86, i8* nonnull align 8 %85, i64 16, i1 false) #13
  %87 = load i8, i8* %84, align 1
  %88 = zext i8 %87 to i64
  call void @_ZNO8perfetto11TracedValue11WriteUInt64Em(%"class.perfetto::TracedValue"* nonnull %3, i64 %88) #13
  call void @llvm.lifetime.end.p0i8(i64 16, i8* nonnull %86) #13
  call void @_ZN8perfetto16TracedDictionary7AddItemENS_12StaticStringE(%"class.perfetto::TracedValue"* nonnull sret %24, %"class.perfetto::TracedDictionary"* nonnull %13, i8* getelementptr inbounds ([18 x i8], [18 x i8]* @.str.4, i64 0, i64 0)) #13
  %89 = bitcast %"class.std::__1::basic_string"* %25 to i8*
  call void @llvm.lifetime.start.p0i8(i64 24, i8* nonnull %89) #13
  %90 = bitcast %"class.std::__1::basic_string"* %25 to %"struct.std::__1::basic_string<char, std::__1::char_traits<char>, std::__1::allocator<char> >::__short"*
  %91 = getelementptr inbounds %"struct.std::__1::basic_string<char, std::__1::char_traits<char>, std::__1::allocator<char> >::__short", %"struct.std::__1::basic_string<char, std::__1::char_traits<char>, std::__1::allocator<char> >::__short"* %90, i64 0, i32 1, i32 0
  store i8 7, i8* %91, align 1
  call void @llvm.memcpy.p0i8.p0i8.i64(i8* nonnull align 8 %89, i8* align 1 getelementptr inbounds ([8 x i8], [8 x i8]* @.str.1, i64 0, i64 0), i64 7, i1 false) #13
  %92 = getelementptr inbounds i8, i8* %89, i64 7
  store i8 0, i8* %92, align 1
  call void @_ZNO8perfetto11TracedValue11WriteStringERKNSt3__112basic_stringIcNS1_11char_traitsIcEENS1_9allocatorIcEEEE(%"class.perfetto::TracedValue"* nonnull %24, %"class.std::__1::basic_string"* nonnull dereferenceable(24) %25) #13
  %93 = load i8, i8* %91, align 1
  %94 = icmp slt i8 %93, 0
  br i1 %94, label %95, label %98

95:                                               ; preds = %58
  %96 = getelementptr inbounds %"class.std::__1::basic_string", %"class.std::__1::basic_string"* %25, i64 0, i32 0, i32 0, i32 0, i32 0, i32 0, i32 0
  %97 = load i8*, i8** %96, align 8
  call void @_ZdlPv(i8* %97) #14
  br label %98

98:                                               ; preds = %58, %95
  call void @llvm.lifetime.end.p0i8(i64 24, i8* nonnull %89) #13
  call void @_ZN8perfetto16TracedDictionary7AddItemENS_12StaticStringE(%"class.perfetto::TracedValue"* nonnull sret %26, %"class.perfetto::TracedDictionary"* nonnull %13, i8* getelementptr inbounds ([13 x i8], [13 x i8]* @.str.26, i64 0, i64 0)) #13
  %99 = bitcast %"class.std::__1::basic_string"* %27 to i8*
  call void @llvm.lifetime.start.p0i8(i64 24, i8* nonnull %99) #13
  %100 = bitcast %"class.std::__1::basic_string"* %27 to %"struct.std::__1::basic_string<char, std::__1::char_traits<char>, std::__1::allocator<char> >::__short"*
  %101 = getelementptr inbounds %"struct.std::__1::basic_string<char, std::__1::char_traits<char>, std::__1::allocator<char> >::__short", %"struct.std::__1::basic_string<char, std::__1::char_traits<char>, std::__1::allocator<char> >::__short"* %100, i64 0, i32 1, i32 0
  store i8 7, i8* %101, align 1
  call void @llvm.memcpy.p0i8.p0i8.i64(i8* nonnull align 8 %99, i8* align 1 getelementptr inbounds ([8 x i8], [8 x i8]* @.str.1, i64 0, i64 0), i64 7, i1 false) #13
  %102 = getelementptr inbounds i8, i8* %99, i64 7
  store i8 0, i8* %102, align 1
  call void @_ZNO8perfetto11TracedValue11WriteStringERKNSt3__112basic_stringIcNS1_11char_traitsIcEENS1_9allocatorIcEEEE(%"class.perfetto::TracedValue"* nonnull %26, %"class.std::__1::basic_string"* nonnull dereferenceable(24) %27) #13
  %103 = load i8, i8* %101, align 1
  %104 = icmp slt i8 %103, 0
  br i1 %104, label %105, label %108

105:                                              ; preds = %98
  %106 = getelementptr inbounds %"class.std::__1::basic_string", %"class.std::__1::basic_string"* %27, i64 0, i32 0, i32 0, i32 0, i32 0, i32 0, i32 0
  %107 = load i8*, i8** %106, align 8
  call void @_ZdlPv(i8* %107) #14
  br label %108

108:                                              ; preds = %98, %105
  call void @llvm.lifetime.end.p0i8(i64 24, i8* nonnull %99) #13
  call void @llvm.lifetime.end.p0i8(i64 16, i8* nonnull %28) #13
  ret void
}

; Function Attrs: nounwind ssp uwtable
define hidden zeroext i1 @_ZN5blink5mojom28WebBluetoothAdvertisingEvent8ValidateEPKvPN4mojo8internal17ValidationContextE(i8*, %"class.mojo::internal::ValidationContext"*) local_unnamed_addr #0 align 2 {
  %3 = tail call zeroext i1 @_ZN5blink5mojom8internal33WebBluetoothAdvertisingEvent_Data8ValidateEPKvPN4mojo8internal17ValidationContextE(i8* %0, %"class.mojo::internal::ValidationContext"* %1) #13
  ret i1 %3
}

declare zeroext i1 @_ZN5blink5mojom8internal33WebBluetoothAdvertisingEvent_Data8ValidateEPKvPN4mojo8internal17ValidationContextE(i8*, %"class.mojo::internal::ValidationContext"*) local_unnamed_addr #2

; Function Attrs: nounwind ssp uwtable
define hidden void @_ZN5blink5mojom32WebBluetoothRemoteGATTDescriptorC2Ev(%"class.blink::mojom::WebBluetoothRemoteGATTDescriptor"*) unnamed_addr #0 align 2 {
  %2 = bitcast %"class.blink::mojom::WebBluetoothRemoteGATTDescriptor"* %0 to i8*
  tail call void @llvm.memset.p0i8.i64(i8* align 8 %2, i8 0, i64 24, i1 false) #13
  %3 = getelementptr inbounds %"class.blink::mojom::WebBluetoothRemoteGATTDescriptor", %"class.blink::mojom::WebBluetoothRemoteGATTDescriptor"* %0, i64 0, i32 1
  tail call void @_ZN6device13BluetoothUUIDC1Ev(%"class.device::BluetoothUUID"* %3) #13
  ret void
}

; Function Attrs: nounwind ssp uwtable
define hidden void @_ZN5blink5mojom32WebBluetoothRemoteGATTDescriptorC2ERKNSt3__112basic_stringIcNS2_11char_traitsIcEENS2_9allocatorIcEEEERKN6device13BluetoothUUIDE(%"class.blink::mojom::WebBluetoothRemoteGATTDescriptor"*, %"class.std::__1::basic_string"* nocapture readonly dereferenceable(24), %"class.device::BluetoothUUID"* nocapture readonly dereferenceable(56)) unnamed_addr #0 align 2 {
  %4 = bitcast %"class.std::__1::basic_string"* %1 to %"struct.std::__1::basic_string<char, std::__1::char_traits<char>, std::__1::allocator<char> >::__short"*
  %5 = getelementptr inbounds %"struct.std::__1::basic_string<char, std::__1::char_traits<char>, std::__1::allocator<char> >::__short", %"struct.std::__1::basic_string<char, std::__1::char_traits<char>, std::__1::allocator<char> >::__short"* %4, i64 0, i32 1, i32 0
  %6 = load i8, i8* %5, align 1
  %7 = icmp slt i8 %6, 0
  br i1 %7, label %11, label %8

8:                                                ; preds = %3
  %9 = bitcast %"class.blink::mojom::WebBluetoothRemoteGATTDescriptor"* %0 to i8*
  %10 = bitcast %"class.std::__1::basic_string"* %1 to i8*
  tail call void @llvm.memcpy.p0i8.p0i8.i64(i8* align 8 %9, i8* align 8 %10, i64 24, i1 false) #13
  br label %17

11:                                               ; preds = %3
  %12 = getelementptr inbounds %"class.blink::mojom::WebBluetoothRemoteGATTDescriptor", %"class.blink::mojom::WebBluetoothRemoteGATTDescriptor"* %0, i64 0, i32 0
  %13 = getelementptr inbounds %"class.std::__1::basic_string", %"class.std::__1::basic_string"* %1, i64 0, i32 0, i32 0, i32 0, i32 0, i32 0, i32 0
  %14 = load i8*, i8** %13, align 8
  %15 = getelementptr inbounds %"class.std::__1::basic_string", %"class.std::__1::basic_string"* %1, i64 0, i32 0, i32 0, i32 0, i32 0, i32 0, i32 1
  %16 = load i64, i64* %15, align 8
  tail call void @_ZNSt3__112basic_stringIcNS_11char_traitsIcEENS_9allocatorIcEEE25__init_copy_ctor_externalEPKcm(%"class.std::__1::basic_string"* %12, i8* %14, i64 %16) #13
  br label %17

17:                                               ; preds = %8, %11
  %18 = getelementptr inbounds %"class.blink::mojom::WebBluetoothRemoteGATTDescriptor", %"class.blink::mojom::WebBluetoothRemoteGATTDescriptor"* %0, i64 0, i32 1, i32 0
  %19 = getelementptr inbounds %"class.device::BluetoothUUID", %"class.device::BluetoothUUID"* %2, i64 0, i32 0
  %20 = load i32, i32* %19, align 8
  store i32 %20, i32* %18, align 8
  %21 = getelementptr inbounds %"class.blink::mojom::WebBluetoothRemoteGATTDescriptor", %"class.blink::mojom::WebBluetoothRemoteGATTDescriptor"* %0, i64 0, i32 1, i32 1
  %22 = getelementptr inbounds %"class.device::BluetoothUUID", %"class.device::BluetoothUUID"* %2, i64 0, i32 1
  %23 = bitcast %"class.std::__1::basic_string"* %22 to %"struct.std::__1::basic_string<char, std::__1::char_traits<char>, std::__1::allocator<char> >::__short"*
  %24 = getelementptr inbounds %"struct.std::__1::basic_string<char, std::__1::char_traits<char>, std::__1::allocator<char> >::__short", %"struct.std::__1::basic_string<char, std::__1::char_traits<char>, std::__1::allocator<char> >::__short"* %23, i64 0, i32 1, i32 0
  %25 = load i8, i8* %24, align 1
  %26 = icmp slt i8 %25, 0
  br i1 %26, label %30, label %27

27:                                               ; preds = %17
  %28 = bitcast %"class.std::__1::basic_string"* %21 to i8*
  %29 = bitcast %"class.std::__1::basic_string"* %22 to i8*
  tail call void @llvm.memcpy.p0i8.p0i8.i64(i8* align 8 %28, i8* align 8 %29, i64 24, i1 false) #13
  br label %35

30:                                               ; preds = %17
  %31 = getelementptr inbounds %"class.std::__1::basic_string", %"class.std::__1::basic_string"* %22, i64 0, i32 0, i32 0, i32 0, i32 0, i32 0, i32 0
  %32 = load i8*, i8** %31, align 8
  %33 = getelementptr inbounds %"class.device::BluetoothUUID", %"class.device::BluetoothUUID"* %2, i64 0, i32 1, i32 0, i32 0, i32 0, i32 0, i32 0, i32 1
  %34 = load i64, i64* %33, align 8
  tail call void @_ZNSt3__112basic_stringIcNS_11char_traitsIcEENS_9allocatorIcEEE25__init_copy_ctor_externalEPKcm(%"class.std::__1::basic_string"* %21, i8* %32, i64 %34) #13
  br label %35

35:                                               ; preds = %30, %27
  %36 = getelementptr inbounds %"class.blink::mojom::WebBluetoothRemoteGATTDescriptor", %"class.blink::mojom::WebBluetoothRemoteGATTDescriptor"* %0, i64 0, i32 1, i32 2
  %37 = getelementptr inbounds %"class.device::BluetoothUUID", %"class.device::BluetoothUUID"* %2, i64 0, i32 2
  %38 = bitcast %"class.std::__1::basic_string"* %37 to %"struct.std::__1::basic_string<char, std::__1::char_traits<char>, std::__1::allocator<char> >::__short"*
  %39 = getelementptr inbounds %"struct.std::__1::basic_string<char, std::__1::char_traits<char>, std::__1::allocator<char> >::__short", %"struct.std::__1::basic_string<char, std::__1::char_traits<char>, std::__1::allocator<char> >::__short"* %38, i64 0, i32 1, i32 0
  %40 = load i8, i8* %39, align 1
  %41 = icmp slt i8 %40, 0
  br i1 %41, label %45, label %42

42:                                               ; preds = %35
  %43 = bitcast %"class.std::__1::basic_string"* %36 to i8*
  %44 = bitcast %"class.std::__1::basic_string"* %37 to i8*
  tail call void @llvm.memcpy.p0i8.p0i8.i64(i8* align 8 %43, i8* align 8 %44, i64 24, i1 false) #13
  br label %50

45:                                               ; preds = %35
  %46 = getelementptr inbounds %"class.std::__1::basic_string", %"class.std::__1::basic_string"* %37, i64 0, i32 0, i32 0, i32 0, i32 0, i32 0, i32 0
  %47 = load i8*, i8** %46, align 8
  %48 = getelementptr inbounds %"class.device::BluetoothUUID", %"class.device::BluetoothUUID"* %2, i64 0, i32 2, i32 0, i32 0, i32 0, i32 0, i32 0, i32 1
  %49 = load i64, i64* %48, align 8
  tail call void @_ZNSt3__112basic_stringIcNS_11char_traitsIcEENS_9allocatorIcEEE25__init_copy_ctor_externalEPKcm(%"class.std::__1::basic_string"* %36, i8* %47, i64 %49) #13
  br label %50

50:                                               ; preds = %42, %45
  ret void
}

; Function Attrs: nounwind ssp uwtable
define hidden void @_ZN5blink5mojom32WebBluetoothRemoteGATTDescriptorD2Ev(%"class.blink::mojom::WebBluetoothRemoteGATTDescriptor"*) unnamed_addr #0 align 2 {
  %2 = getelementptr inbounds %"class.blink::mojom::WebBluetoothRemoteGATTDescriptor", %"class.blink::mojom::WebBluetoothRemoteGATTDescriptor"* %0, i64 0, i32 1
  tail call void @_ZN6device13BluetoothUUIDD1Ev(%"class.device::BluetoothUUID"* %2) #13
  %3 = bitcast %"class.blink::mojom::WebBluetoothRemoteGATTDescriptor"* %0 to %"struct.std::__1::basic_string<char, std::__1::char_traits<char>, std::__1::allocator<char> >::__short"*
  %4 = getelementptr inbounds %"struct.std::__1::basic_string<char, std::__1::char_traits<char>, std::__1::allocator<char> >::__short", %"struct.std::__1::basic_string<char, std::__1::char_traits<char>, std::__1::allocator<char> >::__short"* %3, i64 0, i32 1, i32 0
  %5 = load i8, i8* %4, align 1
  %6 = icmp slt i8 %5, 0
  br i1 %6, label %7, label %10

7:                                                ; preds = %1
  %8 = getelementptr inbounds %"class.blink::mojom::WebBluetoothRemoteGATTDescriptor", %"class.blink::mojom::WebBluetoothRemoteGATTDescriptor"* %0, i64 0, i32 0, i32 0, i32 0, i32 0, i32 0, i32 0, i32 0
  %9 = load i8*, i8** %8, align 8
  tail call void @_ZdlPv(i8* %9) #14
  br label %10

10:                                               ; preds = %1, %7
  ret void
}

; Function Attrs: nounwind ssp uwtable
define hidden void @_ZNK5blink5mojom32WebBluetoothRemoteGATTDescriptor14WriteIntoTraceEN8perfetto11TracedValueE(%"class.blink::mojom::WebBluetoothRemoteGATTDescriptor"*, %"class.perfetto::TracedValue"*) local_unnamed_addr #0 align 2 {
  %3 = alloca %"class.perfetto::TracedValue", align 8
  %4 = alloca %"class.perfetto::TracedDictionary", align 8
  %5 = alloca %"class.perfetto::TracedValue", align 8
  %6 = alloca %"class.perfetto::TracedValue", align 8
  %7 = alloca %"class.std::__1::basic_string", align 8
  %8 = bitcast %"class.perfetto::TracedDictionary"* %4 to i8*
  call void @llvm.lifetime.start.p0i8(i64 16, i8* nonnull %8) #13
  %9 = bitcast %"class.perfetto::TracedDictionary"* %4 to i8*
  call void @llvm.memset.p0i8.i64(i8* nonnull align 8 %9, i8 -86, i64 16, i1 false)
  call void @_ZNO8perfetto11TracedValue15WriteDictionaryEv(%"class.perfetto::TracedDictionary"* nonnull sret %4, %"class.perfetto::TracedValue"* %1) #13
  call void @_ZN8perfetto16TracedDictionary7AddItemENS_12StaticStringE(%"class.perfetto::TracedValue"* nonnull sret %5, %"class.perfetto::TracedDictionary"* nonnull %4, i8* getelementptr inbounds ([12 x i8], [12 x i8]* @.str.15, i64 0, i64 0)) #13
  %10 = getelementptr inbounds %"class.blink::mojom::WebBluetoothRemoteGATTDescriptor", %"class.blink::mojom::WebBluetoothRemoteGATTDescriptor"* %0, i64 0, i32 0
  %11 = bitcast %"class.perfetto::TracedValue"* %5 to i8*
  %12 = bitcast %"class.perfetto::TracedValue"* %3 to i8*
  call void @llvm.lifetime.start.p0i8(i64 16, i8* nonnull %12) #13
  call void @llvm.memcpy.p0i8.p0i8.i64(i8* nonnull align 8 %12, i8* nonnull align 8 %11, i64 16, i1 false) #13
  call void @_ZNO8perfetto11TracedValue11WriteStringERKNSt3__112basic_stringIcNS1_11char_traitsIcEENS1_9allocatorIcEEEE(%"class.perfetto::TracedValue"* nonnull %3, %"class.std::__1::basic_string"* dereferenceable(24) %10) #13
  call void @llvm.lifetime.end.p0i8(i64 16, i8* nonnull %12) #13
  call void @_ZN8perfetto16TracedDictionary7AddItemENS_12StaticStringE(%"class.perfetto::TracedValue"* nonnull sret %6, %"class.perfetto::TracedDictionary"* nonnull %4, i8* getelementptr inbounds ([5 x i8], [5 x i8]* @.str.16, i64 0, i64 0)) #13
  %13 = bitcast %"class.std::__1::basic_string"* %7 to i8*
  call void @llvm.lifetime.start.p0i8(i64 24, i8* nonnull %13) #13
  %14 = bitcast %"class.std::__1::basic_string"* %7 to %"struct.std::__1::basic_string<char, std::__1::char_traits<char>, std::__1::allocator<char> >::__short"*
  %15 = getelementptr inbounds %"struct.std::__1::basic_string<char, std::__1::char_traits<char>, std::__1::allocator<char> >::__short", %"struct.std::__1::basic_string<char, std::__1::char_traits<char>, std::__1::allocator<char> >::__short"* %14, i64 0, i32 1, i32 0
  store i8 7, i8* %15, align 1
  call void @llvm.memcpy.p0i8.p0i8.i64(i8* nonnull align 8 %13, i8* align 1 getelementptr inbounds ([8 x i8], [8 x i8]* @.str.1, i64 0, i64 0), i64 7, i1 false) #13
  %16 = getelementptr inbounds i8, i8* %13, i64 7
  store i8 0, i8* %16, align 1
  call void @_ZNO8perfetto11TracedValue11WriteStringERKNSt3__112basic_stringIcNS1_11char_traitsIcEENS1_9allocatorIcEEEE(%"class.perfetto::TracedValue"* nonnull %6, %"class.std::__1::basic_string"* nonnull dereferenceable(24) %7) #13
  %17 = load i8, i8* %15, align 1
  %18 = icmp slt i8 %17, 0
  br i1 %18, label %19, label %22

19:                                               ; preds = %2
  %20 = getelementptr inbounds %"class.std::__1::basic_string", %"class.std::__1::basic_string"* %7, i64 0, i32 0, i32 0, i32 0, i32 0, i32 0, i32 0
  %21 = load i8*, i8** %20, align 8
  call void @_ZdlPv(i8* %21) #14
  br label %22

22:                                               ; preds = %2, %19
  call void @llvm.lifetime.end.p0i8(i64 24, i8* nonnull %13) #13
  call void @llvm.lifetime.end.p0i8(i64 16, i8* nonnull %8) #13
  ret void
}

; Function Attrs: nounwind ssp uwtable
define hidden zeroext i1 @_ZN5blink5mojom32WebBluetoothRemoteGATTDescriptor8ValidateEPKvPN4mojo8internal17ValidationContextE(i8*, %"class.mojo::internal::ValidationContext"*) local_unnamed_addr #0 align 2 {
  %3 = tail call zeroext i1 @_ZN5blink5mojom8internal37WebBluetoothRemoteGATTDescriptor_Data8ValidateEPKvPN4mojo8internal17ValidationContextE(i8* %0, %"class.mojo::internal::ValidationContext"* %1) #13
  ret i1 %3
}

declare zeroext i1 @_ZN5blink5mojom8internal37WebBluetoothRemoteGATTDescriptor_Data8ValidateEPKvPN4mojo8internal17ValidationContextE(i8*, %"class.mojo::internal::ValidationContext"*) local_unnamed_addr #2

; Function Attrs: nofree norecurse nounwind ssp uwtable writeonly
define hidden void @_ZN5blink5mojom24WebBluetoothServiceProxyC2EPN4mojo28MessageReceiverWithResponderE(%"class.blink::mojom::WebBluetoothServiceProxy"* nocapture, %"class.mojo::MessageReceiverWithResponder"*) unnamed_addr #3 align 2 {
  %3 = getelementptr inbounds %"class.blink::mojom::WebBluetoothServiceProxy", %"class.blink::mojom::WebBluetoothServiceProxy"* %0, i64 0, i32 0, i32 0
  store i32 (...)** bitcast (i8** getelementptr inbounds ({ [20 x i8*] }, { [20 x i8*] }* @_ZTVN5blink5mojom24WebBluetoothServiceProxyE, i64 0, inrange i32 0, i64 2) to i32 (...)**), i32 (...)*** %3, align 8
  %4 = getelementptr inbounds %"class.blink::mojom::WebBluetoothServiceProxy", %"class.blink::mojom::WebBluetoothServiceProxy"* %0, i64 0, i32 1
  store %"class.mojo::MessageReceiverWithResponder"* %1, %"class.mojo::MessageReceiverWithResponder"** %4, align 8
  ret void
}

; Function Attrs: nounwind ssp uwtable
define hidden void @_ZN5blink5mojom24WebBluetoothServiceProxy15GetAvailabilityEN4base12OnceCallbackIFvbEEE(%"class.blink::mojom::WebBluetoothServiceProxy"* nocapture readonly, %"class.base::OnceCallback"* nocapture) unnamed_addr #0 align 2 {
  %3 = alloca %"class.mojo::Message", align 8
  %4 = alloca %"class.base::OnceCallback", align 8
  %5 = bitcast %"class.mojo::Message"* %3 to i8*
  call void @llvm.lifetime.start.p0i8(i64 120, i8* nonnull %5) #13
  call void @llvm.memset.p0i8.i64(i8* nonnull align 8 %5, i8 -86, i64 120, i1 false)
  call void @_ZN4mojo7MessageC1EjjmmPNSt3__16vectorINS_16ScopedHandleBaseINS_6HandleEEENS1_9allocatorIS5_EEEE(%"class.mojo::Message"* nonnull %3, i32 1172563722, i32 1, i64 0, i64 0, %"class.std::__1::vector.37"* null) #13
  %6 = getelementptr inbounds %"class.mojo::Message", %"class.mojo::Message"* %3, i64 0, i32 1
  %7 = call i64 @_ZN4mojo8internal6Buffer8AllocateEm(%"class.mojo::internal::Buffer"* %6, i64 8) #13
  %8 = getelementptr inbounds %"class.mojo::Message", %"class.mojo::Message"* %3, i64 0, i32 1, i32 2
  %9 = load i8*, i8** %8, align 8
  %10 = getelementptr inbounds i8, i8* %9, i64 %7
  %11 = bitcast i8* %10 to %"class.blink::mojom::internal::WebBluetoothService_GetAvailability_Params_Data"*
  call void @_ZN5blink5mojom8internal47WebBluetoothService_GetAvailability_Params_DataC1Ev(%"class.blink::mojom::internal::WebBluetoothService_GetAvailability_Params_Data"* %11) #13
  %12 = call i8* @_Znwm(i64 16) #14
  %13 = getelementptr inbounds %"class.base::OnceCallback", %"class.base::OnceCallback"* %1, i64 0, i32 0, i32 0, i32 0
  %14 = bitcast %"class.base::OnceCallback"* %1 to i64*
  %15 = load i64, i64* %14, align 8
  store %"class.base::internal::BindStateBase"* null, %"class.base::internal::BindStateBase"** %13, align 8
  %16 = bitcast i8* %12 to i32 (...)***
  store i32 (...)** bitcast (i8** getelementptr inbounds ({ [6 x i8*] }, { [6 x i8*] }* @_ZTVN5blink5mojom53WebBluetoothService_GetAvailability_ForwardToCallbackE, i64 0, inrange i32 0, i64 2) to i32 (...)**), i32 (...)*** %16, align 8
  %17 = getelementptr inbounds i8, i8* %12, i64 8
  %18 = getelementptr inbounds %"class.base::OnceCallback", %"class.base::OnceCallback"* %4, i64 0, i32 0, i32 0, i32 0
  %19 = bitcast i8* %17 to i64*
  store i64 %15, i64* %19, align 8
  store %"class.base::internal::BindStateBase"* null, %"class.base::internal::BindStateBase"** %18, align 8
  %20 = bitcast i8* %12 to %"class.mojo::MessageReceiver"*
  %21 = getelementptr inbounds %"class.base::OnceCallback", %"class.base::OnceCallback"* %4, i64 0, i32 0
  call void @_ZN4base8internal12CallbackBaseD2Ev(%"class.base::internal::CallbackBase"* nonnull %21) #13
  %22 = getelementptr inbounds %"class.blink::mojom::WebBluetoothServiceProxy", %"class.blink::mojom::WebBluetoothServiceProxy"* %0, i64 0, i32 1
  %23 = load %"class.mojo::MessageReceiverWithResponder"*, %"class.mojo::MessageReceiverWithResponder"** %22, align 8
  %24 = bitcast %"class.mojo::MessageReceiverWithResponder"* %23 to i1 (%"class.mojo::MessageReceiverWithResponder"*, %"class.mojo::Message"*, %"class.mojo::MessageReceiver"*)***
  %25 = load i1 (%"class.mojo::MessageReceiverWithResponder"*, %"class.mojo::Message"*, %"class.mojo::MessageReceiver"*)**, i1 (%"class.mojo::MessageReceiverWithResponder"*, %"class.mojo::Message"*, %"class.mojo::MessageReceiver"*)*** %24, align 8
  %26 = getelementptr inbounds i1 (%"class.mojo::MessageReceiverWithResponder"*, %"class.mojo::Message"*, %"class.mojo::MessageReceiver"*)*, i1 (%"class.mojo::MessageReceiverWithResponder"*, %"class.mojo::Message"*, %"class.mojo::MessageReceiver"*)** %25, i64 4
  %27 = load i1 (%"class.mojo::MessageReceiverWithResponder"*, %"class.mojo::Message"*, %"class.mojo::MessageReceiver"*)*, i1 (%"class.mojo::MessageReceiverWithResponder"*, %"class.mojo::Message"*, %"class.mojo::MessageReceiver"*)** %26, align 8
  %28 = call zeroext i1 %27(%"class.mojo::MessageReceiverWithResponder"* %23, %"class.mojo::Message"* nonnull %3, %"class.mojo::MessageReceiver"* nonnull %20) #13
  call void @_ZN4mojo7MessageD1Ev(%"class.mojo::Message"* nonnull %3) #13
  call void @llvm.lifetime.end.p0i8(i64 120, i8* nonnull %5) #13
  ret void
}

declare void @_ZN4mojo7MessageC1EjjmmPNSt3__16vectorINS_16ScopedHandleBaseINS_6HandleEEENS1_9allocatorIS5_EEEE(%"class.mojo::Message"*, i32, i32, i64, i64, %"class.std::__1::vector.37"*) unnamed_addr #2

; Function Attrs: nobuiltin nofree
declare noalias nonnull i8* @_Znwm(i64) local_unnamed_addr #7

; Function Attrs: nounwind
declare void @_ZN4mojo7MessageD1Ev(%"class.mojo::Message"*) unnamed_addr #6

; Function Attrs: nounwind ssp uwtable
define hidden void @_ZN5blink5mojom24WebBluetoothServiceProxy13RequestDeviceEN4mojo9StructPtrINS0_32WebBluetoothRequestDeviceOptionsEEEN4base12OnceCallbackIFvNS0_18WebBluetoothResultENS3_INS0_18WebBluetoothDeviceEEEEEE(%"class.blink::mojom::WebBluetoothServiceProxy"* nocapture readonly, %"class.mojo::StructPtr.125"*, %"class.base::OnceCallback.132"* nocapture) unnamed_addr #0 align 2 {
  %4 = alloca %"class.mojo::Message", align 8
  %5 = alloca %"class.mojo::internal::MessageFragment.134", align 8
  %6 = alloca %"class.base::OnceCallback.132", align 8
  %7 = bitcast %"class.mojo::Message"* %4 to i8*
  call void @llvm.lifetime.start.p0i8(i64 120, i8* nonnull %7) #13
  call void @llvm.memset.p0i8.i64(i8* nonnull align 8 %7, i8 -86, i64 120, i1 false)
  call void @_ZN4mojo7MessageC1EjjmmPNSt3__16vectorINS_16ScopedHandleBaseINS_6HandleEEENS1_9allocatorIS5_EEEE(%"class.mojo::Message"* nonnull %4, i32 953739893, i32 1, i64 0, i64 0, %"class.std::__1::vector.37"* null) #13
  %8 = getelementptr inbounds %"class.mojo::Message", %"class.mojo::Message"* %4, i64 0, i32 1
  %9 = call i64 @_ZN4mojo8internal6Buffer8AllocateEm(%"class.mojo::internal::Buffer"* %8, i64 16) #13
  %10 = getelementptr inbounds %"class.mojo::Message", %"class.mojo::Message"* %4, i64 0, i32 1, i32 2
  %11 = load i8*, i8** %10, align 8
  %12 = getelementptr inbounds i8, i8* %11, i64 %9
  %13 = bitcast i8* %12 to %"class.blink::mojom::internal::WebBluetoothService_RequestDevice_Params_Data"*
  call void @_ZN5blink5mojom8internal45WebBluetoothService_RequestDevice_Params_DataC1Ev(%"class.blink::mojom::internal::WebBluetoothService_RequestDevice_Params_Data"* %13) #13
  %14 = bitcast %"class.mojo::internal::MessageFragment.134"* %5 to i8*
  call void @llvm.lifetime.start.p0i8(i64 16, i8* nonnull %14) #13
  %15 = getelementptr inbounds %"class.mojo::internal::MessageFragment.134", %"class.mojo::internal::MessageFragment.134"* %5, i64 0, i32 0
  %16 = getelementptr inbounds %"class.mojo::internal::MessageFragment.134", %"class.mojo::internal::MessageFragment.134"* %5, i64 0, i32 1
  store %"class.mojo::Message"* %4, %"class.mojo::Message"** %15, align 8
  store i64 -1, i64* %16, align 8
  call void @_ZN4mojo8internal10SerializerIN5blink5mojom40WebBluetoothRequestDeviceOptionsDataViewENS_9StructPtrINS3_32WebBluetoothRequestDeviceOptionsEEEE9SerializeERS7_RNS0_15MessageFragmentINS3_8internal37WebBluetoothRequestDeviceOptions_DataEEE(%"class.mojo::StructPtr.125"* dereferenceable(8) %1, %"class.mojo::internal::MessageFragment.134"* nonnull dereferenceable(16) %5) #13
  %17 = load i8*, i8** %10, align 8
  %18 = getelementptr inbounds i8, i8* %17, i64 %9
  %19 = getelementptr inbounds i8, i8* %18, i64 8
  %20 = load i64, i64* %16, align 8
  %21 = icmp eq i64 %20, -1
  br i1 %21, label %28, label %22

22:                                               ; preds = %3
  %23 = load %"class.mojo::Message"*, %"class.mojo::Message"** %15, align 8
  %24 = getelementptr inbounds %"class.mojo::Message", %"class.mojo::Message"* %23, i64 0, i32 1, i32 2
  %25 = load i8*, i8** %24, align 8
  %26 = getelementptr inbounds i8, i8* %25, i64 %20
  %27 = bitcast i8* %26 to %"class.blink::mojom::internal::WebBluetoothRequestDeviceOptions_Data"*
  br label %28

28:                                               ; preds = %22, %3
  %29 = phi %"class.blink::mojom::internal::WebBluetoothRequestDeviceOptions_Data"* [ %27, %22 ], [ null, %3 ]
  %30 = bitcast i8* %19 to i64*
  %31 = icmp eq %"class.blink::mojom::internal::WebBluetoothRequestDeviceOptions_Data"* %29, null
  %32 = ptrtoint %"class.blink::mojom::internal::WebBluetoothRequestDeviceOptions_Data"* %29 to i64
  %33 = ptrtoint i8* %19 to i64
  %34 = sub i64 %32, %33
  %35 = select i1 %31, i64 0, i64 %34
  store i64 %35, i64* %30, align 8
  %36 = call i8* @_Znwm(i64 16) #14
  %37 = getelementptr inbounds %"class.base::OnceCallback.132", %"class.base::OnceCallback.132"* %2, i64 0, i32 0, i32 0, i32 0
  %38 = bitcast %"class.base::OnceCallback.132"* %2 to i64*
  %39 = load i64, i64* %38, align 8
  store %"class.base::internal::BindStateBase"* null, %"class.base::internal::BindStateBase"** %37, align 8
  %40 = bitcast i8* %36 to i32 (...)***
  store i32 (...)** bitcast (i8** getelementptr inbounds ({ [6 x i8*] }, { [6 x i8*] }* @_ZTVN5blink5mojom51WebBluetoothService_RequestDevice_ForwardToCallbackE, i64 0, inrange i32 0, i64 2) to i32 (...)**), i32 (...)*** %40, align 8
  %41 = getelementptr inbounds i8, i8* %36, i64 8
  %42 = getelementptr inbounds %"class.base::OnceCallback.132", %"class.base::OnceCallback.132"* %6, i64 0, i32 0, i32 0, i32 0
  %43 = bitcast i8* %41 to i64*
  store i64 %39, i64* %43, align 8
  store %"class.base::internal::BindStateBase"* null, %"class.base::internal::BindStateBase"** %42, align 8
  %44 = bitcast i8* %36 to %"class.mojo::MessageReceiver"*
  %45 = getelementptr inbounds %"class.base::OnceCallback.132", %"class.base::OnceCallback.132"* %6, i64 0, i32 0
  call void @_ZN4base8internal12CallbackBaseD2Ev(%"class.base::internal::CallbackBase"* nonnull %45) #13
  %46 = getelementptr inbounds %"class.blink::mojom::WebBluetoothServiceProxy", %"class.blink::mojom::WebBluetoothServiceProxy"* %0, i64 0, i32 1
  %47 = load %"class.mojo::MessageReceiverWithResponder"*, %"class.mojo::MessageReceiverWithResponder"** %46, align 8
  %48 = bitcast %"class.mojo::MessageReceiverWithResponder"* %47 to i1 (%"class.mojo::MessageReceiverWithResponder"*, %"class.mojo::Message"*, %"class.mojo::MessageReceiver"*)***
  %49 = load i1 (%"class.mojo::MessageReceiverWithResponder"*, %"class.mojo::Message"*, %"class.mojo::MessageReceiver"*)**, i1 (%"class.mojo::MessageReceiverWithResponder"*, %"class.mojo::Message"*, %"class.mojo::MessageReceiver"*)*** %48, align 8
  %50 = getelementptr inbounds i1 (%"class.mojo::MessageReceiverWithResponder"*, %"class.mojo::Message"*, %"class.mojo::MessageReceiver"*)*, i1 (%"class.mojo::MessageReceiverWithResponder"*, %"class.mojo::Message"*, %"class.mojo::MessageReceiver"*)** %49, i64 4
  %51 = load i1 (%"class.mojo::MessageReceiverWithResponder"*, %"class.mojo::Message"*, %"class.mojo::MessageReceiver"*)*, i1 (%"class.mojo::MessageReceiverWithResponder"*, %"class.mojo::Message"*, %"class.mojo::MessageReceiver"*)** %50, align 8
  %52 = call zeroext i1 %51(%"class.mojo::MessageReceiverWithResponder"* %47, %"class.mojo::Message"* nonnull %4, %"class.mojo::MessageReceiver"* nonnull %44) #13
  call void @llvm.lifetime.end.p0i8(i64 16, i8* nonnull %14) #13
  call void @_ZN4mojo7MessageD1Ev(%"class.mojo::Message"* nonnull %4) #13
  call void @llvm.lifetime.end.p0i8(i64 120, i8* nonnull %7) #13
  ret void
}

; Function Attrs: nounwind ssp uwtable
define hidden void @_ZN5blink5mojom24WebBluetoothServiceProxy10GetDevicesEN4base12OnceCallbackIFvNSt3__16vectorIN4mojo9StructPtrINS0_18WebBluetoothDeviceEEENS4_9allocatorIS9_EEEEEEE(%"class.blink::mojom::WebBluetoothServiceProxy"* nocapture readonly, %"class.base::OnceCallback.138"* nocapture) unnamed_addr #0 align 2 {
  %3 = alloca %"class.mojo::Message", align 8
  %4 = alloca %"class.base::OnceCallback.138", align 8
  %5 = bitcast %"class.mojo::Message"* %3 to i8*
  call void @llvm.lifetime.start.p0i8(i64 120, i8* nonnull %5) #13
  call void @llvm.memset.p0i8.i64(i8* nonnull align 8 %5, i8 -86, i64 120, i1 false)
  call void @_ZN4mojo7MessageC1EjjmmPNSt3__16vectorINS_16ScopedHandleBaseINS_6HandleEEENS1_9allocatorIS5_EEEE(%"class.mojo::Message"* nonnull %3, i32 97698673, i32 1, i64 0, i64 0, %"class.std::__1::vector.37"* null) #13
  %6 = getelementptr inbounds %"class.mojo::Message", %"class.mojo::Message"* %3, i64 0, i32 1
  %7 = call i64 @_ZN4mojo8internal6Buffer8AllocateEm(%"class.mojo::internal::Buffer"* %6, i64 8) #13
  %8 = getelementptr inbounds %"class.mojo::Message", %"class.mojo::Message"* %3, i64 0, i32 1, i32 2
  %9 = load i8*, i8** %8, align 8
  %10 = getelementptr inbounds i8, i8* %9, i64 %7
  %11 = bitcast i8* %10 to %"class.blink::mojom::internal::WebBluetoothService_GetDevices_Params_Data"*
  call void @_ZN5blink5mojom8internal42WebBluetoothService_GetDevices_Params_DataC1Ev(%"class.blink::mojom::internal::WebBluetoothService_GetDevices_Params_Data"* %11) #13
  %12 = call i8* @_Znwm(i64 16) #14
  %13 = getelementptr inbounds %"class.base::OnceCallback.138", %"class.base::OnceCallback.138"* %1, i64 0, i32 0, i32 0, i32 0
  %14 = bitcast %"class.base::OnceCallback.138"* %1 to i64*
  %15 = load i64, i64* %14, align 8
  store %"class.base::internal::BindStateBase"* null, %"class.base::internal::BindStateBase"** %13, align 8
  %16 = bitcast i8* %12 to i32 (...)***
  store i32 (...)** bitcast (i8** getelementptr inbounds ({ [6 x i8*] }, { [6 x i8*] }* @_ZTVN5blink5mojom48WebBluetoothService_GetDevices_ForwardToCallbackE, i64 0, inrange i32 0, i64 2) to i32 (...)**), i32 (...)*** %16, align 8
  %17 = getelementptr inbounds i8, i8* %12, i64 8
  %18 = getelementptr inbounds %"class.base::OnceCallback.138", %"class.base::OnceCallback.138"* %4, i64 0, i32 0, i32 0, i32 0
  %19 = bitcast i8* %17 to i64*
  store i64 %15, i64* %19, align 8
  store %"class.base::internal::BindStateBase"* null, %"class.base::internal::BindStateBase"** %18, align 8
  %20 = bitcast i8* %12 to %"class.mojo::MessageReceiver"*
  %21 = getelementptr inbounds %"class.base::OnceCallback.138", %"class.base::OnceCallback.138"* %4, i64 0, i32 0
  call void @_ZN4base8internal12CallbackBaseD2Ev(%"class.base::internal::CallbackBase"* nonnull %21) #13
  %22 = getelementptr inbounds %"class.blink::mojom::WebBluetoothServiceProxy", %"class.blink::mojom::WebBluetoothServiceProxy"* %0, i64 0, i32 1
  %23 = load %"class.mojo::MessageReceiverWithResponder"*, %"class.mojo::MessageReceiverWithResponder"** %22, align 8
  %24 = bitcast %"class.mojo::MessageReceiverWithResponder"* %23 to i1 (%"class.mojo::MessageReceiverWithResponder"*, %"class.mojo::Message"*, %"class.mojo::MessageReceiver"*)***
  %25 = load i1 (%"class.mojo::MessageReceiverWithResponder"*, %"class.mojo::Message"*, %"class.mojo::MessageReceiver"*)**, i1 (%"class.mojo::MessageReceiverWithResponder"*, %"class.mojo::Message"*, %"class.mojo::MessageReceiver"*)*** %24, align 8
  %26 = getelementptr inbounds i1 (%"class.mojo::MessageReceiverWithResponder"*, %"class.mojo::Message"*, %"class.mojo::MessageReceiver"*)*, i1 (%"class.mojo::MessageReceiverWithResponder"*, %"class.mojo::Message"*, %"class.mojo::MessageReceiver"*)** %25, i64 4
  %27 = load i1 (%"class.mojo::MessageReceiverWithResponder"*, %"class.mojo::Message"*, %"class.mojo::MessageReceiver"*)*, i1 (%"class.mojo::MessageReceiverWithResponder"*, %"class.mojo::Message"*, %"class.mojo::MessageReceiver"*)** %26, align 8
  %28 = call zeroext i1 %27(%"class.mojo::MessageReceiverWithResponder"* %23, %"class.mojo::Message"* nonnull %3, %"class.mojo::MessageReceiver"* nonnull %20) #13
  call void @_ZN4mojo7MessageD1Ev(%"class.mojo::Message"* nonnull %3) #13
  call void @llvm.lifetime.end.p0i8(i64 120, i8* nonnull %5) #13
  ret void
}

; Function Attrs: nounwind ssp uwtable
define hidden void @_ZN5blink5mojom24WebBluetoothServiceProxy19RemoteServerConnectERKNS_20WebBluetoothDeviceIdEN4mojo23PendingAssociatedRemoteINS0_24WebBluetoothServerClientEEEN4base12OnceCallbackIFvNS0_18WebBluetoothResultEEEE(%"class.blink::mojom::WebBluetoothServiceProxy"* nocapture readonly, %"class.blink::WebBluetoothDeviceId"* dereferenceable(24), %"class.mojo::PendingAssociatedRemote"*, %"class.base::OnceCallback.140"* nocapture) unnamed_addr #0 align 2 {
  %5 = alloca %"class.mojo::ScopedInterfaceEndpointHandle", align 8
  %6 = alloca %"class.mojo::internal::MessageFragment.157", align 8
  %7 = alloca %"class.mojo::Message", align 8
  %8 = alloca %"class.base::OnceCallback.140", align 8
  %9 = bitcast %"class.mojo::Message"* %7 to i8*
  call void @llvm.lifetime.start.p0i8(i64 120, i8* nonnull %9) #13
  call void @llvm.memset.p0i8.i64(i8* nonnull align 8 %9, i8 -86, i64 120, i1 false)
  call void @_ZN4mojo7MessageC1EjjmmPNSt3__16vectorINS_16ScopedHandleBaseINS_6HandleEEENS1_9allocatorIS5_EEEE(%"class.mojo::Message"* nonnull %7, i32 447768052, i32 1, i64 0, i64 0, %"class.std::__1::vector.37"* null) #13
  %10 = getelementptr inbounds %"class.mojo::Message", %"class.mojo::Message"* %7, i64 0, i32 1
  %11 = call i64 @_ZN4mojo8internal6Buffer8AllocateEm(%"class.mojo::internal::Buffer"* %10, i64 24) #13
  %12 = getelementptr inbounds %"class.mojo::Message", %"class.mojo::Message"* %7, i64 0, i32 1, i32 2
  %13 = load i8*, i8** %12, align 8
  %14 = getelementptr inbounds i8, i8* %13, i64 %11
  %15 = bitcast i8* %14 to %"class.blink::mojom::internal::WebBluetoothService_RemoteServerConnect_Params_Data"*
  call void @_ZN5blink5mojom8internal51WebBluetoothService_RemoteServerConnect_Params_DataC1Ev(%"class.blink::mojom::internal::WebBluetoothService_RemoteServerConnect_Params_Data"* %15) #13
  %16 = ptrtoint %"class.mojo::Message"* %7 to i64
  %17 = call i64 @_ZN4mojo8internal6Buffer8AllocateEm(%"class.mojo::internal::Buffer"* %10, i64 16) #13
  %18 = load i8*, i8** %12, align 8
  %19 = getelementptr inbounds i8, i8* %18, i64 %17
  %20 = bitcast i8* %19 to %"class.blink::mojom::internal::WebBluetoothDeviceId_Data"*
  call void @_ZN5blink5mojom8internal25WebBluetoothDeviceId_DataC1Ev(%"class.blink::mojom::internal::WebBluetoothDeviceId_Data"* %20) #13
  %21 = call dereferenceable(24) %"class.std::__1::basic_string"* @_ZNK5blink20WebBluetoothDeviceId3strEv(%"class.blink::WebBluetoothDeviceId"* %1) #13
  %22 = bitcast %"class.mojo::internal::MessageFragment.157"* %6 to i8*
  call void @llvm.lifetime.start.p0i8(i64 16, i8* nonnull %22) #13
  %23 = getelementptr inbounds %"class.mojo::internal::MessageFragment.157", %"class.mojo::internal::MessageFragment.157"* %6, i64 0, i32 1
  %24 = bitcast %"class.mojo::internal::MessageFragment.157"* %6 to i64*
  store i64 %16, i64* %24, align 8
  store i64 -1, i64* %23, align 8
  call void @_ZN4mojo8internal10SerializerINS_14StringDataViewEKNSt3__112basic_stringIcNS3_11char_traitsIcEENS3_9allocatorIcEEEEE9SerializeERSA_RNS0_15MessageFragmentINS0_10Array_DataIcEEEE(%"class.std::__1::basic_string"* dereferenceable(24) %21, %"class.mojo::internal::MessageFragment.157"* nonnull dereferenceable(16) %6) #13
  %25 = load i8*, i8** %12, align 8
  %26 = getelementptr inbounds i8, i8* %25, i64 %17
  %27 = getelementptr inbounds i8, i8* %26, i64 8
  %28 = load i64, i64* %23, align 8
  %29 = icmp eq i64 %28, -1
  br i1 %29, label %37, label %30

30:                                               ; preds = %4
  %31 = getelementptr inbounds %"class.mojo::internal::MessageFragment.157", %"class.mojo::internal::MessageFragment.157"* %6, i64 0, i32 0
  %32 = load %"class.mojo::Message"*, %"class.mojo::Message"** %31, align 8
  %33 = getelementptr inbounds %"class.mojo::Message", %"class.mojo::Message"* %32, i64 0, i32 1, i32 2
  %34 = load i8*, i8** %33, align 8
  %35 = getelementptr inbounds i8, i8* %34, i64 %28
  %36 = bitcast i8* %35 to %"class.mojo::internal::Array_Data"*
  br label %37

37:                                               ; preds = %4, %30
  %38 = phi %"class.mojo::internal::Array_Data"* [ %36, %30 ], [ null, %4 ]
  %39 = bitcast i8* %27 to i64*
  %40 = icmp eq %"class.mojo::internal::Array_Data"* %38, null
  %41 = ptrtoint %"class.mojo::internal::Array_Data"* %38 to i64
  %42 = ptrtoint i8* %27 to i64
  %43 = sub i64 %41, %42
  %44 = select i1 %40, i64 0, i64 %43
  store i64 %44, i64* %39, align 8
  call void @llvm.lifetime.end.p0i8(i64 16, i8* nonnull %22) #13
  %45 = load i8*, i8** %12, align 8
  %46 = getelementptr inbounds i8, i8* %45, i64 %11
  %47 = getelementptr inbounds i8, i8* %46, i64 8
  %48 = icmp eq i64 %17, -1
  %49 = getelementptr inbounds i8, i8* %45, i64 %17
  %50 = bitcast i8* %49 to %"class.blink::mojom::internal::WebBluetoothDeviceId_Data"*
  %51 = select i1 %48, %"class.blink::mojom::internal::WebBluetoothDeviceId_Data"* null, %"class.blink::mojom::internal::WebBluetoothDeviceId_Data"* %50
  %52 = bitcast i8* %47 to i64*
  %53 = icmp eq %"class.blink::mojom::internal::WebBluetoothDeviceId_Data"* %51, null
  %54 = ptrtoint %"class.blink::mojom::internal::WebBluetoothDeviceId_Data"* %51 to i64
  %55 = ptrtoint i8* %47 to i64
  %56 = sub i64 %54, %55
  %57 = select i1 %53, i64 0, i64 %56
  store i64 %57, i64* %52, align 8
  %58 = load i8*, i8** %12, align 8
  %59 = getelementptr inbounds i8, i8* %58, i64 %11
  %60 = getelementptr inbounds i8, i8* %59, i64 16
  %61 = bitcast i8* %60 to %"struct.mojo::internal::AssociatedInterface_Data"*
  %62 = bitcast %"class.mojo::ScopedInterfaceEndpointHandle"* %5 to i8*
  call void @llvm.lifetime.start.p0i8(i64 8, i8* nonnull %62) #13
  %63 = getelementptr inbounds %"class.mojo::PendingAssociatedRemote", %"class.mojo::PendingAssociatedRemote"* %2, i64 0, i32 0
  call void @_ZN4mojo29ScopedInterfaceEndpointHandleC1EOS0_(%"class.mojo::ScopedInterfaceEndpointHandle"* nonnull %5, %"class.mojo::ScopedInterfaceEndpointHandle"* dereferenceable(8) %63) #13
  %64 = getelementptr inbounds %"class.mojo::PendingAssociatedRemote", %"class.mojo::PendingAssociatedRemote"* %2, i64 0, i32 1
  %65 = load i32, i32* %64, align 8
  call void @_ZN4mojo8internal32SerializeAssociatedInterfaceInfoENS_29ScopedInterfaceEndpointHandleEjRNS_7MessageERNS0_24AssociatedInterface_DataE(%"class.mojo::ScopedInterfaceEndpointHandle"* nonnull %5, i32 %65, %"class.mojo::Message"* nonnull dereferenceable(120) %7, %"struct.mojo::internal::AssociatedInterface_Data"* dereferenceable(8) %61) #13
  call void @_ZN4mojo29ScopedInterfaceEndpointHandleD1Ev(%"class.mojo::ScopedInterfaceEndpointHandle"* nonnull %5) #13
  call void @llvm.lifetime.end.p0i8(i64 8, i8* nonnull %62) #13
  %66 = call i8* @_Znwm(i64 16) #14
  %67 = getelementptr inbounds %"class.base::OnceCallback.140", %"class.base::OnceCallback.140"* %3, i64 0, i32 0, i32 0, i32 0
  %68 = bitcast %"class.base::OnceCallback.140"* %3 to i64*
  %69 = load i64, i64* %68, align 8
  store %"class.base::internal::BindStateBase"* null, %"class.base::internal::BindStateBase"** %67, align 8
  %70 = bitcast i8* %66 to i32 (...)***
  store i32 (...)** bitcast (i8** getelementptr inbounds ({ [6 x i8*] }, { [6 x i8*] }* @_ZTVN5blink5mojom57WebBluetoothService_RemoteServerConnect_ForwardToCallbackE, i64 0, inrange i32 0, i64 2) to i32 (...)**), i32 (...)*** %70, align 8
  %71 = getelementptr inbounds i8, i8* %66, i64 8
  %72 = getelementptr inbounds %"class.base::OnceCallback.140", %"class.base::OnceCallback.140"* %8, i64 0, i32 0, i32 0, i32 0
  %73 = bitcast i8* %71 to i64*
  store i64 %69, i64* %73, align 8
  store %"class.base::internal::BindStateBase"* null, %"class.base::internal::BindStateBase"** %72, align 8
  %74 = bitcast i8* %66 to %"class.mojo::MessageReceiver"*
  %75 = getelementptr inbounds %"class.base::OnceCallback.140", %"class.base::OnceCallback.140"* %8, i64 0, i32 0
  call void @_ZN4base8internal12CallbackBaseD2Ev(%"class.base::internal::CallbackBase"* nonnull %75) #13
  %76 = getelementptr inbounds %"class.blink::mojom::WebBluetoothServiceProxy", %"class.blink::mojom::WebBluetoothServiceProxy"* %0, i64 0, i32 1
  %77 = load %"class.mojo::MessageReceiverWithResponder"*, %"class.mojo::MessageReceiverWithResponder"** %76, align 8
  %78 = bitcast %"class.mojo::MessageReceiverWithResponder"* %77 to i1 (%"class.mojo::MessageReceiverWithResponder"*, %"class.mojo::Message"*, %"class.mojo::MessageReceiver"*)***
  %79 = load i1 (%"class.mojo::MessageReceiverWithResponder"*, %"class.mojo::Message"*, %"class.mojo::MessageReceiver"*)**, i1 (%"class.mojo::MessageReceiverWithResponder"*, %"class.mojo::Message"*, %"class.mojo::MessageReceiver"*)*** %78, align 8
  %80 = getelementptr inbounds i1 (%"class.mojo::MessageReceiverWithResponder"*, %"class.mojo::Message"*, %"class.mojo::MessageReceiver"*)*, i1 (%"class.mojo::MessageReceiverWithResponder"*, %"class.mojo::Message"*, %"class.mojo::MessageReceiver"*)** %79, i64 4
  %81 = load i1 (%"class.mojo::MessageReceiverWithResponder"*, %"class.mojo::Message"*, %"class.mojo::MessageReceiver"*)*, i1 (%"class.mojo::MessageReceiverWithResponder"*, %"class.mojo::Message"*, %"class.mojo::MessageReceiver"*)** %80, align 8
  %82 = call zeroext i1 %81(%"class.mojo::MessageReceiverWithResponder"* %77, %"class.mojo::Message"* nonnull %7, %"class.mojo::MessageReceiver"* nonnull %74) #13
  call void @_ZN4mojo7MessageD1Ev(%"class.mojo::Message"* nonnull %7) #13
  call void @llvm.lifetime.end.p0i8(i64 120, i8* nonnull %9) #13
  ret void
}

; Function Attrs: nounwind ssp uwtable
define hidden void @_ZN5blink5mojom24WebBluetoothServiceProxy22RemoteServerDisconnectERKNS_20WebBluetoothDeviceIdE(%"class.blink::mojom::WebBluetoothServiceProxy"* nocapture readonly, %"class.blink::WebBluetoothDeviceId"* dereferenceable(24)) unnamed_addr #0 align 2 {
  %3 = alloca %"class.mojo::internal::MessageFragment.157", align 8
  %4 = alloca %"class.mojo::Message", align 8
  %5 = bitcast %"class.mojo::Message"* %4 to i8*
  call void @llvm.lifetime.start.p0i8(i64 120, i8* nonnull %5) #13
  call void @llvm.memset.p0i8.i64(i8* nonnull align 8 %5, i8 -86, i64 120, i1 false)
  call void @_ZN4mojo7MessageC1EjjmmPNSt3__16vectorINS_16ScopedHandleBaseINS_6HandleEEENS1_9allocatorIS5_EEEE(%"class.mojo::Message"* nonnull %4, i32 391156665, i32 0, i64 0, i64 0, %"class.std::__1::vector.37"* null) #13
  %6 = getelementptr inbounds %"class.mojo::Message", %"class.mojo::Message"* %4, i64 0, i32 1
  %7 = call i64 @_ZN4mojo8internal6Buffer8AllocateEm(%"class.mojo::internal::Buffer"* %6, i64 16) #13
  %8 = getelementptr inbounds %"class.mojo::Message", %"class.mojo::Message"* %4, i64 0, i32 1, i32 2
  %9 = load i8*, i8** %8, align 8
  %10 = getelementptr inbounds i8, i8* %9, i64 %7
  %11 = bitcast i8* %10 to %"class.blink::mojom::internal::WebBluetoothService_RemoteServerDisconnect_Params_Data"*
  call void @_ZN5blink5mojom8internal54WebBluetoothService_RemoteServerDisconnect_Params_DataC1Ev(%"class.blink::mojom::internal::WebBluetoothService_RemoteServerDisconnect_Params_Data"* %11) #13
  %12 = ptrtoint %"class.mojo::Message"* %4 to i64
  %13 = call i64 @_ZN4mojo8internal6Buffer8AllocateEm(%"class.mojo::internal::Buffer"* %6, i64 16) #13
  %14 = load i8*, i8** %8, align 8
  %15 = getelementptr inbounds i8, i8* %14, i64 %13
  %16 = bitcast i8* %15 to %"class.blink::mojom::internal::WebBluetoothDeviceId_Data"*
  call void @_ZN5blink5mojom8internal25WebBluetoothDeviceId_DataC1Ev(%"class.blink::mojom::internal::WebBluetoothDeviceId_Data"* %16) #13
  %17 = call dereferenceable(24) %"class.std::__1::basic_string"* @_ZNK5blink20WebBluetoothDeviceId3strEv(%"class.blink::WebBluetoothDeviceId"* %1) #13
  %18 = bitcast %"class.mojo::internal::MessageFragment.157"* %3 to i8*
  call void @llvm.lifetime.start.p0i8(i64 16, i8* nonnull %18) #13
  %19 = getelementptr inbounds %"class.mojo::internal::MessageFragment.157", %"class.mojo::internal::MessageFragment.157"* %3, i64 0, i32 1
  %20 = bitcast %"class.mojo::internal::MessageFragment.157"* %3 to i64*
  store i64 %12, i64* %20, align 8
  store i64 -1, i64* %19, align 8
  call void @_ZN4mojo8internal10SerializerINS_14StringDataViewEKNSt3__112basic_stringIcNS3_11char_traitsIcEENS3_9allocatorIcEEEEE9SerializeERSA_RNS0_15MessageFragmentINS0_10Array_DataIcEEEE(%"class.std::__1::basic_string"* dereferenceable(24) %17, %"class.mojo::internal::MessageFragment.157"* nonnull dereferenceable(16) %3) #13
  %21 = load i8*, i8** %8, align 8
  %22 = getelementptr inbounds i8, i8* %21, i64 %13
  %23 = getelementptr inbounds i8, i8* %22, i64 8
  %24 = load i64, i64* %19, align 8
  %25 = icmp eq i64 %24, -1
  br i1 %25, label %33, label %26

26:                                               ; preds = %2
  %27 = getelementptr inbounds %"class.mojo::internal::MessageFragment.157", %"class.mojo::internal::MessageFragment.157"* %3, i64 0, i32 0
  %28 = load %"class.mojo::Message"*, %"class.mojo::Message"** %27, align 8
  %29 = getelementptr inbounds %"class.mojo::Message", %"class.mojo::Message"* %28, i64 0, i32 1, i32 2
  %30 = load i8*, i8** %29, align 8
  %31 = getelementptr inbounds i8, i8* %30, i64 %24
  %32 = bitcast i8* %31 to %"class.mojo::internal::Array_Data"*
  br label %33

33:                                               ; preds = %2, %26
  %34 = phi %"class.mojo::internal::Array_Data"* [ %32, %26 ], [ null, %2 ]
  %35 = bitcast i8* %23 to i64*
  %36 = icmp eq %"class.mojo::internal::Array_Data"* %34, null
  %37 = ptrtoint %"class.mojo::internal::Array_Data"* %34 to i64
  %38 = ptrtoint i8* %23 to i64
  %39 = sub i64 %37, %38
  %40 = select i1 %36, i64 0, i64 %39
  store i64 %40, i64* %35, align 8
  call void @llvm.lifetime.end.p0i8(i64 16, i8* nonnull %18) #13
  %41 = load i8*, i8** %8, align 8
  %42 = getelementptr inbounds i8, i8* %41, i64 %7
  %43 = getelementptr inbounds i8, i8* %42, i64 8
  %44 = icmp eq i64 %13, -1
  %45 = getelementptr inbounds i8, i8* %41, i64 %13
  %46 = bitcast i8* %45 to %"class.blink::mojom::internal::WebBluetoothDeviceId_Data"*
  %47 = select i1 %44, %"class.blink::mojom::internal::WebBluetoothDeviceId_Data"* null, %"class.blink::mojom::internal::WebBluetoothDeviceId_Data"* %46
  %48 = bitcast i8* %43 to i64*
  %49 = icmp eq %"class.blink::mojom::internal::WebBluetoothDeviceId_Data"* %47, null
  %50 = ptrtoint %"class.blink::mojom::internal::WebBluetoothDeviceId_Data"* %47 to i64
  %51 = ptrtoint i8* %43 to i64
  %52 = sub i64 %50, %51
  %53 = select i1 %49, i64 0, i64 %52
  store i64 %53, i64* %48, align 8
  %54 = getelementptr inbounds %"class.blink::mojom::WebBluetoothServiceProxy", %"class.blink::mojom::WebBluetoothServiceProxy"* %0, i64 0, i32 1
  %55 = bitcast %"class.mojo::MessageReceiverWithResponder"** %54 to %"class.mojo::MessageReceiver"**
  %56 = load %"class.mojo::MessageReceiver"*, %"class.mojo::MessageReceiver"** %55, align 8
  %57 = bitcast %"class.mojo::MessageReceiver"* %56 to i1 (%"class.mojo::MessageReceiver"*, %"class.mojo::Message"*)***
  %58 = load i1 (%"class.mojo::MessageReceiver"*, %"class.mojo::Message"*)**, i1 (%"class.mojo::MessageReceiver"*, %"class.mojo::Message"*)*** %57, align 8
  %59 = getelementptr inbounds i1 (%"class.mojo::MessageReceiver"*, %"class.mojo::Message"*)*, i1 (%"class.mojo::MessageReceiver"*, %"class.mojo::Message"*)** %58, i64 3
  %60 = load i1 (%"class.mojo::MessageReceiver"*, %"class.mojo::Message"*)*, i1 (%"class.mojo::MessageReceiver"*, %"class.mojo::Message"*)** %59, align 8
  %61 = call zeroext i1 %60(%"class.mojo::MessageReceiver"* %56, %"class.mojo::Message"* nonnull %4) #13
  call void @_ZN4mojo7MessageD1Ev(%"class.mojo::Message"* nonnull %4) #13
  call void @llvm.lifetime.end.p0i8(i64 120, i8* nonnull %5) #13
  ret void
}

; Function Attrs: nounwind ssp uwtable
define hidden void @_ZN5blink5mojom24WebBluetoothServiceProxy30RemoteServerGetPrimaryServicesERKNS_20WebBluetoothDeviceIdENS0_29WebBluetoothGATTQueryQuantityERKN4absl8optionalIN6device13BluetoothUUIDEEEN4base12OnceCallbackIFvNS0_18WebBluetoothResultENS7_INSt3__16vectorIN4mojo9StructPtrINS0_29WebBluetoothRemoteGATTServiceEEENSG_9allocatorISL_EEEEEEEEE(%"class.blink::mojom::WebBluetoothServiceProxy"* nocapture readonly, %"class.blink::WebBluetoothDeviceId"* dereferenceable(24), i32, %"class.absl::optional.146"* dereferenceable(64), %"class.base::OnceCallback.151"* nocapture) unnamed_addr #0 align 2 {
  %6 = alloca %"class.mojo::internal::MessageFragment.157", align 8
  %7 = alloca %"class.mojo::internal::MessageFragment.157", align 8
  %8 = alloca %"class.mojo::Message", align 8
  %9 = alloca %"class.base::OnceCallback.151", align 8
  %10 = bitcast %"class.mojo::Message"* %8 to i8*
  call void @llvm.lifetime.start.p0i8(i64 120, i8* nonnull %10) #13
  call void @llvm.memset.p0i8.i64(i8* nonnull align 8 %10, i8 -86, i64 120, i1 false)
  call void @_ZN4mojo7MessageC1EjjmmPNSt3__16vectorINS_16ScopedHandleBaseINS_6HandleEEENS1_9allocatorIS5_EEEE(%"class.mojo::Message"* nonnull %8, i32 1127621537, i32 1, i64 0, i64 0, %"class.std::__1::vector.37"* null) #13
  %11 = getelementptr inbounds %"class.mojo::Message", %"class.mojo::Message"* %8, i64 0, i32 1
  %12 = call i64 @_ZN4mojo8internal6Buffer8AllocateEm(%"class.mojo::internal::Buffer"* %11, i64 32) #13
  %13 = getelementptr inbounds %"class.mojo::Message", %"class.mojo::Message"* %8, i64 0, i32 1, i32 2
  %14 = load i8*, i8** %13, align 8
  %15 = getelementptr inbounds i8, i8* %14, i64 %12
  %16 = bitcast i8* %15 to %"class.blink::mojom::internal::WebBluetoothService_RemoteServerGetPrimaryServices_Params_Data"*
  call void @_ZN5blink5mojom8internal62WebBluetoothService_RemoteServerGetPrimaryServices_Params_DataC1Ev(%"class.blink::mojom::internal::WebBluetoothService_RemoteServerGetPrimaryServices_Params_Data"* %16) #13
  %17 = ptrtoint %"class.mojo::Message"* %8 to i64
  %18 = call i64 @_ZN4mojo8internal6Buffer8AllocateEm(%"class.mojo::internal::Buffer"* %11, i64 16) #13
  %19 = load i8*, i8** %13, align 8
  %20 = getelementptr inbounds i8, i8* %19, i64 %18
  %21 = bitcast i8* %20 to %"class.blink::mojom::internal::WebBluetoothDeviceId_Data"*
  call void @_ZN5blink5mojom8internal25WebBluetoothDeviceId_DataC1Ev(%"class.blink::mojom::internal::WebBluetoothDeviceId_Data"* %21) #13
  %22 = call dereferenceable(24) %"class.std::__1::basic_string"* @_ZNK5blink20WebBluetoothDeviceId3strEv(%"class.blink::WebBluetoothDeviceId"* %1) #13
  %23 = bitcast %"class.mojo::internal::MessageFragment.157"* %7 to i8*
  call void @llvm.lifetime.start.p0i8(i64 16, i8* nonnull %23) #13
  %24 = getelementptr inbounds %"class.mojo::internal::MessageFragment.157", %"class.mojo::internal::MessageFragment.157"* %7, i64 0, i32 1
  %25 = bitcast %"class.mojo::internal::MessageFragment.157"* %7 to i64*
  store i64 %17, i64* %25, align 8
  store i64 -1, i64* %24, align 8
  call void @_ZN4mojo8internal10SerializerINS_14StringDataViewEKNSt3__112basic_stringIcNS3_11char_traitsIcEENS3_9allocatorIcEEEEE9SerializeERSA_RNS0_15MessageFragmentINS0_10Array_DataIcEEEE(%"class.std::__1::basic_string"* dereferenceable(24) %22, %"class.mojo::internal::MessageFragment.157"* nonnull dereferenceable(16) %7) #13
  %26 = load i8*, i8** %13, align 8
  %27 = getelementptr inbounds i8, i8* %26, i64 %18
  %28 = getelementptr inbounds i8, i8* %27, i64 8
  %29 = load i64, i64* %24, align 8
  %30 = icmp eq i64 %29, -1
  br i1 %30, label %38, label %31

31:                                               ; preds = %5
  %32 = getelementptr inbounds %"class.mojo::internal::MessageFragment.157", %"class.mojo::internal::MessageFragment.157"* %7, i64 0, i32 0
  %33 = load %"class.mojo::Message"*, %"class.mojo::Message"** %32, align 8
  %34 = getelementptr inbounds %"class.mojo::Message", %"class.mojo::Message"* %33, i64 0, i32 1, i32 2
  %35 = load i8*, i8** %34, align 8
  %36 = getelementptr inbounds i8, i8* %35, i64 %29
  %37 = bitcast i8* %36 to %"class.mojo::internal::Array_Data"*
  br label %38

38:                                               ; preds = %5, %31
  %39 = phi %"class.mojo::internal::Array_Data"* [ %37, %31 ], [ null, %5 ]
  %40 = bitcast i8* %28 to i64*
  %41 = icmp eq %"class.mojo::internal::Array_Data"* %39, null
  %42 = ptrtoint %"class.mojo::internal::Array_Data"* %39 to i64
  %43 = ptrtoint i8* %28 to i64
  %44 = sub i64 %42, %43
  %45 = select i1 %41, i64 0, i64 %44
  store i64 %45, i64* %40, align 8
  call void @llvm.lifetime.end.p0i8(i64 16, i8* nonnull %23) #13
  %46 = load i8*, i8** %13, align 8
  %47 = getelementptr inbounds i8, i8* %46, i64 %12
  %48 = getelementptr inbounds i8, i8* %47, i64 8
  %49 = icmp eq i64 %18, -1
  %50 = getelementptr inbounds i8, i8* %46, i64 %18
  %51 = bitcast i8* %50 to %"class.blink::mojom::internal::WebBluetoothDeviceId_Data"*
  %52 = select i1 %49, %"class.blink::mojom::internal::WebBluetoothDeviceId_Data"* null, %"class.blink::mojom::internal::WebBluetoothDeviceId_Data"* %51
  %53 = bitcast i8* %48 to i64*
  %54 = icmp eq %"class.blink::mojom::internal::WebBluetoothDeviceId_Data"* %52, null
  %55 = ptrtoint %"class.blink::mojom::internal::WebBluetoothDeviceId_Data"* %52 to i64
  %56 = ptrtoint i8* %48 to i64
  %57 = sub i64 %55, %56
  %58 = select i1 %54, i64 0, i64 %57
  store i64 %58, i64* %53, align 8
  %59 = load i8*, i8** %13, align 8
  %60 = getelementptr inbounds i8, i8* %59, i64 %12
  %61 = getelementptr inbounds i8, i8* %60, i64 16
  %62 = bitcast i8* %61 to i32*
  store i32 %2, i32* %62, align 4
  %63 = getelementptr inbounds %"class.absl::optional.146", %"class.absl::optional.146"* %3, i64 0, i32 0, i32 0, i32 0, i32 0
  %64 = load i8, i8* %63, align 8, !range !2
  %65 = icmp eq i8 %64, 0
  br i1 %65, label %66, label %71

66:                                               ; preds = %38
  %67 = load i8*, i8** %13, align 8
  %68 = getelementptr inbounds i8, i8* %67, i64 %12
  %69 = getelementptr inbounds i8, i8* %68, i64 24
  %70 = bitcast i8* %69 to %"struct.mojo::internal::Pointer.153"*
  br label %108

71:                                               ; preds = %38
  %72 = call i64 @_ZN4mojo8internal6Buffer8AllocateEm(%"class.mojo::internal::Buffer"* %11, i64 16) #13
  %73 = load i8*, i8** %13, align 8
  %74 = getelementptr inbounds i8, i8* %73, i64 %72
  %75 = bitcast i8* %74 to %"class.bluetooth::mojom::internal::UUID_Data"*
  call void @_ZN9bluetooth5mojom8internal9UUID_DataC1Ev(%"class.bluetooth::mojom::internal::UUID_Data"* %75) #13
  %76 = getelementptr inbounds %"class.absl::optional.146", %"class.absl::optional.146"* %3, i64 0, i32 0, i32 0, i32 0, i32 1, i32 0, i32 2
  %77 = bitcast %"class.mojo::internal::MessageFragment.157"* %6 to i8*
  call void @llvm.lifetime.start.p0i8(i64 16, i8* nonnull %77) #13
  %78 = getelementptr inbounds %"class.mojo::internal::MessageFragment.157", %"class.mojo::internal::MessageFragment.157"* %6, i64 0, i32 1
  %79 = bitcast %"class.mojo::internal::MessageFragment.157"* %6 to i64*
  store i64 %17, i64* %79, align 8
  store i64 -1, i64* %78, align 8
  call void @_ZN4mojo8internal10SerializerINS_14StringDataViewEKNSt3__112basic_stringIcNS3_11char_traitsIcEENS3_9allocatorIcEEEEE9SerializeERSA_RNS0_15MessageFragmentINS0_10Array_DataIcEEEE(%"class.std::__1::basic_string"* dereferenceable(24) %76, %"class.mojo::internal::MessageFragment.157"* nonnull dereferenceable(16) %6) #13
  %80 = load i8*, i8** %13, align 8
  %81 = getelementptr inbounds i8, i8* %80, i64 %72
  %82 = getelementptr inbounds i8, i8* %81, i64 8
  %83 = load i64, i64* %78, align 8
  %84 = icmp eq i64 %83, -1
  br i1 %84, label %92, label %85

85:                                               ; preds = %71
  %86 = getelementptr inbounds %"class.mojo::internal::MessageFragment.157", %"class.mojo::internal::MessageFragment.157"* %6, i64 0, i32 0
  %87 = load %"class.mojo::Message"*, %"class.mojo::Message"** %86, align 8
  %88 = getelementptr inbounds %"class.mojo::Message", %"class.mojo::Message"* %87, i64 0, i32 1, i32 2
  %89 = load i8*, i8** %88, align 8
  %90 = getelementptr inbounds i8, i8* %89, i64 %83
  %91 = bitcast i8* %90 to %"class.mojo::internal::Array_Data"*
  br label %92

92:                                               ; preds = %71, %85
  %93 = phi %"class.mojo::internal::Array_Data"* [ %91, %85 ], [ null, %71 ]
  %94 = bitcast i8* %82 to i64*
  %95 = icmp eq %"class.mojo::internal::Array_Data"* %93, null
  %96 = ptrtoint %"class.mojo::internal::Array_Data"* %93 to i64
  %97 = ptrtoint i8* %82 to i64
  %98 = sub i64 %96, %97
  %99 = select i1 %95, i64 0, i64 %98
  store i64 %99, i64* %94, align 8
  call void @llvm.lifetime.end.p0i8(i64 16, i8* nonnull %77) #13
  %100 = load i8*, i8** %13, align 8
  %101 = getelementptr inbounds i8, i8* %100, i64 %12
  %102 = getelementptr inbounds i8, i8* %101, i64 24
  %103 = bitcast i8* %102 to %"struct.mojo::internal::Pointer.153"*
  %104 = icmp eq i64 %72, -1
  br i1 %104, label %108, label %105

105:                                              ; preds = %92
  %106 = getelementptr inbounds i8, i8* %100, i64 %72
  %107 = bitcast i8* %106 to %"class.bluetooth::mojom::internal::UUID_Data"*
  br label %108

108:                                              ; preds = %105, %92, %66
  %109 = phi %"struct.mojo::internal::Pointer.153"* [ %103, %105 ], [ %103, %92 ], [ %70, %66 ]
  %110 = phi %"class.bluetooth::mojom::internal::UUID_Data"* [ %107, %105 ], [ null, %92 ], [ null, %66 ]
  %111 = getelementptr inbounds %"struct.mojo::internal::Pointer.153", %"struct.mojo::internal::Pointer.153"* %109, i64 0, i32 0
  %112 = icmp eq %"class.bluetooth::mojom::internal::UUID_Data"* %110, null
  %113 = ptrtoint %"class.bluetooth::mojom::internal::UUID_Data"* %110 to i64
  %114 = ptrtoint %"struct.mojo::internal::Pointer.153"* %109 to i64
  %115 = sub i64 %113, %114
  %116 = select i1 %112, i64 0, i64 %115
  store i64 %116, i64* %111, align 8
  %117 = call i8* @_Znwm(i64 16) #14
  %118 = getelementptr inbounds %"class.base::OnceCallback.151", %"class.base::OnceCallback.151"* %4, i64 0, i32 0, i32 0, i32 0
  %119 = bitcast %"class.base::OnceCallback.151"* %4 to i64*
  %120 = load i64, i64* %119, align 8
  store %"class.base::internal::BindStateBase"* null, %"class.base::internal::BindStateBase"** %118, align 8
  %121 = bitcast i8* %117 to i32 (...)***
  store i32 (...)** bitcast (i8** getelementptr inbounds ({ [6 x i8*] }, { [6 x i8*] }* @_ZTVN5blink5mojom68WebBluetoothService_RemoteServerGetPrimaryServices_ForwardToCallbackE, i64 0, inrange i32 0, i64 2) to i32 (...)**), i32 (...)*** %121, align 8
  %122 = getelementptr inbounds i8, i8* %117, i64 8
  %123 = getelementptr inbounds %"class.base::OnceCallback.151", %"class.base::OnceCallback.151"* %9, i64 0, i32 0, i32 0, i32 0
  %124 = bitcast i8* %122 to i64*
  store i64 %120, i64* %124, align 8
  store %"class.base::internal::BindStateBase"* null, %"class.base::internal::BindStateBase"** %123, align 8
  %125 = bitcast i8* %117 to %"class.mojo::MessageReceiver"*
  %126 = getelementptr inbounds %"class.base::OnceCallback.151", %"class.base::OnceCallback.151"* %9, i64 0, i32 0
  call void @_ZN4base8internal12CallbackBaseD2Ev(%"class.base::internal::CallbackBase"* nonnull %126) #13
  %127 = getelementptr inbounds %"class.blink::mojom::WebBluetoothServiceProxy", %"class.blink::mojom::WebBluetoothServiceProxy"* %0, i64 0, i32 1
  %128 = load %"class.mojo::MessageReceiverWithResponder"*, %"class.mojo::MessageReceiverWithResponder"** %127, align 8
  %129 = bitcast %"class.mojo::MessageReceiverWithResponder"* %128 to i1 (%"class.mojo::MessageReceiverWithResponder"*, %"class.mojo::Message"*, %"class.mojo::MessageReceiver"*)***
  %130 = load i1 (%"class.mojo::MessageReceiverWithResponder"*, %"class.mojo::Message"*, %"class.mojo::MessageReceiver"*)**, i1 (%"class.mojo::MessageReceiverWithResponder"*, %"class.mojo::Message"*, %"class.mojo::MessageReceiver"*)*** %129, align 8
  %131 = getelementptr inbounds i1 (%"class.mojo::MessageReceiverWithResponder"*, %"class.mojo::Message"*, %"class.mojo::MessageReceiver"*)*, i1 (%"class.mojo::MessageReceiverWithResponder"*, %"class.mojo::Message"*, %"class.mojo::MessageReceiver"*)** %130, i64 4
  %132 = load i1 (%"class.mojo::MessageReceiverWithResponder"*, %"class.mojo::Message"*, %"class.mojo::MessageReceiver"*)*, i1 (%"class.mojo::MessageReceiverWithResponder"*, %"class.mojo::Message"*, %"class.mojo::MessageReceiver"*)** %131, align 8
  %133 = call zeroext i1 %132(%"class.mojo::MessageReceiverWithResponder"* %128, %"class.mojo::Message"* nonnull %8, %"class.mojo::MessageReceiver"* nonnull %125) #13
  call void @_ZN4mojo7MessageD1Ev(%"class.mojo::Message"* nonnull %8) #13
  call void @llvm.lifetime.end.p0i8(i64 120, i8* nonnull %10) #13
  ret void
}

; Function Attrs: nounwind ssp uwtable
define hidden void @_ZN5blink5mojom24WebBluetoothServiceProxy31RemoteServiceGetCharacteristicsERKNSt3__112basic_stringIcNS2_11char_traitsIcEENS2_9allocatorIcEEEENS0_29WebBluetoothGATTQueryQuantityERKN4absl8optionalIN6device13BluetoothUUIDEEEN4base12OnceCallbackIFvNS0_18WebBluetoothResultENSD_INS2_6vectorIN4mojo9StructPtrINS0_36WebBluetoothRemoteGATTCharacteristicEEENS6_ISQ_EEEEEEEEE(%"class.blink::mojom::WebBluetoothServiceProxy"* nocapture readonly, %"class.std::__1::basic_string"* dereferenceable(24), i32, %"class.absl::optional.146"* dereferenceable(64), %"class.base::OnceCallback.155"* nocapture) unnamed_addr #0 align 2 {
  %6 = alloca %"class.mojo::internal::MessageFragment.157", align 8
  %7 = alloca %"class.mojo::Message", align 8
  %8 = alloca %"class.mojo::internal::MessageFragment.157", align 8
  %9 = alloca %"class.base::OnceCallback.155", align 8
  %10 = bitcast %"class.mojo::Message"* %7 to i8*
  call void @llvm.lifetime.start.p0i8(i64 120, i8* nonnull %10) #13
  call void @llvm.memset.p0i8.i64(i8* nonnull align 8 %10, i8 -86, i64 120, i1 false)
  call void @_ZN4mojo7MessageC1EjjmmPNSt3__16vectorINS_16ScopedHandleBaseINS_6HandleEEENS1_9allocatorIS5_EEEE(%"class.mojo::Message"* nonnull %7, i32 501096322, i32 1, i64 0, i64 0, %"class.std::__1::vector.37"* null) #13
  %11 = getelementptr inbounds %"class.mojo::Message", %"class.mojo::Message"* %7, i64 0, i32 1
  %12 = call i64 @_ZN4mojo8internal6Buffer8AllocateEm(%"class.mojo::internal::Buffer"* %11, i64 32) #13
  %13 = getelementptr inbounds %"class.mojo::Message", %"class.mojo::Message"* %7, i64 0, i32 1, i32 2
  %14 = load i8*, i8** %13, align 8
  %15 = getelementptr inbounds i8, i8* %14, i64 %12
  %16 = bitcast i8* %15 to %"class.blink::mojom::internal::WebBluetoothService_RemoteServiceGetCharacteristics_Params_Data"*
  call void @_ZN5blink5mojom8internal63WebBluetoothService_RemoteServiceGetCharacteristics_Params_DataC1Ev(%"class.blink::mojom::internal::WebBluetoothService_RemoteServiceGetCharacteristics_Params_Data"* %16) #13
  %17 = bitcast %"class.mojo::internal::MessageFragment.157"* %8 to i8*
  call void @llvm.lifetime.start.p0i8(i64 16, i8* nonnull %17) #13
  %18 = getelementptr inbounds %"class.mojo::internal::MessageFragment.157", %"class.mojo::internal::MessageFragment.157"* %8, i64 0, i32 0
  %19 = getelementptr inbounds %"class.mojo::internal::MessageFragment.157", %"class.mojo::internal::MessageFragment.157"* %8, i64 0, i32 1
  store %"class.mojo::Message"* %7, %"class.mojo::Message"** %18, align 8
  store i64 -1, i64* %19, align 8
  call void @_ZN4mojo8internal10SerializerINS_14StringDataViewEKNSt3__112basic_stringIcNS3_11char_traitsIcEENS3_9allocatorIcEEEEE9SerializeERSA_RNS0_15MessageFragmentINS0_10Array_DataIcEEEE(%"class.std::__1::basic_string"* dereferenceable(24) %1, %"class.mojo::internal::MessageFragment.157"* nonnull dereferenceable(16) %8) #13
  %20 = load i8*, i8** %13, align 8
  %21 = getelementptr inbounds i8, i8* %20, i64 %12
  %22 = getelementptr inbounds i8, i8* %21, i64 8
  %23 = load i64, i64* %19, align 8
  %24 = icmp eq i64 %23, -1
  br i1 %24, label %31, label %25

25:                                               ; preds = %5
  %26 = load %"class.mojo::Message"*, %"class.mojo::Message"** %18, align 8
  %27 = getelementptr inbounds %"class.mojo::Message", %"class.mojo::Message"* %26, i64 0, i32 1, i32 2
  %28 = load i8*, i8** %27, align 8
  %29 = getelementptr inbounds i8, i8* %28, i64 %23
  %30 = bitcast i8* %29 to %"class.mojo::internal::Array_Data"*
  br label %31

31:                                               ; preds = %5, %25
  %32 = phi %"class.mojo::internal::Array_Data"* [ %30, %25 ], [ null, %5 ]
  %33 = bitcast i8* %22 to i64*
  %34 = icmp eq %"class.mojo::internal::Array_Data"* %32, null
  %35 = ptrtoint %"class.mojo::internal::Array_Data"* %32 to i64
  %36 = ptrtoint i8* %22 to i64
  %37 = sub i64 %35, %36
  %38 = select i1 %34, i64 0, i64 %37
  store i64 %38, i64* %33, align 8
  %39 = load i8*, i8** %13, align 8
  %40 = getelementptr inbounds i8, i8* %39, i64 %12
  %41 = getelementptr inbounds i8, i8* %40, i64 16
  %42 = bitcast i8* %41 to i32*
  store i32 %2, i32* %42, align 4
  %43 = getelementptr inbounds %"class.absl::optional.146", %"class.absl::optional.146"* %3, i64 0, i32 0, i32 0, i32 0, i32 0
  %44 = load i8, i8* %43, align 8, !range !2
  %45 = icmp eq i8 %44, 0
  br i1 %45, label %46, label %51

46:                                               ; preds = %31
  %47 = load i8*, i8** %13, align 8
  %48 = getelementptr inbounds i8, i8* %47, i64 %12
  %49 = getelementptr inbounds i8, i8* %48, i64 24
  %50 = bitcast i8* %49 to %"struct.mojo::internal::Pointer.153"*
  br label %89

51:                                               ; preds = %31
  %52 = ptrtoint %"class.mojo::Message"* %7 to i64
  %53 = call i64 @_ZN4mojo8internal6Buffer8AllocateEm(%"class.mojo::internal::Buffer"* %11, i64 16) #13
  %54 = load i8*, i8** %13, align 8
  %55 = getelementptr inbounds i8, i8* %54, i64 %53
  %56 = bitcast i8* %55 to %"class.bluetooth::mojom::internal::UUID_Data"*
  call void @_ZN9bluetooth5mojom8internal9UUID_DataC1Ev(%"class.bluetooth::mojom::internal::UUID_Data"* %56) #13
  %57 = getelementptr inbounds %"class.absl::optional.146", %"class.absl::optional.146"* %3, i64 0, i32 0, i32 0, i32 0, i32 1, i32 0, i32 2
  %58 = bitcast %"class.mojo::internal::MessageFragment.157"* %6 to i8*
  call void @llvm.lifetime.start.p0i8(i64 16, i8* nonnull %58) #13
  %59 = getelementptr inbounds %"class.mojo::internal::MessageFragment.157", %"class.mojo::internal::MessageFragment.157"* %6, i64 0, i32 1
  %60 = bitcast %"class.mojo::internal::MessageFragment.157"* %6 to i64*
  store i64 %52, i64* %60, align 8
  store i64 -1, i64* %59, align 8
  call void @_ZN4mojo8internal10SerializerINS_14StringDataViewEKNSt3__112basic_stringIcNS3_11char_traitsIcEENS3_9allocatorIcEEEEE9SerializeERSA_RNS0_15MessageFragmentINS0_10Array_DataIcEEEE(%"class.std::__1::basic_string"* dereferenceable(24) %57, %"class.mojo::internal::MessageFragment.157"* nonnull dereferenceable(16) %6) #13
  %61 = load i8*, i8** %13, align 8
  %62 = getelementptr inbounds i8, i8* %61, i64 %53
  %63 = getelementptr inbounds i8, i8* %62, i64 8
  %64 = load i64, i64* %59, align 8
  %65 = icmp eq i64 %64, -1
  br i1 %65, label %73, label %66

66:                                               ; preds = %51
  %67 = getelementptr inbounds %"class.mojo::internal::MessageFragment.157", %"class.mojo::internal::MessageFragment.157"* %6, i64 0, i32 0
  %68 = load %"class.mojo::Message"*, %"class.mojo::Message"** %67, align 8
  %69 = getelementptr inbounds %"class.mojo::Message", %"class.mojo::Message"* %68, i64 0, i32 1, i32 2
  %70 = load i8*, i8** %69, align 8
  %71 = getelementptr inbounds i8, i8* %70, i64 %64
  %72 = bitcast i8* %71 to %"class.mojo::internal::Array_Data"*
  br label %73

73:                                               ; preds = %51, %66
  %74 = phi %"class.mojo::internal::Array_Data"* [ %72, %66 ], [ null, %51 ]
  %75 = bitcast i8* %63 to i64*
  %76 = icmp eq %"class.mojo::internal::Array_Data"* %74, null
  %77 = ptrtoint %"class.mojo::internal::Array_Data"* %74 to i64
  %78 = ptrtoint i8* %63 to i64
  %79 = sub i64 %77, %78
  %80 = select i1 %76, i64 0, i64 %79
  store i64 %80, i64* %75, align 8
  call void @llvm.lifetime.end.p0i8(i64 16, i8* nonnull %58) #13
  %81 = load i8*, i8** %13, align 8
  %82 = getelementptr inbounds i8, i8* %81, i64 %12
  %83 = getelementptr inbounds i8, i8* %82, i64 24
  %84 = bitcast i8* %83 to %"struct.mojo::internal::Pointer.153"*
  %85 = icmp eq i64 %53, -1
  br i1 %85, label %89, label %86

86:                                               ; preds = %73
  %87 = getelementptr inbounds i8, i8* %81, i64 %53
  %88 = bitcast i8* %87 to %"class.bluetooth::mojom::internal::UUID_Data"*
  br label %89

89:                                               ; preds = %86, %73, %46
  %90 = phi %"struct.mojo::internal::Pointer.153"* [ %84, %86 ], [ %84, %73 ], [ %50, %46 ]
  %91 = phi %"class.bluetooth::mojom::internal::UUID_Data"* [ %88, %86 ], [ null, %73 ], [ null, %46 ]
  %92 = getelementptr inbounds %"struct.mojo::internal::Pointer.153", %"struct.mojo::internal::Pointer.153"* %90, i64 0, i32 0
  %93 = icmp eq %"class.bluetooth::mojom::internal::UUID_Data"* %91, null
  %94 = ptrtoint %"class.bluetooth::mojom::internal::UUID_Data"* %91 to i64
  %95 = ptrtoint %"struct.mojo::internal::Pointer.153"* %90 to i64
  %96 = sub i64 %94, %95
  %97 = select i1 %93, i64 0, i64 %96
  store i64 %97, i64* %92, align 8
  %98 = call i8* @_Znwm(i64 16) #14
  %99 = getelementptr inbounds %"class.base::OnceCallback.155", %"class.base::OnceCallback.155"* %4, i64 0, i32 0, i32 0, i32 0
  %100 = bitcast %"class.base::OnceCallback.155"* %4 to i64*
  %101 = load i64, i64* %100, align 8
  store %"class.base::internal::BindStateBase"* null, %"class.base::internal::BindStateBase"** %99, align 8
  %102 = bitcast i8* %98 to i32 (...)***
  store i32 (...)** bitcast (i8** getelementptr inbounds ({ [6 x i8*] }, { [6 x i8*] }* @_ZTVN5blink5mojom69WebBluetoothService_RemoteServiceGetCharacteristics_ForwardToCallbackE, i64 0, inrange i32 0, i64 2) to i32 (...)**), i32 (...)*** %102, align 8
  %103 = getelementptr inbounds i8, i8* %98, i64 8
  %104 = getelementptr inbounds %"class.base::OnceCallback.155", %"class.base::OnceCallback.155"* %9, i64 0, i32 0, i32 0, i32 0
  %105 = bitcast i8* %103 to i64*
  store i64 %101, i64* %105, align 8
  store %"class.base::internal::BindStateBase"* null, %"class.base::internal::BindStateBase"** %104, align 8
  %106 = bitcast i8* %98 to %"class.mojo::MessageReceiver"*
  %107 = getelementptr inbounds %"class.base::OnceCallback.155", %"class.base::OnceCallback.155"* %9, i64 0, i32 0
  call void @_ZN4base8internal12CallbackBaseD2Ev(%"class.base::internal::CallbackBase"* nonnull %107) #13
  %108 = getelementptr inbounds %"class.blink::mojom::WebBluetoothServiceProxy", %"class.blink::mojom::WebBluetoothServiceProxy"* %0, i64 0, i32 1
  %109 = load %"class.mojo::MessageReceiverWithResponder"*, %"class.mojo::MessageReceiverWithResponder"** %108, align 8
  %110 = bitcast %"class.mojo::MessageReceiverWithResponder"* %109 to i1 (%"class.mojo::MessageReceiverWithResponder"*, %"class.mojo::Message"*, %"class.mojo::MessageReceiver"*)***
  %111 = load i1 (%"class.mojo::MessageReceiverWithResponder"*, %"class.mojo::Message"*, %"class.mojo::MessageReceiver"*)**, i1 (%"class.mojo::MessageReceiverWithResponder"*, %"class.mojo::Message"*, %"class.mojo::MessageReceiver"*)*** %110, align 8
  %112 = getelementptr inbounds i1 (%"class.mojo::MessageReceiverWithResponder"*, %"class.mojo::Message"*, %"class.mojo::MessageReceiver"*)*, i1 (%"class.mojo::MessageReceiverWithResponder"*, %"class.mojo::Message"*, %"class.mojo::MessageReceiver"*)** %111, i64 4
  %113 = load i1 (%"class.mojo::MessageReceiverWithResponder"*, %"class.mojo::Message"*, %"class.mojo::MessageReceiver"*)*, i1 (%"class.mojo::MessageReceiverWithResponder"*, %"class.mojo::Message"*, %"class.mojo::MessageReceiver"*)** %112, align 8
  %114 = call zeroext i1 %113(%"class.mojo::MessageReceiverWithResponder"* %109, %"class.mojo::Message"* nonnull %7, %"class.mojo::MessageReceiver"* nonnull %106) #13
  call void @llvm.lifetime.end.p0i8(i64 16, i8* nonnull %17) #13
  call void @_ZN4mojo7MessageD1Ev(%"class.mojo::Message"* nonnull %7) #13
  call void @llvm.lifetime.end.p0i8(i64 120, i8* nonnull %10) #13
  ret void
}

; Function Attrs: nounwind ssp uwtable
define hidden void @_ZN5blink5mojom24WebBluetoothServiceProxy29RemoteCharacteristicReadValueERKNSt3__112basic_stringIcNS2_11char_traitsIcEENS2_9allocatorIcEEEEN4base12OnceCallbackIFvNS0_18WebBluetoothResultERKN4absl8optionalINS2_6vectorIhNS6_IhEEEEEEEEE(%"class.blink::mojom::WebBluetoothServiceProxy"* nocapture readonly, %"class.std::__1::basic_string"* dereferenceable(24), %"class.base::OnceCallback.158"* nocapture) unnamed_addr #0 align 2 {
  %4 = alloca %"class.mojo::Message", align 8
  %5 = alloca %"class.mojo::internal::MessageFragment.157", align 8
  %6 = alloca %"class.base::OnceCallback.158", align 8
  %7 = bitcast %"class.mojo::Message"* %4 to i8*
  call void @llvm.lifetime.start.p0i8(i64 120, i8* nonnull %7) #13
  call void @llvm.memset.p0i8.i64(i8* nonnull align 8 %7, i8 -86, i64 120, i1 false)
  call void @_ZN4mojo7MessageC1EjjmmPNSt3__16vectorINS_16ScopedHandleBaseINS_6HandleEEENS1_9allocatorIS5_EEEE(%"class.mojo::Message"* nonnull %4, i32 132459802, i32 1, i64 0, i64 0, %"class.std::__1::vector.37"* null) #13
  %8 = getelementptr inbounds %"class.mojo::Message", %"class.mojo::Message"* %4, i64 0, i32 1
  %9 = call i64 @_ZN4mojo8internal6Buffer8AllocateEm(%"class.mojo::internal::Buffer"* %8, i64 16) #13
  %10 = getelementptr inbounds %"class.mojo::Message", %"class.mojo::Message"* %4, i64 0, i32 1, i32 2
  %11 = load i8*, i8** %10, align 8
  %12 = getelementptr inbounds i8, i8* %11, i64 %9
  %13 = bitcast i8* %12 to %"class.blink::mojom::internal::WebBluetoothService_RemoteCharacteristicReadValue_Params_Data"*
  call void @_ZN5blink5mojom8internal61WebBluetoothService_RemoteCharacteristicReadValue_Params_DataC1Ev(%"class.blink::mojom::internal::WebBluetoothService_RemoteCharacteristicReadValue_Params_Data"* %13) #13
  %14 = bitcast %"class.mojo::internal::MessageFragment.157"* %5 to i8*
  call void @llvm.lifetime.start.p0i8(i64 16, i8* nonnull %14) #13
  %15 = getelementptr inbounds %"class.mojo::internal::MessageFragment.157", %"class.mojo::internal::MessageFragment.157"* %5, i64 0, i32 0
  %16 = getelementptr inbounds %"class.mojo::internal::MessageFragment.157", %"class.mojo::internal::MessageFragment.157"* %5, i64 0, i32 1
  store %"class.mojo::Message"* %4, %"class.mojo::Message"** %15, align 8
  store i64 -1, i64* %16, align 8
  call void @_ZN4mojo8internal10SerializerINS_14StringDataViewEKNSt3__112basic_stringIcNS3_11char_traitsIcEENS3_9allocatorIcEEEEE9SerializeERSA_RNS0_15MessageFragmentINS0_10Array_DataIcEEEE(%"class.std::__1::basic_string"* dereferenceable(24) %1, %"class.mojo::internal::MessageFragment.157"* nonnull dereferenceable(16) %5) #13
  %17 = load i8*, i8** %10, align 8
  %18 = getelementptr inbounds i8, i8* %17, i64 %9
  %19 = getelementptr inbounds i8, i8* %18, i64 8
  %20 = load i64, i64* %16, align 8
  %21 = icmp eq i64 %20, -1
  br i1 %21, label %28, label %22

22:                                               ; preds = %3
  %23 = load %"class.mojo::Message"*, %"class.mojo::Message"** %15, align 8
  %24 = getelementptr inbounds %"class.mojo::Message", %"class.mojo::Message"* %23, i64 0, i32 1, i32 2
  %25 = load i8*, i8** %24, align 8
  %26 = getelementptr inbounds i8, i8* %25, i64 %20
  %27 = bitcast i8* %26 to %"class.mojo::internal::Array_Data"*
  br label %28

28:                                               ; preds = %22, %3
  %29 = phi %"class.mojo::internal::Array_Data"* [ %27, %22 ], [ null, %3 ]
  %30 = bitcast i8* %19 to i64*
  %31 = icmp eq %"class.mojo::internal::Array_Data"* %29, null
  %32 = ptrtoint %"class.mojo::internal::Array_Data"* %29 to i64
  %33 = ptrtoint i8* %19 to i64
  %34 = sub i64 %32, %33
  %35 = select i1 %31, i64 0, i64 %34
  store i64 %35, i64* %30, align 8
  %36 = call i8* @_Znwm(i64 16) #14
  %37 = getelementptr inbounds %"class.base::OnceCallback.158", %"class.base::OnceCallback.158"* %2, i64 0, i32 0, i32 0, i32 0
  %38 = bitcast %"class.base::OnceCallback.158"* %2 to i64*
  %39 = load i64, i64* %38, align 8
  store %"class.base::internal::BindStateBase"* null, %"class.base::internal::BindStateBase"** %37, align 8
  %40 = bitcast i8* %36 to i32 (...)***
  store i32 (...)** bitcast (i8** getelementptr inbounds ({ [6 x i8*] }, { [6 x i8*] }* @_ZTVN5blink5mojom67WebBluetoothService_RemoteCharacteristicReadValue_ForwardToCallbackE, i64 0, inrange i32 0, i64 2) to i32 (...)**), i32 (...)*** %40, align 8
  %41 = getelementptr inbounds i8, i8* %36, i64 8
  %42 = getelementptr inbounds %"class.base::OnceCallback.158", %"class.base::OnceCallback.158"* %6, i64 0, i32 0, i32 0, i32 0
  %43 = bitcast i8* %41 to i64*
  store i64 %39, i64* %43, align 8
  store %"class.base::internal::BindStateBase"* null, %"class.base::internal::BindStateBase"** %42, align 8
  %44 = bitcast i8* %36 to %"class.mojo::MessageReceiver"*
  %45 = getelementptr inbounds %"class.base::OnceCallback.158", %"class.base::OnceCallback.158"* %6, i64 0, i32 0
  call void @_ZN4base8internal12CallbackBaseD2Ev(%"class.base::internal::CallbackBase"* nonnull %45) #13
  %46 = getelementptr inbounds %"class.blink::mojom::WebBluetoothServiceProxy", %"class.blink::mojom::WebBluetoothServiceProxy"* %0, i64 0, i32 1
  %47 = load %"class.mojo::MessageReceiverWithResponder"*, %"class.mojo::MessageReceiverWithResponder"** %46, align 8
  %48 = bitcast %"class.mojo::MessageReceiverWithResponder"* %47 to i1 (%"class.mojo::MessageReceiverWithResponder"*, %"class.mojo::Message"*, %"class.mojo::MessageReceiver"*)***
  %49 = load i1 (%"class.mojo::MessageReceiverWithResponder"*, %"class.mojo::Message"*, %"class.mojo::MessageReceiver"*)**, i1 (%"class.mojo::MessageReceiverWithResponder"*, %"class.mojo::Message"*, %"class.mojo::MessageReceiver"*)*** %48, align 8
  %50 = getelementptr inbounds i1 (%"class.mojo::MessageReceiverWithResponder"*, %"class.mojo::Message"*, %"class.mojo::MessageReceiver"*)*, i1 (%"class.mojo::MessageReceiverWithResponder"*, %"class.mojo::Message"*, %"class.mojo::MessageReceiver"*)** %49, i64 4
  %51 = load i1 (%"class.mojo::MessageReceiverWithResponder"*, %"class.mojo::Message"*, %"class.mojo::MessageReceiver"*)*, i1 (%"class.mojo::MessageReceiverWithResponder"*, %"class.mojo::Message"*, %"class.mojo::MessageReceiver"*)** %50, align 8
  %52 = call zeroext i1 %51(%"class.mojo::MessageReceiverWithResponder"* %47, %"class.mojo::Message"* nonnull %4, %"class.mojo::MessageReceiver"* nonnull %44) #13
  call void @llvm.lifetime.end.p0i8(i64 16, i8* nonnull %14) #13
  call void @_ZN4mojo7MessageD1Ev(%"class.mojo::Message"* nonnull %4) #13
  call void @llvm.lifetime.end.p0i8(i64 120, i8* nonnull %7) #13
  ret void
}

; Function Attrs: nounwind
declare void @_ZN4base8internal12CallbackBaseD2Ev(%"class.base::internal::CallbackBase"*) unnamed_addr #6

; Function Attrs: nounwind ssp uwtable
define hidden void @_ZN5blink5mojom24WebBluetoothServiceProxy30RemoteCharacteristicWriteValueERKNSt3__112basic_stringIcNS2_11char_traitsIcEENS2_9allocatorIcEEEERKNS2_6vectorIhNS6_IhEEEENS0_21WebBluetoothWriteTypeEN4base12OnceCallbackIFvNS0_18WebBluetoothResultEEEE(%"class.blink::mojom::WebBluetoothServiceProxy"* nocapture readonly, %"class.std::__1::basic_string"* dereferenceable(24), %"class.std::__1::vector.97"* nocapture readonly dereferenceable(24), i32, %"class.base::OnceCallback.140"* nocapture) unnamed_addr #0 align 2 {
  %6 = alloca %"class.mojo::Message", align 8
  %7 = alloca %"class.mojo::internal::MessageFragment.157", align 8
  %8 = alloca %"class.mojo::internal::ContainerValidateParams", align 8
  %9 = alloca %"class.base::OnceCallback.140", align 8
  %10 = bitcast %"class.mojo::Message"* %6 to i8*
  call void @llvm.lifetime.start.p0i8(i64 120, i8* nonnull %10) #13
  call void @llvm.memset.p0i8.i64(i8* nonnull align 8 %10, i8 -86, i64 120, i1 false)
  call void @_ZN4mojo7MessageC1EjjmmPNSt3__16vectorINS_16ScopedHandleBaseINS_6HandleEEENS1_9allocatorIS5_EEEE(%"class.mojo::Message"* nonnull %6, i32 1665417437, i32 1, i64 0, i64 0, %"class.std::__1::vector.37"* null) #13
  %11 = getelementptr inbounds %"class.mojo::Message", %"class.mojo::Message"* %6, i64 0, i32 1
  %12 = call i64 @_ZN4mojo8internal6Buffer8AllocateEm(%"class.mojo::internal::Buffer"* %11, i64 32) #13
  %13 = getelementptr inbounds %"class.mojo::Message", %"class.mojo::Message"* %6, i64 0, i32 1, i32 2
  %14 = load i8*, i8** %13, align 8
  %15 = getelementptr inbounds i8, i8* %14, i64 %12
  %16 = bitcast i8* %15 to %"class.blink::mojom::internal::WebBluetoothService_RemoteCharacteristicWriteValue_Params_Data"*
  call void @_ZN5blink5mojom8internal62WebBluetoothService_RemoteCharacteristicWriteValue_Params_DataC1Ev(%"class.blink::mojom::internal::WebBluetoothService_RemoteCharacteristicWriteValue_Params_Data"* %16) #13
  %17 = bitcast %"class.mojo::internal::MessageFragment.157"* %7 to i8*
  call void @llvm.lifetime.start.p0i8(i64 16, i8* nonnull %17) #13
  %18 = getelementptr inbounds %"class.mojo::internal::MessageFragment.157", %"class.mojo::internal::MessageFragment.157"* %7, i64 0, i32 0
  %19 = getelementptr inbounds %"class.mojo::internal::MessageFragment.157", %"class.mojo::internal::MessageFragment.157"* %7, i64 0, i32 1
  store %"class.mojo::Message"* %6, %"class.mojo::Message"** %18, align 8
  store i64 -1, i64* %19, align 8
  call void @_ZN4mojo8internal10SerializerINS_14StringDataViewEKNSt3__112basic_stringIcNS3_11char_traitsIcEENS3_9allocatorIcEEEEE9SerializeERSA_RNS0_15MessageFragmentINS0_10Array_DataIcEEEE(%"class.std::__1::basic_string"* dereferenceable(24) %1, %"class.mojo::internal::MessageFragment.157"* nonnull dereferenceable(16) %7) #13
  %20 = load i8*, i8** %13, align 8
  %21 = getelementptr inbounds i8, i8* %20, i64 %12
  %22 = getelementptr inbounds i8, i8* %21, i64 8
  %23 = load i64, i64* %19, align 8
  %24 = icmp eq i64 %23, -1
  br i1 %24, label %31, label %25

25:                                               ; preds = %5
  %26 = load %"class.mojo::Message"*, %"class.mojo::Message"** %18, align 8
  %27 = getelementptr inbounds %"class.mojo::Message", %"class.mojo::Message"* %26, i64 0, i32 1, i32 2
  %28 = load i8*, i8** %27, align 8
  %29 = getelementptr inbounds i8, i8* %28, i64 %23
  %30 = bitcast i8* %29 to %"class.mojo::internal::Array_Data"*
  br label %31

31:                                               ; preds = %5, %25
  %32 = phi %"class.mojo::internal::Array_Data"* [ %30, %25 ], [ null, %5 ]
  %33 = bitcast i8* %22 to i64*
  %34 = icmp eq %"class.mojo::internal::Array_Data"* %32, null
  %35 = ptrtoint %"class.mojo::internal::Array_Data"* %32 to i64
  %36 = ptrtoint i8* %22 to i64
  %37 = sub i64 %35, %36
  %38 = select i1 %34, i64 0, i64 %37
  store i64 %38, i64* %33, align 8
  %39 = bitcast %"class.mojo::internal::ContainerValidateParams"* %8 to i8*
  call void @llvm.lifetime.start.p0i8(i64 32, i8* nonnull %39) #13
  %40 = bitcast %"class.mojo::internal::ContainerValidateParams"* %8 to i64*
  store i64 -6148914691236517206, i64* %40, align 8
  %41 = getelementptr inbounds %"class.mojo::internal::ContainerValidateParams", %"class.mojo::internal::ContainerValidateParams"* %8, i64 0, i32 0
  store i32 0, i32* %41, align 8
  %42 = getelementptr inbounds %"class.mojo::internal::ContainerValidateParams", %"class.mojo::internal::ContainerValidateParams"* %8, i64 0, i32 1
  store i8 0, i8* %42, align 4
  %43 = getelementptr inbounds %"class.mojo::internal::ContainerValidateParams", %"class.mojo::internal::ContainerValidateParams"* %8, i64 0, i32 2
  %44 = getelementptr inbounds %"class.std::__1::vector.97", %"class.std::__1::vector.97"* %2, i64 0, i32 0, i32 1
  %45 = bitcast i8** %44 to i64*
  %46 = bitcast %"class.mojo::internal::ContainerValidateParams"** %43 to i8*
  call void @llvm.memset.p0i8.i64(i8* align 8 %46, i8 0, i64 24, i1 false)
  %47 = load i64, i64* %45, align 8
  %48 = bitcast %"class.std::__1::vector.97"* %2 to i64*
  %49 = load i64, i64* %48, align 8
  %50 = sub i64 %47, %49
  %51 = icmp ugt i64 %50, 4294967287
  br i1 %51, label %66, label %52

52:                                               ; preds = %31
  %53 = trunc i64 %50 to i32
  %54 = add nuw i32 %53, 8
  %55 = zext i32 %54 to i64
  %56 = call i64 @_ZN4mojo8internal6Buffer8AllocateEm(%"class.mojo::internal::Buffer"* %11, i64 %55) #13
  %57 = load i8*, i8** %13, align 8
  %58 = getelementptr inbounds i8, i8* %57, i64 %56
  %59 = bitcast i8* %58 to i32*
  store i32 %54, i32* %59, align 1
  %60 = getelementptr inbounds i8, i8* %58, i64 4
  %61 = bitcast i8* %60 to i32*
  store i32 %53, i32* %61, align 1
  %62 = load i64, i64* %48, align 8
  %63 = load i64, i64* %45, align 8
  %64 = sub i64 %63, %62
  %65 = icmp eq i64 %64, 0
  br i1 %65, label %125, label %66

66:                                               ; preds = %52, %31
  %67 = phi i64 [ -1, %31 ], [ %56, %52 ]
  %68 = phi i64 [ %49, %31 ], [ %62, %52 ]
  %69 = phi i64 [ %50, %31 ], [ %64, %52 ]
  %70 = inttoptr i64 %68 to i8*
  %71 = load i8*, i8** %13, align 8
  %72 = getelementptr inbounds i8, i8* %71, i64 %67
  %73 = icmp eq i64 %68, 0
  %74 = getelementptr inbounds i8, i8* %72, i64 8
  br i1 %73, label %75, label %86

75:                                               ; preds = %66
  %76 = getelementptr inbounds %"class.std::__1::vector.97", %"class.std::__1::vector.97"* %2, i64 0, i32 0, i32 0
  %77 = load i8, i8* %70, align 1
  store i8 %77, i8* %74, align 1
  %78 = icmp eq i64 %69, 1
  br i1 %78, label %125, label %79

79:                                               ; preds = %75
  %80 = add i64 %69, -1
  %81 = add i64 %69, -2
  %82 = and i64 %80, 3
  %83 = icmp ult i64 %81, 3
  br i1 %83, label %112, label %84

84:                                               ; preds = %79
  %85 = sub i64 %80, %82
  br label %87

86:                                               ; preds = %66
  call void @llvm.memcpy.p0i8.p0i8.i64(i8* align 1 %74, i8* nonnull align 1 %70, i64 %69, i1 false) #13
  br label %125

87:                                               ; preds = %87, %84
  %88 = phi i64 [ 1, %84 ], [ %106, %87 ]
  %89 = phi i64 [ %85, %84 ], [ %110, %87 ]
  %90 = load i8*, i8** %76, align 8
  %91 = add nuw nsw i64 %88, 1
  %92 = getelementptr inbounds i8, i8* %90, i64 %88
  %93 = load i8, i8* %92, align 1
  %94 = getelementptr inbounds i8, i8* %74, i64 %88
  store i8 %93, i8* %94, align 1
  %95 = load i8*, i8** %76, align 8
  %96 = add nuw nsw i64 %88, 2
  %97 = getelementptr inbounds i8, i8* %95, i64 %91
  %98 = load i8, i8* %97, align 1
  %99 = getelementptr inbounds i8, i8* %74, i64 %91
  store i8 %98, i8* %99, align 1
  %100 = load i8*, i8** %76, align 8
  %101 = add nuw i64 %88, 3
  %102 = getelementptr inbounds i8, i8* %100, i64 %96
  %103 = load i8, i8* %102, align 1
  %104 = getelementptr inbounds i8, i8* %74, i64 %96
  store i8 %103, i8* %104, align 1
  %105 = load i8*, i8** %76, align 8
  %106 = add nuw i64 %88, 4
  %107 = getelementptr inbounds i8, i8* %105, i64 %101
  %108 = load i8, i8* %107, align 1
  %109 = getelementptr inbounds i8, i8* %74, i64 %101
  store i8 %108, i8* %109, align 1
  %110 = add i64 %89, -4
  %111 = icmp eq i64 %110, 0
  br i1 %111, label %112, label %87

112:                                              ; preds = %87, %79
  %113 = phi i64 [ 1, %79 ], [ %106, %87 ]
  %114 = icmp eq i64 %82, 0
  br i1 %114, label %125, label %115

115:                                              ; preds = %112, %115
  %116 = phi i64 [ %119, %115 ], [ %113, %112 ]
  %117 = phi i64 [ %123, %115 ], [ %82, %112 ]
  %118 = load i8*, i8** %76, align 8
  %119 = add nuw i64 %116, 1
  %120 = getelementptr inbounds i8, i8* %118, i64 %116
  %121 = load i8, i8* %120, align 1
  %122 = getelementptr inbounds i8, i8* %74, i64 %116
  store i8 %121, i8* %122, align 1
  %123 = add i64 %117, -1
  %124 = icmp eq i64 %123, 0
  br i1 %124, label %125, label %115, !llvm.loop !3

125:                                              ; preds = %112, %115, %52, %75, %86
  %126 = phi i64 [ %67, %75 ], [ %67, %86 ], [ %56, %52 ], [ %67, %115 ], [ %67, %112 ]
  %127 = load i8*, i8** %13, align 8
  %128 = getelementptr inbounds i8, i8* %127, i64 %12
  %129 = getelementptr inbounds i8, i8* %128, i64 16
  %130 = icmp eq i64 %126, -1
  %131 = getelementptr inbounds i8, i8* %127, i64 %126
  %132 = bitcast i8* %131 to %"class.mojo::internal::Array_Data.163"*
  %133 = select i1 %130, %"class.mojo::internal::Array_Data.163"* null, %"class.mojo::internal::Array_Data.163"* %132
  %134 = bitcast i8* %129 to i64*
  %135 = icmp eq %"class.mojo::internal::Array_Data.163"* %133, null
  %136 = ptrtoint %"class.mojo::internal::Array_Data.163"* %133 to i64
  %137 = ptrtoint i8* %129 to i64
  %138 = sub i64 %136, %137
  %139 = select i1 %135, i64 0, i64 %138
  store i64 %139, i64* %134, align 8
  %140 = load i8*, i8** %13, align 8
  %141 = getelementptr inbounds i8, i8* %140, i64 %12
  %142 = getelementptr inbounds i8, i8* %141, i64 24
  %143 = bitcast i8* %142 to i32*
  store i32 %3, i32* %143, align 4
  %144 = call i8* @_Znwm(i64 16) #14
  %145 = getelementptr inbounds %"class.base::OnceCallback.140", %"class.base::OnceCallback.140"* %4, i64 0, i32 0, i32 0, i32 0
  %146 = bitcast %"class.base::OnceCallback.140"* %4 to i64*
  %147 = load i64, i64* %146, align 8
  store %"class.base::internal::BindStateBase"* null, %"class.base::internal::BindStateBase"** %145, align 8
  %148 = bitcast i8* %144 to i32 (...)***
  store i32 (...)** bitcast (i8** getelementptr inbounds ({ [6 x i8*] }, { [6 x i8*] }* @_ZTVN5blink5mojom68WebBluetoothService_RemoteCharacteristicWriteValue_ForwardToCallbackE, i64 0, inrange i32 0, i64 2) to i32 (...)**), i32 (...)*** %148, align 8
  %149 = getelementptr inbounds i8, i8* %144, i64 8
  %150 = getelementptr inbounds %"class.base::OnceCallback.140", %"class.base::OnceCallback.140"* %9, i64 0, i32 0, i32 0, i32 0
  %151 = bitcast i8* %149 to i64*
  store i64 %147, i64* %151, align 8
  store %"class.base::internal::BindStateBase"* null, %"class.base::internal::BindStateBase"** %150, align 8
  %152 = bitcast i8* %144 to %"class.mojo::MessageReceiver"*
  %153 = getelementptr inbounds %"class.base::OnceCallback.140", %"class.base::OnceCallback.140"* %9, i64 0, i32 0
  call void @_ZN4base8internal12CallbackBaseD2Ev(%"class.base::internal::CallbackBase"* nonnull %153) #13
  %154 = getelementptr inbounds %"class.blink::mojom::WebBluetoothServiceProxy", %"class.blink::mojom::WebBluetoothServiceProxy"* %0, i64 0, i32 1
  %155 = load %"class.mojo::MessageReceiverWithResponder"*, %"class.mojo::MessageReceiverWithResponder"** %154, align 8
  %156 = bitcast %"class.mojo::MessageReceiverWithResponder"* %155 to i1 (%"class.mojo::MessageReceiverWithResponder"*, %"class.mojo::Message"*, %"class.mojo::MessageReceiver"*)***
  %157 = load i1 (%"class.mojo::MessageReceiverWithResponder"*, %"class.mojo::Message"*, %"class.mojo::MessageReceiver"*)**, i1 (%"class.mojo::MessageReceiverWithResponder"*, %"class.mojo::Message"*, %"class.mojo::MessageReceiver"*)*** %156, align 8
  %158 = getelementptr inbounds i1 (%"class.mojo::MessageReceiverWithResponder"*, %"class.mojo::Message"*, %"class.mojo::MessageReceiver"*)*, i1 (%"class.mojo::MessageReceiverWithResponder"*, %"class.mojo::Message"*, %"class.mojo::MessageReceiver"*)** %157, i64 4
  %159 = load i1 (%"class.mojo::MessageReceiverWithResponder"*, %"class.mojo::Message"*, %"class.mojo::MessageReceiver"*)*, i1 (%"class.mojo::MessageReceiverWithResponder"*, %"class.mojo::Message"*, %"class.mojo::MessageReceiver"*)** %158, align 8
  %160 = call zeroext i1 %159(%"class.mojo::MessageReceiverWithResponder"* %155, %"class.mojo::Message"* nonnull %6, %"class.mojo::MessageReceiver"* nonnull %152) #13
  call void @_ZN4mojo8internal23ContainerValidateParamsD2Ev(%"class.mojo::internal::ContainerValidateParams"* nonnull %8) #13
  call void @llvm.lifetime.end.p0i8(i64 32, i8* nonnull %39) #13
  call void @llvm.lifetime.end.p0i8(i64 16, i8* nonnull %17) #13
  call void @_ZN4mojo7MessageD1Ev(%"class.mojo::Message"* nonnull %6) #13
  call void @llvm.lifetime.end.p0i8(i64 120, i8* nonnull %10) #13
  ret void
}

; Function Attrs: argmemonly nounwind
declare void @llvm.memcpy.p0i8.p0i8.i64(i8* nocapture writeonly, i8* nocapture readonly, i64, i1 immarg) #1

; Function Attrs: nounwind ssp uwtable
define linkonce_odr hidden void @_ZN4mojo8internal23ContainerValidateParamsD2Ev(%"class.mojo::internal::ContainerValidateParams"*) unnamed_addr #0 comdat align 2 {
  %2 = getelementptr inbounds %"class.mojo::internal::ContainerValidateParams", %"class.mojo::internal::ContainerValidateParams"* %0, i64 0, i32 3
  %3 = load %"class.mojo::internal::ContainerValidateParams"*, %"class.mojo::internal::ContainerValidateParams"** %2, align 8
  %4 = icmp eq %"class.mojo::internal::ContainerValidateParams"* %3, null
  br i1 %4, label %7, label %5

5:                                                ; preds = %1
  tail call void @_ZN4mojo8internal23ContainerValidateParamsD2Ev(%"class.mojo::internal::ContainerValidateParams"* nonnull %3) #13
  %6 = bitcast %"class.mojo::internal::ContainerValidateParams"* %3 to i8*
  tail call void @_ZdlPv(i8* %6) #14
  br label %7

7:                                                ; preds = %1, %5
  %8 = getelementptr inbounds %"class.mojo::internal::ContainerValidateParams", %"class.mojo::internal::ContainerValidateParams"* %0, i64 0, i32 2
  %9 = load %"class.mojo::internal::ContainerValidateParams"*, %"class.mojo::internal::ContainerValidateParams"** %8, align 8
  %10 = icmp eq %"class.mojo::internal::ContainerValidateParams"* %9, null
  br i1 %10, label %13, label %11

11:                                               ; preds = %7
  tail call void @_ZN4mojo8internal23ContainerValidateParamsD2Ev(%"class.mojo::internal::ContainerValidateParams"* nonnull %9) #13
  %12 = bitcast %"class.mojo::internal::ContainerValidateParams"* %9 to i8*
  tail call void @_ZdlPv(i8* %12) #14
  ret void

13:                                               ; preds = %7
  ret void
}

; Function Attrs: nounwind ssp uwtable
define hidden void @_ZN5blink5mojom24WebBluetoothServiceProxy38RemoteCharacteristicStartNotificationsERKNSt3__112basic_stringIcNS2_11char_traitsIcEENS2_9allocatorIcEEEEN4mojo23PendingAssociatedRemoteINS0_32WebBluetoothCharacteristicClientEEEN4base12OnceCallbackIFvNS0_18WebBluetoothResultEEEE(%"class.blink::mojom::WebBluetoothServiceProxy"* nocapture readonly, %"class.std::__1::basic_string"* dereferenceable(24), %"class.mojo::PendingAssociatedRemote.164"*, %"class.base::OnceCallback.140"* nocapture) unnamed_addr #0 align 2 {
  %5 = alloca %"class.mojo::ScopedInterfaceEndpointHandle", align 8
  %6 = alloca %"class.mojo::Message", align 8
  %7 = alloca %"class.mojo::internal::MessageFragment.157", align 8
  %8 = alloca %"class.base::OnceCallback.140", align 8
  %9 = bitcast %"class.mojo::Message"* %6 to i8*
  call void @llvm.lifetime.start.p0i8(i64 120, i8* nonnull %9) #13
  call void @llvm.memset.p0i8.i64(i8* nonnull align 8 %9, i8 -86, i64 120, i1 false)
  call void @_ZN4mojo7MessageC1EjjmmPNSt3__16vectorINS_16ScopedHandleBaseINS_6HandleEEENS1_9allocatorIS5_EEEE(%"class.mojo::Message"* nonnull %6, i32 649973803, i32 1, i64 0, i64 0, %"class.std::__1::vector.37"* null) #13
  %10 = getelementptr inbounds %"class.mojo::Message", %"class.mojo::Message"* %6, i64 0, i32 1
  %11 = call i64 @_ZN4mojo8internal6Buffer8AllocateEm(%"class.mojo::internal::Buffer"* %10, i64 24) #13
  %12 = getelementptr inbounds %"class.mojo::Message", %"class.mojo::Message"* %6, i64 0, i32 1, i32 2
  %13 = load i8*, i8** %12, align 8
  %14 = getelementptr inbounds i8, i8* %13, i64 %11
  %15 = bitcast i8* %14 to %"class.blink::mojom::internal::WebBluetoothService_RemoteCharacteristicStartNotifications_Params_Data"*
  call void @_ZN5blink5mojom8internal70WebBluetoothService_RemoteCharacteristicStartNotifications_Params_DataC1Ev(%"class.blink::mojom::internal::WebBluetoothService_RemoteCharacteristicStartNotifications_Params_Data"* %15) #13
  %16 = bitcast %"class.mojo::internal::MessageFragment.157"* %7 to i8*
  call void @llvm.lifetime.start.p0i8(i64 16, i8* nonnull %16) #13
  %17 = getelementptr inbounds %"class.mojo::internal::MessageFragment.157", %"class.mojo::internal::MessageFragment.157"* %7, i64 0, i32 0
  %18 = getelementptr inbounds %"class.mojo::internal::MessageFragment.157", %"class.mojo::internal::MessageFragment.157"* %7, i64 0, i32 1
  store %"class.mojo::Message"* %6, %"class.mojo::Message"** %17, align 8
  store i64 -1, i64* %18, align 8
  call void @_ZN4mojo8internal10SerializerINS_14StringDataViewEKNSt3__112basic_stringIcNS3_11char_traitsIcEENS3_9allocatorIcEEEEE9SerializeERSA_RNS0_15MessageFragmentINS0_10Array_DataIcEEEE(%"class.std::__1::basic_string"* dereferenceable(24) %1, %"class.mojo::internal::MessageFragment.157"* nonnull dereferenceable(16) %7) #13
  %19 = load i8*, i8** %12, align 8
  %20 = getelementptr inbounds i8, i8* %19, i64 %11
  %21 = getelementptr inbounds i8, i8* %20, i64 8
  %22 = load i64, i64* %18, align 8
  %23 = icmp eq i64 %22, -1
  br i1 %23, label %30, label %24

24:                                               ; preds = %4
  %25 = load %"class.mojo::Message"*, %"class.mojo::Message"** %17, align 8
  %26 = getelementptr inbounds %"class.mojo::Message", %"class.mojo::Message"* %25, i64 0, i32 1, i32 2
  %27 = load i8*, i8** %26, align 8
  %28 = getelementptr inbounds i8, i8* %27, i64 %22
  %29 = bitcast i8* %28 to %"class.mojo::internal::Array_Data"*
  br label %30

30:                                               ; preds = %24, %4
  %31 = phi %"class.mojo::internal::Array_Data"* [ %29, %24 ], [ null, %4 ]
  %32 = bitcast i8* %21 to i64*
  %33 = icmp eq %"class.mojo::internal::Array_Data"* %31, null
  %34 = ptrtoint %"class.mojo::internal::Array_Data"* %31 to i64
  %35 = ptrtoint i8* %21 to i64
  %36 = sub i64 %34, %35
  %37 = select i1 %33, i64 0, i64 %36
  store i64 %37, i64* %32, align 8
  %38 = load i8*, i8** %12, align 8
  %39 = getelementptr inbounds i8, i8* %38, i64 %11
  %40 = getelementptr inbounds i8, i8* %39, i64 16
  %41 = bitcast i8* %40 to %"struct.mojo::internal::AssociatedInterface_Data"*
  %42 = bitcast %"class.mojo::ScopedInterfaceEndpointHandle"* %5 to i8*
  call void @llvm.lifetime.start.p0i8(i64 8, i8* nonnull %42) #13
  %43 = getelementptr inbounds %"class.mojo::PendingAssociatedRemote.164", %"class.mojo::PendingAssociatedRemote.164"* %2, i64 0, i32 0
  call void @_ZN4mojo29ScopedInterfaceEndpointHandleC1EOS0_(%"class.mojo::ScopedInterfaceEndpointHandle"* nonnull %5, %"class.mojo::ScopedInterfaceEndpointHandle"* dereferenceable(8) %43) #13
  %44 = getelementptr inbounds %"class.mojo::PendingAssociatedRemote.164", %"class.mojo::PendingAssociatedRemote.164"* %2, i64 0, i32 1
  %45 = load i32, i32* %44, align 8
  call void @_ZN4mojo8internal32SerializeAssociatedInterfaceInfoENS_29ScopedInterfaceEndpointHandleEjRNS_7MessageERNS0_24AssociatedInterface_DataE(%"class.mojo::ScopedInterfaceEndpointHandle"* nonnull %5, i32 %45, %"class.mojo::Message"* nonnull dereferenceable(120) %6, %"struct.mojo::internal::AssociatedInterface_Data"* dereferenceable(8) %41) #13
  call void @_ZN4mojo29ScopedInterfaceEndpointHandleD1Ev(%"class.mojo::ScopedInterfaceEndpointHandle"* nonnull %5) #13
  call void @llvm.lifetime.end.p0i8(i64 8, i8* nonnull %42) #13
  %46 = call i8* @_Znwm(i64 16) #14
  %47 = getelementptr inbounds %"class.base::OnceCallback.140", %"class.base::OnceCallback.140"* %3, i64 0, i32 0, i32 0, i32 0
  %48 = bitcast %"class.base::OnceCallback.140"* %3 to i64*
  %49 = load i64, i64* %48, align 8
  store %"class.base::internal::BindStateBase"* null, %"class.base::internal::BindStateBase"** %47, align 8
  %50 = bitcast i8* %46 to i32 (...)***
  store i32 (...)** bitcast (i8** getelementptr inbounds ({ [6 x i8*] }, { [6 x i8*] }* @_ZTVN5blink5mojom76WebBluetoothService_RemoteCharacteristicStartNotifications_ForwardToCallbackE, i64 0, inrange i32 0, i64 2) to i32 (...)**), i32 (...)*** %50, align 8
  %51 = getelementptr inbounds i8, i8* %46, i64 8
  %52 = getelementptr inbounds %"class.base::OnceCallback.140", %"class.base::OnceCallback.140"* %8, i64 0, i32 0, i32 0, i32 0
  %53 = bitcast i8* %51 to i64*
  store i64 %49, i64* %53, align 8
  store %"class.base::internal::BindStateBase"* null, %"class.base::internal::BindStateBase"** %52, align 8
  %54 = bitcast i8* %46 to %"class.mojo::MessageReceiver"*
  %55 = getelementptr inbounds %"class.base::OnceCallback.140", %"class.base::OnceCallback.140"* %8, i64 0, i32 0
  call void @_ZN4base8internal12CallbackBaseD2Ev(%"class.base::internal::CallbackBase"* nonnull %55) #13
  %56 = getelementptr inbounds %"class.blink::mojom::WebBluetoothServiceProxy", %"class.blink::mojom::WebBluetoothServiceProxy"* %0, i64 0, i32 1
  %57 = load %"class.mojo::MessageReceiverWithResponder"*, %"class.mojo::MessageReceiverWithResponder"** %56, align 8
  %58 = bitcast %"class.mojo::MessageReceiverWithResponder"* %57 to i1 (%"class.mojo::MessageReceiverWithResponder"*, %"class.mojo::Message"*, %"class.mojo::MessageReceiver"*)***
  %59 = load i1 (%"class.mojo::MessageReceiverWithResponder"*, %"class.mojo::Message"*, %"class.mojo::MessageReceiver"*)**, i1 (%"class.mojo::MessageReceiverWithResponder"*, %"class.mojo::Message"*, %"class.mojo::MessageReceiver"*)*** %58, align 8
  %60 = getelementptr inbounds i1 (%"class.mojo::MessageReceiverWithResponder"*, %"class.mojo::Message"*, %"class.mojo::MessageReceiver"*)*, i1 (%"class.mojo::MessageReceiverWithResponder"*, %"class.mojo::Message"*, %"class.mojo::MessageReceiver"*)** %59, i64 4
  %61 = load i1 (%"class.mojo::MessageReceiverWithResponder"*, %"class.mojo::Message"*, %"class.mojo::MessageReceiver"*)*, i1 (%"class.mojo::MessageReceiverWithResponder"*, %"class.mojo::Message"*, %"class.mojo::MessageReceiver"*)** %60, align 8
  %62 = call zeroext i1 %61(%"class.mojo::MessageReceiverWithResponder"* %57, %"class.mojo::Message"* nonnull %6, %"class.mojo::MessageReceiver"* nonnull %54) #13
  call void @llvm.lifetime.end.p0i8(i64 16, i8* nonnull %16) #13
  call void @_ZN4mojo7MessageD1Ev(%"class.mojo::Message"* nonnull %6) #13
  call void @llvm.lifetime.end.p0i8(i64 120, i8* nonnull %9) #13
  ret void
}

; Function Attrs: nounwind ssp uwtable
define hidden void @_ZN5blink5mojom24WebBluetoothServiceProxy37RemoteCharacteristicStopNotificationsERKNSt3__112basic_stringIcNS2_11char_traitsIcEENS2_9allocatorIcEEEEN4base12OnceCallbackIFvvEEE(%"class.blink::mojom::WebBluetoothServiceProxy"* nocapture readonly, %"class.std::__1::basic_string"* dereferenceable(24), %"class.base::OnceCallback.167"* nocapture) unnamed_addr #0 align 2 {
  %4 = alloca %"class.mojo::Message", align 8
  %5 = alloca %"class.mojo::internal::MessageFragment.157", align 8
  %6 = alloca %"class.base::OnceCallback.167", align 8
  %7 = bitcast %"class.mojo::Message"* %4 to i8*
  call void @llvm.lifetime.start.p0i8(i64 120, i8* nonnull %7) #13
  call void @llvm.memset.p0i8.i64(i8* nonnull align 8 %7, i8 -86, i64 120, i1 false)
  call void @_ZN4mojo7MessageC1EjjmmPNSt3__16vectorINS_16ScopedHandleBaseINS_6HandleEEENS1_9allocatorIS5_EEEE(%"class.mojo::Message"* nonnull %4, i32 2069003051, i32 1, i64 0, i64 0, %"class.std::__1::vector.37"* null) #13
  %8 = getelementptr inbounds %"class.mojo::Message", %"class.mojo::Message"* %4, i64 0, i32 1
  %9 = call i64 @_ZN4mojo8internal6Buffer8AllocateEm(%"class.mojo::internal::Buffer"* %8, i64 16) #13
  %10 = getelementptr inbounds %"class.mojo::Message", %"class.mojo::Message"* %4, i64 0, i32 1, i32 2
  %11 = load i8*, i8** %10, align 8
  %12 = getelementptr inbounds i8, i8* %11, i64 %9
  %13 = bitcast i8* %12 to %"class.blink::mojom::internal::WebBluetoothService_RemoteCharacteristicStopNotifications_Params_Data"*
  call void @_ZN5blink5mojom8internal69WebBluetoothService_RemoteCharacteristicStopNotifications_Params_DataC1Ev(%"class.blink::mojom::internal::WebBluetoothService_RemoteCharacteristicStopNotifications_Params_Data"* %13) #13
  %14 = bitcast %"class.mojo::internal::MessageFragment.157"* %5 to i8*
  call void @llvm.lifetime.start.p0i8(i64 16, i8* nonnull %14) #13
  %15 = getelementptr inbounds %"class.mojo::internal::MessageFragment.157", %"class.mojo::internal::MessageFragment.157"* %5, i64 0, i32 0
  %16 = getelementptr inbounds %"class.mojo::internal::MessageFragment.157", %"class.mojo::internal::MessageFragment.157"* %5, i64 0, i32 1
  store %"class.mojo::Message"* %4, %"class.mojo::Message"** %15, align 8
  store i64 -1, i64* %16, align 8
  call void @_ZN4mojo8internal10SerializerINS_14StringDataViewEKNSt3__112basic_stringIcNS3_11char_traitsIcEENS3_9allocatorIcEEEEE9SerializeERSA_RNS0_15MessageFragmentINS0_10Array_DataIcEEEE(%"class.std::__1::basic_string"* dereferenceable(24) %1, %"class.mojo::internal::MessageFragment.157"* nonnull dereferenceable(16) %5) #13
  %17 = load i8*, i8** %10, align 8
  %18 = getelementptr inbounds i8, i8* %17, i64 %9
  %19 = getelementptr inbounds i8, i8* %18, i64 8
  %20 = load i64, i64* %16, align 8
  %21 = icmp eq i64 %20, -1
  br i1 %21, label %28, label %22

22:                                               ; preds = %3
  %23 = load %"class.mojo::Message"*, %"class.mojo::Message"** %15, align 8
  %24 = getelementptr inbounds %"class.mojo::Message", %"class.mojo::Message"* %23, i64 0, i32 1, i32 2
  %25 = load i8*, i8** %24, align 8
  %26 = getelementptr inbounds i8, i8* %25, i64 %20
  %27 = bitcast i8* %26 to %"class.mojo::internal::Array_Data"*
  br label %28

28:                                               ; preds = %22, %3
  %29 = phi %"class.mojo::internal::Array_Data"* [ %27, %22 ], [ null, %3 ]
  %30 = bitcast i8* %19 to i64*
  %31 = icmp eq %"class.mojo::internal::Array_Data"* %29, null
  %32 = ptrtoint %"class.mojo::internal::Array_Data"* %29 to i64
  %33 = ptrtoint i8* %19 to i64
  %34 = sub i64 %32, %33
  %35 = select i1 %31, i64 0, i64 %34
  store i64 %35, i64* %30, align 8
  %36 = call i8* @_Znwm(i64 16) #14
  %37 = getelementptr inbounds %"class.base::OnceCallback.167", %"class.base::OnceCallback.167"* %2, i64 0, i32 0, i32 0, i32 0
  %38 = bitcast %"class.base::OnceCallback.167"* %2 to i64*
  %39 = load i64, i64* %38, align 8
  store %"class.base::internal::BindStateBase"* null, %"class.base::internal::BindStateBase"** %37, align 8
  %40 = bitcast i8* %36 to i32 (...)***
  store i32 (...)** bitcast (i8** getelementptr inbounds ({ [6 x i8*] }, { [6 x i8*] }* @_ZTVN5blink5mojom75WebBluetoothService_RemoteCharacteristicStopNotifications_ForwardToCallbackE, i64 0, inrange i32 0, i64 2) to i32 (...)**), i32 (...)*** %40, align 8
  %41 = getelementptr inbounds i8, i8* %36, i64 8
  %42 = getelementptr inbounds %"class.base::OnceCallback.167", %"class.base::OnceCallback.167"* %6, i64 0, i32 0, i32 0, i32 0
  %43 = bitcast i8* %41 to i64*
  store i64 %39, i64* %43, align 8
  store %"class.base::internal::BindStateBase"* null, %"class.base::internal::BindStateBase"** %42, align 8
  %44 = bitcast i8* %36 to %"class.mojo::MessageReceiver"*
  %45 = getelementptr inbounds %"class.base::OnceCallback.167", %"class.base::OnceCallback.167"* %6, i64 0, i32 0
  call void @_ZN4base8internal12CallbackBaseD2Ev(%"class.base::internal::CallbackBase"* nonnull %45) #13
  %46 = getelementptr inbounds %"class.blink::mojom::WebBluetoothServiceProxy", %"class.blink::mojom::WebBluetoothServiceProxy"* %0, i64 0, i32 1
  %47 = load %"class.mojo::MessageReceiverWithResponder"*, %"class.mojo::MessageReceiverWithResponder"** %46, align 8
  %48 = bitcast %"class.mojo::MessageReceiverWithResponder"* %47 to i1 (%"class.mojo::MessageReceiverWithResponder"*, %"class.mojo::Message"*, %"class.mojo::MessageReceiver"*)***
  %49 = load i1 (%"class.mojo::MessageReceiverWithResponder"*, %"class.mojo::Message"*, %"class.mojo::MessageReceiver"*)**, i1 (%"class.mojo::MessageReceiverWithResponder"*, %"class.mojo::Message"*, %"class.mojo::MessageReceiver"*)*** %48, align 8
  %50 = getelementptr inbounds i1 (%"class.mojo::MessageReceiverWithResponder"*, %"class.mojo::Message"*, %"class.mojo::MessageReceiver"*)*, i1 (%"class.mojo::MessageReceiverWithResponder"*, %"class.mojo::Message"*, %"class.mojo::MessageReceiver"*)** %49, i64 4
  %51 = load i1 (%"class.mojo::MessageReceiverWithResponder"*, %"class.mojo::Message"*, %"class.mojo::MessageReceiver"*)*, i1 (%"class.mojo::MessageReceiverWithResponder"*, %"class.mojo::Message"*, %"class.mojo::MessageReceiver"*)** %50, align 8
  %52 = call zeroext i1 %51(%"class.mojo::MessageReceiverWithResponder"* %47, %"class.mojo::Message"* nonnull %4, %"class.mojo::MessageReceiver"* nonnull %44) #13
  call void @llvm.lifetime.end.p0i8(i64 16, i8* nonnull %14) #13
  call void @_ZN4mojo7MessageD1Ev(%"class.mojo::Message"* nonnull %4) #13
  call void @llvm.lifetime.end.p0i8(i64 120, i8* nonnull %7) #13
  ret void
}

; Function Attrs: nounwind ssp uwtable
define hidden void @_ZN5blink5mojom24WebBluetoothServiceProxy34RemoteCharacteristicGetDescriptorsERKNSt3__112basic_stringIcNS2_11char_traitsIcEENS2_9allocatorIcEEEENS0_29WebBluetoothGATTQueryQuantityERKN4absl8optionalIN6device13BluetoothUUIDEEEN4base12OnceCallbackIFvNS0_18WebBluetoothResultENSD_INS2_6vectorIN4mojo9StructPtrINS0_32WebBluetoothRemoteGATTDescriptorEEENS6_ISQ_EEEEEEEEE(%"class.blink::mojom::WebBluetoothServiceProxy"* nocapture readonly, %"class.std::__1::basic_string"* dereferenceable(24), i32, %"class.absl::optional.146"* dereferenceable(64), %"class.base::OnceCallback.169"* nocapture) unnamed_addr #0 align 2 {
  %6 = alloca %"class.mojo::internal::MessageFragment.157", align 8
  %7 = alloca %"class.mojo::Message", align 8
  %8 = alloca %"class.mojo::internal::MessageFragment.157", align 8
  %9 = alloca %"class.base::OnceCallback.169", align 8
  %10 = bitcast %"class.mojo::Message"* %7 to i8*
  call void @llvm.lifetime.start.p0i8(i64 120, i8* nonnull %10) #13
  call void @llvm.memset.p0i8.i64(i8* nonnull align 8 %10, i8 -86, i64 120, i1 false)
  call void @_ZN4mojo7MessageC1EjjmmPNSt3__16vectorINS_16ScopedHandleBaseINS_6HandleEEENS1_9allocatorIS5_EEEE(%"class.mojo::Message"* nonnull %7, i32 790741108, i32 1, i64 0, i64 0, %"class.std::__1::vector.37"* null) #13
  %11 = getelementptr inbounds %"class.mojo::Message", %"class.mojo::Message"* %7, i64 0, i32 1
  %12 = call i64 @_ZN4mojo8internal6Buffer8AllocateEm(%"class.mojo::internal::Buffer"* %11, i64 32) #13
  %13 = getelementptr inbounds %"class.mojo::Message", %"class.mojo::Message"* %7, i64 0, i32 1, i32 2
  %14 = load i8*, i8** %13, align 8
  %15 = getelementptr inbounds i8, i8* %14, i64 %12
  %16 = bitcast i8* %15 to %"class.blink::mojom::internal::WebBluetoothService_RemoteCharacteristicGetDescriptors_Params_Data"*
  call void @_ZN5blink5mojom8internal66WebBluetoothService_RemoteCharacteristicGetDescriptors_Params_DataC1Ev(%"class.blink::mojom::internal::WebBluetoothService_RemoteCharacteristicGetDescriptors_Params_Data"* %16) #13
  %17 = bitcast %"class.mojo::internal::MessageFragment.157"* %8 to i8*
  call void @llvm.lifetime.start.p0i8(i64 16, i8* nonnull %17) #13
  %18 = getelementptr inbounds %"class.mojo::internal::MessageFragment.157", %"class.mojo::internal::MessageFragment.157"* %8, i64 0, i32 0
  %19 = getelementptr inbounds %"class.mojo::internal::MessageFragment.157", %"class.mojo::internal::MessageFragment.157"* %8, i64 0, i32 1
  store %"class.mojo::Message"* %7, %"class.mojo::Message"** %18, align 8
  store i64 -1, i64* %19, align 8
  call void @_ZN4mojo8internal10SerializerINS_14StringDataViewEKNSt3__112basic_stringIcNS3_11char_traitsIcEENS3_9allocatorIcEEEEE9SerializeERSA_RNS0_15MessageFragmentINS0_10Array_DataIcEEEE(%"class.std::__1::basic_string"* dereferenceable(24) %1, %"class.mojo::internal::MessageFragment.157"* nonnull dereferenceable(16) %8) #13
  %20 = load i8*, i8** %13, align 8
  %21 = getelementptr inbounds i8, i8* %20, i64 %12
  %22 = getelementptr inbounds i8, i8* %21, i64 8
  %23 = load i64, i64* %19, align 8
  %24 = icmp eq i64 %23, -1
  br i1 %24, label %31, label %25

25:                                               ; preds = %5
  %26 = load %"class.mojo::Message"*, %"class.mojo::Message"** %18, align 8
  %27 = getelementptr inbounds %"class.mojo::Message", %"class.mojo::Message"* %26, i64 0, i32 1, i32 2
  %28 = load i8*, i8** %27, align 8
  %29 = getelementptr inbounds i8, i8* %28, i64 %23
  %30 = bitcast i8* %29 to %"class.mojo::internal::Array_Data"*
  br label %31

31:                                               ; preds = %5, %25
  %32 = phi %"class.mojo::internal::Array_Data"* [ %30, %25 ], [ null, %5 ]
  %33 = bitcast i8* %22 to i64*
  %34 = icmp eq %"class.mojo::internal::Array_Data"* %32, null
  %35 = ptrtoint %"class.mojo::internal::Array_Data"* %32 to i64
  %36 = ptrtoint i8* %22 to i64
  %37 = sub i64 %35, %36
  %38 = select i1 %34, i64 0, i64 %37
  store i64 %38, i64* %33, align 8
  %39 = load i8*, i8** %13, align 8
  %40 = getelementptr inbounds i8, i8* %39, i64 %12
  %41 = getelementptr inbounds i8, i8* %40, i64 16
  %42 = bitcast i8* %41 to i32*
  store i32 %2, i32* %42, align 4
  %43 = getelementptr inbounds %"class.absl::optional.146", %"class.absl::optional.146"* %3, i64 0, i32 0, i32 0, i32 0, i32 0
  %44 = load i8, i8* %43, align 8, !range !2
  %45 = icmp eq i8 %44, 0
  br i1 %45, label %46, label %51

46:                                               ; preds = %31
  %47 = load i8*, i8** %13, align 8
  %48 = getelementptr inbounds i8, i8* %47, i64 %12
  %49 = getelementptr inbounds i8, i8* %48, i64 24
  %50 = bitcast i8* %49 to %"struct.mojo::internal::Pointer.153"*
  br label %89

51:                                               ; preds = %31
  %52 = ptrtoint %"class.mojo::Message"* %7 to i64
  %53 = call i64 @_ZN4mojo8internal6Buffer8AllocateEm(%"class.mojo::internal::Buffer"* %11, i64 16) #13
  %54 = load i8*, i8** %13, align 8
  %55 = getelementptr inbounds i8, i8* %54, i64 %53
  %56 = bitcast i8* %55 to %"class.bluetooth::mojom::internal::UUID_Data"*
  call void @_ZN9bluetooth5mojom8internal9UUID_DataC1Ev(%"class.bluetooth::mojom::internal::UUID_Data"* %56) #13
  %57 = getelementptr inbounds %"class.absl::optional.146", %"class.absl::optional.146"* %3, i64 0, i32 0, i32 0, i32 0, i32 1, i32 0, i32 2
  %58 = bitcast %"class.mojo::internal::MessageFragment.157"* %6 to i8*
  call void @llvm.lifetime.start.p0i8(i64 16, i8* nonnull %58) #13
  %59 = getelementptr inbounds %"class.mojo::internal::MessageFragment.157", %"class.mojo::internal::MessageFragment.157"* %6, i64 0, i32 1
  %60 = bitcast %"class.mojo::internal::MessageFragment.157"* %6 to i64*
  store i64 %52, i64* %60, align 8
  store i64 -1, i64* %59, align 8
  call void @_ZN4mojo8internal10SerializerINS_14StringDataViewEKNSt3__112basic_stringIcNS3_11char_traitsIcEENS3_9allocatorIcEEEEE9SerializeERSA_RNS0_15MessageFragmentINS0_10Array_DataIcEEEE(%"class.std::__1::basic_string"* dereferenceable(24) %57, %"class.mojo::internal::MessageFragment.157"* nonnull dereferenceable(16) %6) #13
  %61 = load i8*, i8** %13, align 8
  %62 = getelementptr inbounds i8, i8* %61, i64 %53
  %63 = getelementptr inbounds i8, i8* %62, i64 8
  %64 = load i64, i64* %59, align 8
  %65 = icmp eq i64 %64, -1
  br i1 %65, label %73, label %66

66:                                               ; preds = %51
  %67 = getelementptr inbounds %"class.mojo::internal::MessageFragment.157", %"class.mojo::internal::MessageFragment.157"* %6, i64 0, i32 0
  %68 = load %"class.mojo::Message"*, %"class.mojo::Message"** %67, align 8
  %69 = getelementptr inbounds %"class.mojo::Message", %"class.mojo::Message"* %68, i64 0, i32 1, i32 2
  %70 = load i8*, i8** %69, align 8
  %71 = getelementptr inbounds i8, i8* %70, i64 %64
  %72 = bitcast i8* %71 to %"class.mojo::internal::Array_Data"*
  br label %73

73:                                               ; preds = %51, %66
  %74 = phi %"class.mojo::internal::Array_Data"* [ %72, %66 ], [ null, %51 ]
  %75 = bitcast i8* %63 to i64*
  %76 = icmp eq %"class.mojo::internal::Array_Data"* %74, null
  %77 = ptrtoint %"class.mojo::internal::Array_Data"* %74 to i64
  %78 = ptrtoint i8* %63 to i64
  %79 = sub i64 %77, %78
  %80 = select i1 %76, i64 0, i64 %79
  store i64 %80, i64* %75, align 8
  call void @llvm.lifetime.end.p0i8(i64 16, i8* nonnull %58) #13
  %81 = load i8*, i8** %13, align 8
  %82 = getelementptr inbounds i8, i8* %81, i64 %12
  %83 = getelementptr inbounds i8, i8* %82, i64 24
  %84 = bitcast i8* %83 to %"struct.mojo::internal::Pointer.153"*
  %85 = icmp eq i64 %53, -1
  br i1 %85, label %89, label %86

86:                                               ; preds = %73
  %87 = getelementptr inbounds i8, i8* %81, i64 %53
  %88 = bitcast i8* %87 to %"class.bluetooth::mojom::internal::UUID_Data"*
  br label %89

89:                                               ; preds = %86, %73, %46
  %90 = phi %"struct.mojo::internal::Pointer.153"* [ %84, %86 ], [ %84, %73 ], [ %50, %46 ]
  %91 = phi %"class.bluetooth::mojom::internal::UUID_Data"* [ %88, %86 ], [ null, %73 ], [ null, %46 ]
  %92 = getelementptr inbounds %"struct.mojo::internal::Pointer.153", %"struct.mojo::internal::Pointer.153"* %90, i64 0, i32 0
  %93 = icmp eq %"class.bluetooth::mojom::internal::UUID_Data"* %91, null
  %94 = ptrtoint %"class.bluetooth::mojom::internal::UUID_Data"* %91 to i64
  %95 = ptrtoint %"struct.mojo::internal::Pointer.153"* %90 to i64
  %96 = sub i64 %94, %95
  %97 = select i1 %93, i64 0, i64 %96
  store i64 %97, i64* %92, align 8
  %98 = call i8* @_Znwm(i64 16) #14
  %99 = getelementptr inbounds %"class.base::OnceCallback.169", %"class.base::OnceCallback.169"* %4, i64 0, i32 0, i32 0, i32 0
  %100 = bitcast %"class.base::OnceCallback.169"* %4 to i64*
  %101 = load i64, i64* %100, align 8
  store %"class.base::internal::BindStateBase"* null, %"class.base::internal::BindStateBase"** %99, align 8
  %102 = bitcast i8* %98 to i32 (...)***
  store i32 (...)** bitcast (i8** getelementptr inbounds ({ [6 x i8*] }, { [6 x i8*] }* @_ZTVN5blink5mojom72WebBluetoothService_RemoteCharacteristicGetDescriptors_ForwardToCallbackE, i64 0, inrange i32 0, i64 2) to i32 (...)**), i32 (...)*** %102, align 8
  %103 = getelementptr inbounds i8, i8* %98, i64 8
  %104 = getelementptr inbounds %"class.base::OnceCallback.169", %"class.base::OnceCallback.169"* %9, i64 0, i32 0, i32 0, i32 0
  %105 = bitcast i8* %103 to i64*
  store i64 %101, i64* %105, align 8
  store %"class.base::internal::BindStateBase"* null, %"class.base::internal::BindStateBase"** %104, align 8
  %106 = bitcast i8* %98 to %"class.mojo::MessageReceiver"*
  %107 = getelementptr inbounds %"class.base::OnceCallback.169", %"class.base::OnceCallback.169"* %9, i64 0, i32 0
  call void @_ZN4base8internal12CallbackBaseD2Ev(%"class.base::internal::CallbackBase"* nonnull %107) #13
  %108 = getelementptr inbounds %"class.blink::mojom::WebBluetoothServiceProxy", %"class.blink::mojom::WebBluetoothServiceProxy"* %0, i64 0, i32 1
  %109 = load %"class.mojo::MessageReceiverWithResponder"*, %"class.mojo::MessageReceiverWithResponder"** %108, align 8
  %110 = bitcast %"class.mojo::MessageReceiverWithResponder"* %109 to i1 (%"class.mojo::MessageReceiverWithResponder"*, %"class.mojo::Message"*, %"class.mojo::MessageReceiver"*)***
  %111 = load i1 (%"class.mojo::MessageReceiverWithResponder"*, %"class.mojo::Message"*, %"class.mojo::MessageReceiver"*)**, i1 (%"class.mojo::MessageReceiverWithResponder"*, %"class.mojo::Message"*, %"class.mojo::MessageReceiver"*)*** %110, align 8
  %112 = getelementptr inbounds i1 (%"class.mojo::MessageReceiverWithResponder"*, %"class.mojo::Message"*, %"class.mojo::MessageReceiver"*)*, i1 (%"class.mojo::MessageReceiverWithResponder"*, %"class.mojo::Message"*, %"class.mojo::MessageReceiver"*)** %111, i64 4
  %113 = load i1 (%"class.mojo::MessageReceiverWithResponder"*, %"class.mojo::Message"*, %"class.mojo::MessageReceiver"*)*, i1 (%"class.mojo::MessageReceiverWithResponder"*, %"class.mojo::Message"*, %"class.mojo::MessageReceiver"*)** %112, align 8
  %114 = call zeroext i1 %113(%"class.mojo::MessageReceiverWithResponder"* %109, %"class.mojo::Message"* nonnull %7, %"class.mojo::MessageReceiver"* nonnull %106) #13
  call void @llvm.lifetime.end.p0i8(i64 16, i8* nonnull %17) #13
  call void @_ZN4mojo7MessageD1Ev(%"class.mojo::Message"* nonnull %7) #13
  call void @llvm.lifetime.end.p0i8(i64 120, i8* nonnull %10) #13
  ret void
}

; Function Attrs: nounwind ssp uwtable
define hidden void @_ZN5blink5mojom24WebBluetoothServiceProxy25RemoteDescriptorReadValueERKNSt3__112basic_stringIcNS2_11char_traitsIcEENS2_9allocatorIcEEEEN4base12OnceCallbackIFvNS0_18WebBluetoothResultERKN4absl8optionalINS2_6vectorIhNS6_IhEEEEEEEEE(%"class.blink::mojom::WebBluetoothServiceProxy"* nocapture readonly, %"class.std::__1::basic_string"* dereferenceable(24), %"class.base::OnceCallback.158"* nocapture) unnamed_addr #0 align 2 {
  %4 = alloca %"class.mojo::Message", align 8
  %5 = alloca %"class.mojo::internal::MessageFragment.157", align 8
  %6 = alloca %"class.base::OnceCallback.158", align 8
  %7 = bitcast %"class.mojo::Message"* %4 to i8*
  call void @llvm.lifetime.start.p0i8(i64 120, i8* nonnull %7) #13
  call void @llvm.memset.p0i8.i64(i8* nonnull align 8 %7, i8 -86, i64 120, i1 false)
  call void @_ZN4mojo7MessageC1EjjmmPNSt3__16vectorINS_16ScopedHandleBaseINS_6HandleEEENS1_9allocatorIS5_EEEE(%"class.mojo::Message"* nonnull %4, i32 1388517646, i32 1, i64 0, i64 0, %"class.std::__1::vector.37"* null) #13
  %8 = getelementptr inbounds %"class.mojo::Message", %"class.mojo::Message"* %4, i64 0, i32 1
  %9 = call i64 @_ZN4mojo8internal6Buffer8AllocateEm(%"class.mojo::internal::Buffer"* %8, i64 16) #13
  %10 = getelementptr inbounds %"class.mojo::Message", %"class.mojo::Message"* %4, i64 0, i32 1, i32 2
  %11 = load i8*, i8** %10, align 8
  %12 = getelementptr inbounds i8, i8* %11, i64 %9
  %13 = bitcast i8* %12 to %"class.blink::mojom::internal::WebBluetoothService_RemoteDescriptorReadValue_Params_Data"*
  call void @_ZN5blink5mojom8internal57WebBluetoothService_RemoteDescriptorReadValue_Params_DataC1Ev(%"class.blink::mojom::internal::WebBluetoothService_RemoteDescriptorReadValue_Params_Data"* %13) #13
  %14 = bitcast %"class.mojo::internal::MessageFragment.157"* %5 to i8*
  call void @llvm.lifetime.start.p0i8(i64 16, i8* nonnull %14) #13
  %15 = getelementptr inbounds %"class.mojo::internal::MessageFragment.157", %"class.mojo::internal::MessageFragment.157"* %5, i64 0, i32 0
  %16 = getelementptr inbounds %"class.mojo::internal::MessageFragment.157", %"class.mojo::internal::MessageFragment.157"* %5, i64 0, i32 1
  store %"class.mojo::Message"* %4, %"class.mojo::Message"** %15, align 8
  store i64 -1, i64* %16, align 8
  call void @_ZN4mojo8internal10SerializerINS_14StringDataViewEKNSt3__112basic_stringIcNS3_11char_traitsIcEENS3_9allocatorIcEEEEE9SerializeERSA_RNS0_15MessageFragmentINS0_10Array_DataIcEEEE(%"class.std::__1::basic_string"* dereferenceable(24) %1, %"class.mojo::internal::MessageFragment.157"* nonnull dereferenceable(16) %5) #13
  %17 = load i8*, i8** %10, align 8
  %18 = getelementptr inbounds i8, i8* %17, i64 %9
  %19 = getelementptr inbounds i8, i8* %18, i64 8
  %20 = load i64, i64* %16, align 8
  %21 = icmp eq i64 %20, -1
  br i1 %21, label %28, label %22

22:                                               ; preds = %3
  %23 = load %"class.mojo::Message"*, %"class.mojo::Message"** %15, align 8
  %24 = getelementptr inbounds %"class.mojo::Message", %"class.mojo::Message"* %23, i64 0, i32 1, i32 2
  %25 = load i8*, i8** %24, align 8
  %26 = getelementptr inbounds i8, i8* %25, i64 %20
  %27 = bitcast i8* %26 to %"class.mojo::internal::Array_Data"*
  br label %28

28:                                               ; preds = %22, %3
  %29 = phi %"class.mojo::internal::Array_Data"* [ %27, %22 ], [ null, %3 ]
  %30 = bitcast i8* %19 to i64*
  %31 = icmp eq %"class.mojo::internal::Array_Data"* %29, null
  %32 = ptrtoint %"class.mojo::internal::Array_Data"* %29 to i64
  %33 = ptrtoint i8* %19 to i64
  %34 = sub i64 %32, %33
  %35 = select i1 %31, i64 0, i64 %34
  store i64 %35, i64* %30, align 8
  %36 = call i8* @_Znwm(i64 16) #14
  %37 = getelementptr inbounds %"class.base::OnceCallback.158", %"class.base::OnceCallback.158"* %2, i64 0, i32 0, i32 0, i32 0
  %38 = bitcast %"class.base::OnceCallback.158"* %2 to i64*
  %39 = load i64, i64* %38, align 8
  store %"class.base::internal::BindStateBase"* null, %"class.base::internal::BindStateBase"** %37, align 8
  %40 = bitcast i8* %36 to i32 (...)***
  store i32 (...)** bitcast (i8** getelementptr inbounds ({ [6 x i8*] }, { [6 x i8*] }* @_ZTVN5blink5mojom63WebBluetoothService_RemoteDescriptorReadValue_ForwardToCallbackE, i64 0, inrange i32 0, i64 2) to i32 (...)**), i32 (...)*** %40, align 8
  %41 = getelementptr inbounds i8, i8* %36, i64 8
  %42 = getelementptr inbounds %"class.base::OnceCallback.158", %"class.base::OnceCallback.158"* %6, i64 0, i32 0, i32 0, i32 0
  %43 = bitcast i8* %41 to i64*
  store i64 %39, i64* %43, align 8
  store %"class.base::internal::BindStateBase"* null, %"class.base::internal::BindStateBase"** %42, align 8
  %44 = bitcast i8* %36 to %"class.mojo::MessageReceiver"*
  %45 = getelementptr inbounds %"class.base::OnceCallback.158", %"class.base::OnceCallback.158"* %6, i64 0, i32 0
  call void @_ZN4base8internal12CallbackBaseD2Ev(%"class.base::internal::CallbackBase"* nonnull %45) #13
  %46 = getelementptr inbounds %"class.blink::mojom::WebBluetoothServiceProxy", %"class.blink::mojom::WebBluetoothServiceProxy"* %0, i64 0, i32 1
  %47 = load %"class.mojo::MessageReceiverWithResponder"*, %"class.mojo::MessageReceiverWithResponder"** %46, align 8
  %48 = bitcast %"class.mojo::MessageReceiverWithResponder"* %47 to i1 (%"class.mojo::MessageReceiverWithResponder"*, %"class.mojo::Message"*, %"class.mojo::MessageReceiver"*)***
  %49 = load i1 (%"class.mojo::MessageReceiverWithResponder"*, %"class.mojo::Message"*, %"class.mojo::MessageReceiver"*)**, i1 (%"class.mojo::MessageReceiverWithResponder"*, %"class.mojo::Message"*, %"class.mojo::MessageReceiver"*)*** %48, align 8
  %50 = getelementptr inbounds i1 (%"class.mojo::MessageReceiverWithResponder"*, %"class.mojo::Message"*, %"class.mojo::MessageReceiver"*)*, i1 (%"class.mojo::MessageReceiverWithResponder"*, %"class.mojo::Message"*, %"class.mojo::MessageReceiver"*)** %49, i64 4
  %51 = load i1 (%"class.mojo::MessageReceiverWithResponder"*, %"class.mojo::Message"*, %"class.mojo::MessageReceiver"*)*, i1 (%"class.mojo::MessageReceiverWithResponder"*, %"class.mojo::Message"*, %"class.mojo::MessageReceiver"*)** %50, align 8
  %52 = call zeroext i1 %51(%"class.mojo::MessageReceiverWithResponder"* %47, %"class.mojo::Message"* nonnull %4, %"class.mojo::MessageReceiver"* nonnull %44) #13
  call void @llvm.lifetime.end.p0i8(i64 16, i8* nonnull %14) #13
  call void @_ZN4mojo7MessageD1Ev(%"class.mojo::Message"* nonnull %4) #13
  call void @llvm.lifetime.end.p0i8(i64 120, i8* nonnull %7) #13
  ret void
}

; Function Attrs: nounwind ssp uwtable
define hidden void @_ZN5blink5mojom24WebBluetoothServiceProxy26RemoteDescriptorWriteValueERKNSt3__112basic_stringIcNS2_11char_traitsIcEENS2_9allocatorIcEEEERKNS2_6vectorIhNS6_IhEEEEN4base12OnceCallbackIFvNS0_18WebBluetoothResultEEEE(%"class.blink::mojom::WebBluetoothServiceProxy"* nocapture readonly, %"class.std::__1::basic_string"* dereferenceable(24), %"class.std::__1::vector.97"* nocapture readonly dereferenceable(24), %"class.base::OnceCallback.140"* nocapture) unnamed_addr #0 align 2 {
  %5 = alloca %"class.mojo::Message", align 8
  %6 = alloca %"class.mojo::internal::MessageFragment.157", align 8
  %7 = alloca %"class.mojo::internal::ContainerValidateParams", align 8
  %8 = alloca %"class.base::OnceCallback.140", align 8
  %9 = bitcast %"class.mojo::Message"* %5 to i8*
  call void @llvm.lifetime.start.p0i8(i64 120, i8* nonnull %9) #13
  call void @llvm.memset.p0i8.i64(i8* nonnull align 8 %9, i8 -86, i64 120, i1 false)
  call void @_ZN4mojo7MessageC1EjjmmPNSt3__16vectorINS_16ScopedHandleBaseINS_6HandleEEENS1_9allocatorIS5_EEEE(%"class.mojo::Message"* nonnull %5, i32 2004041849, i32 1, i64 0, i64 0, %"class.std::__1::vector.37"* null) #13
  %10 = getelementptr inbounds %"class.mojo::Message", %"class.mojo::Message"* %5, i64 0, i32 1
  %11 = call i64 @_ZN4mojo8internal6Buffer8AllocateEm(%"class.mojo::internal::Buffer"* %10, i64 24) #13
  %12 = getelementptr inbounds %"class.mojo::Message", %"class.mojo::Message"* %5, i64 0, i32 1, i32 2
  %13 = load i8*, i8** %12, align 8
  %14 = getelementptr inbounds i8, i8* %13, i64 %11
  %15 = bitcast i8* %14 to %"class.blink::mojom::internal::WebBluetoothService_RemoteDescriptorWriteValue_Params_Data"*
  call void @_ZN5blink5mojom8internal58WebBluetoothService_RemoteDescriptorWriteValue_Params_DataC1Ev(%"class.blink::mojom::internal::WebBluetoothService_RemoteDescriptorWriteValue_Params_Data"* %15) #13
  %16 = bitcast %"class.mojo::internal::MessageFragment.157"* %6 to i8*
  call void @llvm.lifetime.start.p0i8(i64 16, i8* nonnull %16) #13
  %17 = getelementptr inbounds %"class.mojo::internal::MessageFragment.157", %"class.mojo::internal::MessageFragment.157"* %6, i64 0, i32 0
  %18 = getelementptr inbounds %"class.mojo::internal::MessageFragment.157", %"class.mojo::internal::MessageFragment.157"* %6, i64 0, i32 1
  store %"class.mojo::Message"* %5, %"class.mojo::Message"** %17, align 8
  store i64 -1, i64* %18, align 8
  call void @_ZN4mojo8internal10SerializerINS_14StringDataViewEKNSt3__112basic_stringIcNS3_11char_traitsIcEENS3_9allocatorIcEEEEE9SerializeERSA_RNS0_15MessageFragmentINS0_10Array_DataIcEEEE(%"class.std::__1::basic_string"* dereferenceable(24) %1, %"class.mojo::internal::MessageFragment.157"* nonnull dereferenceable(16) %6) #13
  %19 = load i8*, i8** %12, align 8
  %20 = getelementptr inbounds i8, i8* %19, i64 %11
  %21 = getelementptr inbounds i8, i8* %20, i64 8
  %22 = load i64, i64* %18, align 8
  %23 = icmp eq i64 %22, -1
  br i1 %23, label %30, label %24

24:                                               ; preds = %4
  %25 = load %"class.mojo::Message"*, %"class.mojo::Message"** %17, align 8
  %26 = getelementptr inbounds %"class.mojo::Message", %"class.mojo::Message"* %25, i64 0, i32 1, i32 2
  %27 = load i8*, i8** %26, align 8
  %28 = getelementptr inbounds i8, i8* %27, i64 %22
  %29 = bitcast i8* %28 to %"class.mojo::internal::Array_Data"*
  br label %30

30:                                               ; preds = %4, %24
  %31 = phi %"class.mojo::internal::Array_Data"* [ %29, %24 ], [ null, %4 ]
  %32 = bitcast i8* %21 to i64*
  %33 = icmp eq %"class.mojo::internal::Array_Data"* %31, null
  %34 = ptrtoint %"class.mojo::internal::Array_Data"* %31 to i64
  %35 = ptrtoint i8* %21 to i64
  %36 = sub i64 %34, %35
  %37 = select i1 %33, i64 0, i64 %36
  store i64 %37, i64* %32, align 8
  %38 = bitcast %"class.mojo::internal::ContainerValidateParams"* %7 to i8*
  call void @llvm.lifetime.start.p0i8(i64 32, i8* nonnull %38) #13
  %39 = bitcast %"class.mojo::internal::ContainerValidateParams"* %7 to i64*
  store i64 -6148914691236517206, i64* %39, align 8
  %40 = getelementptr inbounds %"class.mojo::internal::ContainerValidateParams", %"class.mojo::internal::ContainerValidateParams"* %7, i64 0, i32 0
  store i32 0, i32* %40, align 8
  %41 = getelementptr inbounds %"class.mojo::internal::ContainerValidateParams", %"class.mojo::internal::ContainerValidateParams"* %7, i64 0, i32 1
  store i8 0, i8* %41, align 4
  %42 = getelementptr inbounds %"class.mojo::internal::ContainerValidateParams", %"class.mojo::internal::ContainerValidateParams"* %7, i64 0, i32 2
  %43 = getelementptr inbounds %"class.std::__1::vector.97", %"class.std::__1::vector.97"* %2, i64 0, i32 0, i32 1
  %44 = bitcast i8** %43 to i64*
  %45 = bitcast %"class.mojo::internal::ContainerValidateParams"** %42 to i8*
  call void @llvm.memset.p0i8.i64(i8* align 8 %45, i8 0, i64 24, i1 false)
  %46 = load i64, i64* %44, align 8
  %47 = bitcast %"class.std::__1::vector.97"* %2 to i64*
  %48 = load i64, i64* %47, align 8
  %49 = sub i64 %46, %48
  %50 = icmp ugt i64 %49, 4294967287
  br i1 %50, label %65, label %51

51:                                               ; preds = %30
  %52 = trunc i64 %49 to i32
  %53 = add nuw i32 %52, 8
  %54 = zext i32 %53 to i64
  %55 = call i64 @_ZN4mojo8internal6Buffer8AllocateEm(%"class.mojo::internal::Buffer"* %10, i64 %54) #13
  %56 = load i8*, i8** %12, align 8
  %57 = getelementptr inbounds i8, i8* %56, i64 %55
  %58 = bitcast i8* %57 to i32*
  store i32 %53, i32* %58, align 1
  %59 = getelementptr inbounds i8, i8* %57, i64 4
  %60 = bitcast i8* %59 to i32*
  store i32 %52, i32* %60, align 1
  %61 = load i64, i64* %47, align 8
  %62 = load i64, i64* %44, align 8
  %63 = sub i64 %62, %61
  %64 = icmp eq i64 %63, 0
  br i1 %64, label %124, label %65

65:                                               ; preds = %51, %30
  %66 = phi i64 [ -1, %30 ], [ %55, %51 ]
  %67 = phi i64 [ %48, %30 ], [ %61, %51 ]
  %68 = phi i64 [ %49, %30 ], [ %63, %51 ]
  %69 = inttoptr i64 %67 to i8*
  %70 = load i8*, i8** %12, align 8
  %71 = getelementptr inbounds i8, i8* %70, i64 %66
  %72 = icmp eq i64 %67, 0
  %73 = getelementptr inbounds i8, i8* %71, i64 8
  br i1 %72, label %74, label %85

74:                                               ; preds = %65
  %75 = getelementptr inbounds %"class.std::__1::vector.97", %"class.std::__1::vector.97"* %2, i64 0, i32 0, i32 0
  %76 = load i8, i8* %69, align 1
  store i8 %76, i8* %73, align 1
  %77 = icmp eq i64 %68, 1
  br i1 %77, label %124, label %78

78:                                               ; preds = %74
  %79 = add i64 %68, -1
  %80 = add i64 %68, -2
  %81 = and i64 %79, 3
  %82 = icmp ult i64 %80, 3
  br i1 %82, label %111, label %83

83:                                               ; preds = %78
  %84 = sub i64 %79, %81
  br label %86

85:                                               ; preds = %65
  call void @llvm.memcpy.p0i8.p0i8.i64(i8* align 1 %73, i8* nonnull align 1 %69, i64 %68, i1 false) #13
  br label %124

86:                                               ; preds = %86, %83
  %87 = phi i64 [ 1, %83 ], [ %105, %86 ]
  %88 = phi i64 [ %84, %83 ], [ %109, %86 ]
  %89 = load i8*, i8** %75, align 8
  %90 = add nuw nsw i64 %87, 1
  %91 = getelementptr inbounds i8, i8* %89, i64 %87
  %92 = load i8, i8* %91, align 1
  %93 = getelementptr inbounds i8, i8* %73, i64 %87
  store i8 %92, i8* %93, align 1
  %94 = load i8*, i8** %75, align 8
  %95 = add nuw nsw i64 %87, 2
  %96 = getelementptr inbounds i8, i8* %94, i64 %90
  %97 = load i8, i8* %96, align 1
  %98 = getelementptr inbounds i8, i8* %73, i64 %90
  store i8 %97, i8* %98, align 1
  %99 = load i8*, i8** %75, align 8
  %100 = add nuw i64 %87, 3
  %101 = getelementptr inbounds i8, i8* %99, i64 %95
  %102 = load i8, i8* %101, align 1
  %103 = getelementptr inbounds i8, i8* %73, i64 %95
  store i8 %102, i8* %103, align 1
  %104 = load i8*, i8** %75, align 8
  %105 = add nuw i64 %87, 4
  %106 = getelementptr inbounds i8, i8* %104, i64 %100
  %107 = load i8, i8* %106, align 1
  %108 = getelementptr inbounds i8, i8* %73, i64 %100
  store i8 %107, i8* %108, align 1
  %109 = add i64 %88, -4
  %110 = icmp eq i64 %109, 0
  br i1 %110, label %111, label %86

111:                                              ; preds = %86, %78
  %112 = phi i64 [ 1, %78 ], [ %105, %86 ]
  %113 = icmp eq i64 %81, 0
  br i1 %113, label %124, label %114

114:                                              ; preds = %111, %114
  %115 = phi i64 [ %118, %114 ], [ %112, %111 ]
  %116 = phi i64 [ %122, %114 ], [ %81, %111 ]
  %117 = load i8*, i8** %75, align 8
  %118 = add nuw i64 %115, 1
  %119 = getelementptr inbounds i8, i8* %117, i64 %115
  %120 = load i8, i8* %119, align 1
  %121 = getelementptr inbounds i8, i8* %73, i64 %115
  store i8 %120, i8* %121, align 1
  %122 = add i64 %116, -1
  %123 = icmp eq i64 %122, 0
  br i1 %123, label %124, label %114, !llvm.loop !5

124:                                              ; preds = %111, %114, %51, %74, %85
  %125 = phi i64 [ %66, %74 ], [ %66, %85 ], [ %55, %51 ], [ %66, %114 ], [ %66, %111 ]
  %126 = load i8*, i8** %12, align 8
  %127 = getelementptr inbounds i8, i8* %126, i64 %11
  %128 = getelementptr inbounds i8, i8* %127, i64 16
  %129 = icmp eq i64 %125, -1
  %130 = getelementptr inbounds i8, i8* %126, i64 %125
  %131 = bitcast i8* %130 to %"class.mojo::internal::Array_Data.163"*
  %132 = select i1 %129, %"class.mojo::internal::Array_Data.163"* null, %"class.mojo::internal::Array_Data.163"* %131
  %133 = bitcast i8* %128 to i64*
  %134 = icmp eq %"class.mojo::internal::Array_Data.163"* %132, null
  %135 = ptrtoint %"class.mojo::internal::Array_Data.163"* %132 to i64
  %136 = ptrtoint i8* %128 to i64
  %137 = sub i64 %135, %136
  %138 = select i1 %134, i64 0, i64 %137
  store i64 %138, i64* %133, align 8
  %139 = call i8* @_Znwm(i64 16) #14
  %140 = getelementptr inbounds %"class.base::OnceCallback.140", %"class.base::OnceCallback.140"* %3, i64 0, i32 0, i32 0, i32 0
  %141 = bitcast %"class.base::OnceCallback.140"* %3 to i64*
  %142 = load i64, i64* %141, align 8
  store %"class.base::internal::BindStateBase"* null, %"class.base::internal::BindStateBase"** %140, align 8
  %143 = bitcast i8* %139 to i32 (...)***
  store i32 (...)** bitcast (i8** getelementptr inbounds ({ [6 x i8*] }, { [6 x i8*] }* @_ZTVN5blink5mojom64WebBluetoothService_RemoteDescriptorWriteValue_ForwardToCallbackE, i64 0, inrange i32 0, i64 2) to i32 (...)**), i32 (...)*** %143, align 8
  %144 = getelementptr inbounds i8, i8* %139, i64 8
  %145 = getelementptr inbounds %"class.base::OnceCallback.140", %"class.base::OnceCallback.140"* %8, i64 0, i32 0, i32 0, i32 0
  %146 = bitcast i8* %144 to i64*
  store i64 %142, i64* %146, align 8
  store %"class.base::internal::BindStateBase"* null, %"class.base::internal::BindStateBase"** %145, align 8
  %147 = bitcast i8* %139 to %"class.mojo::MessageReceiver"*
  %148 = getelementptr inbounds %"class.base::OnceCallback.140", %"class.base::OnceCallback.140"* %8, i64 0, i32 0
  call void @_ZN4base8internal12CallbackBaseD2Ev(%"class.base::internal::CallbackBase"* nonnull %148) #13
  %149 = getelementptr inbounds %"class.blink::mojom::WebBluetoothServiceProxy", %"class.blink::mojom::WebBluetoothServiceProxy"* %0, i64 0, i32 1
  %150 = load %"class.mojo::MessageReceiverWithResponder"*, %"class.mojo::MessageReceiverWithResponder"** %149, align 8
  %151 = bitcast %"class.mojo::MessageReceiverWithResponder"* %150 to i1 (%"class.mojo::MessageReceiverWithResponder"*, %"class.mojo::Message"*, %"class.mojo::MessageReceiver"*)***
  %152 = load i1 (%"class.mojo::MessageReceiverWithResponder"*, %"class.mojo::Message"*, %"class.mojo::MessageReceiver"*)**, i1 (%"class.mojo::MessageReceiverWithResponder"*, %"class.mojo::Message"*, %"class.mojo::MessageReceiver"*)*** %151, align 8
  %153 = getelementptr inbounds i1 (%"class.mojo::MessageReceiverWithResponder"*, %"class.mojo::Message"*, %"class.mojo::MessageReceiver"*)*, i1 (%"class.mojo::MessageReceiverWithResponder"*, %"class.mojo::Message"*, %"class.mojo::MessageReceiver"*)** %152, i64 4
  %154 = load i1 (%"class.mojo::MessageReceiverWithResponder"*, %"class.mojo::Message"*, %"class.mojo::MessageReceiver"*)*, i1 (%"class.mojo::MessageReceiverWithResponder"*, %"class.mojo::Message"*, %"class.mojo::MessageReceiver"*)** %153, align 8
  %155 = call zeroext i1 %154(%"class.mojo::MessageReceiverWithResponder"* %150, %"class.mojo::Message"* nonnull %5, %"class.mojo::MessageReceiver"* nonnull %147) #13
  call void @_ZN4mojo8internal23ContainerValidateParamsD2Ev(%"class.mojo::internal::ContainerValidateParams"* nonnull %7) #13
  call void @llvm.lifetime.end.p0i8(i64 32, i8* nonnull %38) #13
  call void @llvm.lifetime.end.p0i8(i64 16, i8* nonnull %16) #13
  call void @_ZN4mojo7MessageD1Ev(%"class.mojo::Message"* nonnull %5) #13
  call void @llvm.lifetime.end.p0i8(i64 120, i8* nonnull %9) #13
  ret void
}

; Function Attrs: nounwind ssp uwtable
define hidden void @_ZN5blink5mojom24WebBluetoothServiceProxy20RequestScanningStartEN4mojo23PendingAssociatedRemoteINS0_31WebBluetoothAdvertisementClientEEENS2_9StructPtrINS0_32WebBluetoothRequestLEScanOptionsEEEN4base12OnceCallbackIFvNS0_18WebBluetoothResultEEEE(%"class.blink::mojom::WebBluetoothServiceProxy"* nocapture readonly, %"class.mojo::PendingAssociatedRemote.173"*, %"class.mojo::StructPtr.175"*, %"class.base::OnceCallback.140"* nocapture) unnamed_addr #0 align 2 {
  %5 = alloca %"class.mojo::ScopedInterfaceEndpointHandle", align 8
  %6 = alloca %"class.mojo::Message", align 8
  %7 = alloca %"class.mojo::internal::MessageFragment.184", align 8
  %8 = alloca %"class.base::OnceCallback.140", align 8
  %9 = bitcast %"class.mojo::Message"* %6 to i8*
  call void @llvm.lifetime.start.p0i8(i64 120, i8* nonnull %9) #13
  call void @llvm.memset.p0i8.i64(i8* nonnull align 8 %9, i8 -86, i64 120, i1 false)
  call void @_ZN4mojo7MessageC1EjjmmPNSt3__16vectorINS_16ScopedHandleBaseINS_6HandleEEENS1_9allocatorIS5_EEEE(%"class.mojo::Message"* nonnull %6, i32 942878455, i32 1, i64 0, i64 0, %"class.std::__1::vector.37"* null) #13
  %10 = getelementptr inbounds %"class.mojo::Message", %"class.mojo::Message"* %6, i64 0, i32 1
  %11 = call i64 @_ZN4mojo8internal6Buffer8AllocateEm(%"class.mojo::internal::Buffer"* %10, i64 24) #13
  %12 = getelementptr inbounds %"class.mojo::Message", %"class.mojo::Message"* %6, i64 0, i32 1, i32 2
  %13 = load i8*, i8** %12, align 8
  %14 = getelementptr inbounds i8, i8* %13, i64 %11
  %15 = bitcast i8* %14 to %"class.blink::mojom::internal::WebBluetoothService_RequestScanningStart_Params_Data"*
  call void @_ZN5blink5mojom8internal52WebBluetoothService_RequestScanningStart_Params_DataC1Ev(%"class.blink::mojom::internal::WebBluetoothService_RequestScanningStart_Params_Data"* %15) #13
  %16 = load i8*, i8** %12, align 8
  %17 = getelementptr inbounds i8, i8* %16, i64 %11
  %18 = getelementptr inbounds i8, i8* %17, i64 8
  %19 = bitcast i8* %18 to %"struct.mojo::internal::AssociatedInterface_Data"*
  %20 = bitcast %"class.mojo::ScopedInterfaceEndpointHandle"* %5 to i8*
  call void @llvm.lifetime.start.p0i8(i64 8, i8* nonnull %20) #13
  %21 = getelementptr inbounds %"class.mojo::PendingAssociatedRemote.173", %"class.mojo::PendingAssociatedRemote.173"* %1, i64 0, i32 0
  call void @_ZN4mojo29ScopedInterfaceEndpointHandleC1EOS0_(%"class.mojo::ScopedInterfaceEndpointHandle"* nonnull %5, %"class.mojo::ScopedInterfaceEndpointHandle"* dereferenceable(8) %21) #13
  %22 = getelementptr inbounds %"class.mojo::PendingAssociatedRemote.173", %"class.mojo::PendingAssociatedRemote.173"* %1, i64 0, i32 1
  %23 = load i32, i32* %22, align 8
  call void @_ZN4mojo8internal32SerializeAssociatedInterfaceInfoENS_29ScopedInterfaceEndpointHandleEjRNS_7MessageERNS0_24AssociatedInterface_DataE(%"class.mojo::ScopedInterfaceEndpointHandle"* nonnull %5, i32 %23, %"class.mojo::Message"* nonnull dereferenceable(120) %6, %"struct.mojo::internal::AssociatedInterface_Data"* dereferenceable(8) %19) #13
  call void @_ZN4mojo29ScopedInterfaceEndpointHandleD1Ev(%"class.mojo::ScopedInterfaceEndpointHandle"* nonnull %5) #13
  call void @llvm.lifetime.end.p0i8(i64 8, i8* nonnull %20) #13
  %24 = bitcast %"class.mojo::internal::MessageFragment.184"* %7 to i8*
  call void @llvm.lifetime.start.p0i8(i64 16, i8* nonnull %24) #13
  %25 = getelementptr inbounds %"class.mojo::internal::MessageFragment.184", %"class.mojo::internal::MessageFragment.184"* %7, i64 0, i32 0
  %26 = getelementptr inbounds %"class.mojo::internal::MessageFragment.184", %"class.mojo::internal::MessageFragment.184"* %7, i64 0, i32 1
  store %"class.mojo::Message"* %6, %"class.mojo::Message"** %25, align 8
  store i64 -1, i64* %26, align 8
  call void @_ZN4mojo8internal10SerializerIN5blink5mojom40WebBluetoothRequestLEScanOptionsDataViewENS_9StructPtrINS3_32WebBluetoothRequestLEScanOptionsEEEE9SerializeERS7_RNS0_15MessageFragmentINS3_8internal37WebBluetoothRequestLEScanOptions_DataEEE(%"class.mojo::StructPtr.175"* dereferenceable(8) %2, %"class.mojo::internal::MessageFragment.184"* nonnull dereferenceable(16) %7) #13
  %27 = load i8*, i8** %12, align 8
  %28 = getelementptr inbounds i8, i8* %27, i64 %11
  %29 = getelementptr inbounds i8, i8* %28, i64 16
  %30 = load i64, i64* %26, align 8
  %31 = icmp eq i64 %30, -1
  br i1 %31, label %38, label %32

32:                                               ; preds = %4
  %33 = load %"class.mojo::Message"*, %"class.mojo::Message"** %25, align 8
  %34 = getelementptr inbounds %"class.mojo::Message", %"class.mojo::Message"* %33, i64 0, i32 1, i32 2
  %35 = load i8*, i8** %34, align 8
  %36 = getelementptr inbounds i8, i8* %35, i64 %30
  %37 = bitcast i8* %36 to %"class.blink::mojom::internal::WebBluetoothRequestLEScanOptions_Data"*
  br label %38

38:                                               ; preds = %32, %4
  %39 = phi %"class.blink::mojom::internal::WebBluetoothRequestLEScanOptions_Data"* [ %37, %32 ], [ null, %4 ]
  %40 = bitcast i8* %29 to i64*
  %41 = icmp eq %"class.blink::mojom::internal::WebBluetoothRequestLEScanOptions_Data"* %39, null
  %42 = ptrtoint %"class.blink::mojom::internal::WebBluetoothRequestLEScanOptions_Data"* %39 to i64
  %43 = ptrtoint i8* %29 to i64
  %44 = sub i64 %42, %43
  %45 = select i1 %41, i64 0, i64 %44
  store i64 %45, i64* %40, align 8
  %46 = call i8* @_Znwm(i64 16) #14
  %47 = getelementptr inbounds %"class.base::OnceCallback.140", %"class.base::OnceCallback.140"* %3, i64 0, i32 0, i32 0, i32 0
  %48 = bitcast %"class.base::OnceCallback.140"* %3 to i64*
  %49 = load i64, i64* %48, align 8
  store %"class.base::internal::BindStateBase"* null, %"class.base::internal::BindStateBase"** %47, align 8
  %50 = bitcast i8* %46 to i32 (...)***
  store i32 (...)** bitcast (i8** getelementptr inbounds ({ [6 x i8*] }, { [6 x i8*] }* @_ZTVN5blink5mojom58WebBluetoothService_RequestScanningStart_ForwardToCallbackE, i64 0, inrange i32 0, i64 2) to i32 (...)**), i32 (...)*** %50, align 8
  %51 = getelementptr inbounds i8, i8* %46, i64 8
  %52 = getelementptr inbounds %"class.base::OnceCallback.140", %"class.base::OnceCallback.140"* %8, i64 0, i32 0, i32 0, i32 0
  %53 = bitcast i8* %51 to i64*
  store i64 %49, i64* %53, align 8
  store %"class.base::internal::BindStateBase"* null, %"class.base::internal::BindStateBase"** %52, align 8
  %54 = bitcast i8* %46 to %"class.mojo::MessageReceiver"*
  %55 = getelementptr inbounds %"class.base::OnceCallback.140", %"class.base::OnceCallback.140"* %8, i64 0, i32 0
  call void @_ZN4base8internal12CallbackBaseD2Ev(%"class.base::internal::CallbackBase"* nonnull %55) #13
  %56 = getelementptr inbounds %"class.blink::mojom::WebBluetoothServiceProxy", %"class.blink::mojom::WebBluetoothServiceProxy"* %0, i64 0, i32 1
  %57 = load %"class.mojo::MessageReceiverWithResponder"*, %"class.mojo::MessageReceiverWithResponder"** %56, align 8
  %58 = bitcast %"class.mojo::MessageReceiverWithResponder"* %57 to i1 (%"class.mojo::MessageReceiverWithResponder"*, %"class.mojo::Message"*, %"class.mojo::MessageReceiver"*)***
  %59 = load i1 (%"class.mojo::MessageReceiverWithResponder"*, %"class.mojo::Message"*, %"class.mojo::MessageReceiver"*)**, i1 (%"class.mojo::MessageReceiverWithResponder"*, %"class.mojo::Message"*, %"class.mojo::MessageReceiver"*)*** %58, align 8
  %60 = getelementptr inbounds i1 (%"class.mojo::MessageReceiverWithResponder"*, %"class.mojo::Message"*, %"class.mojo::MessageReceiver"*)*, i1 (%"class.mojo::MessageReceiverWithResponder"*, %"class.mojo::Message"*, %"class.mojo::MessageReceiver"*)** %59, i64 4
  %61 = load i1 (%"class.mojo::MessageReceiverWithResponder"*, %"class.mojo::Message"*, %"class.mojo::MessageReceiver"*)*, i1 (%"class.mojo::MessageReceiverWithResponder"*, %"class.mojo::Message"*, %"class.mojo::MessageReceiver"*)** %60, align 8
  %62 = call zeroext i1 %61(%"class.mojo::MessageReceiverWithResponder"* %57, %"class.mojo::Message"* nonnull %6, %"class.mojo::MessageReceiver"* nonnull %54) #13
  call void @llvm.lifetime.end.p0i8(i64 16, i8* nonnull %24) #13
  call void @_ZN4mojo7MessageD1Ev(%"class.mojo::Message"* nonnull %6) #13
  call void @llvm.lifetime.end.p0i8(i64 120, i8* nonnull %9) #13
  ret void
}

; Function Attrs: nounwind ssp uwtable
define hidden void @_ZN5blink5mojom24WebBluetoothServiceProxy28WatchAdvertisementsForDeviceERKNS_20WebBluetoothDeviceIdEN4mojo23PendingAssociatedRemoteINS0_31WebBluetoothAdvertisementClientEEEN4base12OnceCallbackIFvNS0_18WebBluetoothResultEEEE(%"class.blink::mojom::WebBluetoothServiceProxy"* nocapture readonly, %"class.blink::WebBluetoothDeviceId"* dereferenceable(24), %"class.mojo::PendingAssociatedRemote.173"*, %"class.base::OnceCallback.140"* nocapture) unnamed_addr #0 align 2 {
  %5 = alloca %"class.mojo::ScopedInterfaceEndpointHandle", align 8
  %6 = alloca %"class.mojo::internal::MessageFragment.157", align 8
  %7 = alloca %"class.mojo::Message", align 8
  %8 = alloca %"class.base::OnceCallback.140", align 8
  %9 = bitcast %"class.mojo::Message"* %7 to i8*
  call void @llvm.lifetime.start.p0i8(i64 120, i8* nonnull %9) #13
  call void @llvm.memset.p0i8.i64(i8* nonnull align 8 %9, i8 -86, i64 120, i1 false)
  call void @_ZN4mojo7MessageC1EjjmmPNSt3__16vectorINS_16ScopedHandleBaseINS_6HandleEEENS1_9allocatorIS5_EEEE(%"class.mojo::Message"* nonnull %7, i32 986676873, i32 1, i64 0, i64 0, %"class.std::__1::vector.37"* null) #13
  %10 = getelementptr inbounds %"class.mojo::Message", %"class.mojo::Message"* %7, i64 0, i32 1
  %11 = call i64 @_ZN4mojo8internal6Buffer8AllocateEm(%"class.mojo::internal::Buffer"* %10, i64 24) #13
  %12 = getelementptr inbounds %"class.mojo::Message", %"class.mojo::Message"* %7, i64 0, i32 1, i32 2
  %13 = load i8*, i8** %12, align 8
  %14 = getelementptr inbounds i8, i8* %13, i64 %11
  %15 = bitcast i8* %14 to %"class.blink::mojom::internal::WebBluetoothService_WatchAdvertisementsForDevice_Params_Data"*
  call void @_ZN5blink5mojom8internal60WebBluetoothService_WatchAdvertisementsForDevice_Params_DataC1Ev(%"class.blink::mojom::internal::WebBluetoothService_WatchAdvertisementsForDevice_Params_Data"* %15) #13
  %16 = ptrtoint %"class.mojo::Message"* %7 to i64
  %17 = call i64 @_ZN4mojo8internal6Buffer8AllocateEm(%"class.mojo::internal::Buffer"* %10, i64 16) #13
  %18 = load i8*, i8** %12, align 8
  %19 = getelementptr inbounds i8, i8* %18, i64 %17
  %20 = bitcast i8* %19 to %"class.blink::mojom::internal::WebBluetoothDeviceId_Data"*
  call void @_ZN5blink5mojom8internal25WebBluetoothDeviceId_DataC1Ev(%"class.blink::mojom::internal::WebBluetoothDeviceId_Data"* %20) #13
  %21 = call dereferenceable(24) %"class.std::__1::basic_string"* @_ZNK5blink20WebBluetoothDeviceId3strEv(%"class.blink::WebBluetoothDeviceId"* %1) #13
  %22 = bitcast %"class.mojo::internal::MessageFragment.157"* %6 to i8*
  call void @llvm.lifetime.start.p0i8(i64 16, i8* nonnull %22) #13
  %23 = getelementptr inbounds %"class.mojo::internal::MessageFragment.157", %"class.mojo::internal::MessageFragment.157"* %6, i64 0, i32 1
  %24 = bitcast %"class.mojo::internal::MessageFragment.157"* %6 to i64*
  store i64 %16, i64* %24, align 8
  store i64 -1, i64* %23, align 8
  call void @_ZN4mojo8internal10SerializerINS_14StringDataViewEKNSt3__112basic_stringIcNS3_11char_traitsIcEENS3_9allocatorIcEEEEE9SerializeERSA_RNS0_15MessageFragmentINS0_10Array_DataIcEEEE(%"class.std::__1::basic_string"* dereferenceable(24) %21, %"class.mojo::internal::MessageFragment.157"* nonnull dereferenceable(16) %6) #13
  %25 = load i8*, i8** %12, align 8
  %26 = getelementptr inbounds i8, i8* %25, i64 %17
  %27 = getelementptr inbounds i8, i8* %26, i64 8
  %28 = load i64, i64* %23, align 8
  %29 = icmp eq i64 %28, -1
  br i1 %29, label %37, label %30

30:                                               ; preds = %4
  %31 = getelementptr inbounds %"class.mojo::internal::MessageFragment.157", %"class.mojo::internal::MessageFragment.157"* %6, i64 0, i32 0
  %32 = load %"class.mojo::Message"*, %"class.mojo::Message"** %31, align 8
  %33 = getelementptr inbounds %"class.mojo::Message", %"class.mojo::Message"* %32, i64 0, i32 1, i32 2
  %34 = load i8*, i8** %33, align 8
  %35 = getelementptr inbounds i8, i8* %34, i64 %28
  %36 = bitcast i8* %35 to %"class.mojo::internal::Array_Data"*
  br label %37

37:                                               ; preds = %4, %30
  %38 = phi %"class.mojo::internal::Array_Data"* [ %36, %30 ], [ null, %4 ]
  %39 = bitcast i8* %27 to i64*
  %40 = icmp eq %"class.mojo::internal::Array_Data"* %38, null
  %41 = ptrtoint %"class.mojo::internal::Array_Data"* %38 to i64
  %42 = ptrtoint i8* %27 to i64
  %43 = sub i64 %41, %42
  %44 = select i1 %40, i64 0, i64 %43
  store i64 %44, i64* %39, align 8
  call void @llvm.lifetime.end.p0i8(i64 16, i8* nonnull %22) #13
  %45 = load i8*, i8** %12, align 8
  %46 = getelementptr inbounds i8, i8* %45, i64 %11
  %47 = getelementptr inbounds i8, i8* %46, i64 8
  %48 = icmp eq i64 %17, -1
  %49 = getelementptr inbounds i8, i8* %45, i64 %17
  %50 = bitcast i8* %49 to %"class.blink::mojom::internal::WebBluetoothDeviceId_Data"*
  %51 = select i1 %48, %"class.blink::mojom::internal::WebBluetoothDeviceId_Data"* null, %"class.blink::mojom::internal::WebBluetoothDeviceId_Data"* %50
  %52 = bitcast i8* %47 to i64*
  %53 = icmp eq %"class.blink::mojom::internal::WebBluetoothDeviceId_Data"* %51, null
  %54 = ptrtoint %"class.blink::mojom::internal::WebBluetoothDeviceId_Data"* %51 to i64
  %55 = ptrtoint i8* %47 to i64
  %56 = sub i64 %54, %55
  %57 = select i1 %53, i64 0, i64 %56
  store i64 %57, i64* %52, align 8
  %58 = load i8*, i8** %12, align 8
  %59 = getelementptr inbounds i8, i8* %58, i64 %11
  %60 = getelementptr inbounds i8, i8* %59, i64 16
  %61 = bitcast i8* %60 to %"struct.mojo::internal::AssociatedInterface_Data"*
  %62 = bitcast %"class.mojo::ScopedInterfaceEndpointHandle"* %5 to i8*
  call void @llvm.lifetime.start.p0i8(i64 8, i8* nonnull %62) #13
  %63 = getelementptr inbounds %"class.mojo::PendingAssociatedRemote.173", %"class.mojo::PendingAssociatedRemote.173"* %2, i64 0, i32 0
  call void @_ZN4mojo29ScopedInterfaceEndpointHandleC1EOS0_(%"class.mojo::ScopedInterfaceEndpointHandle"* nonnull %5, %"class.mojo::ScopedInterfaceEndpointHandle"* dereferenceable(8) %63) #13
  %64 = getelementptr inbounds %"class.mojo::PendingAssociatedRemote.173", %"class.mojo::PendingAssociatedRemote.173"* %2, i64 0, i32 1
  %65 = load i32, i32* %64, align 8
  call void @_ZN4mojo8internal32SerializeAssociatedInterfaceInfoENS_29ScopedInterfaceEndpointHandleEjRNS_7MessageERNS0_24AssociatedInterface_DataE(%"class.mojo::ScopedInterfaceEndpointHandle"* nonnull %5, i32 %65, %"class.mojo::Message"* nonnull dereferenceable(120) %7, %"struct.mojo::internal::AssociatedInterface_Data"* dereferenceable(8) %61) #13
  call void @_ZN4mojo29ScopedInterfaceEndpointHandleD1Ev(%"class.mojo::ScopedInterfaceEndpointHandle"* nonnull %5) #13
  call void @llvm.lifetime.end.p0i8(i64 8, i8* nonnull %62) #13
  %66 = call i8* @_Znwm(i64 16) #14
  %67 = getelementptr inbounds %"class.base::OnceCallback.140", %"class.base::OnceCallback.140"* %3, i64 0, i32 0, i32 0, i32 0
  %68 = bitcast %"class.base::OnceCallback.140"* %3 to i64*
  %69 = load i64, i64* %68, align 8
  store %"class.base::internal::BindStateBase"* null, %"class.base::internal::BindStateBase"** %67, align 8
  %70 = bitcast i8* %66 to i32 (...)***
  store i32 (...)** bitcast (i8** getelementptr inbounds ({ [6 x i8*] }, { [6 x i8*] }* @_ZTVN5blink5mojom66WebBluetoothService_WatchAdvertisementsForDevice_ForwardToCallbackE, i64 0, inrange i32 0, i64 2) to i32 (...)**), i32 (...)*** %70, align 8
  %71 = getelementptr inbounds i8, i8* %66, i64 8
  %72 = getelementptr inbounds %"class.base::OnceCallback.140", %"class.base::OnceCallback.140"* %8, i64 0, i32 0, i32 0, i32 0
  %73 = bitcast i8* %71 to i64*
  store i64 %69, i64* %73, align 8
  store %"class.base::internal::BindStateBase"* null, %"class.base::internal::BindStateBase"** %72, align 8
  %74 = bitcast i8* %66 to %"class.mojo::MessageReceiver"*
  %75 = getelementptr inbounds %"class.base::OnceCallback.140", %"class.base::OnceCallback.140"* %8, i64 0, i32 0
  call void @_ZN4base8internal12CallbackBaseD2Ev(%"class.base::internal::CallbackBase"* nonnull %75) #13
  %76 = getelementptr inbounds %"class.blink::mojom::WebBluetoothServiceProxy", %"class.blink::mojom::WebBluetoothServiceProxy"* %0, i64 0, i32 1
  %77 = load %"class.mojo::MessageReceiverWithResponder"*, %"class.mojo::MessageReceiverWithResponder"** %76, align 8
  %78 = bitcast %"class.mojo::MessageReceiverWithResponder"* %77 to i1 (%"class.mojo::MessageReceiverWithResponder"*, %"class.mojo::Message"*, %"class.mojo::MessageReceiver"*)***
  %79 = load i1 (%"class.mojo::MessageReceiverWithResponder"*, %"class.mojo::Message"*, %"class.mojo::MessageReceiver"*)**, i1 (%"class.mojo::MessageReceiverWithResponder"*, %"class.mojo::Message"*, %"class.mojo::MessageReceiver"*)*** %78, align 8
  %80 = getelementptr inbounds i1 (%"class.mojo::MessageReceiverWithResponder"*, %"class.mojo::Message"*, %"class.mojo::MessageReceiver"*)*, i1 (%"class.mojo::MessageReceiverWithResponder"*, %"class.mojo::Message"*, %"class.mojo::MessageReceiver"*)** %79, i64 4
  %81 = load i1 (%"class.mojo::MessageReceiverWithResponder"*, %"class.mojo::Message"*, %"class.mojo::MessageReceiver"*)*, i1 (%"class.mojo::MessageReceiverWithResponder"*, %"class.mojo::Message"*, %"class.mojo::MessageReceiver"*)** %80, align 8
  %82 = call zeroext i1 %81(%"class.mojo::MessageReceiverWithResponder"* %77, %"class.mojo::Message"* nonnull %7, %"class.mojo::MessageReceiver"* nonnull %74) #13
  call void @_ZN4mojo7MessageD1Ev(%"class.mojo::Message"* nonnull %7) #13
  call void @llvm.lifetime.end.p0i8(i64 120, i8* nonnull %9) #13
  ret void
}

; Function Attrs: nounwind ssp uwtable
define hidden zeroext i1 @_ZN5blink5mojom53WebBluetoothService_GetAvailability_ForwardToCallback6AcceptEPN4mojo7MessageE(%"class.blink::mojom::WebBluetoothService_GetAvailability_ForwardToCallback"* nocapture, %"class.mojo::Message"*) unnamed_addr #0 align 2 {
  %3 = alloca %"class.base::OnceCallback", align 8
  %4 = tail call i8* @_ZNK4mojo7Message7payloadEv(%"class.mojo::Message"* %1) #13
  %5 = getelementptr inbounds %"class.blink::mojom::WebBluetoothService_GetAvailability_ForwardToCallback", %"class.blink::mojom::WebBluetoothService_GetAvailability_ForwardToCallback"* %0, i64 0, i32 1, i32 0, i32 0, i32 0
  %6 = load %"class.base::internal::BindStateBase"*, %"class.base::internal::BindStateBase"** %5, align 8
  %7 = icmp eq %"class.base::internal::BindStateBase"* %6, null
  br i1 %7, label %20, label %8

8:                                                ; preds = %2
  %9 = ptrtoint %"class.base::internal::BindStateBase"* %6 to i64
  %10 = getelementptr inbounds i8, i8* %4, i64 8
  %11 = load i8, i8* %10, align 1
  %12 = and i8 %11, 1
  %13 = icmp ne i8 %12, 0
  %14 = bitcast %"class.base::OnceCallback"* %3 to i8*
  call void @llvm.lifetime.start.p0i8(i64 8, i8* nonnull %14) #13
  %15 = bitcast %"class.base::OnceCallback"* %3 to i64*
  store i64 %9, i64* %15, align 8
  store %"class.base::internal::BindStateBase"* null, %"class.base::internal::BindStateBase"** %5, align 8
  %16 = getelementptr inbounds %"class.base::OnceCallback", %"class.base::OnceCallback"* %3, i64 0, i32 0
  %17 = getelementptr inbounds %"class.base::internal::BindStateBase", %"class.base::internal::BindStateBase"* %6, i64 0, i32 1
  %18 = bitcast void ()** %17 to void (%"class.base::internal::BindStateBase"*, i1)**
  %19 = load void (%"class.base::internal::BindStateBase"*, i1)*, void (%"class.base::internal::BindStateBase"*, i1)** %18, align 8
  tail call void %19(%"class.base::internal::BindStateBase"* nonnull %6, i1 zeroext %13) #13
  call void @_ZN4base8internal12CallbackBaseD2Ev(%"class.base::internal::CallbackBase"* nonnull %16) #13
  call void @llvm.lifetime.end.p0i8(i64 8, i8* nonnull %14) #13
  br label %20

20:                                               ; preds = %2, %8
  ret i1 true
}

declare void @_ZN4mojo8internal31ReportValidationErrorForMessageEPNS_7MessageENS0_15ValidationErrorEPKcjb(%"class.mojo::Message"*, i32, i8*, i32, i1 zeroext) local_unnamed_addr #2

; Function Attrs: nounwind ssp uwtable
define hidden void @_ZN5blink5mojom52WebBluetoothService_GetAvailability_ProxyToResponder3RunEb(%"class.blink::mojom::WebBluetoothService_GetAvailability_ProxyToResponder"* nocapture, i1 zeroext) #0 align 2 {
  %3 = alloca %"class.mojo::Message", align 8
  %4 = zext i1 %1 to i8
  %5 = getelementptr inbounds %"class.blink::mojom::WebBluetoothService_GetAvailability_ProxyToResponder", %"class.blink::mojom::WebBluetoothService_GetAvailability_ProxyToResponder"* %0, i64 0, i32 1
  %6 = load i8, i8* %5, align 8, !range !2
  %7 = icmp eq i8 %6, 0
  %8 = select i1 %7, i32 2, i32 6
  %9 = bitcast %"class.mojo::Message"* %3 to i8*
  call void @llvm.lifetime.start.p0i8(i64 120, i8* nonnull %9) #13
  call void @llvm.memset.p0i8.i64(i8* nonnull align 8 %9, i8 -86, i64 120, i1 false)
  call void @_ZN4mojo7MessageC1EjjmmPNSt3__16vectorINS_16ScopedHandleBaseINS_6HandleEEENS1_9allocatorIS5_EEEE(%"class.mojo::Message"* nonnull %3, i32 1172563722, i32 %8, i64 0, i64 0, %"class.std::__1::vector.37"* null) #13
  %10 = getelementptr inbounds %"class.mojo::Message", %"class.mojo::Message"* %3, i64 0, i32 1
  %11 = call i64 @_ZN4mojo8internal6Buffer8AllocateEm(%"class.mojo::internal::Buffer"* %10, i64 16) #13
  %12 = getelementptr inbounds %"class.mojo::Message", %"class.mojo::Message"* %3, i64 0, i32 1, i32 2
  %13 = load i8*, i8** %12, align 8
  %14 = getelementptr inbounds i8, i8* %13, i64 %11
  %15 = bitcast i8* %14 to %"class.blink::mojom::internal::WebBluetoothService_GetAvailability_ResponseParams_Data"*
  call void @_ZN5blink5mojom8internal55WebBluetoothService_GetAvailability_ResponseParams_DataC1Ev(%"class.blink::mojom::internal::WebBluetoothService_GetAvailability_ResponseParams_Data"* %15) #13
  %16 = load i8*, i8** %12, align 8
  %17 = getelementptr inbounds i8, i8* %16, i64 %11
  %18 = getelementptr inbounds i8, i8* %17, i64 8
  %19 = load i8, i8* %18, align 1
  %20 = and i8 %19, -2
  %21 = or i8 %20, %4
  store i8 %21, i8* %18, align 1
  %22 = getelementptr inbounds %"class.blink::mojom::WebBluetoothService_GetAvailability_ProxyToResponder", %"class.blink::mojom::WebBluetoothService_GetAvailability_ProxyToResponder"* %0, i64 0, i32 0
  %23 = load i64, i64* %22, align 8
  %24 = bitcast i8** %12 to %"struct.mojo::internal::MessageHeaderV1"**
  %25 = load %"struct.mojo::internal::MessageHeaderV1"*, %"struct.mojo::internal::MessageHeaderV1"** %24, align 8
  %26 = getelementptr inbounds %"struct.mojo::internal::MessageHeaderV1", %"struct.mojo::internal::MessageHeaderV1"* %25, i64 0, i32 1
  store i64 %23, i64* %26, align 1
  %27 = getelementptr inbounds %"class.blink::mojom::WebBluetoothService_GetAvailability_ProxyToResponder", %"class.blink::mojom::WebBluetoothService_GetAvailability_ProxyToResponder"* %0, i64 0, i32 2, i32 0, i32 0, i32 0
  %28 = load %"class.mojo::MessageReceiverWithStatus"*, %"class.mojo::MessageReceiverWithStatus"** %27, align 8
  %29 = getelementptr inbounds %"class.mojo::MessageReceiverWithStatus", %"class.mojo::MessageReceiverWithStatus"* %28, i64 0, i32 0
  %30 = bitcast %"class.mojo::MessageReceiverWithStatus"* %28 to i1 (%"class.mojo::MessageReceiver"*, %"class.mojo::Message"*)***
  %31 = load i1 (%"class.mojo::MessageReceiver"*, %"class.mojo::Message"*)**, i1 (%"class.mojo::MessageReceiver"*, %"class.mojo::Message"*)*** %30, align 8
  %32 = getelementptr inbounds i1 (%"class.mojo::MessageReceiver"*, %"class.mojo::Message"*)*, i1 (%"class.mojo::MessageReceiver"*, %"class.mojo::Message"*)** %31, i64 3
  %33 = load i1 (%"class.mojo::MessageReceiver"*, %"class.mojo::Message"*)*, i1 (%"class.mojo::MessageReceiver"*, %"class.mojo::Message"*)** %32, align 8
  %34 = call zeroext i1 %33(%"class.mojo::MessageReceiver"* %29, %"class.mojo::Message"* nonnull %3) #13
  %35 = load %"class.mojo::MessageReceiverWithStatus"*, %"class.mojo::MessageReceiverWithStatus"** %27, align 8
  store %"class.mojo::MessageReceiverWithStatus"* null, %"class.mojo::MessageReceiverWithStatus"** %27, align 8
  %36 = icmp eq %"class.mojo::MessageReceiverWithStatus"* %35, null
  br i1 %36, label %42, label %37

37:                                               ; preds = %2
  %38 = bitcast %"class.mojo::MessageReceiverWithStatus"* %35 to void (%"class.mojo::MessageReceiverWithStatus"*)***
  %39 = load void (%"class.mojo::MessageReceiverWithStatus"*)**, void (%"class.mojo::MessageReceiverWithStatus"*)*** %38, align 8
  %40 = getelementptr inbounds void (%"class.mojo::MessageReceiverWithStatus"*)*, void (%"class.mojo::MessageReceiverWithStatus"*)** %39, i64 1
  %41 = load void (%"class.mojo::MessageReceiverWithStatus"*)*, void (%"class.mojo::MessageReceiverWithStatus"*)** %40, align 8
  call void %41(%"class.mojo::MessageReceiverWithStatus"* nonnull %35) #13
  br label %42

42:                                               ; preds = %2, %37
  call void @_ZN4mojo7MessageD1Ev(%"class.mojo::Message"* nonnull %3) #13
  call void @llvm.lifetime.end.p0i8(i64 120, i8* nonnull %9) #13
  ret void
}

; Function Attrs: nounwind ssp uwtable
define hidden zeroext i1 @_ZN5blink5mojom51WebBluetoothService_RequestDevice_ForwardToCallback6AcceptEPN4mojo7MessageE(%"class.blink::mojom::WebBluetoothService_RequestDevice_ForwardToCallback"* nocapture, %"class.mojo::Message"*) unnamed_addr #0 align 2 {
  %3 = alloca %"class.base::OnceCallback.132", align 8
  %4 = alloca %"class.mojo::StructPtr.85", align 8
  %5 = alloca %"class.mojo::StructPtr.85", align 8
  %6 = tail call i8* @_ZNK4mojo7Message7payloadEv(%"class.mojo::Message"* %1) #13
  %7 = bitcast %"class.mojo::StructPtr.85"* %4 to i8*
  call void @llvm.lifetime.start.p0i8(i64 8, i8* nonnull %7) #13
  %8 = getelementptr inbounds %"class.mojo::StructPtr.85", %"class.mojo::StructPtr.85"* %4, i64 0, i32 0, i32 0, i32 0, i32 0
  %9 = bitcast %"class.mojo::StructPtr.85"* %4 to i64*
  store i64 0, i64* %9, align 8
  %10 = getelementptr inbounds i8, i8* %6, i64 8
  %11 = bitcast i8* %10 to i32*
  %12 = load i32, i32* %11, align 4
  %13 = getelementptr inbounds i8, i8* %6, i64 16
  %14 = bitcast i8* %13 to i64*
  %15 = load i64, i64* %14, align 8
  %16 = icmp eq i64 %15, 0
  br i1 %16, label %17, label %18

17:                                               ; preds = %2
  store %"class.blink::mojom::WebBluetoothDevice"* null, %"class.blink::mojom::WebBluetoothDevice"** %8, align 8
  br label %23

18:                                               ; preds = %2
  %19 = getelementptr inbounds i8, i8* %13, i64 %15
  %20 = bitcast i8* %19 to %"class.blink::mojom::internal::WebBluetoothDevice_Data"*
  %21 = call zeroext i1 @_ZN4mojo12StructTraitsIN5blink5mojom26WebBluetoothDeviceDataViewENS_9StructPtrINS2_18WebBluetoothDeviceEEEE4ReadES3_PS6_(%"class.blink::mojom::internal::WebBluetoothDevice_Data"* nonnull %20, %"class.mojo::Message"* %1, %"class.mojo::StructPtr.85"* nonnull %4) #13
  br i1 %21, label %23, label %22

22:                                               ; preds = %18
  tail call void @_ZN4mojo8internal31ReportValidationErrorForMessageEPNS_7MessageENS0_15ValidationErrorEPKcjb(%"class.mojo::Message"* %1, i32 17, i8* getelementptr inbounds ([32 x i8], [32 x i8]* @_ZN5blink5mojom19WebBluetoothService5Name_E, i64 0, i64 0), i32 1, i1 zeroext true) #13
  br label %57

23:                                               ; preds = %17, %18
  %24 = getelementptr inbounds %"class.blink::mojom::WebBluetoothService_RequestDevice_ForwardToCallback", %"class.blink::mojom::WebBluetoothService_RequestDevice_ForwardToCallback"* %0, i64 0, i32 1, i32 0, i32 0, i32 0
  %25 = load %"class.base::internal::BindStateBase"*, %"class.base::internal::BindStateBase"** %24, align 8
  %26 = icmp eq %"class.base::internal::BindStateBase"* %25, null
  br i1 %26, label %57, label %27

27:                                               ; preds = %23
  %28 = ptrtoint %"class.base::internal::BindStateBase"* %25 to i64
  %29 = bitcast %"class.mojo::StructPtr.85"* %5 to i64*
  %30 = getelementptr inbounds %"class.mojo::StructPtr.85", %"class.mojo::StructPtr.85"* %5, i64 0, i32 0, i32 0, i32 0, i32 0
  %31 = load i64, i64* %9, align 8
  store i64 %31, i64* %29, align 8
  store i64 0, i64* %9, align 8
  %32 = bitcast %"class.base::OnceCallback.132"* %3 to i8*
  call void @llvm.lifetime.start.p0i8(i64 8, i8* nonnull %32) #13
  %33 = bitcast %"class.base::OnceCallback.132"* %3 to i64*
  store i64 %28, i64* %33, align 8
  store %"class.base::internal::BindStateBase"* null, %"class.base::internal::BindStateBase"** %24, align 8
  %34 = getelementptr inbounds %"class.base::OnceCallback.132", %"class.base::OnceCallback.132"* %3, i64 0, i32 0
  %35 = getelementptr inbounds %"class.base::internal::BindStateBase", %"class.base::internal::BindStateBase"* %25, i64 0, i32 1
  %36 = bitcast void ()** %35 to void (%"class.base::internal::BindStateBase"*, i32, %"class.mojo::StructPtr.85"*)**
  %37 = load void (%"class.base::internal::BindStateBase"*, i32, %"class.mojo::StructPtr.85"*)*, void (%"class.base::internal::BindStateBase"*, i32, %"class.mojo::StructPtr.85"*)** %36, align 8
  call void %37(%"class.base::internal::BindStateBase"* nonnull %25, i32 %12, %"class.mojo::StructPtr.85"* nonnull dereferenceable(8) %5) #13
  call void @_ZN4base8internal12CallbackBaseD2Ev(%"class.base::internal::CallbackBase"* nonnull %34) #13
  call void @llvm.lifetime.end.p0i8(i64 8, i8* nonnull %32) #13
  %38 = load %"class.blink::mojom::WebBluetoothDevice"*, %"class.blink::mojom::WebBluetoothDevice"** %30, align 8
  store %"class.blink::mojom::WebBluetoothDevice"* null, %"class.blink::mojom::WebBluetoothDevice"** %30, align 8
  %39 = icmp eq %"class.blink::mojom::WebBluetoothDevice"* %38, null
  br i1 %39, label %57, label %40

40:                                               ; preds = %27
  %41 = getelementptr inbounds %"class.blink::mojom::WebBluetoothDevice", %"class.blink::mojom::WebBluetoothDevice"* %38, i64 0, i32 1, i32 0, i32 0, i32 0, i32 0
  %42 = load i8, i8* %41, align 8, !range !2
  %43 = icmp eq i8 %42, 0
  br i1 %43, label %54, label %44

44:                                               ; preds = %40
  %45 = getelementptr inbounds %"class.blink::mojom::WebBluetoothDevice", %"class.blink::mojom::WebBluetoothDevice"* %38, i64 0, i32 1, i32 0, i32 0, i32 0, i32 1, i32 0
  %46 = bitcast %"class.std::__1::basic_string"* %45 to %"struct.std::__1::basic_string<char, std::__1::char_traits<char>, std::__1::allocator<char> >::__short"*
  %47 = getelementptr inbounds %"struct.std::__1::basic_string<char, std::__1::char_traits<char>, std::__1::allocator<char> >::__short", %"struct.std::__1::basic_string<char, std::__1::char_traits<char>, std::__1::allocator<char> >::__short"* %46, i64 0, i32 1, i32 0
  %48 = load i8, i8* %47, align 1
  %49 = icmp slt i8 %48, 0
  br i1 %49, label %50, label %53

50:                                               ; preds = %44
  %51 = getelementptr inbounds %"class.std::__1::basic_string", %"class.std::__1::basic_string"* %45, i64 0, i32 0, i32 0, i32 0, i32 0, i32 0, i32 0
  %52 = load i8*, i8** %51, align 8
  call void @_ZdlPv(i8* %52) #14
  br label %53

53:                                               ; preds = %50, %44
  store i8 0, i8* %41, align 8
  br label %54

54:                                               ; preds = %53, %40
  %55 = getelementptr inbounds %"class.blink::mojom::WebBluetoothDevice", %"class.blink::mojom::WebBluetoothDevice"* %38, i64 0, i32 0
  call void @_ZN5blink20WebBluetoothDeviceIdD1Ev(%"class.blink::WebBluetoothDeviceId"* %55) #13
  %56 = bitcast %"class.blink::mojom::WebBluetoothDevice"* %38 to i8*
  call void @_ZdlPv(i8* %56) #14
  br label %57

57:                                               ; preds = %54, %27, %23, %22
  %58 = phi i1 [ false, %22 ], [ true, %23 ], [ true, %27 ], [ true, %54 ]
  %59 = load %"class.blink::mojom::WebBluetoothDevice"*, %"class.blink::mojom::WebBluetoothDevice"** %8, align 8
  store %"class.blink::mojom::WebBluetoothDevice"* null, %"class.blink::mojom::WebBluetoothDevice"** %8, align 8
  %60 = icmp eq %"class.blink::mojom::WebBluetoothDevice"* %59, null
  br i1 %60, label %78, label %61

61:                                               ; preds = %57
  %62 = getelementptr inbounds %"class.blink::mojom::WebBluetoothDevice", %"class.blink::mojom::WebBluetoothDevice"* %59, i64 0, i32 1, i32 0, i32 0, i32 0, i32 0
  %63 = load i8, i8* %62, align 8, !range !2
  %64 = icmp eq i8 %63, 0
  br i1 %64, label %75, label %65

65:                                               ; preds = %61
  %66 = getelementptr inbounds %"class.blink::mojom::WebBluetoothDevice", %"class.blink::mojom::WebBluetoothDevice"* %59, i64 0, i32 1, i32 0, i32 0, i32 0, i32 1, i32 0
  %67 = bitcast %"class.std::__1::basic_string"* %66 to %"struct.std::__1::basic_string<char, std::__1::char_traits<char>, std::__1::allocator<char> >::__short"*
  %68 = getelementptr inbounds %"struct.std::__1::basic_string<char, std::__1::char_traits<char>, std::__1::allocator<char> >::__short", %"struct.std::__1::basic_string<char, std::__1::char_traits<char>, std::__1::allocator<char> >::__short"* %67, i64 0, i32 1, i32 0
  %69 = load i8, i8* %68, align 1
  %70 = icmp slt i8 %69, 0
  br i1 %70, label %71, label %74

71:                                               ; preds = %65
  %72 = getelementptr inbounds %"class.std::__1::basic_string", %"class.std::__1::basic_string"* %66, i64 0, i32 0, i32 0, i32 0, i32 0, i32 0, i32 0
  %73 = load i8*, i8** %72, align 8
  call void @_ZdlPv(i8* %73) #14
  br label %74

74:                                               ; preds = %71, %65
  store i8 0, i8* %62, align 8
  br label %75

75:                                               ; preds = %74, %61
  %76 = getelementptr inbounds %"class.blink::mojom::WebBluetoothDevice", %"class.blink::mojom::WebBluetoothDevice"* %59, i64 0, i32 0
  call void @_ZN5blink20WebBluetoothDeviceIdD1Ev(%"class.blink::WebBluetoothDeviceId"* %76) #13
  %77 = bitcast %"class.blink::mojom::WebBluetoothDevice"* %59 to i8*
  call void @_ZdlPv(i8* %77) #14
  br label %78

78:                                               ; preds = %57, %75
  call void @llvm.lifetime.end.p0i8(i64 8, i8* nonnull %7) #13
  ret i1 %58
}

; Function Attrs: nounwind ssp uwtable
define hidden void @_ZN5blink5mojom50WebBluetoothService_RequestDevice_ProxyToResponder3RunENS0_18WebBluetoothResultEN4mojo9StructPtrINS0_18WebBluetoothDeviceEEE(%"class.blink::mojom::WebBluetoothService_RequestDevice_ProxyToResponder"* nocapture, i32, %"class.mojo::StructPtr.85"*) #0 align 2 {
  %4 = alloca %"class.mojo::Message", align 8
  %5 = alloca %"class.mojo::internal::MessageFragment.195", align 8
  %6 = getelementptr inbounds %"class.blink::mojom::WebBluetoothService_RequestDevice_ProxyToResponder", %"class.blink::mojom::WebBluetoothService_RequestDevice_ProxyToResponder"* %0, i64 0, i32 1
  %7 = load i8, i8* %6, align 8, !range !2
  %8 = icmp eq i8 %7, 0
  %9 = select i1 %8, i32 2, i32 6
  %10 = bitcast %"class.mojo::Message"* %4 to i8*
  call void @llvm.lifetime.start.p0i8(i64 120, i8* nonnull %10) #13
  call void @llvm.memset.p0i8.i64(i8* nonnull align 8 %10, i8 -86, i64 120, i1 false)
  call void @_ZN4mojo7MessageC1EjjmmPNSt3__16vectorINS_16ScopedHandleBaseINS_6HandleEEENS1_9allocatorIS5_EEEE(%"class.mojo::Message"* nonnull %4, i32 953739893, i32 %9, i64 0, i64 0, %"class.std::__1::vector.37"* null) #13
  %11 = getelementptr inbounds %"class.mojo::Message", %"class.mojo::Message"* %4, i64 0, i32 1
  %12 = call i64 @_ZN4mojo8internal6Buffer8AllocateEm(%"class.mojo::internal::Buffer"* %11, i64 24) #13
  %13 = getelementptr inbounds %"class.mojo::Message", %"class.mojo::Message"* %4, i64 0, i32 1, i32 2
  %14 = load i8*, i8** %13, align 8
  %15 = getelementptr inbounds i8, i8* %14, i64 %12
  %16 = bitcast i8* %15 to %"class.blink::mojom::internal::WebBluetoothService_RequestDevice_ResponseParams_Data"*
  call void @_ZN5blink5mojom8internal53WebBluetoothService_RequestDevice_ResponseParams_DataC1Ev(%"class.blink::mojom::internal::WebBluetoothService_RequestDevice_ResponseParams_Data"* %16) #13
  %17 = load i8*, i8** %13, align 8
  %18 = getelementptr inbounds i8, i8* %17, i64 %12
  %19 = getelementptr inbounds i8, i8* %18, i64 8
  %20 = bitcast i8* %19 to i32*
  store i32 %1, i32* %20, align 4
  %21 = bitcast %"class.mojo::internal::MessageFragment.195"* %5 to i8*
  call void @llvm.lifetime.start.p0i8(i64 16, i8* nonnull %21) #13
  %22 = getelementptr inbounds %"class.mojo::internal::MessageFragment.195", %"class.mojo::internal::MessageFragment.195"* %5, i64 0, i32 0
  %23 = getelementptr inbounds %"class.mojo::internal::MessageFragment.195", %"class.mojo::internal::MessageFragment.195"* %5, i64 0, i32 1
  store %"class.mojo::Message"* %4, %"class.mojo::Message"** %22, align 8
  store i64 -1, i64* %23, align 8
  call void @_ZN4mojo8internal10SerializerIN5blink5mojom26WebBluetoothDeviceDataViewENS_9StructPtrINS3_18WebBluetoothDeviceEEEE9SerializeERS7_RNS0_15MessageFragmentINS3_8internal23WebBluetoothDevice_DataEEE(%"class.mojo::StructPtr.85"* dereferenceable(8) %2, %"class.mojo::internal::MessageFragment.195"* nonnull dereferenceable(16) %5) #13
  %24 = load i8*, i8** %13, align 8
  %25 = getelementptr inbounds i8, i8* %24, i64 %12
  %26 = getelementptr inbounds i8, i8* %25, i64 16
  %27 = load i64, i64* %23, align 8
  %28 = icmp eq i64 %27, -1
  br i1 %28, label %35, label %29

29:                                               ; preds = %3
  %30 = load %"class.mojo::Message"*, %"class.mojo::Message"** %22, align 8
  %31 = getelementptr inbounds %"class.mojo::Message", %"class.mojo::Message"* %30, i64 0, i32 1, i32 2
  %32 = load i8*, i8** %31, align 8
  %33 = getelementptr inbounds i8, i8* %32, i64 %27
  %34 = bitcast i8* %33 to %"class.blink::mojom::internal::WebBluetoothDevice_Data"*
  br label %35

35:                                               ; preds = %3, %29
  %36 = phi %"class.blink::mojom::internal::WebBluetoothDevice_Data"* [ %34, %29 ], [ null, %3 ]
  %37 = bitcast i8* %26 to i64*
  %38 = icmp eq %"class.blink::mojom::internal::WebBluetoothDevice_Data"* %36, null
  %39 = ptrtoint %"class.blink::mojom::internal::WebBluetoothDevice_Data"* %36 to i64
  %40 = ptrtoint i8* %26 to i64
  %41 = sub i64 %39, %40
  %42 = select i1 %38, i64 0, i64 %41
  store i64 %42, i64* %37, align 8
  %43 = getelementptr inbounds %"class.blink::mojom::WebBluetoothService_RequestDevice_ProxyToResponder", %"class.blink::mojom::WebBluetoothService_RequestDevice_ProxyToResponder"* %0, i64 0, i32 0
  %44 = load i64, i64* %43, align 8
  %45 = bitcast i8** %13 to %"struct.mojo::internal::MessageHeaderV1"**
  %46 = load %"struct.mojo::internal::MessageHeaderV1"*, %"struct.mojo::internal::MessageHeaderV1"** %45, align 8
  %47 = getelementptr inbounds %"struct.mojo::internal::MessageHeaderV1", %"struct.mojo::internal::MessageHeaderV1"* %46, i64 0, i32 1
  store i64 %44, i64* %47, align 1
  %48 = getelementptr inbounds %"class.blink::mojom::WebBluetoothService_RequestDevice_ProxyToResponder", %"class.blink::mojom::WebBluetoothService_RequestDevice_ProxyToResponder"* %0, i64 0, i32 2, i32 0, i32 0, i32 0
  %49 = load %"class.mojo::MessageReceiverWithStatus"*, %"class.mojo::MessageReceiverWithStatus"** %48, align 8
  %50 = getelementptr inbounds %"class.mojo::MessageReceiverWithStatus", %"class.mojo::MessageReceiverWithStatus"* %49, i64 0, i32 0
  %51 = bitcast %"class.mojo::MessageReceiverWithStatus"* %49 to i1 (%"class.mojo::MessageReceiver"*, %"class.mojo::Message"*)***
  %52 = load i1 (%"class.mojo::MessageReceiver"*, %"class.mojo::Message"*)**, i1 (%"class.mojo::MessageReceiver"*, %"class.mojo::Message"*)*** %51, align 8
  %53 = getelementptr inbounds i1 (%"class.mojo::MessageReceiver"*, %"class.mojo::Message"*)*, i1 (%"class.mojo::MessageReceiver"*, %"class.mojo::Message"*)** %52, i64 3
  %54 = load i1 (%"class.mojo::MessageReceiver"*, %"class.mojo::Message"*)*, i1 (%"class.mojo::MessageReceiver"*, %"class.mojo::Message"*)** %53, align 8
  %55 = call zeroext i1 %54(%"class.mojo::MessageReceiver"* %50, %"class.mojo::Message"* nonnull %4) #13
  %56 = load %"class.mojo::MessageReceiverWithStatus"*, %"class.mojo::MessageReceiverWithStatus"** %48, align 8
  store %"class.mojo::MessageReceiverWithStatus"* null, %"class.mojo::MessageReceiverWithStatus"** %48, align 8
  %57 = icmp eq %"class.mojo::MessageReceiverWithStatus"* %56, null
  br i1 %57, label %63, label %58

58:                                               ; preds = %35
  %59 = bitcast %"class.mojo::MessageReceiverWithStatus"* %56 to void (%"class.mojo::MessageReceiverWithStatus"*)***
  %60 = load void (%"class.mojo::MessageReceiverWithStatus"*)**, void (%"class.mojo::MessageReceiverWithStatus"*)*** %59, align 8
  %61 = getelementptr inbounds void (%"class.mojo::MessageReceiverWithStatus"*)*, void (%"class.mojo::MessageReceiverWithStatus"*)** %60, i64 1
  %62 = load void (%"class.mojo::MessageReceiverWithStatus"*)*, void (%"class.mojo::MessageReceiverWithStatus"*)** %61, align 8
  call void %62(%"class.mojo::MessageReceiverWithStatus"* nonnull %56) #13
  br label %63

63:                                               ; preds = %35, %58
  call void @llvm.lifetime.end.p0i8(i64 16, i8* nonnull %21) #13
  call void @_ZN4mojo7MessageD1Ev(%"class.mojo::Message"* nonnull %4) #13
  call void @llvm.lifetime.end.p0i8(i64 120, i8* nonnull %10) #13
  ret void
}

; Function Attrs: nounwind ssp uwtable
define hidden zeroext i1 @_ZN5blink5mojom48WebBluetoothService_GetDevices_ForwardToCallback6AcceptEPN4mojo7MessageE(%"class.blink::mojom::WebBluetoothService_GetDevices_ForwardToCallback"* nocapture, %"class.mojo::Message"*) unnamed_addr #0 align 2 {
  %3 = alloca %"class.base::OnceCallback.138", align 8
  %4 = alloca %"class.std::__1::vector.197", align 16
  %5 = alloca %"class.blink::mojom::WebBluetoothService_GetDevices_ResponseParamsDataView", align 8
  %6 = alloca %"class.std::__1::vector.197", align 16
  %7 = tail call i8* @_ZNK4mojo7Message7payloadEv(%"class.mojo::Message"* %1) #13
  %8 = bitcast %"class.std::__1::vector.197"* %4 to i8*
  call void @llvm.lifetime.start.p0i8(i64 24, i8* nonnull %8) #13
  %9 = getelementptr inbounds %"class.std::__1::vector.197", %"class.std::__1::vector.197"* %4, i64 0, i32 0, i32 0
  %10 = getelementptr inbounds %"class.std::__1::vector.197", %"class.std::__1::vector.197"* %4, i64 0, i32 0, i32 1
  %11 = getelementptr inbounds %"class.std::__1::vector.197", %"class.std::__1::vector.197"* %4, i64 0, i32 0, i32 2, i32 0, i32 0
  call void @llvm.memset.p0i8.i64(i8* nonnull align 16 %8, i8 0, i64 24, i1 false) #13
  %12 = bitcast %"class.blink::mojom::WebBluetoothService_GetDevices_ResponseParamsDataView"* %5 to i8*
  call void @llvm.lifetime.start.p0i8(i64 16, i8* nonnull %12) #13
  %13 = getelementptr inbounds %"class.blink::mojom::WebBluetoothService_GetDevices_ResponseParamsDataView", %"class.blink::mojom::WebBluetoothService_GetDevices_ResponseParamsDataView"* %5, i64 0, i32 1
  %14 = bitcast %"class.blink::mojom::WebBluetoothService_GetDevices_ResponseParamsDataView"* %5 to i8**
  store i8* %7, i8** %14, align 8
  store %"class.mojo::Message"* %1, %"class.mojo::Message"** %13, align 8
  %15 = call zeroext i1 @_ZN5blink5mojom53WebBluetoothService_GetDevices_ResponseParamsDataView11ReadDevicesINSt3__16vectorIN4mojo9StructPtrINS0_18WebBluetoothDeviceEEENS3_9allocatorIS8_EEEEEEbPT_(%"class.blink::mojom::WebBluetoothService_GetDevices_ResponseParamsDataView"* nonnull %5, %"class.std::__1::vector.197"* nonnull %4)
  br i1 %15, label %17, label %16

16:                                               ; preds = %2
  call void @_ZN4mojo8internal31ReportValidationErrorForMessageEPNS_7MessageENS0_15ValidationErrorEPKcjb(%"class.mojo::Message"* %1, i32 17, i8* getelementptr inbounds ([32 x i8], [32 x i8]* @_ZN5blink5mojom19WebBluetoothService5Name_E, i64 0, i64 0), i32 2, i1 zeroext true) #13
  br label %74

17:                                               ; preds = %2
  %18 = getelementptr inbounds %"class.blink::mojom::WebBluetoothService_GetDevices_ForwardToCallback", %"class.blink::mojom::WebBluetoothService_GetDevices_ForwardToCallback"* %0, i64 0, i32 1, i32 0, i32 0, i32 0
  %19 = load %"class.base::internal::BindStateBase"*, %"class.base::internal::BindStateBase"** %18, align 8
  %20 = icmp eq %"class.base::internal::BindStateBase"* %19, null
  br i1 %20, label %74, label %21

21:                                               ; preds = %17
  %22 = ptrtoint %"class.base::internal::BindStateBase"* %19 to i64
  %23 = bitcast %"class.std::__1::vector.197"* %4 to <2 x i64>*
  %24 = load <2 x i64>, <2 x i64>* %23, align 16
  %25 = getelementptr inbounds %"class.std::__1::vector.197", %"class.std::__1::vector.197"* %6, i64 0, i32 0, i32 1
  %26 = bitcast %"class.std::__1::vector.197"* %6 to <2 x i64>*
  store <2 x i64> %24, <2 x i64>* %26, align 16
  %27 = bitcast %"class.mojo::StructPtr.85"** %11 to i64*
  %28 = load i64, i64* %27, align 16
  %29 = getelementptr inbounds %"class.std::__1::vector.197", %"class.std::__1::vector.197"* %6, i64 0, i32 0, i32 2, i32 0, i32 0
  %30 = bitcast %"class.mojo::StructPtr.85"** %29 to i64*
  store i64 %28, i64* %30, align 16
  call void @llvm.memset.p0i8.i64(i8* nonnull align 16 %8, i8 0, i64 24, i1 false) #13
  %31 = bitcast %"class.base::OnceCallback.138"* %3 to i8*
  call void @llvm.lifetime.start.p0i8(i64 8, i8* nonnull %31) #13
  %32 = bitcast %"class.base::OnceCallback.138"* %3 to i64*
  store i64 %22, i64* %32, align 8
  store %"class.base::internal::BindStateBase"* null, %"class.base::internal::BindStateBase"** %18, align 8
  %33 = getelementptr inbounds %"class.base::OnceCallback.138", %"class.base::OnceCallback.138"* %3, i64 0, i32 0
  %34 = getelementptr inbounds %"class.base::internal::BindStateBase", %"class.base::internal::BindStateBase"* %19, i64 0, i32 1
  %35 = bitcast void ()** %34 to void (%"class.base::internal::BindStateBase"*, %"class.std::__1::vector.197"*)**
  %36 = load void (%"class.base::internal::BindStateBase"*, %"class.std::__1::vector.197"*)*, void (%"class.base::internal::BindStateBase"*, %"class.std::__1::vector.197"*)** %35, align 8
  call void %36(%"class.base::internal::BindStateBase"* nonnull %19, %"class.std::__1::vector.197"* nonnull dereferenceable(24) %6) #13
  call void @_ZN4base8internal12CallbackBaseD2Ev(%"class.base::internal::CallbackBase"* nonnull %33) #13
  call void @llvm.lifetime.end.p0i8(i64 8, i8* nonnull %31) #13
  %37 = getelementptr inbounds %"class.std::__1::vector.197", %"class.std::__1::vector.197"* %6, i64 0, i32 0, i32 0
  %38 = load %"class.mojo::StructPtr.85"*, %"class.mojo::StructPtr.85"** %37, align 16
  %39 = icmp eq %"class.mojo::StructPtr.85"* %38, null
  br i1 %39, label %74, label %40

40:                                               ; preds = %21
  %41 = bitcast %"class.mojo::StructPtr.85"* %38 to i8*
  %42 = load %"class.mojo::StructPtr.85"*, %"class.mojo::StructPtr.85"** %25, align 8
  %43 = icmp eq %"class.mojo::StructPtr.85"* %42, %38
  br i1 %43, label %72, label %44

44:                                               ; preds = %40, %67
  %45 = phi %"class.mojo::StructPtr.85"* [ %46, %67 ], [ %42, %40 ]
  %46 = getelementptr inbounds %"class.mojo::StructPtr.85", %"class.mojo::StructPtr.85"* %45, i64 -1
  %47 = getelementptr inbounds %"class.mojo::StructPtr.85", %"class.mojo::StructPtr.85"* %46, i64 0, i32 0, i32 0, i32 0, i32 0
  %48 = load %"class.blink::mojom::WebBluetoothDevice"*, %"class.blink::mojom::WebBluetoothDevice"** %47, align 8
  store %"class.blink::mojom::WebBluetoothDevice"* null, %"class.blink::mojom::WebBluetoothDevice"** %47, align 8
  %49 = icmp eq %"class.blink::mojom::WebBluetoothDevice"* %48, null
  br i1 %49, label %67, label %50

50:                                               ; preds = %44
  %51 = getelementptr inbounds %"class.blink::mojom::WebBluetoothDevice", %"class.blink::mojom::WebBluetoothDevice"* %48, i64 0, i32 1, i32 0, i32 0, i32 0, i32 0
  %52 = load i8, i8* %51, align 8, !range !2
  %53 = icmp eq i8 %52, 0
  br i1 %53, label %64, label %54

54:                                               ; preds = %50
  %55 = getelementptr inbounds %"class.blink::mojom::WebBluetoothDevice", %"class.blink::mojom::WebBluetoothDevice"* %48, i64 0, i32 1, i32 0, i32 0, i32 0, i32 1, i32 0
  %56 = bitcast %"class.std::__1::basic_string"* %55 to %"struct.std::__1::basic_string<char, std::__1::char_traits<char>, std::__1::allocator<char> >::__short"*
  %57 = getelementptr inbounds %"struct.std::__1::basic_string<char, std::__1::char_traits<char>, std::__1::allocator<char> >::__short", %"struct.std::__1::basic_string<char, std::__1::char_traits<char>, std::__1::allocator<char> >::__short"* %56, i64 0, i32 1, i32 0
  %58 = load i8, i8* %57, align 1
  %59 = icmp slt i8 %58, 0
  br i1 %59, label %60, label %63

60:                                               ; preds = %54
  %61 = getelementptr inbounds %"class.std::__1::basic_string", %"class.std::__1::basic_string"* %55, i64 0, i32 0, i32 0, i32 0, i32 0, i32 0, i32 0
  %62 = load i8*, i8** %61, align 8
  call void @_ZdlPv(i8* %62) #14
  br label %63

63:                                               ; preds = %60, %54
  store i8 0, i8* %51, align 8
  br label %64

64:                                               ; preds = %63, %50
  %65 = getelementptr inbounds %"class.blink::mojom::WebBluetoothDevice", %"class.blink::mojom::WebBluetoothDevice"* %48, i64 0, i32 0
  call void @_ZN5blink20WebBluetoothDeviceIdD1Ev(%"class.blink::WebBluetoothDeviceId"* %65) #13
  %66 = bitcast %"class.blink::mojom::WebBluetoothDevice"* %48 to i8*
  call void @_ZdlPv(i8* %66) #14
  br label %67

67:                                               ; preds = %64, %44
  %68 = icmp eq %"class.mojo::StructPtr.85"* %46, %38
  br i1 %68, label %69, label %44

69:                                               ; preds = %67
  %70 = bitcast %"class.std::__1::vector.197"* %6 to i8**
  %71 = load i8*, i8** %70, align 16
  br label %72

72:                                               ; preds = %69, %40
  %73 = phi i8* [ %71, %69 ], [ %41, %40 ]
  store %"class.mojo::StructPtr.85"* %38, %"class.mojo::StructPtr.85"** %25, align 8
  call void @_ZdlPv(i8* %73) #14
  br label %74

74:                                               ; preds = %72, %21, %17, %16
  %75 = phi i1 [ false, %16 ], [ true, %17 ], [ true, %21 ], [ true, %72 ]
  call void @llvm.lifetime.end.p0i8(i64 16, i8* nonnull %12) #13
  %76 = load %"class.mojo::StructPtr.85"*, %"class.mojo::StructPtr.85"** %9, align 16
  %77 = icmp eq %"class.mojo::StructPtr.85"* %76, null
  br i1 %77, label %112, label %78

78:                                               ; preds = %74
  %79 = bitcast %"class.mojo::StructPtr.85"* %76 to i8*
  %80 = load %"class.mojo::StructPtr.85"*, %"class.mojo::StructPtr.85"** %10, align 8
  %81 = icmp eq %"class.mojo::StructPtr.85"* %80, %76
  br i1 %81, label %110, label %82

82:                                               ; preds = %78, %105
  %83 = phi %"class.mojo::StructPtr.85"* [ %84, %105 ], [ %80, %78 ]
  %84 = getelementptr inbounds %"class.mojo::StructPtr.85", %"class.mojo::StructPtr.85"* %83, i64 -1
  %85 = getelementptr inbounds %"class.mojo::StructPtr.85", %"class.mojo::StructPtr.85"* %84, i64 0, i32 0, i32 0, i32 0, i32 0
  %86 = load %"class.blink::mojom::WebBluetoothDevice"*, %"class.blink::mojom::WebBluetoothDevice"** %85, align 8
  store %"class.blink::mojom::WebBluetoothDevice"* null, %"class.blink::mojom::WebBluetoothDevice"** %85, align 8
  %87 = icmp eq %"class.blink::mojom::WebBluetoothDevice"* %86, null
  br i1 %87, label %105, label %88

88:                                               ; preds = %82
  %89 = getelementptr inbounds %"class.blink::mojom::WebBluetoothDevice", %"class.blink::mojom::WebBluetoothDevice"* %86, i64 0, i32 1, i32 0, i32 0, i32 0, i32 0
  %90 = load i8, i8* %89, align 8, !range !2
  %91 = icmp eq i8 %90, 0
  br i1 %91, label %102, label %92

92:                                               ; preds = %88
  %93 = getelementptr inbounds %"class.blink::mojom::WebBluetoothDevice", %"class.blink::mojom::WebBluetoothDevice"* %86, i64 0, i32 1, i32 0, i32 0, i32 0, i32 1, i32 0
  %94 = bitcast %"class.std::__1::basic_string"* %93 to %"struct.std::__1::basic_string<char, std::__1::char_traits<char>, std::__1::allocator<char> >::__short"*
  %95 = getelementptr inbounds %"struct.std::__1::basic_string<char, std::__1::char_traits<char>, std::__1::allocator<char> >::__short", %"struct.std::__1::basic_string<char, std::__1::char_traits<char>, std::__1::allocator<char> >::__short"* %94, i64 0, i32 1, i32 0
  %96 = load i8, i8* %95, align 1
  %97 = icmp slt i8 %96, 0
  br i1 %97, label %98, label %101

98:                                               ; preds = %92
  %99 = getelementptr inbounds %"class.std::__1::basic_string", %"class.std::__1::basic_string"* %93, i64 0, i32 0, i32 0, i32 0, i32 0, i32 0, i32 0
  %100 = load i8*, i8** %99, align 8
  call void @_ZdlPv(i8* %100) #14
  br label %101

101:                                              ; preds = %98, %92
  store i8 0, i8* %89, align 8
  br label %102

102:                                              ; preds = %101, %88
  %103 = getelementptr inbounds %"class.blink::mojom::WebBluetoothDevice", %"class.blink::mojom::WebBluetoothDevice"* %86, i64 0, i32 0
  call void @_ZN5blink20WebBluetoothDeviceIdD1Ev(%"class.blink::WebBluetoothDeviceId"* %103) #13
  %104 = bitcast %"class.blink::mojom::WebBluetoothDevice"* %86 to i8*
  call void @_ZdlPv(i8* %104) #14
  br label %105

105:                                              ; preds = %102, %82
  %106 = icmp eq %"class.mojo::StructPtr.85"* %84, %76
  br i1 %106, label %107, label %82

107:                                              ; preds = %105
  %108 = bitcast %"class.std::__1::vector.197"* %4 to i8**
  %109 = load i8*, i8** %108, align 16
  br label %110

110:                                              ; preds = %107, %78
  %111 = phi i8* [ %109, %107 ], [ %79, %78 ]
  store %"class.mojo::StructPtr.85"* %76, %"class.mojo::StructPtr.85"** %10, align 8
  call void @_ZdlPv(i8* %111) #14
  br label %112

112:                                              ; preds = %74, %110
  call void @llvm.lifetime.end.p0i8(i64 24, i8* nonnull %8) #13
  ret i1 %75
}

; Function Attrs: nounwind ssp uwtable
define linkonce_odr hidden zeroext i1 @_ZN5blink5mojom53WebBluetoothService_GetDevices_ResponseParamsDataView11ReadDevicesINSt3__16vectorIN4mojo9StructPtrINS0_18WebBluetoothDeviceEEENS3_9allocatorIS8_EEEEEEbPT_(%"class.blink::mojom::WebBluetoothService_GetDevices_ResponseParamsDataView"*, %"class.std::__1::vector.197"*) local_unnamed_addr #0 comdat align 2 {
  %3 = getelementptr inbounds %"class.blink::mojom::WebBluetoothService_GetDevices_ResponseParamsDataView", %"class.blink::mojom::WebBluetoothService_GetDevices_ResponseParamsDataView"* %0, i64 0, i32 0
  %4 = load %"class.blink::mojom::internal::WebBluetoothService_GetDevices_ResponseParams_Data"*, %"class.blink::mojom::internal::WebBluetoothService_GetDevices_ResponseParams_Data"** %3, align 8
  %5 = getelementptr inbounds %"class.blink::mojom::internal::WebBluetoothService_GetDevices_ResponseParams_Data", %"class.blink::mojom::internal::WebBluetoothService_GetDevices_ResponseParams_Data"* %4, i64 0, i32 1
  %6 = getelementptr inbounds %"struct.mojo::internal::Pointer.196", %"struct.mojo::internal::Pointer.196"* %5, i64 0, i32 0
  %7 = load i64, i64* %6, align 8
  %8 = icmp eq i64 %7, 0
  %9 = bitcast %"struct.mojo::internal::Pointer.196"* %5 to i8*
  %10 = getelementptr inbounds i8, i8* %9, i64 %7
  %11 = icmp eq i8* %10, null
  %12 = or i1 %8, %11
  br i1 %12, label %13, label %45

13:                                               ; preds = %2
  %14 = getelementptr inbounds %"class.std::__1::vector.197", %"class.std::__1::vector.197"* %1, i64 0, i32 0, i32 0
  %15 = load %"class.mojo::StructPtr.85"*, %"class.mojo::StructPtr.85"** %14, align 8
  %16 = getelementptr inbounds %"class.std::__1::vector.197", %"class.std::__1::vector.197"* %1, i64 0, i32 0, i32 1
  %17 = load %"class.mojo::StructPtr.85"*, %"class.mojo::StructPtr.85"** %16, align 8
  %18 = icmp eq %"class.mojo::StructPtr.85"* %17, %15
  br i1 %18, label %44, label %19

19:                                               ; preds = %13, %42
  %20 = phi %"class.mojo::StructPtr.85"* [ %21, %42 ], [ %17, %13 ]
  %21 = getelementptr inbounds %"class.mojo::StructPtr.85", %"class.mojo::StructPtr.85"* %20, i64 -1
  %22 = getelementptr inbounds %"class.mojo::StructPtr.85", %"class.mojo::StructPtr.85"* %21, i64 0, i32 0, i32 0, i32 0, i32 0
  %23 = load %"class.blink::mojom::WebBluetoothDevice"*, %"class.blink::mojom::WebBluetoothDevice"** %22, align 8
  store %"class.blink::mojom::WebBluetoothDevice"* null, %"class.blink::mojom::WebBluetoothDevice"** %22, align 8
  %24 = icmp eq %"class.blink::mojom::WebBluetoothDevice"* %23, null
  br i1 %24, label %42, label %25

25:                                               ; preds = %19
  %26 = getelementptr inbounds %"class.blink::mojom::WebBluetoothDevice", %"class.blink::mojom::WebBluetoothDevice"* %23, i64 0, i32 1, i32 0, i32 0, i32 0, i32 0
  %27 = load i8, i8* %26, align 8, !range !2
  %28 = icmp eq i8 %27, 0
  br i1 %28, label %39, label %29

29:                                               ; preds = %25
  %30 = getelementptr inbounds %"class.blink::mojom::WebBluetoothDevice", %"class.blink::mojom::WebBluetoothDevice"* %23, i64 0, i32 1, i32 0, i32 0, i32 0, i32 1, i32 0
  %31 = bitcast %"class.std::__1::basic_string"* %30 to %"struct.std::__1::basic_string<char, std::__1::char_traits<char>, std::__1::allocator<char> >::__short"*
  %32 = getelementptr inbounds %"struct.std::__1::basic_string<char, std::__1::char_traits<char>, std::__1::allocator<char> >::__short", %"struct.std::__1::basic_string<char, std::__1::char_traits<char>, std::__1::allocator<char> >::__short"* %31, i64 0, i32 1, i32 0
  %33 = load i8, i8* %32, align 1
  %34 = icmp slt i8 %33, 0
  br i1 %34, label %35, label %38

35:                                               ; preds = %29
  %36 = getelementptr inbounds %"class.std::__1::basic_string", %"class.std::__1::basic_string"* %30, i64 0, i32 0, i32 0, i32 0, i32 0, i32 0, i32 0
  %37 = load i8*, i8** %36, align 8
  tail call void @_ZdlPv(i8* %37) #14
  br label %38

38:                                               ; preds = %35, %29
  store i8 0, i8* %26, align 8
  br label %39

39:                                               ; preds = %38, %25
  %40 = getelementptr inbounds %"class.blink::mojom::WebBluetoothDevice", %"class.blink::mojom::WebBluetoothDevice"* %23, i64 0, i32 0
  tail call void @_ZN5blink20WebBluetoothDeviceIdD1Ev(%"class.blink::WebBluetoothDeviceId"* %40) #13
  %41 = bitcast %"class.blink::mojom::WebBluetoothDevice"* %23 to i8*
  tail call void @_ZdlPv(i8* %41) #14
  br label %42

42:                                               ; preds = %39, %19
  %43 = icmp eq %"class.mojo::StructPtr.85"* %21, %15
  br i1 %43, label %44, label %19

44:                                               ; preds = %42, %13
  store %"class.mojo::StructPtr.85"* %15, %"class.mojo::StructPtr.85"** %16, align 8
  br label %50

