; ModuleID = '../../third_party/blink/common/web_preferences/web_preferences_mojom_traits.cc'
source_filename = "../../third_party/blink/common/web_preferences/web_preferences_mojom_traits.cc"
target datalayout = "e-m:e-i64:64-f80:128-n8:16:32:64-S128"
target triple = "x86_64-unknown-linux-gnu"

module asm ".symver exp, exp@GLIBC_2.2.5"
module asm ".symver exp2, exp2@GLIBC_2.2.5"
module asm ".symver exp2f, exp2f@GLIBC_2.2.5"
module asm ".symver expf, expf@GLIBC_2.2.5"
module asm ".symver lgamma, lgamma@GLIBC_2.2.5"
module asm ".symver lgammaf, lgammaf@GLIBC_2.2.5"
module asm ".symver lgammal, lgammal@GLIBC_2.2.5"
module asm ".symver log, log@GLIBC_2.2.5"
module asm ".symver log2, log2@GLIBC_2.2.5"
module asm ".symver log2f, log2f@GLIBC_2.2.5"
module asm ".symver logf, logf@GLIBC_2.2.5"
module asm ".symver pow, pow@GLIBC_2.2.5"
module asm ".symver powf, powf@GLIBC_2.2.5"

%"class.blink::mojom::internal::WebPreferences_Data" = type { %"struct.mojo::internal::StructHeader", %"struct.mojo::internal::Pointer", %"struct.mojo::internal::Pointer", %"struct.mojo::internal::Pointer", %"struct.mojo::internal::Pointer", %"struct.mojo::internal::Pointer", %"struct.mojo::internal::Pointer", %"struct.mojo::internal::Pointer", i32, i32, i32, i32, %"struct.mojo::internal::Pointer.0", i64, i32, i32, i32, i32, i32, i32, i32, i32, i32, i32, i32, float, %"struct.mojo::internal::Pointer.0", %"struct.mojo::internal::Pointer.0", %"struct.mojo::internal::Pointer.0", %"struct.mojo::internal::Pointer.0", %"struct.mojo::internal::Pointer.0", %"struct.mojo::internal::Pointer.0", %"struct.mojo::internal::Pointer.0", %"struct.mojo::internal::Pointer.0", %"struct.mojo::internal::Pointer.0", %"struct.mojo::internal::Pointer.0", %"struct.mojo::internal::Pointer.1", float, float, i32, i32, i32, i32, i32, [4 x i8], %"struct.mojo::internal::Pointer.2", %"struct.mojo::internal::Pointer.2", %"struct.mojo::internal::Pointer.2" }
%"struct.mojo::internal::StructHeader" = type { i32, i32 }
%"struct.mojo::internal::Pointer" = type { i64 }
%"struct.mojo::internal::Pointer.0" = type { i64 }
%"struct.mojo::internal::Pointer.1" = type { i64 }
%"struct.mojo::internal::Pointer.2" = type { i64 }
%"class.mojo::Message" = type { %"class.mojo::ScopedHandleBase", %"class.mojo::internal::Buffer", %"class.std::__1::vector", %"class.std::__1::vector.5", %"class.mojo::ConnectionGroup::Ref"*, i8, i8, i8* }
%"class.mojo::ScopedHandleBase" = type { %"class.mojo::MessageHandle" }
%"class.mojo::MessageHandle" = type { i64 }
%"class.mojo::internal::Buffer" = type { %"class.mojo::MessageHandle", i64, i8*, i64, i64 }
%"class.std::__1::vector" = type { %"class.std::__1::__vector_base" }
%"class.std::__1::__vector_base" = type { %"class.mojo::ScopedHandleBase.3"*, %"class.mojo::ScopedHandleBase.3"*, %"class.std::__1::__compressed_pair" }
%"class.mojo::ScopedHandleBase.3" = type { %"class.mojo::Handle" }
%"class.mojo::Handle" = type { i32 }
%"class.std::__1::__compressed_pair" = type { %"struct.std::__1::__compressed_pair_elem" }
%"struct.std::__1::__compressed_pair_elem" = type { %"class.mojo::ScopedHandleBase.3"* }
%"class.std::__1::vector.5" = type { %"class.std::__1::__vector_base.6" }
%"class.std::__1::__vector_base.6" = type { %"class.mojo::ScopedInterfaceEndpointHandle"*, %"class.mojo::ScopedInterfaceEndpointHandle"*, %"class.std::__1::__compressed_pair.7" }
%"class.mojo::ScopedInterfaceEndpointHandle" = type { %class.scoped_refptr }
%class.scoped_refptr = type { %"class.mojo::ScopedInterfaceEndpointHandle::State"* }
%"class.mojo::ScopedInterfaceEndpointHandle::State" = type opaque
%"class.std::__1::__compressed_pair.7" = type { %"struct.std::__1::__compressed_pair_elem.8" }
%"struct.std::__1::__compressed_pair_elem.8" = type { %"class.mojo::ScopedInterfaceEndpointHandle"* }
%"class.mojo::ConnectionGroup::Ref" = type { i32, %class.scoped_refptr.12 }
%class.scoped_refptr.12 = type { %"class.mojo::ConnectionGroup"* }
%"class.mojo::ConnectionGroup" = type <{ i32 (...)**, %"class.base::RefCountedThreadSafe", [4 x i8], %"class.base::RepeatingCallback", %class.scoped_refptr.16, %"class.mojo::ConnectionGroup::Ref", %"struct.std::__1::atomic.18", [4 x i8] }>
%"class.base::RefCountedThreadSafe" = type { %"class.base::subtle::RefCountedThreadSafeBase" }
%"class.base::subtle::RefCountedThreadSafeBase" = type { %"class.base::AtomicRefCount" }
%"class.base::AtomicRefCount" = type { %"struct.std::__1::atomic" }
%"struct.std::__1::atomic" = type { %"struct.std::__1::__atomic_base" }
%"struct.std::__1::__atomic_base" = type { %"struct.std::__1::__atomic_base.13" }
%"struct.std::__1::__atomic_base.13" = type { %"struct.std::__1::__cxx_atomic_impl" }
%"struct.std::__1::__cxx_atomic_impl" = type { %"struct.std::__1::__cxx_atomic_base_impl" }
%"struct.std::__1::__cxx_atomic_base_impl" = type { i32 }
%"class.base::RepeatingCallback" = type { %"class.base::internal::CallbackBaseCopyable" }
%"class.base::internal::CallbackBaseCopyable" = type { %"class.base::internal::CallbackBase" }
%"class.base::internal::CallbackBase" = type { %class.scoped_refptr.14 }
%class.scoped_refptr.14 = type { %"class.base::internal::BindStateBase"* }
%"class.base::internal::BindStateBase" = type { %"class.base::RefCountedThreadSafe.15", void ()*, void (%"class.base::internal::BindStateBase"*)*, i1 (%"class.base::internal::BindStateBase"*, i32)* }
%"class.base::RefCountedThreadSafe.15" = type { %"class.base::subtle::RefCountedThreadSafeBase" }
%class.scoped_refptr.16 = type { %"class.base::SequencedTaskRunner"* }
%"class.base::SequencedTaskRunner" = type { %"class.base::TaskRunner.base", [4 x i8] }
%"class.base::TaskRunner.base" = type <{ i32 (...)**, %"class.base::RefCountedThreadSafe.17" }>
%"class.base::RefCountedThreadSafe.17" = type { %"class.base::subtle::RefCountedThreadSafeBase" }
%"struct.std::__1::atomic.18" = type { %"struct.std::__1::__atomic_base.19" }
%"struct.std::__1::__atomic_base.19" = type { %"struct.std::__1::__atomic_base.20" }
%"struct.std::__1::__atomic_base.20" = type { %"struct.std::__1::__cxx_atomic_impl.21" }
%"struct.std::__1::__cxx_atomic_impl.21" = type { %"struct.std::__1::__cxx_atomic_base_impl.22" }
%"struct.std::__1::__cxx_atomic_base_impl.22" = type { i32 }
%"struct.blink::web_pref::WebPreferences" = type <{ %"class.std::__1::map", %"class.std::__1::map", %"class.std::__1::map", %"class.std::__1::map", %"class.std::__1::map", %"class.std::__1::map", %"class.std::__1::map", i32, i32, i32, i32, %"class.std::__1::basic_string", i8, i8, i8, i8, i8, i8, i8, i8, i8, i8, i8, i8, i8, i8, i8, i8, i8, i8, i8, i8, i8, i8, i8, i8, i8, i8, i8, i8, i8, i8, i8, i8, i8, i8, i8, i8, i8, i8, i8, i8, i8, i8, i8, i8, i8, i8, i8, i8, i8, i8, i8, i8, i8, i8, [2 x i8], i32, i32, i32, i32, i32, i8, i8, i8, i8, i8, [3 x i8], i32, i32, i8, i8, i8, i8, i32, i8, i8, i8, i8, i8, i8, i8, i8, i32, i8, i8, i8, i8, i32, i8, i8, [6 x i8], %"class.std::__1::basic_string", %"class.std::__1::basic_string", %"class.std::__1::basic_string", %"class.std::__1::basic_string", %"class.std::__1::basic_string", %"class.std::__1::basic_string", %"class.std::__1::basic_string", %"class.std::__1::basic_string", %"class.std::__1::basic_string", %"class.std::__1::basic_string", float, i8, i8, i8, i8, %class.GURL, i8, [3 x i8], float, float, i8, i8, i8, i8, i32, i32, i32, i32, i8, i8, [2 x i8], i32, i8, [7 x i8], %"class.std::__1::map.39", %"class.std::__1::map.39", %"class.std::__1::map.39", i8, i8, i8, i8, i8, [3 x i8] }>
%"class.std::__1::map" = type { %"class.std::__1::__tree" }
%"class.std::__1::__tree" = type { %"class.std::__1::__tree_end_node"*, %"class.std::__1::__compressed_pair.23", %"class.std::__1::__compressed_pair.28" }
%"class.std::__1::__tree_end_node" = type { %"class.std::__1::__tree_node_base"* }
%"class.std::__1::__tree_node_base" = type <{ %"class.std::__1::__tree_end_node", %"class.std::__1::__tree_node_base"*, %"class.std::__1::__tree_end_node"*, i8, [7 x i8] }>
%"class.std::__1::__compressed_pair.23" = type { %"struct.std::__1::__compressed_pair_elem.24" }
%"struct.std::__1::__compressed_pair_elem.24" = type { %"class.std::__1::__tree_end_node" }
%"class.std::__1::__compressed_pair.28" = type { %"struct.std::__1::__compressed_pair_elem.29" }
%"struct.std::__1::__compressed_pair_elem.29" = type { i64 }
%"class.std::__1::basic_string" = type { %"class.std::__1::__compressed_pair.31" }
%"class.std::__1::__compressed_pair.31" = type { %"struct.std::__1::__compressed_pair_elem.32" }
%"struct.std::__1::__compressed_pair_elem.32" = type { %"struct.std::__1::basic_string<char, std::__1::char_traits<char>, std::__1::allocator<char> >::__rep" }
%"struct.std::__1::basic_string<char, std::__1::char_traits<char>, std::__1::allocator<char> >::__rep" = type { %union.anon }
%union.anon = type { %"struct.std::__1::basic_string<char, std::__1::char_traits<char>, std::__1::allocator<char> >::__long" }
%"struct.std::__1::basic_string<char, std::__1::char_traits<char>, std::__1::allocator<char> >::__long" = type { i8*, i64, i64 }
%class.GURL = type { %"class.std::__1::basic_string", i8, %"struct.url::Parsed", %"class.std::__1::unique_ptr" }
%"struct.url::Parsed" = type { %"struct.url::Component", %"struct.url::Component", %"struct.url::Component", %"struct.url::Component", %"struct.url::Component", %"struct.url::Component", %"struct.url::Component", %"struct.url::Component", i8, %"struct.url::Parsed"* }
%"struct.url::Component" = type { i32, i32 }
%"class.std::__1::unique_ptr" = type { %"class.std::__1::__compressed_pair.36" }
%"class.std::__1::__compressed_pair.36" = type { %"struct.std::__1::__compressed_pair_elem.37" }
%"struct.std::__1::__compressed_pair_elem.37" = type { %class.GURL* }
%"class.std::__1::map.39" = type { %"class.std::__1::__tree.40" }
%"class.std::__1::__tree.40" = type { %"class.std::__1::__tree_end_node"*, %"class.std::__1::__compressed_pair.41", %"class.std::__1::__compressed_pair.45" }
%"class.std::__1::__compressed_pair.41" = type { %"struct.std::__1::__compressed_pair_elem.24" }
%"class.std::__1::__compressed_pair.45" = type { %"struct.std::__1::__compressed_pair_elem.29" }
%"class.mojo::internal::Map_Data" = type { %"struct.mojo::internal::StructHeader", %"struct.mojo::internal::Pointer.50", %"struct.mojo::internal::Pointer.51" }
%"struct.mojo::internal::Pointer.50" = type { i64 }
%"struct.mojo::internal::Pointer.51" = type { i64 }
%"class.mojo::internal::Map_Data.88" = type { %"struct.mojo::internal::StructHeader", %"struct.mojo::internal::Pointer.89", %"struct.mojo::internal::Pointer.89" }
%"struct.mojo::internal::Pointer.89" = type { i64 }
%"struct.std::__1::basic_string<char, std::__1::char_traits<char>, std::__1::allocator<char> >::__short" = type { [23 x i8], %struct.anon }
%struct.anon = type { i8 }
%"class.url::mojom::internal::Url_Data" = type { %"struct.mojo::internal::StructHeader", %"struct.mojo::internal::Pointer.0" }
%"struct.std::__1::pair.81" = type { %"class.std::__1::basic_string", %"class.std::__1::basic_string.61" }
%"class.std::__1::basic_string.61" = type { %"class.std::__1::__compressed_pair.62" }
%"class.std::__1::__compressed_pair.62" = type { %"struct.std::__1::__compressed_pair_elem.63" }
%"struct.std::__1::__compressed_pair_elem.63" = type { %"struct.std::__1::basic_string<char16_t, std::__1::char_traits<char16_t>, std::__1::allocator<char16_t> >::__rep" }
%"struct.std::__1::basic_string<char16_t, std::__1::char_traits<char16_t>, std::__1::allocator<char16_t> >::__rep" = type { %union.anon.64 }
%union.anon.64 = type { %"struct.std::__1::basic_string<char16_t, std::__1::char_traits<char16_t>, std::__1::allocator<char16_t> >::__long" }
%"struct.std::__1::basic_string<char16_t, std::__1::char_traits<char16_t>, std::__1::allocator<char16_t> >::__long" = type { i16*, i64, i64 }
%"class.std::__1::vector.52" = type { %"class.std::__1::__vector_base.53" }
%"class.std::__1::__vector_base.53" = type { %"class.std::__1::basic_string"*, %"class.std::__1::basic_string"*, %"class.std::__1::__compressed_pair.54" }
%"class.std::__1::__compressed_pair.54" = type { %"struct.std::__1::__compressed_pair_elem.55" }
%"struct.std::__1::__compressed_pair_elem.55" = type { %"class.std::__1::basic_string"* }
%"class.std::__1::vector.59" = type { %"class.std::__1::__vector_base.60" }
%"class.std::__1::__vector_base.60" = type { %"class.std::__1::basic_string.61"*, %"class.std::__1::basic_string.61"*, %"class.std::__1::__compressed_pair.70" }
%"class.std::__1::__compressed_pair.70" = type { %"struct.std::__1::__compressed_pair_elem.71" }
%"struct.std::__1::__compressed_pair_elem.71" = type { %"class.std::__1::basic_string.61"* }
%"class.std::__1::__tree_node" = type { %"class.std::__1::__tree_node_base.base", %"struct.std::__1::__value_type" }
%"class.std::__1::__tree_node_base.base" = type <{ %"class.std::__1::__tree_end_node", %"class.std::__1::__tree_node_base"*, %"class.std::__1::__tree_end_node"*, i8 }>
%"struct.std::__1::__value_type" = type { %"struct.std::__1::pair" }
%"struct.std::__1::pair" = type { %"class.std::__1::basic_string", %"class.std::__1::basic_string.61" }
%"class.mojo::internal::Array_Data" = type { %"struct.mojo::internal::ArrayHeader" }
%"struct.mojo::internal::ArrayHeader" = type { i32, i32 }
%"class.mojo::internal::Array_Data.75" = type { %"struct.mojo::internal::ArrayHeader" }
%"struct.std::__1::basic_string<char16_t, std::__1::char_traits<char16_t>, std::__1::allocator<char16_t> >::__short" = type { [11 x i16], %struct.anon.65 }
%struct.anon.65 = type { %"struct.std::__1::__padding.66", i8 }
%"struct.std::__1::__padding.66" = type { [1 x i8] }
%"class.mojo_base::mojom::internal::String16_Data" = type { %"struct.mojo::internal::StructHeader", %"struct.mojo::internal::Pointer.78" }
%"struct.mojo::internal::Pointer.78" = type { i64 }
%"class.std::__1::__tree_node.105" = type { %"class.std::__1::__tree_node_base.base", %"struct.std::__1::__value_type.106", [4 x i8] }
%"struct.std::__1::__value_type.106" = type { %"struct.std::__1::pair.107" }
%"struct.std::__1::pair.107" = type { i32, i32 }
%"class.mojo::internal::Array_Data.104" = type { %"struct.mojo::internal::ArrayHeader" }

$_ZN4mojo8internal10SerializerINS_11MapDataViewINS_14StringDataViewEN9mojo_base5mojom16String16DataViewEEENSt3__13mapINS8_12basic_stringIcNS8_11char_traitsIcEENS8_9allocatorIcEEEENSA_IDsNSB_IDsEENSD_IDsEEEENS8_4lessISF_EENSD_INS8_4pairIKSF_SI_EEEEEEE11DeserializeEPNS0_8Map_DataINS0_7PointerINS0_10Array_DataIcEEEENSS_INS5_8internal13String16_DataEEEEEPSP_PNS_7MessageE = comdat any

$_ZN4mojo8internal15ArraySerializerINS_13ArrayDataViewINS_14StringDataViewEEENSt3__16vectorINS5_12basic_stringIcNS5_11char_traitsIcEENS5_9allocatorIcEEEENSA_ISC_EEEENS0_12MapKeyReaderINS5_3mapISC_NS7_IDsNS8_IDsEENSA_IDsEEEENS5_4lessISC_EENSA_INS5_4pairIKSC_SJ_EEEEEEEEvE19DeserializeElementsEPNS0_10Array_DataINS0_7PointerINST_IcEEEEEEPSE_PNS_7MessageE = comdat any

$_ZN4mojo8internal15ArraySerializerINS_13ArrayDataViewIN9mojo_base5mojom16String16DataViewEEENSt3__16vectorINS7_12basic_stringIDsNS7_11char_traitsIDsEENS7_9allocatorIDsEEEENSC_ISE_EEEENS0_14MapValueReaderINS7_3mapINS9_IcNSA_IcEENSC_IcEEEESE_NS7_4lessISL_EENSC_INS7_4pairIKSL_SE_EEEEEEEEvE19DeserializeElementsEPNS0_10Array_DataINS0_7PointerINS4_8internal13String16_DataEEEEEPSG_PNS_7MessageE = comdat any

$_ZNSt3__16__treeINS_12__value_typeINS_12basic_stringIcNS_11char_traitsIcEENS_9allocatorIcEEEENS2_IDsNS3_IDsEENS5_IDsEEEEEENS_19__map_value_compareIS7_SB_NS_4lessIS7_EELb1EEENS5_ISB_EEE7destroyEPNS_11__tree_nodeISB_PvEE = comdat any

$_ZNSt3__16__treeINS_12__value_typeINS_12basic_stringIcNS_11char_traitsIcEENS_9allocatorIcEEEENS2_IDsNS3_IDsEENS5_IDsEEEEEENS_19__map_value_compareIS7_SB_NS_4lessIS7_EELb1EEENS5_ISB_EEE12__find_equalIS7_EERPNS_16__tree_node_baseIPvEERPNS_15__tree_end_nodeISM_EERKT_ = comdat any

$_ZNSt3__127__tree_balance_after_insertIPNS_16__tree_node_baseIPvEEEEvT_S5_ = comdat any

$_ZN4mojo8internal10SerializerINS_11MapDataViewIN5blink5mojom23EffectiveConnectionTypeEiEENSt3__13mapIS5_iNS7_4lessIS5_EENS7_9allocatorINS7_4pairIKS5_iEEEEEEE11DeserializeEPNS0_8Map_DataIiiEEPSG_PNS_7MessageE = comdat any

$_ZNSt3__16__treeINS_12__value_typeIN5blink5mojom23EffectiveConnectionTypeEiEENS_19__map_value_compareIS4_S5_NS_4lessIS4_EELb1EEENS_9allocatorIS5_EEE7destroyEPNS_11__tree_nodeIS5_PvEE = comdat any

; Function Attrs: nounwind ssp uwtable
define hidden zeroext i1 @_ZN4mojo12StructTraitsIN5blink5mojom22WebPreferencesDataViewENS1_8web_pref14WebPreferencesEE4ReadES3_PS5_(%"class.blink::mojom::internal::WebPreferences_Data"*, %"class.mojo::Message"*, %"struct.blink::web_pref::WebPreferences"*) local_unnamed_addr #0 align 2 {
  %4 = getelementptr inbounds %"struct.blink::web_pref::WebPreferences", %"struct.blink::web_pref::WebPreferences"* %2, i64 0, i32 0
  %5 = getelementptr inbounds %"class.blink::mojom::internal::WebPreferences_Data", %"class.blink::mojom::internal::WebPreferences_Data"* %0, i64 0, i32 1
  %6 = getelementptr inbounds %"struct.mojo::internal::Pointer", %"struct.mojo::internal::Pointer"* %5, i64 0, i32 0
  %7 = load i64, i64* %6, align 8
  %8 = icmp eq i64 %7, 0
  %9 = bitcast %"struct.mojo::internal::Pointer"* %5 to i8*
  %10 = getelementptr inbounds i8, i8* %9, i64 %7
  %11 = bitcast i8* %10 to %"class.mojo::internal::Map_Data"*
  %12 = select i1 %8, %"class.mojo::internal::Map_Data"* null, %"class.mojo::internal::Map_Data"* %11
  %13 = tail call zeroext i1 @_ZN4mojo8internal10SerializerINS_11MapDataViewINS_14StringDataViewEN9mojo_base5mojom16String16DataViewEEENSt3__13mapINS8_12basic_stringIcNS8_11char_traitsIcEENS8_9allocatorIcEEEENSA_IDsNSB_IDsEENSD_IDsEEEENS8_4lessISF_EENSD_INS8_4pairIKSF_SI_EEEEEEE11DeserializeEPNS0_8Map_DataINS0_7PointerINS0_10Array_DataIcEEEENSS_INS5_8internal13String16_DataEEEEEPSP_PNS_7MessageE(%"class.mojo::internal::Map_Data"* %12, %"class.std::__1::map"* %4, %"class.mojo::Message"* %1) #7
  br i1 %13, label %14, label %1231

14:                                               ; preds = %3
  %15 = getelementptr inbounds %"struct.blink::web_pref::WebPreferences", %"struct.blink::web_pref::WebPreferences"* %2, i64 0, i32 1
  %16 = getelementptr inbounds %"class.blink::mojom::internal::WebPreferences_Data", %"class.blink::mojom::internal::WebPreferences_Data"* %0, i64 0, i32 2
  %17 = getelementptr inbounds %"struct.mojo::internal::Pointer", %"struct.mojo::internal::Pointer"* %16, i64 0, i32 0
  %18 = load i64, i64* %17, align 8
  %19 = icmp eq i64 %18, 0
  %20 = bitcast %"struct.mojo::internal::Pointer"* %16 to i8*
  %21 = getelementptr inbounds i8, i8* %20, i64 %18
  %22 = bitcast i8* %21 to %"class.mojo::internal::Map_Data"*
  %23 = select i1 %19, %"class.mojo::internal::Map_Data"* null, %"class.mojo::internal::Map_Data"* %22
  %24 = tail call zeroext i1 @_ZN4mojo8internal10SerializerINS_11MapDataViewINS_14StringDataViewEN9mojo_base5mojom16String16DataViewEEENSt3__13mapINS8_12basic_stringIcNS8_11char_traitsIcEENS8_9allocatorIcEEEENSA_IDsNSB_IDsEENSD_IDsEEEENS8_4lessISF_EENSD_INS8_4pairIKSF_SI_EEEEEEE11DeserializeEPNS0_8Map_DataINS0_7PointerINS0_10Array_DataIcEEEENSS_INS5_8internal13String16_DataEEEEEPSP_PNS_7MessageE(%"class.mojo::internal::Map_Data"* %23, %"class.std::__1::map"* %15, %"class.mojo::Message"* %1) #7
  br i1 %24, label %25, label %1231

25:                                               ; preds = %14
  %26 = getelementptr inbounds %"struct.blink::web_pref::WebPreferences", %"struct.blink::web_pref::WebPreferences"* %2, i64 0, i32 2
  %27 = getelementptr inbounds %"class.blink::mojom::internal::WebPreferences_Data", %"class.blink::mojom::internal::WebPreferences_Data"* %0, i64 0, i32 3
  %28 = getelementptr inbounds %"struct.mojo::internal::Pointer", %"struct.mojo::internal::Pointer"* %27, i64 0, i32 0
  %29 = load i64, i64* %28, align 8
  %30 = icmp eq i64 %29, 0
  %31 = bitcast %"struct.mojo::internal::Pointer"* %27 to i8*
  %32 = getelementptr inbounds i8, i8* %31, i64 %29
  %33 = bitcast i8* %32 to %"class.mojo::internal::Map_Data"*
  %34 = select i1 %30, %"class.mojo::internal::Map_Data"* null, %"class.mojo::internal::Map_Data"* %33
  %35 = tail call zeroext i1 @_ZN4mojo8internal10SerializerINS_11MapDataViewINS_14StringDataViewEN9mojo_base5mojom16String16DataViewEEENSt3__13mapINS8_12basic_stringIcNS8_11char_traitsIcEENS8_9allocatorIcEEEENSA_IDsNSB_IDsEENSD_IDsEEEENS8_4lessISF_EENSD_INS8_4pairIKSF_SI_EEEEEEE11DeserializeEPNS0_8Map_DataINS0_7PointerINS0_10Array_DataIcEEEENSS_INS5_8internal13String16_DataEEEEEPSP_PNS_7MessageE(%"class.mojo::internal::Map_Data"* %34, %"class.std::__1::map"* %26, %"class.mojo::Message"* %1) #7
  br i1 %35, label %36, label %1231

36:                                               ; preds = %25
  %37 = getelementptr inbounds %"struct.blink::web_pref::WebPreferences", %"struct.blink::web_pref::WebPreferences"* %2, i64 0, i32 3
  %38 = getelementptr inbounds %"class.blink::mojom::internal::WebPreferences_Data", %"class.blink::mojom::internal::WebPreferences_Data"* %0, i64 0, i32 4
  %39 = getelementptr inbounds %"struct.mojo::internal::Pointer", %"struct.mojo::internal::Pointer"* %38, i64 0, i32 0
  %40 = load i64, i64* %39, align 8
  %41 = icmp eq i64 %40, 0
  %42 = bitcast %"struct.mojo::internal::Pointer"* %38 to i8*
  %43 = getelementptr inbounds i8, i8* %42, i64 %40
  %44 = bitcast i8* %43 to %"class.mojo::internal::Map_Data"*
  %45 = select i1 %41, %"class.mojo::internal::Map_Data"* null, %"class.mojo::internal::Map_Data"* %44
  %46 = tail call zeroext i1 @_ZN4mojo8internal10SerializerINS_11MapDataViewINS_14StringDataViewEN9mojo_base5mojom16String16DataViewEEENSt3__13mapINS8_12basic_stringIcNS8_11char_traitsIcEENS8_9allocatorIcEEEENSA_IDsNSB_IDsEENSD_IDsEEEENS8_4lessISF_EENSD_INS8_4pairIKSF_SI_EEEEEEE11DeserializeEPNS0_8Map_DataINS0_7PointerINS0_10Array_DataIcEEEENSS_INS5_8internal13String16_DataEEEEEPSP_PNS_7MessageE(%"class.mojo::internal::Map_Data"* %45, %"class.std::__1::map"* %37, %"class.mojo::Message"* %1) #7
  br i1 %46, label %47, label %1231

47:                                               ; preds = %36
  %48 = getelementptr inbounds %"struct.blink::web_pref::WebPreferences", %"struct.blink::web_pref::WebPreferences"* %2, i64 0, i32 4
  %49 = getelementptr inbounds %"class.blink::mojom::internal::WebPreferences_Data", %"class.blink::mojom::internal::WebPreferences_Data"* %0, i64 0, i32 5
  %50 = getelementptr inbounds %"struct.mojo::internal::Pointer", %"struct.mojo::internal::Pointer"* %49, i64 0, i32 0
  %51 = load i64, i64* %50, align 8
  %52 = icmp eq i64 %51, 0
  %53 = bitcast %"struct.mojo::internal::Pointer"* %49 to i8*
  %54 = getelementptr inbounds i8, i8* %53, i64 %51
  %55 = bitcast i8* %54 to %"class.mojo::internal::Map_Data"*
  %56 = select i1 %52, %"class.mojo::internal::Map_Data"* null, %"class.mojo::internal::Map_Data"* %55
  %57 = tail call zeroext i1 @_ZN4mojo8internal10SerializerINS_11MapDataViewINS_14StringDataViewEN9mojo_base5mojom16String16DataViewEEENSt3__13mapINS8_12basic_stringIcNS8_11char_traitsIcEENS8_9allocatorIcEEEENSA_IDsNSB_IDsEENSD_IDsEEEENS8_4lessISF_EENSD_INS8_4pairIKSF_SI_EEEEEEE11DeserializeEPNS0_8Map_DataINS0_7PointerINS0_10Array_DataIcEEEENSS_INS5_8internal13String16_DataEEEEEPSP_PNS_7MessageE(%"class.mojo::internal::Map_Data"* %56, %"class.std::__1::map"* %48, %"class.mojo::Message"* %1) #7
  br i1 %57, label %58, label %1231

58:                                               ; preds = %47
  %59 = getelementptr inbounds %"struct.blink::web_pref::WebPreferences", %"struct.blink::web_pref::WebPreferences"* %2, i64 0, i32 5
  %60 = getelementptr inbounds %"class.blink::mojom::internal::WebPreferences_Data", %"class.blink::mojom::internal::WebPreferences_Data"* %0, i64 0, i32 6
  %61 = getelementptr inbounds %"struct.mojo::internal::Pointer", %"struct.mojo::internal::Pointer"* %60, i64 0, i32 0
  %62 = load i64, i64* %61, align 8
  %63 = icmp eq i64 %62, 0
  %64 = bitcast %"struct.mojo::internal::Pointer"* %60 to i8*
  %65 = getelementptr inbounds i8, i8* %64, i64 %62
  %66 = bitcast i8* %65 to %"class.mojo::internal::Map_Data"*
  %67 = select i1 %63, %"class.mojo::internal::Map_Data"* null, %"class.mojo::internal::Map_Data"* %66
  %68 = tail call zeroext i1 @_ZN4mojo8internal10SerializerINS_11MapDataViewINS_14StringDataViewEN9mojo_base5mojom16String16DataViewEEENSt3__13mapINS8_12basic_stringIcNS8_11char_traitsIcEENS8_9allocatorIcEEEENSA_IDsNSB_IDsEENSD_IDsEEEENS8_4lessISF_EENSD_INS8_4pairIKSF_SI_EEEEEEE11DeserializeEPNS0_8Map_DataINS0_7PointerINS0_10Array_DataIcEEEENSS_INS5_8internal13String16_DataEEEEEPSP_PNS_7MessageE(%"class.mojo::internal::Map_Data"* %67, %"class.std::__1::map"* %59, %"class.mojo::Message"* %1) #7
  br i1 %68, label %69, label %1231

69:                                               ; preds = %58
  %70 = getelementptr inbounds %"struct.blink::web_pref::WebPreferences", %"struct.blink::web_pref::WebPreferences"* %2, i64 0, i32 6
  %71 = getelementptr inbounds %"class.blink::mojom::internal::WebPreferences_Data", %"class.blink::mojom::internal::WebPreferences_Data"* %0, i64 0, i32 7
  %72 = getelementptr inbounds %"struct.mojo::internal::Pointer", %"struct.mojo::internal::Pointer"* %71, i64 0, i32 0
  %73 = load i64, i64* %72, align 8
  %74 = icmp eq i64 %73, 0
  %75 = bitcast %"struct.mojo::internal::Pointer"* %71 to i8*
  %76 = getelementptr inbounds i8, i8* %75, i64 %73
  %77 = bitcast i8* %76 to %"class.mojo::internal::Map_Data"*
  %78 = select i1 %74, %"class.mojo::internal::Map_Data"* null, %"class.mojo::internal::Map_Data"* %77
  %79 = tail call zeroext i1 @_ZN4mojo8internal10SerializerINS_11MapDataViewINS_14StringDataViewEN9mojo_base5mojom16String16DataViewEEENSt3__13mapINS8_12basic_stringIcNS8_11char_traitsIcEENS8_9allocatorIcEEEENSA_IDsNSB_IDsEENSD_IDsEEEENS8_4lessISF_EENSD_INS8_4pairIKSF_SI_EEEEEEE11DeserializeEPNS0_8Map_DataINS0_7PointerINS0_10Array_DataIcEEEENSS_INS5_8internal13String16_DataEEEEEPSP_PNS_7MessageE(%"class.mojo::internal::Map_Data"* %78, %"class.std::__1::map"* %70, %"class.mojo::Message"* %1) #7
  br i1 %79, label %80, label %1231

80:                                               ; preds = %69
  %81 = getelementptr inbounds %"struct.blink::web_pref::WebPreferences", %"struct.blink::web_pref::WebPreferences"* %2, i64 0, i32 136
  %82 = getelementptr inbounds %"class.blink::mojom::internal::WebPreferences_Data", %"class.blink::mojom::internal::WebPreferences_Data"* %0, i64 0, i32 45
  %83 = getelementptr inbounds %"struct.mojo::internal::Pointer.2", %"struct.mojo::internal::Pointer.2"* %82, i64 0, i32 0
  %84 = load i64, i64* %83, align 8
  %85 = icmp eq i64 %84, 0
  %86 = bitcast %"struct.mojo::internal::Pointer.2"* %82 to i8*
  %87 = getelementptr inbounds i8, i8* %86, i64 %84
  %88 = bitcast i8* %87 to %"class.mojo::internal::Map_Data.88"*
  %89 = select i1 %85, %"class.mojo::internal::Map_Data.88"* null, %"class.mojo::internal::Map_Data.88"* %88
  %90 = tail call zeroext i1 @_ZN4mojo8internal10SerializerINS_11MapDataViewIN5blink5mojom23EffectiveConnectionTypeEiEENSt3__13mapIS5_iNS7_4lessIS5_EENS7_9allocatorINS7_4pairIKS5_iEEEEEEE11DeserializeEPNS0_8Map_DataIiiEEPSG_PNS_7MessageE(%"class.mojo::internal::Map_Data.88"* %89, %"class.std::__1::map.39"* %81, %"class.mojo::Message"* %1) #7
  br i1 %90, label %91, label %1231

91:                                               ; preds = %80
  %92 = getelementptr inbounds %"struct.blink::web_pref::WebPreferences", %"struct.blink::web_pref::WebPreferences"* %2, i64 0, i32 137
  %93 = getelementptr inbounds %"class.blink::mojom::internal::WebPreferences_Data", %"class.blink::mojom::internal::WebPreferences_Data"* %0, i64 0, i32 46
  %94 = getelementptr inbounds %"struct.mojo::internal::Pointer.2", %"struct.mojo::internal::Pointer.2"* %93, i64 0, i32 0
  %95 = load i64, i64* %94, align 8
  %96 = icmp eq i64 %95, 0
  %97 = bitcast %"struct.mojo::internal::Pointer.2"* %93 to i8*
  %98 = getelementptr inbounds i8, i8* %97, i64 %95
  %99 = bitcast i8* %98 to %"class.mojo::internal::Map_Data.88"*
  %100 = select i1 %96, %"class.mojo::internal::Map_Data.88"* null, %"class.mojo::internal::Map_Data.88"* %99
  %101 = tail call zeroext i1 @_ZN4mojo8internal10SerializerINS_11MapDataViewIN5blink5mojom23EffectiveConnectionTypeEiEENSt3__13mapIS5_iNS7_4lessIS5_EENS7_9allocatorINS7_4pairIKS5_iEEEEEEE11DeserializeEPNS0_8Map_DataIiiEEPSG_PNS_7MessageE(%"class.mojo::internal::Map_Data.88"* %100, %"class.std::__1::map.39"* %92, %"class.mojo::Message"* %1) #7
  br i1 %101, label %102, label %1231

102:                                              ; preds = %91
  %103 = getelementptr inbounds %"struct.blink::web_pref::WebPreferences", %"struct.blink::web_pref::WebPreferences"* %2, i64 0, i32 138
  %104 = getelementptr inbounds %"class.blink::mojom::internal::WebPreferences_Data", %"class.blink::mojom::internal::WebPreferences_Data"* %0, i64 0, i32 47
  %105 = getelementptr inbounds %"struct.mojo::internal::Pointer.2", %"struct.mojo::internal::Pointer.2"* %104, i64 0, i32 0
  %106 = load i64, i64* %105, align 8
  %107 = icmp eq i64 %106, 0
  %108 = bitcast %"struct.mojo::internal::Pointer.2"* %104 to i8*
  %109 = getelementptr inbounds i8, i8* %108, i64 %106
  %110 = bitcast i8* %109 to %"class.mojo::internal::Map_Data.88"*
  %111 = select i1 %107, %"class.mojo::internal::Map_Data.88"* null, %"class.mojo::internal::Map_Data.88"* %110
  %112 = tail call zeroext i1 @_ZN4mojo8internal10SerializerINS_11MapDataViewIN5blink5mojom23EffectiveConnectionTypeEiEENSt3__13mapIS5_iNS7_4lessIS5_EENS7_9allocatorINS7_4pairIKS5_iEEEEEEE11DeserializeEPNS0_8Map_DataIiiEEPSG_PNS_7MessageE(%"class.mojo::internal::Map_Data.88"* %111, %"class.std::__1::map.39"* %103, %"class.mojo::Message"* %1) #7
  br i1 %112, label %113, label %1231

113:                                              ; preds = %102
  %114 = getelementptr inbounds %"struct.blink::web_pref::WebPreferences", %"struct.blink::web_pref::WebPreferences"* %2, i64 0, i32 11
  %115 = getelementptr inbounds %"class.blink::mojom::internal::WebPreferences_Data", %"class.blink::mojom::internal::WebPreferences_Data"* %0, i64 0, i32 12
  %116 = getelementptr inbounds %"struct.mojo::internal::Pointer.0", %"struct.mojo::internal::Pointer.0"* %115, i64 0, i32 0
  %117 = load i64, i64* %116, align 8
  %118 = icmp eq i64 %117, 0
  %119 = bitcast %"struct.mojo::internal::Pointer.0"* %115 to i8*
  %120 = getelementptr inbounds i8, i8* %119, i64 %117
  br i1 %118, label %166, label %121

121:                                              ; preds = %113
  %122 = getelementptr inbounds i8, i8* %120, i64 8
  %123 = getelementptr inbounds i8, i8* %120, i64 4
  %124 = bitcast i8* %123 to i32*
  %125 = load i32, i32* %124, align 1
  %126 = zext i32 %125 to i64
  %127 = tail call i1 @llvm.is.constant.i64(i64 %126) #7
  %128 = icmp ult i32 %125, 23
  %129 = and i1 %128, %127
  br i1 %129, label %130, label %148

130:                                              ; preds = %121
  %131 = bitcast %"class.std::__1::basic_string"* %114 to %"struct.std::__1::basic_string<char, std::__1::char_traits<char>, std::__1::allocator<char> >::__short"*
  %132 = getelementptr inbounds %"struct.std::__1::basic_string<char, std::__1::char_traits<char>, std::__1::allocator<char> >::__short", %"struct.std::__1::basic_string<char, std::__1::char_traits<char>, std::__1::allocator<char> >::__short"* %131, i64 0, i32 1, i32 0
  %133 = load i8, i8* %132, align 1
  %134 = icmp slt i8 %133, 0
  br i1 %134, label %135, label %139

135:                                              ; preds = %130
  %136 = getelementptr inbounds %"struct.blink::web_pref::WebPreferences", %"struct.blink::web_pref::WebPreferences"* %2, i64 0, i32 11, i32 0, i32 0, i32 0, i32 0, i32 0, i32 1
  store i64 %126, i64* %136, align 8
  %137 = getelementptr inbounds %"class.std::__1::basic_string", %"class.std::__1::basic_string"* %114, i64 0, i32 0, i32 0, i32 0, i32 0, i32 0, i32 0
  %138 = load i8*, i8** %137, align 8
  br label %142

139:                                              ; preds = %130
  %140 = trunc i32 %125 to i8
  store i8 %140, i8* %132, align 1
  %141 = bitcast %"class.std::__1::basic_string"* %114 to i8*
  br label %142

142:                                              ; preds = %139, %135
  %143 = phi i8* [ %138, %135 ], [ %141, %139 ]
  %144 = icmp eq i32 %125, 0
  br i1 %144, label %146, label %145

145:                                              ; preds = %142
  tail call void @llvm.memmove.p0i8.p0i8.i64(i8* align 1 %143, i8* align 1 %122, i64 %126, i1 false) #7
  br label %146

146:                                              ; preds = %145, %142
  %147 = getelementptr inbounds i8, i8* %143, i64 %126
  store i8 0, i8* %147, align 1
  br label %151

148:                                              ; preds = %121
  %149 = tail call dereferenceable(24) %"class.std::__1::basic_string"* @_ZNSt3__112basic_stringIcNS_11char_traitsIcEENS_9allocatorIcEEE17__assign_externalEPKcm(%"class.std::__1::basic_string"* %114, i8* %122, i64 %126) #7
  %150 = bitcast %"class.std::__1::basic_string"* %114 to %"struct.std::__1::basic_string<char, std::__1::char_traits<char>, std::__1::allocator<char> >::__short"*
  br label %151

151:                                              ; preds = %148, %146
  %152 = phi %"struct.std::__1::basic_string<char, std::__1::char_traits<char>, std::__1::allocator<char> >::__short"* [ %150, %148 ], [ %131, %146 ]
  %153 = getelementptr inbounds %"struct.std::__1::basic_string<char, std::__1::char_traits<char>, std::__1::allocator<char> >::__short", %"struct.std::__1::basic_string<char, std::__1::char_traits<char>, std::__1::allocator<char> >::__short"* %152, i64 0, i32 1, i32 0
  %154 = load i8, i8* %153, align 1
  %155 = icmp slt i8 %154, 0
  %156 = getelementptr inbounds %"class.std::__1::basic_string", %"class.std::__1::basic_string"* %114, i64 0, i32 0, i32 0, i32 0, i32 0, i32 0, i32 0
  %157 = load i8*, i8** %156, align 8
  %158 = bitcast %"class.std::__1::basic_string"* %114 to i8*
  %159 = select i1 %155, i8* %157, i8* %158
  %160 = getelementptr inbounds %"struct.blink::web_pref::WebPreferences", %"struct.blink::web_pref::WebPreferences"* %2, i64 0, i32 11, i32 0, i32 0, i32 0, i32 0, i32 0, i32 1
  %161 = load i64, i64* %160, align 8
  %162 = zext i8 %154 to i64
  %163 = select i1 %155, i64 %161, i64 %162
  %164 = tail call zeroext i1 @_ZN4base12IsStringUTF8ENS_16BasicStringPieceIcNSt3__111char_traitsIcEEEE(i8* %159, i64 %163) #7
  br i1 %164, label %166, label %165

165:                                              ; preds = %151
  tail call void @_ZN4mojo8internal34RecordInvalidStringDeserializationEv() #7
  br label %166

166:                                              ; preds = %165, %151, %113
  %167 = getelementptr inbounds %"struct.blink::web_pref::WebPreferences", %"struct.blink::web_pref::WebPreferences"* %2, i64 0, i32 102
  %168 = getelementptr inbounds %"class.blink::mojom::internal::WebPreferences_Data", %"class.blink::mojom::internal::WebPreferences_Data"* %0, i64 0, i32 26
  %169 = getelementptr inbounds %"struct.mojo::internal::Pointer.0", %"struct.mojo::internal::Pointer.0"* %168, i64 0, i32 0
  %170 = load i64, i64* %169, align 8
  %171 = icmp eq i64 %170, 0
  %172 = bitcast %"struct.mojo::internal::Pointer.0"* %168 to i8*
  %173 = getelementptr inbounds i8, i8* %172, i64 %170
  br i1 %171, label %219, label %174

174:                                              ; preds = %166
  %175 = getelementptr inbounds i8, i8* %173, i64 8
  %176 = getelementptr inbounds i8, i8* %173, i64 4
  %177 = bitcast i8* %176 to i32*
  %178 = load i32, i32* %177, align 1
  %179 = zext i32 %178 to i64
  %180 = tail call i1 @llvm.is.constant.i64(i64 %179) #7
  %181 = icmp ult i32 %178, 23
  %182 = and i1 %181, %180
  br i1 %182, label %183, label %201

183:                                              ; preds = %174
  %184 = bitcast %"class.std::__1::basic_string"* %167 to %"struct.std::__1::basic_string<char, std::__1::char_traits<char>, std::__1::allocator<char> >::__short"*
  %185 = getelementptr inbounds %"struct.std::__1::basic_string<char, std::__1::char_traits<char>, std::__1::allocator<char> >::__short", %"struct.std::__1::basic_string<char, std::__1::char_traits<char>, std::__1::allocator<char> >::__short"* %184, i64 0, i32 1, i32 0
  %186 = load i8, i8* %185, align 1
  %187 = icmp slt i8 %186, 0
  br i1 %187, label %188, label %192

188:                                              ; preds = %183
  %189 = getelementptr inbounds %"struct.blink::web_pref::WebPreferences", %"struct.blink::web_pref::WebPreferences"* %2, i64 0, i32 102, i32 0, i32 0, i32 0, i32 0, i32 0, i32 1
  store i64 %179, i64* %189, align 8
  %190 = getelementptr inbounds %"class.std::__1::basic_string", %"class.std::__1::basic_string"* %167, i64 0, i32 0, i32 0, i32 0, i32 0, i32 0, i32 0
  %191 = load i8*, i8** %190, align 8
  br label %195

192:                                              ; preds = %183
  %193 = trunc i32 %178 to i8
  store i8 %193, i8* %185, align 1
  %194 = bitcast %"class.std::__1::basic_string"* %167 to i8*
  br label %195

195:                                              ; preds = %192, %188
  %196 = phi i8* [ %191, %188 ], [ %194, %192 ]
  %197 = icmp eq i32 %178, 0
  br i1 %197, label %199, label %198

198:                                              ; preds = %195
  tail call void @llvm.memmove.p0i8.p0i8.i64(i8* align 1 %196, i8* align 1 %175, i64 %179, i1 false) #7
  br label %199

199:                                              ; preds = %198, %195
  %200 = getelementptr inbounds i8, i8* %196, i64 %179
  store i8 0, i8* %200, align 1
  br label %204

201:                                              ; preds = %174
  %202 = tail call dereferenceable(24) %"class.std::__1::basic_string"* @_ZNSt3__112basic_stringIcNS_11char_traitsIcEENS_9allocatorIcEEE17__assign_externalEPKcm(%"class.std::__1::basic_string"* %167, i8* %175, i64 %179) #7
  %203 = bitcast %"class.std::__1::basic_string"* %167 to %"struct.std::__1::basic_string<char, std::__1::char_traits<char>, std::__1::allocator<char> >::__short"*
  br label %204

204:                                              ; preds = %201, %199
  %205 = phi %"struct.std::__1::basic_string<char, std::__1::char_traits<char>, std::__1::allocator<char> >::__short"* [ %203, %201 ], [ %184, %199 ]
  %206 = getelementptr inbounds %"struct.std::__1::basic_string<char, std::__1::char_traits<char>, std::__1::allocator<char> >::__short", %"struct.std::__1::basic_string<char, std::__1::char_traits<char>, std::__1::allocator<char> >::__short"* %205, i64 0, i32 1, i32 0
  %207 = load i8, i8* %206, align 1
  %208 = icmp slt i8 %207, 0
  %209 = getelementptr inbounds %"class.std::__1::basic_string", %"class.std::__1::basic_string"* %167, i64 0, i32 0, i32 0, i32 0, i32 0, i32 0, i32 0
  %210 = load i8*, i8** %209, align 8
  %211 = bitcast %"class.std::__1::basic_string"* %167 to i8*
  %212 = select i1 %208, i8* %210, i8* %211
  %213 = getelementptr inbounds %"struct.blink::web_pref::WebPreferences", %"struct.blink::web_pref::WebPreferences"* %2, i64 0, i32 102, i32 0, i32 0, i32 0, i32 0, i32 0, i32 1
  %214 = load i64, i64* %213, align 8
  %215 = zext i8 %207 to i64
  %216 = select i1 %208, i64 %214, i64 %215
  %217 = tail call zeroext i1 @_ZN4base12IsStringUTF8ENS_16BasicStringPieceIcNSt3__111char_traitsIcEEEE(i8* %212, i64 %216) #7
  br i1 %217, label %219, label %218

218:                                              ; preds = %204
  tail call void @_ZN4mojo8internal34RecordInvalidStringDeserializationEv() #7
  br label %219

219:                                              ; preds = %218, %204, %166
  %220 = getelementptr inbounds %"struct.blink::web_pref::WebPreferences", %"struct.blink::web_pref::WebPreferences"* %2, i64 0, i32 103
  %221 = getelementptr inbounds %"class.blink::mojom::internal::WebPreferences_Data", %"class.blink::mojom::internal::WebPreferences_Data"* %0, i64 0, i32 27
  %222 = getelementptr inbounds %"struct.mojo::internal::Pointer.0", %"struct.mojo::internal::Pointer.0"* %221, i64 0, i32 0
  %223 = load i64, i64* %222, align 8
  %224 = icmp eq i64 %223, 0
  %225 = bitcast %"struct.mojo::internal::Pointer.0"* %221 to i8*
  %226 = getelementptr inbounds i8, i8* %225, i64 %223
  br i1 %224, label %272, label %227

227:                                              ; preds = %219
  %228 = getelementptr inbounds i8, i8* %226, i64 8
  %229 = getelementptr inbounds i8, i8* %226, i64 4
  %230 = bitcast i8* %229 to i32*
  %231 = load i32, i32* %230, align 1
  %232 = zext i32 %231 to i64
  %233 = tail call i1 @llvm.is.constant.i64(i64 %232) #7
  %234 = icmp ult i32 %231, 23
  %235 = and i1 %234, %233
  br i1 %235, label %236, label %254

236:                                              ; preds = %227
  %237 = bitcast %"class.std::__1::basic_string"* %220 to %"struct.std::__1::basic_string<char, std::__1::char_traits<char>, std::__1::allocator<char> >::__short"*
  %238 = getelementptr inbounds %"struct.std::__1::basic_string<char, std::__1::char_traits<char>, std::__1::allocator<char> >::__short", %"struct.std::__1::basic_string<char, std::__1::char_traits<char>, std::__1::allocator<char> >::__short"* %237, i64 0, i32 1, i32 0
  %239 = load i8, i8* %238, align 1
  %240 = icmp slt i8 %239, 0
  br i1 %240, label %241, label %245

241:                                              ; preds = %236
  %242 = getelementptr inbounds %"struct.blink::web_pref::WebPreferences", %"struct.blink::web_pref::WebPreferences"* %2, i64 0, i32 103, i32 0, i32 0, i32 0, i32 0, i32 0, i32 1
  store i64 %232, i64* %242, align 8
  %243 = getelementptr inbounds %"class.std::__1::basic_string", %"class.std::__1::basic_string"* %220, i64 0, i32 0, i32 0, i32 0, i32 0, i32 0, i32 0
  %244 = load i8*, i8** %243, align 8
  br label %248

245:                                              ; preds = %236
  %246 = trunc i32 %231 to i8
  store i8 %246, i8* %238, align 1
  %247 = bitcast %"class.std::__1::basic_string"* %220 to i8*
  br label %248

248:                                              ; preds = %245, %241
  %249 = phi i8* [ %244, %241 ], [ %247, %245 ]
  %250 = icmp eq i32 %231, 0
  br i1 %250, label %252, label %251

251:                                              ; preds = %248
  tail call void @llvm.memmove.p0i8.p0i8.i64(i8* align 1 %249, i8* align 1 %228, i64 %232, i1 false) #7
  br label %252

252:                                              ; preds = %251, %248
  %253 = getelementptr inbounds i8, i8* %249, i64 %232
  store i8 0, i8* %253, align 1
  br label %257

254:                                              ; preds = %227
  %255 = tail call dereferenceable(24) %"class.std::__1::basic_string"* @_ZNSt3__112basic_stringIcNS_11char_traitsIcEENS_9allocatorIcEEE17__assign_externalEPKcm(%"class.std::__1::basic_string"* %220, i8* %228, i64 %232) #7
  %256 = bitcast %"class.std::__1::basic_string"* %220 to %"struct.std::__1::basic_string<char, std::__1::char_traits<char>, std::__1::allocator<char> >::__short"*
  br label %257

257:                                              ; preds = %254, %252
  %258 = phi %"struct.std::__1::basic_string<char, std::__1::char_traits<char>, std::__1::allocator<char> >::__short"* [ %256, %254 ], [ %237, %252 ]
  %259 = getelementptr inbounds %"struct.std::__1::basic_string<char, std::__1::char_traits<char>, std::__1::allocator<char> >::__short", %"struct.std::__1::basic_string<char, std::__1::char_traits<char>, std::__1::allocator<char> >::__short"* %258, i64 0, i32 1, i32 0
  %260 = load i8, i8* %259, align 1
  %261 = icmp slt i8 %260, 0
  %262 = getelementptr inbounds %"class.std::__1::basic_string", %"class.std::__1::basic_string"* %220, i64 0, i32 0, i32 0, i32 0, i32 0, i32 0, i32 0
  %263 = load i8*, i8** %262, align 8
  %264 = bitcast %"class.std::__1::basic_string"* %220 to i8*
  %265 = select i1 %261, i8* %263, i8* %264
  %266 = getelementptr inbounds %"struct.blink::web_pref::WebPreferences", %"struct.blink::web_pref::WebPreferences"* %2, i64 0, i32 103, i32 0, i32 0, i32 0, i32 0, i32 0, i32 1
  %267 = load i64, i64* %266, align 8
  %268 = zext i8 %260 to i64
  %269 = select i1 %261, i64 %267, i64 %268
  %270 = tail call zeroext i1 @_ZN4base12IsStringUTF8ENS_16BasicStringPieceIcNSt3__111char_traitsIcEEEE(i8* %265, i64 %269) #7
  br i1 %270, label %272, label %271

271:                                              ; preds = %257
  tail call void @_ZN4mojo8internal34RecordInvalidStringDeserializationEv() #7
  br label %272

272:                                              ; preds = %271, %257, %219
  %273 = getelementptr inbounds %"struct.blink::web_pref::WebPreferences", %"struct.blink::web_pref::WebPreferences"* %2, i64 0, i32 104
  %274 = getelementptr inbounds %"class.blink::mojom::internal::WebPreferences_Data", %"class.blink::mojom::internal::WebPreferences_Data"* %0, i64 0, i32 28
  %275 = getelementptr inbounds %"struct.mojo::internal::Pointer.0", %"struct.mojo::internal::Pointer.0"* %274, i64 0, i32 0
  %276 = load i64, i64* %275, align 8
  %277 = icmp eq i64 %276, 0
  %278 = bitcast %"struct.mojo::internal::Pointer.0"* %274 to i8*
  %279 = getelementptr inbounds i8, i8* %278, i64 %276
  br i1 %277, label %325, label %280

280:                                              ; preds = %272
  %281 = getelementptr inbounds i8, i8* %279, i64 8
  %282 = getelementptr inbounds i8, i8* %279, i64 4
  %283 = bitcast i8* %282 to i32*
  %284 = load i32, i32* %283, align 1
  %285 = zext i32 %284 to i64
  %286 = tail call i1 @llvm.is.constant.i64(i64 %285) #7
  %287 = icmp ult i32 %284, 23
  %288 = and i1 %287, %286
  br i1 %288, label %289, label %307

289:                                              ; preds = %280
  %290 = bitcast %"class.std::__1::basic_string"* %273 to %"struct.std::__1::basic_string<char, std::__1::char_traits<char>, std::__1::allocator<char> >::__short"*
  %291 = getelementptr inbounds %"struct.std::__1::basic_string<char, std::__1::char_traits<char>, std::__1::allocator<char> >::__short", %"struct.std::__1::basic_string<char, std::__1::char_traits<char>, std::__1::allocator<char> >::__short"* %290, i64 0, i32 1, i32 0
  %292 = load i8, i8* %291, align 1
  %293 = icmp slt i8 %292, 0
  br i1 %293, label %294, label %298

294:                                              ; preds = %289
  %295 = getelementptr inbounds %"struct.blink::web_pref::WebPreferences", %"struct.blink::web_pref::WebPreferences"* %2, i64 0, i32 104, i32 0, i32 0, i32 0, i32 0, i32 0, i32 1
  store i64 %285, i64* %295, align 8
  %296 = getelementptr inbounds %"class.std::__1::basic_string", %"class.std::__1::basic_string"* %273, i64 0, i32 0, i32 0, i32 0, i32 0, i32 0, i32 0
  %297 = load i8*, i8** %296, align 8
  br label %301

298:                                              ; preds = %289
  %299 = trunc i32 %284 to i8
  store i8 %299, i8* %291, align 1
  %300 = bitcast %"class.std::__1::basic_string"* %273 to i8*
  br label %301

301:                                              ; preds = %298, %294
  %302 = phi i8* [ %297, %294 ], [ %300, %298 ]
  %303 = icmp eq i32 %284, 0
  br i1 %303, label %305, label %304

304:                                              ; preds = %301
  tail call void @llvm.memmove.p0i8.p0i8.i64(i8* align 1 %302, i8* align 1 %281, i64 %285, i1 false) #7
  br label %305

305:                                              ; preds = %304, %301
  %306 = getelementptr inbounds i8, i8* %302, i64 %285
  store i8 0, i8* %306, align 1
  br label %310

307:                                              ; preds = %280
  %308 = tail call dereferenceable(24) %"class.std::__1::basic_string"* @_ZNSt3__112basic_stringIcNS_11char_traitsIcEENS_9allocatorIcEEE17__assign_externalEPKcm(%"class.std::__1::basic_string"* %273, i8* %281, i64 %285) #7
  %309 = bitcast %"class.std::__1::basic_string"* %273 to %"struct.std::__1::basic_string<char, std::__1::char_traits<char>, std::__1::allocator<char> >::__short"*
  br label %310

310:                                              ; preds = %307, %305
  %311 = phi %"struct.std::__1::basic_string<char, std::__1::char_traits<char>, std::__1::allocator<char> >::__short"* [ %309, %307 ], [ %290, %305 ]
  %312 = getelementptr inbounds %"struct.std::__1::basic_string<char, std::__1::char_traits<char>, std::__1::allocator<char> >::__short", %"struct.std::__1::basic_string<char, std::__1::char_traits<char>, std::__1::allocator<char> >::__short"* %311, i64 0, i32 1, i32 0
  %313 = load i8, i8* %312, align 1
  %314 = icmp slt i8 %313, 0
  %315 = getelementptr inbounds %"class.std::__1::basic_string", %"class.std::__1::basic_string"* %273, i64 0, i32 0, i32 0, i32 0, i32 0, i32 0, i32 0
  %316 = load i8*, i8** %315, align 8
  %317 = bitcast %"class.std::__1::basic_string"* %273 to i8*
  %318 = select i1 %314, i8* %316, i8* %317
  %319 = getelementptr inbounds %"struct.blink::web_pref::WebPreferences", %"struct.blink::web_pref::WebPreferences"* %2, i64 0, i32 104, i32 0, i32 0, i32 0, i32 0, i32 0, i32 1
  %320 = load i64, i64* %319, align 8
  %321 = zext i8 %313 to i64
  %322 = select i1 %314, i64 %320, i64 %321
  %323 = tail call zeroext i1 @_ZN4base12IsStringUTF8ENS_16BasicStringPieceIcNSt3__111char_traitsIcEEEE(i8* %318, i64 %322) #7
  br i1 %323, label %325, label %324

324:                                              ; preds = %310
  tail call void @_ZN4mojo8internal34RecordInvalidStringDeserializationEv() #7
  br label %325

325:                                              ; preds = %324, %310, %272
  %326 = getelementptr inbounds %"struct.blink::web_pref::WebPreferences", %"struct.blink::web_pref::WebPreferences"* %2, i64 0, i32 105
  %327 = getelementptr inbounds %"class.blink::mojom::internal::WebPreferences_Data", %"class.blink::mojom::internal::WebPreferences_Data"* %0, i64 0, i32 29
  %328 = getelementptr inbounds %"struct.mojo::internal::Pointer.0", %"struct.mojo::internal::Pointer.0"* %327, i64 0, i32 0
  %329 = load i64, i64* %328, align 8
  %330 = icmp eq i64 %329, 0
  %331 = bitcast %"struct.mojo::internal::Pointer.0"* %327 to i8*
  %332 = getelementptr inbounds i8, i8* %331, i64 %329
  br i1 %330, label %378, label %333

333:                                              ; preds = %325
  %334 = getelementptr inbounds i8, i8* %332, i64 8
  %335 = getelementptr inbounds i8, i8* %332, i64 4
  %336 = bitcast i8* %335 to i32*
  %337 = load i32, i32* %336, align 1
  %338 = zext i32 %337 to i64
  %339 = tail call i1 @llvm.is.constant.i64(i64 %338) #7
  %340 = icmp ult i32 %337, 23
  %341 = and i1 %340, %339
  br i1 %341, label %342, label %360

342:                                              ; preds = %333
  %343 = bitcast %"class.std::__1::basic_string"* %326 to %"struct.std::__1::basic_string<char, std::__1::char_traits<char>, std::__1::allocator<char> >::__short"*
  %344 = getelementptr inbounds %"struct.std::__1::basic_string<char, std::__1::char_traits<char>, std::__1::allocator<char> >::__short", %"struct.std::__1::basic_string<char, std::__1::char_traits<char>, std::__1::allocator<char> >::__short"* %343, i64 0, i32 1, i32 0
  %345 = load i8, i8* %344, align 1
  %346 = icmp slt i8 %345, 0
  br i1 %346, label %347, label %351

347:                                              ; preds = %342
  %348 = getelementptr inbounds %"struct.blink::web_pref::WebPreferences", %"struct.blink::web_pref::WebPreferences"* %2, i64 0, i32 105, i32 0, i32 0, i32 0, i32 0, i32 0, i32 1
  store i64 %338, i64* %348, align 8
  %349 = getelementptr inbounds %"class.std::__1::basic_string", %"class.std::__1::basic_string"* %326, i64 0, i32 0, i32 0, i32 0, i32 0, i32 0, i32 0
  %350 = load i8*, i8** %349, align 8
  br label %354

351:                                              ; preds = %342
  %352 = trunc i32 %337 to i8
  store i8 %352, i8* %344, align 1
  %353 = bitcast %"class.std::__1::basic_string"* %326 to i8*
  br label %354

354:                                              ; preds = %351, %347
  %355 = phi i8* [ %350, %347 ], [ %353, %351 ]
  %356 = icmp eq i32 %337, 0
  br i1 %356, label %358, label %357

357:                                              ; preds = %354
  tail call void @llvm.memmove.p0i8.p0i8.i64(i8* align 1 %355, i8* align 1 %334, i64 %338, i1 false) #7
  br label %358

358:                                              ; preds = %357, %354
  %359 = getelementptr inbounds i8, i8* %355, i64 %338
  store i8 0, i8* %359, align 1
  br label %363

360:                                              ; preds = %333
  %361 = tail call dereferenceable(24) %"class.std::__1::basic_string"* @_ZNSt3__112basic_stringIcNS_11char_traitsIcEENS_9allocatorIcEEE17__assign_externalEPKcm(%"class.std::__1::basic_string"* %326, i8* %334, i64 %338) #7
  %362 = bitcast %"class.std::__1::basic_string"* %326 to %"struct.std::__1::basic_string<char, std::__1::char_traits<char>, std::__1::allocator<char> >::__short"*
  br label %363

363:                                              ; preds = %360, %358
  %364 = phi %"struct.std::__1::basic_string<char, std::__1::char_traits<char>, std::__1::allocator<char> >::__short"* [ %362, %360 ], [ %343, %358 ]
  %365 = getelementptr inbounds %"struct.std::__1::basic_string<char, std::__1::char_traits<char>, std::__1::allocator<char> >::__short", %"struct.std::__1::basic_string<char, std::__1::char_traits<char>, std::__1::allocator<char> >::__short"* %364, i64 0, i32 1, i32 0
  %366 = load i8, i8* %365, align 1
  %367 = icmp slt i8 %366, 0
  %368 = getelementptr inbounds %"class.std::__1::basic_string", %"class.std::__1::basic_string"* %326, i64 0, i32 0, i32 0, i32 0, i32 0, i32 0, i32 0
  %369 = load i8*, i8** %368, align 8
  %370 = bitcast %"class.std::__1::basic_string"* %326 to i8*
  %371 = select i1 %367, i8* %369, i8* %370
  %372 = getelementptr inbounds %"struct.blink::web_pref::WebPreferences", %"struct.blink::web_pref::WebPreferences"* %2, i64 0, i32 105, i32 0, i32 0, i32 0, i32 0, i32 0, i32 1
  %373 = load i64, i64* %372, align 8
  %374 = zext i8 %366 to i64
  %375 = select i1 %367, i64 %373, i64 %374
  %376 = tail call zeroext i1 @_ZN4base12IsStringUTF8ENS_16BasicStringPieceIcNSt3__111char_traitsIcEEEE(i8* %371, i64 %375) #7
  br i1 %376, label %378, label %377

377:                                              ; preds = %363
  tail call void @_ZN4mojo8internal34RecordInvalidStringDeserializationEv() #7
  br label %378

378:                                              ; preds = %377, %363, %325
  %379 = getelementptr inbounds %"struct.blink::web_pref::WebPreferences", %"struct.blink::web_pref::WebPreferences"* %2, i64 0, i32 106
  %380 = getelementptr inbounds %"class.blink::mojom::internal::WebPreferences_Data", %"class.blink::mojom::internal::WebPreferences_Data"* %0, i64 0, i32 30
  %381 = getelementptr inbounds %"struct.mojo::internal::Pointer.0", %"struct.mojo::internal::Pointer.0"* %380, i64 0, i32 0
  %382 = load i64, i64* %381, align 8
  %383 = icmp eq i64 %382, 0
  %384 = bitcast %"struct.mojo::internal::Pointer.0"* %380 to i8*
  %385 = getelementptr inbounds i8, i8* %384, i64 %382
  br i1 %383, label %431, label %386

386:                                              ; preds = %378
  %387 = getelementptr inbounds i8, i8* %385, i64 8
  %388 = getelementptr inbounds i8, i8* %385, i64 4
  %389 = bitcast i8* %388 to i32*
  %390 = load i32, i32* %389, align 1
  %391 = zext i32 %390 to i64
  %392 = tail call i1 @llvm.is.constant.i64(i64 %391) #7
  %393 = icmp ult i32 %390, 23
  %394 = and i1 %393, %392
  br i1 %394, label %395, label %413

395:                                              ; preds = %386
  %396 = bitcast %"class.std::__1::basic_string"* %379 to %"struct.std::__1::basic_string<char, std::__1::char_traits<char>, std::__1::allocator<char> >::__short"*
  %397 = getelementptr inbounds %"struct.std::__1::basic_string<char, std::__1::char_traits<char>, std::__1::allocator<char> >::__short", %"struct.std::__1::basic_string<char, std::__1::char_traits<char>, std::__1::allocator<char> >::__short"* %396, i64 0, i32 1, i32 0
  %398 = load i8, i8* %397, align 1
  %399 = icmp slt i8 %398, 0
  br i1 %399, label %400, label %404

400:                                              ; preds = %395
  %401 = getelementptr inbounds %"struct.blink::web_pref::WebPreferences", %"struct.blink::web_pref::WebPreferences"* %2, i64 0, i32 106, i32 0, i32 0, i32 0, i32 0, i32 0, i32 1
  store i64 %391, i64* %401, align 8
  %402 = getelementptr inbounds %"class.std::__1::basic_string", %"class.std::__1::basic_string"* %379, i64 0, i32 0, i32 0, i32 0, i32 0, i32 0, i32 0
  %403 = load i8*, i8** %402, align 8
  br label %407

404:                                              ; preds = %395
  %405 = trunc i32 %390 to i8
  store i8 %405, i8* %397, align 1
  %406 = bitcast %"class.std::__1::basic_string"* %379 to i8*
  br label %407

407:                                              ; preds = %404, %400
  %408 = phi i8* [ %403, %400 ], [ %406, %404 ]
  %409 = icmp eq i32 %390, 0
  br i1 %409, label %411, label %410

410:                                              ; preds = %407
  tail call void @llvm.memmove.p0i8.p0i8.i64(i8* align 1 %408, i8* align 1 %387, i64 %391, i1 false) #7
  br label %411

411:                                              ; preds = %410, %407
  %412 = getelementptr inbounds i8, i8* %408, i64 %391
  store i8 0, i8* %412, align 1
  br label %416

413:                                              ; preds = %386
  %414 = tail call dereferenceable(24) %"class.std::__1::basic_string"* @_ZNSt3__112basic_stringIcNS_11char_traitsIcEENS_9allocatorIcEEE17__assign_externalEPKcm(%"class.std::__1::basic_string"* %379, i8* %387, i64 %391) #7
  %415 = bitcast %"class.std::__1::basic_string"* %379 to %"struct.std::__1::basic_string<char, std::__1::char_traits<char>, std::__1::allocator<char> >::__short"*
  br label %416

416:                                              ; preds = %413, %411
  %417 = phi %"struct.std::__1::basic_string<char, std::__1::char_traits<char>, std::__1::allocator<char> >::__short"* [ %415, %413 ], [ %396, %411 ]
  %418 = getelementptr inbounds %"struct.std::__1::basic_string<char, std::__1::char_traits<char>, std::__1::allocator<char> >::__short", %"struct.std::__1::basic_string<char, std::__1::char_traits<char>, std::__1::allocator<char> >::__short"* %417, i64 0, i32 1, i32 0
  %419 = load i8, i8* %418, align 1
  %420 = icmp slt i8 %419, 0
  %421 = getelementptr inbounds %"class.std::__1::basic_string", %"class.std::__1::basic_string"* %379, i64 0, i32 0, i32 0, i32 0, i32 0, i32 0, i32 0
  %422 = load i8*, i8** %421, align 8
  %423 = bitcast %"class.std::__1::basic_string"* %379 to i8*
  %424 = select i1 %420, i8* %422, i8* %423
  %425 = getelementptr inbounds %"struct.blink::web_pref::WebPreferences", %"struct.blink::web_pref::WebPreferences"* %2, i64 0, i32 106, i32 0, i32 0, i32 0, i32 0, i32 0, i32 1
  %426 = load i64, i64* %425, align 8
  %427 = zext i8 %419 to i64
  %428 = select i1 %420, i64 %426, i64 %427
  %429 = tail call zeroext i1 @_ZN4base12IsStringUTF8ENS_16BasicStringPieceIcNSt3__111char_traitsIcEEEE(i8* %424, i64 %428) #7
  br i1 %429, label %431, label %430

430:                                              ; preds = %416
  tail call void @_ZN4mojo8internal34RecordInvalidStringDeserializationEv() #7
  br label %431

431:                                              ; preds = %430, %416, %378
  %432 = getelementptr inbounds %"struct.blink::web_pref::WebPreferences", %"struct.blink::web_pref::WebPreferences"* %2, i64 0, i32 107
  %433 = getelementptr inbounds %"class.blink::mojom::internal::WebPreferences_Data", %"class.blink::mojom::internal::WebPreferences_Data"* %0, i64 0, i32 31
  %434 = getelementptr inbounds %"struct.mojo::internal::Pointer.0", %"struct.mojo::internal::Pointer.0"* %433, i64 0, i32 0
  %435 = load i64, i64* %434, align 8
  %436 = icmp eq i64 %435, 0
  %437 = bitcast %"struct.mojo::internal::Pointer.0"* %433 to i8*
  %438 = getelementptr inbounds i8, i8* %437, i64 %435
  br i1 %436, label %484, label %439

439:                                              ; preds = %431
  %440 = getelementptr inbounds i8, i8* %438, i64 8
  %441 = getelementptr inbounds i8, i8* %438, i64 4
  %442 = bitcast i8* %441 to i32*
  %443 = load i32, i32* %442, align 1
  %444 = zext i32 %443 to i64
  %445 = tail call i1 @llvm.is.constant.i64(i64 %444) #7
  %446 = icmp ult i32 %443, 23
  %447 = and i1 %446, %445
  br i1 %447, label %448, label %466

448:                                              ; preds = %439
  %449 = bitcast %"class.std::__1::basic_string"* %432 to %"struct.std::__1::basic_string<char, std::__1::char_traits<char>, std::__1::allocator<char> >::__short"*
  %450 = getelementptr inbounds %"struct.std::__1::basic_string<char, std::__1::char_traits<char>, std::__1::allocator<char> >::__short", %"struct.std::__1::basic_string<char, std::__1::char_traits<char>, std::__1::allocator<char> >::__short"* %449, i64 0, i32 1, i32 0
  %451 = load i8, i8* %450, align 1
  %452 = icmp slt i8 %451, 0
  br i1 %452, label %453, label %457

453:                                              ; preds = %448
  %454 = getelementptr inbounds %"struct.blink::web_pref::WebPreferences", %"struct.blink::web_pref::WebPreferences"* %2, i64 0, i32 107, i32 0, i32 0, i32 0, i32 0, i32 0, i32 1
  store i64 %444, i64* %454, align 8
  %455 = getelementptr inbounds %"class.std::__1::basic_string", %"class.std::__1::basic_string"* %432, i64 0, i32 0, i32 0, i32 0, i32 0, i32 0, i32 0
  %456 = load i8*, i8** %455, align 8
  br label %460

457:                                              ; preds = %448
  %458 = trunc i32 %443 to i8
  store i8 %458, i8* %450, align 1
  %459 = bitcast %"class.std::__1::basic_string"* %432 to i8*
  br label %460

460:                                              ; preds = %457, %453
  %461 = phi i8* [ %456, %453 ], [ %459, %457 ]
  %462 = icmp eq i32 %443, 0
  br i1 %462, label %464, label %463

463:                                              ; preds = %460
  tail call void @llvm.memmove.p0i8.p0i8.i64(i8* align 1 %461, i8* align 1 %440, i64 %444, i1 false) #7
  br label %464

464:                                              ; preds = %463, %460
  %465 = getelementptr inbounds i8, i8* %461, i64 %444
  store i8 0, i8* %465, align 1
  br label %469

466:                                              ; preds = %439
  %467 = tail call dereferenceable(24) %"class.std::__1::basic_string"* @_ZNSt3__112basic_stringIcNS_11char_traitsIcEENS_9allocatorIcEEE17__assign_externalEPKcm(%"class.std::__1::basic_string"* %432, i8* %440, i64 %444) #7
  %468 = bitcast %"class.std::__1::basic_string"* %432 to %"struct.std::__1::basic_string<char, std::__1::char_traits<char>, std::__1::allocator<char> >::__short"*
  br label %469

469:                                              ; preds = %466, %464
  %470 = phi %"struct.std::__1::basic_string<char, std::__1::char_traits<char>, std::__1::allocator<char> >::__short"* [ %468, %466 ], [ %449, %464 ]
  %471 = getelementptr inbounds %"struct.std::__1::basic_string<char, std::__1::char_traits<char>, std::__1::allocator<char> >::__short", %"struct.std::__1::basic_string<char, std::__1::char_traits<char>, std::__1::allocator<char> >::__short"* %470, i64 0, i32 1, i32 0
  %472 = load i8, i8* %471, align 1
  %473 = icmp slt i8 %472, 0
  %474 = getelementptr inbounds %"class.std::__1::basic_string", %"class.std::__1::basic_string"* %432, i64 0, i32 0, i32 0, i32 0, i32 0, i32 0, i32 0
  %475 = load i8*, i8** %474, align 8
  %476 = bitcast %"class.std::__1::basic_string"* %432 to i8*
  %477 = select i1 %473, i8* %475, i8* %476
  %478 = getelementptr inbounds %"struct.blink::web_pref::WebPreferences", %"struct.blink::web_pref::WebPreferences"* %2, i64 0, i32 107, i32 0, i32 0, i32 0, i32 0, i32 0, i32 1
  %479 = load i64, i64* %478, align 8
  %480 = zext i8 %472 to i64
  %481 = select i1 %473, i64 %479, i64 %480
  %482 = tail call zeroext i1 @_ZN4base12IsStringUTF8ENS_16BasicStringPieceIcNSt3__111char_traitsIcEEEE(i8* %477, i64 %481) #7
  br i1 %482, label %484, label %483

483:                                              ; preds = %469
  tail call void @_ZN4mojo8internal34RecordInvalidStringDeserializationEv() #7
  br label %484

484:                                              ; preds = %483, %469, %431
  %485 = getelementptr inbounds %"struct.blink::web_pref::WebPreferences", %"struct.blink::web_pref::WebPreferences"* %2, i64 0, i32 108
  %486 = getelementptr inbounds %"class.blink::mojom::internal::WebPreferences_Data", %"class.blink::mojom::internal::WebPreferences_Data"* %0, i64 0, i32 32
  %487 = getelementptr inbounds %"struct.mojo::internal::Pointer.0", %"struct.mojo::internal::Pointer.0"* %486, i64 0, i32 0
  %488 = load i64, i64* %487, align 8
  %489 = icmp eq i64 %488, 0
  %490 = bitcast %"struct.mojo::internal::Pointer.0"* %486 to i8*
  %491 = getelementptr inbounds i8, i8* %490, i64 %488
  br i1 %489, label %537, label %492

492:                                              ; preds = %484
  %493 = getelementptr inbounds i8, i8* %491, i64 8
  %494 = getelementptr inbounds i8, i8* %491, i64 4
  %495 = bitcast i8* %494 to i32*
  %496 = load i32, i32* %495, align 1
  %497 = zext i32 %496 to i64
  %498 = tail call i1 @llvm.is.constant.i64(i64 %497) #7
  %499 = icmp ult i32 %496, 23
  %500 = and i1 %499, %498
  br i1 %500, label %501, label %519

501:                                              ; preds = %492
  %502 = bitcast %"class.std::__1::basic_string"* %485 to %"struct.std::__1::basic_string<char, std::__1::char_traits<char>, std::__1::allocator<char> >::__short"*
  %503 = getelementptr inbounds %"struct.std::__1::basic_string<char, std::__1::char_traits<char>, std::__1::allocator<char> >::__short", %"struct.std::__1::basic_string<char, std::__1::char_traits<char>, std::__1::allocator<char> >::__short"* %502, i64 0, i32 1, i32 0
  %504 = load i8, i8* %503, align 1
  %505 = icmp slt i8 %504, 0
  br i1 %505, label %506, label %510

506:                                              ; preds = %501
  %507 = getelementptr inbounds %"struct.blink::web_pref::WebPreferences", %"struct.blink::web_pref::WebPreferences"* %2, i64 0, i32 108, i32 0, i32 0, i32 0, i32 0, i32 0, i32 1
  store i64 %497, i64* %507, align 8
  %508 = getelementptr inbounds %"class.std::__1::basic_string", %"class.std::__1::basic_string"* %485, i64 0, i32 0, i32 0, i32 0, i32 0, i32 0, i32 0
  %509 = load i8*, i8** %508, align 8
  br label %513

510:                                              ; preds = %501
  %511 = trunc i32 %496 to i8
  store i8 %511, i8* %503, align 1
  %512 = bitcast %"class.std::__1::basic_string"* %485 to i8*
  br label %513

513:                                              ; preds = %510, %506
  %514 = phi i8* [ %509, %506 ], [ %512, %510 ]
  %515 = icmp eq i32 %496, 0
  br i1 %515, label %517, label %516

516:                                              ; preds = %513
  tail call void @llvm.memmove.p0i8.p0i8.i64(i8* align 1 %514, i8* align 1 %493, i64 %497, i1 false) #7
  br label %517

517:                                              ; preds = %516, %513
  %518 = getelementptr inbounds i8, i8* %514, i64 %497
  store i8 0, i8* %518, align 1
  br label %522

519:                                              ; preds = %492
  %520 = tail call dereferenceable(24) %"class.std::__1::basic_string"* @_ZNSt3__112basic_stringIcNS_11char_traitsIcEENS_9allocatorIcEEE17__assign_externalEPKcm(%"class.std::__1::basic_string"* %485, i8* %493, i64 %497) #7
  %521 = bitcast %"class.std::__1::basic_string"* %485 to %"struct.std::__1::basic_string<char, std::__1::char_traits<char>, std::__1::allocator<char> >::__short"*
  br label %522

522:                                              ; preds = %519, %517
  %523 = phi %"struct.std::__1::basic_string<char, std::__1::char_traits<char>, std::__1::allocator<char> >::__short"* [ %521, %519 ], [ %502, %517 ]
  %524 = getelementptr inbounds %"struct.std::__1::basic_string<char, std::__1::char_traits<char>, std::__1::allocator<char> >::__short", %"struct.std::__1::basic_string<char, std::__1::char_traits<char>, std::__1::allocator<char> >::__short"* %523, i64 0, i32 1, i32 0
  %525 = load i8, i8* %524, align 1
  %526 = icmp slt i8 %525, 0
  %527 = getelementptr inbounds %"class.std::__1::basic_string", %"class.std::__1::basic_string"* %485, i64 0, i32 0, i32 0, i32 0, i32 0, i32 0, i32 0
  %528 = load i8*, i8** %527, align 8
  %529 = bitcast %"class.std::__1::basic_string"* %485 to i8*
  %530 = select i1 %526, i8* %528, i8* %529
  %531 = getelementptr inbounds %"struct.blink::web_pref::WebPreferences", %"struct.blink::web_pref::WebPreferences"* %2, i64 0, i32 108, i32 0, i32 0, i32 0, i32 0, i32 0, i32 1
  %532 = load i64, i64* %531, align 8
  %533 = zext i8 %525 to i64
  %534 = select i1 %526, i64 %532, i64 %533
  %535 = tail call zeroext i1 @_ZN4base12IsStringUTF8ENS_16BasicStringPieceIcNSt3__111char_traitsIcEEEE(i8* %530, i64 %534) #7
  br i1 %535, label %537, label %536

536:                                              ; preds = %522
  tail call void @_ZN4mojo8internal34RecordInvalidStringDeserializationEv() #7
  br label %537

537:                                              ; preds = %536, %522, %484
  %538 = getelementptr inbounds %"struct.blink::web_pref::WebPreferences", %"struct.blink::web_pref::WebPreferences"* %2, i64 0, i32 109
  %539 = getelementptr inbounds %"class.blink::mojom::internal::WebPreferences_Data", %"class.blink::mojom::internal::WebPreferences_Data"* %0, i64 0, i32 33
  %540 = getelementptr inbounds %"struct.mojo::internal::Pointer.0", %"struct.mojo::internal::Pointer.0"* %539, i64 0, i32 0
  %541 = load i64, i64* %540, align 8
  %542 = icmp eq i64 %541, 0
  %543 = bitcast %"struct.mojo::internal::Pointer.0"* %539 to i8*
  %544 = getelementptr inbounds i8, i8* %543, i64 %541
  br i1 %542, label %590, label %545

545:                                              ; preds = %537
  %546 = getelementptr inbounds i8, i8* %544, i64 8
  %547 = getelementptr inbounds i8, i8* %544, i64 4
  %548 = bitcast i8* %547 to i32*
  %549 = load i32, i32* %548, align 1
  %550 = zext i32 %549 to i64
  %551 = tail call i1 @llvm.is.constant.i64(i64 %550) #7
  %552 = icmp ult i32 %549, 23
  %553 = and i1 %552, %551
  br i1 %553, label %554, label %572

554:                                              ; preds = %545
  %555 = bitcast %"class.std::__1::basic_string"* %538 to %"struct.std::__1::basic_string<char, std::__1::char_traits<char>, std::__1::allocator<char> >::__short"*
  %556 = getelementptr inbounds %"struct.std::__1::basic_string<char, std::__1::char_traits<char>, std::__1::allocator<char> >::__short", %"struct.std::__1::basic_string<char, std::__1::char_traits<char>, std::__1::allocator<char> >::__short"* %555, i64 0, i32 1, i32 0
  %557 = load i8, i8* %556, align 1
  %558 = icmp slt i8 %557, 0
  br i1 %558, label %559, label %563

559:                                              ; preds = %554
  %560 = getelementptr inbounds %"struct.blink::web_pref::WebPreferences", %"struct.blink::web_pref::WebPreferences"* %2, i64 0, i32 109, i32 0, i32 0, i32 0, i32 0, i32 0, i32 1
  store i64 %550, i64* %560, align 8
  %561 = getelementptr inbounds %"class.std::__1::basic_string", %"class.std::__1::basic_string"* %538, i64 0, i32 0, i32 0, i32 0, i32 0, i32 0, i32 0
  %562 = load i8*, i8** %561, align 8
  br label %566

563:                                              ; preds = %554
  %564 = trunc i32 %549 to i8
  store i8 %564, i8* %556, align 1
  %565 = bitcast %"class.std::__1::basic_string"* %538 to i8*
  br label %566

566:                                              ; preds = %563, %559
  %567 = phi i8* [ %562, %559 ], [ %565, %563 ]
  %568 = icmp eq i32 %549, 0
  br i1 %568, label %570, label %569

569:                                              ; preds = %566
  tail call void @llvm.memmove.p0i8.p0i8.i64(i8* align 1 %567, i8* align 1 %546, i64 %550, i1 false) #7
  br label %570

570:                                              ; preds = %569, %566
  %571 = getelementptr inbounds i8, i8* %567, i64 %550
  store i8 0, i8* %571, align 1
  br label %575

572:                                              ; preds = %545
  %573 = tail call dereferenceable(24) %"class.std::__1::basic_string"* @_ZNSt3__112basic_stringIcNS_11char_traitsIcEENS_9allocatorIcEEE17__assign_externalEPKcm(%"class.std::__1::basic_string"* %538, i8* %546, i64 %550) #7
  %574 = bitcast %"class.std::__1::basic_string"* %538 to %"struct.std::__1::basic_string<char, std::__1::char_traits<char>, std::__1::allocator<char> >::__short"*
  br label %575

575:                                              ; preds = %572, %570
  %576 = phi %"struct.std::__1::basic_string<char, std::__1::char_traits<char>, std::__1::allocator<char> >::__short"* [ %574, %572 ], [ %555, %570 ]
  %577 = getelementptr inbounds %"struct.std::__1::basic_string<char, std::__1::char_traits<char>, std::__1::allocator<char> >::__short", %"struct.std::__1::basic_string<char, std::__1::char_traits<char>, std::__1::allocator<char> >::__short"* %576, i64 0, i32 1, i32 0
  %578 = load i8, i8* %577, align 1
  %579 = icmp slt i8 %578, 0
  %580 = getelementptr inbounds %"class.std::__1::basic_string", %"class.std::__1::basic_string"* %538, i64 0, i32 0, i32 0, i32 0, i32 0, i32 0, i32 0
  %581 = load i8*, i8** %580, align 8
  %582 = bitcast %"class.std::__1::basic_string"* %538 to i8*
  %583 = select i1 %579, i8* %581, i8* %582
  %584 = getelementptr inbounds %"struct.blink::web_pref::WebPreferences", %"struct.blink::web_pref::WebPreferences"* %2, i64 0, i32 109, i32 0, i32 0, i32 0, i32 0, i32 0, i32 1
  %585 = load i64, i64* %584, align 8
  %586 = zext i8 %578 to i64
  %587 = select i1 %579, i64 %585, i64 %586
  %588 = tail call zeroext i1 @_ZN4base12IsStringUTF8ENS_16BasicStringPieceIcNSt3__111char_traitsIcEEEE(i8* %583, i64 %587) #7
  br i1 %588, label %590, label %589

589:                                              ; preds = %575
  tail call void @_ZN4mojo8internal34RecordInvalidStringDeserializationEv() #7
  br label %590

590:                                              ; preds = %589, %575, %537
  %591 = getelementptr inbounds %"struct.blink::web_pref::WebPreferences", %"struct.blink::web_pref::WebPreferences"* %2, i64 0, i32 110
  %592 = getelementptr inbounds %"class.blink::mojom::internal::WebPreferences_Data", %"class.blink::mojom::internal::WebPreferences_Data"* %0, i64 0, i32 34
  %593 = getelementptr inbounds %"struct.mojo::internal::Pointer.0", %"struct.mojo::internal::Pointer.0"* %592, i64 0, i32 0
  %594 = load i64, i64* %593, align 8
  %595 = icmp eq i64 %594, 0
  %596 = bitcast %"struct.mojo::internal::Pointer.0"* %592 to i8*
  %597 = getelementptr inbounds i8, i8* %596, i64 %594
  br i1 %595, label %643, label %598

598:                                              ; preds = %590
  %599 = getelementptr inbounds i8, i8* %597, i64 8
  %600 = getelementptr inbounds i8, i8* %597, i64 4
  %601 = bitcast i8* %600 to i32*
  %602 = load i32, i32* %601, align 1
  %603 = zext i32 %602 to i64
  %604 = tail call i1 @llvm.is.constant.i64(i64 %603) #7
  %605 = icmp ult i32 %602, 23
  %606 = and i1 %605, %604
  br i1 %606, label %607, label %625

607:                                              ; preds = %598
  %608 = bitcast %"class.std::__1::basic_string"* %591 to %"struct.std::__1::basic_string<char, std::__1::char_traits<char>, std::__1::allocator<char> >::__short"*
  %609 = getelementptr inbounds %"struct.std::__1::basic_string<char, std::__1::char_traits<char>, std::__1::allocator<char> >::__short", %"struct.std::__1::basic_string<char, std::__1::char_traits<char>, std::__1::allocator<char> >::__short"* %608, i64 0, i32 1, i32 0
  %610 = load i8, i8* %609, align 1
  %611 = icmp slt i8 %610, 0
  br i1 %611, label %612, label %616

612:                                              ; preds = %607
  %613 = getelementptr inbounds %"struct.blink::web_pref::WebPreferences", %"struct.blink::web_pref::WebPreferences"* %2, i64 0, i32 110, i32 0, i32 0, i32 0, i32 0, i32 0, i32 1
  store i64 %603, i64* %613, align 8
  %614 = getelementptr inbounds %"class.std::__1::basic_string", %"class.std::__1::basic_string"* %591, i64 0, i32 0, i32 0, i32 0, i32 0, i32 0, i32 0
  %615 = load i8*, i8** %614, align 8
  br label %619

616:                                              ; preds = %607
  %617 = trunc i32 %602 to i8
  store i8 %617, i8* %609, align 1
  %618 = bitcast %"class.std::__1::basic_string"* %591 to i8*
  br label %619

619:                                              ; preds = %616, %612
  %620 = phi i8* [ %615, %612 ], [ %618, %616 ]
  %621 = icmp eq i32 %602, 0
  br i1 %621, label %623, label %622

622:                                              ; preds = %619
  tail call void @llvm.memmove.p0i8.p0i8.i64(i8* align 1 %620, i8* align 1 %599, i64 %603, i1 false) #7
  br label %623

623:                                              ; preds = %622, %619
  %624 = getelementptr inbounds i8, i8* %620, i64 %603
  store i8 0, i8* %624, align 1
  br label %628

625:                                              ; preds = %598
  %626 = tail call dereferenceable(24) %"class.std::__1::basic_string"* @_ZNSt3__112basic_stringIcNS_11char_traitsIcEENS_9allocatorIcEEE17__assign_externalEPKcm(%"class.std::__1::basic_string"* %591, i8* %599, i64 %603) #7
  %627 = bitcast %"class.std::__1::basic_string"* %591 to %"struct.std::__1::basic_string<char, std::__1::char_traits<char>, std::__1::allocator<char> >::__short"*
  br label %628

628:                                              ; preds = %625, %623
  %629 = phi %"struct.std::__1::basic_string<char, std::__1::char_traits<char>, std::__1::allocator<char> >::__short"* [ %627, %625 ], [ %608, %623 ]
  %630 = getelementptr inbounds %"struct.std::__1::basic_string<char, std::__1::char_traits<char>, std::__1::allocator<char> >::__short", %"struct.std::__1::basic_string<char, std::__1::char_traits<char>, std::__1::allocator<char> >::__short"* %629, i64 0, i32 1, i32 0
  %631 = load i8, i8* %630, align 1
  %632 = icmp slt i8 %631, 0
  %633 = getelementptr inbounds %"class.std::__1::basic_string", %"class.std::__1::basic_string"* %591, i64 0, i32 0, i32 0, i32 0, i32 0, i32 0, i32 0
  %634 = load i8*, i8** %633, align 8
  %635 = bitcast %"class.std::__1::basic_string"* %591 to i8*
  %636 = select i1 %632, i8* %634, i8* %635
  %637 = getelementptr inbounds %"struct.blink::web_pref::WebPreferences", %"struct.blink::web_pref::WebPreferences"* %2, i64 0, i32 110, i32 0, i32 0, i32 0, i32 0, i32 0, i32 1
  %638 = load i64, i64* %637, align 8
  %639 = zext i8 %631 to i64
  %640 = select i1 %632, i64 %638, i64 %639
  %641 = tail call zeroext i1 @_ZN4base12IsStringUTF8ENS_16BasicStringPieceIcNSt3__111char_traitsIcEEEE(i8* %636, i64 %640) #7
  br i1 %641, label %643, label %642

642:                                              ; preds = %628
  tail call void @_ZN4mojo8internal34RecordInvalidStringDeserializationEv() #7
  br label %643

643:                                              ; preds = %642, %628, %590
  %644 = getelementptr inbounds %"struct.blink::web_pref::WebPreferences", %"struct.blink::web_pref::WebPreferences"* %2, i64 0, i32 111
  %645 = getelementptr inbounds %"class.blink::mojom::internal::WebPreferences_Data", %"class.blink::mojom::internal::WebPreferences_Data"* %0, i64 0, i32 35
  %646 = getelementptr inbounds %"struct.mojo::internal::Pointer.0", %"struct.mojo::internal::Pointer.0"* %645, i64 0, i32 0
  %647 = load i64, i64* %646, align 8
  %648 = icmp eq i64 %647, 0
  %649 = bitcast %"struct.mojo::internal::Pointer.0"* %645 to i8*
  %650 = getelementptr inbounds i8, i8* %649, i64 %647
  br i1 %648, label %696, label %651

651:                                              ; preds = %643
  %652 = getelementptr inbounds i8, i8* %650, i64 8
  %653 = getelementptr inbounds i8, i8* %650, i64 4
  %654 = bitcast i8* %653 to i32*
  %655 = load i32, i32* %654, align 1
  %656 = zext i32 %655 to i64
  %657 = tail call i1 @llvm.is.constant.i64(i64 %656) #7
  %658 = icmp ult i32 %655, 23
  %659 = and i1 %658, %657
  br i1 %659, label %660, label %678

660:                                              ; preds = %651
  %661 = bitcast %"class.std::__1::basic_string"* %644 to %"struct.std::__1::basic_string<char, std::__1::char_traits<char>, std::__1::allocator<char> >::__short"*
  %662 = getelementptr inbounds %"struct.std::__1::basic_string<char, std::__1::char_traits<char>, std::__1::allocator<char> >::__short", %"struct.std::__1::basic_string<char, std::__1::char_traits<char>, std::__1::allocator<char> >::__short"* %661, i64 0, i32 1, i32 0
  %663 = load i8, i8* %662, align 1
  %664 = icmp slt i8 %663, 0
  br i1 %664, label %665, label %669

665:                                              ; preds = %660
  %666 = getelementptr inbounds %"struct.blink::web_pref::WebPreferences", %"struct.blink::web_pref::WebPreferences"* %2, i64 0, i32 111, i32 0, i32 0, i32 0, i32 0, i32 0, i32 1
  store i64 %656, i64* %666, align 8
  %667 = getelementptr inbounds %"class.std::__1::basic_string", %"class.std::__1::basic_string"* %644, i64 0, i32 0, i32 0, i32 0, i32 0, i32 0, i32 0
  %668 = load i8*, i8** %667, align 8
  br label %672

669:                                              ; preds = %660
  %670 = trunc i32 %655 to i8
  store i8 %670, i8* %662, align 1
  %671 = bitcast %"class.std::__1::basic_string"* %644 to i8*
  br label %672

672:                                              ; preds = %669, %665
  %673 = phi i8* [ %668, %665 ], [ %671, %669 ]
  %674 = icmp eq i32 %655, 0
  br i1 %674, label %676, label %675

675:                                              ; preds = %672
  tail call void @llvm.memmove.p0i8.p0i8.i64(i8* align 1 %673, i8* align 1 %652, i64 %656, i1 false) #7
  br label %676

676:                                              ; preds = %675, %672
  %677 = getelementptr inbounds i8, i8* %673, i64 %656
  store i8 0, i8* %677, align 1
  br label %681

678:                                              ; preds = %651
  %679 = tail call dereferenceable(24) %"class.std::__1::basic_string"* @_ZNSt3__112basic_stringIcNS_11char_traitsIcEENS_9allocatorIcEEE17__assign_externalEPKcm(%"class.std::__1::basic_string"* %644, i8* %652, i64 %656) #7
  %680 = bitcast %"class.std::__1::basic_string"* %644 to %"struct.std::__1::basic_string<char, std::__1::char_traits<char>, std::__1::allocator<char> >::__short"*
  br label %681

681:                                              ; preds = %678, %676
  %682 = phi %"struct.std::__1::basic_string<char, std::__1::char_traits<char>, std::__1::allocator<char> >::__short"* [ %680, %678 ], [ %661, %676 ]
  %683 = getelementptr inbounds %"struct.std::__1::basic_string<char, std::__1::char_traits<char>, std::__1::allocator<char> >::__short", %"struct.std::__1::basic_string<char, std::__1::char_traits<char>, std::__1::allocator<char> >::__short"* %682, i64 0, i32 1, i32 0
  %684 = load i8, i8* %683, align 1
  %685 = icmp slt i8 %684, 0
  %686 = getelementptr inbounds %"class.std::__1::basic_string", %"class.std::__1::basic_string"* %644, i64 0, i32 0, i32 0, i32 0, i32 0, i32 0, i32 0
  %687 = load i8*, i8** %686, align 8
  %688 = bitcast %"class.std::__1::basic_string"* %644 to i8*
  %689 = select i1 %685, i8* %687, i8* %688
  %690 = getelementptr inbounds %"struct.blink::web_pref::WebPreferences", %"struct.blink::web_pref::WebPreferences"* %2, i64 0, i32 111, i32 0, i32 0, i32 0, i32 0, i32 0, i32 1
  %691 = load i64, i64* %690, align 8
  %692 = zext i8 %684 to i64
  %693 = select i1 %685, i64 %691, i64 %692
  %694 = tail call zeroext i1 @_ZN4base12IsStringUTF8ENS_16BasicStringPieceIcNSt3__111char_traitsIcEEEE(i8* %689, i64 %693) #7
  br i1 %694, label %696, label %695

695:                                              ; preds = %681
  tail call void @_ZN4mojo8internal34RecordInvalidStringDeserializationEv() #7
  br label %696

696:                                              ; preds = %695, %681, %643
  %697 = getelementptr inbounds %"struct.blink::web_pref::WebPreferences", %"struct.blink::web_pref::WebPreferences"* %2, i64 0, i32 69
  %698 = getelementptr inbounds %"class.blink::mojom::internal::WebPreferences_Data", %"class.blink::mojom::internal::WebPreferences_Data"* %0, i64 0, i32 16
  %699 = load i32, i32* %698, align 1
  store i32 %699, i32* %697, align 4
  %700 = getelementptr inbounds %"struct.blink::web_pref::WebPreferences", %"struct.blink::web_pref::WebPreferences"* %2, i64 0, i32 71
  %701 = getelementptr inbounds %"class.blink::mojom::internal::WebPreferences_Data", %"class.blink::mojom::internal::WebPreferences_Data"* %0, i64 0, i32 18
  %702 = load i32, i32* %701, align 1
  store i32 %702, i32* %700, align 4
  %703 = getelementptr inbounds %"struct.blink::web_pref::WebPreferences", %"struct.blink::web_pref::WebPreferences"* %2, i64 0, i32 84
  %704 = getelementptr inbounds %"class.blink::mojom::internal::WebPreferences_Data", %"class.blink::mojom::internal::WebPreferences_Data"* %0, i64 0, i32 21
  %705 = load i32, i32* %704, align 1
  store i32 %705, i32* %703, align 4
  %706 = getelementptr inbounds %"struct.blink::web_pref::WebPreferences", %"struct.blink::web_pref::WebPreferences"* %2, i64 0, i32 98
  %707 = getelementptr inbounds %"class.blink::mojom::internal::WebPreferences_Data", %"class.blink::mojom::internal::WebPreferences_Data"* %0, i64 0, i32 24
  %708 = load i32, i32* %707, align 1
  store i32 %708, i32* %706, align 4
  %709 = getelementptr inbounds %"struct.blink::web_pref::WebPreferences", %"struct.blink::web_pref::WebPreferences"* %2, i64 0, i32 129
  %710 = getelementptr inbounds %"class.blink::mojom::internal::WebPreferences_Data", %"class.blink::mojom::internal::WebPreferences_Data"* %0, i64 0, i32 42
  %711 = load i32, i32* %710, align 1
  store i32 %711, i32* %709, align 4
  %712 = getelementptr inbounds %"struct.blink::web_pref::WebPreferences", %"struct.blink::web_pref::WebPreferences"* %2, i64 0, i32 133
  %713 = getelementptr inbounds %"class.blink::mojom::internal::WebPreferences_Data", %"class.blink::mojom::internal::WebPreferences_Data"* %0, i64 0, i32 43
  %714 = load i32, i32* %713, align 1
  store i32 %714, i32* %712, align 4
  %715 = getelementptr inbounds %"class.blink::mojom::internal::WebPreferences_Data", %"class.blink::mojom::internal::WebPreferences_Data"* %0, i64 0, i32 36
  %716 = getelementptr inbounds %"struct.mojo::internal::Pointer.1", %"struct.mojo::internal::Pointer.1"* %715, i64 0, i32 0
  %717 = load i64, i64* %716, align 8
  %718 = icmp eq i64 %717, 0
  br i1 %718, label %725, label %719

719:                                              ; preds = %696
  %720 = bitcast %"struct.mojo::internal::Pointer.1"* %715 to i8*
  %721 = getelementptr inbounds i8, i8* %720, i64 %717
  %722 = getelementptr inbounds %"struct.blink::web_pref::WebPreferences", %"struct.blink::web_pref::WebPreferences"* %2, i64 0, i32 117
  %723 = bitcast i8* %721 to %"class.url::mojom::internal::Url_Data"*
  %724 = tail call zeroext i1 @_ZN4mojo12StructTraitsIN3url5mojom11UrlDataViewE4GURLE4ReadES3_PS4_(%"class.url::mojom::internal::Url_Data"* nonnull %723, %"class.mojo::Message"* %1, %class.GURL* %722) #7
  br i1 %724, label %725, label %1231

725:                                              ; preds = %696, %719
  %726 = getelementptr inbounds %"class.blink::mojom::internal::WebPreferences_Data", %"class.blink::mojom::internal::WebPreferences_Data"* %0, i64 0, i32 8
  %727 = load i32, i32* %726, align 1
  %728 = getelementptr inbounds %"struct.blink::web_pref::WebPreferences", %"struct.blink::web_pref::WebPreferences"* %2, i64 0, i32 7
  store i32 %727, i32* %728, align 8
  %729 = getelementptr inbounds %"class.blink::mojom::internal::WebPreferences_Data", %"class.blink::mojom::internal::WebPreferences_Data"* %0, i64 0, i32 9
  %730 = load i32, i32* %729, align 1
  %731 = getelementptr inbounds %"struct.blink::web_pref::WebPreferences", %"struct.blink::web_pref::WebPreferences"* %2, i64 0, i32 8
  store i32 %730, i32* %731, align 4
  %732 = getelementptr inbounds %"class.blink::mojom::internal::WebPreferences_Data", %"class.blink::mojom::internal::WebPreferences_Data"* %0, i64 0, i32 10
  %733 = load i32, i32* %732, align 1
  %734 = getelementptr inbounds %"struct.blink::web_pref::WebPreferences", %"struct.blink::web_pref::WebPreferences"* %2, i64 0, i32 9
  store i32 %733, i32* %734, align 8
  %735 = getelementptr inbounds %"class.blink::mojom::internal::WebPreferences_Data", %"class.blink::mojom::internal::WebPreferences_Data"* %0, i64 0, i32 11
  %736 = load i32, i32* %735, align 1
  %737 = getelementptr inbounds %"struct.blink::web_pref::WebPreferences", %"struct.blink::web_pref::WebPreferences"* %2, i64 0, i32 10
  store i32 %736, i32* %737, align 4
  %738 = getelementptr inbounds %"class.blink::mojom::internal::WebPreferences_Data", %"class.blink::mojom::internal::WebPreferences_Data"* %0, i64 0, i32 13
  %739 = load i64, i64* %738, align 1
  %740 = getelementptr inbounds %"struct.blink::web_pref::WebPreferences", %"struct.blink::web_pref::WebPreferences"* %2, i64 0, i32 12
  %741 = trunc i64 %739 to i8
  %742 = and i8 %741, 1
  store i8 %742, i8* %740, align 8
  %743 = load i64, i64* %738, align 1
  %744 = getelementptr inbounds %"struct.blink::web_pref::WebPreferences", %"struct.blink::web_pref::WebPreferences"* %2, i64 0, i32 13
  %745 = lshr i64 %743, 1
  %746 = trunc i64 %745 to i8
  %747 = and i8 %746, 1
  store i8 %747, i8* %744, align 1
  %748 = load i64, i64* %738, align 1
  %749 = getelementptr inbounds %"struct.blink::web_pref::WebPreferences", %"struct.blink::web_pref::WebPreferences"* %2, i64 0, i32 14
  %750 = lshr i64 %748, 2
  %751 = trunc i64 %750 to i8
  %752 = and i8 %751, 1
  store i8 %752, i8* %749, align 2
  %753 = load i64, i64* %738, align 1
  %754 = getelementptr inbounds %"struct.blink::web_pref::WebPreferences", %"struct.blink::web_pref::WebPreferences"* %2, i64 0, i32 15
  %755 = lshr i64 %753, 3
  %756 = trunc i64 %755 to i8
  %757 = and i8 %756, 1
  store i8 %757, i8* %754, align 1
  %758 = load i64, i64* %738, align 1
  %759 = getelementptr inbounds %"struct.blink::web_pref::WebPreferences", %"struct.blink::web_pref::WebPreferences"* %2, i64 0, i32 16
  %760 = lshr i64 %758, 4
  %761 = trunc i64 %760 to i8
  %762 = and i8 %761, 1
  store i8 %762, i8* %759, align 4
  %763 = load i64, i64* %738, align 1
  %764 = getelementptr inbounds %"struct.blink::web_pref::WebPreferences", %"struct.blink::web_pref::WebPreferences"* %2, i64 0, i32 17
  %765 = lshr i64 %763, 5
  %766 = trunc i64 %765 to i8
  %767 = and i8 %766, 1
  store i8 %767, i8* %764, align 1
  %768 = load i64, i64* %738, align 1
  %769 = getelementptr inbounds %"struct.blink::web_pref::WebPreferences", %"struct.blink::web_pref::WebPreferences"* %2, i64 0, i32 18
  %770 = lshr i64 %768, 6
  %771 = trunc i64 %770 to i8
  %772 = and i8 %771, 1
  store i8 %772, i8* %769, align 2
  %773 = load i64, i64* %738, align 1
  %774 = trunc i64 %773 to i8
  %775 = getelementptr inbounds %"struct.blink::web_pref::WebPreferences", %"struct.blink::web_pref::WebPreferences"* %2, i64 0, i32 19
  %776 = lshr i8 %774, 7
  store i8 %776, i8* %775, align 1
  %777 = load i64, i64* %738, align 1
  %778 = getelementptr inbounds %"struct.blink::web_pref::WebPreferences", %"struct.blink::web_pref::WebPreferences"* %2, i64 0, i32 20
  %779 = lshr i64 %777, 8
  %780 = trunc i64 %779 to i8
  %781 = and i8 %780, 1
  store i8 %781, i8* %778, align 8
  %782 = load i64, i64* %738, align 1
  %783 = getelementptr inbounds %"struct.blink::web_pref::WebPreferences", %"struct.blink::web_pref::WebPreferences"* %2, i64 0, i32 21
  %784 = lshr i64 %782, 9
  %785 = trunc i64 %784 to i8
  %786 = and i8 %785, 1
  store i8 %786, i8* %783, align 1
  %787 = load i64, i64* %738, align 1
  %788 = getelementptr inbounds %"struct.blink::web_pref::WebPreferences", %"struct.blink::web_pref::WebPreferences"* %2, i64 0, i32 22
  %789 = lshr i64 %787, 10
  %790 = trunc i64 %789 to i8
  %791 = and i8 %790, 1
  store i8 %791, i8* %788, align 2
  %792 = load i64, i64* %738, align 1
  %793 = getelementptr inbounds %"struct.blink::web_pref::WebPreferences", %"struct.blink::web_pref::WebPreferences"* %2, i64 0, i32 23
  %794 = lshr i64 %792, 11
  %795 = trunc i64 %794 to i8
  %796 = and i8 %795, 1
  store i8 %796, i8* %793, align 1
  %797 = load i64, i64* %738, align 1
  %798 = getelementptr inbounds %"struct.blink::web_pref::WebPreferences", %"struct.blink::web_pref::WebPreferences"* %2, i64 0, i32 24
  %799 = lshr i64 %797, 12
  %800 = trunc i64 %799 to i8
  %801 = and i8 %800, 1
  store i8 %801, i8* %798, align 4
  %802 = load i64, i64* %738, align 1
  %803 = getelementptr inbounds %"struct.blink::web_pref::WebPreferences", %"struct.blink::web_pref::WebPreferences"* %2, i64 0, i32 25
  %804 = lshr i64 %802, 13
  %805 = trunc i64 %804 to i8
  %806 = and i8 %805, 1
  store i8 %806, i8* %803, align 1
  %807 = load i64, i64* %738, align 1
  %808 = getelementptr inbounds %"struct.blink::web_pref::WebPreferences", %"struct.blink::web_pref::WebPreferences"* %2, i64 0, i32 26
  %809 = lshr i64 %807, 14
  %810 = trunc i64 %809 to i8
  %811 = and i8 %810, 1
  store i8 %811, i8* %808, align 2
  %812 = load i64, i64* %738, align 1
  %813 = trunc i64 %812 to i16
  %814 = getelementptr inbounds %"struct.blink::web_pref::WebPreferences", %"struct.blink::web_pref::WebPreferences"* %2, i64 0, i32 27
  %815 = lshr i16 %813, 15
  %816 = trunc i16 %815 to i8
  store i8 %816, i8* %814, align 1
  %817 = load i64, i64* %738, align 1
  %818 = getelementptr inbounds %"struct.blink::web_pref::WebPreferences", %"struct.blink::web_pref::WebPreferences"* %2, i64 0, i32 28
  %819 = lshr i64 %817, 16
  %820 = trunc i64 %819 to i8
  %821 = and i8 %820, 1
  store i8 %821, i8* %818, align 8
  %822 = load i64, i64* %738, align 1
  %823 = getelementptr inbounds %"struct.blink::web_pref::WebPreferences", %"struct.blink::web_pref::WebPreferences"* %2, i64 0, i32 29
  %824 = lshr i64 %822, 17
  %825 = trunc i64 %824 to i8
  %826 = and i8 %825, 1
  store i8 %826, i8* %823, align 1
  %827 = load i64, i64* %738, align 1
  %828 = getelementptr inbounds %"struct.blink::web_pref::WebPreferences", %"struct.blink::web_pref::WebPreferences"* %2, i64 0, i32 30
  %829 = lshr i64 %827, 18
  %830 = trunc i64 %829 to i8
  %831 = and i8 %830, 1
  store i8 %831, i8* %828, align 2
  %832 = load i64, i64* %738, align 1
  %833 = getelementptr inbounds %"struct.blink::web_pref::WebPreferences", %"struct.blink::web_pref::WebPreferences"* %2, i64 0, i32 31
  %834 = lshr i64 %832, 19
  %835 = trunc i64 %834 to i8
  %836 = and i8 %835, 1
  store i8 %836, i8* %833, align 1
  %837 = load i64, i64* %738, align 1
  %838 = getelementptr inbounds %"struct.blink::web_pref::WebPreferences", %"struct.blink::web_pref::WebPreferences"* %2, i64 0, i32 32
  %839 = lshr i64 %837, 20
  %840 = trunc i64 %839 to i8
  %841 = and i8 %840, 1
  store i8 %841, i8* %838, align 4
  %842 = load i64, i64* %738, align 1
  %843 = getelementptr inbounds %"struct.blink::web_pref::WebPreferences", %"struct.blink::web_pref::WebPreferences"* %2, i64 0, i32 33
  %844 = lshr i64 %842, 21
  %845 = trunc i64 %844 to i8
  %846 = and i8 %845, 1
  store i8 %846, i8* %843, align 1
  %847 = load i64, i64* %738, align 1
  %848 = getelementptr inbounds %"struct.blink::web_pref::WebPreferences", %"struct.blink::web_pref::WebPreferences"* %2, i64 0, i32 34
  %849 = lshr i64 %847, 22
  %850 = trunc i64 %849 to i8
  %851 = and i8 %850, 1
  store i8 %851, i8* %848, align 2
  %852 = load i64, i64* %738, align 1
  %853 = getelementptr inbounds %"struct.blink::web_pref::WebPreferences", %"struct.blink::web_pref::WebPreferences"* %2, i64 0, i32 35
  %854 = lshr i64 %852, 23
  %855 = trunc i64 %854 to i8
  %856 = and i8 %855, 1
  store i8 %856, i8* %853, align 1
  %857 = load i64, i64* %738, align 1
  %858 = getelementptr inbounds %"struct.blink::web_pref::WebPreferences", %"struct.blink::web_pref::WebPreferences"* %2, i64 0, i32 36
  %859 = lshr i64 %857, 24
  %860 = trunc i64 %859 to i8
  %861 = and i8 %860, 1
  store i8 %861, i8* %858, align 8
  %862 = load i64, i64* %738, align 1
  %863 = getelementptr inbounds %"struct.blink::web_pref::WebPreferences", %"struct.blink::web_pref::WebPreferences"* %2, i64 0, i32 37
  %864 = lshr i64 %862, 25
  %865 = trunc i64 %864 to i8
  %866 = and i8 %865, 1
  store i8 %866, i8* %863, align 1
  %867 = load i64, i64* %738, align 1
  %868 = getelementptr inbounds %"struct.blink::web_pref::WebPreferences", %"struct.blink::web_pref::WebPreferences"* %2, i64 0, i32 38
  %869 = lshr i64 %867, 26
  %870 = trunc i64 %869 to i8
  %871 = and i8 %870, 1
  store i8 %871, i8* %868, align 2
  %872 = load i64, i64* %738, align 1
  %873 = getelementptr inbounds %"struct.blink::web_pref::WebPreferences", %"struct.blink::web_pref::WebPreferences"* %2, i64 0, i32 39
  %874 = lshr i64 %872, 27
  %875 = trunc i64 %874 to i8
  %876 = and i8 %875, 1
  store i8 %876, i8* %873, align 1
  %877 = load i64, i64* %738, align 1
  %878 = getelementptr inbounds %"struct.blink::web_pref::WebPreferences", %"struct.blink::web_pref::WebPreferences"* %2, i64 0, i32 40
  %879 = lshr i64 %877, 28
  %880 = trunc i64 %879 to i8
  %881 = and i8 %880, 1
  store i8 %881, i8* %878, align 4
  %882 = load i64, i64* %738, align 1
  %883 = getelementptr inbounds %"struct.blink::web_pref::WebPreferences", %"struct.blink::web_pref::WebPreferences"* %2, i64 0, i32 41
  %884 = lshr i64 %882, 29
  %885 = trunc i64 %884 to i8
  %886 = and i8 %885, 1
  store i8 %886, i8* %883, align 1
  %887 = load i64, i64* %738, align 1
  %888 = getelementptr inbounds %"struct.blink::web_pref::WebPreferences", %"struct.blink::web_pref::WebPreferences"* %2, i64 0, i32 42
  %889 = lshr i64 %887, 30
  %890 = trunc i64 %889 to i8
  %891 = and i8 %890, 1
  store i8 %891, i8* %888, align 2
  %892 = load i64, i64* %738, align 1
  %893 = trunc i64 %892 to i32
  %894 = getelementptr inbounds %"struct.blink::web_pref::WebPreferences", %"struct.blink::web_pref::WebPreferences"* %2, i64 0, i32 43
  %895 = lshr i32 %893, 31
  %896 = trunc i32 %895 to i8
  store i8 %896, i8* %894, align 1
  %897 = load i64, i64* %738, align 1
  %898 = getelementptr inbounds %"struct.blink::web_pref::WebPreferences", %"struct.blink::web_pref::WebPreferences"* %2, i64 0, i32 44
  %899 = lshr i64 %897, 32
  %900 = trunc i64 %899 to i8
  %901 = and i8 %900, 1
  store i8 %901, i8* %898, align 8
  %902 = load i64, i64* %738, align 1
  %903 = getelementptr inbounds %"struct.blink::web_pref::WebPreferences", %"struct.blink::web_pref::WebPreferences"* %2, i64 0, i32 45
  %904 = lshr i64 %902, 33
  %905 = trunc i64 %904 to i8
  %906 = and i8 %905, 1
  store i8 %906, i8* %903, align 1
  %907 = load i64, i64* %738, align 1
  %908 = getelementptr inbounds %"struct.blink::web_pref::WebPreferences", %"struct.blink::web_pref::WebPreferences"* %2, i64 0, i32 46
  %909 = lshr i64 %907, 34
  %910 = trunc i64 %909 to i8
  %911 = and i8 %910, 1
  store i8 %911, i8* %908, align 2
  %912 = load i64, i64* %738, align 1
  %913 = getelementptr inbounds %"struct.blink::web_pref::WebPreferences", %"struct.blink::web_pref::WebPreferences"* %2, i64 0, i32 47
  %914 = lshr i64 %912, 35
  %915 = trunc i64 %914 to i8
  %916 = and i8 %915, 1
  store i8 %916, i8* %913, align 1
  %917 = load i64, i64* %738, align 1
  %918 = getelementptr inbounds %"struct.blink::web_pref::WebPreferences", %"struct.blink::web_pref::WebPreferences"* %2, i64 0, i32 48
  %919 = lshr i64 %917, 36
  %920 = trunc i64 %919 to i8
  %921 = and i8 %920, 1
  store i8 %921, i8* %918, align 4
  %922 = load i64, i64* %738, align 1
  %923 = getelementptr inbounds %"struct.blink::web_pref::WebPreferences", %"struct.blink::web_pref::WebPreferences"* %2, i64 0, i32 49
  %924 = lshr i64 %922, 37
  %925 = trunc i64 %924 to i8
  %926 = and i8 %925, 1
  store i8 %926, i8* %923, align 1
  %927 = load i64, i64* %738, align 1
  %928 = getelementptr inbounds %"struct.blink::web_pref::WebPreferences", %"struct.blink::web_pref::WebPreferences"* %2, i64 0, i32 50
  %929 = lshr i64 %927, 38
  %930 = trunc i64 %929 to i8
  %931 = and i8 %930, 1
  store i8 %931, i8* %928, align 2
  %932 = load i64, i64* %738, align 1
  %933 = getelementptr inbounds %"struct.blink::web_pref::WebPreferences", %"struct.blink::web_pref::WebPreferences"* %2, i64 0, i32 51
  %934 = lshr i64 %932, 39
  %935 = trunc i64 %934 to i8
  %936 = and i8 %935, 1
  store i8 %936, i8* %933, align 1
  %937 = load i64, i64* %738, align 1
  %938 = getelementptr inbounds %"struct.blink::web_pref::WebPreferences", %"struct.blink::web_pref::WebPreferences"* %2, i64 0, i32 52
  %939 = lshr i64 %937, 40
  %940 = trunc i64 %939 to i8
  %941 = and i8 %940, 1
  store i8 %941, i8* %938, align 8
  %942 = load i64, i64* %738, align 1
  %943 = getelementptr inbounds %"struct.blink::web_pref::WebPreferences", %"struct.blink::web_pref::WebPreferences"* %2, i64 0, i32 53
  %944 = lshr i64 %942, 41
  %945 = trunc i64 %944 to i8
  %946 = and i8 %945, 1
  store i8 %946, i8* %943, align 1
  %947 = load i64, i64* %738, align 1
  %948 = getelementptr inbounds %"struct.blink::web_pref::WebPreferences", %"struct.blink::web_pref::WebPreferences"* %2, i64 0, i32 54
  %949 = lshr i64 %947, 42
  %950 = trunc i64 %949 to i8
  %951 = and i8 %950, 1
  store i8 %951, i8* %948, align 2
  %952 = load i64, i64* %738, align 1
  %953 = getelementptr inbounds %"struct.blink::web_pref::WebPreferences", %"struct.blink::web_pref::WebPreferences"* %2, i64 0, i32 55
  %954 = lshr i64 %952, 43
  %955 = trunc i64 %954 to i8
  %956 = and i8 %955, 1
  store i8 %956, i8* %953, align 1
  %957 = load i64, i64* %738, align 1
  %958 = getelementptr inbounds %"struct.blink::web_pref::WebPreferences", %"struct.blink::web_pref::WebPreferences"* %2, i64 0, i32 56
  %959 = lshr i64 %957, 44
  %960 = trunc i64 %959 to i8
  %961 = and i8 %960, 1
  store i8 %961, i8* %958, align 4
  %962 = load i64, i64* %738, align 1
  %963 = getelementptr inbounds %"struct.blink::web_pref::WebPreferences", %"struct.blink::web_pref::WebPreferences"* %2, i64 0, i32 57
  %964 = lshr i64 %962, 45
  %965 = trunc i64 %964 to i8
  %966 = and i8 %965, 1
  store i8 %966, i8* %963, align 1
  %967 = load i64, i64* %738, align 1
  %968 = getelementptr inbounds %"struct.blink::web_pref::WebPreferences", %"struct.blink::web_pref::WebPreferences"* %2, i64 0, i32 58
  %969 = lshr i64 %967, 46
  %970 = trunc i64 %969 to i8
  %971 = and i8 %970, 1
  store i8 %971, i8* %968, align 2
  %972 = load i64, i64* %738, align 1
  %973 = getelementptr inbounds %"struct.blink::web_pref::WebPreferences", %"struct.blink::web_pref::WebPreferences"* %2, i64 0, i32 59
  %974 = lshr i64 %972, 47
  %975 = trunc i64 %974 to i8
  %976 = and i8 %975, 1
  store i8 %976, i8* %973, align 1
  %977 = load i64, i64* %738, align 1
  %978 = lshr i64 %977, 41
  %979 = trunc i64 %978 to i8
  %980 = and i8 %979, 1
  store i8 %980, i8* %943, align 1
  %981 = load i64, i64* %738, align 1
  %982 = getelementptr inbounds %"struct.blink::web_pref::WebPreferences", %"struct.blink::web_pref::WebPreferences"* %2, i64 0, i32 61
  %983 = lshr i64 %981, 48
  %984 = trunc i64 %983 to i8
  %985 = and i8 %984, 1
  store i8 %985, i8* %982, align 1
  %986 = load i64, i64* %738, align 1
  %987 = getelementptr inbounds %"struct.blink::web_pref::WebPreferences", %"struct.blink::web_pref::WebPreferences"* %2, i64 0, i32 62
  %988 = lshr i64 %986, 49
  %989 = trunc i64 %988 to i8
  %990 = and i8 %989, 1
  store i8 %990, i8* %987, align 2
  %991 = load i64, i64* %738, align 1
  %992 = getelementptr inbounds %"struct.blink::web_pref::WebPreferences", %"struct.blink::web_pref::WebPreferences"* %2, i64 0, i32 63
  %993 = lshr i64 %991, 50
  %994 = trunc i64 %993 to i8
  %995 = and i8 %994, 1
  store i8 %995, i8* %992, align 1
  %996 = load i64, i64* %738, align 1
  %997 = getelementptr inbounds %"struct.blink::web_pref::WebPreferences", %"struct.blink::web_pref::WebPreferences"* %2, i64 0, i32 64
  %998 = lshr i64 %996, 51
  %999 = trunc i64 %998 to i8
  %1000 = and i8 %999, 1
  store i8 %1000, i8* %997, align 4
  %1001 = load i64, i64* %738, align 1
  %1002 = getelementptr inbounds %"struct.blink::web_pref::WebPreferences", %"struct.blink::web_pref::WebPreferences"* %2, i64 0, i32 65
  %1003 = lshr i64 %1001, 52
  %1004 = trunc i64 %1003 to i8
  %1005 = and i8 %1004, 1
  store i8 %1005, i8* %1002, align 1
  %1006 = getelementptr inbounds %"class.blink::mojom::internal::WebPreferences_Data", %"class.blink::mojom::internal::WebPreferences_Data"* %0, i64 0, i32 14
  %1007 = load i32, i32* %1006, align 1
  %1008 = getelementptr inbounds %"struct.blink::web_pref::WebPreferences", %"struct.blink::web_pref::WebPreferences"* %2, i64 0, i32 67
  store i32 %1007, i32* %1008, align 8
  %1009 = getelementptr inbounds %"class.blink::mojom::internal::WebPreferences_Data", %"class.blink::mojom::internal::WebPreferences_Data"* %0, i64 0, i32 15
  %1010 = load i32, i32* %1009, align 1
  %1011 = getelementptr inbounds %"struct.blink::web_pref::WebPreferences", %"struct.blink::web_pref::WebPreferences"* %2, i64 0, i32 68
  store i32 %1010, i32* %1011, align 4
  %1012 = getelementptr inbounds %"class.blink::mojom::internal::WebPreferences_Data", %"class.blink::mojom::internal::WebPreferences_Data"* %0, i64 0, i32 17
  %1013 = load i32, i32* %1012, align 1
  %1014 = getelementptr inbounds %"struct.blink::web_pref::WebPreferences", %"struct.blink::web_pref::WebPreferences"* %2, i64 0, i32 70
  store i32 %1013, i32* %1014, align 4
  %1015 = load i64, i64* %738, align 1
  %1016 = getelementptr inbounds %"struct.blink::web_pref::WebPreferences", %"struct.blink::web_pref::WebPreferences"* %2, i64 0, i32 72
  %1017 = lshr i64 %1015, 53
  %1018 = trunc i64 %1017 to i8
  %1019 = and i8 %1018, 1
  store i8 %1019, i8* %1016, align 4
  %1020 = load i64, i64* %738, align 1
  %1021 = getelementptr inbounds %"struct.blink::web_pref::WebPreferences", %"struct.blink::web_pref::WebPreferences"* %2, i64 0, i32 73
  %1022 = lshr i64 %1020, 54
  %1023 = trunc i64 %1022 to i8
  %1024 = and i8 %1023, 1
  store i8 %1024, i8* %1021, align 1
  %1025 = load i64, i64* %738, align 1
  %1026 = getelementptr inbounds %"struct.blink::web_pref::WebPreferences", %"struct.blink::web_pref::WebPreferences"* %2, i64 0, i32 74
  %1027 = lshr i64 %1025, 55
  %1028 = trunc i64 %1027 to i8
  %1029 = and i8 %1028, 1
  store i8 %1029, i8* %1026, align 2
  %1030 = load i64, i64* %738, align 1
  %1031 = getelementptr inbounds %"struct.blink::web_pref::WebPreferences", %"struct.blink::web_pref::WebPreferences"* %2, i64 0, i32 75
  %1032 = lshr i64 %1030, 56
  %1033 = trunc i64 %1032 to i8
  %1034 = and i8 %1033, 1
  store i8 %1034, i8* %1031, align 1
  %1035 = load i64, i64* %738, align 1
  %1036 = getelementptr inbounds %"struct.blink::web_pref::WebPreferences", %"struct.blink::web_pref::WebPreferences"* %2, i64 0, i32 76
  %1037 = lshr i64 %1035, 57
  %1038 = trunc i64 %1037 to i8
  %1039 = and i8 %1038, 1
  store i8 %1039, i8* %1036, align 8
  %1040 = getelementptr inbounds %"class.blink::mojom::internal::WebPreferences_Data", %"class.blink::mojom::internal::WebPreferences_Data"* %0, i64 0, i32 19
  %1041 = load i32, i32* %1040, align 1
  %1042 = getelementptr inbounds %"struct.blink::web_pref::WebPreferences", %"struct.blink::web_pref::WebPreferences"* %2, i64 0, i32 78
  store i32 %1041, i32* %1042, align 4
  %1043 = getelementptr inbounds %"class.blink::mojom::internal::WebPreferences_Data", %"class.blink::mojom::internal::WebPreferences_Data"* %0, i64 0, i32 20
  %1044 = load i32, i32* %1043, align 1
  %1045 = getelementptr inbounds %"struct.blink::web_pref::WebPreferences", %"struct.blink::web_pref::WebPreferences"* %2, i64 0, i32 79
  store i32 %1044, i32* %1045, align 8
  %1046 = load i64, i64* %738, align 1
  %1047 = getelementptr inbounds %"struct.blink::web_pref::WebPreferences", %"struct.blink::web_pref::WebPreferences"* %2, i64 0, i32 80
  %1048 = lshr i64 %1046, 58
  %1049 = trunc i64 %1048 to i8
  %1050 = and i8 %1049, 1
  store i8 %1050, i8* %1047, align 4
  %1051 = load i64, i64* %738, align 1
  %1052 = getelementptr inbounds %"struct.blink::web_pref::WebPreferences", %"struct.blink::web_pref::WebPreferences"* %2, i64 0, i32 81
  %1053 = lshr i64 %1051, 59
  %1054 = trunc i64 %1053 to i8
  %1055 = and i8 %1054, 1
  store i8 %1055, i8* %1052, align 1
  %1056 = load i64, i64* %738, align 1
  %1057 = getelementptr inbounds %"struct.blink::web_pref::WebPreferences", %"struct.blink::web_pref::WebPreferences"* %2, i64 0, i32 82
  %1058 = lshr i64 %1056, 60
  %1059 = trunc i64 %1058 to i8
  %1060 = and i8 %1059, 1
  store i8 %1060, i8* %1057, align 2
  %1061 = load i64, i64* %738, align 1
  %1062 = getelementptr inbounds %"struct.blink::web_pref::WebPreferences", %"struct.blink::web_pref::WebPreferences"* %2, i64 0, i32 83
  %1063 = lshr i64 %1061, 61
  %1064 = trunc i64 %1063 to i8
  %1065 = and i8 %1064, 1
  store i8 %1065, i8* %1062, align 1
  %1066 = load i64, i64* %738, align 1
  %1067 = getelementptr inbounds %"struct.blink::web_pref::WebPreferences", %"struct.blink::web_pref::WebPreferences"* %2, i64 0, i32 86
  %1068 = lshr i64 %1066, 62
  %1069 = trunc i64 %1068 to i8
  %1070 = and i8 %1069, 1
  store i8 %1070, i8* %1067, align 1
  %1071 = load i64, i64* %738, align 1
  %1072 = getelementptr inbounds %"struct.blink::web_pref::WebPreferences", %"struct.blink::web_pref::WebPreferences"* %2, i64 0, i32 87
  %1073 = lshr i64 %1071, 63
  %1074 = trunc i64 %1073 to i8
  store i8 %1074, i8* %1072, align 2
  %1075 = getelementptr inbounds %"class.blink::mojom::internal::WebPreferences_Data", %"class.blink::mojom::internal::WebPreferences_Data"* %0, i64 0, i32 22
  %1076 = load i32, i32* %1075, align 1
  %1077 = getelementptr inbounds %"struct.blink::web_pref::WebPreferences", %"struct.blink::web_pref::WebPreferences"* %2, i64 0, i32 88
  %1078 = trunc i32 %1076 to i8
  %1079 = and i8 %1078, 1
  store i8 %1079, i8* %1077, align 1
  %1080 = load i32, i32* %1075, align 1
  %1081 = getelementptr inbounds %"struct.blink::web_pref::WebPreferences", %"struct.blink::web_pref::WebPreferences"* %2, i64 0, i32 89
  %1082 = lshr i32 %1080, 1
  %1083 = trunc i32 %1082 to i8
  %1084 = and i8 %1083, 1
  store i8 %1084, i8* %1081, align 8
  %1085 = load i32, i32* %1075, align 1
  %1086 = getelementptr inbounds %"struct.blink::web_pref::WebPreferences", %"struct.blink::web_pref::WebPreferences"* %2, i64 0, i32 90
  %1087 = lshr i32 %1085, 2
  %1088 = trunc i32 %1087 to i8
  %1089 = and i8 %1088, 1
  store i8 %1089, i8* %1086, align 1
  %1090 = load i32, i32* %1075, align 1
  %1091 = getelementptr inbounds %"struct.blink::web_pref::WebPreferences", %"struct.blink::web_pref::WebPreferences"* %2, i64 0, i32 91
  %1092 = lshr i32 %1090, 3
  %1093 = trunc i32 %1092 to i8
  %1094 = and i8 %1093, 1
  store i8 %1094, i8* %1091, align 2
  %1095 = load i32, i32* %1075, align 1
  %1096 = getelementptr inbounds %"struct.blink::web_pref::WebPreferences", %"struct.blink::web_pref::WebPreferences"* %2, i64 0, i32 92
  %1097 = lshr i32 %1095, 4
  %1098 = trunc i32 %1097 to i8
  %1099 = and i8 %1098, 1
  store i8 %1099, i8* %1096, align 1
  %1100 = getelementptr inbounds %"class.blink::mojom::internal::WebPreferences_Data", %"class.blink::mojom::internal::WebPreferences_Data"* %0, i64 0, i32 23
  %1101 = load i32, i32* %1100, align 1
  %1102 = getelementptr inbounds %"struct.blink::web_pref::WebPreferences", %"struct.blink::web_pref::WebPreferences"* %2, i64 0, i32 93
  store i32 %1101, i32* %1102, align 4
  %1103 = load i32, i32* %1075, align 1
  %1104 = getelementptr inbounds %"struct.blink::web_pref::WebPreferences", %"struct.blink::web_pref::WebPreferences"* %2, i64 0, i32 94
  %1105 = lshr i32 %1103, 5
  %1106 = trunc i32 %1105 to i8
  %1107 = and i8 %1106, 1
  store i8 %1107, i8* %1104, align 8
  %1108 = load i32, i32* %1075, align 1
  %1109 = getelementptr inbounds %"struct.blink::web_pref::WebPreferences", %"struct.blink::web_pref::WebPreferences"* %2, i64 0, i32 95
  %1110 = lshr i32 %1108, 6
  %1111 = trunc i32 %1110 to i8
  %1112 = and i8 %1111, 1
  store i8 %1112, i8* %1109, align 1
  %1113 = load i32, i32* %1075, align 1
  %1114 = trunc i32 %1113 to i8
  %1115 = getelementptr inbounds %"struct.blink::web_pref::WebPreferences", %"struct.blink::web_pref::WebPreferences"* %2, i64 0, i32 96
  %1116 = lshr i8 %1114, 7
  store i8 %1116, i8* %1115, align 2
  %1117 = load i32, i32* %1075, align 1
  %1118 = getelementptr inbounds %"struct.blink::web_pref::WebPreferences", %"struct.blink::web_pref::WebPreferences"* %2, i64 0, i32 99
  %1119 = lshr i32 %1117, 8
  %1120 = trunc i32 %1119 to i8
  %1121 = and i8 %1120, 1
  store i8 %1121, i8* %1118, align 8
  %1122 = load i32, i32* %1075, align 1
  %1123 = getelementptr inbounds %"struct.blink::web_pref::WebPreferences", %"struct.blink::web_pref::WebPreferences"* %2, i64 0, i32 100
  %1124 = lshr i32 %1122, 9
  %1125 = trunc i32 %1124 to i8
  %1126 = and i8 %1125, 1
  store i8 %1126, i8* %1123, align 1
  %1127 = getelementptr inbounds %"class.blink::mojom::internal::WebPreferences_Data", %"class.blink::mojom::internal::WebPreferences_Data"* %0, i64 0, i32 25
  %1128 = bitcast float* %1127 to i32*
  %1129 = load i32, i32* %1128, align 1
  %1130 = getelementptr inbounds %"struct.blink::web_pref::WebPreferences", %"struct.blink::web_pref::WebPreferences"* %2, i64 0, i32 112
  %1131 = bitcast float* %1130 to i32*
  store i32 %1129, i32* %1131, align 8
  %1132 = load i32, i32* %1075, align 1
  %1133 = getelementptr inbounds %"struct.blink::web_pref::WebPreferences", %"struct.blink::web_pref::WebPreferences"* %2, i64 0, i32 113
  %1134 = lshr i32 %1132, 10
  %1135 = trunc i32 %1134 to i8
  %1136 = and i8 %1135, 1
  store i8 %1136, i8* %1133, align 4
  %1137 = load i32, i32* %1075, align 1
  %1138 = getelementptr inbounds %"struct.blink::web_pref::WebPreferences", %"struct.blink::web_pref::WebPreferences"* %2, i64 0, i32 114
  %1139 = lshr i32 %1137, 11
  %1140 = trunc i32 %1139 to i8
  %1141 = and i8 %1140, 1
  store i8 %1141, i8* %1138, align 1
  %1142 = load i32, i32* %1075, align 1
  %1143 = getelementptr inbounds %"struct.blink::web_pref::WebPreferences", %"struct.blink::web_pref::WebPreferences"* %2, i64 0, i32 115
  %1144 = lshr i32 %1142, 12
  %1145 = trunc i32 %1144 to i8
  %1146 = and i8 %1145, 1
  store i8 %1146, i8* %1143, align 2
  %1147 = load i32, i32* %1075, align 1
  %1148 = getelementptr inbounds %"struct.blink::web_pref::WebPreferences", %"struct.blink::web_pref::WebPreferences"* %2, i64 0, i32 116
  %1149 = lshr i32 %1147, 13
  %1150 = trunc i32 %1149 to i8
  %1151 = and i8 %1150, 1
  store i8 %1151, i8* %1148, align 1
  %1152 = load i32, i32* %1075, align 1
  %1153 = getelementptr inbounds %"struct.blink::web_pref::WebPreferences", %"struct.blink::web_pref::WebPreferences"* %2, i64 0, i32 118
  %1154 = lshr i32 %1152, 14
  %1155 = trunc i32 %1154 to i8
  %1156 = and i8 %1155, 1
  store i8 %1156, i8* %1153, align 8
  %1157 = getelementptr inbounds %"class.blink::mojom::internal::WebPreferences_Data", %"class.blink::mojom::internal::WebPreferences_Data"* %0, i64 0, i32 37
  %1158 = bitcast float* %1157 to i32*
  %1159 = load i32, i32* %1158, align 1
  %1160 = getelementptr inbounds %"struct.blink::web_pref::WebPreferences", %"struct.blink::web_pref::WebPreferences"* %2, i64 0, i32 120
  %1161 = bitcast float* %1160 to i32*
  store i32 %1159, i32* %1161, align 4
  %1162 = getelementptr inbounds %"class.blink::mojom::internal::WebPreferences_Data", %"class.blink::mojom::internal::WebPreferences_Data"* %0, i64 0, i32 38
  %1163 = bitcast float* %1162 to i32*
  %1164 = load i32, i32* %1163, align 1
  %1165 = getelementptr inbounds %"struct.blink::web_pref::WebPreferences", %"struct.blink::web_pref::WebPreferences"* %2, i64 0, i32 121
  %1166 = bitcast float* %1165 to i32*
  store i32 %1164, i32* %1166, align 8
  %1167 = load i32, i32* %1075, align 1
  %1168 = trunc i32 %1167 to i16
  %1169 = getelementptr inbounds %"struct.blink::web_pref::WebPreferences", %"struct.blink::web_pref::WebPreferences"* %2, i64 0, i32 122
  %1170 = lshr i16 %1168, 15
  %1171 = trunc i16 %1170 to i8
  store i8 %1171, i8* %1169, align 4
  %1172 = load i32, i32* %1075, align 1
  %1173 = getelementptr inbounds %"struct.blink::web_pref::WebPreferences", %"struct.blink::web_pref::WebPreferences"* %2, i64 0, i32 123
  %1174 = lshr i32 %1172, 16
  %1175 = trunc i32 %1174 to i8
  %1176 = and i8 %1175, 1
  store i8 %1176, i8* %1173, align 1
  %1177 = load i32, i32* %1075, align 1
  %1178 = getelementptr inbounds %"struct.blink::web_pref::WebPreferences", %"struct.blink::web_pref::WebPreferences"* %2, i64 0, i32 124
  %1179 = lshr i32 %1177, 17
  %1180 = trunc i32 %1179 to i8
  %1181 = and i8 %1180, 1
  store i8 %1181, i8* %1178, align 2
  %1182 = load i32, i32* %1075, align 1
  %1183 = getelementptr inbounds %"struct.blink::web_pref::WebPreferences", %"struct.blink::web_pref::WebPreferences"* %2, i64 0, i32 125
  %1184 = lshr i32 %1182, 18
  %1185 = trunc i32 %1184 to i8
  %1186 = and i8 %1185, 1
  store i8 %1186, i8* %1183, align 1
  %1187 = getelementptr inbounds %"class.blink::mojom::internal::WebPreferences_Data", %"class.blink::mojom::internal::WebPreferences_Data"* %0, i64 0, i32 39
  %1188 = load i32, i32* %1187, align 1
  %1189 = getelementptr inbounds %"struct.blink::web_pref::WebPreferences", %"struct.blink::web_pref::WebPreferences"* %2, i64 0, i32 126
  store i32 %1188, i32* %1189, align 8
  %1190 = getelementptr inbounds %"class.blink::mojom::internal::WebPreferences_Data", %"class.blink::mojom::internal::WebPreferences_Data"* %0, i64 0, i32 40
  %1191 = load i32, i32* %1190, align 1
  %1192 = getelementptr inbounds %"struct.blink::web_pref::WebPreferences", %"struct.blink::web_pref::WebPreferences"* %2, i64 0, i32 127
  store i32 %1191, i32* %1192, align 4
  %1193 = getelementptr inbounds %"class.blink::mojom::internal::WebPreferences_Data", %"class.blink::mojom::internal::WebPreferences_Data"* %0, i64 0, i32 41
  %1194 = load i32, i32* %1193, align 1
  %1195 = getelementptr inbounds %"struct.blink::web_pref::WebPreferences", %"struct.blink::web_pref::WebPreferences"* %2, i64 0, i32 128
  store i32 %1194, i32* %1195, align 8
  %1196 = load i32, i32* %1075, align 1
  %1197 = getelementptr inbounds %"struct.blink::web_pref::WebPreferences", %"struct.blink::web_pref::WebPreferences"* %2, i64 0, i32 130
  %1198 = lshr i32 %1196, 19
  %1199 = trunc i32 %1198 to i8
  %1200 = and i8 %1199, 1
  store i8 %1200, i8* %1197, align 8
  %1201 = load i32, i32* %1075, align 1
  %1202 = getelementptr inbounds %"struct.blink::web_pref::WebPreferences", %"struct.blink::web_pref::WebPreferences"* %2, i64 0, i32 131
  %1203 = lshr i32 %1201, 20
  %1204 = trunc i32 %1203 to i8
  %1205 = and i8 %1204, 1
  store i8 %1205, i8* %1202, align 1
  %1206 = load i32, i32* %1075, align 1
  %1207 = getelementptr inbounds %"struct.blink::web_pref::WebPreferences", %"struct.blink::web_pref::WebPreferences"* %2, i64 0, i32 134
  %1208 = lshr i32 %1206, 21
  %1209 = trunc i32 %1208 to i8
  %1210 = and i8 %1209, 1
  store i8 %1210, i8* %1207, align 8
  %1211 = load i32, i32* %1075, align 1
  %1212 = getelementptr inbounds %"struct.blink::web_pref::WebPreferences", %"struct.blink::web_pref::WebPreferences"* %2, i64 0, i32 139
  %1213 = lshr i32 %1211, 22
  %1214 = trunc i32 %1213 to i8
  %1215 = and i8 %1214, 1
  store i8 %1215, i8* %1212, align 8
  %1216 = load i32, i32* %1075, align 1
  %1217 = getelementptr inbounds %"struct.blink::web_pref::WebPreferences", %"struct.blink::web_pref::WebPreferences"* %2, i64 0, i32 140
  %1218 = lshr i32 %1216, 23
  %1219 = trunc i32 %1218 to i8
  %1220 = and i8 %1219, 1
  store i8 %1220, i8* %1217, align 1
  %1221 = load i32, i32* %1075, align 1
  %1222 = getelementptr inbounds %"struct.blink::web_pref::WebPreferences", %"struct.blink::web_pref::WebPreferences"* %2, i64 0, i32 141
  %1223 = lshr i32 %1221, 24
  %1224 = trunc i32 %1223 to i8
  %1225 = and i8 %1224, 1
  store i8 %1225, i8* %1222, align 2
  %1226 = load i32, i32* %1075, align 1
  %1227 = getelementptr inbounds %"struct.blink::web_pref::WebPreferences", %"struct.blink::web_pref::WebPreferences"* %2, i64 0, i32 143
  %1228 = lshr i32 %1226, 25
  %1229 = trunc i32 %1228 to i8
  %1230 = and i8 %1229, 1
  store i8 %1230, i8* %1227, align 4
  br label %1231

1231:                                             ; preds = %3, %14, %25, %36, %47, %58, %69, %80, %91, %102, %719, %725
  %1232 = phi i1 [ true, %725 ], [ false, %719 ], [ false, %102 ], [ false, %91 ], [ false, %80 ], [ false, %69 ], [ false, %58 ], [ false, %47 ], [ false, %36 ], [ false, %25 ], [ false, %14 ], [ false, %3 ]
  ret i1 %1232
}

; Function Attrs: argmemonly nounwind
declare void @llvm.lifetime.start.p0i8(i64 immarg, i8* nocapture) #1

; Function Attrs: argmemonly nounwind
declare void @llvm.lifetime.end.p0i8(i64 immarg, i8* nocapture) #1

; Function Attrs: nounwind ssp uwtable
define linkonce_odr hidden zeroext i1 @_ZN4mojo8internal10SerializerINS_11MapDataViewINS_14StringDataViewEN9mojo_base5mojom16String16DataViewEEENSt3__13mapINS8_12basic_stringIcNS8_11char_traitsIcEENS8_9allocatorIcEEEENSA_IDsNSB_IDsEENSD_IDsEEEENS8_4lessISF_EENSD_INS8_4pairIKSF_SI_EEEEEEE11DeserializeEPNS0_8Map_DataINS0_7PointerINS0_10Array_DataIcEEEENSS_INS5_8internal13String16_DataEEEEEPSP_PNS_7MessageE(%"class.mojo::internal::Map_Data"*, %"class.std::__1::map"*, %"class.mojo::Message"*) local_unnamed_addr #0 comdat align 2 {
  %4 = alloca %"class.std::__1::__tree_end_node"*, align 8
  %5 = alloca %"struct.std::__1::pair.81", align 8
  %6 = alloca %"class.std::__1::vector.52", align 8
  %7 = alloca %"class.std::__1::vector.59", align 8
  %8 = icmp eq %"class.mojo::internal::Map_Data"* %0, null
  br i1 %8, label %9, label %17

9:                                                ; preds = %3
  %10 = getelementptr inbounds %"class.std::__1::map", %"class.std::__1::map"* %1, i64 0, i32 0
  %11 = getelementptr inbounds %"class.std::__1::map", %"class.std::__1::map"* %1, i64 0, i32 0, i32 1, i32 0, i32 0
  %12 = bitcast %"class.std::__1::__tree_end_node"* %11 to %"class.std::__1::__tree_node"**
  %13 = load %"class.std::__1::__tree_node"*, %"class.std::__1::__tree_node"** %12, align 8
  tail call void @_ZNSt3__16__treeINS_12__value_typeINS_12basic_stringIcNS_11char_traitsIcEENS_9allocatorIcEEEENS2_IDsNS3_IDsEENS5_IDsEEEEEENS_19__map_value_compareIS7_SB_NS_4lessIS7_EELb1EEENS5_ISB_EEE7destroyEPNS_11__tree_nodeISB_PvEE(%"class.std::__1::__tree"* %10, %"class.std::__1::__tree_node"* %13) #7
  %14 = getelementptr inbounds %"class.std::__1::map", %"class.std::__1::map"* %1, i64 0, i32 0, i32 2, i32 0, i32 0
  store i64 0, i64* %14, align 8
  %15 = getelementptr inbounds %"class.std::__1::map", %"class.std::__1::map"* %1, i64 0, i32 0, i32 0
  store %"class.std::__1::__tree_end_node"* %11, %"class.std::__1::__tree_end_node"** %15, align 8
  %16 = getelementptr inbounds %"class.std::__1::__tree_end_node", %"class.std::__1::__tree_end_node"* %11, i64 0, i32 0
  store %"class.std::__1::__tree_node_base"* null, %"class.std::__1::__tree_node_base"** %16, align 8
  br label %180

17:                                               ; preds = %3
  %18 = bitcast %"class.std::__1::vector.52"* %6 to i8*
  call void @llvm.lifetime.start.p0i8(i64 24, i8* nonnull %18) #7
  %19 = getelementptr inbounds %"class.std::__1::vector.52", %"class.std::__1::vector.52"* %6, i64 0, i32 0, i32 0
  %20 = getelementptr inbounds %"class.std::__1::vector.52", %"class.std::__1::vector.52"* %6, i64 0, i32 0, i32 1
  call void @llvm.memset.p0i8.i64(i8* nonnull align 8 %18, i8 0, i64 24, i1 false) #7
  %21 = bitcast %"class.std::__1::vector.59"* %7 to i8*
  call void @llvm.lifetime.start.p0i8(i64 24, i8* nonnull %21) #7
  %22 = getelementptr inbounds %"class.std::__1::vector.59", %"class.std::__1::vector.59"* %7, i64 0, i32 0, i32 0
  %23 = getelementptr inbounds %"class.std::__1::vector.59", %"class.std::__1::vector.59"* %7, i64 0, i32 0, i32 1
  call void @llvm.memset.p0i8.i64(i8* nonnull align 8 %21, i8 0, i64 24, i1 false) #7
  %24 = getelementptr inbounds %"class.mojo::internal::Map_Data", %"class.mojo::internal::Map_Data"* %0, i64 0, i32 1
  %25 = getelementptr inbounds %"struct.mojo::internal::Pointer.50", %"struct.mojo::internal::Pointer.50"* %24, i64 0, i32 0
  %26 = load i64, i64* %25, align 8
  %27 = icmp eq i64 %26, 0
  %28 = bitcast %"struct.mojo::internal::Pointer.50"* %24 to i8*
  %29 = getelementptr inbounds i8, i8* %28, i64 %26
  %30 = bitcast i8* %29 to %"class.mojo::internal::Array_Data"*
  %31 = select i1 %27, %"class.mojo::internal::Array_Data"* null, %"class.mojo::internal::Array_Data"* %30
  %32 = call zeroext i1 @_ZN4mojo8internal15ArraySerializerINS_13ArrayDataViewINS_14StringDataViewEEENSt3__16vectorINS5_12basic_stringIcNS5_11char_traitsIcEENS5_9allocatorIcEEEENSA_ISC_EEEENS0_12MapKeyReaderINS5_3mapISC_NS7_IDsNS8_IDsEENSA_IDsEEEENS5_4lessISC_EENSA_INS5_4pairIKSC_SJ_EEEEEEEEvE19DeserializeElementsEPNS0_10Array_DataINS0_7PointerINST_IcEEEEEEPSE_PNS_7MessageE(%"class.mojo::internal::Array_Data"* %31, %"class.std::__1::vector.52"* nonnull %6, %"class.mojo::Message"* %2)
  br i1 %32, label %33, label %130

33:                                               ; preds = %17
  %34 = getelementptr inbounds %"class.mojo::internal::Map_Data", %"class.mojo::internal::Map_Data"* %0, i64 0, i32 2
  %35 = getelementptr inbounds %"struct.mojo::internal::Pointer.51", %"struct.mojo::internal::Pointer.51"* %34, i64 0, i32 0
  %36 = load i64, i64* %35, align 8
  %37 = icmp eq i64 %36, 0
  %38 = bitcast %"struct.mojo::internal::Pointer.51"* %34 to i8*
  %39 = getelementptr inbounds i8, i8* %38, i64 %36
  %40 = bitcast i8* %39 to %"class.mojo::internal::Array_Data.75"*
  %41 = select i1 %37, %"class.mojo::internal::Array_Data.75"* null, %"class.mojo::internal::Array_Data.75"* %40
  %42 = call zeroext i1 @_ZN4mojo8internal15ArraySerializerINS_13ArrayDataViewIN9mojo_base5mojom16String16DataViewEEENSt3__16vectorINS7_12basic_stringIDsNS7_11char_traitsIDsEENS7_9allocatorIDsEEEENSC_ISE_EEEENS0_14MapValueReaderINS7_3mapINS9_IcNSA_IcEENSC_IcEEEESE_NS7_4lessISL_EENSC_INS7_4pairIKSL_SE_EEEEEEEEvE19DeserializeElementsEPNS0_10Array_DataINS0_7PointerINS4_8internal13String16_DataEEEEEPSG_PNS_7MessageE(%"class.mojo::internal::Array_Data.75"* %41, %"class.std::__1::vector.59"* nonnull %7, %"class.mojo::Message"* %2)
  br i1 %42, label %43, label %130

43:                                               ; preds = %33
  %44 = bitcast %"class.std::__1::basic_string"** %20 to i64*
  %45 = load i64, i64* %44, align 8
  %46 = bitcast %"class.std::__1::vector.52"* %6 to i64*
  %47 = load i64, i64* %46, align 8
  %48 = sub i64 %45, %47
  %49 = sdiv exact i64 %48, 24
  %50 = getelementptr inbounds %"class.std::__1::map", %"class.std::__1::map"* %1, i64 0, i32 0
  %51 = getelementptr inbounds %"class.std::__1::map", %"class.std::__1::map"* %1, i64 0, i32 0, i32 1, i32 0, i32 0
  %52 = bitcast %"class.std::__1::__tree_end_node"* %51 to %"class.std::__1::__tree_node"**
  %53 = load %"class.std::__1::__tree_node"*, %"class.std::__1::__tree_node"** %52, align 8
  call void @_ZNSt3__16__treeINS_12__value_typeINS_12basic_stringIcNS_11char_traitsIcEENS_9allocatorIcEEEENS2_IDsNS3_IDsEENS5_IDsEEEEEENS_19__map_value_compareIS7_SB_NS_4lessIS7_EELb1EEENS5_ISB_EEE7destroyEPNS_11__tree_nodeISB_PvEE(%"class.std::__1::__tree"* %50, %"class.std::__1::__tree_node"* %53) #7
  %54 = getelementptr inbounds %"class.std::__1::map", %"class.std::__1::map"* %1, i64 0, i32 0, i32 2, i32 0, i32 0
  store i64 0, i64* %54, align 8
  %55 = getelementptr inbounds %"class.std::__1::map", %"class.std::__1::map"* %1, i64 0, i32 0, i32 0
  store %"class.std::__1::__tree_end_node"* %51, %"class.std::__1::__tree_end_node"** %55, align 8
  %56 = getelementptr inbounds %"class.std::__1::__tree_end_node", %"class.std::__1::__tree_end_node"* %51, i64 0, i32 0
  store %"class.std::__1::__tree_node_base"* null, %"class.std::__1::__tree_node_base"** %56, align 8
  %57 = icmp eq i64 %48, 0
  br i1 %57, label %130, label %58

58:                                               ; preds = %43
  %59 = bitcast %"struct.std::__1::pair.81"* %5 to i8*
  %60 = getelementptr inbounds %"struct.std::__1::pair.81", %"struct.std::__1::pair.81"* %5, i64 0, i32 0
  %61 = getelementptr inbounds %"struct.std::__1::pair.81", %"struct.std::__1::pair.81"* %5, i64 0, i32 1
  %62 = bitcast %"class.std::__1::basic_string.61"* %61 to i8*
  %63 = bitcast %"class.std::__1::__tree_end_node"** %4 to i8*
  %64 = bitcast %"class.std::__1::__tree_end_node"** %4 to i64*
  %65 = bitcast %"class.std::__1::map"* %1 to i64*
  %66 = getelementptr inbounds %"class.std::__1::map", %"class.std::__1::map"* %1, i64 0, i32 0, i32 1, i32 0, i32 0, i32 0
  %67 = bitcast %"class.std::__1::basic_string.61"* %61 to %"struct.std::__1::basic_string<char16_t, std::__1::char_traits<char16_t>, std::__1::allocator<char16_t> >::__short"*
  %68 = getelementptr inbounds %"struct.std::__1::basic_string<char16_t, std::__1::char_traits<char16_t>, std::__1::allocator<char16_t> >::__short", %"struct.std::__1::basic_string<char16_t, std::__1::char_traits<char16_t>, std::__1::allocator<char16_t> >::__short"* %67, i64 0, i32 1, i32 1
  %69 = bitcast %"class.std::__1::basic_string.61"* %61 to i8**
  %70 = bitcast %"struct.std::__1::pair.81"* %5 to %"struct.std::__1::basic_string<char, std::__1::char_traits<char>, std::__1::allocator<char> >::__short"*
  %71 = getelementptr inbounds %"struct.std::__1::basic_string<char, std::__1::char_traits<char>, std::__1::allocator<char> >::__short", %"struct.std::__1::basic_string<char, std::__1::char_traits<char>, std::__1::allocator<char> >::__short"* %70, i64 0, i32 1, i32 0
  %72 = getelementptr inbounds %"struct.std::__1::pair.81", %"struct.std::__1::pair.81"* %5, i64 0, i32 0, i32 0, i32 0, i32 0, i32 0, i32 0, i32 0
  br label %73

73:                                               ; preds = %58, %127
  %74 = phi i64 [ 0, %58 ], [ %128, %127 ]
  %75 = load %"class.std::__1::basic_string"*, %"class.std::__1::basic_string"** %19, align 8
  %76 = getelementptr inbounds %"class.std::__1::basic_string", %"class.std::__1::basic_string"* %75, i64 %74
  %77 = load %"class.std::__1::basic_string.61"*, %"class.std::__1::basic_string.61"** %22, align 8
  %78 = getelementptr inbounds %"class.std::__1::basic_string.61", %"class.std::__1::basic_string.61"* %77, i64 %74
  call void @llvm.lifetime.start.p0i8(i64 48, i8* nonnull %59) #7
  %79 = bitcast %"class.std::__1::basic_string"* %76 to %"struct.std::__1::basic_string<char, std::__1::char_traits<char>, std::__1::allocator<char> >::__short"*
  %80 = getelementptr inbounds %"struct.std::__1::basic_string<char, std::__1::char_traits<char>, std::__1::allocator<char> >::__short", %"struct.std::__1::basic_string<char, std::__1::char_traits<char>, std::__1::allocator<char> >::__short"* %79, i64 0, i32 1, i32 0
  %81 = load i8, i8* %80, align 1, !noalias !2
  %82 = icmp slt i8 %81, 0
  br i1 %82, label %85, label %83

83:                                               ; preds = %73
  %84 = bitcast %"class.std::__1::basic_string"* %76 to i8*
  call void @llvm.memcpy.p0i8.p0i8.i64(i8* nonnull align 8 %59, i8* align 8 %84, i64 24, i1 false) #7
  br label %90

85:                                               ; preds = %73
  %86 = getelementptr inbounds %"class.std::__1::basic_string", %"class.std::__1::basic_string"* %76, i64 0, i32 0, i32 0, i32 0, i32 0, i32 0, i32 0
  %87 = load i8*, i8** %86, align 8, !noalias !2
  %88 = getelementptr inbounds %"class.std::__1::basic_string", %"class.std::__1::basic_string"* %75, i64 %74, i32 0, i32 0, i32 0, i32 0, i32 0, i32 1
  %89 = load i64, i64* %88, align 8, !noalias !2
  call void @_ZNSt3__112basic_stringIcNS_11char_traitsIcEENS_9allocatorIcEEE25__init_copy_ctor_externalEPKcm(%"class.std::__1::basic_string"* nonnull %60, i8* %87, i64 %89) #7
  br label %90

90:                                               ; preds = %85, %83
  %91 = bitcast %"class.std::__1::basic_string.61"* %78 to i8*
  call void @llvm.memcpy.p0i8.p0i8.i64(i8* align 8 %62, i8* align 8 %91, i64 24, i1 false) #7
  call void @llvm.memset.p0i8.i64(i8* align 8 %91, i8 0, i64 24, i1 false) #7, !noalias !2
  call void @llvm.lifetime.start.p0i8(i64 8, i8* nonnull %63) #7
  store %"class.std::__1::__tree_end_node"* inttoptr (i64 -6148914691236517206 to %"class.std::__1::__tree_end_node"*), %"class.std::__1::__tree_end_node"** %4, align 8
  %92 = call dereferenceable(8) %"class.std::__1::__tree_node_base"** @_ZNSt3__16__treeINS_12__value_typeINS_12basic_stringIcNS_11char_traitsIcEENS_9allocatorIcEEEENS2_IDsNS3_IDsEENS5_IDsEEEEEENS_19__map_value_compareIS7_SB_NS_4lessIS7_EELb1EEENS5_ISB_EEE12__find_equalIS7_EERPNS_16__tree_node_baseIPvEERPNS_15__tree_end_nodeISM_EERKT_(%"class.std::__1::__tree"* %50, %"class.std::__1::__tree_end_node"** nonnull dereferenceable(8) %4, %"class.std::__1::basic_string"* nonnull dereferenceable(24) %60) #7
  %93 = bitcast %"class.std::__1::__tree_node_base"** %92 to %"class.std::__1::__tree_node"**
  %94 = load %"class.std::__1::__tree_node"*, %"class.std::__1::__tree_node"** %93, align 8
  %95 = icmp eq %"class.std::__1::__tree_node"* %94, null
  br i1 %95, label %96, label %117

96:                                               ; preds = %90
  %97 = call i8* @_Znwm(i64 80) #8, !noalias !5
  %98 = getelementptr inbounds i8, i8* %97, i64 32
  call void @llvm.memcpy.p0i8.p0i8.i64(i8* align 8 %98, i8* nonnull align 8 %59, i64 24, i1 false) #7, !noalias !5
  call void @llvm.memset.p0i8.i64(i8* nonnull align 8 %59, i8 0, i64 24, i1 false) #7, !noalias !5
  %99 = getelementptr inbounds i8, i8* %97, i64 56
  call void @llvm.memcpy.p0i8.p0i8.i64(i8* align 8 %99, i8* align 8 %62, i64 24, i1 false) #7, !noalias !5
  call void @llvm.memset.p0i8.i64(i8* align 8 %62, i8 0, i64 24, i1 false) #7, !noalias !5
  %100 = load i64, i64* %64, align 8
  %101 = bitcast i8* %97 to %"class.std::__1::__tree_node_base"*
  %102 = getelementptr inbounds i8, i8* %97, i64 16
  call void @llvm.memset.p0i8.i64(i8* nonnull align 8 %97, i8 0, i64 16, i1 false) #7
  %103 = bitcast i8* %102 to i64*
  store i64 %100, i64* %103, align 8
  %104 = bitcast %"class.std::__1::__tree_node_base"** %92 to i8**
  store i8* %97, i8** %104, align 8
  %105 = load %"class.std::__1::__tree_end_node"*, %"class.std::__1::__tree_end_node"** %55, align 8
  %106 = getelementptr inbounds %"class.std::__1::__tree_end_node", %"class.std::__1::__tree_end_node"* %105, i64 0, i32 0
  %107 = load %"class.std::__1::__tree_node_base"*, %"class.std::__1::__tree_node_base"** %106, align 8
  %108 = icmp eq %"class.std::__1::__tree_node_base"* %107, null
  br i1 %108, label %112, label %109

109:                                              ; preds = %96
  %110 = ptrtoint %"class.std::__1::__tree_node_base"* %107 to i64
  store i64 %110, i64* %65, align 8
  %111 = load %"class.std::__1::__tree_node_base"*, %"class.std::__1::__tree_node_base"** %92, align 8
  br label %112

112:                                              ; preds = %109, %96
  %113 = phi %"class.std::__1::__tree_node_base"* [ %101, %96 ], [ %111, %109 ]
  %114 = load %"class.std::__1::__tree_node_base"*, %"class.std::__1::__tree_node_base"** %66, align 8
  call void @_ZNSt3__127__tree_balance_after_insertIPNS_16__tree_node_baseIPvEEEEvT_S5_(%"class.std::__1::__tree_node_base"* %114, %"class.std::__1::__tree_node_base"* %113) #7
  %115 = load i64, i64* %54, align 8
  %116 = add i64 %115, 1
  store i64 %116, i64* %54, align 8
  br label %117

117:                                              ; preds = %90, %112
  call void @llvm.lifetime.end.p0i8(i64 8, i8* nonnull %63) #7
  %118 = load i8, i8* %68, align 1
  %119 = icmp slt i8 %118, 0
  br i1 %119, label %120, label %122

120:                                              ; preds = %117
  %121 = load i8*, i8** %69, align 8
  call void @_ZdlPv(i8* %121) #8
  br label %122

122:                                              ; preds = %120, %117
  %123 = load i8, i8* %71, align 1
  %124 = icmp slt i8 %123, 0
  br i1 %124, label %125, label %127

125:                                              ; preds = %122
  %126 = load i8*, i8** %72, align 8
  call void @_ZdlPv(i8* %126) #8
  br label %127

127:                                              ; preds = %125, %122
  call void @llvm.lifetime.end.p0i8(i64 48, i8* nonnull %59) #7
  %128 = add nuw i64 %74, 1
  %129 = icmp ult i64 %128, %49
  br i1 %129, label %73, label %130

130:                                              ; preds = %127, %43, %17, %33
  %131 = phi i1 [ false, %33 ], [ false, %17 ], [ true, %43 ], [ true, %127 ]
  %132 = load %"class.std::__1::basic_string.61"*, %"class.std::__1::basic_string.61"** %22, align 8
  %133 = icmp eq %"class.std::__1::basic_string.61"* %132, null
  br i1 %133, label %155, label %134

134:                                              ; preds = %130
  %135 = bitcast %"class.std::__1::basic_string.61"* %132 to i8*
  %136 = load %"class.std::__1::basic_string.61"*, %"class.std::__1::basic_string.61"** %23, align 8
  %137 = icmp eq %"class.std::__1::basic_string.61"* %136, %132
  br i1 %137, label %153, label %138

138:                                              ; preds = %134, %148
  %139 = phi %"class.std::__1::basic_string.61"* [ %140, %148 ], [ %136, %134 ]
  %140 = getelementptr inbounds %"class.std::__1::basic_string.61", %"class.std::__1::basic_string.61"* %139, i64 -1
  %141 = bitcast %"class.std::__1::basic_string.61"* %140 to %"struct.std::__1::basic_string<char16_t, std::__1::char_traits<char16_t>, std::__1::allocator<char16_t> >::__short"*
  %142 = getelementptr inbounds %"struct.std::__1::basic_string<char16_t, std::__1::char_traits<char16_t>, std::__1::allocator<char16_t> >::__short", %"struct.std::__1::basic_string<char16_t, std::__1::char_traits<char16_t>, std::__1::allocator<char16_t> >::__short"* %141, i64 0, i32 1, i32 1
  %143 = load i8, i8* %142, align 1
  %144 = icmp slt i8 %143, 0
  br i1 %144, label %145, label %148

145:                                              ; preds = %138
  %146 = bitcast %"class.std::__1::basic_string.61"* %140 to i8**
  %147 = load i8*, i8** %146, align 8
  call void @_ZdlPv(i8* %147) #8
  br label %148

148:                                              ; preds = %145, %138
  %149 = icmp eq %"class.std::__1::basic_string.61"* %140, %132
  br i1 %149, label %150, label %138

150:                                              ; preds = %148
  %151 = bitcast %"class.std::__1::vector.59"* %7 to i8**
  %152 = load i8*, i8** %151, align 8
  br label %153

153:                                              ; preds = %150, %134
  %154 = phi i8* [ %152, %150 ], [ %135, %134 ]
  store %"class.std::__1::basic_string.61"* %132, %"class.std::__1::basic_string.61"** %23, align 8
  call void @_ZdlPv(i8* %154) #8
  br label %155

155:                                              ; preds = %130, %153
  call void @llvm.lifetime.end.p0i8(i64 24, i8* nonnull %21) #7
  %156 = load %"class.std::__1::basic_string"*, %"class.std::__1::basic_string"** %19, align 8
  %157 = icmp eq %"class.std::__1::basic_string"* %156, null
  br i1 %157, label %179, label %158

158:                                              ; preds = %155
  %159 = bitcast %"class.std::__1::basic_string"* %156 to i8*
  %160 = load %"class.std::__1::basic_string"*, %"class.std::__1::basic_string"** %20, align 8
  %161 = icmp eq %"class.std::__1::basic_string"* %160, %156
  br i1 %161, label %177, label %162

162:                                              ; preds = %158, %172
  %163 = phi %"class.std::__1::basic_string"* [ %164, %172 ], [ %160, %158 ]
  %164 = getelementptr inbounds %"class.std::__1::basic_string", %"class.std::__1::basic_string"* %163, i64 -1
  %165 = bitcast %"class.std::__1::basic_string"* %164 to %"struct.std::__1::basic_string<char, std::__1::char_traits<char>, std::__1::allocator<char> >::__short"*
  %166 = getelementptr inbounds %"struct.std::__1::basic_string<char, std::__1::char_traits<char>, std::__1::allocator<char> >::__short", %"struct.std::__1::basic_string<char, std::__1::char_traits<char>, std::__1::allocator<char> >::__short"* %165, i64 0, i32 1, i32 0
  %167 = load i8, i8* %166, align 1
  %168 = icmp slt i8 %167, 0
  br i1 %168, label %169, label %172

169:                                              ; preds = %162
  %170 = getelementptr inbounds %"class.std::__1::basic_string", %"class.std::__1::basic_string"* %164, i64 0, i32 0, i32 0, i32 0, i32 0, i32 0, i32 0
  %171 = load i8*, i8** %170, align 8
  call void @_ZdlPv(i8* %171) #8
  br label %172

172:                                              ; preds = %169, %162
  %173 = icmp eq %"class.std::__1::basic_string"* %164, %156
  br i1 %173, label %174, label %162

174:                                              ; preds = %172
  %175 = bitcast %"class.std::__1::vector.52"* %6 to i8**
  %176 = load i8*, i8** %175, align 8
  br label %177

177:                                              ; preds = %174, %158
  %178 = phi i8* [ %176, %174 ], [ %159, %158 ]
  store %"class.std::__1::basic_string"* %156, %"class.std::__1::basic_string"** %20, align 8
  call void @_ZdlPv(i8* %178) #8
  br label %179

179:                                              ; preds = %155, %177
  call void @llvm.lifetime.end.p0i8(i64 24, i8* nonnull %18) #7
  br label %180

180:                                              ; preds = %179, %9
  %181 = phi i1 [ %131, %179 ], [ true, %9 ]
  ret i1 %181
}

; Function Attrs: nounwind ssp uwtable
define linkonce_odr hidden zeroext i1 @_ZN4mojo8internal15ArraySerializerINS_13ArrayDataViewINS_14StringDataViewEEENSt3__16vectorINS5_12basic_stringIcNS5_11char_traitsIcEENS5_9allocatorIcEEEENSA_ISC_EEEENS0_12MapKeyReaderINS5_3mapISC_NS7_IDsNS8_IDsEENSA_IDsEEEENS5_4lessISC_EENSA_INS5_4pairIKSC_SJ_EEEEEEEEvE19DeserializeElementsEPNS0_10Array_DataINS0_7PointerINST_IcEEEEEEPSE_PNS_7MessageE(%"class.mojo::internal::Array_Data"*, %"class.std::__1::vector.52"*, %"class.mojo::Message"*) local_unnamed_addr #0 comdat align 2 {
  %4 = getelementptr inbounds %"class.mojo::internal::Array_Data", %"class.mojo::internal::Array_Data"* %0, i64 0, i32 0, i32 1
  %5 = load i32, i32* %4, align 1
  %6 = zext i32 %5 to i64
  %7 = getelementptr inbounds %"class.std::__1::vector.52", %"class.std::__1::vector.52"* %1, i64 0, i32 0, i32 1
  %8 = bitcast %"class.std::__1::basic_string"** %7 to i64*
  %9 = load i64, i64* %8, align 8
  %10 = bitcast %"class.std::__1::vector.52"* %1 to i64*
  %11 = load i64, i64* %10, align 8
  %12 = sub i64 %9, %11
  %13 = sdiv exact i64 %12, 24
  %14 = icmp eq i64 %13, %6
  br i1 %14, label %55, label %15

15:                                               ; preds = %3
  %16 = icmp eq i32 %5, 0
  br i1 %16, label %31, label %17

17:                                               ; preds = %15
  %18 = mul nuw nsw i64 %6, 24
  %19 = tail call i8* @_Znwm(i64 %18) #8
  %20 = bitcast i8* %19 to %"class.std::__1::basic_string"*
  %21 = getelementptr inbounds %"class.std::__1::basic_string", %"class.std::__1::basic_string"* %20, i64 %6
  %22 = ptrtoint i8* %19 to i64
  %23 = add nsw i64 %6, -1
  %24 = getelementptr %"class.std::__1::basic_string", %"class.std::__1::basic_string"* %20, i64 %23, i32 0, i32 0, i32 0, i32 0, i32 0, i32 0
  %25 = ptrtoint i8** %24 to i64
  %26 = sub i64 %25, %22
  %27 = urem i64 %26, 24
  %28 = add i64 %26, 24
  %29 = sub i64 %28, %27
  tail call void @llvm.memset.p0i8.i64(i8* nonnull align 8 %19, i8 0, i64 %29, i1 false) #7
  %30 = ptrtoint %"class.std::__1::basic_string"* %21 to i64
  br label %31

31:                                               ; preds = %15, %17
  %32 = phi i64 [ %30, %17 ], [ 0, %15 ]
  %33 = phi i64 [ %22, %17 ], [ 0, %15 ]
  store i64 %33, i64* %10, align 8
  store i64 %32, i64* %8, align 8
  %34 = getelementptr inbounds %"class.std::__1::vector.52", %"class.std::__1::vector.52"* %1, i64 0, i32 0, i32 2, i32 0, i32 0
  %35 = bitcast %"class.std::__1::basic_string"** %34 to i64*
  store i64 %32, i64* %35, align 8
  %36 = inttoptr i64 %11 to %"class.std::__1::basic_string"*
  %37 = icmp eq i64 %11, 0
  %38 = inttoptr i64 %9 to %"class.std::__1::basic_string"*
  br i1 %37, label %55, label %39

39:                                               ; preds = %31
  %40 = icmp eq %"class.std::__1::basic_string"* %38, %36
  br i1 %40, label %53, label %41

41:                                               ; preds = %39, %51
  %42 = phi %"class.std::__1::basic_string"* [ %43, %51 ], [ %38, %39 ]
  %43 = getelementptr inbounds %"class.std::__1::basic_string", %"class.std::__1::basic_string"* %42, i64 -1
  %44 = bitcast %"class.std::__1::basic_string"* %43 to %"struct.std::__1::basic_string<char, std::__1::char_traits<char>, std::__1::allocator<char> >::__short"*
  %45 = getelementptr inbounds %"struct.std::__1::basic_string<char, std::__1::char_traits<char>, std::__1::allocator<char> >::__short", %"struct.std::__1::basic_string<char, std::__1::char_traits<char>, std::__1::allocator<char> >::__short"* %44, i64 0, i32 1, i32 0
  %46 = load i8, i8* %45, align 1
  %47 = icmp slt i8 %46, 0
  br i1 %47, label %48, label %51

48:                                               ; preds = %41
  %49 = getelementptr inbounds %"class.std::__1::basic_string", %"class.std::__1::basic_string"* %43, i64 0, i32 0, i32 0, i32 0, i32 0, i32 0, i32 0
  %50 = load i8*, i8** %49, align 8
  tail call void @_ZdlPv(i8* %50) #8
  br label %51

51:                                               ; preds = %48, %41
  %52 = icmp eq %"class.std::__1::basic_string"* %43, %36
  br i1 %52, label %53, label %41

53:                                               ; preds = %51, %39
  %54 = inttoptr i64 %11 to i8*
  tail call void @_ZdlPv(i8* %54) #8
  br label %55

55:                                               ; preds = %3, %53, %31
  %56 = load i32, i32* %4, align 1
  %57 = icmp eq i32 %56, 0
  br i1 %57, label %123, label %58

58:                                               ; preds = %55
  %59 = getelementptr inbounds %"class.mojo::internal::Array_Data", %"class.mojo::internal::Array_Data"* %0, i64 1
  %60 = getelementptr inbounds %"class.std::__1::vector.52", %"class.std::__1::vector.52"* %1, i64 0, i32 0, i32 0
  br label %61

61:                                               ; preds = %58, %119
  %62 = phi i64 [ 0, %58 ], [ %69, %119 ]
  %63 = getelementptr inbounds %"class.mojo::internal::Array_Data", %"class.mojo::internal::Array_Data"* %59, i64 %62
  %64 = bitcast %"class.mojo::internal::Array_Data"* %63 to i64*
  %65 = load i64, i64* %64, align 8
  %66 = icmp eq i64 %65, 0
  %67 = bitcast %"class.mojo::internal::Array_Data"* %63 to i8*
  %68 = getelementptr inbounds i8, i8* %67, i64 %65
  %69 = add nuw nsw i64 %62, 1
  %70 = load %"class.std::__1::basic_string"*, %"class.std::__1::basic_string"** %60, align 8
  %71 = getelementptr inbounds %"class.std::__1::basic_string", %"class.std::__1::basic_string"* %70, i64 %62
  %72 = icmp eq i8* %68, null
  %73 = or i1 %66, %72
  br i1 %73, label %119, label %74

74:                                               ; preds = %61
  %75 = getelementptr inbounds i8, i8* %68, i64 8
  %76 = getelementptr inbounds i8, i8* %68, i64 4
  %77 = bitcast i8* %76 to i32*
  %78 = load i32, i32* %77, align 1
  %79 = zext i32 %78 to i64
  %80 = tail call i1 @llvm.is.constant.i64(i64 %79) #7
  %81 = icmp ult i32 %78, 23
  %82 = and i1 %81, %80
  br i1 %82, label %83, label %101

83:                                               ; preds = %74
  %84 = bitcast %"class.std::__1::basic_string"* %71 to %"struct.std::__1::basic_string<char, std::__1::char_traits<char>, std::__1::allocator<char> >::__short"*
  %85 = getelementptr inbounds %"struct.std::__1::basic_string<char, std::__1::char_traits<char>, std::__1::allocator<char> >::__short", %"struct.std::__1::basic_string<char, std::__1::char_traits<char>, std::__1::allocator<char> >::__short"* %84, i64 0, i32 1, i32 0
  %86 = load i8, i8* %85, align 1
  %87 = icmp slt i8 %86, 0
  br i1 %87, label %88, label %92

88:                                               ; preds = %83
  %89 = getelementptr inbounds %"class.std::__1::basic_string", %"class.std::__1::basic_string"* %70, i64 %62, i32 0, i32 0, i32 0, i32 0, i32 0, i32 1
  store i64 %79, i64* %89, align 8
  %90 = getelementptr inbounds %"class.std::__1::basic_string", %"class.std::__1::basic_string"* %71, i64 0, i32 0, i32 0, i32 0, i32 0, i32 0, i32 0
  %91 = load i8*, i8** %90, align 8
  br label %95

92:                                               ; preds = %83
  %93 = trunc i32 %78 to i8
  store i8 %93, i8* %85, align 1
  %94 = bitcast %"class.std::__1::basic_string"* %71 to i8*
  br label %95

95:                                               ; preds = %92, %88
  %96 = phi i8* [ %91, %88 ], [ %94, %92 ]
  %97 = icmp eq i32 %78, 0
  br i1 %97, label %99, label %98

98:                                               ; preds = %95
  tail call void @llvm.memmove.p0i8.p0i8.i64(i8* align 1 %96, i8* align 1 %75, i64 %79, i1 false) #7
  br label %99

99:                                               ; preds = %98, %95
  %100 = getelementptr inbounds i8, i8* %96, i64 %79
  store i8 0, i8* %100, align 1
  br label %104

101:                                              ; preds = %74
  %102 = tail call dereferenceable(24) %"class.std::__1::basic_string"* @_ZNSt3__112basic_stringIcNS_11char_traitsIcEENS_9allocatorIcEEE17__assign_externalEPKcm(%"class.std::__1::basic_string"* %71, i8* %75, i64 %79) #7
  %103 = bitcast %"class.std::__1::basic_string"* %71 to %"struct.std::__1::basic_string<char, std::__1::char_traits<char>, std::__1::allocator<char> >::__short"*
  br label %104

104:                                              ; preds = %101, %99
  %105 = phi %"struct.std::__1::basic_string<char, std::__1::char_traits<char>, std::__1::allocator<char> >::__short"* [ %103, %101 ], [ %84, %99 ]
  %106 = getelementptr inbounds %"struct.std::__1::basic_string<char, std::__1::char_traits<char>, std::__1::allocator<char> >::__short", %"struct.std::__1::basic_string<char, std::__1::char_traits<char>, std::__1::allocator<char> >::__short"* %105, i64 0, i32 1, i32 0
  %107 = load i8, i8* %106, align 1
  %108 = icmp slt i8 %107, 0
  %109 = getelementptr inbounds %"class.std::__1::basic_string", %"class.std::__1::basic_string"* %71, i64 0, i32 0, i32 0, i32 0, i32 0, i32 0, i32 0
  %110 = load i8*, i8** %109, align 8
  %111 = bitcast %"class.std::__1::basic_string"* %71 to i8*
  %112 = select i1 %108, i8* %110, i8* %111
  %113 = getelementptr inbounds %"class.std::__1::basic_string", %"class.std::__1::basic_string"* %70, i64 %62, i32 0, i32 0, i32 0, i32 0, i32 0, i32 1
  %114 = load i64, i64* %113, align 8
  %115 = zext i8 %107 to i64
  %116 = select i1 %108, i64 %114, i64 %115
  %117 = tail call zeroext i1 @_ZN4base12IsStringUTF8ENS_16BasicStringPieceIcNSt3__111char_traitsIcEEEE(i8* %112, i64 %116) #7
  br i1 %117, label %119, label %118

118:                                              ; preds = %104
  tail call void @_ZN4mojo8internal34RecordInvalidStringDeserializationEv() #7
  br label %119

119:                                              ; preds = %118, %104, %61
  %120 = load i32, i32* %4, align 1
  %121 = zext i32 %120 to i64
  %122 = icmp ult i64 %69, %121
  br i1 %122, label %61, label %123

123:                                              ; preds = %119, %55
  ret i1 true
}

; Function Attrs: nounwind ssp uwtable
define linkonce_odr hidden zeroext i1 @_ZN4mojo8internal15ArraySerializerINS_13ArrayDataViewIN9mojo_base5mojom16String16DataViewEEENSt3__16vectorINS7_12basic_stringIDsNS7_11char_traitsIDsEENS7_9allocatorIDsEEEENSC_ISE_EEEENS0_14MapValueReaderINS7_3mapINS9_IcNSA_IcEENSC_IcEEEESE_NS7_4lessISL_EENSC_INS7_4pairIKSL_SE_EEEEEEEEvE19DeserializeElementsEPNS0_10Array_DataINS0_7PointerINS4_8internal13String16_DataEEEEEPSG_PNS_7MessageE(%"class.mojo::internal::Array_Data.75"*, %"class.std::__1::vector.59"*, %"class.mojo::Message"*) local_unnamed_addr #0 comdat align 2 {
  %4 = getelementptr inbounds %"class.mojo::internal::Array_Data.75", %"class.mojo::internal::Array_Data.75"* %0, i64 0, i32 0, i32 1
  %5 = load i32, i32* %4, align 1
  %6 = zext i32 %5 to i64
  %7 = getelementptr inbounds %"class.std::__1::vector.59", %"class.std::__1::vector.59"* %1, i64 0, i32 0, i32 1
  %8 = bitcast %"class.std::__1::basic_string.61"** %7 to i64*
  %9 = load i64, i64* %8, align 8
  %10 = bitcast %"class.std::__1::vector.59"* %1 to i64*
  %11 = load i64, i64* %10, align 8
  %12 = sub i64 %9, %11
  %13 = sdiv exact i64 %12, 24
  %14 = icmp eq i64 %13, %6
  br i1 %14, label %55, label %15

15:                                               ; preds = %3
  %16 = icmp eq i32 %5, 0
  br i1 %16, label %31, label %17

17:                                               ; preds = %15
  %18 = mul nuw nsw i64 %6, 24
  %19 = tail call i8* @_Znwm(i64 %18) #8
  %20 = bitcast i8* %19 to %"class.std::__1::basic_string.61"*
  %21 = getelementptr inbounds %"class.std::__1::basic_string.61", %"class.std::__1::basic_string.61"* %20, i64 %6
  %22 = ptrtoint i8* %19 to i64
  %23 = add nsw i64 %6, -1
  %24 = getelementptr %"class.std::__1::basic_string.61", %"class.std::__1::basic_string.61"* %20, i64 %23, i32 0, i32 0, i32 0, i32 0, i32 0, i32 0
  %25 = ptrtoint i16** %24 to i64
  %26 = sub i64 %25, %22
  %27 = urem i64 %26, 24
  %28 = add i64 %26, 24
  %29 = sub i64 %28, %27
  tail call void @llvm.memset.p0i8.i64(i8* nonnull align 8 %19, i8 0, i64 %29, i1 false) #7
  %30 = ptrtoint %"class.std::__1::basic_string.61"* %21 to i64
  br label %31

31:                                               ; preds = %15, %17
  %32 = phi i64 [ %30, %17 ], [ 0, %15 ]
  %33 = phi i64 [ %22, %17 ], [ 0, %15 ]
  store i64 %33, i64* %10, align 8
  store i64 %32, i64* %8, align 8
  %34 = getelementptr inbounds %"class.std::__1::vector.59", %"class.std::__1::vector.59"* %1, i64 0, i32 0, i32 2, i32 0, i32 0
  %35 = bitcast %"class.std::__1::basic_string.61"** %34 to i64*
  store i64 %32, i64* %35, align 8
  %36 = inttoptr i64 %11 to %"class.std::__1::basic_string.61"*
  %37 = icmp eq i64 %11, 0
  %38 = inttoptr i64 %9 to %"class.std::__1::basic_string.61"*
  br i1 %37, label %55, label %39

39:                                               ; preds = %31
  %40 = icmp eq %"class.std::__1::basic_string.61"* %38, %36
  br i1 %40, label %53, label %41

41:                                               ; preds = %39, %51
  %42 = phi %"class.std::__1::basic_string.61"* [ %43, %51 ], [ %38, %39 ]
  %43 = getelementptr inbounds %"class.std::__1::basic_string.61", %"class.std::__1::basic_string.61"* %42, i64 -1
  %44 = bitcast %"class.std::__1::basic_string.61"* %43 to %"struct.std::__1::basic_string<char16_t, std::__1::char_traits<char16_t>, std::__1::allocator<char16_t> >::__short"*
  %45 = getelementptr inbounds %"struct.std::__1::basic_string<char16_t, std::__1::char_traits<char16_t>, std::__1::allocator<char16_t> >::__short", %"struct.std::__1::basic_string<char16_t, std::__1::char_traits<char16_t>, std::__1::allocator<char16_t> >::__short"* %44, i64 0, i32 1, i32 1
  %46 = load i8, i8* %45, align 1
  %47 = icmp slt i8 %46, 0
  br i1 %47, label %48, label %51

48:                                               ; preds = %41
  %49 = bitcast %"class.std::__1::basic_string.61"* %43 to i8**
  %50 = load i8*, i8** %49, align 8
  tail call void @_ZdlPv(i8* %50) #8
  br label %51

51:                                               ; preds = %48, %41
  %52 = icmp eq %"class.std::__1::basic_string.61"* %43, %36
  br i1 %52, label %53, label %41

53:                                               ; preds = %51, %39
  %54 = inttoptr i64 %11 to i8*
  tail call void @_ZdlPv(i8* %54) #8
  br label %55

55:                                               ; preds = %3, %53, %31
  %56 = load i32, i32* %4, align 1
  %57 = icmp eq i32 %56, 0
  br i1 %57, label %84, label %58

58:                                               ; preds = %55
  %59 = getelementptr inbounds %"class.mojo::internal::Array_Data.75", %"class.mojo::internal::Array_Data.75"* %0, i64 1
  %60 = getelementptr inbounds %"class.std::__1::vector.59", %"class.std::__1::vector.59"* %1, i64 0, i32 0, i32 0
  br label %61

61:                                               ; preds = %58, %80
  %62 = phi i32 [ %56, %58 ], [ %81, %80 ]
  %63 = phi i64 [ 0, %58 ], [ %70, %80 ]
  %64 = getelementptr inbounds %"class.mojo::internal::Array_Data.75", %"class.mojo::internal::Array_Data.75"* %59, i64 %63
  %65 = bitcast %"class.mojo::internal::Array_Data.75"* %64 to i64*
  %66 = load i64, i64* %65, align 8
  %67 = icmp eq i64 %66, 0
  %68 = bitcast %"class.mojo::internal::Array_Data.75"* %64 to i8*
  %69 = getelementptr inbounds i8, i8* %68, i64 %66
  %70 = add nuw nsw i64 %63, 1
  %71 = icmp eq i8* %69, null
  %72 = or i1 %67, %71
  br i1 %72, label %80, label %73

73:                                               ; preds = %61
  %74 = bitcast i8* %69 to %"class.mojo_base::mojom::internal::String16_Data"*
  %75 = load %"class.std::__1::basic_string.61"*, %"class.std::__1::basic_string.61"** %60, align 8
  %76 = getelementptr inbounds %"class.std::__1::basic_string.61", %"class.std::__1::basic_string.61"* %75, i64 %63
  %77 = tail call zeroext i1 @_ZN4mojo12StructTraitsIN9mojo_base5mojom16String16DataViewENSt3__112basic_stringIDsNS4_11char_traitsIDsEENS4_9allocatorIDsEEEEE4ReadES3_PSA_(%"class.mojo_base::mojom::internal::String16_Data"* nonnull %74, %"class.mojo::Message"* %2, %"class.std::__1::basic_string.61"* %76) #7
  br i1 %77, label %78, label %84

78:                                               ; preds = %73
  %79 = load i32, i32* %4, align 1
  br label %80

80:                                               ; preds = %78, %61
  %81 = phi i32 [ %79, %78 ], [ %62, %61 ]
  %82 = zext i32 %81 to i64
  %83 = icmp ult i64 %70, %82
  br i1 %83, label %61, label %84

84:                                               ; preds = %80, %73, %55
  %85 = phi i1 [ true, %55 ], [ false, %73 ], [ true, %80 ]
  ret i1 %85
}

; Function Attrs: nounwind ssp uwtable
define linkonce_odr hidden void @_ZNSt3__16__treeINS_12__value_typeINS_12basic_stringIcNS_11char_traitsIcEENS_9allocatorIcEEEENS2_IDsNS3_IDsEENS5_IDsEEEEEENS_19__map_value_compareIS7_SB_NS_4lessIS7_EELb1EEENS5_ISB_EEE7destroyEPNS_11__tree_nodeISB_PvEE(%"class.std::__1::__tree"*, %"class.std::__1::__tree_node"*) local_unnamed_addr #0 comdat align 2 {
  %3 = icmp eq %"class.std::__1::__tree_node"* %1, null
  br i1 %3, label %29, label %4

4:                                                ; preds = %2
  %5 = bitcast %"class.std::__1::__tree_node"* %1 to %"class.std::__1::__tree_node"**
  %6 = load %"class.std::__1::__tree_node"*, %"class.std::__1::__tree_node"** %5, align 8
  tail call void @_ZNSt3__16__treeINS_12__value_typeINS_12basic_stringIcNS_11char_traitsIcEENS_9allocatorIcEEEENS2_IDsNS3_IDsEENS5_IDsEEEEEENS_19__map_value_compareIS7_SB_NS_4lessIS7_EELb1EEENS5_ISB_EEE7destroyEPNS_11__tree_nodeISB_PvEE(%"class.std::__1::__tree"* %0, %"class.std::__1::__tree_node"* %6) #7
  %7 = getelementptr inbounds %"class.std::__1::__tree_node", %"class.std::__1::__tree_node"* %1, i64 0, i32 0, i32 1
  %8 = bitcast %"class.std::__1::__tree_node_base"** %7 to %"class.std::__1::__tree_node"**
  %9 = load %"class.std::__1::__tree_node"*, %"class.std::__1::__tree_node"** %8, align 8
  tail call void @_ZNSt3__16__treeINS_12__value_typeINS_12basic_stringIcNS_11char_traitsIcEENS_9allocatorIcEEEENS2_IDsNS3_IDsEENS5_IDsEEEEEENS_19__map_value_compareIS7_SB_NS_4lessIS7_EELb1EEENS5_ISB_EEE7destroyEPNS_11__tree_nodeISB_PvEE(%"class.std::__1::__tree"* %0, %"class.std::__1::__tree_node"* %9) #7
  %10 = getelementptr inbounds %"class.std::__1::__tree_node", %"class.std::__1::__tree_node"* %1, i64 0, i32 1, i32 0
  %11 = getelementptr inbounds %"class.std::__1::__tree_node", %"class.std::__1::__tree_node"* %1, i64 0, i32 1, i32 0, i32 1
  %12 = bitcast %"class.std::__1::basic_string.61"* %11 to %"struct.std::__1::basic_string<char16_t, std::__1::char_traits<char16_t>, std::__1::allocator<char16_t> >::__short"*
  %13 = getelementptr inbounds %"struct.std::__1::basic_string<char16_t, std::__1::char_traits<char16_t>, std::__1::allocator<char16_t> >::__short", %"struct.std::__1::basic_string<char16_t, std::__1::char_traits<char16_t>, std::__1::allocator<char16_t> >::__short"* %12, i64 0, i32 1, i32 1
  %14 = load i8, i8* %13, align 1
  %15 = icmp slt i8 %14, 0
  br i1 %15, label %16, label %19

16:                                               ; preds = %4
  %17 = bitcast %"class.std::__1::basic_string.61"* %11 to i8**
  %18 = load i8*, i8** %17, align 8
  tail call void @_ZdlPv(i8* %18) #8
  br label %19

19:                                               ; preds = %16, %4
  %20 = bitcast %"struct.std::__1::pair"* %10 to %"struct.std::__1::basic_string<char, std::__1::char_traits<char>, std::__1::allocator<char> >::__short"*
  %21 = getelementptr inbounds %"struct.std::__1::basic_string<char, std::__1::char_traits<char>, std::__1::allocator<char> >::__short", %"struct.std::__1::basic_string<char, std::__1::char_traits<char>, std::__1::allocator<char> >::__short"* %20, i64 0, i32 1, i32 0
  %22 = load i8, i8* %21, align 1
  %23 = icmp slt i8 %22, 0
  br i1 %23, label %24, label %27

24:                                               ; preds = %19
  %25 = getelementptr inbounds %"struct.std::__1::pair", %"struct.std::__1::pair"* %10, i64 0, i32 0, i32 0, i32 0, i32 0, i32 0, i32 0, i32 0
  %26 = load i8*, i8** %25, align 8
  tail call void @_ZdlPv(i8* %26) #8
  br label %27

27:                                               ; preds = %19, %24
  %28 = bitcast %"class.std::__1::__tree_node"* %1 to i8*
  tail call void @_ZdlPv(i8* %28) #8
  br label %29

29:                                               ; preds = %2, %27
  ret void
}

; Function Attrs: nobuiltin nounwind
declare void @_ZdlPv(i8*) local_unnamed_addr #2

; Function Attrs: nobuiltin nofree
declare noalias nonnull i8* @_Znwm(i64) local_unnamed_addr #3

declare void @_ZN4mojo8internal34RecordInvalidStringDeserializationEv() local_unnamed_addr #4

; Function Attrs: nounwind readnone
declare i1 @llvm.is.constant.i64(i64) #5

declare dereferenceable(24) %"class.std::__1::basic_string"* @_ZNSt3__112basic_stringIcNS_11char_traitsIcEENS_9allocatorIcEEE17__assign_externalEPKcm(%"class.std::__1::basic_string"*, i8*, i64) local_unnamed_addr #4

; Function Attrs: argmemonly nounwind
declare void @llvm.memmove.p0i8.p0i8.i64(i8* nocapture, i8* nocapture readonly, i64, i1 immarg) #1

declare zeroext i1 @_ZN4base12IsStringUTF8ENS_16BasicStringPieceIcNSt3__111char_traitsIcEEEE(i8*, i64) local_unnamed_addr #4

declare zeroext i1 @_ZN4mojo12StructTraitsIN9mojo_base5mojom16String16DataViewENSt3__112basic_stringIDsNS4_11char_traitsIDsEENS4_9allocatorIDsEEEEE4ReadES3_PSA_(%"class.mojo_base::mojom::internal::String16_Data"*, %"class.mojo::Message"*, %"class.std::__1::basic_string.61"*) local_unnamed_addr #4

; Function Attrs: argmemonly nounwind
declare void @llvm.memcpy.p0i8.p0i8.i64(i8* nocapture writeonly, i8* nocapture readonly, i64, i1 immarg) #1

; Function Attrs: nounwind ssp uwtable
define linkonce_odr hidden dereferenceable(8) %"class.std::__1::__tree_node_base"** @_ZNSt3__16__treeINS_12__value_typeINS_12basic_stringIcNS_11char_traitsIcEENS_9allocatorIcEEEENS2_IDsNS3_IDsEENS5_IDsEEEEEENS_19__map_value_compareIS7_SB_NS_4lessIS7_EELb1EEENS5_ISB_EEE12__find_equalIS7_EERPNS_16__tree_node_baseIPvEERPNS_15__tree_end_nodeISM_EERKT_(%"class.std::__1::__tree"*, %"class.std::__1::__tree_end_node"** dereferenceable(8), %"class.std::__1::basic_string"* dereferenceable(24)) local_unnamed_addr #0 comdat align 2 {
  %4 = getelementptr inbounds %"class.std::__1::__tree", %"class.std::__1::__tree"* %0, i64 0, i32 1, i32 0, i32 0
  %5 = bitcast %"class.std::__1::__tree_end_node"* %4 to %"class.std::__1::__tree_node"**
  %6 = load %"class.std::__1::__tree_node"*, %"class.std::__1::__tree_node"** %5, align 8
  %7 = icmp eq %"class.std::__1::__tree_node"* %6, null
  br i1 %7, label %79, label %8

8:                                                ; preds = %3
  %9 = getelementptr inbounds %"class.std::__1::__tree", %"class.std::__1::__tree"* %0, i64 0, i32 1, i32 0, i32 0, i32 0
  %10 = bitcast %"class.std::__1::basic_string"* %2 to %"struct.std::__1::basic_string<char, std::__1::char_traits<char>, std::__1::allocator<char> >::__short"*
  %11 = getelementptr inbounds %"struct.std::__1::basic_string<char, std::__1::char_traits<char>, std::__1::allocator<char> >::__short", %"struct.std::__1::basic_string<char, std::__1::char_traits<char>, std::__1::allocator<char> >::__short"* %10, i64 0, i32 1, i32 0
  %12 = load i8, i8* %11, align 1
  %13 = icmp slt i8 %12, 0
  %14 = getelementptr inbounds %"class.std::__1::basic_string", %"class.std::__1::basic_string"* %2, i64 0, i32 0, i32 0, i32 0, i32 0, i32 0, i32 1
  %15 = load i64, i64* %14, align 8
  %16 = zext i8 %12 to i64
  %17 = select i1 %13, i64 %15, i64 %16
  %18 = getelementptr inbounds %"class.std::__1::basic_string", %"class.std::__1::basic_string"* %2, i64 0, i32 0, i32 0, i32 0, i32 0, i32 0, i32 0
  %19 = load i8*, i8** %18, align 8
  %20 = bitcast %"class.std::__1::basic_string"* %2 to i8*
  %21 = select i1 %13, i8* %19, i8* %20
  br label %22

22:                                               ; preds = %8, %75
  %23 = phi %"class.std::__1::__tree_node"* [ %78, %75 ], [ %6, %8 ]
  %24 = phi %"class.std::__1::__tree_node_base"** [ %77, %75 ], [ %9, %8 ]
  %25 = getelementptr inbounds %"class.std::__1::__tree_node", %"class.std::__1::__tree_node"* %23, i64 0, i32 1
  %26 = bitcast %"struct.std::__1::__value_type"* %25 to %"struct.std::__1::basic_string<char, std::__1::char_traits<char>, std::__1::allocator<char> >::__short"*
  %27 = getelementptr inbounds %"struct.std::__1::basic_string<char, std::__1::char_traits<char>, std::__1::allocator<char> >::__short", %"struct.std::__1::basic_string<char, std::__1::char_traits<char>, std::__1::allocator<char> >::__short"* %26, i64 0, i32 1, i32 0
  %28 = load i8, i8* %27, align 1
  %29 = icmp slt i8 %28, 0
  %30 = getelementptr inbounds %"class.std::__1::__tree_node", %"class.std::__1::__tree_node"* %23, i64 0, i32 1, i32 0, i32 0, i32 0, i32 0, i32 0, i32 0, i32 0, i32 1
  %31 = load i64, i64* %30, align 8
  %32 = zext i8 %28 to i64
  %33 = select i1 %29, i64 %31, i64 %32
  %34 = icmp ult i64 %33, %17
  %35 = select i1 %34, i64 %33, i64 %17
  %36 = icmp eq i64 %35, 0
  br i1 %36, label %44, label %37

37:                                               ; preds = %22
  %38 = getelementptr inbounds %"struct.std::__1::__value_type", %"struct.std::__1::__value_type"* %25, i64 0, i32 0, i32 0, i32 0, i32 0, i32 0, i32 0, i32 0, i32 0
  %39 = load i8*, i8** %38, align 8
  %40 = bitcast %"struct.std::__1::__value_type"* %25 to i8*
  %41 = select i1 %29, i8* %39, i8* %40
  %42 = tail call i32 @memcmp(i8* %21, i8* %41, i64 %35) #7
  %43 = icmp eq i32 %42, 0
  br i1 %43, label %44, label %46

44:                                               ; preds = %37, %22
  %45 = icmp ult i64 %17, %33
  br i1 %45, label %48, label %54

46:                                               ; preds = %37
  %47 = icmp slt i32 %42, 0
  br i1 %47, label %48, label %60

48:                                               ; preds = %44, %46
  %49 = getelementptr inbounds %"class.std::__1::__tree_node", %"class.std::__1::__tree_node"* %23, i64 0, i32 0, i32 0, i32 0
  %50 = load %"class.std::__1::__tree_node_base"*, %"class.std::__1::__tree_node_base"** %49, align 8
  %51 = icmp eq %"class.std::__1::__tree_node_base"* %50, null
  br i1 %51, label %52, label %75

52:                                               ; preds = %48
  %53 = getelementptr inbounds %"class.std::__1::__tree_node", %"class.std::__1::__tree_node"* %23, i64 0, i32 0, i32 0
  store %"class.std::__1::__tree_end_node"* %53, %"class.std::__1::__tree_end_node"** %1, align 8
  br label %81

54:                                               ; preds = %44
  br i1 %36, label %64, label %55

55:                                               ; preds = %54
  %56 = getelementptr inbounds %"struct.std::__1::__value_type", %"struct.std::__1::__value_type"* %25, i64 0, i32 0, i32 0, i32 0, i32 0, i32 0, i32 0, i32 0, i32 0
  %57 = load i8*, i8** %56, align 8
  %58 = bitcast %"struct.std::__1::__value_type"* %25 to i8*
  %59 = select i1 %29, i8* %57, i8* %58
  br label %60

60:                                               ; preds = %55, %46
  %61 = phi i8* [ %59, %55 ], [ %41, %46 ]
  %62 = tail call i32 @memcmp(i8* %61, i8* %21, i64 %35) #7
  %63 = icmp eq i32 %62, 0
  br i1 %63, label %64, label %65

64:                                               ; preds = %60, %54
  br i1 %34, label %67, label %73

65:                                               ; preds = %60
  %66 = icmp slt i32 %62, 0
  br i1 %66, label %67, label %73

67:                                               ; preds = %64, %65
  %68 = getelementptr inbounds %"class.std::__1::__tree_node", %"class.std::__1::__tree_node"* %23, i64 0, i32 0, i32 1
  %69 = load %"class.std::__1::__tree_node_base"*, %"class.std::__1::__tree_node_base"** %68, align 8
  %70 = icmp eq %"class.std::__1::__tree_node_base"* %69, null
  br i1 %70, label %71, label %75

71:                                               ; preds = %67
  %72 = getelementptr inbounds %"class.std::__1::__tree_node", %"class.std::__1::__tree_node"* %23, i64 0, i32 0, i32 0
  store %"class.std::__1::__tree_end_node"* %72, %"class.std::__1::__tree_end_node"** %1, align 8
  br label %81

73:                                               ; preds = %64, %65
  %74 = getelementptr inbounds %"class.std::__1::__tree_node", %"class.std::__1::__tree_node"* %23, i64 0, i32 0, i32 0
  store %"class.std::__1::__tree_end_node"* %74, %"class.std::__1::__tree_end_node"** %1, align 8
  br label %81

75:                                               ; preds = %67, %48
  %76 = phi %"class.std::__1::__tree_node_base"* [ %50, %48 ], [ %69, %67 ]
  %77 = phi %"class.std::__1::__tree_node_base"** [ %49, %48 ], [ %68, %67 ]
  %78 = bitcast %"class.std::__1::__tree_node_base"* %76 to %"class.std::__1::__tree_node"*
  br label %22

79:                                               ; preds = %3
  store %"class.std::__1::__tree_end_node"* %4, %"class.std::__1::__tree_end_node"** %1, align 8
  %80 = getelementptr inbounds %"class.std::__1::__tree_end_node", %"class.std::__1::__tree_end_node"* %4, i64 0, i32 0
  br label %81

81:                                               ; preds = %79, %73, %71, %52
  %82 = phi %"class.std::__1::__tree_node_base"** [ %49, %52 ], [ %68, %71 ], [ %24, %73 ], [ %80, %79 ]
  ret %"class.std::__1::__tree_node_base"** %82
}

; Function Attrs: nofree nounwind readonly
declare i32 @memcmp(i8* nocapture, i8* nocapture, i64) local_unnamed_addr #6

; Function Attrs: nounwind ssp uwtable
define linkonce_odr hidden void @_ZNSt3__127__tree_balance_after_insertIPNS_16__tree_node_baseIPvEEEEvT_S5_(%"class.std::__1::__tree_node_base"*, %"class.std::__1::__tree_node_base"*) local_unnamed_addr #0 comdat {
  %3 = icmp eq %"class.std::__1::__tree_node_base"* %1, %0
  %4 = getelementptr inbounds %"class.std::__1::__tree_node_base", %"class.std::__1::__tree_node_base"* %1, i64 0, i32 3
  %5 = zext i1 %3 to i8
  store i8 %5, i8* %4, align 8
  br i1 %3, label %156, label %6

6:                                                ; preds = %2, %149
  %7 = phi %"class.std::__1::__tree_node_base"* [ %20, %149 ], [ %1, %2 ]
  %8 = getelementptr inbounds %"class.std::__1::__tree_node_base", %"class.std::__1::__tree_node_base"* %7, i64 0, i32 2
  %9 = bitcast %"class.std::__1::__tree_end_node"** %8 to %"class.std::__1::__tree_node_base"**
  %10 = load %"class.std::__1::__tree_node_base"*, %"class.std::__1::__tree_node_base"** %9, align 8
  %11 = getelementptr inbounds %"class.std::__1::__tree_node_base", %"class.std::__1::__tree_node_base"* %10, i64 0, i32 3
  %12 = load i8, i8* %11, align 8, !range !8
  %13 = icmp eq i8 %12, 0
  br i1 %13, label %14, label %156

14:                                               ; preds = %6
  %15 = getelementptr inbounds %"class.std::__1::__tree_node_base", %"class.std::__1::__tree_node_base"* %10, i64 0, i32 2
  %16 = load %"class.std::__1::__tree_end_node"*, %"class.std::__1::__tree_end_node"** %15, align 8
  %17 = getelementptr inbounds %"class.std::__1::__tree_end_node", %"class.std::__1::__tree_end_node"* %16, i64 0, i32 0
  %18 = load %"class.std::__1::__tree_node_base"*, %"class.std::__1::__tree_node_base"** %17, align 8
  %19 = icmp eq %"class.std::__1::__tree_node_base"* %18, %10
  %20 = bitcast %"class.std::__1::__tree_end_node"* %16 to %"class.std::__1::__tree_node_base"*
  br i1 %19, label %21, label %87

21:                                               ; preds = %14
  %22 = getelementptr inbounds %"class.std::__1::__tree_end_node", %"class.std::__1::__tree_end_node"* %16, i64 1, i32 0
  %23 = load %"class.std::__1::__tree_node_base"*, %"class.std::__1::__tree_node_base"** %22, align 8
  %24 = icmp eq %"class.std::__1::__tree_node_base"* %23, null
  br i1 %24, label %29, label %25

25:                                               ; preds = %21
  %26 = getelementptr inbounds %"class.std::__1::__tree_node_base", %"class.std::__1::__tree_node_base"* %23, i64 0, i32 3
  %27 = load i8, i8* %26, align 8, !range !8
  %28 = icmp eq i8 %27, 0
  br i1 %28, label %149, label %29

29:                                               ; preds = %25, %21
  %30 = getelementptr inbounds %"class.std::__1::__tree_node_base", %"class.std::__1::__tree_node_base"* %10, i64 0, i32 2
  %31 = bitcast %"class.std::__1::__tree_end_node"* %16 to %"class.std::__1::__tree_node_base"*
  %32 = getelementptr inbounds %"class.std::__1::__tree_node_base", %"class.std::__1::__tree_node_base"* %10, i64 0, i32 0, i32 0
  %33 = load %"class.std::__1::__tree_node_base"*, %"class.std::__1::__tree_node_base"** %32, align 8
  %34 = icmp eq %"class.std::__1::__tree_node_base"* %33, %7
  br i1 %34, label %61, label %35

35:                                               ; preds = %29
  %36 = ptrtoint %"class.std::__1::__tree_end_node"* %16 to i64
  %37 = getelementptr inbounds %"class.std::__1::__tree_node_base", %"class.std::__1::__tree_node_base"* %10, i64 0, i32 1
  %38 = load %"class.std::__1::__tree_node_base"*, %"class.std::__1::__tree_node_base"** %37, align 8
  %39 = getelementptr inbounds %"class.std::__1::__tree_node_base", %"class.std::__1::__tree_node_base"* %38, i64 0, i32 0, i32 0
  %40 = load %"class.std::__1::__tree_node_base"*, %"class.std::__1::__tree_node_base"** %39, align 8
  store %"class.std::__1::__tree_node_base"* %40, %"class.std::__1::__tree_node_base"** %37, align 8
  %41 = icmp eq %"class.std::__1::__tree_node_base"* %40, null
  br i1 %41, label %47, label %42

42:                                               ; preds = %35
  %43 = getelementptr inbounds %"class.std::__1::__tree_node_base", %"class.std::__1::__tree_node_base"* %10, i64 0, i32 0
  %44 = getelementptr inbounds %"class.std::__1::__tree_node_base", %"class.std::__1::__tree_node_base"* %40, i64 0, i32 2
  store %"class.std::__1::__tree_end_node"* %43, %"class.std::__1::__tree_end_node"** %44, align 8
  %45 = bitcast %"class.std::__1::__tree_end_node"** %30 to i64*
  %46 = load i64, i64* %45, align 8
  br label %47

47:                                               ; preds = %35, %42
  %48 = phi i64 [ %46, %42 ], [ %36, %35 ]
  %49 = getelementptr inbounds %"class.std::__1::__tree_node_base", %"class.std::__1::__tree_node_base"* %38, i64 0, i32 2
  %50 = bitcast %"class.std::__1::__tree_end_node"** %49 to i64*
  store i64 %48, i64* %50, align 8
  %51 = load %"class.std::__1::__tree_end_node"*, %"class.std::__1::__tree_end_node"** %30, align 8
  %52 = getelementptr inbounds %"class.std::__1::__tree_end_node", %"class.std::__1::__tree_end_node"* %51, i64 0, i32 0
  %53 = load %"class.std::__1::__tree_node_base"*, %"class.std::__1::__tree_node_base"** %52, align 8
  %54 = icmp eq %"class.std::__1::__tree_node_base"* %53, %10
  %55 = getelementptr inbounds %"class.std::__1::__tree_end_node", %"class.std::__1::__tree_end_node"* %51, i64 1, i32 0
  %56 = select i1 %54, %"class.std::__1::__tree_node_base"** %52, %"class.std::__1::__tree_node_base"** %55
  store %"class.std::__1::__tree_node_base"* %38, %"class.std::__1::__tree_node_base"** %56, align 8
  store %"class.std::__1::__tree_node_base"* %10, %"class.std::__1::__tree_node_base"** %39, align 8
  %57 = getelementptr inbounds %"class.std::__1::__tree_node_base", %"class.std::__1::__tree_node_base"* %38, i64 0, i32 0
  store %"class.std::__1::__tree_end_node"* %57, %"class.std::__1::__tree_end_node"** %30, align 8
  %58 = getelementptr inbounds %"class.std::__1::__tree_node_base", %"class.std::__1::__tree_node_base"* %38, i64 0, i32 2
  %59 = bitcast %"class.std::__1::__tree_end_node"** %58 to %"class.std::__1::__tree_node_base"**
  %60 = load %"class.std::__1::__tree_node_base"*, %"class.std::__1::__tree_node_base"** %59, align 8
  br label %61

61:                                               ; preds = %47, %29
  %62 = phi %"class.std::__1::__tree_node_base"* [ %31, %29 ], [ %60, %47 ]
  %63 = phi %"class.std::__1::__tree_node_base"* [ %10, %29 ], [ %38, %47 ]
  %64 = getelementptr inbounds %"class.std::__1::__tree_node_base", %"class.std::__1::__tree_node_base"* %63, i64 0, i32 3
  store i8 1, i8* %64, align 8
  %65 = getelementptr inbounds %"class.std::__1::__tree_node_base", %"class.std::__1::__tree_node_base"* %62, i64 0, i32 3
  store i8 0, i8* %65, align 8
  %66 = getelementptr inbounds %"class.std::__1::__tree_node_base", %"class.std::__1::__tree_node_base"* %62, i64 0, i32 0, i32 0
  %67 = load %"class.std::__1::__tree_node_base"*, %"class.std::__1::__tree_node_base"** %66, align 8
  %68 = getelementptr inbounds %"class.std::__1::__tree_node_base", %"class.std::__1::__tree_node_base"* %67, i64 0, i32 1
  %69 = load %"class.std::__1::__tree_node_base"*, %"class.std::__1::__tree_node_base"** %68, align 8
  store %"class.std::__1::__tree_node_base"* %69, %"class.std::__1::__tree_node_base"** %66, align 8
  %70 = icmp eq %"class.std::__1::__tree_node_base"* %69, null
  br i1 %70, label %74, label %71

71:                                               ; preds = %61
  %72 = getelementptr inbounds %"class.std::__1::__tree_node_base", %"class.std::__1::__tree_node_base"* %62, i64 0, i32 0
  %73 = getelementptr inbounds %"class.std::__1::__tree_node_base", %"class.std::__1::__tree_node_base"* %69, i64 0, i32 2
  store %"class.std::__1::__tree_end_node"* %72, %"class.std::__1::__tree_end_node"** %73, align 8
  br label %74

74:                                               ; preds = %71, %61
  %75 = getelementptr inbounds %"class.std::__1::__tree_node_base", %"class.std::__1::__tree_node_base"* %62, i64 0, i32 2
  %76 = bitcast %"class.std::__1::__tree_end_node"** %75 to i64*
  %77 = load i64, i64* %76, align 8
  %78 = getelementptr inbounds %"class.std::__1::__tree_node_base", %"class.std::__1::__tree_node_base"* %67, i64 0, i32 2
  %79 = bitcast %"class.std::__1::__tree_end_node"** %78 to i64*
  store i64 %77, i64* %79, align 8
  %80 = load %"class.std::__1::__tree_end_node"*, %"class.std::__1::__tree_end_node"** %75, align 8
  %81 = getelementptr inbounds %"class.std::__1::__tree_end_node", %"class.std::__1::__tree_end_node"* %80, i64 0, i32 0
  %82 = load %"class.std::__1::__tree_node_base"*, %"class.std::__1::__tree_node_base"** %81, align 8
  %83 = icmp eq %"class.std::__1::__tree_node_base"* %82, %62
  %84 = getelementptr inbounds %"class.std::__1::__tree_end_node", %"class.std::__1::__tree_end_node"* %80, i64 1, i32 0
  %85 = select i1 %83, %"class.std::__1::__tree_node_base"** %81, %"class.std::__1::__tree_node_base"** %84
  store %"class.std::__1::__tree_node_base"* %67, %"class.std::__1::__tree_node_base"** %85, align 8
  store %"class.std::__1::__tree_node_base"* %62, %"class.std::__1::__tree_node_base"** %68, align 8
  %86 = getelementptr inbounds %"class.std::__1::__tree_node_base", %"class.std::__1::__tree_node_base"* %67, i64 0, i32 0
  store %"class.std::__1::__tree_end_node"* %86, %"class.std::__1::__tree_end_node"** %75, align 8
  br label %156

87:                                               ; preds = %14
  %88 = icmp eq %"class.std::__1::__tree_node_base"* %18, null
  br i1 %88, label %93, label %89

89:                                               ; preds = %87
  %90 = getelementptr inbounds %"class.std::__1::__tree_node_base", %"class.std::__1::__tree_node_base"* %18, i64 0, i32 3
  %91 = load i8, i8* %90, align 8, !range !8
  %92 = icmp eq i8 %91, 0
  br i1 %92, label %149, label %93

93:                                               ; preds = %89, %87
  %94 = getelementptr inbounds %"class.std::__1::__tree_node_base", %"class.std::__1::__tree_node_base"* %10, i64 0, i32 2
  %95 = bitcast %"class.std::__1::__tree_end_node"* %16 to %"class.std::__1::__tree_node_base"*
  %96 = getelementptr inbounds %"class.std::__1::__tree_node_base", %"class.std::__1::__tree_node_base"* %10, i64 0, i32 0, i32 0
  %97 = load %"class.std::__1::__tree_node_base"*, %"class.std::__1::__tree_node_base"** %96, align 8
  %98 = icmp eq %"class.std::__1::__tree_node_base"* %97, %7
  br i1 %98, label %99, label %123

99:                                               ; preds = %93
  %100 = ptrtoint %"class.std::__1::__tree_end_node"* %16 to i64
  %101 = getelementptr inbounds %"class.std::__1::__tree_node_base", %"class.std::__1::__tree_node_base"* %10, i64 0, i32 0, i32 0
  %102 = getelementptr inbounds %"class.std::__1::__tree_node_base", %"class.std::__1::__tree_node_base"* %7, i64 0, i32 1
  %103 = load %"class.std::__1::__tree_node_base"*, %"class.std::__1::__tree_node_base"** %102, align 8
  store %"class.std::__1::__tree_node_base"* %103, %"class.std::__1::__tree_node_base"** %101, align 8
  %104 = icmp eq %"class.std::__1::__tree_node_base"* %103, null
  br i1 %104, label %110, label %105

105:                                              ; preds = %99
  %106 = getelementptr inbounds %"class.std::__1::__tree_node_base", %"class.std::__1::__tree_node_base"* %10, i64 0, i32 0
  %107 = getelementptr inbounds %"class.std::__1::__tree_node_base", %"class.std::__1::__tree_node_base"* %103, i64 0, i32 2
  store %"class.std::__1::__tree_end_node"* %106, %"class.std::__1::__tree_end_node"** %107, align 8
  %108 = bitcast %"class.std::__1::__tree_end_node"** %94 to i64*
  %109 = load i64, i64* %108, align 8
  br label %110

110:                                              ; preds = %99, %105
  %111 = phi i64 [ %109, %105 ], [ %100, %99 ]
  %112 = bitcast %"class.std::__1::__tree_end_node"** %8 to i64*
  store i64 %111, i64* %112, align 8
  %113 = load %"class.std::__1::__tree_end_node"*, %"class.std::__1::__tree_end_node"** %94, align 8
  %114 = getelementptr inbounds %"class.std::__1::__tree_end_node", %"class.std::__1::__tree_end_node"* %113, i64 0, i32 0
  %115 = load %"class.std::__1::__tree_node_base"*, %"class.std::__1::__tree_node_base"** %114, align 8
  %116 = icmp eq %"class.std::__1::__tree_node_base"* %115, %10
  %117 = getelementptr inbounds %"class.std::__1::__tree_end_node", %"class.std::__1::__tree_end_node"* %113, i64 1, i32 0
  %118 = select i1 %116, %"class.std::__1::__tree_node_base"** %114, %"class.std::__1::__tree_node_base"** %117
  store %"class.std::__1::__tree_node_base"* %7, %"class.std::__1::__tree_node_base"** %118, align 8
  store %"class.std::__1::__tree_node_base"* %10, %"class.std::__1::__tree_node_base"** %102, align 8
  %119 = getelementptr inbounds %"class.std::__1::__tree_node_base", %"class.std::__1::__tree_node_base"* %7, i64 0, i32 0
  store %"class.std::__1::__tree_end_node"* %119, %"class.std::__1::__tree_end_node"** %94, align 8
  %120 = getelementptr inbounds %"class.std::__1::__tree_node_base", %"class.std::__1::__tree_node_base"* %7, i64 0, i32 2
  %121 = bitcast %"class.std::__1::__tree_end_node"** %120 to %"class.std::__1::__tree_node_base"**
  %122 = load %"class.std::__1::__tree_node_base"*, %"class.std::__1::__tree_node_base"** %121, align 8
  br label %123

123:                                              ; preds = %93, %110
  %124 = phi %"class.std::__1::__tree_node_base"* [ %122, %110 ], [ %95, %93 ]
  %125 = phi %"class.std::__1::__tree_node_base"* [ %7, %110 ], [ %10, %93 ]
  %126 = getelementptr inbounds %"class.std::__1::__tree_node_base", %"class.std::__1::__tree_node_base"* %125, i64 0, i32 3
  store i8 1, i8* %126, align 8
  %127 = getelementptr inbounds %"class.std::__1::__tree_node_base", %"class.std::__1::__tree_node_base"* %124, i64 0, i32 3
  store i8 0, i8* %127, align 8
  %128 = getelementptr inbounds %"class.std::__1::__tree_node_base", %"class.std::__1::__tree_node_base"* %124, i64 0, i32 1
  %129 = load %"class.std::__1::__tree_node_base"*, %"class.std::__1::__tree_node_base"** %128, align 8
  %130 = getelementptr inbounds %"class.std::__1::__tree_node_base", %"class.std::__1::__tree_node_base"* %129, i64 0, i32 0, i32 0
  %131 = load %"class.std::__1::__tree_node_base"*, %"class.std::__1::__tree_node_base"** %130, align 8
  store %"class.std::__1::__tree_node_base"* %131, %"class.std::__1::__tree_node_base"** %128, align 8
  %132 = icmp eq %"class.std::__1::__tree_node_base"* %131, null
  br i1 %132, label %136, label %133

133:                                              ; preds = %123
  %134 = getelementptr inbounds %"class.std::__1::__tree_node_base", %"class.std::__1::__tree_node_base"* %124, i64 0, i32 0
  %135 = getelementptr inbounds %"class.std::__1::__tree_node_base", %"class.std::__1::__tree_node_base"* %131, i64 0, i32 2
  store %"class.std::__1::__tree_end_node"* %134, %"class.std::__1::__tree_end_node"** %135, align 8
  br label %136

136:                                              ; preds = %133, %123
  %137 = getelementptr inbounds %"class.std::__1::__tree_node_base", %"class.std::__1::__tree_node_base"* %124, i64 0, i32 2
  %138 = bitcast %"class.std::__1::__tree_end_node"** %137 to i64*
  %139 = load i64, i64* %138, align 8
  %140 = getelementptr inbounds %"class.std::__1::__tree_node_base", %"class.std::__1::__tree_node_base"* %129, i64 0, i32 2
  %141 = bitcast %"class.std::__1::__tree_end_node"** %140 to i64*
  store i64 %139, i64* %141, align 8
  %142 = load %"class.std::__1::__tree_end_node"*, %"class.std::__1::__tree_end_node"** %137, align 8
  %143 = getelementptr inbounds %"class.std::__1::__tree_end_node", %"class.std::__1::__tree_end_node"* %142, i64 0, i32 0
  %144 = load %"class.std::__1::__tree_node_base"*, %"class.std::__1::__tree_node_base"** %143, align 8
  %145 = icmp eq %"class.std::__1::__tree_node_base"* %144, %124
  %146 = getelementptr inbounds %"class.std::__1::__tree_end_node", %"class.std::__1::__tree_end_node"* %142, i64 1, i32 0
  %147 = select i1 %145, %"class.std::__1::__tree_node_base"** %143, %"class.std::__1::__tree_node_base"** %146
  store %"class.std::__1::__tree_node_base"* %129, %"class.std::__1::__tree_node_base"** %147, align 8
  store %"class.std::__1::__tree_node_base"* %124, %"class.std::__1::__tree_node_base"** %130, align 8
  %148 = getelementptr inbounds %"class.std::__1::__tree_node_base", %"class.std::__1::__tree_node_base"* %129, i64 0, i32 0
  store %"class.std::__1::__tree_end_node"* %148, %"class.std::__1::__tree_end_node"** %137, align 8
  br label %156

149:                                              ; preds = %89, %25
  %150 = phi i8* [ %26, %25 ], [ %90, %89 ]
  store i8 1, i8* %11, align 8
  %151 = icmp eq %"class.std::__1::__tree_node_base"* %20, %0
  %152 = getelementptr inbounds %"class.std::__1::__tree_end_node", %"class.std::__1::__tree_end_node"* %16, i64 3
  %153 = bitcast %"class.std::__1::__tree_end_node"* %152 to i8*
  %154 = zext i1 %151 to i8
  store i8 %154, i8* %153, align 8
  store i8 1, i8* %150, align 8
  %155 = icmp eq %"class.std::__1::__tree_node_base"* %20, %0
  br i1 %155, label %156, label %6

156:                                              ; preds = %6, %149, %2, %136, %74
  ret void
}

declare void @_ZNSt3__112basic_stringIcNS_11char_traitsIcEENS_9allocatorIcEEE25__init_copy_ctor_externalEPKcm(%"class.std::__1::basic_string"*, i8*, i64) local_unnamed_addr #4

; Function Attrs: nounwind ssp uwtable
define linkonce_odr hidden zeroext i1 @_ZN4mojo8internal10SerializerINS_11MapDataViewIN5blink5mojom23EffectiveConnectionTypeEiEENSt3__13mapIS5_iNS7_4lessIS5_EENS7_9allocatorINS7_4pairIKS5_iEEEEEEE11DeserializeEPNS0_8Map_DataIiiEEPSG_PNS_7MessageE(%"class.mojo::internal::Map_Data.88"*, %"class.std::__1::map.39"*, %"class.mojo::Message"*) local_unnamed_addr #0 comdat align 2 {
  %4 = icmp eq %"class.mojo::internal::Map_Data.88"* %0, null
  br i1 %4, label %5, label %13

5:                                                ; preds = %3
  %6 = getelementptr inbounds %"class.std::__1::map.39", %"class.std::__1::map.39"* %1, i64 0, i32 0
  %7 = getelementptr inbounds %"class.std::__1::map.39", %"class.std::__1::map.39"* %1, i64 0, i32 0, i32 1, i32 0, i32 0
  %8 = bitcast %"class.std::__1::__tree_end_node"* %7 to %"class.std::__1::__tree_node.105"**
  %9 = load %"class.std::__1::__tree_node.105"*, %"class.std::__1::__tree_node.105"** %8, align 8
  tail call void @_ZNSt3__16__treeINS_12__value_typeIN5blink5mojom23EffectiveConnectionTypeEiEENS_19__map_value_compareIS4_S5_NS_4lessIS4_EELb1EEENS_9allocatorIS5_EEE7destroyEPNS_11__tree_nodeIS5_PvEE(%"class.std::__1::__tree.40"* %6, %"class.std::__1::__tree_node.105"* %9) #7
  %10 = getelementptr inbounds %"class.std::__1::map.39", %"class.std::__1::map.39"* %1, i64 0, i32 0, i32 2, i32 0, i32 0
  store i64 0, i64* %10, align 8
  %11 = getelementptr inbounds %"class.std::__1::map.39", %"class.std::__1::map.39"* %1, i64 0, i32 0, i32 0
  store %"class.std::__1::__tree_end_node"* %7, %"class.std::__1::__tree_end_node"** %11, align 8
  %12 = getelementptr inbounds %"class.std::__1::__tree_end_node", %"class.std::__1::__tree_end_node"* %7, i64 0, i32 0
  store %"class.std::__1::__tree_node_base"* null, %"class.std::__1::__tree_node_base"** %12, align 8
  br label %171

13:                                               ; preds = %3
  %14 = getelementptr inbounds %"class.mojo::internal::Map_Data.88", %"class.mojo::internal::Map_Data.88"* %0, i64 0, i32 1
  %15 = getelementptr inbounds %"struct.mojo::internal::Pointer.89", %"struct.mojo::internal::Pointer.89"* %14, i64 0, i32 0
  %16 = load i64, i64* %15, align 8
  %17 = icmp eq i64 %16, 0
  %18 = bitcast %"struct.mojo::internal::Pointer.89"* %14 to i8*
  %19 = getelementptr inbounds i8, i8* %18, i64 %16
  %20 = bitcast i8* %19 to %"class.mojo::internal::Array_Data.104"*
  %21 = select i1 %17, %"class.mojo::internal::Array_Data.104"* null, %"class.mojo::internal::Array_Data.104"* %20
  %22 = getelementptr inbounds %"class.mojo::internal::Array_Data.104", %"class.mojo::internal::Array_Data.104"* %21, i64 0, i32 0, i32 1
  %23 = load i32, i32* %22, align 1
  %24 = zext i32 %23 to i64
  %25 = icmp eq i32 %23, 0
  br i1 %25, label %50, label %26

26:                                               ; preds = %13
  %27 = shl nuw nsw i64 %24, 2
  %28 = tail call i8* @_Znwm(i64 %27) #8
  %29 = bitcast i8* %28 to i32*
  %30 = getelementptr inbounds i32, i32* %29, i64 %24
  %31 = ptrtoint i8* %28 to i64
  %32 = add nsw i64 %24, -1
  %33 = getelementptr i32, i32* %29, i64 %32
  %34 = ptrtoint i32* %33 to i64
  %35 = sub i64 4, %31
  %36 = add i64 %35, %34
  %37 = and i64 %36, -4
  tail call void @llvm.memset.p0i8.i64(i8* nonnull align 4 %28, i8 0, i64 %37, i1 false) #7
  %38 = ptrtoint i32* %30 to i64
  %39 = getelementptr inbounds %"class.mojo::internal::Array_Data.104", %"class.mojo::internal::Array_Data.104"* %21, i64 1, i32 0, i32 0
  %40 = bitcast i8* %28 to i32*
  %41 = load i32, i32* %22, align 1
  %42 = zext i32 %41 to i64
  br label %43

43:                                               ; preds = %43, %26
  %44 = phi i64 [ 0, %26 ], [ %46, %43 ]
  %45 = getelementptr inbounds i32, i32* %39, i64 %44
  %46 = add nuw nsw i64 %44, 1
  %47 = getelementptr inbounds i32, i32* %40, i64 %44
  %48 = load i32, i32* %45, align 4
  store i32 %48, i32* %47, align 4
  %49 = icmp ult i64 %46, %42
  br i1 %49, label %43, label %50

50:                                               ; preds = %43, %13
  %51 = phi i64 [ 0, %13 ], [ %38, %43 ]
  %52 = phi i64 [ 0, %13 ], [ %31, %43 ]
  %53 = getelementptr inbounds %"class.mojo::internal::Map_Data.88", %"class.mojo::internal::Map_Data.88"* %0, i64 0, i32 2
  %54 = getelementptr inbounds %"struct.mojo::internal::Pointer.89", %"struct.mojo::internal::Pointer.89"* %53, i64 0, i32 0
  %55 = load i64, i64* %54, align 8
  %56 = icmp eq i64 %55, 0
  %57 = bitcast %"struct.mojo::internal::Pointer.89"* %53 to i8*
  %58 = getelementptr inbounds i8, i8* %57, i64 %55
  %59 = bitcast i8* %58 to %"class.mojo::internal::Array_Data.104"*
  %60 = select i1 %56, %"class.mojo::internal::Array_Data.104"* null, %"class.mojo::internal::Array_Data.104"* %59
  %61 = getelementptr inbounds %"class.mojo::internal::Array_Data.104", %"class.mojo::internal::Array_Data.104"* %60, i64 0, i32 0, i32 1
  %62 = load i32, i32* %61, align 1
  %63 = zext i32 %62 to i64
  %64 = icmp eq i32 %62, 0
  br i1 %64, label %80, label %65

65:                                               ; preds = %50
  %66 = shl nuw nsw i64 %63, 2
  %67 = tail call i8* @_Znwm(i64 %66) #8
  %68 = bitcast i8* %67 to i32*
  %69 = ptrtoint i8* %67 to i64
  %70 = add nsw i64 %63, -1
  %71 = getelementptr i32, i32* %68, i64 %70
  %72 = ptrtoint i32* %71 to i64
  %73 = sub i64 4, %69
  %74 = add i64 %73, %72
  %75 = and i64 %74, -4
  tail call void @llvm.memset.p0i8.i64(i8* nonnull align 4 %67, i8 0, i64 %75, i1 false) #7
  %76 = zext i32 %62 to i64
  %77 = getelementptr inbounds %"class.mojo::internal::Array_Data.104", %"class.mojo::internal::Array_Data.104"* %60, i64 1, i32 0, i32 0
  %78 = bitcast i32* %77 to i8*
  %79 = shl nuw nsw i64 %76, 2
  tail call void @llvm.memcpy.p0i8.p0i8.i64(i8* nonnull align 4 %67, i8* align 4 %78, i64 %79, i1 false) #7
  br label %80

80:                                               ; preds = %50, %65
  %81 = phi i32* [ %68, %65 ], [ null, %50 ]
  %82 = phi i8* [ %67, %65 ], [ null, %50 ]
  %83 = sub i64 %51, %52
  %84 = ashr exact i64 %83, 2
  %85 = getelementptr inbounds %"class.std::__1::map.39", %"class.std::__1::map.39"* %1, i64 0, i32 0
  %86 = getelementptr inbounds %"class.std::__1::map.39", %"class.std::__1::map.39"* %1, i64 0, i32 0, i32 1, i32 0, i32 0
  %87 = bitcast %"class.std::__1::__tree_end_node"* %86 to %"class.std::__1::__tree_node.105"**
  %88 = load %"class.std::__1::__tree_node.105"*, %"class.std::__1::__tree_node.105"** %87, align 8
  tail call void @_ZNSt3__16__treeINS_12__value_typeIN5blink5mojom23EffectiveConnectionTypeEiEENS_19__map_value_compareIS4_S5_NS_4lessIS4_EELb1EEENS_9allocatorIS5_EEE7destroyEPNS_11__tree_nodeIS5_PvEE(%"class.std::__1::__tree.40"* %85, %"class.std::__1::__tree_node.105"* %88) #7
  %89 = getelementptr inbounds %"class.std::__1::map.39", %"class.std::__1::map.39"* %1, i64 0, i32 0, i32 2, i32 0, i32 0
  store i64 0, i64* %89, align 8
  %90 = getelementptr inbounds %"class.std::__1::map.39", %"class.std::__1::map.39"* %1, i64 0, i32 0, i32 0
  store %"class.std::__1::__tree_end_node"* %86, %"class.std::__1::__tree_end_node"** %90, align 8
  %91 = getelementptr inbounds %"class.std::__1::__tree_end_node", %"class.std::__1::__tree_end_node"* %86, i64 0, i32 0
  store %"class.std::__1::__tree_node_base"* null, %"class.std::__1::__tree_node_base"** %91, align 8
  %92 = icmp eq i64 %83, 0
  br i1 %92, label %164, label %93

93:                                               ; preds = %80
  %94 = inttoptr i64 %52 to i32*
  %95 = getelementptr inbounds %"class.std::__1::map.39", %"class.std::__1::map.39"* %1, i64 0, i32 0, i32 1, i32 0, i32 0, i32 0
  %96 = bitcast %"class.std::__1::map.39"* %1 to i64*
  br label %97

97:                                               ; preds = %162, %93
  %98 = phi %"class.std::__1::__tree_node.105"* [ null, %93 ], [ %163, %162 ]
  %99 = phi i64 [ 0, %93 ], [ %160, %162 ]
  %100 = getelementptr inbounds i32, i32* %94, i64 %99
  %101 = getelementptr inbounds i32, i32* %81, i64 %99
  %102 = load i32, i32* %100, align 4
  %103 = load i32, i32* %101, align 4
  %104 = icmp eq %"class.std::__1::__tree_node.105"* %98, null
  br i1 %104, label %131, label %105

105:                                              ; preds = %97, %127
  %106 = phi %"class.std::__1::__tree_node.105"* [ %130, %127 ], [ %98, %97 ]
  %107 = phi %"class.std::__1::__tree_node_base"** [ %129, %127 ], [ %95, %97 ]
  %108 = getelementptr inbounds %"class.std::__1::__tree_node.105", %"class.std::__1::__tree_node.105"* %106, i64 0, i32 1, i32 0, i32 0
  %109 = load i32, i32* %108, align 4
  %110 = icmp slt i32 %102, %109
  br i1 %110, label %111, label %117

111:                                              ; preds = %105
  %112 = getelementptr inbounds %"class.std::__1::__tree_node.105", %"class.std::__1::__tree_node.105"* %106, i64 0, i32 0, i32 0, i32 0
  %113 = load %"class.std::__1::__tree_node_base"*, %"class.std::__1::__tree_node_base"** %112, align 8
  %114 = icmp eq %"class.std::__1::__tree_node_base"* %113, null
  br i1 %114, label %115, label %127

115:                                              ; preds = %111
  %116 = getelementptr inbounds %"class.std::__1::__tree_node.105", %"class.std::__1::__tree_node.105"* %106, i64 0, i32 0, i32 0
  br label %131

117:                                              ; preds = %105
  %118 = icmp slt i32 %109, %102
  br i1 %118, label %119, label %125

119:                                              ; preds = %117
  %120 = getelementptr inbounds %"class.std::__1::__tree_node.105", %"class.std::__1::__tree_node.105"* %106, i64 0, i32 0, i32 1
  %121 = load %"class.std::__1::__tree_node_base"*, %"class.std::__1::__tree_node_base"** %120, align 8
  %122 = icmp eq %"class.std::__1::__tree_node_base"* %121, null
  br i1 %122, label %123, label %127

123:                                              ; preds = %119
  %124 = getelementptr inbounds %"class.std::__1::__tree_node.105", %"class.std::__1::__tree_node.105"* %106, i64 0, i32 0, i32 0
  br label %131

125:                                              ; preds = %117
  %126 = getelementptr inbounds %"class.std::__1::__tree_node.105", %"class.std::__1::__tree_node.105"* %106, i64 0, i32 0, i32 0
  br label %131

127:                                              ; preds = %119, %111
  %128 = phi %"class.std::__1::__tree_node_base"* [ %113, %111 ], [ %121, %119 ]
  %129 = phi %"class.std::__1::__tree_node_base"** [ %112, %111 ], [ %120, %119 ]
  %130 = bitcast %"class.std::__1::__tree_node_base"* %128 to %"class.std::__1::__tree_node.105"*
  br label %105

131:                                              ; preds = %97, %125, %123, %115
  %132 = phi %"class.std::__1::__tree_end_node"* [ %116, %115 ], [ %124, %123 ], [ %126, %125 ], [ %86, %97 ]
  %133 = phi %"class.std::__1::__tree_node_base"** [ %112, %115 ], [ %120, %123 ], [ %107, %125 ], [ %91, %97 ]
  %134 = bitcast %"class.std::__1::__tree_node_base"** %133 to %"class.std::__1::__tree_node.105"**
  %135 = load %"class.std::__1::__tree_node.105"*, %"class.std::__1::__tree_node.105"** %134, align 8
  %136 = icmp eq %"class.std::__1::__tree_node.105"* %135, null
  br i1 %136, label %137, label %159

137:                                              ; preds = %131
  %138 = tail call i8* @_Znwm(i64 40) #8, !noalias !9
  %139 = getelementptr inbounds i8, i8* %138, i64 28
  %140 = bitcast i8* %139 to i32*
  store i32 %102, i32* %140, align 4, !noalias !9
  %141 = getelementptr inbounds i8, i8* %138, i64 32
  %142 = bitcast i8* %141 to i32*
  store i32 %103, i32* %142, align 4, !noalias !9
  %143 = bitcast i8* %138 to %"class.std::__1::__tree_node_base"*
  %144 = getelementptr inbounds i8, i8* %138, i64 16
  %145 = bitcast i8* %144 to %"class.std::__1::__tree_end_node"**
  tail call void @llvm.memset.p0i8.i64(i8* nonnull align 8 %138, i8 0, i64 16, i1 false) #7
  store %"class.std::__1::__tree_end_node"* %132, %"class.std::__1::__tree_end_node"** %145, align 8
  %146 = bitcast %"class.std::__1::__tree_node_base"** %133 to i8**
  store i8* %138, i8** %146, align 8
  %147 = load %"class.std::__1::__tree_end_node"*, %"class.std::__1::__tree_end_node"** %90, align 8
  %148 = getelementptr inbounds %"class.std::__1::__tree_end_node", %"class.std::__1::__tree_end_node"* %147, i64 0, i32 0
  %149 = load %"class.std::__1::__tree_node_base"*, %"class.std::__1::__tree_node_base"** %148, align 8
  %150 = icmp eq %"class.std::__1::__tree_node_base"* %149, null
  br i1 %150, label %154, label %151

151:                                              ; preds = %137
  %152 = ptrtoint %"class.std::__1::__tree_node_base"* %149 to i64
  store i64 %152, i64* %96, align 8
  %153 = load %"class.std::__1::__tree_node_base"*, %"class.std::__1::__tree_node_base"** %133, align 8
  br label %154

154:                                              ; preds = %151, %137
  %155 = phi %"class.std::__1::__tree_node_base"* [ %143, %137 ], [ %153, %151 ]
  %156 = load %"class.std::__1::__tree_node_base"*, %"class.std::__1::__tree_node_base"** %95, align 8
  tail call void @_ZNSt3__127__tree_balance_after_insertIPNS_16__tree_node_baseIPvEEEEvT_S5_(%"class.std::__1::__tree_node_base"* %156, %"class.std::__1::__tree_node_base"* %155) #7
  %157 = load i64, i64* %89, align 8
  %158 = add i64 %157, 1
  store i64 %158, i64* %89, align 8
  br label %159

159:                                              ; preds = %154, %131
  %160 = add nuw i64 %99, 1
  %161 = icmp ult i64 %160, %84
  br i1 %161, label %162, label %164

162:                                              ; preds = %159
  %163 = load %"class.std::__1::__tree_node.105"*, %"class.std::__1::__tree_node.105"** %87, align 8
  br label %97

164:                                              ; preds = %159, %80
  %165 = icmp eq i32* %81, null
  br i1 %165, label %167, label %166

166:                                              ; preds = %164
  tail call void @_ZdlPv(i8* %82) #8
  br label %167

167:                                              ; preds = %164, %166
  %168 = icmp eq i64 %52, 0
  br i1 %168, label %171, label %169

169:                                              ; preds = %167
  %170 = inttoptr i64 %52 to i8*
  tail call void @_ZdlPv(i8* %170) #8
  br label %171

171:                                              ; preds = %169, %167, %5
  ret i1 true
}

; Function Attrs: nounwind ssp uwtable
define linkonce_odr hidden void @_ZNSt3__16__treeINS_12__value_typeIN5blink5mojom23EffectiveConnectionTypeEiEENS_19__map_value_compareIS4_S5_NS_4lessIS4_EELb1EEENS_9allocatorIS5_EEE7destroyEPNS_11__tree_nodeIS5_PvEE(%"class.std::__1::__tree.40"*, %"class.std::__1::__tree_node.105"*) local_unnamed_addr #0 comdat align 2 {
  %3 = icmp eq %"class.std::__1::__tree_node.105"* %1, null
  br i1 %3, label %11, label %4

4:                                                ; preds = %2
  %5 = bitcast %"class.std::__1::__tree_node.105"* %1 to %"class.std::__1::__tree_node.105"**
  %6 = load %"class.std::__1::__tree_node.105"*, %"class.std::__1::__tree_node.105"** %5, align 8
  tail call void @_ZNSt3__16__treeINS_12__value_typeIN5blink5mojom23EffectiveConnectionTypeEiEENS_19__map_value_compareIS4_S5_NS_4lessIS4_EELb1EEENS_9allocatorIS5_EEE7destroyEPNS_11__tree_nodeIS5_PvEE(%"class.std::__1::__tree.40"* %0, %"class.std::__1::__tree_node.105"* %6) #7
  %7 = getelementptr inbounds %"class.std::__1::__tree_node.105", %"class.std::__1::__tree_node.105"* %1, i64 0, i32 0, i32 1
  %8 = bitcast %"class.std::__1::__tree_node_base"** %7 to %"class.std::__1::__tree_node.105"**
  %9 = load %"class.std::__1::__tree_node.105"*, %"class.std::__1::__tree_node.105"** %8, align 8
  tail call void @_ZNSt3__16__treeINS_12__value_typeIN5blink5mojom23EffectiveConnectionTypeEiEENS_19__map_value_compareIS4_S5_NS_4lessIS4_EELb1EEENS_9allocatorIS5_EEE7destroyEPNS_11__tree_nodeIS5_PvEE(%"class.std::__1::__tree.40"* %0, %"class.std::__1::__tree_node.105"* %9) #7
  %10 = bitcast %"class.std::__1::__tree_node.105"* %1 to i8*
  tail call void @_ZdlPv(i8* %10) #8
  ret void

11:                                               ; preds = %2
  ret void
}

declare zeroext i1 @_ZN4mojo12StructTraitsIN3url5mojom11UrlDataViewE4GURLE4ReadES3_PS4_(%"class.url::mojom::internal::Url_Data"*, %"class.mojo::Message"*, %class.GURL*) local_unnamed_addr #4

; Function Attrs: argmemonly nounwind
declare void @llvm.memset.p0i8.i64(i8* nocapture writeonly, i8, i64, i1 immarg) #1

attributes #0 = { nounwind ssp uwtable "correctly-rounded-divide-sqrt-fp-math"="false" "disable-tail-calls"="false" "less-precise-fpmad"="false" "min-legal-vector-width"="0" "no-frame-pointer-elim"="false" "no-frame-pointer-elim-non-leaf" "no-infs-fp-math"="false" "no-jump-tables"="false" "no-nans-fp-math"="false" "no-signed-zeros-fp-math"="false" "no-trapping-math"="false" "null-pointer-is-valid"="true" "stack-protector-buffer-size"="4" "target-cpu"="x86-64" "target-features"="+cx8,+fxsr,+mmx,+sse,+sse2,+sse3,+x87" "unsafe-fp-math"="false" "use-soft-float"="false" }
attributes #1 = { argmemonly nounwind }
attributes #2 = { nobuiltin nounwind "correctly-rounded-divide-sqrt-fp-math"="false" "disable-tail-calls"="false" "less-precise-fpmad"="false" "no-frame-pointer-elim"="false" "no-frame-pointer-elim-non-leaf" "no-infs-fp-math"="false" "no-nans-fp-math"="false" "no-signed-zeros-fp-math"="false" "no-trapping-math"="false" "null-pointer-is-valid"="true" "stack-protector-buffer-size"="4" "target-cpu"="x86-64" "target-features"="+cx8,+fxsr,+mmx,+sse,+sse2,+sse3,+x87" "unsafe-fp-math"="false" "use-soft-float"="false" }
attributes #3 = { nobuiltin nofree "correctly-rounded-divide-sqrt-fp-math"="false" "disable-tail-calls"="false" "less-precise-fpmad"="false" "no-frame-pointer-elim"="false" "no-frame-pointer-elim-non-leaf" "no-infs-fp-math"="false" "no-nans-fp-math"="false" "no-signed-zeros-fp-math"="false" "no-trapping-math"="false" "null-pointer-is-valid"="true" "stack-protector-buffer-size"="4" "target-cpu"="x86-64" "target-features"="+cx8,+fxsr,+mmx,+sse,+sse2,+sse3,+x87" "unsafe-fp-math"="false" "use-soft-float"="false" }
attributes #4 = { "correctly-rounded-divide-sqrt-fp-math"="false" "disable-tail-calls"="false" "less-precise-fpmad"="false" "no-frame-pointer-elim"="false" "no-frame-pointer-elim-non-leaf" "no-infs-fp-math"="false" "no-nans-fp-math"="false" "no-signed-zeros-fp-math"="false" "no-trapping-math"="false" "null-pointer-is-valid"="true" "stack-protector-buffer-size"="4" "target-cpu"="x86-64" "target-features"="+cx8,+fxsr,+mmx,+sse,+sse2,+sse3,+x87" "unsafe-fp-math"="false" "use-soft-float"="false" }
attributes #5 = { nounwind readnone }
attributes #6 = { nofree nounwind readonly "correctly-rounded-divide-sqrt-fp-math"="false" "disable-tail-calls"="false" "less-precise-fpmad"="false" "no-frame-pointer-elim"="false" "no-frame-pointer-elim-non-leaf" "no-infs-fp-math"="false" "no-nans-fp-math"="false" "no-signed-zeros-fp-math"="false" "no-trapping-math"="false" "null-pointer-is-valid"="true" "stack-protector-buffer-size"="4" "target-cpu"="x86-64" "target-features"="+cx8,+fxsr,+mmx,+sse,+sse2,+sse3,+x87" "unsafe-fp-math"="false" "use-soft-float"="false" }
attributes #7 = { nounwind }
attributes #8 = { builtin nounwind }

!llvm.module.flags = !{!0, !1}

!0 = !{i32 1, !"wchar_size", i32 4}
!1 = !{i32 7, !"PIC Level", i32 2}
!2 = !{!3}
!3 = distinct !{!3, !4, !"_ZNSt3__19make_pairIRKNS_12basic_stringIcNS_11char_traitsIcEENS_9allocatorIcEEEENS1_IDsNS2_IDsEENS4_IDsEEEEEENS_4pairINS_18__unwrap_ref_decayIT_E4typeENSD_IT0_E4typeEEEOSE_OSH_: argument 0"}
!4 = distinct !{!4, !"_ZNSt3__19make_pairIRKNS_12basic_stringIcNS_11char_traitsIcEENS_9allocatorIcEEEENS1_IDsNS2_IDsEENS4_IDsEEEEEENS_4pairINS_18__unwrap_ref_decayIT_E4typeENSD_IT0_E4typeEEEOSE_OSH_"}
!5 = !{!6}
!6 = distinct !{!6, !7, !"_ZNSt3__16__treeINS_12__value_typeINS_12basic_stringIcNS_11char_traitsIcEENS_9allocatorIcEEEENS2_IDsNS3_IDsEENS5_IDsEEEEEENS_19__map_value_compareIS7_SB_NS_4lessIS7_EELb1EEENS5_ISB_EEE16__construct_nodeIJNS_4pairIS7_SA_EEEEENS_10unique_ptrINS_11__tree_nodeISB_PvEENS_22__tree_node_destructorINS5_ISO_EEEEEEDpOT_: argument 0"}
!7 = distinct !{!7, !"_ZNSt3__16__treeINS_12__value_typeINS_12basic_stringIcNS_11char_traitsIcEENS_9allocatorIcEEEENS2_IDsNS3_IDsEENS5_IDsEEEEEENS_19__map_value_compareIS7_SB_NS_4lessIS7_EELb1EEENS5_ISB_EEE16__construct_nodeIJNS_4pairIS7_SA_EEEEENS_10unique_ptrINS_11__tree_nodeISB_PvEENS_22__tree_node_destructorINS5_ISO_EEEEEEDpOT_"}
!8 = !{i8 0, i8 2}
!9 = !{!10}
!10 = distinct !{!10, !11, !"_ZNSt3__16__treeINS_12__value_typeIN5blink5mojom23EffectiveConnectionTypeEiEENS_19__map_value_compareIS4_S5_NS_4lessIS4_EELb1EEENS_9allocatorIS5_EEE16__construct_nodeIJNS_4pairIS4_iEEEEENS_10unique_ptrINS_11__tree_nodeIS5_PvEENS_22__tree_node_destructorINSA_ISJ_EEEEEEDpOT_: argument 0"}
!11 = distinct !{!11, !"_ZNSt3__16__treeINS_12__value_typeIN5blink5mojom23EffectiveConnectionTypeEiEENS_19__map_value_compareIS4_S5_NS_4lessIS4_EELb1EEENS_9allocatorIS5_EEE16__construct_nodeIJNS_4pairIS4_iEEEEENS_10unique_ptrINS_11__tree_nodeIS5_PvEENS_22__tree_node_destructorINSA_ISJ_EEEEEEDpOT_"}
