; ModuleID = 'gen/components/feed/core/proto/v2/wire/web_feed_matcher.pb.cc'
source_filename = "gen/components/feed/core/proto/v2/wire/web_feed_matcher.pb.cc"
target datalayout = "e-m:e-i64:64-f80:128-n8:16:32:64-S128"
target triple = "x86_64-unknown-linux-gnu"

module asm ".symver exp, exp@GLIBC_2.2.5"
module asm ".symver exp2, exp2@GLIBC_2.2.5"
module asm ".symver exp2f, exp2f@GLIBC_2.2.5"
module asm ".symver expf, expf@GLIBC_2.2.5"
module asm ".symver lgamma, lgamma@GLIBC_2.2.5"
module asm ".symver lgammaf, lgammaf@GLIBC_2.2.5"
module asm ".symver lgammal, lgammal@GLIBC_2.2.5"
module asm ".symver log, log@GLIBC_2.2.5"
module asm ".symver log2, log2@GLIBC_2.2.5"
module asm ".symver log2f, log2f@GLIBC_2.2.5"
module asm ".symver logf, logf@GLIBC_2.2.5"
module asm ".symver pow, pow@GLIBC_2.2.5"
module asm ".symver powf, powf@GLIBC_2.2.5"

%"class.feedwire::webfeed::WebFeedMatcher_CriteriaDefaultTypeInternal" = type { %"class.google::protobuf::internal::ExplicitlyConstructed" }
%"class.google::protobuf::internal::ExplicitlyConstructed" = type { %"union.google::protobuf::internal::ExplicitlyConstructed<feedwire::webfeed::WebFeedMatcher_Criteria>::AlignedUnion" }
%"union.google::protobuf::internal::ExplicitlyConstructed<feedwire::webfeed::WebFeedMatcher_Criteria>::AlignedUnion" = type { i64, [32 x i8] }
%"class.feedwire::webfeed::WebFeedMatcherDefaultTypeInternal" = type { %"class.google::protobuf::internal::ExplicitlyConstructed.0" }
%"class.google::protobuf::internal::ExplicitlyConstructed.0" = type { %"union.google::protobuf::internal::ExplicitlyConstructed<feedwire::webfeed::WebFeedMatcher>::AlignedUnion" }
%"union.google::protobuf::internal::ExplicitlyConstructed<feedwire::webfeed::WebFeedMatcher>::AlignedUnion" = type { i64, [40 x i8] }
%"struct.google::protobuf::internal::EnumEntry" = type <{ %"class.google::protobuf::StringPiece", i32, [4 x i8] }>
%"class.google::protobuf::StringPiece" = type { i8*, i64 }
%"class.google::protobuf::internal::ExplicitlyConstructed.4" = type { %"union.google::protobuf::internal::ExplicitlyConstructed<std::__1::basic_string<char, std::__1::char_traits<char>, std::__1::allocator<char> > >::AlignedUnion" }
%"union.google::protobuf::internal::ExplicitlyConstructed<std::__1::basic_string<char, std::__1::char_traits<char>, std::__1::allocator<char> > >::AlignedUnion" = type { i64, [16 x i8] }
%"class.feedwire::webfeed::WebFeedMatcher_Criteria" = type { %"class.google::protobuf::MessageLite", i32, %"union.feedwire::webfeed::WebFeedMatcher_Criteria::MatchUnion", %"class.google::protobuf::internal::CachedSize", [1 x i32] }
%"class.google::protobuf::MessageLite" = type { i32 (...)**, %"class.google::protobuf::internal::InternalMetadata" }
%"class.google::protobuf::internal::InternalMetadata" = type { i8* }
%"union.feedwire::webfeed::WebFeedMatcher_Criteria::MatchUnion" = type { %"struct.google::protobuf::internal::ArenaStringPtr" }
%"struct.google::protobuf::internal::ArenaStringPtr" = type { %"class.std::__1::basic_string"* }
%"class.std::__1::basic_string" = type { %"class.std::__1::__compressed_pair" }
%"class.std::__1::__compressed_pair" = type { %"struct.std::__1::__compressed_pair_elem" }
%"struct.std::__1::__compressed_pair_elem" = type { %"struct.std::__1::basic_string<char, std::__1::char_traits<char>, std::__1::allocator<char> >::__rep" }
%"struct.std::__1::basic_string<char, std::__1::char_traits<char>, std::__1::allocator<char> >::__rep" = type { %union.anon }
%union.anon = type { %"struct.std::__1::basic_string<char, std::__1::char_traits<char>, std::__1::allocator<char> >::__long" }
%"struct.std::__1::basic_string<char, std::__1::char_traits<char>, std::__1::allocator<char> >::__long" = type { i8*, i64, i64 }
%"class.google::protobuf::internal::CachedSize" = type { %"struct.std::__1::atomic" }
%"struct.std::__1::atomic" = type { %"struct.std::__1::__atomic_base" }
%"struct.std::__1::__atomic_base" = type { %"struct.std::__1::__atomic_base.1" }
%"struct.std::__1::__atomic_base.1" = type { %"struct.std::__1::__cxx_atomic_impl" }
%"struct.std::__1::__cxx_atomic_impl" = type { %"struct.std::__1::__cxx_atomic_base_impl" }
%"struct.std::__1::__cxx_atomic_base_impl" = type { i32 }
%"class.google::protobuf::Arena" = type { %"class.google::protobuf::internal::ArenaImpl", void (%"class.std::type_info"*, i64, i8*)*, void (%"class.google::protobuf::Arena"*, i8*, i64)*, void (%"class.google::protobuf::Arena"*, i8*, i64)*, i8* }
%"class.google::protobuf::internal::ArenaImpl" = type { %"struct.std::__1::atomic.5", %"struct.std::__1::atomic.5", %"struct.std::__1::atomic.9", %"class.google::protobuf::internal::ArenaImpl::Block"*, i64, %"struct.google::protobuf::internal::ArenaImpl::Options" }
%"struct.std::__1::atomic.5" = type { %"struct.std::__1::__atomic_base.6" }
%"struct.std::__1::__atomic_base.6" = type { %"struct.std::__1::__cxx_atomic_impl.7" }
%"struct.std::__1::__cxx_atomic_impl.7" = type { %"struct.std::__1::__cxx_atomic_base_impl.8" }
%"struct.std::__1::__cxx_atomic_base_impl.8" = type { %"class.google::protobuf::internal::ArenaImpl::SerialArena"* }
%"class.google::protobuf::internal::ArenaImpl::SerialArena" = type { %"class.google::protobuf::internal::ArenaImpl"*, i8*, %"class.google::protobuf::internal::ArenaImpl::Block"*, %"struct.google::protobuf::internal::ArenaImpl::CleanupChunk"*, %"class.google::protobuf::internal::ArenaImpl::SerialArena"*, i8*, i8*, %"struct.google::protobuf::internal::ArenaImpl::CleanupNode"*, %"struct.google::protobuf::internal::ArenaImpl::CleanupNode"* }
%"struct.google::protobuf::internal::ArenaImpl::CleanupChunk" = type { i64, %"struct.google::protobuf::internal::ArenaImpl::CleanupChunk"*, [1 x %"struct.google::protobuf::internal::ArenaImpl::CleanupNode"] }
%"struct.google::protobuf::internal::ArenaImpl::CleanupNode" = type { i8*, void (i8*)* }
%"struct.std::__1::atomic.9" = type { %"struct.std::__1::__atomic_base.10" }
%"struct.std::__1::__atomic_base.10" = type { %"struct.std::__1::__atomic_base.11" }
%"struct.std::__1::__atomic_base.11" = type { %"struct.std::__1::__cxx_atomic_impl.12" }
%"struct.std::__1::__cxx_atomic_impl.12" = type { %"struct.std::__1::__cxx_atomic_base_impl.13" }
%"struct.std::__1::__cxx_atomic_base_impl.13" = type { i64 }
%"class.google::protobuf::internal::ArenaImpl::Block" = type { %"class.google::protobuf::internal::ArenaImpl::Block"*, i64, i64 }
%"struct.google::protobuf::internal::ArenaImpl::Options" = type { i64, i64, i8*, i64, i8* (i64)*, void (i8*, i64)* }
%"class.std::type_info" = type { i32 (...)**, i8* }
%"class.feedwire::webfeed::WebFeedMatcher" = type <{ %"class.google::protobuf::MessageLite", %"class.google::protobuf::RepeatedPtrField", %"class.google::protobuf::internal::CachedSize", [4 x i8] }>
%"class.google::protobuf::RepeatedPtrField" = type { %"class.google::protobuf::internal::RepeatedPtrFieldBase" }
%"class.google::protobuf::internal::RepeatedPtrFieldBase" = type { %"class.google::protobuf::Arena"*, i32, i32, %"struct.google::protobuf::internal::RepeatedPtrFieldBase::Rep"* }
%"struct.google::protobuf::internal::RepeatedPtrFieldBase::Rep" = type { i32, [268435454 x i8*] }
%"struct.google::protobuf::internal::SCCInfoBase" = type { %"struct.std::__1::atomic", i32, i32, void ()* }
%"struct.std::__1::basic_string<char, std::__1::char_traits<char>, std::__1::allocator<char> >::__short" = type { [23 x i8], %struct.anon }
%struct.anon = type { i8 }
%"struct.google::protobuf::internal::InternalMetadata::Container" = type { %"struct.google::protobuf::internal::InternalMetadata::ContainerBase", %"class.std::__1::basic_string" }
%"struct.google::protobuf::internal::InternalMetadata::ContainerBase" = type { %"class.google::protobuf::Arena"* }
%"class.google::protobuf::internal::ParseContext" = type { %"class.google::protobuf::internal::EpsCopyInputStream", i32, i32, %"struct.google::protobuf::internal::ParseContext::Data" }
%"class.google::protobuf::internal::EpsCopyInputStream" = type { i8*, i8*, i8*, i32, i32, %"class.google::protobuf::io::ZeroCopyInputStream"*, [32 x i8], i64, i32, i32 }
%"class.google::protobuf::io::ZeroCopyInputStream" = type { i32 (...)** }
%"struct.google::protobuf::internal::ParseContext::Data" = type { %"class.google::protobuf::DescriptorPool"*, %"class.google::protobuf::MessageFactory"* }
%"class.google::protobuf::DescriptorPool" = type opaque
%"class.google::protobuf::MessageFactory" = type opaque
%"class.google::protobuf::io::EpsCopyOutputStream" = type <{ i8*, i8*, [32 x i8], %"class.google::protobuf::io::ZeroCopyOutputStream"*, i8, i8, i8, [5 x i8] }>
%"class.google::protobuf::io::ZeroCopyOutputStream" = type { i32 (...)** }

$_ZN6google8protobuf8internal12ParseContext12ParseMessageIN8feedwire7webfeed23WebFeedMatcher_CriteriaEEEPKcPT_S8_ = comdat any

$_ZNK8feedwire7webfeed23WebFeedMatcher_Criteria3NewEv = comdat any

$_ZNK8feedwire7webfeed23WebFeedMatcher_Criteria3NewEPN6google8protobuf5ArenaE = comdat any

$_ZNK8feedwire7webfeed23WebFeedMatcher_Criteria13GetCachedSizeEv = comdat any

$_ZNK6google8protobuf11MessageLite16InternalGetTableEv = comdat any

$_ZNK8feedwire7webfeed14WebFeedMatcher3NewEv = comdat any

$_ZNK8feedwire7webfeed14WebFeedMatcher3NewEPN6google8protobuf5ArenaE = comdat any

$_ZNK8feedwire7webfeed14WebFeedMatcher13GetCachedSizeEv = comdat any

$_ZN6google8protobuf8internal14ArenaStringPtr14CreateInstanceEPNS0_5ArenaEPKNSt3__112basic_stringIcNS5_11char_traitsIcEENS5_9allocatorIcEEEE = comdat any

$_ZN6google8protobuf8internal21arena_destruct_objectINSt3__112basic_stringIcNS3_11char_traitsIcEENS3_9allocatorIcEEEEEEvPv = comdat any

$_ZN6google8protobuf8internal16InternalMetadata27mutable_unknown_fields_slowINSt3__112basic_stringIcNS4_11char_traitsIcEENS4_9allocatorIcEEEEEEPT_v = comdat any

$_ZN6google8protobuf8internal21arena_destruct_objectINS1_16InternalMetadata9ContainerINSt3__112basic_stringIcNS5_11char_traitsIcEENS5_9allocatorIcEEEEEEEEvPv = comdat any

$_ZN6google8protobuf8internal18GenericTypeHandlerIN8feedwire7webfeed23WebFeedMatcher_CriteriaEE5MergeERKS5_PS5_ = comdat any

@_ZN8feedwire7webfeed42_WebFeedMatcher_Criteria_default_instance_E = hidden global %"class.feedwire::webfeed::WebFeedMatcher_CriteriaDefaultTypeInternal" zeroinitializer, align 8
@_ZN8feedwire7webfeed33_WebFeedMatcher_default_instance_E = hidden global %"class.feedwire::webfeed::WebFeedMatcherDefaultTypeInternal" zeroinitializer, align 8
@scc_info_WebFeedMatcher_components_2ffeed_2fcore_2fproto_2fv2_2fwire_2fweb_5ffeed_5fmatcher_2eproto = hidden global { { { { i32 } }, i32, i32, void ()* }, [1 x i8*] } { { { { i32 } }, i32, i32, void ()* } { { { i32 } } { { i32 } { i32 -1 } }, i32 1, i32 0, void ()* @_ZL111InitDefaultsscc_info_WebFeedMatcher_components_2ffeed_2fcore_2fproto_2fv2_2fwire_2fweb_5ffeed_5fmatcher_2eprotov }, [1 x i8*] [i8* bitcast ({ { { { i32 } }, i32, i32, void ()* }, [0 x i8*] }* @scc_info_WebFeedMatcher_Criteria_components_2ffeed_2fcore_2fproto_2fv2_2fwire_2fweb_5ffeed_5fmatcher_2eproto to i8*)] }, align 8
@scc_info_WebFeedMatcher_Criteria_components_2ffeed_2fcore_2fproto_2fv2_2fwire_2fweb_5ffeed_5fmatcher_2eproto = hidden global { { { { i32 } }, i32, i32, void ()* }, [0 x i8*] } { { { { i32 } }, i32, i32, void ()* } { { { i32 } } { { i32 } { i32 -1 } }, i32 0, i32 0, void ()* @_ZL120InitDefaultsscc_info_WebFeedMatcher_Criteria_components_2ffeed_2fcore_2fproto_2fv2_2fwire_2fweb_5ffeed_5fmatcher_2eprotov }, [0 x i8*] zeroinitializer }, align 8
@_ZN8feedwire7webfeedL44WebFeedMatcher_Criteria_CriteriaType_entriesE = internal constant [5 x %"struct.google::protobuf::internal::EnumEntry"] [%"struct.google::protobuf::internal::EnumEntry" <{ %"class.google::protobuf::StringPiece" { i8* getelementptr inbounds ([97 x i8], [97 x i8]* @_ZN8feedwire7webfeedL42WebFeedMatcher_Criteria_CriteriaType_namesE, i64 0, i64 0), i64 25 }, i32 0, [4 x i8] zeroinitializer }>, %"struct.google::protobuf::internal::EnumEntry" <{ %"class.google::protobuf::StringPiece" { i8* getelementptr inbounds ([97 x i8], [97 x i8]* @_ZN8feedwire7webfeedL42WebFeedMatcher_Criteria_CriteriaType_namesE, i64 0, i64 25), i64 19 }, i32 1, [4 x i8] zeroinitializer }>, %"struct.google::protobuf::internal::EnumEntry" <{ %"class.google::protobuf::StringPiece" { i8* getelementptr inbounds ([97 x i8], [97 x i8]* @_ZN8feedwire7webfeedL42WebFeedMatcher_Criteria_CriteriaType_namesE, i64 0, i64 44), i64 20 }, i32 2, [4 x i8] zeroinitializer }>, %"struct.google::protobuf::internal::EnumEntry" <{ %"class.google::protobuf::StringPiece" { i8* getelementptr inbounds ([97 x i8], [97 x i8]* @_ZN8feedwire7webfeedL42WebFeedMatcher_Criteria_CriteriaType_namesE, i64 0, i64 64), i64 19 }, i32 3, [4 x i8] zeroinitializer }>, %"struct.google::protobuf::internal::EnumEntry" <{ %"class.google::protobuf::StringPiece" { i8* getelementptr inbounds ([97 x i8], [97 x i8]* @_ZN8feedwire7webfeedL42WebFeedMatcher_Criteria_CriteriaType_namesE, i64 0, i64 83), i64 13 }, i32 4, [4 x i8] zeroinitializer }>], align 16
@_ZN8feedwire7webfeedL42WebFeedMatcher_Criteria_CriteriaType_namesE = internal constant [97 x i8] c"CRITERIA_TYPE_UNSPECIFIEDPAGE_URL_HOST_MATCHPAGE_URL_HOST_SUFFIXPAGE_URL_PATH_MATCHRSS_URL_MATCH\00", align 16
@_ZZN8feedwire7webfeed41WebFeedMatcher_Criteria_CriteriaType_NameENS0_36WebFeedMatcher_Criteria_CriteriaTypeEE5dummy = internal global i8 0, align 1
@_ZGVZN8feedwire7webfeed41WebFeedMatcher_Criteria_CriteriaType_NameENS0_36WebFeedMatcher_Criteria_CriteriaTypeEE5dummy = internal global i64 0, align 8
@_ZN8feedwire7webfeedL54WebFeedMatcher_Criteria_CriteriaType_entries_by_numberE = internal constant [5 x i32] [i32 0, i32 1, i32 2, i32 3, i32 4], align 16
@_ZN8feedwire7webfeedL44WebFeedMatcher_Criteria_CriteriaType_stringsE = internal global [5 x %"class.google::protobuf::internal::ExplicitlyConstructed.4"] zeroinitializer, align 16
@_ZN8feedwire7webfeed23WebFeedMatcher_Criteria25CRITERIA_TYPE_UNSPECIFIEDE = hidden local_unnamed_addr constant i32 0, align 4
@_ZN8feedwire7webfeed23WebFeedMatcher_Criteria19PAGE_URL_HOST_MATCHE = hidden local_unnamed_addr constant i32 1, align 4
@_ZN8feedwire7webfeed23WebFeedMatcher_Criteria20PAGE_URL_HOST_SUFFIXE = hidden local_unnamed_addr constant i32 2, align 4
@_ZN8feedwire7webfeed23WebFeedMatcher_Criteria19PAGE_URL_PATH_MATCHE = hidden local_unnamed_addr constant i32 3, align 4
@_ZN8feedwire7webfeed23WebFeedMatcher_Criteria13RSS_URL_MATCHE = hidden local_unnamed_addr constant i32 4, align 4
@_ZN8feedwire7webfeed23WebFeedMatcher_Criteria16CriteriaType_MINE = hidden local_unnamed_addr constant i32 0, align 4
@_ZN8feedwire7webfeed23WebFeedMatcher_Criteria16CriteriaType_MAXE = hidden local_unnamed_addr constant i32 4, align 4
@_ZN8feedwire7webfeed23WebFeedMatcher_Criteria22CriteriaType_ARRAYSIZEE = hidden local_unnamed_addr constant i32 5, align 4
@_ZTVN8feedwire7webfeed23WebFeedMatcher_CriteriaE = hidden unnamed_addr constant { [16 x i8*] } { [16 x i8*] [i8* null, i8* null, i8* bitcast (void (%"class.feedwire::webfeed::WebFeedMatcher_Criteria"*)* @_ZN8feedwire7webfeed23WebFeedMatcher_CriteriaD2Ev to i8*), i8* bitcast (void (%"class.feedwire::webfeed::WebFeedMatcher_Criteria"*)* @_ZN8feedwire7webfeed23WebFeedMatcher_CriteriaD0Ev to i8*), i8* bitcast (void (%"class.std::__1::basic_string"*, %"class.feedwire::webfeed::WebFeedMatcher_Criteria"*)* @_ZNK8feedwire7webfeed23WebFeedMatcher_Criteria11GetTypeNameEv to i8*), i8* bitcast (%"class.feedwire::webfeed::WebFeedMatcher_Criteria"* (%"class.feedwire::webfeed::WebFeedMatcher_Criteria"*)* @_ZNK8feedwire7webfeed23WebFeedMatcher_Criteria3NewEv to i8*), i8* bitcast (%"class.feedwire::webfeed::WebFeedMatcher_Criteria"* (%"class.feedwire::webfeed::WebFeedMatcher_Criteria"*, %"class.google::protobuf::Arena"*)* @_ZNK8feedwire7webfeed23WebFeedMatcher_Criteria3NewEPN6google8protobuf5ArenaE to i8*), i8* bitcast (void (%"class.feedwire::webfeed::WebFeedMatcher_Criteria"*)* @_ZN8feedwire7webfeed23WebFeedMatcher_Criteria5ClearEv to i8*), i8* bitcast (i1 (%"class.feedwire::webfeed::WebFeedMatcher_Criteria"*)* @_ZNK8feedwire7webfeed23WebFeedMatcher_Criteria13IsInitializedEv to i8*), i8* bitcast (void (%"class.std::__1::basic_string"*, %"class.google::protobuf::MessageLite"*)* @_ZNK6google8protobuf11MessageLite25InitializationErrorStringEv to i8*), i8* bitcast (void (%"class.feedwire::webfeed::WebFeedMatcher_Criteria"*, %"class.google::protobuf::MessageLite"*)* @_ZN8feedwire7webfeed23WebFeedMatcher_Criteria21CheckTypeAndMergeFromERKN6google8protobuf11MessageLiteE to i8*), i8* bitcast (i64 (%"class.feedwire::webfeed::WebFeedMatcher_Criteria"*)* @_ZNK8feedwire7webfeed23WebFeedMatcher_Criteria12ByteSizeLongEv to i8*), i8* bitcast (i32 (%"class.feedwire::webfeed::WebFeedMatcher_Criteria"*)* @_ZNK8feedwire7webfeed23WebFeedMatcher_Criteria13GetCachedSizeEv to i8*), i8* bitcast (i8* (%"class.feedwire::webfeed::WebFeedMatcher_Criteria"*, i8*, %"class.google::protobuf::internal::ParseContext"*)* @_ZN8feedwire7webfeed23WebFeedMatcher_Criteria14_InternalParseEPKcPN6google8protobuf8internal12ParseContextE to i8*), i8* bitcast (i8* (%"class.feedwire::webfeed::WebFeedMatcher_Criteria"*, i8*, %"class.google::protobuf::io::EpsCopyOutputStream"*)* @_ZNK8feedwire7webfeed23WebFeedMatcher_Criteria18_InternalSerializeEPhPN6google8protobuf2io19EpsCopyOutputStreamE to i8*), i8* bitcast (i8* (%"class.google::protobuf::MessageLite"*)* @_ZNK6google8protobuf11MessageLite16InternalGetTableEv to i8*)] }, align 8
@.str = private unnamed_addr constant [46 x i8] c"feedwire.webfeed.WebFeedMatcher.Criteria.text\00", align 1
@.str.2 = private unnamed_addr constant [61 x i8] c"feedwire.webfeed.WebFeedMatcher.Criteria.partial_match_regex\00", align 1
@.str.3 = private unnamed_addr constant [62 x i8] c"gen/components/feed/core/proto/v2/wire/web_feed_matcher.pb.cc\00", align 1
@.str.5 = private unnamed_addr constant [41 x i8] c"feedwire.webfeed.WebFeedMatcher.Criteria\00", align 1
@_ZTVN8feedwire7webfeed14WebFeedMatcherE = hidden unnamed_addr constant { [16 x i8*] } { [16 x i8*] [i8* null, i8* null, i8* bitcast (void (%"class.feedwire::webfeed::WebFeedMatcher"*)* @_ZN8feedwire7webfeed14WebFeedMatcherD2Ev to i8*), i8* bitcast (void (%"class.feedwire::webfeed::WebFeedMatcher"*)* @_ZN8feedwire7webfeed14WebFeedMatcherD0Ev to i8*), i8* bitcast (void (%"class.std::__1::basic_string"*, %"class.feedwire::webfeed::WebFeedMatcher"*)* @_ZNK8feedwire7webfeed14WebFeedMatcher11GetTypeNameEv to i8*), i8* bitcast (%"class.feedwire::webfeed::WebFeedMatcher"* (%"class.feedwire::webfeed::WebFeedMatcher"*)* @_ZNK8feedwire7webfeed14WebFeedMatcher3NewEv to i8*), i8* bitcast (%"class.feedwire::webfeed::WebFeedMatcher"* (%"class.feedwire::webfeed::WebFeedMatcher"*, %"class.google::protobuf::Arena"*)* @_ZNK8feedwire7webfeed14WebFeedMatcher3NewEPN6google8protobuf5ArenaE to i8*), i8* bitcast (void (%"class.feedwire::webfeed::WebFeedMatcher"*)* @_ZN8feedwire7webfeed14WebFeedMatcher5ClearEv to i8*), i8* bitcast (i1 (%"class.feedwire::webfeed::WebFeedMatcher"*)* @_ZNK8feedwire7webfeed14WebFeedMatcher13IsInitializedEv to i8*), i8* bitcast (void (%"class.std::__1::basic_string"*, %"class.google::protobuf::MessageLite"*)* @_ZNK6google8protobuf11MessageLite25InitializationErrorStringEv to i8*), i8* bitcast (void (%"class.feedwire::webfeed::WebFeedMatcher"*, %"class.google::protobuf::MessageLite"*)* @_ZN8feedwire7webfeed14WebFeedMatcher21CheckTypeAndMergeFromERKN6google8protobuf11MessageLiteE to i8*), i8* bitcast (i64 (%"class.feedwire::webfeed::WebFeedMatcher"*)* @_ZNK8feedwire7webfeed14WebFeedMatcher12ByteSizeLongEv to i8*), i8* bitcast (i32 (%"class.feedwire::webfeed::WebFeedMatcher"*)* @_ZNK8feedwire7webfeed14WebFeedMatcher13GetCachedSizeEv to i8*), i8* bitcast (i8* (%"class.feedwire::webfeed::WebFeedMatcher"*, i8*, %"class.google::protobuf::internal::ParseContext"*)* @_ZN8feedwire7webfeed14WebFeedMatcher14_InternalParseEPKcPN6google8protobuf8internal12ParseContextE to i8*), i8* bitcast (i8* (%"class.feedwire::webfeed::WebFeedMatcher"*, i8*, %"class.google::protobuf::io::EpsCopyOutputStream"*)* @_ZNK8feedwire7webfeed14WebFeedMatcher18_InternalSerializeEPhPN6google8protobuf2io19EpsCopyOutputStreamE to i8*), i8* bitcast (i8* (%"class.google::protobuf::MessageLite"*)* @_ZNK6google8protobuf11MessageLite16InternalGetTableEv to i8*)] }, align 8
@.str.6 = private unnamed_addr constant [32 x i8] c"feedwire.webfeed.WebFeedMatcher\00", align 1
@_ZN6google8protobuf8internal26fixed_address_empty_stringE = external global %"class.google::protobuf::internal::ExplicitlyConstructed.4", align 8
@.str.16 = private unnamed_addr constant [25 x i8] c"size_t to int conversion\00", align 1
@llvm.global_ctors = appending global [0 x { i32, void ()*, i8* }] zeroinitializer

@_ZN8feedwire7webfeed23WebFeedMatcher_CriteriaC1EPN6google8protobuf5ArenaE = hidden unnamed_addr alias void (%"class.feedwire::webfeed::WebFeedMatcher_Criteria"*, %"class.google::protobuf::Arena"*), void (%"class.feedwire::webfeed::WebFeedMatcher_Criteria"*, %"class.google::protobuf::Arena"*)* @_ZN8feedwire7webfeed23WebFeedMatcher_CriteriaC2EPN6google8protobuf5ArenaE
@_ZN8feedwire7webfeed23WebFeedMatcher_CriteriaC1ERKS1_ = hidden unnamed_addr alias void (%"class.feedwire::webfeed::WebFeedMatcher_Criteria"*, %"class.feedwire::webfeed::WebFeedMatcher_Criteria"*), void (%"class.feedwire::webfeed::WebFeedMatcher_Criteria"*, %"class.feedwire::webfeed::WebFeedMatcher_Criteria"*)* @_ZN8feedwire7webfeed23WebFeedMatcher_CriteriaC2ERKS1_
@_ZN8feedwire7webfeed23WebFeedMatcher_CriteriaD1Ev = hidden unnamed_addr alias void (%"class.feedwire::webfeed::WebFeedMatcher_Criteria"*), void (%"class.feedwire::webfeed::WebFeedMatcher_Criteria"*)* @_ZN8feedwire7webfeed23WebFeedMatcher_CriteriaD2Ev
@_ZN8feedwire7webfeed14WebFeedMatcherC1EPN6google8protobuf5ArenaE = hidden unnamed_addr alias void (%"class.feedwire::webfeed::WebFeedMatcher"*, %"class.google::protobuf::Arena"*), void (%"class.feedwire::webfeed::WebFeedMatcher"*, %"class.google::protobuf::Arena"*)* @_ZN8feedwire7webfeed14WebFeedMatcherC2EPN6google8protobuf5ArenaE
@_ZN8feedwire7webfeed14WebFeedMatcherC1ERKS1_ = hidden unnamed_addr alias void (%"class.feedwire::webfeed::WebFeedMatcher"*, %"class.feedwire::webfeed::WebFeedMatcher"*), void (%"class.feedwire::webfeed::WebFeedMatcher"*, %"class.feedwire::webfeed::WebFeedMatcher"*)* @_ZN8feedwire7webfeed14WebFeedMatcherC2ERKS1_
@_ZN8feedwire7webfeed14WebFeedMatcherD1Ev = hidden unnamed_addr alias void (%"class.feedwire::webfeed::WebFeedMatcher"*), void (%"class.feedwire::webfeed::WebFeedMatcher"*)* @_ZN8feedwire7webfeed14WebFeedMatcherD2Ev

; Function Attrs: nounwind ssp uwtable
define internal void @_ZL111InitDefaultsscc_info_WebFeedMatcher_components_2ffeed_2fcore_2fproto_2fv2_2fwire_2fweb_5ffeed_5fmatcher_2eprotov() #0 {
  tail call void @_ZN6google8protobuf8internal13VerifyVersionEiiPKc(i32 3013000, i32 3013000, i8* getelementptr inbounds ([62 x i8], [62 x i8]* @.str.3, i64 0, i64 0)) #11
  store %"class.google::protobuf::Arena"* null, %"class.google::protobuf::Arena"** bitcast (i8* getelementptr inbounds (%"class.feedwire::webfeed::WebFeedMatcherDefaultTypeInternal", %"class.feedwire::webfeed::WebFeedMatcherDefaultTypeInternal"* @_ZN8feedwire7webfeed33_WebFeedMatcher_default_instance_E, i64 0, i32 0, i32 0, i32 1, i64 0) to %"class.google::protobuf::Arena"**), align 8
  store i32 (...)** bitcast (i8** getelementptr inbounds ({ [16 x i8*] }, { [16 x i8*] }* @_ZTVN8feedwire7webfeed14WebFeedMatcherE, i64 0, inrange i32 0, i64 2) to i32 (...)**), i32 (...)*** bitcast (%"class.feedwire::webfeed::WebFeedMatcherDefaultTypeInternal"* @_ZN8feedwire7webfeed33_WebFeedMatcher_default_instance_E to i32 (...)***), align 8
  tail call void @llvm.memset.p0i8.i64(i8* align 8 getelementptr inbounds (%"class.feedwire::webfeed::WebFeedMatcherDefaultTypeInternal", %"class.feedwire::webfeed::WebFeedMatcherDefaultTypeInternal"* @_ZN8feedwire7webfeed33_WebFeedMatcher_default_instance_E, i64 0, i32 0, i32 0, i32 1, i64 8), i8 0, i64 28, i1 false) #11
  %1 = load atomic i32, i32* getelementptr inbounds ({ { { { i32 } }, i32, i32, void ()* }, [1 x i8*] }, { { { { i32 } }, i32, i32, void ()* }, [1 x i8*] }* @scc_info_WebFeedMatcher_components_2ffeed_2fcore_2fproto_2fv2_2fwire_2fweb_5ffeed_5fmatcher_2eproto, i64 0, i32 0, i32 0, i32 0, i32 0) acquire, align 8
  %2 = icmp eq i32 %1, 0
  br i1 %2, label %4, label %3, !prof !2

3:                                                ; preds = %0
  tail call void @_ZN6google8protobuf8internal11InitSCCImplEPNS1_11SCCInfoBaseE(%"struct.google::protobuf::internal::SCCInfoBase"* bitcast ({ { { { i32 } }, i32, i32, void ()* }, [1 x i8*] }* @scc_info_WebFeedMatcher_components_2ffeed_2fcore_2fproto_2fv2_2fwire_2fweb_5ffeed_5fmatcher_2eproto to %"struct.google::protobuf::internal::SCCInfoBase"*)) #11
  br label %4

4:                                                ; preds = %0, %3
  tail call void @_ZN6google8protobuf8internal13OnShutdownRunEPFvPKvES3_(void (i8*)* nonnull @_ZN6google8protobuf8internal14DestroyMessageEPKv, i8* bitcast (%"class.feedwire::webfeed::WebFeedMatcherDefaultTypeInternal"* @_ZN8feedwire7webfeed33_WebFeedMatcher_default_instance_E to i8*)) #11
  ret void
}

; Function Attrs: nounwind ssp uwtable
define internal void @_ZL120InitDefaultsscc_info_WebFeedMatcher_Criteria_components_2ffeed_2fcore_2fproto_2fv2_2fwire_2fweb_5ffeed_5fmatcher_2eprotov() #0 {
  tail call void @_ZN6google8protobuf8internal13VerifyVersionEiiPKc(i32 3013000, i32 3013000, i8* getelementptr inbounds ([62 x i8], [62 x i8]* @.str.3, i64 0, i64 0)) #11
  store %"class.google::protobuf::Arena"* null, %"class.google::protobuf::Arena"** bitcast (i8* getelementptr inbounds (%"class.feedwire::webfeed::WebFeedMatcher_CriteriaDefaultTypeInternal", %"class.feedwire::webfeed::WebFeedMatcher_CriteriaDefaultTypeInternal"* @_ZN8feedwire7webfeed42_WebFeedMatcher_Criteria_default_instance_E, i64 0, i32 0, i32 0, i32 1, i64 0) to %"class.google::protobuf::Arena"**), align 8
  store i32 (...)** bitcast (i8** getelementptr inbounds ({ [16 x i8*] }, { [16 x i8*] }* @_ZTVN8feedwire7webfeed23WebFeedMatcher_CriteriaE, i64 0, inrange i32 0, i64 2) to i32 (...)**), i32 (...)*** bitcast (%"class.feedwire::webfeed::WebFeedMatcher_CriteriaDefaultTypeInternal"* @_ZN8feedwire7webfeed42_WebFeedMatcher_Criteria_default_instance_E to i32 (...)***), align 8
  store i32 0, i32* bitcast (i8* getelementptr inbounds (%"class.feedwire::webfeed::WebFeedMatcher_CriteriaDefaultTypeInternal", %"class.feedwire::webfeed::WebFeedMatcher_CriteriaDefaultTypeInternal"* @_ZN8feedwire7webfeed42_WebFeedMatcher_Criteria_default_instance_E, i64 0, i32 0, i32 0, i32 1, i64 24) to i32*), align 8
  %1 = load atomic i32, i32* getelementptr inbounds ({ { { { i32 } }, i32, i32, void ()* }, [0 x i8*] }, { { { { i32 } }, i32, i32, void ()* }, [0 x i8*] }* @scc_info_WebFeedMatcher_Criteria_components_2ffeed_2fcore_2fproto_2fv2_2fwire_2fweb_5ffeed_5fmatcher_2eproto, i64 0, i32 0, i32 0, i32 0, i32 0) acquire, align 8
  %2 = icmp eq i32 %1, 0
  br i1 %2, label %4, label %3, !prof !2

3:                                                ; preds = %0
  tail call void @_ZN6google8protobuf8internal11InitSCCImplEPNS1_11SCCInfoBaseE(%"struct.google::protobuf::internal::SCCInfoBase"* bitcast ({ { { { i32 } }, i32, i32, void ()* }, [0 x i8*] }* @scc_info_WebFeedMatcher_Criteria_components_2ffeed_2fcore_2fproto_2fv2_2fwire_2fweb_5ffeed_5fmatcher_2eproto to %"struct.google::protobuf::internal::SCCInfoBase"*)) #11
  br label %4

4:                                                ; preds = %0, %3
  store i32 0, i32* bitcast (i8* getelementptr inbounds (%"class.feedwire::webfeed::WebFeedMatcher_CriteriaDefaultTypeInternal", %"class.feedwire::webfeed::WebFeedMatcher_CriteriaDefaultTypeInternal"* @_ZN8feedwire7webfeed42_WebFeedMatcher_Criteria_default_instance_E, i64 0, i32 0, i32 0, i32 1, i64 8) to i32*), align 8
  store i32 0, i32* bitcast (i8* getelementptr inbounds (%"class.feedwire::webfeed::WebFeedMatcher_CriteriaDefaultTypeInternal", %"class.feedwire::webfeed::WebFeedMatcher_CriteriaDefaultTypeInternal"* @_ZN8feedwire7webfeed42_WebFeedMatcher_Criteria_default_instance_E, i64 0, i32 0, i32 0, i32 1, i64 28) to i32*), align 4
  tail call void @_ZN6google8protobuf8internal13OnShutdownRunEPFvPKvES3_(void (i8*)* nonnull @_ZN6google8protobuf8internal14DestroyMessageEPKv, i8* bitcast (%"class.feedwire::webfeed::WebFeedMatcher_CriteriaDefaultTypeInternal"* @_ZN8feedwire7webfeed42_WebFeedMatcher_Criteria_default_instance_E to i8*)) #11
  ret void
}

; Function Attrs: norecurse nounwind readnone ssp uwtable
define hidden zeroext i1 @_ZN8feedwire7webfeed44WebFeedMatcher_Criteria_CriteriaType_IsValidEi(i32) local_unnamed_addr #1 {
  %2 = icmp ult i32 %0, 5
  ret i1 %2
}

; Function Attrs: argmemonly nounwind
declare {}* @llvm.invariant.start.p0i8(i64 immarg, i8* nocapture) #2

; Function Attrs: nounwind ssp uwtable
define hidden dereferenceable(24) %"class.std::__1::basic_string"* @_ZN8feedwire7webfeed41WebFeedMatcher_Criteria_CriteriaType_NameENS0_36WebFeedMatcher_Criteria_CriteriaTypeE(i32) local_unnamed_addr #0 {
  %2 = load atomic i8, i8* bitcast (i64* @_ZGVZN8feedwire7webfeed41WebFeedMatcher_Criteria_CriteriaType_NameENS0_36WebFeedMatcher_Criteria_CriteriaTypeEE5dummy to i8*) acquire, align 8
  %3 = icmp eq i8 %2, 0
  br i1 %3, label %4, label %11, !prof !3

4:                                                ; preds = %1
  %5 = tail call i32 @__cxa_guard_acquire(i64* nonnull @_ZGVZN8feedwire7webfeed41WebFeedMatcher_Criteria_CriteriaType_NameENS0_36WebFeedMatcher_Criteria_CriteriaTypeEE5dummy) #11
  %6 = icmp eq i32 %5, 0
  br i1 %6, label %11, label %7

7:                                                ; preds = %4
  %8 = tail call zeroext i1 @_ZN6google8protobuf8internal21InitializeEnumStringsEPKNS1_9EnumEntryEPKimPNS1_21ExplicitlyConstructedINSt3__112basic_stringIcNS8_11char_traitsIcEENS8_9allocatorIcEEEEEE(%"struct.google::protobuf::internal::EnumEntry"* getelementptr inbounds ([5 x %"struct.google::protobuf::internal::EnumEntry"], [5 x %"struct.google::protobuf::internal::EnumEntry"]* @_ZN8feedwire7webfeedL44WebFeedMatcher_Criteria_CriteriaType_entriesE, i64 0, i64 0), i32* getelementptr inbounds ([5 x i32], [5 x i32]* @_ZN8feedwire7webfeedL54WebFeedMatcher_Criteria_CriteriaType_entries_by_numberE, i64 0, i64 0), i64 5, %"class.google::protobuf::internal::ExplicitlyConstructed.4"* getelementptr inbounds ([5 x %"class.google::protobuf::internal::ExplicitlyConstructed.4"], [5 x %"class.google::protobuf::internal::ExplicitlyConstructed.4"]* @_ZN8feedwire7webfeedL44WebFeedMatcher_Criteria_CriteriaType_stringsE, i64 0, i64 0)) #11
  %9 = zext i1 %8 to i8
  store i8 %9, i8* @_ZZN8feedwire7webfeed41WebFeedMatcher_Criteria_CriteriaType_NameENS0_36WebFeedMatcher_Criteria_CriteriaTypeEE5dummy, align 1
  %10 = tail call {}* @llvm.invariant.start.p0i8(i64 1, i8* nonnull @_ZZN8feedwire7webfeed41WebFeedMatcher_Criteria_CriteriaType_NameENS0_36WebFeedMatcher_Criteria_CriteriaTypeEE5dummy)
  tail call void @__cxa_guard_release(i64* nonnull @_ZGVZN8feedwire7webfeed41WebFeedMatcher_Criteria_CriteriaType_NameENS0_36WebFeedMatcher_Criteria_CriteriaTypeEE5dummy) #11
  br label %11

11:                                               ; preds = %4, %7, %1
  %12 = tail call i32 @_ZN6google8protobuf8internal14LookUpEnumNameEPKNS1_9EnumEntryEPKimi(%"struct.google::protobuf::internal::EnumEntry"* getelementptr inbounds ([5 x %"struct.google::protobuf::internal::EnumEntry"], [5 x %"struct.google::protobuf::internal::EnumEntry"]* @_ZN8feedwire7webfeedL44WebFeedMatcher_Criteria_CriteriaType_entriesE, i64 0, i64 0), i32* getelementptr inbounds ([5 x i32], [5 x i32]* @_ZN8feedwire7webfeedL54WebFeedMatcher_Criteria_CriteriaType_entries_by_numberE, i64 0, i64 0), i64 5, i32 %0) #11
  %13 = icmp eq i32 %12, -1
  br i1 %13, label %14, label %16

14:                                               ; preds = %11
  %15 = tail call dereferenceable(24) %"class.std::__1::basic_string"* @_ZN6google8protobuf8internal14GetEmptyStringEv() #11
  br label %20

16:                                               ; preds = %11
  %17 = sext i32 %12 to i64
  %18 = getelementptr inbounds [5 x %"class.google::protobuf::internal::ExplicitlyConstructed.4"], [5 x %"class.google::protobuf::internal::ExplicitlyConstructed.4"]* @_ZN8feedwire7webfeedL44WebFeedMatcher_Criteria_CriteriaType_stringsE, i64 0, i64 %17
  %19 = bitcast %"class.google::protobuf::internal::ExplicitlyConstructed.4"* %18 to %"class.std::__1::basic_string"*
  br label %20

20:                                               ; preds = %16, %14
  %21 = phi %"class.std::__1::basic_string"* [ %15, %14 ], [ %19, %16 ]
  ret %"class.std::__1::basic_string"* %21
}

; Function Attrs: nofree nounwind
declare i32 @__cxa_guard_acquire(i64*) local_unnamed_addr #3

declare zeroext i1 @_ZN6google8protobuf8internal21InitializeEnumStringsEPKNS1_9EnumEntryEPKimPNS1_21ExplicitlyConstructedINSt3__112basic_stringIcNS8_11char_traitsIcEENS8_9allocatorIcEEEEEE(%"struct.google::protobuf::internal::EnumEntry"*, i32*, i64, %"class.google::protobuf::internal::ExplicitlyConstructed.4"*) local_unnamed_addr #4

; Function Attrs: nofree nounwind
declare void @__cxa_guard_release(i64*) local_unnamed_addr #3

; Function Attrs: argmemonly nounwind
declare void @llvm.lifetime.start.p0i8(i64 immarg, i8* nocapture) #2

declare i32 @_ZN6google8protobuf8internal14LookUpEnumNameEPKNS1_9EnumEntryEPKimi(%"struct.google::protobuf::internal::EnumEntry"*, i32*, i64, i32) local_unnamed_addr #4

declare dereferenceable(24) %"class.std::__1::basic_string"* @_ZN6google8protobuf8internal14GetEmptyStringEv() local_unnamed_addr #4

; Function Attrs: argmemonly nounwind
declare void @llvm.lifetime.end.p0i8(i64 immarg, i8* nocapture) #2

; Function Attrs: nounwind ssp uwtable
define hidden zeroext i1 @_ZN8feedwire7webfeed42WebFeedMatcher_Criteria_CriteriaType_ParseERKNSt3__112basic_stringIcNS1_11char_traitsIcEENS1_9allocatorIcEEEEPNS0_36WebFeedMatcher_Criteria_CriteriaTypeE(%"class.std::__1::basic_string"* dereferenceable(24), i32* nocapture) local_unnamed_addr #0 {
  %3 = alloca i32, align 4
  %4 = bitcast i32* %3 to i8*
  call void @llvm.lifetime.start.p0i8(i64 4, i8* nonnull %4) #11
  store i32 -1431655766, i32* %3, align 4
  %5 = bitcast %"class.std::__1::basic_string"* %0 to %"struct.std::__1::basic_string<char, std::__1::char_traits<char>, std::__1::allocator<char> >::__short"*
  %6 = getelementptr inbounds %"struct.std::__1::basic_string<char, std::__1::char_traits<char>, std::__1::allocator<char> >::__short", %"struct.std::__1::basic_string<char, std::__1::char_traits<char>, std::__1::allocator<char> >::__short"* %5, i64 0, i32 1, i32 0
  %7 = load i8, i8* %6, align 1
  %8 = icmp slt i8 %7, 0
  %9 = getelementptr inbounds %"class.std::__1::basic_string", %"class.std::__1::basic_string"* %0, i64 0, i32 0, i32 0, i32 0, i32 0, i32 0, i32 0
  %10 = load i8*, i8** %9, align 8
  %11 = bitcast %"class.std::__1::basic_string"* %0 to i8*
  %12 = select i1 %8, i8* %10, i8* %11
  br i1 %8, label %15, label %13

13:                                               ; preds = %2
  %14 = zext i8 %7 to i64
  br label %20

15:                                               ; preds = %2
  %16 = getelementptr inbounds %"class.std::__1::basic_string", %"class.std::__1::basic_string"* %0, i64 0, i32 0, i32 0, i32 0, i32 0, i32 0, i32 1
  %17 = load i64, i64* %16, align 8
  %18 = icmp slt i64 %17, 0
  br i1 %18, label %19, label %20

19:                                               ; preds = %15
  tail call void @_ZN6google8protobuf11StringPiece18LogFatalSizeTooBigEmPKc(i64 %17, i8* getelementptr inbounds ([25 x i8], [25 x i8]* @.str.16, i64 0, i64 0)) #11
  br label %20

20:                                               ; preds = %13, %15, %19
  %21 = phi i64 [ %14, %13 ], [ %17, %15 ], [ %17, %19 ]
  %22 = call zeroext i1 @_ZN6google8protobuf8internal15LookUpEnumValueEPKNS1_9EnumEntryEmNS0_11StringPieceEPi(%"struct.google::protobuf::internal::EnumEntry"* getelementptr inbounds ([5 x %"struct.google::protobuf::internal::EnumEntry"], [5 x %"struct.google::protobuf::internal::EnumEntry"]* @_ZN8feedwire7webfeedL44WebFeedMatcher_Criteria_CriteriaType_entriesE, i64 0, i64 0), i64 5, i8* %12, i64 %21, i32* nonnull %3) #11
  br i1 %22, label %23, label %25

23:                                               ; preds = %20
  %24 = load i32, i32* %3, align 4
  store i32 %24, i32* %1, align 4
  br label %25

25:                                               ; preds = %23, %20
  call void @llvm.lifetime.end.p0i8(i64 4, i8* nonnull %4) #11
  ret i1 %22
}

declare zeroext i1 @_ZN6google8protobuf8internal15LookUpEnumValueEPKNS1_9EnumEntryEmNS0_11StringPieceEPi(%"struct.google::protobuf::internal::EnumEntry"*, i64, i8*, i64, i32*) local_unnamed_addr #4

; Function Attrs: nounwind ssp uwtable
define hidden void @_ZN8feedwire7webfeed23WebFeedMatcher_CriteriaC2EPN6google8protobuf5ArenaE(%"class.feedwire::webfeed::WebFeedMatcher_Criteria"* nocapture, %"class.google::protobuf::Arena"*) unnamed_addr #0 align 2 {
  %3 = getelementptr inbounds %"class.feedwire::webfeed::WebFeedMatcher_Criteria", %"class.feedwire::webfeed::WebFeedMatcher_Criteria"* %0, i64 0, i32 0, i32 0
  %4 = getelementptr inbounds %"class.feedwire::webfeed::WebFeedMatcher_Criteria", %"class.feedwire::webfeed::WebFeedMatcher_Criteria"* %0, i64 0, i32 0, i32 1
  %5 = bitcast %"class.google::protobuf::internal::InternalMetadata"* %4 to %"class.google::protobuf::Arena"**
  store %"class.google::protobuf::Arena"* %1, %"class.google::protobuf::Arena"** %5, align 8
  store i32 (...)** bitcast (i8** getelementptr inbounds ({ [16 x i8*] }, { [16 x i8*] }* @_ZTVN8feedwire7webfeed23WebFeedMatcher_CriteriaE, i64 0, inrange i32 0, i64 2) to i32 (...)**), i32 (...)*** %3, align 8
  %6 = getelementptr inbounds %"class.feedwire::webfeed::WebFeedMatcher_Criteria", %"class.feedwire::webfeed::WebFeedMatcher_Criteria"* %0, i64 0, i32 3, i32 0, i32 0, i32 0, i32 0, i32 0, i32 0
  store i32 0, i32* %6, align 4
  %7 = load atomic i32, i32* getelementptr inbounds ({ { { { i32 } }, i32, i32, void ()* }, [0 x i8*] }, { { { { i32 } }, i32, i32, void ()* }, [0 x i8*] }* @scc_info_WebFeedMatcher_Criteria_components_2ffeed_2fcore_2fproto_2fv2_2fwire_2fweb_5ffeed_5fmatcher_2eproto, i64 0, i32 0, i32 0, i32 0, i32 0) acquire, align 8
  %8 = icmp eq i32 %7, 0
  br i1 %8, label %10, label %9, !prof !2

9:                                                ; preds = %2
  tail call void @_ZN6google8protobuf8internal11InitSCCImplEPNS1_11SCCInfoBaseE(%"struct.google::protobuf::internal::SCCInfoBase"* bitcast ({ { { { i32 } }, i32, i32, void ()* }, [0 x i8*] }* @scc_info_WebFeedMatcher_Criteria_components_2ffeed_2fcore_2fproto_2fv2_2fwire_2fweb_5ffeed_5fmatcher_2eproto to %"struct.google::protobuf::internal::SCCInfoBase"*)) #11
  br label %10

10:                                               ; preds = %2, %9
  %11 = getelementptr inbounds %"class.feedwire::webfeed::WebFeedMatcher_Criteria", %"class.feedwire::webfeed::WebFeedMatcher_Criteria"* %0, i64 0, i32 1
  store i32 0, i32* %11, align 8
  %12 = getelementptr inbounds %"class.feedwire::webfeed::WebFeedMatcher_Criteria", %"class.feedwire::webfeed::WebFeedMatcher_Criteria"* %0, i64 0, i32 4, i64 0
  store i32 0, i32* %12, align 4
  ret void
}

; Function Attrs: nounwind ssp uwtable
define hidden void @_ZN8feedwire7webfeed23WebFeedMatcher_CriteriaC2ERKS1_(%"class.feedwire::webfeed::WebFeedMatcher_Criteria"*, %"class.feedwire::webfeed::WebFeedMatcher_Criteria"* nocapture readonly dereferenceable(40)) unnamed_addr #0 align 2 {
  %3 = getelementptr inbounds %"class.feedwire::webfeed::WebFeedMatcher_Criteria", %"class.feedwire::webfeed::WebFeedMatcher_Criteria"* %0, i64 0, i32 0, i32 0
  %4 = getelementptr inbounds %"class.feedwire::webfeed::WebFeedMatcher_Criteria", %"class.feedwire::webfeed::WebFeedMatcher_Criteria"* %0, i64 0, i32 0, i32 1, i32 0
  store i8* null, i8** %4, align 8
  store i32 (...)** bitcast (i8** getelementptr inbounds ({ [16 x i8*] }, { [16 x i8*] }* @_ZTVN8feedwire7webfeed23WebFeedMatcher_CriteriaE, i64 0, inrange i32 0, i64 2) to i32 (...)**), i32 (...)*** %3, align 8
  %5 = getelementptr inbounds %"class.feedwire::webfeed::WebFeedMatcher_Criteria", %"class.feedwire::webfeed::WebFeedMatcher_Criteria"* %0, i64 0, i32 3, i32 0, i32 0, i32 0, i32 0, i32 0, i32 0
  store i32 0, i32* %5, align 4
  %6 = getelementptr inbounds %"class.feedwire::webfeed::WebFeedMatcher_Criteria", %"class.feedwire::webfeed::WebFeedMatcher_Criteria"* %0, i64 0, i32 0, i32 1
  %7 = getelementptr inbounds %"class.feedwire::webfeed::WebFeedMatcher_Criteria", %"class.feedwire::webfeed::WebFeedMatcher_Criteria"* %1, i64 0, i32 0, i32 1
  %8 = bitcast %"class.google::protobuf::internal::InternalMetadata"* %7 to i64*
  %9 = load i64, i64* %8, align 8
  %10 = and i64 %9, 1
  %11 = icmp eq i64 %10, 0
  br i1 %11, label %30, label %12

12:                                               ; preds = %2
  %13 = and i64 %9, -2
  %14 = inttoptr i64 %13 to %"struct.google::protobuf::internal::InternalMetadata::Container"*
  %15 = getelementptr inbounds %"struct.google::protobuf::internal::InternalMetadata::Container", %"struct.google::protobuf::internal::InternalMetadata::Container"* %14, i64 0, i32 1
  %16 = tail call %"class.std::__1::basic_string"* @_ZN6google8protobuf8internal16InternalMetadata27mutable_unknown_fields_slowINSt3__112basic_stringIcNS4_11char_traitsIcEENS4_9allocatorIcEEEEEEPT_v(%"class.google::protobuf::internal::InternalMetadata"* %6) #11
  %17 = bitcast %"class.std::__1::basic_string"* %15 to %"struct.std::__1::basic_string<char, std::__1::char_traits<char>, std::__1::allocator<char> >::__short"*
  %18 = getelementptr inbounds %"struct.std::__1::basic_string<char, std::__1::char_traits<char>, std::__1::allocator<char> >::__short", %"struct.std::__1::basic_string<char, std::__1::char_traits<char>, std::__1::allocator<char> >::__short"* %17, i64 0, i32 1, i32 0
  %19 = load i8, i8* %18, align 1
  %20 = icmp slt i8 %19, 0
  %21 = getelementptr inbounds %"class.std::__1::basic_string", %"class.std::__1::basic_string"* %15, i64 0, i32 0, i32 0, i32 0, i32 0, i32 0, i32 0
  %22 = load i8*, i8** %21, align 8
  %23 = getelementptr inbounds %"struct.google::protobuf::internal::InternalMetadata::Container", %"struct.google::protobuf::internal::InternalMetadata::Container"* %14, i64 0, i32 1, i32 0, i32 0, i32 0, i32 0, i32 0, i32 1
  %24 = load i64, i64* %23, align 8
  %25 = bitcast %"class.std::__1::basic_string"* %15 to i8*
  %26 = zext i8 %19 to i64
  %27 = select i1 %20, i8* %22, i8* %25
  %28 = select i1 %20, i64 %24, i64 %26
  %29 = tail call dereferenceable(24) %"class.std::__1::basic_string"* @_ZNSt3__112basic_stringIcNS_11char_traitsIcEENS_9allocatorIcEEE6appendEPKcm(%"class.std::__1::basic_string"* %16, i8* %27, i64 %28) #11
  br label %30

30:                                               ; preds = %2, %12
  %31 = getelementptr inbounds %"class.feedwire::webfeed::WebFeedMatcher_Criteria", %"class.feedwire::webfeed::WebFeedMatcher_Criteria"* %1, i64 0, i32 1
  %32 = load i32, i32* %31, align 8
  %33 = getelementptr inbounds %"class.feedwire::webfeed::WebFeedMatcher_Criteria", %"class.feedwire::webfeed::WebFeedMatcher_Criteria"* %0, i64 0, i32 1
  store i32 %32, i32* %33, align 8
  %34 = getelementptr inbounds %"class.feedwire::webfeed::WebFeedMatcher_Criteria", %"class.feedwire::webfeed::WebFeedMatcher_Criteria"* %0, i64 0, i32 4, i64 0
  store i32 0, i32* %34, align 4
  %35 = getelementptr inbounds %"class.feedwire::webfeed::WebFeedMatcher_Criteria", %"class.feedwire::webfeed::WebFeedMatcher_Criteria"* %1, i64 0, i32 4, i64 0
  %36 = load i32, i32* %35, align 4
  switch i32 %36, label %73 [
    i32 2, label %37
    i32 3, label %55
  ]

37:                                               ; preds = %30
  %38 = getelementptr inbounds %"class.feedwire::webfeed::WebFeedMatcher_Criteria", %"class.feedwire::webfeed::WebFeedMatcher_Criteria"* %1, i64 0, i32 2, i32 0, i32 0
  %39 = load %"class.std::__1::basic_string"*, %"class.std::__1::basic_string"** %38, align 8
  tail call void @_ZN8feedwire7webfeed23WebFeedMatcher_Criteria11clear_matchEv(%"class.feedwire::webfeed::WebFeedMatcher_Criteria"* %0) #11
  store i32 2, i32* %34, align 4
  %40 = getelementptr inbounds %"class.feedwire::webfeed::WebFeedMatcher_Criteria", %"class.feedwire::webfeed::WebFeedMatcher_Criteria"* %0, i64 0, i32 2, i32 0, i32 0
  store %"class.std::__1::basic_string"* bitcast (%"class.google::protobuf::internal::ExplicitlyConstructed.4"* @_ZN6google8protobuf8internal26fixed_address_empty_stringE to %"class.std::__1::basic_string"*), %"class.std::__1::basic_string"** %40, align 8
  %41 = getelementptr inbounds %"class.feedwire::webfeed::WebFeedMatcher_Criteria", %"class.feedwire::webfeed::WebFeedMatcher_Criteria"* %0, i64 0, i32 2, i32 0
  %42 = bitcast %"class.google::protobuf::internal::InternalMetadata"* %6 to i64*
  %43 = load i64, i64* %42, align 8
  %44 = and i64 %43, 1
  %45 = icmp eq i64 %44, 0
  %46 = and i64 %43, -2
  br i1 %45, label %51, label %47, !prof !2

47:                                               ; preds = %37
  %48 = inttoptr i64 %46 to %"struct.google::protobuf::internal::InternalMetadata::ContainerBase"*
  %49 = getelementptr inbounds %"struct.google::protobuf::internal::InternalMetadata::ContainerBase", %"struct.google::protobuf::internal::InternalMetadata::ContainerBase"* %48, i64 0, i32 0
  %50 = load %"class.google::protobuf::Arena"*, %"class.google::protobuf::Arena"** %49, align 8
  br label %53

51:                                               ; preds = %37
  %52 = inttoptr i64 %46 to %"class.google::protobuf::Arena"*
  br label %53

53:                                               ; preds = %47, %51
  %54 = phi %"class.google::protobuf::Arena"* [ %50, %47 ], [ %52, %51 ]
  tail call void @_ZN6google8protobuf8internal14ArenaStringPtr14CreateInstanceEPNS0_5ArenaEPKNSt3__112basic_stringIcNS5_11char_traitsIcEENS5_9allocatorIcEEEE(%"struct.google::protobuf::internal::ArenaStringPtr"* %41, %"class.google::protobuf::Arena"* %54, %"class.std::__1::basic_string"* %39) #11
  br label %73

55:                                               ; preds = %30
  %56 = getelementptr inbounds %"class.feedwire::webfeed::WebFeedMatcher_Criteria", %"class.feedwire::webfeed::WebFeedMatcher_Criteria"* %1, i64 0, i32 2, i32 0, i32 0
  %57 = load %"class.std::__1::basic_string"*, %"class.std::__1::basic_string"** %56, align 8
  tail call void @_ZN8feedwire7webfeed23WebFeedMatcher_Criteria11clear_matchEv(%"class.feedwire::webfeed::WebFeedMatcher_Criteria"* %0) #11
  store i32 3, i32* %34, align 4
  %58 = getelementptr inbounds %"class.feedwire::webfeed::WebFeedMatcher_Criteria", %"class.feedwire::webfeed::WebFeedMatcher_Criteria"* %0, i64 0, i32 2, i32 0, i32 0
  store %"class.std::__1::basic_string"* bitcast (%"class.google::protobuf::internal::ExplicitlyConstructed.4"* @_ZN6google8protobuf8internal26fixed_address_empty_stringE to %"class.std::__1::basic_string"*), %"class.std::__1::basic_string"** %58, align 8
  %59 = getelementptr inbounds %"class.feedwire::webfeed::WebFeedMatcher_Criteria", %"class.feedwire::webfeed::WebFeedMatcher_Criteria"* %0, i64 0, i32 2, i32 0
  %60 = bitcast %"class.google::protobuf::internal::InternalMetadata"* %6 to i64*
  %61 = load i64, i64* %60, align 8
  %62 = and i64 %61, 1
  %63 = icmp eq i64 %62, 0
  %64 = and i64 %61, -2
  br i1 %63, label %69, label %65, !prof !2

65:                                               ; preds = %55
  %66 = inttoptr i64 %64 to %"struct.google::protobuf::internal::InternalMetadata::ContainerBase"*
  %67 = getelementptr inbounds %"struct.google::protobuf::internal::InternalMetadata::ContainerBase", %"struct.google::protobuf::internal::InternalMetadata::ContainerBase"* %66, i64 0, i32 0
  %68 = load %"class.google::protobuf::Arena"*, %"class.google::protobuf::Arena"** %67, align 8
  br label %71

69:                                               ; preds = %55
  %70 = inttoptr i64 %64 to %"class.google::protobuf::Arena"*
  br label %71

71:                                               ; preds = %65, %69
  %72 = phi %"class.google::protobuf::Arena"* [ %68, %65 ], [ %70, %69 ]
  tail call void @_ZN6google8protobuf8internal14ArenaStringPtr14CreateInstanceEPNS0_5ArenaEPKNSt3__112basic_stringIcNS5_11char_traitsIcEENS5_9allocatorIcEEEE(%"struct.google::protobuf::internal::ArenaStringPtr"* %59, %"class.google::protobuf::Arena"* %72, %"class.std::__1::basic_string"* %57) #11
  br label %73

73:                                               ; preds = %71, %53, %30
  ret void
}

; Function Attrs: nounwind ssp uwtable
define hidden void @_ZN8feedwire7webfeed23WebFeedMatcher_CriteriaD2Ev(%"class.feedwire::webfeed::WebFeedMatcher_Criteria"* nocapture) unnamed_addr #0 align 2 {
  %2 = getelementptr inbounds %"class.feedwire::webfeed::WebFeedMatcher_Criteria", %"class.feedwire::webfeed::WebFeedMatcher_Criteria"* %0, i64 0, i32 0, i32 0
  store i32 (...)** bitcast (i8** getelementptr inbounds ({ [16 x i8*] }, { [16 x i8*] }* @_ZTVN8feedwire7webfeed23WebFeedMatcher_CriteriaE, i64 0, inrange i32 0, i64 2) to i32 (...)**), i32 (...)*** %2, align 8
  %3 = getelementptr inbounds %"class.feedwire::webfeed::WebFeedMatcher_Criteria", %"class.feedwire::webfeed::WebFeedMatcher_Criteria"* %0, i64 0, i32 4, i64 0
  %4 = load i32, i32* %3, align 4
  %5 = icmp eq i32 %4, 0
  br i1 %5, label %7, label %6

6:                                                ; preds = %1
  tail call void @_ZN8feedwire7webfeed23WebFeedMatcher_Criteria11clear_matchEv(%"class.feedwire::webfeed::WebFeedMatcher_Criteria"* %0) #11
  br label %7

7:                                                ; preds = %1, %6
  %8 = getelementptr inbounds %"class.feedwire::webfeed::WebFeedMatcher_Criteria", %"class.feedwire::webfeed::WebFeedMatcher_Criteria"* %0, i64 0, i32 0, i32 1
  %9 = bitcast %"class.google::protobuf::internal::InternalMetadata"* %8 to i64*
  %10 = load i64, i64* %9, align 8
  %11 = and i64 %10, 1
  %12 = icmp eq i64 %11, 0
  br i1 %12, label %33, label %13

13:                                               ; preds = %7
  %14 = and i64 %10, -2
  %15 = inttoptr i64 %14 to %"struct.google::protobuf::internal::InternalMetadata::ContainerBase"*
  %16 = getelementptr inbounds %"struct.google::protobuf::internal::InternalMetadata::ContainerBase", %"struct.google::protobuf::internal::InternalMetadata::ContainerBase"* %15, i64 0, i32 0
  %17 = load %"class.google::protobuf::Arena"*, %"class.google::protobuf::Arena"** %16, align 8
  %18 = icmp ne %"class.google::protobuf::Arena"* %17, null
  %19 = icmp eq i64 %14, 0
  %20 = or i1 %19, %18
  br i1 %20, label %33, label %21

21:                                               ; preds = %13
  %22 = inttoptr i64 %14 to %"struct.google::protobuf::internal::InternalMetadata::Container"*
  %23 = getelementptr inbounds %"struct.google::protobuf::internal::InternalMetadata::Container", %"struct.google::protobuf::internal::InternalMetadata::Container"* %22, i64 0, i32 1
  %24 = bitcast %"class.std::__1::basic_string"* %23 to %"struct.std::__1::basic_string<char, std::__1::char_traits<char>, std::__1::allocator<char> >::__short"*
  %25 = getelementptr inbounds %"struct.std::__1::basic_string<char, std::__1::char_traits<char>, std::__1::allocator<char> >::__short", %"struct.std::__1::basic_string<char, std::__1::char_traits<char>, std::__1::allocator<char> >::__short"* %24, i64 0, i32 1, i32 0
  %26 = load i8, i8* %25, align 1
  %27 = icmp slt i8 %26, 0
  br i1 %27, label %28, label %31

28:                                               ; preds = %21
  %29 = getelementptr inbounds %"class.std::__1::basic_string", %"class.std::__1::basic_string"* %23, i64 0, i32 0, i32 0, i32 0, i32 0, i32 0, i32 0
  %30 = load i8*, i8** %29, align 8
  tail call void @_ZdlPv(i8* %30) #12
  br label %31

31:                                               ; preds = %28, %21
  %32 = inttoptr i64 %14 to i8*
  tail call void @_ZdlPv(i8* %32) #12
  br label %33

33:                                               ; preds = %7, %13, %31
  ret void
}

; Function Attrs: nounwind ssp uwtable
define hidden void @_ZN8feedwire7webfeed23WebFeedMatcher_CriteriaD0Ev(%"class.feedwire::webfeed::WebFeedMatcher_Criteria"*) unnamed_addr #0 align 2 {
  %2 = getelementptr inbounds %"class.feedwire::webfeed::WebFeedMatcher_Criteria", %"class.feedwire::webfeed::WebFeedMatcher_Criteria"* %0, i64 0, i32 0, i32 0
  store i32 (...)** bitcast (i8** getelementptr inbounds ({ [16 x i8*] }, { [16 x i8*] }* @_ZTVN8feedwire7webfeed23WebFeedMatcher_CriteriaE, i64 0, inrange i32 0, i64 2) to i32 (...)**), i32 (...)*** %2, align 8
  %3 = getelementptr inbounds %"class.feedwire::webfeed::WebFeedMatcher_Criteria", %"class.feedwire::webfeed::WebFeedMatcher_Criteria"* %0, i64 0, i32 4, i64 0
  %4 = load i32, i32* %3, align 4
  %5 = icmp eq i32 %4, 0
  br i1 %5, label %7, label %6

6:                                                ; preds = %1
  tail call void @_ZN8feedwire7webfeed23WebFeedMatcher_Criteria11clear_matchEv(%"class.feedwire::webfeed::WebFeedMatcher_Criteria"* %0) #11
  br label %7

7:                                                ; preds = %6, %1
  %8 = getelementptr inbounds %"class.feedwire::webfeed::WebFeedMatcher_Criteria", %"class.feedwire::webfeed::WebFeedMatcher_Criteria"* %0, i64 0, i32 0, i32 1
  %9 = bitcast %"class.google::protobuf::internal::InternalMetadata"* %8 to i64*
  %10 = load i64, i64* %9, align 8
  %11 = and i64 %10, 1
  %12 = icmp eq i64 %11, 0
  br i1 %12, label %33, label %13

13:                                               ; preds = %7
  %14 = and i64 %10, -2
  %15 = inttoptr i64 %14 to %"struct.google::protobuf::internal::InternalMetadata::ContainerBase"*
  %16 = getelementptr inbounds %"struct.google::protobuf::internal::InternalMetadata::ContainerBase", %"struct.google::protobuf::internal::InternalMetadata::ContainerBase"* %15, i64 0, i32 0
  %17 = load %"class.google::protobuf::Arena"*, %"class.google::protobuf::Arena"** %16, align 8
  %18 = icmp ne %"class.google::protobuf::Arena"* %17, null
  %19 = icmp eq i64 %14, 0
  %20 = or i1 %19, %18
  br i1 %20, label %33, label %21

21:                                               ; preds = %13
  %22 = inttoptr i64 %14 to %"struct.google::protobuf::internal::InternalMetadata::Container"*
  %23 = getelementptr inbounds %"struct.google::protobuf::internal::InternalMetadata::Container", %"struct.google::protobuf::internal::InternalMetadata::Container"* %22, i64 0, i32 1
  %24 = bitcast %"class.std::__1::basic_string"* %23 to %"struct.std::__1::basic_string<char, std::__1::char_traits<char>, std::__1::allocator<char> >::__short"*
  %25 = getelementptr inbounds %"struct.std::__1::basic_string<char, std::__1::char_traits<char>, std::__1::allocator<char> >::__short", %"struct.std::__1::basic_string<char, std::__1::char_traits<char>, std::__1::allocator<char> >::__short"* %24, i64 0, i32 1, i32 0
  %26 = load i8, i8* %25, align 1
  %27 = icmp slt i8 %26, 0
  br i1 %27, label %28, label %31

28:                                               ; preds = %21
  %29 = getelementptr inbounds %"class.std::__1::basic_string", %"class.std::__1::basic_string"* %23, i64 0, i32 0, i32 0, i32 0, i32 0, i32 0, i32 0
  %30 = load i8*, i8** %29, align 8
  tail call void @_ZdlPv(i8* %30) #12
  br label %31

31:                                               ; preds = %28, %21
  %32 = inttoptr i64 %14 to i8*
  tail call void @_ZdlPv(i8* %32) #12
  br label %33

33:                                               ; preds = %7, %13, %31
  %34 = bitcast %"class.feedwire::webfeed::WebFeedMatcher_Criteria"* %0 to i8*
  tail call void @_ZdlPv(i8* %34) #12
  ret void
}

; Function Attrs: nobuiltin nounwind
declare void @_ZdlPv(i8*) local_unnamed_addr #5

; Function Attrs: norecurse nounwind readnone ssp uwtable
define hidden void @_ZN8feedwire7webfeed23WebFeedMatcher_Criteria9ArenaDtorEPv(i8* nocapture) local_unnamed_addr #1 align 2 {
  ret void
}

; Function Attrs: nofree norecurse nounwind ssp uwtable
define hidden void @_ZNK8feedwire7webfeed23WebFeedMatcher_Criteria13SetCachedSizeEi(%"class.feedwire::webfeed::WebFeedMatcher_Criteria"* nocapture, i32) local_unnamed_addr #6 align 2 {
  %3 = getelementptr inbounds %"class.feedwire::webfeed::WebFeedMatcher_Criteria", %"class.feedwire::webfeed::WebFeedMatcher_Criteria"* %0, i64 0, i32 3, i32 0, i32 0, i32 0, i32 0, i32 0, i32 0
  store atomic i32 %1, i32* %3 monotonic, align 4
  ret void
}

; Function Attrs: nounwind ssp uwtable
define hidden dereferenceable(40) %"class.feedwire::webfeed::WebFeedMatcher_Criteria"* @_ZN8feedwire7webfeed23WebFeedMatcher_Criteria16default_instanceEv() local_unnamed_addr #0 align 2 {
  %1 = load atomic i32, i32* getelementptr inbounds ({ { { { i32 } }, i32, i32, void ()* }, [0 x i8*] }, { { { { i32 } }, i32, i32, void ()* }, [0 x i8*] }* @scc_info_WebFeedMatcher_Criteria_components_2ffeed_2fcore_2fproto_2fv2_2fwire_2fweb_5ffeed_5fmatcher_2eproto, i64 0, i32 0, i32 0, i32 0, i32 0) acquire, align 8
  %2 = icmp eq i32 %1, 0
  br i1 %2, label %4, label %3, !prof !2

3:                                                ; preds = %0
  tail call void @_ZN6google8protobuf8internal11InitSCCImplEPNS1_11SCCInfoBaseE(%"struct.google::protobuf::internal::SCCInfoBase"* bitcast ({ { { { i32 } }, i32, i32, void ()* }, [0 x i8*] }* @scc_info_WebFeedMatcher_Criteria_components_2ffeed_2fcore_2fproto_2fv2_2fwire_2fweb_5ffeed_5fmatcher_2eproto to %"struct.google::protobuf::internal::SCCInfoBase"*)) #11
  br label %4

4:                                                ; preds = %0, %3
  ret %"class.feedwire::webfeed::WebFeedMatcher_Criteria"* bitcast (%"class.feedwire::webfeed::WebFeedMatcher_CriteriaDefaultTypeInternal"* @_ZN8feedwire7webfeed42_WebFeedMatcher_Criteria_default_instance_E to %"class.feedwire::webfeed::WebFeedMatcher_Criteria"*)
}

; Function Attrs: nounwind ssp uwtable
define hidden void @_ZN8feedwire7webfeed23WebFeedMatcher_Criteria11clear_matchEv(%"class.feedwire::webfeed::WebFeedMatcher_Criteria"* nocapture) local_unnamed_addr #0 align 2 {
  %2 = getelementptr inbounds %"class.feedwire::webfeed::WebFeedMatcher_Criteria", %"class.feedwire::webfeed::WebFeedMatcher_Criteria"* %0, i64 0, i32 4, i64 0
  %3 = load i32, i32* %2, align 4
  switch i32 %3, label %68 [
    i32 2, label %4
    i32 3, label %36
  ]

4:                                                ; preds = %1
  %5 = getelementptr inbounds %"class.feedwire::webfeed::WebFeedMatcher_Criteria", %"class.feedwire::webfeed::WebFeedMatcher_Criteria"* %0, i64 0, i32 0, i32 1
  %6 = bitcast %"class.google::protobuf::internal::InternalMetadata"* %5 to i64*
  %7 = load i64, i64* %6, align 8
  %8 = and i64 %7, 1
  %9 = icmp eq i64 %8, 0
  %10 = and i64 %7, -2
  br i1 %9, label %15, label %11, !prof !2

11:                                               ; preds = %4
  %12 = inttoptr i64 %10 to %"struct.google::protobuf::internal::InternalMetadata::ContainerBase"*
  %13 = getelementptr inbounds %"struct.google::protobuf::internal::InternalMetadata::ContainerBase", %"struct.google::protobuf::internal::InternalMetadata::ContainerBase"* %12, i64 0, i32 0
  %14 = load %"class.google::protobuf::Arena"*, %"class.google::protobuf::Arena"** %13, align 8
  br label %17

15:                                               ; preds = %4
  %16 = inttoptr i64 %10 to %"class.google::protobuf::Arena"*
  br label %17

17:                                               ; preds = %11, %15
  %18 = phi %"class.google::protobuf::Arena"* [ %14, %11 ], [ %16, %15 ]
  %19 = icmp eq %"class.google::protobuf::Arena"* %18, null
  br i1 %19, label %20, label %68

20:                                               ; preds = %17
  %21 = getelementptr inbounds %"class.feedwire::webfeed::WebFeedMatcher_Criteria", %"class.feedwire::webfeed::WebFeedMatcher_Criteria"* %0, i64 0, i32 2, i32 0, i32 0
  %22 = load %"class.std::__1::basic_string"*, %"class.std::__1::basic_string"** %21, align 8
  %23 = icmp eq %"class.std::__1::basic_string"* %22, bitcast (%"class.google::protobuf::internal::ExplicitlyConstructed.4"* @_ZN6google8protobuf8internal26fixed_address_empty_stringE to %"class.std::__1::basic_string"*)
  %24 = icmp eq %"class.std::__1::basic_string"* %22, null
  %25 = or i1 %23, %24
  br i1 %25, label %68, label %26

26:                                               ; preds = %20
  %27 = bitcast %"class.std::__1::basic_string"* %22 to %"struct.std::__1::basic_string<char, std::__1::char_traits<char>, std::__1::allocator<char> >::__short"*
  %28 = getelementptr inbounds %"struct.std::__1::basic_string<char, std::__1::char_traits<char>, std::__1::allocator<char> >::__short", %"struct.std::__1::basic_string<char, std::__1::char_traits<char>, std::__1::allocator<char> >::__short"* %27, i64 0, i32 1, i32 0
  %29 = load i8, i8* %28, align 1
  %30 = icmp slt i8 %29, 0
  br i1 %30, label %31, label %34

31:                                               ; preds = %26
  %32 = getelementptr inbounds %"class.std::__1::basic_string", %"class.std::__1::basic_string"* %22, i64 0, i32 0, i32 0, i32 0, i32 0, i32 0, i32 0
  %33 = load i8*, i8** %32, align 8
  tail call void @_ZdlPv(i8* %33) #12
  br label %34

34:                                               ; preds = %31, %26
  %35 = bitcast %"class.std::__1::basic_string"* %22 to i8*
  tail call void @_ZdlPv(i8* %35) #12
  br label %68

36:                                               ; preds = %1
  %37 = getelementptr inbounds %"class.feedwire::webfeed::WebFeedMatcher_Criteria", %"class.feedwire::webfeed::WebFeedMatcher_Criteria"* %0, i64 0, i32 0, i32 1
  %38 = bitcast %"class.google::protobuf::internal::InternalMetadata"* %37 to i64*
  %39 = load i64, i64* %38, align 8
  %40 = and i64 %39, 1
  %41 = icmp eq i64 %40, 0
  %42 = and i64 %39, -2
  br i1 %41, label %47, label %43, !prof !2

43:                                               ; preds = %36
  %44 = inttoptr i64 %42 to %"struct.google::protobuf::internal::InternalMetadata::ContainerBase"*
  %45 = getelementptr inbounds %"struct.google::protobuf::internal::InternalMetadata::ContainerBase", %"struct.google::protobuf::internal::InternalMetadata::ContainerBase"* %44, i64 0, i32 0
  %46 = load %"class.google::protobuf::Arena"*, %"class.google::protobuf::Arena"** %45, align 8
  br label %49

47:                                               ; preds = %36
  %48 = inttoptr i64 %42 to %"class.google::protobuf::Arena"*
  br label %49

49:                                               ; preds = %43, %47
  %50 = phi %"class.google::protobuf::Arena"* [ %46, %43 ], [ %48, %47 ]
  %51 = icmp eq %"class.google::protobuf::Arena"* %50, null
  br i1 %51, label %52, label %68

52:                                               ; preds = %49
  %53 = getelementptr inbounds %"class.feedwire::webfeed::WebFeedMatcher_Criteria", %"class.feedwire::webfeed::WebFeedMatcher_Criteria"* %0, i64 0, i32 2, i32 0, i32 0
  %54 = load %"class.std::__1::basic_string"*, %"class.std::__1::basic_string"** %53, align 8
  %55 = icmp eq %"class.std::__1::basic_string"* %54, bitcast (%"class.google::protobuf::internal::ExplicitlyConstructed.4"* @_ZN6google8protobuf8internal26fixed_address_empty_stringE to %"class.std::__1::basic_string"*)
  %56 = icmp eq %"class.std::__1::basic_string"* %54, null
  %57 = or i1 %55, %56
  br i1 %57, label %68, label %58

58:                                               ; preds = %52
  %59 = bitcast %"class.std::__1::basic_string"* %54 to %"struct.std::__1::basic_string<char, std::__1::char_traits<char>, std::__1::allocator<char> >::__short"*
  %60 = getelementptr inbounds %"struct.std::__1::basic_string<char, std::__1::char_traits<char>, std::__1::allocator<char> >::__short", %"struct.std::__1::basic_string<char, std::__1::char_traits<char>, std::__1::allocator<char> >::__short"* %59, i64 0, i32 1, i32 0
  %61 = load i8, i8* %60, align 1
  %62 = icmp slt i8 %61, 0
  br i1 %62, label %63, label %66

63:                                               ; preds = %58
  %64 = getelementptr inbounds %"class.std::__1::basic_string", %"class.std::__1::basic_string"* %54, i64 0, i32 0, i32 0, i32 0, i32 0, i32 0, i32 0
  %65 = load i8*, i8** %64, align 8
  tail call void @_ZdlPv(i8* %65) #12
  br label %66

66:                                               ; preds = %63, %58
  %67 = bitcast %"class.std::__1::basic_string"* %54 to i8*
  tail call void @_ZdlPv(i8* %67) #12
  br label %68

68:                                               ; preds = %66, %52, %49, %34, %20, %17, %1
  store i32 0, i32* %2, align 4
  ret void
}

; Function Attrs: nounwind ssp uwtable
define hidden void @_ZN8feedwire7webfeed23WebFeedMatcher_Criteria5ClearEv(%"class.feedwire::webfeed::WebFeedMatcher_Criteria"* nocapture) unnamed_addr #0 align 2 {
  %2 = getelementptr inbounds %"class.feedwire::webfeed::WebFeedMatcher_Criteria", %"class.feedwire::webfeed::WebFeedMatcher_Criteria"* %0, i64 0, i32 1
  store i32 0, i32* %2, align 8
  tail call void @_ZN8feedwire7webfeed23WebFeedMatcher_Criteria11clear_matchEv(%"class.feedwire::webfeed::WebFeedMatcher_Criteria"* %0)
  %3 = getelementptr inbounds %"class.feedwire::webfeed::WebFeedMatcher_Criteria", %"class.feedwire::webfeed::WebFeedMatcher_Criteria"* %0, i64 0, i32 0, i32 1
  %4 = bitcast %"class.google::protobuf::internal::InternalMetadata"* %3 to i64*
  %5 = load i64, i64* %4, align 8
  %6 = and i64 %5, 1
  %7 = icmp eq i64 %6, 0
  br i1 %7, label %22, label %8

8:                                                ; preds = %1
  %9 = and i64 %5, -2
  %10 = inttoptr i64 %9 to %"struct.google::protobuf::internal::InternalMetadata::Container"*
  %11 = getelementptr inbounds %"struct.google::protobuf::internal::InternalMetadata::Container", %"struct.google::protobuf::internal::InternalMetadata::Container"* %10, i64 0, i32 1
  %12 = bitcast %"class.std::__1::basic_string"* %11 to %"struct.std::__1::basic_string<char, std::__1::char_traits<char>, std::__1::allocator<char> >::__short"*
  %13 = getelementptr inbounds %"struct.std::__1::basic_string<char, std::__1::char_traits<char>, std::__1::allocator<char> >::__short", %"struct.std::__1::basic_string<char, std::__1::char_traits<char>, std::__1::allocator<char> >::__short"* %12, i64 0, i32 1, i32 0
  %14 = load i8, i8* %13, align 1
  %15 = icmp slt i8 %14, 0
  br i1 %15, label %16, label %20

16:                                               ; preds = %8
  %17 = getelementptr inbounds %"class.std::__1::basic_string", %"class.std::__1::basic_string"* %11, i64 0, i32 0, i32 0, i32 0, i32 0, i32 0, i32 0
  %18 = load i8*, i8** %17, align 8
  store i8 0, i8* %18, align 1
  %19 = getelementptr inbounds %"struct.google::protobuf::internal::InternalMetadata::Container", %"struct.google::protobuf::internal::InternalMetadata::Container"* %10, i64 0, i32 1, i32 0, i32 0, i32 0, i32 0, i32 0, i32 1
  store i64 0, i64* %19, align 8
  br label %22

20:                                               ; preds = %8
  %21 = bitcast %"class.std::__1::basic_string"* %11 to i8*
  store i8 0, i8* %21, align 2
  store i8 0, i8* %13, align 1
  br label %22

22:                                               ; preds = %1, %16, %20
  ret void
}

; Function Attrs: nounwind ssp uwtable
define hidden i8* @_ZN8feedwire7webfeed23WebFeedMatcher_Criteria14_InternalParseEPKcPN6google8protobuf8internal12ParseContextE(%"class.feedwire::webfeed::WebFeedMatcher_Criteria"*, i8*, %"class.google::protobuf::internal::ParseContext"*) unnamed_addr #0 align 2 {
  %4 = getelementptr inbounds %"class.google::protobuf::internal::ParseContext", %"class.google::protobuf::internal::ParseContext"* %2, i64 0, i32 0
  %5 = getelementptr inbounds %"class.google::protobuf::internal::ParseContext", %"class.google::protobuf::internal::ParseContext"* %2, i64 0, i32 2
  %6 = getelementptr inbounds %"class.google::protobuf::internal::ParseContext", %"class.google::protobuf::internal::ParseContext"* %2, i64 0, i32 0, i32 0
  %7 = getelementptr inbounds %"class.google::protobuf::internal::ParseContext", %"class.google::protobuf::internal::ParseContext"* %2, i64 0, i32 0, i32 1
  %8 = bitcast i8** %7 to i64*
  %9 = getelementptr inbounds %"class.google::protobuf::internal::ParseContext", %"class.google::protobuf::internal::ParseContext"* %2, i64 0, i32 0, i32 4
  %10 = getelementptr inbounds %"class.feedwire::webfeed::WebFeedMatcher_Criteria", %"class.feedwire::webfeed::WebFeedMatcher_Criteria"* %0, i64 0, i32 4, i64 0
  %11 = getelementptr inbounds %"class.feedwire::webfeed::WebFeedMatcher_Criteria", %"class.feedwire::webfeed::WebFeedMatcher_Criteria"* %0, i64 0, i32 2, i32 0, i32 0
  %12 = getelementptr inbounds %"class.feedwire::webfeed::WebFeedMatcher_Criteria", %"class.feedwire::webfeed::WebFeedMatcher_Criteria"* %0, i64 0, i32 2, i32 0
  %13 = getelementptr inbounds %"class.feedwire::webfeed::WebFeedMatcher_Criteria", %"class.feedwire::webfeed::WebFeedMatcher_Criteria"* %0, i64 0, i32 0, i32 1
  %14 = bitcast %"class.google::protobuf::internal::InternalMetadata"* %13 to i64*
  %15 = getelementptr inbounds %"struct.google::protobuf::internal::ArenaStringPtr", %"struct.google::protobuf::internal::ArenaStringPtr"* %12, i64 0, i32 0
  %16 = getelementptr inbounds %"class.feedwire::webfeed::WebFeedMatcher_Criteria", %"class.feedwire::webfeed::WebFeedMatcher_Criteria"* %0, i64 0, i32 1
  br label %17

17:                                               ; preds = %187, %3
  %18 = phi i8* [ %1, %3 ], [ %188, %187 ]
  %19 = load i32, i32* %5, align 4
  %20 = load i8*, i8** %6, align 8
  %21 = icmp ult i8* %18, %20
  br i1 %21, label %35, label %22, !prof !2

22:                                               ; preds = %17
  %23 = load i64, i64* %8, align 8
  %24 = ptrtoint i8* %18 to i64
  %25 = sub i64 %24, %23
  %26 = load i32, i32* %9, align 4
  %27 = sext i32 %26 to i64
  %28 = icmp eq i64 %25, %27
  br i1 %28, label %211, label %29

29:                                               ; preds = %22
  %30 = tail call { i8*, i8 } @_ZN6google8protobuf8internal18EpsCopyInputStream12DoneFallbackEPKci(%"class.google::protobuf::internal::EpsCopyInputStream"* %4, i8* %18, i32 %19) #11
  %31 = extractvalue { i8*, i8 } %30, 0
  %32 = extractvalue { i8*, i8 } %30, 1
  %33 = and i8 %32, 1
  %34 = icmp eq i8 %33, 0
  br i1 %34, label %35, label %211

35:                                               ; preds = %29, %17
  %36 = phi i8* [ %31, %29 ], [ %18, %17 ]
  %37 = load i8, i8* %36, align 1
  %38 = zext i8 %37 to i32
  %39 = icmp sgt i8 %37, -1
  %40 = getelementptr inbounds i8, i8* %36, i64 1
  br i1 %39, label %54, label %41

41:                                               ; preds = %35
  %42 = load i8, i8* %40, align 1
  %43 = zext i8 %42 to i32
  %44 = shl nuw nsw i32 %43, 7
  %45 = add nsw i32 %38, -128
  %46 = add nsw i32 %45, %44
  %47 = icmp sgt i8 %42, -1
  br i1 %47, label %48, label %50

48:                                               ; preds = %41
  %49 = getelementptr inbounds i8, i8* %36, i64 2
  br label %54

50:                                               ; preds = %41
  %51 = tail call { i8*, i32 } @_ZN6google8protobuf8internal15ReadTagFallbackEPKcj(i8* %36, i32 %46) #11
  %52 = extractvalue { i8*, i32 } %51, 0
  %53 = extractvalue { i8*, i32 } %51, 1
  br label %54

54:                                               ; preds = %35, %48, %50
  %55 = phi i32 [ %46, %48 ], [ %53, %50 ], [ %38, %35 ]
  %56 = phi i8* [ %49, %48 ], [ %52, %50 ], [ %40, %35 ]
  %57 = icmp eq i8* %56, null
  br i1 %57, label %211, label %58, !prof !4

58:                                               ; preds = %54
  %59 = lshr i32 %55, 3
  switch i32 %59, label %189 [
    i32 1, label %60
    i32 2, label %91
    i32 3, label %139
  ]

60:                                               ; preds = %58
  %61 = and i32 %55, 255
  %62 = icmp eq i32 %61, 8
  br i1 %62, label %63, label %189, !prof !2

63:                                               ; preds = %60
  %64 = load i8, i8* %56, align 1
  %65 = icmp slt i8 %64, 0
  br i1 %65, label %69, label %66

66:                                               ; preds = %63
  %67 = zext i8 %64 to i64
  %68 = getelementptr inbounds i8, i8* %56, i64 1
  br label %85

69:                                               ; preds = %63
  %70 = zext i8 %64 to i32
  %71 = getelementptr inbounds i8, i8* %56, i64 1
  %72 = load i8, i8* %71, align 1
  %73 = zext i8 %72 to i32
  %74 = shl nuw nsw i32 %73, 7
  %75 = add nsw i32 %70, -128
  %76 = add nuw nsw i32 %75, %74
  %77 = icmp slt i8 %72, 0
  br i1 %77, label %81, label %78

78:                                               ; preds = %69
  %79 = zext i32 %76 to i64
  %80 = getelementptr inbounds i8, i8* %56, i64 2
  br label %85

81:                                               ; preds = %69
  %82 = tail call { i8*, i64 } @_ZN6google8protobuf8internal17VarintParseSlow64EPKcj(i8* nonnull %56, i32 %76) #11
  %83 = extractvalue { i8*, i64 } %82, 0
  %84 = extractvalue { i8*, i64 } %82, 1
  br label %85

85:                                               ; preds = %66, %78, %81
  %86 = phi i64 [ %84, %81 ], [ %79, %78 ], [ %67, %66 ]
  %87 = phi i8* [ %83, %81 ], [ %80, %78 ], [ %68, %66 ]
  %88 = icmp eq i8* %87, null
  br i1 %88, label %211, label %89, !prof !4

89:                                               ; preds = %85
  %90 = trunc i64 %86 to i32
  store i32 %90, i32* %16, align 8
  br label %187

91:                                               ; preds = %58
  %92 = and i32 %55, 255
  %93 = icmp eq i32 %92, 18
  br i1 %93, label %94, label %189, !prof !2

94:                                               ; preds = %91
  %95 = load i32, i32* %10, align 4
  %96 = icmp eq i32 %95, 2
  br i1 %96, label %98, label %97

97:                                               ; preds = %94
  tail call void @_ZN8feedwire7webfeed23WebFeedMatcher_Criteria11clear_matchEv(%"class.feedwire::webfeed::WebFeedMatcher_Criteria"* %0) #11
  store i32 2, i32* %10, align 4
  store %"class.std::__1::basic_string"* bitcast (%"class.google::protobuf::internal::ExplicitlyConstructed.4"* @_ZN6google8protobuf8internal26fixed_address_empty_stringE to %"class.std::__1::basic_string"*), %"class.std::__1::basic_string"** %11, align 8
  br label %98

98:                                               ; preds = %97, %94
  %99 = load i64, i64* %14, align 8
  %100 = and i64 %99, 1
  %101 = icmp eq i64 %100, 0
  %102 = and i64 %99, -2
  br i1 %101, label %107, label %103, !prof !2

103:                                              ; preds = %98
  %104 = inttoptr i64 %102 to %"struct.google::protobuf::internal::InternalMetadata::ContainerBase"*
  %105 = getelementptr inbounds %"struct.google::protobuf::internal::InternalMetadata::ContainerBase", %"struct.google::protobuf::internal::InternalMetadata::ContainerBase"* %104, i64 0, i32 0
  %106 = load %"class.google::protobuf::Arena"*, %"class.google::protobuf::Arena"** %105, align 8
  br label %109

107:                                              ; preds = %98
  %108 = inttoptr i64 %102 to %"class.google::protobuf::Arena"*
  br label %109

109:                                              ; preds = %107, %103
  %110 = phi %"class.google::protobuf::Arena"* [ %106, %103 ], [ %108, %107 ]
  %111 = load %"class.std::__1::basic_string"*, %"class.std::__1::basic_string"** %15, align 8
  %112 = icmp eq %"class.std::__1::basic_string"* %111, bitcast (%"class.google::protobuf::internal::ExplicitlyConstructed.4"* @_ZN6google8protobuf8internal26fixed_address_empty_stringE to %"class.std::__1::basic_string"*)
  br i1 %112, label %113, label %115

113:                                              ; preds = %109
  tail call void @_ZN6google8protobuf8internal14ArenaStringPtr14CreateInstanceEPNS0_5ArenaEPKNSt3__112basic_stringIcNS5_11char_traitsIcEENS5_9allocatorIcEEEE(%"struct.google::protobuf::internal::ArenaStringPtr"* %12, %"class.google::protobuf::Arena"* %110, %"class.std::__1::basic_string"* bitcast (%"class.google::protobuf::internal::ExplicitlyConstructed.4"* @_ZN6google8protobuf8internal26fixed_address_empty_stringE to %"class.std::__1::basic_string"*)) #11
  %114 = load %"class.std::__1::basic_string"*, %"class.std::__1::basic_string"** %15, align 8
  br label %115

115:                                              ; preds = %109, %113
  %116 = phi %"class.std::__1::basic_string"* [ %114, %113 ], [ %111, %109 ]
  %117 = tail call i8* @_ZN6google8protobuf8internal24InlineGreedyStringParserEPNSt3__112basic_stringIcNS2_11char_traitsIcEENS2_9allocatorIcEEEEPKcPNS1_12ParseContextE(%"class.std::__1::basic_string"* %116, i8* nonnull %56, %"class.google::protobuf::internal::ParseContext"* %2) #11
  %118 = bitcast %"class.std::__1::basic_string"* %116 to %"struct.std::__1::basic_string<char, std::__1::char_traits<char>, std::__1::allocator<char> >::__short"*
  %119 = getelementptr inbounds %"struct.std::__1::basic_string<char, std::__1::char_traits<char>, std::__1::allocator<char> >::__short", %"struct.std::__1::basic_string<char, std::__1::char_traits<char>, std::__1::allocator<char> >::__short"* %118, i64 0, i32 1, i32 0
  %120 = load i8, i8* %119, align 1
  %121 = icmp slt i8 %120, 0
  %122 = getelementptr inbounds %"class.std::__1::basic_string", %"class.std::__1::basic_string"* %116, i64 0, i32 0, i32 0, i32 0, i32 0, i32 0, i32 0
  %123 = load i8*, i8** %122, align 8
  %124 = bitcast %"class.std::__1::basic_string"* %116 to i8*
  %125 = select i1 %121, i8* %123, i8* %124
  br i1 %121, label %128, label %126

126:                                              ; preds = %115
  %127 = zext i8 %120 to i64
  br label %133

128:                                              ; preds = %115
  %129 = getelementptr inbounds %"class.std::__1::basic_string", %"class.std::__1::basic_string"* %116, i64 0, i32 0, i32 0, i32 0, i32 0, i32 0, i32 1
  %130 = load i64, i64* %129, align 8
  %131 = icmp slt i64 %130, 0
  br i1 %131, label %132, label %133

132:                                              ; preds = %128
  tail call void @_ZN6google8protobuf11StringPiece18LogFatalSizeTooBigEmPKc(i64 %130, i8* getelementptr inbounds ([25 x i8], [25 x i8]* @.str.16, i64 0, i64 0)) #11
  br label %133

133:                                              ; preds = %126, %128, %132
  %134 = phi i64 [ %127, %126 ], [ %130, %128 ], [ %130, %132 ]
  %135 = tail call zeroext i1 @_ZN6google8protobuf8internal10VerifyUTF8ENS0_11StringPieceEPKc(i8* %125, i64 %134, i8* null) #11
  %136 = xor i1 %135, true
  %137 = icmp eq i8* %117, null
  %138 = or i1 %137, %136
  br i1 %138, label %211, label %187, !prof !5

139:                                              ; preds = %58
  %140 = and i32 %55, 255
  %141 = icmp eq i32 %140, 26
  br i1 %141, label %142, label %189, !prof !2

142:                                              ; preds = %139
  %143 = load i32, i32* %10, align 4
  %144 = icmp eq i32 %143, 3
  br i1 %144, label %146, label %145

145:                                              ; preds = %142
  tail call void @_ZN8feedwire7webfeed23WebFeedMatcher_Criteria11clear_matchEv(%"class.feedwire::webfeed::WebFeedMatcher_Criteria"* %0) #11
  store i32 3, i32* %10, align 4
  store %"class.std::__1::basic_string"* bitcast (%"class.google::protobuf::internal::ExplicitlyConstructed.4"* @_ZN6google8protobuf8internal26fixed_address_empty_stringE to %"class.std::__1::basic_string"*), %"class.std::__1::basic_string"** %11, align 8
  br label %146

146:                                              ; preds = %145, %142
  %147 = load i64, i64* %14, align 8
  %148 = and i64 %147, 1
  %149 = icmp eq i64 %148, 0
  %150 = and i64 %147, -2
  br i1 %149, label %155, label %151, !prof !2

151:                                              ; preds = %146
  %152 = inttoptr i64 %150 to %"struct.google::protobuf::internal::InternalMetadata::ContainerBase"*
  %153 = getelementptr inbounds %"struct.google::protobuf::internal::InternalMetadata::ContainerBase", %"struct.google::protobuf::internal::InternalMetadata::ContainerBase"* %152, i64 0, i32 0
  %154 = load %"class.google::protobuf::Arena"*, %"class.google::protobuf::Arena"** %153, align 8
  br label %157

155:                                              ; preds = %146
  %156 = inttoptr i64 %150 to %"class.google::protobuf::Arena"*
  br label %157

157:                                              ; preds = %155, %151
  %158 = phi %"class.google::protobuf::Arena"* [ %154, %151 ], [ %156, %155 ]
  %159 = load %"class.std::__1::basic_string"*, %"class.std::__1::basic_string"** %15, align 8
  %160 = icmp eq %"class.std::__1::basic_string"* %159, bitcast (%"class.google::protobuf::internal::ExplicitlyConstructed.4"* @_ZN6google8protobuf8internal26fixed_address_empty_stringE to %"class.std::__1::basic_string"*)
  br i1 %160, label %161, label %163

161:                                              ; preds = %157
  tail call void @_ZN6google8protobuf8internal14ArenaStringPtr14CreateInstanceEPNS0_5ArenaEPKNSt3__112basic_stringIcNS5_11char_traitsIcEENS5_9allocatorIcEEEE(%"struct.google::protobuf::internal::ArenaStringPtr"* %12, %"class.google::protobuf::Arena"* %158, %"class.std::__1::basic_string"* bitcast (%"class.google::protobuf::internal::ExplicitlyConstructed.4"* @_ZN6google8protobuf8internal26fixed_address_empty_stringE to %"class.std::__1::basic_string"*)) #11
  %162 = load %"class.std::__1::basic_string"*, %"class.std::__1::basic_string"** %15, align 8
  br label %163

163:                                              ; preds = %157, %161
  %164 = phi %"class.std::__1::basic_string"* [ %162, %161 ], [ %159, %157 ]
  %165 = tail call i8* @_ZN6google8protobuf8internal24InlineGreedyStringParserEPNSt3__112basic_stringIcNS2_11char_traitsIcEENS2_9allocatorIcEEEEPKcPNS1_12ParseContextE(%"class.std::__1::basic_string"* %164, i8* nonnull %56, %"class.google::protobuf::internal::ParseContext"* %2) #11
  %166 = bitcast %"class.std::__1::basic_string"* %164 to %"struct.std::__1::basic_string<char, std::__1::char_traits<char>, std::__1::allocator<char> >::__short"*
  %167 = getelementptr inbounds %"struct.std::__1::basic_string<char, std::__1::char_traits<char>, std::__1::allocator<char> >::__short", %"struct.std::__1::basic_string<char, std::__1::char_traits<char>, std::__1::allocator<char> >::__short"* %166, i64 0, i32 1, i32 0
  %168 = load i8, i8* %167, align 1
  %169 = icmp slt i8 %168, 0
  %170 = getelementptr inbounds %"class.std::__1::basic_string", %"class.std::__1::basic_string"* %164, i64 0, i32 0, i32 0, i32 0, i32 0, i32 0, i32 0
  %171 = load i8*, i8** %170, align 8
  %172 = bitcast %"class.std::__1::basic_string"* %164 to i8*
  %173 = select i1 %169, i8* %171, i8* %172
  br i1 %169, label %176, label %174

174:                                              ; preds = %163
  %175 = zext i8 %168 to i64
  br label %181

176:                                              ; preds = %163
  %177 = getelementptr inbounds %"class.std::__1::basic_string", %"class.std::__1::basic_string"* %164, i64 0, i32 0, i32 0, i32 0, i32 0, i32 0, i32 1
  %178 = load i64, i64* %177, align 8
  %179 = icmp slt i64 %178, 0
  br i1 %179, label %180, label %181

180:                                              ; preds = %176
  tail call void @_ZN6google8protobuf11StringPiece18LogFatalSizeTooBigEmPKc(i64 %178, i8* getelementptr inbounds ([25 x i8], [25 x i8]* @.str.16, i64 0, i64 0)) #11
  br label %181

181:                                              ; preds = %174, %176, %180
  %182 = phi i64 [ %175, %174 ], [ %178, %176 ], [ %178, %180 ]
  %183 = tail call zeroext i1 @_ZN6google8protobuf8internal10VerifyUTF8ENS0_11StringPieceEPKc(i8* %173, i64 %182, i8* null) #11
  %184 = xor i1 %183, true
  %185 = icmp eq i8* %165, null
  %186 = or i1 %185, %184
  br i1 %186, label %211, label %187, !prof !5

187:                                              ; preds = %181, %133, %207, %89
  %188 = phi i8* [ %209, %207 ], [ %87, %89 ], [ %117, %133 ], [ %165, %181 ]
  br label %17

189:                                              ; preds = %58, %139, %91, %60
  %190 = and i32 %55, 7
  %191 = icmp eq i32 %190, 4
  %192 = icmp eq i32 %55, 0
  %193 = or i1 %192, %191
  br i1 %193, label %194, label %197

194:                                              ; preds = %189
  %195 = add i32 %55, -1
  %196 = getelementptr inbounds %"class.google::protobuf::internal::ParseContext", %"class.google::protobuf::internal::ParseContext"* %2, i64 0, i32 0, i32 8
  store i32 %195, i32* %196, align 8
  br label %211

197:                                              ; preds = %189
  %198 = load i64, i64* %14, align 8
  %199 = and i64 %198, 1
  %200 = icmp eq i64 %199, 0
  br i1 %200, label %205, label %201, !prof !4

201:                                              ; preds = %197
  %202 = and i64 %198, -2
  %203 = inttoptr i64 %202 to %"struct.google::protobuf::internal::InternalMetadata::Container"*
  %204 = getelementptr inbounds %"struct.google::protobuf::internal::InternalMetadata::Container", %"struct.google::protobuf::internal::InternalMetadata::Container"* %203, i64 0, i32 1
  br label %207

205:                                              ; preds = %197
  %206 = tail call %"class.std::__1::basic_string"* @_ZN6google8protobuf8internal16InternalMetadata27mutable_unknown_fields_slowINSt3__112basic_stringIcNS4_11char_traitsIcEENS4_9allocatorIcEEEEEEPT_v(%"class.google::protobuf::internal::InternalMetadata"* %13) #11
  br label %207

207:                                              ; preds = %201, %205
  %208 = phi %"class.std::__1::basic_string"* [ %204, %201 ], [ %206, %205 ]
  %209 = tail call i8* @_ZN6google8protobuf8internal17UnknownFieldParseEjPNSt3__112basic_stringIcNS2_11char_traitsIcEENS2_9allocatorIcEEEEPKcPNS1_12ParseContextE(i32 %55, %"class.std::__1::basic_string"* %208, i8* nonnull %56, %"class.google::protobuf::internal::ParseContext"* %2) #11
  %210 = icmp eq i8* %209, null
  br i1 %210, label %211, label %187

211:                                              ; preds = %29, %181, %133, %207, %22, %85, %54, %194
  %212 = phi i8* [ %56, %194 ], [ null, %207 ], [ null, %181 ], [ null, %133 ], [ %18, %22 ], [ null, %85 ], [ null, %54 ], [ %31, %29 ]
  ret i8* %212
}

declare i8* @_ZN6google8protobuf8internal24InlineGreedyStringParserEPNSt3__112basic_stringIcNS2_11char_traitsIcEENS2_9allocatorIcEEEEPKcPNS1_12ParseContextE(%"class.std::__1::basic_string"*, i8*, %"class.google::protobuf::internal::ParseContext"*) local_unnamed_addr #4

declare i8* @_ZN6google8protobuf8internal17UnknownFieldParseEjPNSt3__112basic_stringIcNS2_11char_traitsIcEENS2_9allocatorIcEEEEPKcPNS1_12ParseContextE(i32, %"class.std::__1::basic_string"*, i8*, %"class.google::protobuf::internal::ParseContext"*) local_unnamed_addr #4

; Function Attrs: nounwind ssp uwtable
define hidden i8* @_ZNK8feedwire7webfeed23WebFeedMatcher_Criteria18_InternalSerializeEPhPN6google8protobuf2io19EpsCopyOutputStreamE(%"class.feedwire::webfeed::WebFeedMatcher_Criteria"* nocapture readonly, i8*, %"class.google::protobuf::io::EpsCopyOutputStream"*) unnamed_addr #0 align 2 {
  %4 = getelementptr inbounds %"class.feedwire::webfeed::WebFeedMatcher_Criteria", %"class.feedwire::webfeed::WebFeedMatcher_Criteria"* %0, i64 0, i32 1
  %5 = load i32, i32* %4, align 8
  %6 = icmp eq i32 %5, 0
  br i1 %6, label %44, label %7

7:                                                ; preds = %3
  %8 = getelementptr inbounds %"class.google::protobuf::io::EpsCopyOutputStream", %"class.google::protobuf::io::EpsCopyOutputStream"* %2, i64 0, i32 0
  %9 = load i8*, i8** %8, align 8
  %10 = icmp ugt i8* %9, %1
  br i1 %10, label %14, label %11, !prof !2

11:                                               ; preds = %7
  %12 = tail call i8* @_ZN6google8protobuf2io19EpsCopyOutputStream19EnsureSpaceFallbackEPh(%"class.google::protobuf::io::EpsCopyOutputStream"* %2, i8* %1) #11
  %13 = load i32, i32* %4, align 8
  br label %14

14:                                               ; preds = %7, %11
  %15 = phi i32 [ %13, %11 ], [ %5, %7 ]
  %16 = phi i8* [ %12, %11 ], [ %1, %7 ]
  store i8 8, i8* %16, align 1
  %17 = getelementptr inbounds i8, i8* %16, i64 1
  %18 = icmp ult i32 %15, 128
  %19 = trunc i32 %15 to i8
  br i1 %18, label %20, label %22

20:                                               ; preds = %14
  store i8 %19, i8* %17, align 1
  %21 = getelementptr inbounds i8, i8* %16, i64 2
  br label %44

22:                                               ; preds = %14
  %23 = sext i32 %15 to i64
  %24 = or i8 %19, -128
  store i8 %24, i8* %17, align 1
  %25 = lshr i64 %23, 7
  %26 = icmp ult i32 %15, 16384
  br i1 %26, label %27, label %31

27:                                               ; preds = %22
  %28 = trunc i64 %25 to i8
  %29 = getelementptr inbounds i8, i8* %16, i64 2
  store i8 %28, i8* %29, align 1
  %30 = getelementptr inbounds i8, i8* %16, i64 3
  br label %44

31:                                               ; preds = %22
  %32 = getelementptr inbounds i8, i8* %16, i64 2
  br label %33

33:                                               ; preds = %33, %31
  %34 = phi i64 [ %25, %31 ], [ %38, %33 ]
  %35 = phi i8* [ %32, %31 ], [ %39, %33 ]
  %36 = trunc i64 %34 to i8
  %37 = or i8 %36, -128
  store i8 %37, i8* %35, align 1
  %38 = lshr i64 %34, 7
  %39 = getelementptr inbounds i8, i8* %35, i64 1
  %40 = icmp ugt i64 %34, 16383
  br i1 %40, label %33, label %41, !prof !4

41:                                               ; preds = %33
  %42 = trunc i64 %38 to i8
  %43 = getelementptr inbounds i8, i8* %35, i64 2
  store i8 %42, i8* %39, align 1
  br label %44

44:                                               ; preds = %41, %27, %20, %3
  %45 = phi i8* [ %1, %3 ], [ %21, %20 ], [ %30, %27 ], [ %43, %41 ]
  %46 = getelementptr inbounds %"class.feedwire::webfeed::WebFeedMatcher_Criteria", %"class.feedwire::webfeed::WebFeedMatcher_Criteria"* %0, i64 0, i32 4, i64 0
  %47 = load i32, i32* %46, align 4
  %48 = icmp eq i32 %47, 2
  br i1 %48, label %49, label %110

49:                                               ; preds = %44
  %50 = getelementptr inbounds %"class.feedwire::webfeed::WebFeedMatcher_Criteria", %"class.feedwire::webfeed::WebFeedMatcher_Criteria"* %0, i64 0, i32 2, i32 0, i32 0
  %51 = load %"class.std::__1::basic_string"*, %"class.std::__1::basic_string"** %50, align 8
  %52 = bitcast %"class.std::__1::basic_string"* %51 to %"struct.std::__1::basic_string<char, std::__1::char_traits<char>, std::__1::allocator<char> >::__short"*
  %53 = getelementptr inbounds %"struct.std::__1::basic_string<char, std::__1::char_traits<char>, std::__1::allocator<char> >::__short", %"struct.std::__1::basic_string<char, std::__1::char_traits<char>, std::__1::allocator<char> >::__short"* %52, i64 0, i32 1, i32 0
  %54 = load i8, i8* %53, align 1
  %55 = icmp slt i8 %54, 0
  br i1 %55, label %56, label %61

56:                                               ; preds = %49
  %57 = getelementptr inbounds %"class.std::__1::basic_string", %"class.std::__1::basic_string"* %51, i64 0, i32 0, i32 0, i32 0, i32 0, i32 0, i32 0
  %58 = load i8*, i8** %57, align 8
  %59 = getelementptr inbounds %"class.std::__1::basic_string", %"class.std::__1::basic_string"* %51, i64 0, i32 0, i32 0, i32 0, i32 0, i32 0, i32 1
  %60 = load i64, i64* %59, align 8
  br label %64

61:                                               ; preds = %49
  %62 = bitcast %"class.std::__1::basic_string"* %51 to i8*
  %63 = zext i8 %54 to i64
  br label %64

64:                                               ; preds = %56, %61
  %65 = phi i8* [ %58, %56 ], [ %62, %61 ]
  %66 = phi i64 [ %60, %56 ], [ %63, %61 ]
  %67 = trunc i64 %66 to i32
  %68 = tail call zeroext i1 @_ZN6google8protobuf8internal14WireFormatLite16VerifyUtf8StringEPKciNS2_9OperationES4_(i8* %65, i32 %67, i32 1, i8* getelementptr inbounds ([46 x i8], [46 x i8]* @.str, i64 0, i64 0)) #11
  %69 = load i32, i32* %46, align 4
  %70 = icmp eq i32 %69, 2
  br i1 %70, label %71, label %74

71:                                               ; preds = %64
  %72 = load %"class.std::__1::basic_string"*, %"class.std::__1::basic_string"** %50, align 8
  %73 = bitcast %"class.std::__1::basic_string"* %72 to %"struct.std::__1::basic_string<char, std::__1::char_traits<char>, std::__1::allocator<char> >::__short"*
  br label %74

74:                                               ; preds = %64, %71
  %75 = phi %"struct.std::__1::basic_string<char, std::__1::char_traits<char>, std::__1::allocator<char> >::__short"* [ %73, %71 ], [ bitcast (%"class.google::protobuf::internal::ExplicitlyConstructed.4"* @_ZN6google8protobuf8internal26fixed_address_empty_stringE to %"struct.std::__1::basic_string<char, std::__1::char_traits<char>, std::__1::allocator<char> >::__short"*), %64 ]
  %76 = phi %"class.std::__1::basic_string"* [ %72, %71 ], [ bitcast (%"class.google::protobuf::internal::ExplicitlyConstructed.4"* @_ZN6google8protobuf8internal26fixed_address_empty_stringE to %"class.std::__1::basic_string"*), %64 ]
  %77 = getelementptr inbounds %"struct.std::__1::basic_string<char, std::__1::char_traits<char>, std::__1::allocator<char> >::__short", %"struct.std::__1::basic_string<char, std::__1::char_traits<char>, std::__1::allocator<char> >::__short"* %75, i64 0, i32 1, i32 0
  %78 = load i8, i8* %77, align 1
  %79 = icmp slt i8 %78, 0
  br i1 %79, label %82, label %80

80:                                               ; preds = %74
  %81 = zext i8 %78 to i64
  br label %86

82:                                               ; preds = %74
  %83 = getelementptr inbounds %"class.std::__1::basic_string", %"class.std::__1::basic_string"* %76, i64 0, i32 0, i32 0, i32 0, i32 0, i32 0, i32 1
  %84 = load i64, i64* %83, align 8
  %85 = icmp sgt i64 %84, 127
  br i1 %85, label %94, label %86, !prof !4

86:                                               ; preds = %82, %80
  %87 = phi i64 [ %81, %80 ], [ %84, %82 ]
  %88 = bitcast %"class.google::protobuf::io::EpsCopyOutputStream"* %2 to i64*
  %89 = load i64, i64* %88, align 8
  %90 = ptrtoint i8* %45 to i64
  %91 = sub i64 14, %90
  %92 = add i64 %91, %89
  %93 = icmp slt i64 %92, %87
  br i1 %93, label %94, label %96, !prof !4

94:                                               ; preds = %86, %82
  %95 = tail call i8* @_ZN6google8protobuf2io19EpsCopyOutputStream30WriteStringMaybeAliasedOutlineEjRKNSt3__112basic_stringIcNS3_11char_traitsIcEENS3_9allocatorIcEEEEPh(%"class.google::protobuf::io::EpsCopyOutputStream"* %2, i32 2, %"class.std::__1::basic_string"* dereferenceable(24) %76, i8* %45) #11
  br label %107

96:                                               ; preds = %86
  store i8 18, i8* %45, align 1
  %97 = getelementptr inbounds i8, i8* %45, i64 1
  %98 = trunc i64 %87 to i8
  %99 = getelementptr inbounds i8, i8* %45, i64 2
  store i8 %98, i8* %97, align 1
  %100 = load i8, i8* %77, align 1
  %101 = icmp slt i8 %100, 0
  %102 = getelementptr inbounds %"class.std::__1::basic_string", %"class.std::__1::basic_string"* %76, i64 0, i32 0, i32 0, i32 0, i32 0, i32 0, i32 0
  %103 = load i8*, i8** %102, align 8
  %104 = bitcast %"class.std::__1::basic_string"* %76 to i8*
  %105 = select i1 %101, i8* %103, i8* %104
  tail call void @llvm.memcpy.p0i8.p0i8.i64(i8* align 1 %99, i8* align 1 %105, i64 %87, i1 false) #11
  %106 = getelementptr inbounds i8, i8* %99, i64 %87
  br label %107

107:                                              ; preds = %94, %96
  %108 = phi i8* [ %106, %96 ], [ %95, %94 ]
  %109 = load i32, i32* %46, align 4
  br label %110

110:                                              ; preds = %107, %44
  %111 = phi i32 [ %109, %107 ], [ %47, %44 ]
  %112 = phi i8* [ %108, %107 ], [ %45, %44 ]
  %113 = icmp eq i32 %111, 3
  br i1 %113, label %114, label %172

114:                                              ; preds = %110
  %115 = getelementptr inbounds %"class.feedwire::webfeed::WebFeedMatcher_Criteria", %"class.feedwire::webfeed::WebFeedMatcher_Criteria"* %0, i64 0, i32 2, i32 0, i32 0
  %116 = load %"class.std::__1::basic_string"*, %"class.std::__1::basic_string"** %115, align 8
  %117 = bitcast %"class.std::__1::basic_string"* %116 to %"struct.std::__1::basic_string<char, std::__1::char_traits<char>, std::__1::allocator<char> >::__short"*
  %118 = getelementptr inbounds %"struct.std::__1::basic_string<char, std::__1::char_traits<char>, std::__1::allocator<char> >::__short", %"struct.std::__1::basic_string<char, std::__1::char_traits<char>, std::__1::allocator<char> >::__short"* %117, i64 0, i32 1, i32 0
  %119 = load i8, i8* %118, align 1
  %120 = icmp slt i8 %119, 0
  br i1 %120, label %121, label %126

121:                                              ; preds = %114
  %122 = getelementptr inbounds %"class.std::__1::basic_string", %"class.std::__1::basic_string"* %116, i64 0, i32 0, i32 0, i32 0, i32 0, i32 0, i32 0
  %123 = load i8*, i8** %122, align 8
  %124 = getelementptr inbounds %"class.std::__1::basic_string", %"class.std::__1::basic_string"* %116, i64 0, i32 0, i32 0, i32 0, i32 0, i32 0, i32 1
  %125 = load i64, i64* %124, align 8
  br label %129

126:                                              ; preds = %114
  %127 = bitcast %"class.std::__1::basic_string"* %116 to i8*
  %128 = zext i8 %119 to i64
  br label %129

129:                                              ; preds = %121, %126
  %130 = phi i8* [ %123, %121 ], [ %127, %126 ]
  %131 = phi i64 [ %125, %121 ], [ %128, %126 ]
  %132 = trunc i64 %131 to i32
  %133 = tail call zeroext i1 @_ZN6google8protobuf8internal14WireFormatLite16VerifyUtf8StringEPKciNS2_9OperationES4_(i8* %130, i32 %132, i32 1, i8* getelementptr inbounds ([61 x i8], [61 x i8]* @.str.2, i64 0, i64 0)) #11
  %134 = load i32, i32* %46, align 4
  %135 = icmp eq i32 %134, 3
  br i1 %135, label %136, label %139

136:                                              ; preds = %129
  %137 = load %"class.std::__1::basic_string"*, %"class.std::__1::basic_string"** %115, align 8
  %138 = bitcast %"class.std::__1::basic_string"* %137 to %"struct.std::__1::basic_string<char, std::__1::char_traits<char>, std::__1::allocator<char> >::__short"*
  br label %139

139:                                              ; preds = %129, %136
  %140 = phi %"struct.std::__1::basic_string<char, std::__1::char_traits<char>, std::__1::allocator<char> >::__short"* [ %138, %136 ], [ bitcast (%"class.google::protobuf::internal::ExplicitlyConstructed.4"* @_ZN6google8protobuf8internal26fixed_address_empty_stringE to %"struct.std::__1::basic_string<char, std::__1::char_traits<char>, std::__1::allocator<char> >::__short"*), %129 ]
  %141 = phi %"class.std::__1::basic_string"* [ %137, %136 ], [ bitcast (%"class.google::protobuf::internal::ExplicitlyConstructed.4"* @_ZN6google8protobuf8internal26fixed_address_empty_stringE to %"class.std::__1::basic_string"*), %129 ]
  %142 = getelementptr inbounds %"struct.std::__1::basic_string<char, std::__1::char_traits<char>, std::__1::allocator<char> >::__short", %"struct.std::__1::basic_string<char, std::__1::char_traits<char>, std::__1::allocator<char> >::__short"* %140, i64 0, i32 1, i32 0
  %143 = load i8, i8* %142, align 1
  %144 = icmp slt i8 %143, 0
  br i1 %144, label %147, label %145

145:                                              ; preds = %139
  %146 = zext i8 %143 to i64
  br label %151

147:                                              ; preds = %139
  %148 = getelementptr inbounds %"class.std::__1::basic_string", %"class.std::__1::basic_string"* %141, i64 0, i32 0, i32 0, i32 0, i32 0, i32 0, i32 1
  %149 = load i64, i64* %148, align 8
  %150 = icmp sgt i64 %149, 127
  br i1 %150, label %159, label %151, !prof !4

151:                                              ; preds = %147, %145
  %152 = phi i64 [ %146, %145 ], [ %149, %147 ]
  %153 = bitcast %"class.google::protobuf::io::EpsCopyOutputStream"* %2 to i64*
  %154 = load i64, i64* %153, align 8
  %155 = ptrtoint i8* %112 to i64
  %156 = sub i64 14, %155
  %157 = add i64 %156, %154
  %158 = icmp slt i64 %157, %152
  br i1 %158, label %159, label %161, !prof !4

159:                                              ; preds = %151, %147
  %160 = tail call i8* @_ZN6google8protobuf2io19EpsCopyOutputStream30WriteStringMaybeAliasedOutlineEjRKNSt3__112basic_stringIcNS3_11char_traitsIcEENS3_9allocatorIcEEEEPh(%"class.google::protobuf::io::EpsCopyOutputStream"* %2, i32 3, %"class.std::__1::basic_string"* dereferenceable(24) %141, i8* %112) #11
  br label %172

161:                                              ; preds = %151
  store i8 26, i8* %112, align 1
  %162 = getelementptr inbounds i8, i8* %112, i64 1
  %163 = trunc i64 %152 to i8
  %164 = getelementptr inbounds i8, i8* %112, i64 2
  store i8 %163, i8* %162, align 1
  %165 = load i8, i8* %142, align 1
  %166 = icmp slt i8 %165, 0
  %167 = getelementptr inbounds %"class.std::__1::basic_string", %"class.std::__1::basic_string"* %141, i64 0, i32 0, i32 0, i32 0, i32 0, i32 0, i32 0
  %168 = load i8*, i8** %167, align 8
  %169 = bitcast %"class.std::__1::basic_string"* %141 to i8*
  %170 = select i1 %166, i8* %168, i8* %169
  tail call void @llvm.memcpy.p0i8.p0i8.i64(i8* align 1 %164, i8* align 1 %170, i64 %152, i1 false) #11
  %171 = getelementptr inbounds i8, i8* %164, i64 %152
  br label %172

172:                                              ; preds = %161, %159, %110
  %173 = phi i8* [ %112, %110 ], [ %160, %159 ], [ %171, %161 ]
  %174 = getelementptr inbounds %"class.feedwire::webfeed::WebFeedMatcher_Criteria", %"class.feedwire::webfeed::WebFeedMatcher_Criteria"* %0, i64 0, i32 0, i32 1
  %175 = bitcast %"class.google::protobuf::internal::InternalMetadata"* %174 to i64*
  %176 = load i64, i64* %175, align 8
  %177 = and i64 %176, 1
  %178 = icmp eq i64 %177, 0
  br i1 %178, label %210, label %179, !prof !2

179:                                              ; preds = %172
  %180 = and i64 %176, -2
  %181 = inttoptr i64 %180 to %"struct.google::protobuf::internal::InternalMetadata::Container"*
  %182 = getelementptr inbounds %"struct.google::protobuf::internal::InternalMetadata::Container", %"struct.google::protobuf::internal::InternalMetadata::Container"* %181, i64 0, i32 1
  %183 = bitcast %"class.std::__1::basic_string"* %182 to %"struct.std::__1::basic_string<char, std::__1::char_traits<char>, std::__1::allocator<char> >::__short"*
  %184 = getelementptr inbounds %"struct.std::__1::basic_string<char, std::__1::char_traits<char>, std::__1::allocator<char> >::__short", %"struct.std::__1::basic_string<char, std::__1::char_traits<char>, std::__1::allocator<char> >::__short"* %183, i64 0, i32 1, i32 0
  %185 = load i8, i8* %184, align 1
  %186 = icmp slt i8 %185, 0
  br i1 %186, label %187, label %192

187:                                              ; preds = %179
  %188 = getelementptr inbounds %"class.std::__1::basic_string", %"class.std::__1::basic_string"* %182, i64 0, i32 0, i32 0, i32 0, i32 0, i32 0, i32 0
  %189 = load i8*, i8** %188, align 8
  %190 = getelementptr inbounds %"struct.google::protobuf::internal::InternalMetadata::Container", %"struct.google::protobuf::internal::InternalMetadata::Container"* %181, i64 0, i32 1, i32 0, i32 0, i32 0, i32 0, i32 0, i32 1
  %191 = load i64, i64* %190, align 8
  br label %195

192:                                              ; preds = %179
  %193 = bitcast %"class.std::__1::basic_string"* %182 to i8*
  %194 = zext i8 %185 to i64
  br label %195

195:                                              ; preds = %187, %192
  %196 = phi i8* [ %189, %187 ], [ %193, %192 ]
  %197 = phi i64 [ %191, %187 ], [ %194, %192 ]
  %198 = bitcast %"class.google::protobuf::io::EpsCopyOutputStream"* %2 to i64*
  %199 = load i64, i64* %198, align 8
  %200 = ptrtoint i8* %173 to i64
  %201 = sub i64 %199, %200
  %202 = shl i64 %197, 32
  %203 = ashr exact i64 %202, 32
  %204 = icmp slt i64 %201, %203
  br i1 %204, label %205, label %208, !prof !4

205:                                              ; preds = %195
  %206 = trunc i64 %197 to i32
  %207 = tail call i8* @_ZN6google8protobuf2io19EpsCopyOutputStream16WriteRawFallbackEPKviPh(%"class.google::protobuf::io::EpsCopyOutputStream"* %2, i8* %196, i32 %206, i8* %173) #11
  br label %210

208:                                              ; preds = %195
  tail call void @llvm.memcpy.p0i8.p0i8.i64(i8* align 1 %173, i8* align 1 %196, i64 %203, i1 false) #11
  %209 = getelementptr inbounds i8, i8* %173, i64 %203
  br label %210

210:                                              ; preds = %172, %208, %205
  %211 = phi i8* [ %173, %172 ], [ %207, %205 ], [ %209, %208 ]
  ret i8* %211
}

declare zeroext i1 @_ZN6google8protobuf8internal14WireFormatLite16VerifyUtf8StringEPKciNS2_9OperationES4_(i8*, i32, i32, i8*) local_unnamed_addr #4

; Function Attrs: nounwind ssp uwtable
define hidden i64 @_ZNK8feedwire7webfeed23WebFeedMatcher_Criteria12ByteSizeLongEv(%"class.feedwire::webfeed::WebFeedMatcher_Criteria"* nocapture) unnamed_addr #0 align 2 {
  %2 = getelementptr inbounds %"class.feedwire::webfeed::WebFeedMatcher_Criteria", %"class.feedwire::webfeed::WebFeedMatcher_Criteria"* %0, i64 0, i32 1
  %3 = load i32, i32* %2, align 8
  %4 = icmp eq i32 %3, 0
  br i1 %4, label %16, label %5

5:                                                ; preds = %1
  %6 = icmp slt i32 %3, 0
  br i1 %6, label %16, label %7

7:                                                ; preds = %5
  %8 = or i32 %3, 1
  %9 = tail call i32 @llvm.ctlz.i32(i32 %8, i1 true) #11, !range !6
  %10 = xor i32 %9, 31
  %11 = mul nuw nsw i32 %10, 9
  %12 = add nuw nsw i32 %11, 73
  %13 = lshr i32 %12, 6
  %14 = add nuw nsw i32 %13, 1
  %15 = zext i32 %14 to i64
  br label %16

16:                                               ; preds = %7, %5, %1
  %17 = phi i64 [ 0, %1 ], [ %15, %7 ], [ 11, %5 ]
  %18 = getelementptr inbounds %"class.feedwire::webfeed::WebFeedMatcher_Criteria", %"class.feedwire::webfeed::WebFeedMatcher_Criteria"* %0, i64 0, i32 4, i64 0
  %19 = load i32, i32* %18, align 4
  switch i32 %19, label %64 [
    i32 2, label %20
    i32 3, label %42
  ]

20:                                               ; preds = %16
  %21 = getelementptr inbounds %"class.feedwire::webfeed::WebFeedMatcher_Criteria", %"class.feedwire::webfeed::WebFeedMatcher_Criteria"* %0, i64 0, i32 2, i32 0, i32 0
  %22 = load %"class.std::__1::basic_string"*, %"class.std::__1::basic_string"** %21, align 8
  %23 = bitcast %"class.std::__1::basic_string"* %22 to %"struct.std::__1::basic_string<char, std::__1::char_traits<char>, std::__1::allocator<char> >::__short"*
  %24 = getelementptr inbounds %"struct.std::__1::basic_string<char, std::__1::char_traits<char>, std::__1::allocator<char> >::__short", %"struct.std::__1::basic_string<char, std::__1::char_traits<char>, std::__1::allocator<char> >::__short"* %23, i64 0, i32 1, i32 0
  %25 = load i8, i8* %24, align 1
  %26 = icmp slt i8 %25, 0
  %27 = getelementptr inbounds %"class.std::__1::basic_string", %"class.std::__1::basic_string"* %22, i64 0, i32 0, i32 0, i32 0, i32 0, i32 0, i32 1
  %28 = load i64, i64* %27, align 8
  %29 = zext i8 %25 to i64
  %30 = select i1 %26, i64 %28, i64 %29
  %31 = trunc i64 %30 to i32
  %32 = or i32 %31, 1
  %33 = tail call i32 @llvm.ctlz.i32(i32 %32, i1 true) #11, !range !6
  %34 = xor i32 %33, 31
  %35 = mul nuw nsw i32 %34, 9
  %36 = add nuw nsw i32 %35, 73
  %37 = lshr i32 %36, 6
  %38 = zext i32 %37 to i64
  %39 = add nuw nsw i64 %17, 1
  %40 = add i64 %39, %30
  %41 = add i64 %40, %38
  br label %64

42:                                               ; preds = %16
  %43 = getelementptr inbounds %"class.feedwire::webfeed::WebFeedMatcher_Criteria", %"class.feedwire::webfeed::WebFeedMatcher_Criteria"* %0, i64 0, i32 2, i32 0, i32 0
  %44 = load %"class.std::__1::basic_string"*, %"class.std::__1::basic_string"** %43, align 8
  %45 = bitcast %"class.std::__1::basic_string"* %44 to %"struct.std::__1::basic_string<char, std::__1::char_traits<char>, std::__1::allocator<char> >::__short"*
  %46 = getelementptr inbounds %"struct.std::__1::basic_string<char, std::__1::char_traits<char>, std::__1::allocator<char> >::__short", %"struct.std::__1::basic_string<char, std::__1::char_traits<char>, std::__1::allocator<char> >::__short"* %45, i64 0, i32 1, i32 0
  %47 = load i8, i8* %46, align 1
  %48 = icmp slt i8 %47, 0
  %49 = getelementptr inbounds %"class.std::__1::basic_string", %"class.std::__1::basic_string"* %44, i64 0, i32 0, i32 0, i32 0, i32 0, i32 0, i32 1
  %50 = load i64, i64* %49, align 8
  %51 = zext i8 %47 to i64
  %52 = select i1 %48, i64 %50, i64 %51
  %53 = trunc i64 %52 to i32
  %54 = or i32 %53, 1
  %55 = tail call i32 @llvm.ctlz.i32(i32 %54, i1 true) #11, !range !6
  %56 = xor i32 %55, 31
  %57 = mul nuw nsw i32 %56, 9
  %58 = add nuw nsw i32 %57, 73
  %59 = lshr i32 %58, 6
  %60 = zext i32 %59 to i64
  %61 = add nuw nsw i64 %17, 1
  %62 = add i64 %61, %52
  %63 = add i64 %62, %60
  br label %64

64:                                               ; preds = %16, %42, %20
  %65 = phi i64 [ %17, %16 ], [ %63, %42 ], [ %41, %20 ]
  %66 = getelementptr inbounds %"class.feedwire::webfeed::WebFeedMatcher_Criteria", %"class.feedwire::webfeed::WebFeedMatcher_Criteria"* %0, i64 0, i32 0, i32 1
  %67 = bitcast %"class.google::protobuf::internal::InternalMetadata"* %66 to i64*
  %68 = load i64, i64* %67, align 8
  %69 = and i64 %68, 1
  %70 = icmp eq i64 %69, 0
  br i1 %70, label %87, label %71, !prof !2

71:                                               ; preds = %64
  %72 = and i64 %68, -2
  %73 = inttoptr i64 %72 to %"struct.google::protobuf::internal::InternalMetadata::Container"*
  %74 = getelementptr inbounds %"struct.google::protobuf::internal::InternalMetadata::Container", %"struct.google::protobuf::internal::InternalMetadata::Container"* %73, i64 0, i32 1
  %75 = bitcast %"class.std::__1::basic_string"* %74 to %"struct.std::__1::basic_string<char, std::__1::char_traits<char>, std::__1::allocator<char> >::__short"*
  %76 = getelementptr inbounds %"struct.std::__1::basic_string<char, std::__1::char_traits<char>, std::__1::allocator<char> >::__short", %"struct.std::__1::basic_string<char, std::__1::char_traits<char>, std::__1::allocator<char> >::__short"* %75, i64 0, i32 1, i32 0
  %77 = load i8, i8* %76, align 1
  %78 = icmp slt i8 %77, 0
  br i1 %78, label %79, label %82

79:                                               ; preds = %71
  %80 = getelementptr inbounds %"struct.google::protobuf::internal::InternalMetadata::Container", %"struct.google::protobuf::internal::InternalMetadata::Container"* %73, i64 0, i32 1, i32 0, i32 0, i32 0, i32 0, i32 0, i32 1
  %81 = load i64, i64* %80, align 8
  br label %84

82:                                               ; preds = %71
  %83 = zext i8 %77 to i64
  br label %84

84:                                               ; preds = %79, %82
  %85 = phi i64 [ %81, %79 ], [ %83, %82 ]
  %86 = add i64 %85, %65
  br label %87

87:                                               ; preds = %64, %84
  %88 = phi i64 [ %86, %84 ], [ %65, %64 ]
  %89 = trunc i64 %88 to i32
  %90 = getelementptr inbounds %"class.feedwire::webfeed::WebFeedMatcher_Criteria", %"class.feedwire::webfeed::WebFeedMatcher_Criteria"* %0, i64 0, i32 3, i32 0, i32 0, i32 0, i32 0, i32 0, i32 0
  store atomic i32 %89, i32* %90 monotonic, align 4
  ret i64 %88
}

; Function Attrs: nounwind ssp uwtable
define hidden void @_ZN8feedwire7webfeed23WebFeedMatcher_Criteria21CheckTypeAndMergeFromERKN6google8protobuf11MessageLiteE(%"class.feedwire::webfeed::WebFeedMatcher_Criteria"*, %"class.google::protobuf::MessageLite"* nocapture readonly dereferenceable(16)) unnamed_addr #0 align 2 {
  %3 = bitcast %"class.google::protobuf::MessageLite"* %1 to %"class.feedwire::webfeed::WebFeedMatcher_Criteria"*
  tail call void @_ZN8feedwire7webfeed23WebFeedMatcher_Criteria9MergeFromERKS1_(%"class.feedwire::webfeed::WebFeedMatcher_Criteria"* %0, %"class.feedwire::webfeed::WebFeedMatcher_Criteria"* dereferenceable(40) %3)
  ret void
}

; Function Attrs: nounwind ssp uwtable
define hidden void @_ZN8feedwire7webfeed23WebFeedMatcher_Criteria9MergeFromERKS1_(%"class.feedwire::webfeed::WebFeedMatcher_Criteria"*, %"class.feedwire::webfeed::WebFeedMatcher_Criteria"* nocapture readonly dereferenceable(40)) local_unnamed_addr #0 align 2 {
  %3 = getelementptr inbounds %"class.feedwire::webfeed::WebFeedMatcher_Criteria", %"class.feedwire::webfeed::WebFeedMatcher_Criteria"* %0, i64 0, i32 0, i32 1
  %4 = getelementptr inbounds %"class.feedwire::webfeed::WebFeedMatcher_Criteria", %"class.feedwire::webfeed::WebFeedMatcher_Criteria"* %1, i64 0, i32 0, i32 1
  %5 = bitcast %"class.google::protobuf::internal::InternalMetadata"* %4 to i64*
  %6 = load i64, i64* %5, align 8
  %7 = and i64 %6, 1
  %8 = icmp eq i64 %7, 0
  br i1 %8, label %38, label %9

9:                                                ; preds = %2
  %10 = and i64 %6, -2
  %11 = inttoptr i64 %10 to %"struct.google::protobuf::internal::InternalMetadata::Container"*
  %12 = getelementptr inbounds %"struct.google::protobuf::internal::InternalMetadata::Container", %"struct.google::protobuf::internal::InternalMetadata::Container"* %11, i64 0, i32 1
  %13 = bitcast %"class.google::protobuf::internal::InternalMetadata"* %3 to i64*
  %14 = load i64, i64* %13, align 8
  %15 = and i64 %14, 1
  %16 = icmp eq i64 %15, 0
  br i1 %16, label %21, label %17, !prof !4

17:                                               ; preds = %9
  %18 = and i64 %14, -2
  %19 = inttoptr i64 %18 to %"struct.google::protobuf::internal::InternalMetadata::Container"*
  %20 = getelementptr inbounds %"struct.google::protobuf::internal::InternalMetadata::Container", %"struct.google::protobuf::internal::InternalMetadata::Container"* %19, i64 0, i32 1
  br label %23

21:                                               ; preds = %9
  %22 = tail call %"class.std::__1::basic_string"* @_ZN6google8protobuf8internal16InternalMetadata27mutable_unknown_fields_slowINSt3__112basic_stringIcNS4_11char_traitsIcEENS4_9allocatorIcEEEEEEPT_v(%"class.google::protobuf::internal::InternalMetadata"* %3) #11
  br label %23

23:                                               ; preds = %21, %17
  %24 = phi %"class.std::__1::basic_string"* [ %20, %17 ], [ %22, %21 ]
  %25 = bitcast %"class.std::__1::basic_string"* %12 to %"struct.std::__1::basic_string<char, std::__1::char_traits<char>, std::__1::allocator<char> >::__short"*
  %26 = getelementptr inbounds %"struct.std::__1::basic_string<char, std::__1::char_traits<char>, std::__1::allocator<char> >::__short", %"struct.std::__1::basic_string<char, std::__1::char_traits<char>, std::__1::allocator<char> >::__short"* %25, i64 0, i32 1, i32 0
  %27 = load i8, i8* %26, align 1
  %28 = icmp slt i8 %27, 0
  %29 = getelementptr inbounds %"class.std::__1::basic_string", %"class.std::__1::basic_string"* %12, i64 0, i32 0, i32 0, i32 0, i32 0, i32 0, i32 0
  %30 = load i8*, i8** %29, align 8
  %31 = getelementptr inbounds %"struct.google::protobuf::internal::InternalMetadata::Container", %"struct.google::protobuf::internal::InternalMetadata::Container"* %11, i64 0, i32 1, i32 0, i32 0, i32 0, i32 0, i32 0, i32 1
  %32 = load i64, i64* %31, align 8
  %33 = bitcast %"class.std::__1::basic_string"* %12 to i8*
  %34 = zext i8 %27 to i64
  %35 = select i1 %28, i8* %30, i8* %33
  %36 = select i1 %28, i64 %32, i64 %34
  %37 = tail call dereferenceable(24) %"class.std::__1::basic_string"* @_ZNSt3__112basic_stringIcNS_11char_traitsIcEENS_9allocatorIcEEE6appendEPKcm(%"class.std::__1::basic_string"* %24, i8* %35, i64 %36) #11
  br label %38

38:                                               ; preds = %2, %23
  %39 = getelementptr inbounds %"class.feedwire::webfeed::WebFeedMatcher_Criteria", %"class.feedwire::webfeed::WebFeedMatcher_Criteria"* %1, i64 0, i32 1
  %40 = load i32, i32* %39, align 8
  %41 = icmp eq i32 %40, 0
  br i1 %41, label %44, label %42

42:                                               ; preds = %38
  %43 = getelementptr inbounds %"class.feedwire::webfeed::WebFeedMatcher_Criteria", %"class.feedwire::webfeed::WebFeedMatcher_Criteria"* %0, i64 0, i32 1
  store i32 %40, i32* %43, align 8
  br label %44

44:                                               ; preds = %38, %42
  %45 = getelementptr inbounds %"class.feedwire::webfeed::WebFeedMatcher_Criteria", %"class.feedwire::webfeed::WebFeedMatcher_Criteria"* %1, i64 0, i32 4, i64 0
  %46 = load i32, i32* %45, align 4
  switch i32 %46, label %163 [
    i32 2, label %47
    i32 3, label %105
  ]

47:                                               ; preds = %44
  %48 = getelementptr inbounds %"class.feedwire::webfeed::WebFeedMatcher_Criteria", %"class.feedwire::webfeed::WebFeedMatcher_Criteria"* %1, i64 0, i32 2, i32 0, i32 0
  %49 = load %"class.std::__1::basic_string"*, %"class.std::__1::basic_string"** %48, align 8
  %50 = getelementptr inbounds %"class.feedwire::webfeed::WebFeedMatcher_Criteria", %"class.feedwire::webfeed::WebFeedMatcher_Criteria"* %0, i64 0, i32 4, i64 0
  %51 = load i32, i32* %50, align 4
  %52 = icmp eq i32 %51, 2
  br i1 %52, label %55, label %53

53:                                               ; preds = %47
  tail call void @_ZN8feedwire7webfeed23WebFeedMatcher_Criteria11clear_matchEv(%"class.feedwire::webfeed::WebFeedMatcher_Criteria"* %0) #11
  store i32 2, i32* %50, align 4
  %54 = getelementptr inbounds %"class.feedwire::webfeed::WebFeedMatcher_Criteria", %"class.feedwire::webfeed::WebFeedMatcher_Criteria"* %0, i64 0, i32 2, i32 0, i32 0
  store %"class.std::__1::basic_string"* bitcast (%"class.google::protobuf::internal::ExplicitlyConstructed.4"* @_ZN6google8protobuf8internal26fixed_address_empty_stringE to %"class.std::__1::basic_string"*), %"class.std::__1::basic_string"** %54, align 8
  br label %55

55:                                               ; preds = %53, %47
  %56 = getelementptr inbounds %"class.feedwire::webfeed::WebFeedMatcher_Criteria", %"class.feedwire::webfeed::WebFeedMatcher_Criteria"* %0, i64 0, i32 2, i32 0
  %57 = bitcast %"class.google::protobuf::internal::InternalMetadata"* %3 to i64*
  %58 = load i64, i64* %57, align 8
  %59 = and i64 %58, 1
  %60 = icmp eq i64 %59, 0
  %61 = and i64 %58, -2
  br i1 %60, label %66, label %62, !prof !2

62:                                               ; preds = %55
  %63 = inttoptr i64 %61 to %"struct.google::protobuf::internal::InternalMetadata::ContainerBase"*
  %64 = getelementptr inbounds %"struct.google::protobuf::internal::InternalMetadata::ContainerBase", %"struct.google::protobuf::internal::InternalMetadata::ContainerBase"* %63, i64 0, i32 0
  %65 = load %"class.google::protobuf::Arena"*, %"class.google::protobuf::Arena"** %64, align 8
  br label %68

66:                                               ; preds = %55
  %67 = inttoptr i64 %61 to %"class.google::protobuf::Arena"*
  br label %68

68:                                               ; preds = %66, %62
  %69 = phi %"class.google::protobuf::Arena"* [ %65, %62 ], [ %67, %66 ]
  %70 = getelementptr inbounds %"struct.google::protobuf::internal::ArenaStringPtr", %"struct.google::protobuf::internal::ArenaStringPtr"* %56, i64 0, i32 0
  %71 = load %"class.std::__1::basic_string"*, %"class.std::__1::basic_string"** %70, align 8
  %72 = icmp eq %"class.std::__1::basic_string"* %71, bitcast (%"class.google::protobuf::internal::ExplicitlyConstructed.4"* @_ZN6google8protobuf8internal26fixed_address_empty_stringE to %"class.std::__1::basic_string"*)
  br i1 %72, label %73, label %74

73:                                               ; preds = %68
  tail call void @_ZN6google8protobuf8internal14ArenaStringPtr14CreateInstanceEPNS0_5ArenaEPKNSt3__112basic_stringIcNS5_11char_traitsIcEENS5_9allocatorIcEEEE(%"struct.google::protobuf::internal::ArenaStringPtr"* %56, %"class.google::protobuf::Arena"* %69, %"class.std::__1::basic_string"* %49) #11
  br label %163

74:                                               ; preds = %68
  %75 = icmp eq %"class.std::__1::basic_string"* %71, %49
  br i1 %75, label %163, label %76

76:                                               ; preds = %74
  %77 = bitcast %"class.std::__1::basic_string"* %71 to %"struct.std::__1::basic_string<char, std::__1::char_traits<char>, std::__1::allocator<char> >::__short"*
  %78 = getelementptr inbounds %"struct.std::__1::basic_string<char, std::__1::char_traits<char>, std::__1::allocator<char> >::__short", %"struct.std::__1::basic_string<char, std::__1::char_traits<char>, std::__1::allocator<char> >::__short"* %77, i64 0, i32 1, i32 0
  %79 = load i8, i8* %78, align 1
  %80 = icmp slt i8 %79, 0
  %81 = bitcast %"class.std::__1::basic_string"* %49 to %"struct.std::__1::basic_string<char, std::__1::char_traits<char>, std::__1::allocator<char> >::__short"*
  %82 = getelementptr inbounds %"struct.std::__1::basic_string<char, std::__1::char_traits<char>, std::__1::allocator<char> >::__short", %"struct.std::__1::basic_string<char, std::__1::char_traits<char>, std::__1::allocator<char> >::__short"* %81, i64 0, i32 1, i32 0
  %83 = load i8, i8* %82, align 1
  %84 = icmp slt i8 %83, 0
  br i1 %80, label %95, label %85

85:                                               ; preds = %76
  br i1 %84, label %89, label %86

86:                                               ; preds = %85
  %87 = bitcast %"class.std::__1::basic_string"* %71 to i8*
  %88 = bitcast %"class.std::__1::basic_string"* %49 to i8*
  tail call void @llvm.memcpy.p0i8.p0i8.i64(i8* align 8 %87, i8* align 8 %88, i64 24, i1 false) #11
  br label %163

89:                                               ; preds = %85
  %90 = getelementptr inbounds %"class.std::__1::basic_string", %"class.std::__1::basic_string"* %49, i64 0, i32 0, i32 0, i32 0, i32 0, i32 0, i32 0
  %91 = load i8*, i8** %90, align 8
  %92 = getelementptr inbounds %"class.std::__1::basic_string", %"class.std::__1::basic_string"* %49, i64 0, i32 0, i32 0, i32 0, i32 0, i32 0, i32 1
  %93 = load i64, i64* %92, align 8
  %94 = tail call dereferenceable(24) %"class.std::__1::basic_string"* @_ZNSt3__112basic_stringIcNS_11char_traitsIcEENS_9allocatorIcEEE17__assign_no_aliasILb1EEERS5_PKcm(%"class.std::__1::basic_string"* %71, i8* %91, i64 %93) #11
  br label %163

95:                                               ; preds = %76
  %96 = getelementptr inbounds %"class.std::__1::basic_string", %"class.std::__1::basic_string"* %49, i64 0, i32 0, i32 0, i32 0, i32 0, i32 0, i32 0
  %97 = load i8*, i8** %96, align 8
  %98 = getelementptr inbounds %"class.std::__1::basic_string", %"class.std::__1::basic_string"* %49, i64 0, i32 0, i32 0, i32 0, i32 0, i32 0, i32 1
  %99 = load i64, i64* %98, align 8
  %100 = bitcast %"class.std::__1::basic_string"* %49 to i8*
  %101 = zext i8 %83 to i64
  %102 = select i1 %84, i8* %97, i8* %100
  %103 = select i1 %84, i64 %99, i64 %101
  %104 = tail call dereferenceable(24) %"class.std::__1::basic_string"* @_ZNSt3__112basic_stringIcNS_11char_traitsIcEENS_9allocatorIcEEE17__assign_no_aliasILb0EEERS5_PKcm(%"class.std::__1::basic_string"* %71, i8* %102, i64 %103) #11
  br label %163

105:                                              ; preds = %44
  %106 = getelementptr inbounds %"class.feedwire::webfeed::WebFeedMatcher_Criteria", %"class.feedwire::webfeed::WebFeedMatcher_Criteria"* %1, i64 0, i32 2, i32 0, i32 0
  %107 = load %"class.std::__1::basic_string"*, %"class.std::__1::basic_string"** %106, align 8
  %108 = getelementptr inbounds %"class.feedwire::webfeed::WebFeedMatcher_Criteria", %"class.feedwire::webfeed::WebFeedMatcher_Criteria"* %0, i64 0, i32 4, i64 0
  %109 = load i32, i32* %108, align 4
  %110 = icmp eq i32 %109, 3
  br i1 %110, label %113, label %111

111:                                              ; preds = %105
  tail call void @_ZN8feedwire7webfeed23WebFeedMatcher_Criteria11clear_matchEv(%"class.feedwire::webfeed::WebFeedMatcher_Criteria"* %0) #11
  store i32 3, i32* %108, align 4
  %112 = getelementptr inbounds %"class.feedwire::webfeed::WebFeedMatcher_Criteria", %"class.feedwire::webfeed::WebFeedMatcher_Criteria"* %0, i64 0, i32 2, i32 0, i32 0
  store %"class.std::__1::basic_string"* bitcast (%"class.google::protobuf::internal::ExplicitlyConstructed.4"* @_ZN6google8protobuf8internal26fixed_address_empty_stringE to %"class.std::__1::basic_string"*), %"class.std::__1::basic_string"** %112, align 8
  br label %113

113:                                              ; preds = %111, %105
  %114 = getelementptr inbounds %"class.feedwire::webfeed::WebFeedMatcher_Criteria", %"class.feedwire::webfeed::WebFeedMatcher_Criteria"* %0, i64 0, i32 2, i32 0
  %115 = bitcast %"class.google::protobuf::internal::InternalMetadata"* %3 to i64*
  %116 = load i64, i64* %115, align 8
  %117 = and i64 %116, 1
  %118 = icmp eq i64 %117, 0
  %119 = and i64 %116, -2
  br i1 %118, label %124, label %120, !prof !2

120:                                              ; preds = %113
  %121 = inttoptr i64 %119 to %"struct.google::protobuf::internal::InternalMetadata::ContainerBase"*
  %122 = getelementptr inbounds %"struct.google::protobuf::internal::InternalMetadata::ContainerBase", %"struct.google::protobuf::internal::InternalMetadata::ContainerBase"* %121, i64 0, i32 0
  %123 = load %"class.google::protobuf::Arena"*, %"class.google::protobuf::Arena"** %122, align 8
  br label %126

124:                                              ; preds = %113
  %125 = inttoptr i64 %119 to %"class.google::protobuf::Arena"*
  br label %126

126:                                              ; preds = %124, %120
  %127 = phi %"class.google::protobuf::Arena"* [ %123, %120 ], [ %125, %124 ]
  %128 = getelementptr inbounds %"struct.google::protobuf::internal::ArenaStringPtr", %"struct.google::protobuf::internal::ArenaStringPtr"* %114, i64 0, i32 0
  %129 = load %"class.std::__1::basic_string"*, %"class.std::__1::basic_string"** %128, align 8
  %130 = icmp eq %"class.std::__1::basic_string"* %129, bitcast (%"class.google::protobuf::internal::ExplicitlyConstructed.4"* @_ZN6google8protobuf8internal26fixed_address_empty_stringE to %"class.std::__1::basic_string"*)
  br i1 %130, label %131, label %132

131:                                              ; preds = %126
  tail call void @_ZN6google8protobuf8internal14ArenaStringPtr14CreateInstanceEPNS0_5ArenaEPKNSt3__112basic_stringIcNS5_11char_traitsIcEENS5_9allocatorIcEEEE(%"struct.google::protobuf::internal::ArenaStringPtr"* %114, %"class.google::protobuf::Arena"* %127, %"class.std::__1::basic_string"* %107) #11
  br label %163

132:                                              ; preds = %126
  %133 = icmp eq %"class.std::__1::basic_string"* %129, %107
  br i1 %133, label %163, label %134

134:                                              ; preds = %132
  %135 = bitcast %"class.std::__1::basic_string"* %129 to %"struct.std::__1::basic_string<char, std::__1::char_traits<char>, std::__1::allocator<char> >::__short"*
  %136 = getelementptr inbounds %"struct.std::__1::basic_string<char, std::__1::char_traits<char>, std::__1::allocator<char> >::__short", %"struct.std::__1::basic_string<char, std::__1::char_traits<char>, std::__1::allocator<char> >::__short"* %135, i64 0, i32 1, i32 0
  %137 = load i8, i8* %136, align 1
  %138 = icmp slt i8 %137, 0
  %139 = bitcast %"class.std::__1::basic_string"* %107 to %"struct.std::__1::basic_string<char, std::__1::char_traits<char>, std::__1::allocator<char> >::__short"*
  %140 = getelementptr inbounds %"struct.std::__1::basic_string<char, std::__1::char_traits<char>, std::__1::allocator<char> >::__short", %"struct.std::__1::basic_string<char, std::__1::char_traits<char>, std::__1::allocator<char> >::__short"* %139, i64 0, i32 1, i32 0
  %141 = load i8, i8* %140, align 1
  %142 = icmp slt i8 %141, 0
  br i1 %138, label %153, label %143

143:                                              ; preds = %134
  br i1 %142, label %147, label %144

144:                                              ; preds = %143
  %145 = bitcast %"class.std::__1::basic_string"* %129 to i8*
  %146 = bitcast %"class.std::__1::basic_string"* %107 to i8*
  tail call void @llvm.memcpy.p0i8.p0i8.i64(i8* align 8 %145, i8* align 8 %146, i64 24, i1 false) #11
  br label %163

147:                                              ; preds = %143
  %148 = getelementptr inbounds %"class.std::__1::basic_string", %"class.std::__1::basic_string"* %107, i64 0, i32 0, i32 0, i32 0, i32 0, i32 0, i32 0
  %149 = load i8*, i8** %148, align 8
  %150 = getelementptr inbounds %"class.std::__1::basic_string", %"class.std::__1::basic_string"* %107, i64 0, i32 0, i32 0, i32 0, i32 0, i32 0, i32 1
  %151 = load i64, i64* %150, align 8
  %152 = tail call dereferenceable(24) %"class.std::__1::basic_string"* @_ZNSt3__112basic_stringIcNS_11char_traitsIcEENS_9allocatorIcEEE17__assign_no_aliasILb1EEERS5_PKcm(%"class.std::__1::basic_string"* %129, i8* %149, i64 %151) #11
  br label %163

153:                                              ; preds = %134
  %154 = getelementptr inbounds %"class.std::__1::basic_string", %"class.std::__1::basic_string"* %107, i64 0, i32 0, i32 0, i32 0, i32 0, i32 0, i32 0
  %155 = load i8*, i8** %154, align 8
  %156 = getelementptr inbounds %"class.std::__1::basic_string", %"class.std::__1::basic_string"* %107, i64 0, i32 0, i32 0, i32 0, i32 0, i32 0, i32 1
  %157 = load i64, i64* %156, align 8
  %158 = bitcast %"class.std::__1::basic_string"* %107 to i8*
  %159 = zext i8 %141 to i64
  %160 = select i1 %142, i8* %155, i8* %158
  %161 = select i1 %142, i64 %157, i64 %159
  %162 = tail call dereferenceable(24) %"class.std::__1::basic_string"* @_ZNSt3__112basic_stringIcNS_11char_traitsIcEENS_9allocatorIcEEE17__assign_no_aliasILb0EEERS5_PKcm(%"class.std::__1::basic_string"* %129, i8* %160, i64 %161) #11
  br label %163

163:                                              ; preds = %153, %147, %144, %132, %131, %95, %89, %86, %74, %73, %44
  ret void
}

; Function Attrs: nounwind ssp uwtable
define hidden void @_ZN8feedwire7webfeed23WebFeedMatcher_Criteria8CopyFromERKS1_(%"class.feedwire::webfeed::WebFeedMatcher_Criteria"*, %"class.feedwire::webfeed::WebFeedMatcher_Criteria"* readonly dereferenceable(40)) local_unnamed_addr #0 align 2 {
  %3 = icmp eq %"class.feedwire::webfeed::WebFeedMatcher_Criteria"* %1, %0
  br i1 %3, label %26, label %4

4:                                                ; preds = %2
  %5 = getelementptr inbounds %"class.feedwire::webfeed::WebFeedMatcher_Criteria", %"class.feedwire::webfeed::WebFeedMatcher_Criteria"* %0, i64 0, i32 1
  store i32 0, i32* %5, align 8
  tail call void @_ZN8feedwire7webfeed23WebFeedMatcher_Criteria11clear_matchEv(%"class.feedwire::webfeed::WebFeedMatcher_Criteria"* %0) #11
  %6 = getelementptr inbounds %"class.feedwire::webfeed::WebFeedMatcher_Criteria", %"class.feedwire::webfeed::WebFeedMatcher_Criteria"* %0, i64 0, i32 0, i32 1
  %7 = bitcast %"class.google::protobuf::internal::InternalMetadata"* %6 to i64*
  %8 = load i64, i64* %7, align 8
  %9 = and i64 %8, 1
  %10 = icmp eq i64 %9, 0
  br i1 %10, label %25, label %11

11:                                               ; preds = %4
  %12 = and i64 %8, -2
  %13 = inttoptr i64 %12 to %"struct.google::protobuf::internal::InternalMetadata::Container"*
  %14 = getelementptr inbounds %"struct.google::protobuf::internal::InternalMetadata::Container", %"struct.google::protobuf::internal::InternalMetadata::Container"* %13, i64 0, i32 1
  %15 = bitcast %"class.std::__1::basic_string"* %14 to %"struct.std::__1::basic_string<char, std::__1::char_traits<char>, std::__1::allocator<char> >::__short"*
  %16 = getelementptr inbounds %"struct.std::__1::basic_string<char, std::__1::char_traits<char>, std::__1::allocator<char> >::__short", %"struct.std::__1::basic_string<char, std::__1::char_traits<char>, std::__1::allocator<char> >::__short"* %15, i64 0, i32 1, i32 0
  %17 = load i8, i8* %16, align 1
  %18 = icmp slt i8 %17, 0
  br i1 %18, label %19, label %23

19:                                               ; preds = %11
  %20 = getelementptr inbounds %"class.std::__1::basic_string", %"class.std::__1::basic_string"* %14, i64 0, i32 0, i32 0, i32 0, i32 0, i32 0, i32 0
  %21 = load i8*, i8** %20, align 8
  store i8 0, i8* %21, align 1
  %22 = getelementptr inbounds %"struct.google::protobuf::internal::InternalMetadata::Container", %"struct.google::protobuf::internal::InternalMetadata::Container"* %13, i64 0, i32 1, i32 0, i32 0, i32 0, i32 0, i32 0, i32 1
  store i64 0, i64* %22, align 8
  br label %25

23:                                               ; preds = %11
  %24 = bitcast %"class.std::__1::basic_string"* %14 to i8*
  store i8 0, i8* %24, align 2
  store i8 0, i8* %16, align 1
  br label %25

25:                                               ; preds = %4, %19, %23
  tail call void @_ZN8feedwire7webfeed23WebFeedMatcher_Criteria9MergeFromERKS1_(%"class.feedwire::webfeed::WebFeedMatcher_Criteria"* %0, %"class.feedwire::webfeed::WebFeedMatcher_Criteria"* dereferenceable(40) %1)
  br label %26

26:                                               ; preds = %2, %25
  ret void
}

; Function Attrs: norecurse nounwind readnone ssp uwtable
define hidden zeroext i1 @_ZNK8feedwire7webfeed23WebFeedMatcher_Criteria13IsInitializedEv(%"class.feedwire::webfeed::WebFeedMatcher_Criteria"* nocapture readnone) unnamed_addr #1 align 2 {
  ret i1 true
}

; Function Attrs: nounwind ssp uwtable
define hidden void @_ZN8feedwire7webfeed23WebFeedMatcher_Criteria12InternalSwapEPS1_(%"class.feedwire::webfeed::WebFeedMatcher_Criteria"*, %"class.feedwire::webfeed::WebFeedMatcher_Criteria"*) local_unnamed_addr #0 align 2 {
  %3 = getelementptr inbounds %"class.feedwire::webfeed::WebFeedMatcher_Criteria", %"class.feedwire::webfeed::WebFeedMatcher_Criteria"* %0, i64 0, i32 0, i32 1
  %4 = getelementptr inbounds %"class.feedwire::webfeed::WebFeedMatcher_Criteria", %"class.feedwire::webfeed::WebFeedMatcher_Criteria"* %1, i64 0, i32 0, i32 1
  %5 = bitcast %"class.google::protobuf::internal::InternalMetadata"* %3 to i64*
  %6 = load i64, i64* %5, align 8
  %7 = bitcast %"class.google::protobuf::internal::InternalMetadata"* %4 to i64*
  %8 = load i64, i64* %7, align 8
  %9 = or i64 %8, %6
  %10 = and i64 %9, 1
  %11 = icmp eq i64 %10, 0
  br i1 %11, label %43, label %12

12:                                               ; preds = %2
  %13 = and i64 %8, 1
  %14 = icmp eq i64 %13, 0
  br i1 %14, label %19, label %15, !prof !4

15:                                               ; preds = %12
  %16 = and i64 %8, -2
  %17 = inttoptr i64 %16 to %"struct.google::protobuf::internal::InternalMetadata::Container"*
  %18 = getelementptr inbounds %"struct.google::protobuf::internal::InternalMetadata::Container", %"struct.google::protobuf::internal::InternalMetadata::Container"* %17, i64 0, i32 1
  br label %22

19:                                               ; preds = %12
  %20 = tail call %"class.std::__1::basic_string"* @_ZN6google8protobuf8internal16InternalMetadata27mutable_unknown_fields_slowINSt3__112basic_stringIcNS4_11char_traitsIcEENS4_9allocatorIcEEEEEEPT_v(%"class.google::protobuf::internal::InternalMetadata"* %4) #11
  %21 = load i64, i64* %5, align 8
  br label %22

22:                                               ; preds = %19, %15
  %23 = phi i64 [ %6, %15 ], [ %21, %19 ]
  %24 = phi %"class.std::__1::basic_string"* [ %18, %15 ], [ %20, %19 ]
  %25 = and i64 %23, 1
  %26 = icmp eq i64 %25, 0
  br i1 %26, label %31, label %27, !prof !4

27:                                               ; preds = %22
  %28 = and i64 %23, -2
  %29 = inttoptr i64 %28 to %"struct.google::protobuf::internal::InternalMetadata::Container"*
  %30 = getelementptr inbounds %"struct.google::protobuf::internal::InternalMetadata::Container", %"struct.google::protobuf::internal::InternalMetadata::Container"* %29, i64 0, i32 1
  br label %33

31:                                               ; preds = %22
  %32 = tail call %"class.std::__1::basic_string"* @_ZN6google8protobuf8internal16InternalMetadata27mutable_unknown_fields_slowINSt3__112basic_stringIcNS4_11char_traitsIcEENS4_9allocatorIcEEEEEEPT_v(%"class.google::protobuf::internal::InternalMetadata"* %3) #11
  br label %33

33:                                               ; preds = %31, %27
  %34 = phi %"class.std::__1::basic_string"* [ %30, %27 ], [ %32, %31 ]
  %35 = bitcast %"class.std::__1::basic_string"* %34 to <2 x i64>*
  %36 = load <2 x i64>, <2 x i64>* %35, align 8
  %37 = getelementptr inbounds %"class.std::__1::basic_string", %"class.std::__1::basic_string"* %34, i64 0, i32 0, i32 0, i32 0, i32 0, i32 0, i32 2
  %38 = load i64, i64* %37, align 8
  %39 = bitcast %"class.std::__1::basic_string"* %34 to i8*
  %40 = bitcast %"class.std::__1::basic_string"* %24 to i8*
  tail call void @llvm.memcpy.p0i8.p0i8.i64(i8* align 8 %39, i8* align 8 %40, i64 24, i1 false) #11
  %41 = bitcast %"class.std::__1::basic_string"* %24 to <2 x i64>*
  store <2 x i64> %36, <2 x i64>* %41, align 8
  %42 = getelementptr inbounds %"class.std::__1::basic_string", %"class.std::__1::basic_string"* %24, i64 0, i32 0, i32 0, i32 0, i32 0, i32 0, i32 2
  store i64 %38, i64* %42, align 8
  br label %43

43:                                               ; preds = %2, %33
  %44 = getelementptr inbounds %"class.feedwire::webfeed::WebFeedMatcher_Criteria", %"class.feedwire::webfeed::WebFeedMatcher_Criteria"* %0, i64 0, i32 1
  %45 = getelementptr inbounds %"class.feedwire::webfeed::WebFeedMatcher_Criteria", %"class.feedwire::webfeed::WebFeedMatcher_Criteria"* %1, i64 0, i32 1
  %46 = load i32, i32* %44, align 4
  %47 = load i32, i32* %45, align 4
  store i32 %47, i32* %44, align 4
  store i32 %46, i32* %45, align 4
  %48 = getelementptr inbounds %"class.feedwire::webfeed::WebFeedMatcher_Criteria", %"class.feedwire::webfeed::WebFeedMatcher_Criteria"* %0, i64 0, i32 2
  %49 = getelementptr inbounds %"class.feedwire::webfeed::WebFeedMatcher_Criteria", %"class.feedwire::webfeed::WebFeedMatcher_Criteria"* %1, i64 0, i32 2
  %50 = bitcast %"union.feedwire::webfeed::WebFeedMatcher_Criteria::MatchUnion"* %48 to i64*
  %51 = load i64, i64* %50, align 8
  %52 = bitcast %"union.feedwire::webfeed::WebFeedMatcher_Criteria::MatchUnion"* %49 to i64*
  %53 = load i64, i64* %52, align 8
  store i64 %53, i64* %50, align 8
  store i64 %51, i64* %52, align 8
  %54 = getelementptr inbounds %"class.feedwire::webfeed::WebFeedMatcher_Criteria", %"class.feedwire::webfeed::WebFeedMatcher_Criteria"* %0, i64 0, i32 4, i64 0
  %55 = getelementptr inbounds %"class.feedwire::webfeed::WebFeedMatcher_Criteria", %"class.feedwire::webfeed::WebFeedMatcher_Criteria"* %1, i64 0, i32 4, i64 0
  %56 = load i32, i32* %54, align 4
  %57 = load i32, i32* %55, align 4
  store i32 %57, i32* %54, align 4
  store i32 %56, i32* %55, align 4
  ret void
}

; Function Attrs: nounwind ssp uwtable
define hidden void @_ZNK8feedwire7webfeed23WebFeedMatcher_Criteria11GetTypeNameEv(%"class.std::__1::basic_string"* noalias sret, %"class.feedwire::webfeed::WebFeedMatcher_Criteria"* nocapture readnone) unnamed_addr #0 align 2 {
  %3 = tail call i8* @_Znwm(i64 48) #12
  %4 = getelementptr inbounds %"class.std::__1::basic_string", %"class.std::__1::basic_string"* %0, i64 0, i32 0, i32 0, i32 0, i32 0, i32 0, i32 0
  store i8* %3, i8** %4, align 8
  %5 = getelementptr inbounds %"class.std::__1::basic_string", %"class.std::__1::basic_string"* %0, i64 0, i32 0, i32 0, i32 0, i32 0, i32 0, i32 1
  %6 = bitcast i64* %5 to <2 x i64>*
  store <2 x i64> <i64 40, i64 -9223372036854775760>, <2 x i64>* %6, align 8
  tail call void @llvm.memcpy.p0i8.p0i8.i64(i8* nonnull align 1 %3, i8* align 1 getelementptr inbounds ([41 x i8], [41 x i8]* @.str.5, i64 0, i64 0), i64 40, i1 false) #11
  %7 = getelementptr inbounds i8, i8* %3, i64 40
  store i8 0, i8* %7, align 1
  ret void
}

; Function Attrs: nounwind ssp uwtable
define hidden void @_ZN8feedwire7webfeed14WebFeedMatcherC2EPN6google8protobuf5ArenaE(%"class.feedwire::webfeed::WebFeedMatcher"* nocapture, %"class.google::protobuf::Arena"*) unnamed_addr #0 align 2 {
  %3 = getelementptr inbounds %"class.feedwire::webfeed::WebFeedMatcher", %"class.feedwire::webfeed::WebFeedMatcher"* %0, i64 0, i32 0, i32 0
  %4 = getelementptr inbounds %"class.feedwire::webfeed::WebFeedMatcher", %"class.feedwire::webfeed::WebFeedMatcher"* %0, i64 0, i32 0, i32 1
  %5 = bitcast %"class.google::protobuf::internal::InternalMetadata"* %4 to %"class.google::protobuf::Arena"**
  store %"class.google::protobuf::Arena"* %1, %"class.google::protobuf::Arena"** %5, align 8
  store i32 (...)** bitcast (i8** getelementptr inbounds ({ [16 x i8*] }, { [16 x i8*] }* @_ZTVN8feedwire7webfeed14WebFeedMatcherE, i64 0, inrange i32 0, i64 2) to i32 (...)**), i32 (...)*** %3, align 8
  %6 = getelementptr inbounds %"class.feedwire::webfeed::WebFeedMatcher", %"class.feedwire::webfeed::WebFeedMatcher"* %0, i64 0, i32 1, i32 0, i32 0
  store %"class.google::protobuf::Arena"* %1, %"class.google::protobuf::Arena"** %6, align 8
  %7 = getelementptr inbounds %"class.feedwire::webfeed::WebFeedMatcher", %"class.feedwire::webfeed::WebFeedMatcher"* %0, i64 0, i32 1, i32 0, i32 1
  %8 = bitcast i32* %7 to i8*
  call void @llvm.memset.p0i8.i64(i8* align 8 %8, i8 0, i64 20, i1 false)
  %9 = load atomic i32, i32* getelementptr inbounds ({ { { { i32 } }, i32, i32, void ()* }, [1 x i8*] }, { { { { i32 } }, i32, i32, void ()* }, [1 x i8*] }* @scc_info_WebFeedMatcher_components_2ffeed_2fcore_2fproto_2fv2_2fwire_2fweb_5ffeed_5fmatcher_2eproto, i64 0, i32 0, i32 0, i32 0, i32 0) acquire, align 8
  %10 = icmp eq i32 %9, 0
  br i1 %10, label %12, label %11, !prof !2

11:                                               ; preds = %2
  tail call void @_ZN6google8protobuf8internal11InitSCCImplEPNS1_11SCCInfoBaseE(%"struct.google::protobuf::internal::SCCInfoBase"* bitcast ({ { { { i32 } }, i32, i32, void ()* }, [1 x i8*] }* @scc_info_WebFeedMatcher_components_2ffeed_2fcore_2fproto_2fv2_2fwire_2fweb_5ffeed_5fmatcher_2eproto to %"struct.google::protobuf::internal::SCCInfoBase"*)) #11
  br label %12

12:                                               ; preds = %2, %11
  ret void
}

; Function Attrs: nounwind ssp uwtable
define hidden void @_ZN8feedwire7webfeed14WebFeedMatcherC2ERKS1_(%"class.feedwire::webfeed::WebFeedMatcher"*, %"class.feedwire::webfeed::WebFeedMatcher"* nocapture readonly dereferenceable(48)) unnamed_addr #0 align 2 {
  %3 = getelementptr inbounds %"class.feedwire::webfeed::WebFeedMatcher", %"class.feedwire::webfeed::WebFeedMatcher"* %0, i64 0, i32 0, i32 0
  %4 = getelementptr inbounds %"class.feedwire::webfeed::WebFeedMatcher", %"class.feedwire::webfeed::WebFeedMatcher"* %0, i64 0, i32 0, i32 1, i32 0
  store i8* null, i8** %4, align 8
  store i32 (...)** bitcast (i8** getelementptr inbounds ({ [16 x i8*] }, { [16 x i8*] }* @_ZTVN8feedwire7webfeed14WebFeedMatcherE, i64 0, inrange i32 0, i64 2) to i32 (...)**), i32 (...)*** %3, align 8
  %5 = getelementptr inbounds %"class.feedwire::webfeed::WebFeedMatcher", %"class.feedwire::webfeed::WebFeedMatcher"* %0, i64 0, i32 1
  %6 = bitcast %"class.google::protobuf::RepeatedPtrField"* %5 to i8*
  tail call void @llvm.memset.p0i8.i64(i8* align 8 %6, i8 0, i64 24, i1 false) #11
  %7 = getelementptr inbounds %"class.feedwire::webfeed::WebFeedMatcher", %"class.feedwire::webfeed::WebFeedMatcher"* %1, i64 0, i32 1, i32 0, i32 1
  %8 = load i32, i32* %7, align 8
  %9 = icmp eq i32 %8, 0
  br i1 %9, label %65, label %10

10:                                               ; preds = %2
  %11 = getelementptr inbounds %"class.google::protobuf::RepeatedPtrField", %"class.google::protobuf::RepeatedPtrField"* %5, i64 0, i32 0
  %12 = getelementptr inbounds %"class.feedwire::webfeed::WebFeedMatcher", %"class.feedwire::webfeed::WebFeedMatcher"* %1, i64 0, i32 1, i32 0, i32 3
  %13 = load %"struct.google::protobuf::internal::RepeatedPtrFieldBase::Rep"*, %"struct.google::protobuf::internal::RepeatedPtrFieldBase::Rep"** %12, align 8
  %14 = tail call i8** @_ZN6google8protobuf8internal20RepeatedPtrFieldBase14InternalExtendEi(%"class.google::protobuf::internal::RepeatedPtrFieldBase"* %11, i32 %8) #11
  %15 = getelementptr inbounds %"class.feedwire::webfeed::WebFeedMatcher", %"class.feedwire::webfeed::WebFeedMatcher"* %0, i64 0, i32 1, i32 0, i32 3
  %16 = load %"struct.google::protobuf::internal::RepeatedPtrFieldBase::Rep"*, %"struct.google::protobuf::internal::RepeatedPtrFieldBase::Rep"** %15, align 8
  %17 = getelementptr inbounds %"struct.google::protobuf::internal::RepeatedPtrFieldBase::Rep", %"struct.google::protobuf::internal::RepeatedPtrFieldBase::Rep"* %16, i64 0, i32 0
  %18 = load i32, i32* %17, align 8
  %19 = getelementptr inbounds %"class.feedwire::webfeed::WebFeedMatcher", %"class.feedwire::webfeed::WebFeedMatcher"* %0, i64 0, i32 1, i32 0, i32 1
  %20 = load i32, i32* %19, align 8
  %21 = sub i32 %18, %20
  %22 = icmp sgt i32 %21, 0
  %23 = icmp sgt i32 %8, 0
  %24 = and i1 %23, %22
  br i1 %24, label %25, label %28

25:                                               ; preds = %10
  %26 = sext i32 %8 to i64
  %27 = sext i32 %21 to i64
  br label %34

28:                                               ; preds = %34, %10
  %29 = getelementptr inbounds %"class.google::protobuf::RepeatedPtrField", %"class.google::protobuf::RepeatedPtrField"* %5, i64 0, i32 0, i32 0
  %30 = load %"class.google::protobuf::Arena"*, %"class.google::protobuf::Arena"** %29, align 8
  %31 = icmp slt i32 %21, %8
  br i1 %31, label %32, label %57

32:                                               ; preds = %28
  %33 = sext i32 %21 to i64
  br label %46

34:                                               ; preds = %34, %25
  %35 = phi i64 [ 0, %25 ], [ %42, %34 ]
  %36 = getelementptr inbounds %"struct.google::protobuf::internal::RepeatedPtrFieldBase::Rep", %"struct.google::protobuf::internal::RepeatedPtrFieldBase::Rep"* %13, i64 0, i32 1, i64 %35
  %37 = bitcast i8** %36 to %"class.feedwire::webfeed::WebFeedMatcher_Criteria"**
  %38 = load %"class.feedwire::webfeed::WebFeedMatcher_Criteria"*, %"class.feedwire::webfeed::WebFeedMatcher_Criteria"** %37, align 8
  %39 = getelementptr inbounds i8*, i8** %14, i64 %35
  %40 = bitcast i8** %39 to %"class.feedwire::webfeed::WebFeedMatcher_Criteria"**
  %41 = load %"class.feedwire::webfeed::WebFeedMatcher_Criteria"*, %"class.feedwire::webfeed::WebFeedMatcher_Criteria"** %40, align 8
  tail call void @_ZN6google8protobuf8internal18GenericTypeHandlerIN8feedwire7webfeed23WebFeedMatcher_CriteriaEE5MergeERKS5_PS5_(%"class.feedwire::webfeed::WebFeedMatcher_Criteria"* dereferenceable(40) %38, %"class.feedwire::webfeed::WebFeedMatcher_Criteria"* %41) #11
  %42 = add nuw nsw i64 %35, 1
  %43 = icmp slt i64 %42, %27
  %44 = icmp slt i64 %42, %26
  %45 = and i1 %43, %44
  br i1 %45, label %34, label %28

46:                                               ; preds = %46, %32
  %47 = phi i64 [ %33, %32 ], [ %54, %46 ]
  %48 = getelementptr inbounds %"struct.google::protobuf::internal::RepeatedPtrFieldBase::Rep", %"struct.google::protobuf::internal::RepeatedPtrFieldBase::Rep"* %13, i64 0, i32 1, i64 %47
  %49 = bitcast i8** %48 to %"class.feedwire::webfeed::WebFeedMatcher_Criteria"**
  %50 = load %"class.feedwire::webfeed::WebFeedMatcher_Criteria"*, %"class.feedwire::webfeed::WebFeedMatcher_Criteria"** %49, align 8
  %51 = tail call %"class.feedwire::webfeed::WebFeedMatcher_Criteria"* @_ZN6google8protobuf5Arena18CreateMaybeMessageIN8feedwire7webfeed23WebFeedMatcher_CriteriaEJEEEPT_PS1_DpOT0_(%"class.google::protobuf::Arena"* %30) #11
  tail call void @_ZN6google8protobuf8internal18GenericTypeHandlerIN8feedwire7webfeed23WebFeedMatcher_CriteriaEE5MergeERKS5_PS5_(%"class.feedwire::webfeed::WebFeedMatcher_Criteria"* dereferenceable(40) %50, %"class.feedwire::webfeed::WebFeedMatcher_Criteria"* %51) #11
  %52 = getelementptr inbounds i8*, i8** %14, i64 %47
  %53 = bitcast i8** %52 to %"class.feedwire::webfeed::WebFeedMatcher_Criteria"**
  store %"class.feedwire::webfeed::WebFeedMatcher_Criteria"* %51, %"class.feedwire::webfeed::WebFeedMatcher_Criteria"** %53, align 8
  %54 = add nsw i64 %47, 1
  %55 = trunc i64 %54 to i32
  %56 = icmp eq i32 %8, %55
  br i1 %56, label %57, label %46

57:                                               ; preds = %46, %28
  %58 = load i32, i32* %19, align 8
  %59 = add nsw i32 %58, %8
  store i32 %59, i32* %19, align 8
  %60 = load %"struct.google::protobuf::internal::RepeatedPtrFieldBase::Rep"*, %"struct.google::protobuf::internal::RepeatedPtrFieldBase::Rep"** %15, align 8
  %61 = getelementptr inbounds %"struct.google::protobuf::internal::RepeatedPtrFieldBase::Rep", %"struct.google::protobuf::internal::RepeatedPtrFieldBase::Rep"* %60, i64 0, i32 0
  %62 = load i32, i32* %61, align 8
  %63 = icmp slt i32 %62, %59
  br i1 %63, label %64, label %65

64:                                               ; preds = %57
  store i32 %59, i32* %61, align 8
  br label %65

65:                                               ; preds = %2, %57, %64
  %66 = getelementptr inbounds %"class.feedwire::webfeed::WebFeedMatcher", %"class.feedwire::webfeed::WebFeedMatcher"* %0, i64 0, i32 2, i32 0, i32 0, i32 0, i32 0, i32 0, i32 0
  store i32 0, i32* %66, align 4
  %67 = getelementptr inbounds %"class.feedwire::webfeed::WebFeedMatcher", %"class.feedwire::webfeed::WebFeedMatcher"* %0, i64 0, i32 0, i32 1
  %68 = getelementptr inbounds %"class.feedwire::webfeed::WebFeedMatcher", %"class.feedwire::webfeed::WebFeedMatcher"* %1, i64 0, i32 0, i32 1
  %69 = bitcast %"class.google::protobuf::internal::InternalMetadata"* %68 to i64*
  %70 = load i64, i64* %69, align 8
  %71 = and i64 %70, 1
  %72 = icmp eq i64 %71, 0
  br i1 %72, label %102, label %73

73:                                               ; preds = %65
  %74 = and i64 %70, -2
  %75 = inttoptr i64 %74 to %"struct.google::protobuf::internal::InternalMetadata::Container"*
  %76 = getelementptr inbounds %"struct.google::protobuf::internal::InternalMetadata::Container", %"struct.google::protobuf::internal::InternalMetadata::Container"* %75, i64 0, i32 1
  %77 = bitcast %"class.google::protobuf::internal::InternalMetadata"* %67 to i64*
  %78 = load i64, i64* %77, align 8
  %79 = and i64 %78, 1
  %80 = icmp eq i64 %79, 0
  br i1 %80, label %85, label %81, !prof !4

81:                                               ; preds = %73
  %82 = and i64 %78, -2
  %83 = inttoptr i64 %82 to %"struct.google::protobuf::internal::InternalMetadata::Container"*
  %84 = getelementptr inbounds %"struct.google::protobuf::internal::InternalMetadata::Container", %"struct.google::protobuf::internal::InternalMetadata::Container"* %83, i64 0, i32 1
  br label %87

85:                                               ; preds = %73
  %86 = tail call %"class.std::__1::basic_string"* @_ZN6google8protobuf8internal16InternalMetadata27mutable_unknown_fields_slowINSt3__112basic_stringIcNS4_11char_traitsIcEENS4_9allocatorIcEEEEEEPT_v(%"class.google::protobuf::internal::InternalMetadata"* %67) #11
  br label %87

87:                                               ; preds = %85, %81
  %88 = phi %"class.std::__1::basic_string"* [ %84, %81 ], [ %86, %85 ]
  %89 = bitcast %"class.std::__1::basic_string"* %76 to %"struct.std::__1::basic_string<char, std::__1::char_traits<char>, std::__1::allocator<char> >::__short"*
  %90 = getelementptr inbounds %"struct.std::__1::basic_string<char, std::__1::char_traits<char>, std::__1::allocator<char> >::__short", %"struct.std::__1::basic_string<char, std::__1::char_traits<char>, std::__1::allocator<char> >::__short"* %89, i64 0, i32 1, i32 0
  %91 = load i8, i8* %90, align 1
  %92 = icmp slt i8 %91, 0
  %93 = getelementptr inbounds %"class.std::__1::basic_string", %"class.std::__1::basic_string"* %76, i64 0, i32 0, i32 0, i32 0, i32 0, i32 0, i32 0
  %94 = load i8*, i8** %93, align 8
  %95 = getelementptr inbounds %"struct.google::protobuf::internal::InternalMetadata::Container", %"struct.google::protobuf::internal::InternalMetadata::Container"* %75, i64 0, i32 1, i32 0, i32 0, i32 0, i32 0, i32 0, i32 1
  %96 = load i64, i64* %95, align 8
  %97 = bitcast %"class.std::__1::basic_string"* %76 to i8*
  %98 = zext i8 %91 to i64
  %99 = select i1 %92, i8* %94, i8* %97
  %100 = select i1 %92, i64 %96, i64 %98
  %101 = tail call dereferenceable(24) %"class.std::__1::basic_string"* @_ZNSt3__112basic_stringIcNS_11char_traitsIcEENS_9allocatorIcEEE6appendEPKcm(%"class.std::__1::basic_string"* %88, i8* %99, i64 %100) #11
  br label %102

102:                                              ; preds = %65, %87
  ret void
}

; Function Attrs: nounwind ssp uwtable
define hidden void @_ZN8feedwire7webfeed14WebFeedMatcherD2Ev(%"class.feedwire::webfeed::WebFeedMatcher"* nocapture) unnamed_addr #0 align 2 {
  %2 = getelementptr inbounds %"class.feedwire::webfeed::WebFeedMatcher", %"class.feedwire::webfeed::WebFeedMatcher"* %0, i64 0, i32 0, i32 0
  store i32 (...)** bitcast (i8** getelementptr inbounds ({ [16 x i8*] }, { [16 x i8*] }* @_ZTVN8feedwire7webfeed14WebFeedMatcherE, i64 0, inrange i32 0, i64 2) to i32 (...)**), i32 (...)*** %2, align 8
  %3 = getelementptr inbounds %"class.feedwire::webfeed::WebFeedMatcher", %"class.feedwire::webfeed::WebFeedMatcher"* %0, i64 0, i32 0, i32 1
  %4 = bitcast %"class.google::protobuf::internal::InternalMetadata"* %3 to i64*
  %5 = load i64, i64* %4, align 8
  %6 = and i64 %5, 1
  %7 = icmp eq i64 %6, 0
  br i1 %7, label %28, label %8

8:                                                ; preds = %1
  %9 = and i64 %5, -2
  %10 = inttoptr i64 %9 to %"struct.google::protobuf::internal::InternalMetadata::ContainerBase"*
  %11 = getelementptr inbounds %"struct.google::protobuf::internal::InternalMetadata::ContainerBase", %"struct.google::protobuf::internal::InternalMetadata::ContainerBase"* %10, i64 0, i32 0
  %12 = load %"class.google::protobuf::Arena"*, %"class.google::protobuf::Arena"** %11, align 8
  %13 = icmp ne %"class.google::protobuf::Arena"* %12, null
  %14 = icmp eq i64 %9, 0
  %15 = or i1 %14, %13
  br i1 %15, label %28, label %16

16:                                               ; preds = %8
  %17 = inttoptr i64 %9 to %"struct.google::protobuf::internal::InternalMetadata::Container"*
  %18 = getelementptr inbounds %"struct.google::protobuf::internal::InternalMetadata::Container", %"struct.google::protobuf::internal::InternalMetadata::Container"* %17, i64 0, i32 1
  %19 = bitcast %"class.std::__1::basic_string"* %18 to %"struct.std::__1::basic_string<char, std::__1::char_traits<char>, std::__1::allocator<char> >::__short"*
  %20 = getelementptr inbounds %"struct.std::__1::basic_string<char, std::__1::char_traits<char>, std::__1::allocator<char> >::__short", %"struct.std::__1::basic_string<char, std::__1::char_traits<char>, std::__1::allocator<char> >::__short"* %19, i64 0, i32 1, i32 0
  %21 = load i8, i8* %20, align 1
  %22 = icmp slt i8 %21, 0
  br i1 %22, label %23, label %26

23:                                               ; preds = %16
  %24 = getelementptr inbounds %"class.std::__1::basic_string", %"class.std::__1::basic_string"* %18, i64 0, i32 0, i32 0, i32 0, i32 0, i32 0, i32 0
  %25 = load i8*, i8** %24, align 8
  tail call void @_ZdlPv(i8* %25) #12
  br label %26

26:                                               ; preds = %23, %16
  %27 = inttoptr i64 %9 to i8*
  tail call void @_ZdlPv(i8* %27) #12
  br label %28

28:                                               ; preds = %1, %8, %26
  %29 = getelementptr inbounds %"class.feedwire::webfeed::WebFeedMatcher", %"class.feedwire::webfeed::WebFeedMatcher"* %0, i64 0, i32 1, i32 0, i32 3
  %30 = load %"struct.google::protobuf::internal::RepeatedPtrFieldBase::Rep"*, %"struct.google::protobuf::internal::RepeatedPtrFieldBase::Rep"** %29, align 8
  %31 = icmp eq %"struct.google::protobuf::internal::RepeatedPtrFieldBase::Rep"* %30, null
  %32 = bitcast %"struct.google::protobuf::internal::RepeatedPtrFieldBase::Rep"* %30 to i8*
  br i1 %31, label %62, label %33

33:                                               ; preds = %28
  %34 = getelementptr inbounds %"class.feedwire::webfeed::WebFeedMatcher", %"class.feedwire::webfeed::WebFeedMatcher"* %0, i64 0, i32 1, i32 0, i32 0
  %35 = load %"class.google::protobuf::Arena"*, %"class.google::protobuf::Arena"** %34, align 8
  %36 = icmp eq %"class.google::protobuf::Arena"* %35, null
  br i1 %36, label %37, label %62

37:                                               ; preds = %33
  %38 = getelementptr inbounds %"struct.google::protobuf::internal::RepeatedPtrFieldBase::Rep", %"struct.google::protobuf::internal::RepeatedPtrFieldBase::Rep"* %30, i64 0, i32 0
  %39 = load i32, i32* %38, align 8
  %40 = icmp sgt i32 %39, 0
  br i1 %40, label %41, label %46

41:                                               ; preds = %37
  %42 = zext i32 %39 to i64
  br label %48

43:                                               ; preds = %59
  %44 = bitcast %"struct.google::protobuf::internal::RepeatedPtrFieldBase::Rep"** %29 to i8**
  %45 = load i8*, i8** %44, align 8
  br label %46

46:                                               ; preds = %43, %37
  %47 = phi i8* [ %45, %43 ], [ %32, %37 ]
  tail call void @_ZdlPv(i8* %47) #11
  br label %62

48:                                               ; preds = %59, %41
  %49 = phi i64 [ 0, %41 ], [ %60, %59 ]
  %50 = getelementptr inbounds %"struct.google::protobuf::internal::RepeatedPtrFieldBase::Rep", %"struct.google::protobuf::internal::RepeatedPtrFieldBase::Rep"* %30, i64 0, i32 1, i64 %49
  %51 = bitcast i8** %50 to %"class.feedwire::webfeed::WebFeedMatcher_Criteria"**
  %52 = load %"class.feedwire::webfeed::WebFeedMatcher_Criteria"*, %"class.feedwire::webfeed::WebFeedMatcher_Criteria"** %51, align 8
  %53 = icmp eq %"class.feedwire::webfeed::WebFeedMatcher_Criteria"* %52, null
  br i1 %53, label %59, label %54

54:                                               ; preds = %48
  %55 = bitcast %"class.feedwire::webfeed::WebFeedMatcher_Criteria"* %52 to void (%"class.feedwire::webfeed::WebFeedMatcher_Criteria"*)***
  %56 = load void (%"class.feedwire::webfeed::WebFeedMatcher_Criteria"*)**, void (%"class.feedwire::webfeed::WebFeedMatcher_Criteria"*)*** %55, align 8
  %57 = getelementptr inbounds void (%"class.feedwire::webfeed::WebFeedMatcher_Criteria"*)*, void (%"class.feedwire::webfeed::WebFeedMatcher_Criteria"*)** %56, i64 1
  %58 = load void (%"class.feedwire::webfeed::WebFeedMatcher_Criteria"*)*, void (%"class.feedwire::webfeed::WebFeedMatcher_Criteria"*)** %57, align 8
  tail call void %58(%"class.feedwire::webfeed::WebFeedMatcher_Criteria"* nonnull %52) #11
  br label %59

59:                                               ; preds = %54, %48
  %60 = add nuw nsw i64 %49, 1
  %61 = icmp eq i64 %60, %42
  br i1 %61, label %43, label %48

62:                                               ; preds = %28, %33, %46
  store %"struct.google::protobuf::internal::RepeatedPtrFieldBase::Rep"* null, %"struct.google::protobuf::internal::RepeatedPtrFieldBase::Rep"** %29, align 8
  ret void
}

; Function Attrs: nounwind ssp uwtable
define hidden void @_ZN8feedwire7webfeed14WebFeedMatcherD0Ev(%"class.feedwire::webfeed::WebFeedMatcher"*) unnamed_addr #0 align 2 {
  tail call void @_ZN8feedwire7webfeed14WebFeedMatcherD2Ev(%"class.feedwire::webfeed::WebFeedMatcher"* %0) #11
  %2 = bitcast %"class.feedwire::webfeed::WebFeedMatcher"* %0 to i8*
  tail call void @_ZdlPv(i8* %2) #12
  ret void
}

; Function Attrs: norecurse nounwind readnone ssp uwtable
define hidden void @_ZN8feedwire7webfeed14WebFeedMatcher9ArenaDtorEPv(i8* nocapture) local_unnamed_addr #1 align 2 {
  ret void
}

; Function Attrs: nofree norecurse nounwind ssp uwtable
define hidden void @_ZNK8feedwire7webfeed14WebFeedMatcher13SetCachedSizeEi(%"class.feedwire::webfeed::WebFeedMatcher"* nocapture, i32) local_unnamed_addr #6 align 2 {
  %3 = getelementptr inbounds %"class.feedwire::webfeed::WebFeedMatcher", %"class.feedwire::webfeed::WebFeedMatcher"* %0, i64 0, i32 2, i32 0, i32 0, i32 0, i32 0, i32 0, i32 0
  store atomic i32 %1, i32* %3 monotonic, align 4
  ret void
}

; Function Attrs: nounwind ssp uwtable
define hidden dereferenceable(48) %"class.feedwire::webfeed::WebFeedMatcher"* @_ZN8feedwire7webfeed14WebFeedMatcher16default_instanceEv() local_unnamed_addr #0 align 2 {
  %1 = load atomic i32, i32* getelementptr inbounds ({ { { { i32 } }, i32, i32, void ()* }, [1 x i8*] }, { { { { i32 } }, i32, i32, void ()* }, [1 x i8*] }* @scc_info_WebFeedMatcher_components_2ffeed_2fcore_2fproto_2fv2_2fwire_2fweb_5ffeed_5fmatcher_2eproto, i64 0, i32 0, i32 0, i32 0, i32 0) acquire, align 8
  %2 = icmp eq i32 %1, 0
  br i1 %2, label %4, label %3, !prof !2

3:                                                ; preds = %0
  tail call void @_ZN6google8protobuf8internal11InitSCCImplEPNS1_11SCCInfoBaseE(%"struct.google::protobuf::internal::SCCInfoBase"* bitcast ({ { { { i32 } }, i32, i32, void ()* }, [1 x i8*] }* @scc_info_WebFeedMatcher_components_2ffeed_2fcore_2fproto_2fv2_2fwire_2fweb_5ffeed_5fmatcher_2eproto to %"struct.google::protobuf::internal::SCCInfoBase"*)) #11
  br label %4

4:                                                ; preds = %0, %3
  ret %"class.feedwire::webfeed::WebFeedMatcher"* bitcast (%"class.feedwire::webfeed::WebFeedMatcherDefaultTypeInternal"* @_ZN8feedwire7webfeed33_WebFeedMatcher_default_instance_E to %"class.feedwire::webfeed::WebFeedMatcher"*)
}

; Function Attrs: nounwind ssp uwtable
define hidden void @_ZN8feedwire7webfeed14WebFeedMatcher5ClearEv(%"class.feedwire::webfeed::WebFeedMatcher"* nocapture) unnamed_addr #0 align 2 {
  %2 = getelementptr inbounds %"class.feedwire::webfeed::WebFeedMatcher", %"class.feedwire::webfeed::WebFeedMatcher"* %0, i64 0, i32 1, i32 0, i32 1
  %3 = load i32, i32* %2, align 8
  %4 = icmp sgt i32 %3, 0
  br i1 %4, label %5, label %38

5:                                                ; preds = %1
  %6 = getelementptr inbounds %"class.feedwire::webfeed::WebFeedMatcher", %"class.feedwire::webfeed::WebFeedMatcher"* %0, i64 0, i32 1, i32 0, i32 3
  %7 = load %"struct.google::protobuf::internal::RepeatedPtrFieldBase::Rep"*, %"struct.google::protobuf::internal::RepeatedPtrFieldBase::Rep"** %6, align 8
  %8 = zext i32 %3 to i64
  br label %9

9:                                                ; preds = %35, %5
  %10 = phi i64 [ %11, %35 ], [ 0, %5 ]
  %11 = add nuw nsw i64 %10, 1
  %12 = getelementptr inbounds %"struct.google::protobuf::internal::RepeatedPtrFieldBase::Rep", %"struct.google::protobuf::internal::RepeatedPtrFieldBase::Rep"* %7, i64 0, i32 1, i64 %10
  %13 = bitcast i8** %12 to %"class.feedwire::webfeed::WebFeedMatcher_Criteria"**
  %14 = load %"class.feedwire::webfeed::WebFeedMatcher_Criteria"*, %"class.feedwire::webfeed::WebFeedMatcher_Criteria"** %13, align 8
  %15 = getelementptr inbounds %"class.feedwire::webfeed::WebFeedMatcher_Criteria", %"class.feedwire::webfeed::WebFeedMatcher_Criteria"* %14, i64 0, i32 1
  store i32 0, i32* %15, align 8
  tail call void @_ZN8feedwire7webfeed23WebFeedMatcher_Criteria11clear_matchEv(%"class.feedwire::webfeed::WebFeedMatcher_Criteria"* %14) #11
  %16 = getelementptr inbounds %"class.feedwire::webfeed::WebFeedMatcher_Criteria", %"class.feedwire::webfeed::WebFeedMatcher_Criteria"* %14, i64 0, i32 0, i32 1
  %17 = bitcast %"class.google::protobuf::internal::InternalMetadata"* %16 to i64*
  %18 = load i64, i64* %17, align 8
  %19 = and i64 %18, 1
  %20 = icmp eq i64 %19, 0
  br i1 %20, label %35, label %21

21:                                               ; preds = %9
  %22 = and i64 %18, -2
  %23 = inttoptr i64 %22 to %"struct.google::protobuf::internal::InternalMetadata::Container"*
  %24 = getelementptr inbounds %"struct.google::protobuf::internal::InternalMetadata::Container", %"struct.google::protobuf::internal::InternalMetadata::Container"* %23, i64 0, i32 1
  %25 = bitcast %"class.std::__1::basic_string"* %24 to %"struct.std::__1::basic_string<char, std::__1::char_traits<char>, std::__1::allocator<char> >::__short"*
  %26 = getelementptr inbounds %"struct.std::__1::basic_string<char, std::__1::char_traits<char>, std::__1::allocator<char> >::__short", %"struct.std::__1::basic_string<char, std::__1::char_traits<char>, std::__1::allocator<char> >::__short"* %25, i64 0, i32 1, i32 0
  %27 = load i8, i8* %26, align 1
  %28 = icmp slt i8 %27, 0
  br i1 %28, label %29, label %33

29:                                               ; preds = %21
  %30 = getelementptr inbounds %"class.std::__1::basic_string", %"class.std::__1::basic_string"* %24, i64 0, i32 0, i32 0, i32 0, i32 0, i32 0, i32 0
  %31 = load i8*, i8** %30, align 8
  store i8 0, i8* %31, align 1
  %32 = getelementptr inbounds %"struct.google::protobuf::internal::InternalMetadata::Container", %"struct.google::protobuf::internal::InternalMetadata::Container"* %23, i64 0, i32 1, i32 0, i32 0, i32 0, i32 0, i32 0, i32 1
  store i64 0, i64* %32, align 8
  br label %35

33:                                               ; preds = %21
  %34 = bitcast %"class.std::__1::basic_string"* %24 to i8*
  store i8 0, i8* %34, align 2
  store i8 0, i8* %26, align 1
  br label %35

35:                                               ; preds = %33, %29, %9
  %36 = icmp eq i64 %11, %8
  br i1 %36, label %37, label %9

37:                                               ; preds = %35
  store i32 0, i32* %2, align 8
  br label %38

38:                                               ; preds = %1, %37
  %39 = getelementptr inbounds %"class.feedwire::webfeed::WebFeedMatcher", %"class.feedwire::webfeed::WebFeedMatcher"* %0, i64 0, i32 0, i32 1
  %40 = bitcast %"class.google::protobuf::internal::InternalMetadata"* %39 to i64*
  %41 = load i64, i64* %40, align 8
  %42 = and i64 %41, 1
  %43 = icmp eq i64 %42, 0
  br i1 %43, label %58, label %44

44:                                               ; preds = %38
  %45 = and i64 %41, -2
  %46 = inttoptr i64 %45 to %"struct.google::protobuf::internal::InternalMetadata::Container"*
  %47 = getelementptr inbounds %"struct.google::protobuf::internal::InternalMetadata::Container", %"struct.google::protobuf::internal::InternalMetadata::Container"* %46, i64 0, i32 1
  %48 = bitcast %"class.std::__1::basic_string"* %47 to %"struct.std::__1::basic_string<char, std::__1::char_traits<char>, std::__1::allocator<char> >::__short"*
  %49 = getelementptr inbounds %"struct.std::__1::basic_string<char, std::__1::char_traits<char>, std::__1::allocator<char> >::__short", %"struct.std::__1::basic_string<char, std::__1::char_traits<char>, std::__1::allocator<char> >::__short"* %48, i64 0, i32 1, i32 0
  %50 = load i8, i8* %49, align 1
  %51 = icmp slt i8 %50, 0
  br i1 %51, label %52, label %56

52:                                               ; preds = %44
  %53 = getelementptr inbounds %"class.std::__1::basic_string", %"class.std::__1::basic_string"* %47, i64 0, i32 0, i32 0, i32 0, i32 0, i32 0, i32 0
  %54 = load i8*, i8** %53, align 8
  store i8 0, i8* %54, align 1
  %55 = getelementptr inbounds %"struct.google::protobuf::internal::InternalMetadata::Container", %"struct.google::protobuf::internal::InternalMetadata::Container"* %46, i64 0, i32 1, i32 0, i32 0, i32 0, i32 0, i32 0, i32 1
  store i64 0, i64* %55, align 8
  br label %58

56:                                               ; preds = %44
  %57 = bitcast %"class.std::__1::basic_string"* %47 to i8*
  store i8 0, i8* %57, align 2
  store i8 0, i8* %49, align 1
  br label %58

58:                                               ; preds = %38, %52, %56
  ret void
}

; Function Attrs: nounwind ssp uwtable
define hidden i8* @_ZN8feedwire7webfeed14WebFeedMatcher14_InternalParseEPKcPN6google8protobuf8internal12ParseContextE(%"class.feedwire::webfeed::WebFeedMatcher"*, i8*, %"class.google::protobuf::internal::ParseContext"*) unnamed_addr #0 align 2 {
  %4 = getelementptr inbounds %"class.google::protobuf::internal::ParseContext", %"class.google::protobuf::internal::ParseContext"* %2, i64 0, i32 0
  %5 = getelementptr inbounds %"class.google::protobuf::internal::ParseContext", %"class.google::protobuf::internal::ParseContext"* %2, i64 0, i32 2
  %6 = getelementptr inbounds %"class.google::protobuf::internal::ParseContext", %"class.google::protobuf::internal::ParseContext"* %2, i64 0, i32 0, i32 0
  %7 = getelementptr inbounds %"class.google::protobuf::internal::ParseContext", %"class.google::protobuf::internal::ParseContext"* %2, i64 0, i32 0, i32 1
  %8 = bitcast i8** %7 to i64*
  %9 = getelementptr inbounds %"class.google::protobuf::internal::ParseContext", %"class.google::protobuf::internal::ParseContext"* %2, i64 0, i32 0, i32 4
  %10 = getelementptr inbounds %"class.feedwire::webfeed::WebFeedMatcher", %"class.feedwire::webfeed::WebFeedMatcher"* %0, i64 0, i32 0, i32 1
  %11 = bitcast %"class.google::protobuf::internal::InternalMetadata"* %10 to i64*
  %12 = getelementptr inbounds %"class.feedwire::webfeed::WebFeedMatcher", %"class.feedwire::webfeed::WebFeedMatcher"* %0, i64 0, i32 1
  %13 = getelementptr inbounds %"class.google::protobuf::RepeatedPtrField", %"class.google::protobuf::RepeatedPtrField"* %12, i64 0, i32 0
  %14 = getelementptr inbounds %"class.feedwire::webfeed::WebFeedMatcher", %"class.feedwire::webfeed::WebFeedMatcher"* %0, i64 0, i32 1, i32 0, i32 3
  %15 = getelementptr inbounds %"class.feedwire::webfeed::WebFeedMatcher", %"class.feedwire::webfeed::WebFeedMatcher"* %0, i64 0, i32 1, i32 0, i32 1
  %16 = getelementptr inbounds %"class.feedwire::webfeed::WebFeedMatcher", %"class.feedwire::webfeed::WebFeedMatcher"* %0, i64 0, i32 1, i32 0, i32 2
  %17 = getelementptr inbounds %"class.google::protobuf::RepeatedPtrField", %"class.google::protobuf::RepeatedPtrField"* %12, i64 0, i32 0, i32 0
  br label %18

18:                                               ; preds = %135, %3
  %19 = phi i8* [ %1, %3 ], [ %136, %135 ]
  %20 = load i32, i32* %5, align 4
  %21 = load i8*, i8** %6, align 8
  %22 = icmp ult i8* %19, %21
  br i1 %22, label %36, label %23, !prof !2

23:                                               ; preds = %18
  %24 = load i64, i64* %8, align 8
  %25 = ptrtoint i8* %19 to i64
  %26 = sub i64 %25, %24
  %27 = load i32, i32* %9, align 4
  %28 = sext i32 %27 to i64
  %29 = icmp eq i64 %26, %28
  br i1 %29, label %137, label %30

30:                                               ; preds = %23
  %31 = tail call { i8*, i8 } @_ZN6google8protobuf8internal18EpsCopyInputStream12DoneFallbackEPKci(%"class.google::protobuf::internal::EpsCopyInputStream"* %4, i8* %19, i32 %20) #11
  %32 = extractvalue { i8*, i8 } %31, 0
  %33 = extractvalue { i8*, i8 } %31, 1
  %34 = and i8 %33, 1
  %35 = icmp eq i8 %34, 0
  br i1 %35, label %36, label %137

36:                                               ; preds = %30, %18
  %37 = phi i8* [ %32, %30 ], [ %19, %18 ]
  %38 = load i8, i8* %37, align 1
  %39 = zext i8 %38 to i32
  %40 = icmp sgt i8 %38, -1
  %41 = getelementptr inbounds i8, i8* %37, i64 1
  br i1 %40, label %55, label %42

42:                                               ; preds = %36
  %43 = load i8, i8* %41, align 1
  %44 = zext i8 %43 to i32
  %45 = shl nuw nsw i32 %44, 7
  %46 = add nsw i32 %39, -128
  %47 = add nsw i32 %46, %45
  %48 = icmp sgt i8 %43, -1
  br i1 %48, label %49, label %51

49:                                               ; preds = %42
  %50 = getelementptr inbounds i8, i8* %37, i64 2
  br label %55

51:                                               ; preds = %42
  %52 = tail call { i8*, i32 } @_ZN6google8protobuf8internal15ReadTagFallbackEPKcj(i8* %37, i32 %47) #11
  %53 = extractvalue { i8*, i32 } %52, 0
  %54 = extractvalue { i8*, i32 } %52, 1
  br label %55

55:                                               ; preds = %36, %49, %51
  %56 = phi i32 [ %47, %49 ], [ %54, %51 ], [ %39, %36 ]
  %57 = phi i8* [ %50, %49 ], [ %53, %51 ], [ %41, %36 ]
  %58 = icmp eq i8* %57, null
  br i1 %58, label %137, label %59, !prof !4

59:                                               ; preds = %55
  %60 = icmp eq i32 %56, 10
  br i1 %60, label %61, label %113, !prof !7

61:                                               ; preds = %59
  %62 = getelementptr inbounds i8, i8* %57, i64 -1
  br label %63

63:                                               ; preds = %110, %61
  %64 = phi i8* [ %62, %61 ], [ %105, %110 ]
  %65 = getelementptr inbounds i8, i8* %64, i64 1
  %66 = load %"struct.google::protobuf::internal::RepeatedPtrFieldBase::Rep"*, %"struct.google::protobuf::internal::RepeatedPtrFieldBase::Rep"** %14, align 8
  %67 = icmp eq %"struct.google::protobuf::internal::RepeatedPtrFieldBase::Rep"* %66, null
  br i1 %67, label %68, label %70

68:                                               ; preds = %63
  %69 = load i32, i32* %16, align 4
  br label %84

70:                                               ; preds = %63
  %71 = load i32, i32* %15, align 8
  %72 = getelementptr inbounds %"struct.google::protobuf::internal::RepeatedPtrFieldBase::Rep", %"struct.google::protobuf::internal::RepeatedPtrFieldBase::Rep"* %66, i64 0, i32 0
  %73 = load i32, i32* %72, align 8
  %74 = icmp slt i32 %71, %73
  br i1 %74, label %75, label %81

75:                                               ; preds = %70
  %76 = add nsw i32 %71, 1
  store i32 %76, i32* %15, align 8
  %77 = sext i32 %71 to i64
  %78 = getelementptr inbounds %"struct.google::protobuf::internal::RepeatedPtrFieldBase::Rep", %"struct.google::protobuf::internal::RepeatedPtrFieldBase::Rep"* %66, i64 0, i32 1, i64 %77
  %79 = bitcast i8** %78 to %"class.feedwire::webfeed::WebFeedMatcher_Criteria"**
  %80 = load %"class.feedwire::webfeed::WebFeedMatcher_Criteria"*, %"class.feedwire::webfeed::WebFeedMatcher_Criteria"** %79, align 8
  br label %103

81:                                               ; preds = %70
  %82 = load i32, i32* %16, align 4
  %83 = icmp eq i32 %73, %82
  br i1 %83, label %84, label %90

84:                                               ; preds = %81, %68
  %85 = phi i32 [ %69, %68 ], [ %73, %81 ]
  %86 = add nsw i32 %85, 1
  tail call void @_ZN6google8protobuf8internal20RepeatedPtrFieldBase7ReserveEi(%"class.google::protobuf::internal::RepeatedPtrFieldBase"* %13, i32 %86) #11
  %87 = load %"struct.google::protobuf::internal::RepeatedPtrFieldBase::Rep"*, %"struct.google::protobuf::internal::RepeatedPtrFieldBase::Rep"** %14, align 8
  %88 = getelementptr inbounds %"struct.google::protobuf::internal::RepeatedPtrFieldBase::Rep", %"struct.google::protobuf::internal::RepeatedPtrFieldBase::Rep"* %87, i64 0, i32 0
  %89 = load i32, i32* %88, align 8
  br label %90

90:                                               ; preds = %84, %81
  %91 = phi i32 [ %89, %84 ], [ %73, %81 ]
  %92 = phi %"struct.google::protobuf::internal::RepeatedPtrFieldBase::Rep"* [ %87, %84 ], [ %66, %81 ]
  %93 = getelementptr inbounds %"struct.google::protobuf::internal::RepeatedPtrFieldBase::Rep", %"struct.google::protobuf::internal::RepeatedPtrFieldBase::Rep"* %92, i64 0, i32 0
  %94 = add nsw i32 %91, 1
  store i32 %94, i32* %93, align 8
  %95 = load %"class.google::protobuf::Arena"*, %"class.google::protobuf::Arena"** %17, align 8
  %96 = tail call %"class.feedwire::webfeed::WebFeedMatcher_Criteria"* @_ZN6google8protobuf5Arena18CreateMaybeMessageIN8feedwire7webfeed23WebFeedMatcher_CriteriaEJEEEPT_PS1_DpOT0_(%"class.google::protobuf::Arena"* %95) #11
  %97 = load %"struct.google::protobuf::internal::RepeatedPtrFieldBase::Rep"*, %"struct.google::protobuf::internal::RepeatedPtrFieldBase::Rep"** %14, align 8
  %98 = load i32, i32* %15, align 8
  %99 = add nsw i32 %98, 1
  store i32 %99, i32* %15, align 8
  %100 = sext i32 %98 to i64
  %101 = getelementptr inbounds %"struct.google::protobuf::internal::RepeatedPtrFieldBase::Rep", %"struct.google::protobuf::internal::RepeatedPtrFieldBase::Rep"* %97, i64 0, i32 1, i64 %100
  %102 = bitcast i8** %101 to %"class.feedwire::webfeed::WebFeedMatcher_Criteria"**
  store %"class.feedwire::webfeed::WebFeedMatcher_Criteria"* %96, %"class.feedwire::webfeed::WebFeedMatcher_Criteria"** %102, align 8
  br label %103

103:                                              ; preds = %75, %90
  %104 = phi %"class.feedwire::webfeed::WebFeedMatcher_Criteria"* [ %80, %75 ], [ %96, %90 ]
  %105 = tail call i8* @_ZN6google8protobuf8internal12ParseContext12ParseMessageIN8feedwire7webfeed23WebFeedMatcher_CriteriaEEEPKcPT_S8_(%"class.google::protobuf::internal::ParseContext"* %2, %"class.feedwire::webfeed::WebFeedMatcher_Criteria"* %104, i8* %65)
  %106 = icmp eq i8* %105, null
  br i1 %106, label %137, label %107, !prof !4

107:                                              ; preds = %103
  %108 = load i8*, i8** %6, align 8
  %109 = icmp ugt i8* %108, %105
  br i1 %109, label %110, label %135

110:                                              ; preds = %107
  %111 = load i8, i8* %105, align 1
  %112 = icmp eq i8 %111, 10
  br i1 %112, label %63, label %135

113:                                              ; preds = %59
  %114 = and i32 %56, 7
  %115 = icmp eq i32 %114, 4
  %116 = icmp eq i32 %56, 0
  %117 = or i1 %116, %115
  br i1 %117, label %118, label %121

118:                                              ; preds = %113
  %119 = add i32 %56, -1
  %120 = getelementptr inbounds %"class.google::protobuf::internal::ParseContext", %"class.google::protobuf::internal::ParseContext"* %2, i64 0, i32 0, i32 8
  store i32 %119, i32* %120, align 8
  br label %137

121:                                              ; preds = %113
  %122 = load i64, i64* %11, align 8
  %123 = and i64 %122, 1
  %124 = icmp eq i64 %123, 0
  br i1 %124, label %129, label %125, !prof !4

125:                                              ; preds = %121
  %126 = and i64 %122, -2
  %127 = inttoptr i64 %126 to %"struct.google::protobuf::internal::InternalMetadata::Container"*
  %128 = getelementptr inbounds %"struct.google::protobuf::internal::InternalMetadata::Container", %"struct.google::protobuf::internal::InternalMetadata::Container"* %127, i64 0, i32 1
  br label %131

129:                                              ; preds = %121
  %130 = tail call %"class.std::__1::basic_string"* @_ZN6google8protobuf8internal16InternalMetadata27mutable_unknown_fields_slowINSt3__112basic_stringIcNS4_11char_traitsIcEENS4_9allocatorIcEEEEEEPT_v(%"class.google::protobuf::internal::InternalMetadata"* %10) #11
  br label %131

131:                                              ; preds = %125, %129
  %132 = phi %"class.std::__1::basic_string"* [ %128, %125 ], [ %130, %129 ]
  %133 = tail call i8* @_ZN6google8protobuf8internal17UnknownFieldParseEjPNSt3__112basic_stringIcNS2_11char_traitsIcEENS2_9allocatorIcEEEEPKcPNS1_12ParseContextE(i32 %56, %"class.std::__1::basic_string"* %132, i8* nonnull %57, %"class.google::protobuf::internal::ParseContext"* %2) #11
  %134 = icmp eq i8* %133, null
  br i1 %134, label %137, label %135

135:                                              ; preds = %110, %107, %131
  %136 = phi i8* [ %133, %131 ], [ %105, %107 ], [ %105, %110 ]
  br label %18

137:                                              ; preds = %30, %131, %23, %55, %103, %118
  %138 = phi i8* [ %57, %118 ], [ null, %103 ], [ null, %131 ], [ %19, %23 ], [ null, %55 ], [ %32, %30 ]
  ret i8* %138
}

; Function Attrs: nounwind ssp uwtable
define linkonce_odr hidden i8* @_ZN6google8protobuf8internal12ParseContext12ParseMessageIN8feedwire7webfeed23WebFeedMatcher_CriteriaEEEPKcPT_S8_(%"class.google::protobuf::internal::ParseContext"*, %"class.feedwire::webfeed::WebFeedMatcher_Criteria"*, i8*) local_unnamed_addr #0 comdat align 2 {
  %4 = load i8, i8* %2, align 1
  %5 = zext i8 %4 to i32
  %6 = icmp sgt i8 %4, -1
  br i1 %6, label %7, label %9

7:                                                ; preds = %3
  %8 = getelementptr inbounds i8, i8* %2, i64 1
  br label %13

9:                                                ; preds = %3
  %10 = tail call { i8*, i32 } @_ZN6google8protobuf8internal16ReadSizeFallbackEPKcj(i8* %2, i32 %5) #11
  %11 = extractvalue { i8*, i32 } %10, 0
  %12 = extractvalue { i8*, i32 } %10, 1
  br label %13

13:                                               ; preds = %7, %9
  %14 = phi i8* [ %11, %9 ], [ %8, %7 ]
  %15 = phi i32 [ %12, %9 ], [ %5, %7 ]
  %16 = icmp eq i8* %14, null
  br i1 %16, label %55, label %17

17:                                               ; preds = %13
  %18 = getelementptr inbounds %"class.google::protobuf::internal::ParseContext", %"class.google::protobuf::internal::ParseContext"* %0, i64 0, i32 0, i32 1
  %19 = bitcast i8** %18 to i64*
  %20 = load i64, i64* %19, align 8
  %21 = ptrtoint i8* %14 to i64
  %22 = sub i64 %21, %20
  %23 = trunc i64 %22 to i32
  %24 = add nsw i32 %15, %23
  %25 = inttoptr i64 %20 to i8*
  %26 = icmp slt i32 %24, 0
  %27 = select i1 %26, i32 %24, i32 0
  %28 = sext i32 %27 to i64
  %29 = getelementptr inbounds i8, i8* %25, i64 %28
  %30 = getelementptr inbounds %"class.google::protobuf::internal::ParseContext", %"class.google::protobuf::internal::ParseContext"* %0, i64 0, i32 0, i32 0
  store i8* %29, i8** %30, align 8
  %31 = getelementptr inbounds %"class.google::protobuf::internal::ParseContext", %"class.google::protobuf::internal::ParseContext"* %0, i64 0, i32 0, i32 4
  %32 = load i32, i32* %31, align 4
  store i32 %24, i32* %31, align 4
  %33 = sub nsw i32 %32, %24
  %34 = getelementptr inbounds %"class.google::protobuf::internal::ParseContext", %"class.google::protobuf::internal::ParseContext"* %0, i64 0, i32 1
  %35 = load i32, i32* %34, align 8
  %36 = add nsw i32 %35, -1
  store i32 %36, i32* %34, align 8
  %37 = icmp slt i32 %35, 1
  br i1 %37, label %55, label %38

38:                                               ; preds = %17
  %39 = tail call i8* @_ZN8feedwire7webfeed23WebFeedMatcher_Criteria14_InternalParseEPKcPN6google8protobuf8internal12ParseContextE(%"class.feedwire::webfeed::WebFeedMatcher_Criteria"* %1, i8* nonnull %14, %"class.google::protobuf::internal::ParseContext"* %0)
  %40 = icmp eq i8* %39, null
  br i1 %40, label %55, label %41, !prof !4

41:                                               ; preds = %38
  %42 = load i32, i32* %34, align 8
  %43 = add nsw i32 %42, 1
  store i32 %43, i32* %34, align 8
  %44 = getelementptr inbounds %"class.google::protobuf::internal::ParseContext", %"class.google::protobuf::internal::ParseContext"* %0, i64 0, i32 0, i32 8
  %45 = load i32, i32* %44, align 8
  %46 = icmp eq i32 %45, 0
  br i1 %46, label %47, label %55, !prof !2

47:                                               ; preds = %41
  %48 = load i32, i32* %31, align 4
  %49 = add nsw i32 %48, %33
  store i32 %49, i32* %31, align 4
  %50 = load i8*, i8** %18, align 8
  %51 = icmp slt i32 %49, 0
  %52 = select i1 %51, i32 %49, i32 0
  %53 = sext i32 %52 to i64
  %54 = getelementptr inbounds i8, i8* %50, i64 %53
  store i8* %54, i8** %30, align 8
  br label %55

55:                                               ; preds = %13, %38, %17, %41, %47
  %56 = phi i8* [ %39, %47 ], [ null, %41 ], [ null, %17 ], [ null, %38 ], [ null, %13 ]
  ret i8* %56
}

; Function Attrs: nounwind ssp uwtable
define hidden i8* @_ZNK8feedwire7webfeed14WebFeedMatcher18_InternalSerializeEPhPN6google8protobuf2io19EpsCopyOutputStreamE(%"class.feedwire::webfeed::WebFeedMatcher"* nocapture readonly, i8*, %"class.google::protobuf::io::EpsCopyOutputStream"*) unnamed_addr #0 align 2 {
  %4 = getelementptr inbounds %"class.feedwire::webfeed::WebFeedMatcher", %"class.feedwire::webfeed::WebFeedMatcher"* %0, i64 0, i32 1, i32 0, i32 1
  %5 = load i32, i32* %4, align 8
  %6 = icmp eq i32 %5, 0
  br i1 %6, label %10, label %7

7:                                                ; preds = %3
  %8 = getelementptr inbounds %"class.google::protobuf::io::EpsCopyOutputStream", %"class.google::protobuf::io::EpsCopyOutputStream"* %2, i64 0, i32 0
  %9 = getelementptr inbounds %"class.feedwire::webfeed::WebFeedMatcher", %"class.feedwire::webfeed::WebFeedMatcher"* %0, i64 0, i32 1, i32 0, i32 3
  br label %17

10:                                               ; preds = %59, %3
  %11 = phi i8* [ %1, %3 ], [ %61, %59 ]
  %12 = getelementptr inbounds %"class.feedwire::webfeed::WebFeedMatcher", %"class.feedwire::webfeed::WebFeedMatcher"* %0, i64 0, i32 0, i32 1
  %13 = bitcast %"class.google::protobuf::internal::InternalMetadata"* %12 to i64*
  %14 = load i64, i64* %13, align 8
  %15 = and i64 %14, 1
  %16 = icmp eq i64 %15, 0
  br i1 %16, label %95, label %64, !prof !2

17:                                               ; preds = %59, %7
  %18 = phi i32 [ 0, %7 ], [ %62, %59 ]
  %19 = phi i8* [ %1, %7 ], [ %61, %59 ]
  %20 = load i8*, i8** %8, align 8
  %21 = icmp ugt i8* %20, %19
  br i1 %21, label %24, label %22, !prof !2

22:                                               ; preds = %17
  %23 = tail call i8* @_ZN6google8protobuf2io19EpsCopyOutputStream19EnsureSpaceFallbackEPh(%"class.google::protobuf::io::EpsCopyOutputStream"* %2, i8* %19) #11
  br label %24

24:                                               ; preds = %17, %22
  %25 = phi i8* [ %23, %22 ], [ %19, %17 ]
  %26 = load %"struct.google::protobuf::internal::RepeatedPtrFieldBase::Rep"*, %"struct.google::protobuf::internal::RepeatedPtrFieldBase::Rep"** %9, align 8
  %27 = sext i32 %18 to i64
  %28 = getelementptr inbounds %"struct.google::protobuf::internal::RepeatedPtrFieldBase::Rep", %"struct.google::protobuf::internal::RepeatedPtrFieldBase::Rep"* %26, i64 0, i32 1, i64 %27
  %29 = bitcast i8** %28 to %"class.feedwire::webfeed::WebFeedMatcher_Criteria"**
  %30 = load %"class.feedwire::webfeed::WebFeedMatcher_Criteria"*, %"class.feedwire::webfeed::WebFeedMatcher_Criteria"** %29, align 8
  store i8 10, i8* %25, align 1
  %31 = getelementptr inbounds i8, i8* %25, i64 1
  %32 = getelementptr inbounds %"class.feedwire::webfeed::WebFeedMatcher_Criteria", %"class.feedwire::webfeed::WebFeedMatcher_Criteria"* %30, i64 0, i32 3, i32 0, i32 0, i32 0, i32 0, i32 0, i32 0
  %33 = load atomic i32, i32* %32 monotonic, align 4
  %34 = icmp ult i32 %33, 128
  %35 = trunc i32 %33 to i8
  br i1 %34, label %36, label %38

36:                                               ; preds = %24
  store i8 %35, i8* %31, align 1
  %37 = getelementptr inbounds i8, i8* %25, i64 2
  br label %59

38:                                               ; preds = %24
  %39 = or i8 %35, -128
  store i8 %39, i8* %31, align 1
  %40 = lshr i32 %33, 7
  %41 = icmp ult i32 %33, 16384
  br i1 %41, label %42, label %46

42:                                               ; preds = %38
  %43 = trunc i32 %40 to i8
  %44 = getelementptr inbounds i8, i8* %25, i64 2
  store i8 %43, i8* %44, align 1
  %45 = getelementptr inbounds i8, i8* %25, i64 3
  br label %59

46:                                               ; preds = %38
  %47 = getelementptr inbounds i8, i8* %25, i64 2
  br label %48

48:                                               ; preds = %48, %46
  %49 = phi i32 [ %40, %46 ], [ %53, %48 ]
  %50 = phi i8* [ %47, %46 ], [ %54, %48 ]
  %51 = trunc i32 %49 to i8
  %52 = or i8 %51, -128
  store i8 %52, i8* %50, align 1
  %53 = lshr i32 %49, 7
  %54 = getelementptr inbounds i8, i8* %50, i64 1
  %55 = icmp ugt i32 %49, 16383
  br i1 %55, label %48, label %56, !prof !4

56:                                               ; preds = %48
  %57 = trunc i32 %53 to i8
  %58 = getelementptr inbounds i8, i8* %50, i64 2
  store i8 %57, i8* %54, align 1
  br label %59

59:                                               ; preds = %36, %42, %56
  %60 = phi i8* [ %37, %36 ], [ %45, %42 ], [ %58, %56 ]
  %61 = tail call i8* @_ZNK8feedwire7webfeed23WebFeedMatcher_Criteria18_InternalSerializeEPhPN6google8protobuf2io19EpsCopyOutputStreamE(%"class.feedwire::webfeed::WebFeedMatcher_Criteria"* %30, i8* %60, %"class.google::protobuf::io::EpsCopyOutputStream"* %2) #11
  %62 = add nuw i32 %18, 1
  %63 = icmp eq i32 %62, %5
  br i1 %63, label %10, label %17

64:                                               ; preds = %10
  %65 = and i64 %14, -2
  %66 = inttoptr i64 %65 to %"struct.google::protobuf::internal::InternalMetadata::Container"*
  %67 = getelementptr inbounds %"struct.google::protobuf::internal::InternalMetadata::Container", %"struct.google::protobuf::internal::InternalMetadata::Container"* %66, i64 0, i32 1
  %68 = bitcast %"class.std::__1::basic_string"* %67 to %"struct.std::__1::basic_string<char, std::__1::char_traits<char>, std::__1::allocator<char> >::__short"*
  %69 = getelementptr inbounds %"struct.std::__1::basic_string<char, std::__1::char_traits<char>, std::__1::allocator<char> >::__short", %"struct.std::__1::basic_string<char, std::__1::char_traits<char>, std::__1::allocator<char> >::__short"* %68, i64 0, i32 1, i32 0
  %70 = load i8, i8* %69, align 1
  %71 = icmp slt i8 %70, 0
  br i1 %71, label %72, label %77

72:                                               ; preds = %64
  %73 = getelementptr inbounds %"class.std::__1::basic_string", %"class.std::__1::basic_string"* %67, i64 0, i32 0, i32 0, i32 0, i32 0, i32 0, i32 0
  %74 = load i8*, i8** %73, align 8
  %75 = getelementptr inbounds %"struct.google::protobuf::internal::InternalMetadata::Container", %"struct.google::protobuf::internal::InternalMetadata::Container"* %66, i64 0, i32 1, i32 0, i32 0, i32 0, i32 0, i32 0, i32 1
  %76 = load i64, i64* %75, align 8
  br label %80

77:                                               ; preds = %64
  %78 = bitcast %"class.std::__1::basic_string"* %67 to i8*
  %79 = zext i8 %70 to i64
  br label %80

80:                                               ; preds = %72, %77
  %81 = phi i8* [ %74, %72 ], [ %78, %77 ]
  %82 = phi i64 [ %76, %72 ], [ %79, %77 ]
  %83 = bitcast %"class.google::protobuf::io::EpsCopyOutputStream"* %2 to i64*
  %84 = load i64, i64* %83, align 8
  %85 = ptrtoint i8* %11 to i64
  %86 = sub i64 %84, %85
  %87 = shl i64 %82, 32
  %88 = ashr exact i64 %87, 32
  %89 = icmp slt i64 %86, %88
  br i1 %89, label %90, label %93, !prof !4

90:                                               ; preds = %80
  %91 = trunc i64 %82 to i32
  %92 = tail call i8* @_ZN6google8protobuf2io19EpsCopyOutputStream16WriteRawFallbackEPKviPh(%"class.google::protobuf::io::EpsCopyOutputStream"* %2, i8* %81, i32 %91, i8* %11) #11
  br label %95

93:                                               ; preds = %80
  tail call void @llvm.memcpy.p0i8.p0i8.i64(i8* align 1 %11, i8* align 1 %81, i64 %88, i1 false) #11
  %94 = getelementptr inbounds i8, i8* %11, i64 %88
  br label %95

95:                                               ; preds = %10, %93, %90
  %96 = phi i8* [ %11, %10 ], [ %92, %90 ], [ %94, %93 ]
  ret i8* %96
}

; Function Attrs: nounwind ssp uwtable
define hidden i64 @_ZNK8feedwire7webfeed14WebFeedMatcher12ByteSizeLongEv(%"class.feedwire::webfeed::WebFeedMatcher"* nocapture) unnamed_addr #0 align 2 {
  %2 = getelementptr inbounds %"class.feedwire::webfeed::WebFeedMatcher", %"class.feedwire::webfeed::WebFeedMatcher"* %0, i64 0, i32 1, i32 0, i32 1
  %3 = load i32, i32* %2, align 8
  %4 = sext i32 %3 to i64
  %5 = getelementptr inbounds %"class.feedwire::webfeed::WebFeedMatcher", %"class.feedwire::webfeed::WebFeedMatcher"* %0, i64 0, i32 1, i32 0, i32 3
  %6 = load %"struct.google::protobuf::internal::RepeatedPtrFieldBase::Rep"*, %"struct.google::protobuf::internal::RepeatedPtrFieldBase::Rep"** %5, align 8
  %7 = icmp eq %"struct.google::protobuf::internal::RepeatedPtrFieldBase::Rep"* %6, null
  %8 = getelementptr inbounds %"struct.google::protobuf::internal::RepeatedPtrFieldBase::Rep", %"struct.google::protobuf::internal::RepeatedPtrFieldBase::Rep"* %6, i64 0, i32 1, i64 0
  %9 = select i1 %7, i8** null, i8** %8
  %10 = getelementptr inbounds i8*, i8** %9, i64 %4
  %11 = icmp eq i32 %3, 0
  br i1 %11, label %12, label %19

12:                                               ; preds = %19, %1
  %13 = phi i64 [ 0, %1 ], [ %34, %19 ]
  %14 = getelementptr inbounds %"class.feedwire::webfeed::WebFeedMatcher", %"class.feedwire::webfeed::WebFeedMatcher"* %0, i64 0, i32 0, i32 1
  %15 = bitcast %"class.google::protobuf::internal::InternalMetadata"* %14 to i64*
  %16 = load i64, i64* %15, align 8
  %17 = and i64 %16, 1
  %18 = icmp eq i64 %17, 0
  br i1 %18, label %53, label %37, !prof !2

19:                                               ; preds = %1, %19
  %20 = phi i64 [ %34, %19 ], [ %4, %1 ]
  %21 = phi i8** [ %35, %19 ], [ %9, %1 ]
  %22 = bitcast i8** %21 to %"class.feedwire::webfeed::WebFeedMatcher_Criteria"**
  %23 = load %"class.feedwire::webfeed::WebFeedMatcher_Criteria"*, %"class.feedwire::webfeed::WebFeedMatcher_Criteria"** %22, align 8
  %24 = tail call i64 @_ZNK8feedwire7webfeed23WebFeedMatcher_Criteria12ByteSizeLongEv(%"class.feedwire::webfeed::WebFeedMatcher_Criteria"* %23) #11
  %25 = trunc i64 %24 to i32
  %26 = or i32 %25, 1
  %27 = tail call i32 @llvm.ctlz.i32(i32 %26, i1 true) #11, !range !6
  %28 = xor i32 %27, 31
  %29 = mul nuw nsw i32 %28, 9
  %30 = add nuw nsw i32 %29, 73
  %31 = lshr i32 %30, 6
  %32 = zext i32 %31 to i64
  %33 = add i64 %24, %20
  %34 = add i64 %33, %32
  %35 = getelementptr inbounds i8*, i8** %21, i64 1
  %36 = icmp eq i8** %35, %10
  br i1 %36, label %12, label %19

37:                                               ; preds = %12
  %38 = and i64 %16, -2
  %39 = inttoptr i64 %38 to %"struct.google::protobuf::internal::InternalMetadata::Container"*
  %40 = getelementptr inbounds %"struct.google::protobuf::internal::InternalMetadata::Container", %"struct.google::protobuf::internal::InternalMetadata::Container"* %39, i64 0, i32 1
  %41 = bitcast %"class.std::__1::basic_string"* %40 to %"struct.std::__1::basic_string<char, std::__1::char_traits<char>, std::__1::allocator<char> >::__short"*
  %42 = getelementptr inbounds %"struct.std::__1::basic_string<char, std::__1::char_traits<char>, std::__1::allocator<char> >::__short", %"struct.std::__1::basic_string<char, std::__1::char_traits<char>, std::__1::allocator<char> >::__short"* %41, i64 0, i32 1, i32 0
  %43 = load i8, i8* %42, align 1
  %44 = icmp slt i8 %43, 0
  br i1 %44, label %45, label %48

45:                                               ; preds = %37
  %46 = getelementptr inbounds %"struct.google::protobuf::internal::InternalMetadata::Container", %"struct.google::protobuf::internal::InternalMetadata::Container"* %39, i64 0, i32 1, i32 0, i32 0, i32 0, i32 0, i32 0, i32 1
  %47 = load i64, i64* %46, align 8
  br label %50

48:                                               ; preds = %37
  %49 = zext i8 %43 to i64
  br label %50

50:                                               ; preds = %45, %48
  %51 = phi i64 [ %47, %45 ], [ %49, %48 ]
  %52 = add i64 %51, %13
  br label %53

53:                                               ; preds = %12, %50
  %54 = phi i64 [ %52, %50 ], [ %13, %12 ]
  %55 = trunc i64 %54 to i32
  %56 = getelementptr inbounds %"class.feedwire::webfeed::WebFeedMatcher", %"class.feedwire::webfeed::WebFeedMatcher"* %0, i64 0, i32 2, i32 0, i32 0, i32 0, i32 0, i32 0, i32 0
  store atomic i32 %55, i32* %56 monotonic, align 4
  ret i64 %54
}

; Function Attrs: nounwind ssp uwtable
define hidden void @_ZN8feedwire7webfeed14WebFeedMatcher21CheckTypeAndMergeFromERKN6google8protobuf11MessageLiteE(%"class.feedwire::webfeed::WebFeedMatcher"*, %"class.google::protobuf::MessageLite"* nocapture readonly dereferenceable(16)) unnamed_addr #0 align 2 {
  %3 = bitcast %"class.google::protobuf::MessageLite"* %1 to %"class.feedwire::webfeed::WebFeedMatcher"*
  tail call void @_ZN8feedwire7webfeed14WebFeedMatcher9MergeFromERKS1_(%"class.feedwire::webfeed::WebFeedMatcher"* %0, %"class.feedwire::webfeed::WebFeedMatcher"* dereferenceable(48) %3)
  ret void
}

; Function Attrs: nounwind ssp uwtable
define hidden void @_ZN8feedwire7webfeed14WebFeedMatcher9MergeFromERKS1_(%"class.feedwire::webfeed::WebFeedMatcher"*, %"class.feedwire::webfeed::WebFeedMatcher"* nocapture readonly dereferenceable(48)) local_unnamed_addr #0 align 2 {
  %3 = getelementptr inbounds %"class.feedwire::webfeed::WebFeedMatcher", %"class.feedwire::webfeed::WebFeedMatcher"* %0, i64 0, i32 0, i32 1
  %4 = getelementptr inbounds %"class.feedwire::webfeed::WebFeedMatcher", %"class.feedwire::webfeed::WebFeedMatcher"* %1, i64 0, i32 0, i32 1
  %5 = bitcast %"class.google::protobuf::internal::InternalMetadata"* %4 to i64*
  %6 = load i64, i64* %5, align 8
  %7 = and i64 %6, 1
  %8 = icmp eq i64 %7, 0
  br i1 %8, label %38, label %9

9:                                                ; preds = %2
  %10 = and i64 %6, -2
  %11 = inttoptr i64 %10 to %"struct.google::protobuf::internal::InternalMetadata::Container"*
  %12 = getelementptr inbounds %"struct.google::protobuf::internal::InternalMetadata::Container", %"struct.google::protobuf::internal::InternalMetadata::Container"* %11, i64 0, i32 1
  %13 = bitcast %"class.google::protobuf::internal::InternalMetadata"* %3 to i64*
  %14 = load i64, i64* %13, align 8
  %15 = and i64 %14, 1
  %16 = icmp eq i64 %15, 0
  br i1 %16, label %21, label %17, !prof !4

17:                                               ; preds = %9
  %18 = and i64 %14, -2
  %19 = inttoptr i64 %18 to %"struct.google::protobuf::internal::InternalMetadata::Container"*
  %20 = getelementptr inbounds %"struct.google::protobuf::internal::InternalMetadata::Container", %"struct.google::protobuf::internal::InternalMetadata::Container"* %19, i64 0, i32 1
  br label %23

21:                                               ; preds = %9
  %22 = tail call %"class.std::__1::basic_string"* @_ZN6google8protobuf8internal16InternalMetadata27mutable_unknown_fields_slowINSt3__112basic_stringIcNS4_11char_traitsIcEENS4_9allocatorIcEEEEEEPT_v(%"class.google::protobuf::internal::InternalMetadata"* %3) #11
  br label %23

23:                                               ; preds = %21, %17
  %24 = phi %"class.std::__1::basic_string"* [ %20, %17 ], [ %22, %21 ]
  %25 = bitcast %"class.std::__1::basic_string"* %12 to %"struct.std::__1::basic_string<char, std::__1::char_traits<char>, std::__1::allocator<char> >::__short"*
  %26 = getelementptr inbounds %"struct.std::__1::basic_string<char, std::__1::char_traits<char>, std::__1::allocator<char> >::__short", %"struct.std::__1::basic_string<char, std::__1::char_traits<char>, std::__1::allocator<char> >::__short"* %25, i64 0, i32 1, i32 0
  %27 = load i8, i8* %26, align 1
  %28 = icmp slt i8 %27, 0
  %29 = getelementptr inbounds %"class.std::__1::basic_string", %"class.std::__1::basic_string"* %12, i64 0, i32 0, i32 0, i32 0, i32 0, i32 0, i32 0
  %30 = load i8*, i8** %29, align 8
  %31 = getelementptr inbounds %"struct.google::protobuf::internal::InternalMetadata::Container", %"struct.google::protobuf::internal::InternalMetadata::Container"* %11, i64 0, i32 1, i32 0, i32 0, i32 0, i32 0, i32 0, i32 1
  %32 = load i64, i64* %31, align 8
  %33 = bitcast %"class.std::__1::basic_string"* %12 to i8*
  %34 = zext i8 %27 to i64
  %35 = select i1 %28, i8* %30, i8* %33
  %36 = select i1 %28, i64 %32, i64 %34
  %37 = tail call dereferenceable(24) %"class.std::__1::basic_string"* @_ZNSt3__112basic_stringIcNS_11char_traitsIcEENS_9allocatorIcEEE6appendEPKcm(%"class.std::__1::basic_string"* %24, i8* %35, i64 %36) #11
  br label %38

38:                                               ; preds = %2, %23
  %39 = getelementptr inbounds %"class.feedwire::webfeed::WebFeedMatcher", %"class.feedwire::webfeed::WebFeedMatcher"* %0, i64 0, i32 1
  %40 = getelementptr inbounds %"class.feedwire::webfeed::WebFeedMatcher", %"class.feedwire::webfeed::WebFeedMatcher"* %1, i64 0, i32 1, i32 0, i32 1
  %41 = load i32, i32* %40, align 8
  %42 = icmp eq i32 %41, 0
  br i1 %42, label %98, label %43

43:                                               ; preds = %38
  %44 = getelementptr inbounds %"class.google::protobuf::RepeatedPtrField", %"class.google::protobuf::RepeatedPtrField"* %39, i64 0, i32 0
  %45 = getelementptr inbounds %"class.feedwire::webfeed::WebFeedMatcher", %"class.feedwire::webfeed::WebFeedMatcher"* %1, i64 0, i32 1, i32 0, i32 3
  %46 = load %"struct.google::protobuf::internal::RepeatedPtrFieldBase::Rep"*, %"struct.google::protobuf::internal::RepeatedPtrFieldBase::Rep"** %45, align 8
  %47 = tail call i8** @_ZN6google8protobuf8internal20RepeatedPtrFieldBase14InternalExtendEi(%"class.google::protobuf::internal::RepeatedPtrFieldBase"* %44, i32 %41) #11
  %48 = getelementptr inbounds %"class.feedwire::webfeed::WebFeedMatcher", %"class.feedwire::webfeed::WebFeedMatcher"* %0, i64 0, i32 1, i32 0, i32 3
  %49 = load %"struct.google::protobuf::internal::RepeatedPtrFieldBase::Rep"*, %"struct.google::protobuf::internal::RepeatedPtrFieldBase::Rep"** %48, align 8
  %50 = getelementptr inbounds %"struct.google::protobuf::internal::RepeatedPtrFieldBase::Rep", %"struct.google::protobuf::internal::RepeatedPtrFieldBase::Rep"* %49, i64 0, i32 0
  %51 = load i32, i32* %50, align 8
  %52 = getelementptr inbounds %"class.feedwire::webfeed::WebFeedMatcher", %"class.feedwire::webfeed::WebFeedMatcher"* %0, i64 0, i32 1, i32 0, i32 1
  %53 = load i32, i32* %52, align 8
  %54 = sub i32 %51, %53
  %55 = icmp sgt i32 %54, 0
  %56 = icmp sgt i32 %41, 0
  %57 = and i1 %56, %55
  br i1 %57, label %58, label %61

58:                                               ; preds = %43
  %59 = sext i32 %41 to i64
  %60 = sext i32 %54 to i64
  br label %67

61:                                               ; preds = %67, %43
  %62 = getelementptr inbounds %"class.google::protobuf::RepeatedPtrField", %"class.google::protobuf::RepeatedPtrField"* %39, i64 0, i32 0, i32 0
  %63 = load %"class.google::protobuf::Arena"*, %"class.google::protobuf::Arena"** %62, align 8
  %64 = icmp slt i32 %54, %41
  br i1 %64, label %65, label %90

65:                                               ; preds = %61
  %66 = sext i32 %54 to i64
  br label %79

67:                                               ; preds = %67, %58
  %68 = phi i64 [ 0, %58 ], [ %75, %67 ]
  %69 = getelementptr inbounds %"struct.google::protobuf::internal::RepeatedPtrFieldBase::Rep", %"struct.google::protobuf::internal::RepeatedPtrFieldBase::Rep"* %46, i64 0, i32 1, i64 %68
  %70 = bitcast i8** %69 to %"class.feedwire::webfeed::WebFeedMatcher_Criteria"**
  %71 = load %"class.feedwire::webfeed::WebFeedMatcher_Criteria"*, %"class.feedwire::webfeed::WebFeedMatcher_Criteria"** %70, align 8
  %72 = getelementptr inbounds i8*, i8** %47, i64 %68
  %73 = bitcast i8** %72 to %"class.feedwire::webfeed::WebFeedMatcher_Criteria"**
  %74 = load %"class.feedwire::webfeed::WebFeedMatcher_Criteria"*, %"class.feedwire::webfeed::WebFeedMatcher_Criteria"** %73, align 8
  tail call void @_ZN6google8protobuf8internal18GenericTypeHandlerIN8feedwire7webfeed23WebFeedMatcher_CriteriaEE5MergeERKS5_PS5_(%"class.feedwire::webfeed::WebFeedMatcher_Criteria"* dereferenceable(40) %71, %"class.feedwire::webfeed::WebFeedMatcher_Criteria"* %74) #11
  %75 = add nuw nsw i64 %68, 1
  %76 = icmp slt i64 %75, %60
  %77 = icmp slt i64 %75, %59
  %78 = and i1 %76, %77
  br i1 %78, label %67, label %61

79:                                               ; preds = %79, %65
  %80 = phi i64 [ %66, %65 ], [ %87, %79 ]
  %81 = getelementptr inbounds %"struct.google::protobuf::internal::RepeatedPtrFieldBase::Rep", %"struct.google::protobuf::internal::RepeatedPtrFieldBase::Rep"* %46, i64 0, i32 1, i64 %80
  %82 = bitcast i8** %81 to %"class.feedwire::webfeed::WebFeedMatcher_Criteria"**
  %83 = load %"class.feedwire::webfeed::WebFeedMatcher_Criteria"*, %"class.feedwire::webfeed::WebFeedMatcher_Criteria"** %82, align 8
  %84 = tail call %"class.feedwire::webfeed::WebFeedMatcher_Criteria"* @_ZN6google8protobuf5Arena18CreateMaybeMessageIN8feedwire7webfeed23WebFeedMatcher_CriteriaEJEEEPT_PS1_DpOT0_(%"class.google::protobuf::Arena"* %63) #11
  tail call void @_ZN6google8protobuf8internal18GenericTypeHandlerIN8feedwire7webfeed23WebFeedMatcher_CriteriaEE5MergeERKS5_PS5_(%"class.feedwire::webfeed::WebFeedMatcher_Criteria"* dereferenceable(40) %83, %"class.feedwire::webfeed::WebFeedMatcher_Criteria"* %84) #11
  %85 = getelementptr inbounds i8*, i8** %47, i64 %80
  %86 = bitcast i8** %85 to %"class.feedwire::webfeed::WebFeedMatcher_Criteria"**
  store %"class.feedwire::webfeed::WebFeedMatcher_Criteria"* %84, %"class.feedwire::webfeed::WebFeedMatcher_Criteria"** %86, align 8
  %87 = add nsw i64 %80, 1
  %88 = trunc i64 %87 to i32
  %89 = icmp eq i32 %41, %88
  br i1 %89, label %90, label %79

90:                                               ; preds = %79, %61
  %91 = load i32, i32* %52, align 8
  %92 = add nsw i32 %91, %41
  store i32 %92, i32* %52, align 8
  %93 = load %"struct.google::protobuf::internal::RepeatedPtrFieldBase::Rep"*, %"struct.google::protobuf::internal::RepeatedPtrFieldBase::Rep"** %48, align 8
  %94 = getelementptr inbounds %"struct.google::protobuf::internal::RepeatedPtrFieldBase::Rep", %"struct.google::protobuf::internal::RepeatedPtrFieldBase::Rep"* %93, i64 0, i32 0
  %95 = load i32, i32* %94, align 8
  %96 = icmp slt i32 %95, %92
  br i1 %96, label %97, label %98

97:                                               ; preds = %90
  store i32 %92, i32* %94, align 8
  br label %98

98:                                               ; preds = %38, %90, %97
  ret void
}

; Function Attrs: nounwind ssp uwtable
define hidden void @_ZN8feedwire7webfeed14WebFeedMatcher8CopyFromERKS1_(%"class.feedwire::webfeed::WebFeedMatcher"*, %"class.feedwire::webfeed::WebFeedMatcher"* readonly dereferenceable(48)) local_unnamed_addr #0 align 2 {
  %3 = icmp eq %"class.feedwire::webfeed::WebFeedMatcher"* %1, %0
  br i1 %3, label %62, label %4

4:                                                ; preds = %2
  %5 = getelementptr inbounds %"class.feedwire::webfeed::WebFeedMatcher", %"class.feedwire::webfeed::WebFeedMatcher"* %0, i64 0, i32 1, i32 0, i32 1
  %6 = load i32, i32* %5, align 8
  %7 = icmp sgt i32 %6, 0
  br i1 %7, label %8, label %41

8:                                                ; preds = %4
  %9 = getelementptr inbounds %"class.feedwire::webfeed::WebFeedMatcher", %"class.feedwire::webfeed::WebFeedMatcher"* %0, i64 0, i32 1, i32 0, i32 3
  %10 = load %"struct.google::protobuf::internal::RepeatedPtrFieldBase::Rep"*, %"struct.google::protobuf::internal::RepeatedPtrFieldBase::Rep"** %9, align 8
  %11 = zext i32 %6 to i64
  br label %12

12:                                               ; preds = %38, %8
  %13 = phi i64 [ %14, %38 ], [ 0, %8 ]
  %14 = add nuw nsw i64 %13, 1
  %15 = getelementptr inbounds %"struct.google::protobuf::internal::RepeatedPtrFieldBase::Rep", %"struct.google::protobuf::internal::RepeatedPtrFieldBase::Rep"* %10, i64 0, i32 1, i64 %13
  %16 = bitcast i8** %15 to %"class.feedwire::webfeed::WebFeedMatcher_Criteria"**
  %17 = load %"class.feedwire::webfeed::WebFeedMatcher_Criteria"*, %"class.feedwire::webfeed::WebFeedMatcher_Criteria"** %16, align 8
  %18 = getelementptr inbounds %"class.feedwire::webfeed::WebFeedMatcher_Criteria", %"class.feedwire::webfeed::WebFeedMatcher_Criteria"* %17, i64 0, i32 1
  store i32 0, i32* %18, align 8
  tail call void @_ZN8feedwire7webfeed23WebFeedMatcher_Criteria11clear_matchEv(%"class.feedwire::webfeed::WebFeedMatcher_Criteria"* %17) #11
  %19 = getelementptr inbounds %"class.feedwire::webfeed::WebFeedMatcher_Criteria", %"class.feedwire::webfeed::WebFeedMatcher_Criteria"* %17, i64 0, i32 0, i32 1
  %20 = bitcast %"class.google::protobuf::internal::InternalMetadata"* %19 to i64*
  %21 = load i64, i64* %20, align 8
  %22 = and i64 %21, 1
  %23 = icmp eq i64 %22, 0
  br i1 %23, label %38, label %24

24:                                               ; preds = %12
  %25 = and i64 %21, -2
  %26 = inttoptr i64 %25 to %"struct.google::protobuf::internal::InternalMetadata::Container"*
  %27 = getelementptr inbounds %"struct.google::protobuf::internal::InternalMetadata::Container", %"struct.google::protobuf::internal::InternalMetadata::Container"* %26, i64 0, i32 1
  %28 = bitcast %"class.std::__1::basic_string"* %27 to %"struct.std::__1::basic_string<char, std::__1::char_traits<char>, std::__1::allocator<char> >::__short"*
  %29 = getelementptr inbounds %"struct.std::__1::basic_string<char, std::__1::char_traits<char>, std::__1::allocator<char> >::__short", %"struct.std::__1::basic_string<char, std::__1::char_traits<char>, std::__1::allocator<char> >::__short"* %28, i64 0, i32 1, i32 0
  %30 = load i8, i8* %29, align 1
  %31 = icmp slt i8 %30, 0
  br i1 %31, label %32, label %36

32:                                               ; preds = %24
  %33 = getelementptr inbounds %"class.std::__1::basic_string", %"class.std::__1::basic_string"* %27, i64 0, i32 0, i32 0, i32 0, i32 0, i32 0, i32 0
  %34 = load i8*, i8** %33, align 8
  store i8 0, i8* %34, align 1
  %35 = getelementptr inbounds %"struct.google::protobuf::internal::InternalMetadata::Container", %"struct.google::protobuf::internal::InternalMetadata::Container"* %26, i64 0, i32 1, i32 0, i32 0, i32 0, i32 0, i32 0, i32 1
  store i64 0, i64* %35, align 8
  br label %38

36:                                               ; preds = %24
  %37 = bitcast %"class.std::__1::basic_string"* %27 to i8*
  store i8 0, i8* %37, align 2
  store i8 0, i8* %29, align 1
  br label %38

38:                                               ; preds = %36, %32, %12
  %39 = icmp eq i64 %14, %11
  br i1 %39, label %40, label %12

40:                                               ; preds = %38
  store i32 0, i32* %5, align 8
  br label %41

41:                                               ; preds = %40, %4
  %42 = getelementptr inbounds %"class.feedwire::webfeed::WebFeedMatcher", %"class.feedwire::webfeed::WebFeedMatcher"* %0, i64 0, i32 0, i32 1
  %43 = bitcast %"class.google::protobuf::internal::InternalMetadata"* %42 to i64*
  %44 = load i64, i64* %43, align 8
  %45 = and i64 %44, 1
  %46 = icmp eq i64 %45, 0
  br i1 %46, label %61, label %47

47:                                               ; preds = %41
  %48 = and i64 %44, -2
  %49 = inttoptr i64 %48 to %"struct.google::protobuf::internal::InternalMetadata::Container"*
  %50 = getelementptr inbounds %"struct.google::protobuf::internal::InternalMetadata::Container", %"struct.google::protobuf::internal::InternalMetadata::Container"* %49, i64 0, i32 1
  %51 = bitcast %"class.std::__1::basic_string"* %50 to %"struct.std::__1::basic_string<char, std::__1::char_traits<char>, std::__1::allocator<char> >::__short"*
  %52 = getelementptr inbounds %"struct.std::__1::basic_string<char, std::__1::char_traits<char>, std::__1::allocator<char> >::__short", %"struct.std::__1::basic_string<char, std::__1::char_traits<char>, std::__1::allocator<char> >::__short"* %51, i64 0, i32 1, i32 0
  %53 = load i8, i8* %52, align 1
  %54 = icmp slt i8 %53, 0
  br i1 %54, label %55, label %59

55:                                               ; preds = %47
  %56 = getelementptr inbounds %"class.std::__1::basic_string", %"class.std::__1::basic_string"* %50, i64 0, i32 0, i32 0, i32 0, i32 0, i32 0, i32 0
  %57 = load i8*, i8** %56, align 8
  store i8 0, i8* %57, align 1
  %58 = getelementptr inbounds %"struct.google::protobuf::internal::InternalMetadata::Container", %"struct.google::protobuf::internal::InternalMetadata::Container"* %49, i64 0, i32 1, i32 0, i32 0, i32 0, i32 0, i32 0, i32 1
  store i64 0, i64* %58, align 8
  br label %61

59:                                               ; preds = %47
  %60 = bitcast %"class.std::__1::basic_string"* %50 to i8*
  store i8 0, i8* %60, align 2
  store i8 0, i8* %52, align 1
  br label %61

61:                                               ; preds = %41, %55, %59
  tail call void @_ZN8feedwire7webfeed14WebFeedMatcher9MergeFromERKS1_(%"class.feedwire::webfeed::WebFeedMatcher"* %0, %"class.feedwire::webfeed::WebFeedMatcher"* dereferenceable(48) %1)
  br label %62

62:                                               ; preds = %2, %61
  ret void
}

; Function Attrs: norecurse nounwind readnone ssp uwtable
define hidden zeroext i1 @_ZNK8feedwire7webfeed14WebFeedMatcher13IsInitializedEv(%"class.feedwire::webfeed::WebFeedMatcher"* nocapture readnone) unnamed_addr #1 align 2 {
  ret i1 true
}

; Function Attrs: nounwind ssp uwtable
define hidden void @_ZN8feedwire7webfeed14WebFeedMatcher12InternalSwapEPS1_(%"class.feedwire::webfeed::WebFeedMatcher"*, %"class.feedwire::webfeed::WebFeedMatcher"*) local_unnamed_addr #0 align 2 {
  %3 = getelementptr inbounds %"class.feedwire::webfeed::WebFeedMatcher", %"class.feedwire::webfeed::WebFeedMatcher"* %0, i64 0, i32 0, i32 1
  %4 = getelementptr inbounds %"class.feedwire::webfeed::WebFeedMatcher", %"class.feedwire::webfeed::WebFeedMatcher"* %1, i64 0, i32 0, i32 1
  %5 = bitcast %"class.google::protobuf::internal::InternalMetadata"* %3 to i64*
  %6 = load i64, i64* %5, align 8
  %7 = bitcast %"class.google::protobuf::internal::InternalMetadata"* %4 to i64*
  %8 = load i64, i64* %7, align 8
  %9 = or i64 %8, %6
  %10 = and i64 %9, 1
  %11 = icmp eq i64 %10, 0
  br i1 %11, label %43, label %12

12:                                               ; preds = %2
  %13 = and i64 %8, 1
  %14 = icmp eq i64 %13, 0
  br i1 %14, label %19, label %15, !prof !4

15:                                               ; preds = %12
  %16 = and i64 %8, -2
  %17 = inttoptr i64 %16 to %"struct.google::protobuf::internal::InternalMetadata::Container"*
  %18 = getelementptr inbounds %"struct.google::protobuf::internal::InternalMetadata::Container", %"struct.google::protobuf::internal::InternalMetadata::Container"* %17, i64 0, i32 1
  br label %22

19:                                               ; preds = %12
  %20 = tail call %"class.std::__1::basic_string"* @_ZN6google8protobuf8internal16InternalMetadata27mutable_unknown_fields_slowINSt3__112basic_stringIcNS4_11char_traitsIcEENS4_9allocatorIcEEEEEEPT_v(%"class.google::protobuf::internal::InternalMetadata"* %4) #11
  %21 = load i64, i64* %5, align 8
  br label %22

22:                                               ; preds = %19, %15
  %23 = phi i64 [ %6, %15 ], [ %21, %19 ]
  %24 = phi %"class.std::__1::basic_string"* [ %18, %15 ], [ %20, %19 ]
  %25 = and i64 %23, 1
  %26 = icmp eq i64 %25, 0
  br i1 %26, label %31, label %27, !prof !4

27:                                               ; preds = %22
  %28 = and i64 %23, -2
  %29 = inttoptr i64 %28 to %"struct.google::protobuf::internal::InternalMetadata::Container"*
  %30 = getelementptr inbounds %"struct.google::protobuf::internal::InternalMetadata::Container", %"struct.google::protobuf::internal::InternalMetadata::Container"* %29, i64 0, i32 1
  br label %33

31:                                               ; preds = %22
  %32 = tail call %"class.std::__1::basic_string"* @_ZN6google8protobuf8internal16InternalMetadata27mutable_unknown_fields_slowINSt3__112basic_stringIcNS4_11char_traitsIcEENS4_9allocatorIcEEEEEEPT_v(%"class.google::protobuf::internal::InternalMetadata"* %3) #11
  br label %33

33:                                               ; preds = %31, %27
  %34 = phi %"class.std::__1::basic_string"* [ %30, %27 ], [ %32, %31 ]
  %35 = bitcast %"class.std::__1::basic_string"* %34 to <2 x i64>*
  %36 = load <2 x i64>, <2 x i64>* %35, align 8
  %37 = getelementptr inbounds %"class.std::__1::basic_string", %"class.std::__1::basic_string"* %34, i64 0, i32 0, i32 0, i32 0, i32 0, i32 0, i32 2
  %38 = load i64, i64* %37, align 8
  %39 = bitcast %"class.std::__1::basic_string"* %34 to i8*
  %40 = bitcast %"class.std::__1::basic_string"* %24 to i8*
  tail call void @llvm.memcpy.p0i8.p0i8.i64(i8* align 8 %39, i8* align 8 %40, i64 24, i1 false) #11
  %41 = bitcast %"class.std::__1::basic_string"* %24 to <2 x i64>*
  store <2 x i64> %36, <2 x i64>* %41, align 8
  %42 = getelementptr inbounds %"class.std::__1::basic_string", %"class.std::__1::basic_string"* %24, i64 0, i32 0, i32 0, i32 0, i32 0, i32 0, i32 2
  store i64 %38, i64* %42, align 8
  br label %43

43:                                               ; preds = %2, %33
  %44 = getelementptr inbounds %"class.feedwire::webfeed::WebFeedMatcher", %"class.feedwire::webfeed::WebFeedMatcher"* %0, i64 0, i32 1, i32 0, i32 1
  %45 = bitcast i32* %44 to i8*
  %46 = getelementptr inbounds %"class.feedwire::webfeed::WebFeedMatcher", %"class.feedwire::webfeed::WebFeedMatcher"* %1, i64 0, i32 1, i32 0, i32 1
  %47 = bitcast i32* %46 to i8*
  %48 = bitcast i32* %44 to i128*
  %49 = load i128, i128* %48, align 1
  tail call void @llvm.memcpy.p0i8.p0i8.i64(i8* align 1 %45, i8* align 1 %47, i64 16, i1 false) #11
  %50 = bitcast i32* %46 to i128*
  store i128 %49, i128* %50, align 1
  ret void
}

; Function Attrs: nounwind ssp uwtable
define hidden void @_ZNK8feedwire7webfeed14WebFeedMatcher11GetTypeNameEv(%"class.std::__1::basic_string"* noalias sret, %"class.feedwire::webfeed::WebFeedMatcher"* nocapture readnone) unnamed_addr #0 align 2 {
  %3 = tail call i8* @_Znwm(i64 32) #12
  %4 = getelementptr inbounds %"class.std::__1::basic_string", %"class.std::__1::basic_string"* %0, i64 0, i32 0, i32 0, i32 0, i32 0, i32 0, i32 0
  store i8* %3, i8** %4, align 8
  %5 = getelementptr inbounds %"class.std::__1::basic_string", %"class.std::__1::basic_string"* %0, i64 0, i32 0, i32 0, i32 0, i32 0, i32 0, i32 1
  %6 = bitcast i64* %5 to <2 x i64>*
  store <2 x i64> <i64 31, i64 -9223372036854775776>, <2 x i64>* %6, align 8
  tail call void @llvm.memcpy.p0i8.p0i8.i64(i8* nonnull align 1 %3, i8* align 1 getelementptr inbounds ([32 x i8], [32 x i8]* @.str.6, i64 0, i64 0), i64 31, i1 false) #11
  %7 = getelementptr inbounds i8, i8* %3, i64 31
  store i8 0, i8* %7, align 1
  ret void
}

; Function Attrs: noinline nounwind ssp uwtable
define hidden %"class.feedwire::webfeed::WebFeedMatcher_Criteria"* @_ZN6google8protobuf5Arena18CreateMaybeMessageIN8feedwire7webfeed23WebFeedMatcher_CriteriaEJEEEPT_PS1_DpOT0_(%"class.google::protobuf::Arena"*) local_unnamed_addr #7 align 2 {
  %2 = icmp eq %"class.google::protobuf::Arena"* %0, null
  br i1 %2, label %3, label %13

3:                                                ; preds = %1
  %4 = tail call i8* @_Znwm(i64 40) #12
  %5 = bitcast i8* %4 to i32 (...)***
  %6 = getelementptr inbounds i8, i8* %4, i64 8
  %7 = bitcast i8* %6 to %"class.google::protobuf::Arena"**
  store %"class.google::protobuf::Arena"* null, %"class.google::protobuf::Arena"** %7, align 8
  store i32 (...)** bitcast (i8** getelementptr inbounds ({ [16 x i8*] }, { [16 x i8*] }* @_ZTVN8feedwire7webfeed23WebFeedMatcher_CriteriaE, i64 0, inrange i32 0, i64 2) to i32 (...)**), i32 (...)*** %5, align 8
  %8 = getelementptr inbounds i8, i8* %4, i64 32
  %9 = bitcast i8* %8 to i32*
  store i32 0, i32* %9, align 4
  %10 = load atomic i32, i32* getelementptr inbounds ({ { { { i32 } }, i32, i32, void ()* }, [0 x i8*] }, { { { { i32 } }, i32, i32, void ()* }, [0 x i8*] }* @scc_info_WebFeedMatcher_Criteria_components_2ffeed_2fcore_2fproto_2fv2_2fwire_2fweb_5ffeed_5fmatcher_2eproto, i64 0, i32 0, i32 0, i32 0, i32 0) acquire, align 8
  %11 = icmp eq i32 %10, 0
  br i1 %11, label %29, label %12, !prof !2

12:                                               ; preds = %3
  tail call void @_ZN6google8protobuf8internal11InitSCCImplEPNS1_11SCCInfoBaseE(%"struct.google::protobuf::internal::SCCInfoBase"* bitcast ({ { { { i32 } }, i32, i32, void ()* }, [0 x i8*] }* @scc_info_WebFeedMatcher_Criteria_components_2ffeed_2fcore_2fproto_2fv2_2fwire_2fweb_5ffeed_5fmatcher_2eproto to %"struct.google::protobuf::internal::SCCInfoBase"*)) #11
  br label %29

13:                                               ; preds = %1
  %14 = getelementptr inbounds %"class.google::protobuf::Arena", %"class.google::protobuf::Arena"* %0, i64 0, i32 4
  %15 = load i8*, i8** %14, align 8
  %16 = icmp eq i8* %15, null
  br i1 %16, label %18, label %17, !prof !2

17:                                               ; preds = %13
  tail call void @_ZNK6google8protobuf5Arena17OnArenaAllocationEPKSt9type_infom(%"class.google::protobuf::Arena"* nonnull %0, %"class.std::type_info"* null, i64 40) #11
  br label %18

18:                                               ; preds = %17, %13
  %19 = tail call i8* @_ZN6google8protobuf5Arena21AllocateAlignedNoHookEm(%"class.google::protobuf::Arena"* nonnull %0, i64 40) #11
  %20 = ptrtoint %"class.google::protobuf::Arena"* %0 to i64
  %21 = bitcast i8* %19 to i32 (...)***
  %22 = getelementptr inbounds i8, i8* %19, i64 8
  %23 = bitcast i8* %22 to i64*
  store i64 %20, i64* %23, align 8
  store i32 (...)** bitcast (i8** getelementptr inbounds ({ [16 x i8*] }, { [16 x i8*] }* @_ZTVN8feedwire7webfeed23WebFeedMatcher_CriteriaE, i64 0, inrange i32 0, i64 2) to i32 (...)**), i32 (...)*** %21, align 8
  %24 = getelementptr inbounds i8, i8* %19, i64 32
  %25 = bitcast i8* %24 to i32*
  store i32 0, i32* %25, align 4
  %26 = load atomic i32, i32* getelementptr inbounds ({ { { { i32 } }, i32, i32, void ()* }, [0 x i8*] }, { { { { i32 } }, i32, i32, void ()* }, [0 x i8*] }* @scc_info_WebFeedMatcher_Criteria_components_2ffeed_2fcore_2fproto_2fv2_2fwire_2fweb_5ffeed_5fmatcher_2eproto, i64 0, i32 0, i32 0, i32 0, i32 0) acquire, align 8
  %27 = icmp eq i32 %26, 0
  br i1 %27, label %29, label %28, !prof !2

28:                                               ; preds = %18
  tail call void @_ZN6google8protobuf8internal11InitSCCImplEPNS1_11SCCInfoBaseE(%"struct.google::protobuf::internal::SCCInfoBase"* bitcast ({ { { { i32 } }, i32, i32, void ()* }, [0 x i8*] }* @scc_info_WebFeedMatcher_Criteria_components_2ffeed_2fcore_2fproto_2fv2_2fwire_2fweb_5ffeed_5fmatcher_2eproto to %"struct.google::protobuf::internal::SCCInfoBase"*)) #11
  br label %29

29:                                               ; preds = %18, %28, %3, %12
  %30 = phi i8* [ %4, %12 ], [ %4, %3 ], [ %19, %28 ], [ %19, %18 ]
  %31 = getelementptr inbounds i8, i8* %30, i64 16
  %32 = bitcast i8* %31 to i32*
  store i32 0, i32* %32, align 8
  %33 = getelementptr inbounds i8, i8* %30, i64 36
  %34 = bitcast i8* %33 to i32*
  store i32 0, i32* %34, align 4
  %35 = bitcast i8* %30 to %"class.feedwire::webfeed::WebFeedMatcher_Criteria"*
  ret %"class.feedwire::webfeed::WebFeedMatcher_Criteria"* %35
}

; Function Attrs: noinline nounwind ssp uwtable
define hidden %"class.feedwire::webfeed::WebFeedMatcher"* @_ZN6google8protobuf5Arena18CreateMaybeMessageIN8feedwire7webfeed14WebFeedMatcherEJEEEPT_PS1_DpOT0_(%"class.google::protobuf::Arena"*) local_unnamed_addr #7 align 2 {
  %2 = icmp eq %"class.google::protobuf::Arena"* %0, null
  br i1 %2, label %3, label %13

3:                                                ; preds = %1
  %4 = tail call i8* @_Znwm(i64 48) #12
  %5 = bitcast i8* %4 to %"class.feedwire::webfeed::WebFeedMatcher"*
  %6 = bitcast i8* %4 to i32 (...)***
  %7 = getelementptr inbounds i8, i8* %4, i64 8
  %8 = bitcast i8* %7 to %"class.google::protobuf::Arena"**
  store %"class.google::protobuf::Arena"* null, %"class.google::protobuf::Arena"** %8, align 8
  store i32 (...)** bitcast (i8** getelementptr inbounds ({ [16 x i8*] }, { [16 x i8*] }* @_ZTVN8feedwire7webfeed14WebFeedMatcherE, i64 0, inrange i32 0, i64 2) to i32 (...)**), i32 (...)*** %6, align 8
  %9 = getelementptr inbounds i8, i8* %4, i64 16
  tail call void @llvm.memset.p0i8.i64(i8* align 8 %9, i8 0, i64 28, i1 false) #11
  %10 = load atomic i32, i32* getelementptr inbounds ({ { { { i32 } }, i32, i32, void ()* }, [1 x i8*] }, { { { { i32 } }, i32, i32, void ()* }, [1 x i8*] }* @scc_info_WebFeedMatcher_components_2ffeed_2fcore_2fproto_2fv2_2fwire_2fweb_5ffeed_5fmatcher_2eproto, i64 0, i32 0, i32 0, i32 0, i32 0) acquire, align 8
  %11 = icmp eq i32 %10, 0
  br i1 %11, label %31, label %12, !prof !2

12:                                               ; preds = %3
  tail call void @_ZN6google8protobuf8internal11InitSCCImplEPNS1_11SCCInfoBaseE(%"struct.google::protobuf::internal::SCCInfoBase"* bitcast ({ { { { i32 } }, i32, i32, void ()* }, [1 x i8*] }* @scc_info_WebFeedMatcher_components_2ffeed_2fcore_2fproto_2fv2_2fwire_2fweb_5ffeed_5fmatcher_2eproto to %"struct.google::protobuf::internal::SCCInfoBase"*)) #11
  br label %31

13:                                               ; preds = %1
  %14 = getelementptr inbounds %"class.google::protobuf::Arena", %"class.google::protobuf::Arena"* %0, i64 0, i32 4
  %15 = load i8*, i8** %14, align 8
  %16 = icmp eq i8* %15, null
  br i1 %16, label %18, label %17, !prof !2

17:                                               ; preds = %13
  tail call void @_ZNK6google8protobuf5Arena17OnArenaAllocationEPKSt9type_infom(%"class.google::protobuf::Arena"* nonnull %0, %"class.std::type_info"* null, i64 48) #11
  br label %18

18:                                               ; preds = %17, %13
  %19 = tail call i8* @_ZN6google8protobuf5Arena21AllocateAlignedNoHookEm(%"class.google::protobuf::Arena"* nonnull %0, i64 48) #11
  %20 = ptrtoint %"class.google::protobuf::Arena"* %0 to i64
  %21 = bitcast i8* %19 to %"class.feedwire::webfeed::WebFeedMatcher"*
  %22 = bitcast i8* %19 to i32 (...)***
  %23 = getelementptr inbounds i8, i8* %19, i64 8
  %24 = bitcast i8* %23 to i64*
  store i64 %20, i64* %24, align 8
  store i32 (...)** bitcast (i8** getelementptr inbounds ({ [16 x i8*] }, { [16 x i8*] }* @_ZTVN8feedwire7webfeed14WebFeedMatcherE, i64 0, inrange i32 0, i64 2) to i32 (...)**), i32 (...)*** %22, align 8
  %25 = getelementptr inbounds i8, i8* %19, i64 16
  %26 = bitcast i8* %25 to i64*
  store i64 %20, i64* %26, align 8
  %27 = getelementptr inbounds i8, i8* %19, i64 24
  tail call void @llvm.memset.p0i8.i64(i8* align 8 %27, i8 0, i64 20, i1 false) #11
  %28 = load atomic i32, i32* getelementptr inbounds ({ { { { i32 } }, i32, i32, void ()* }, [1 x i8*] }, { { { { i32 } }, i32, i32, void ()* }, [1 x i8*] }* @scc_info_WebFeedMatcher_components_2ffeed_2fcore_2fproto_2fv2_2fwire_2fweb_5ffeed_5fmatcher_2eproto, i64 0, i32 0, i32 0, i32 0, i32 0) acquire, align 8
  %29 = icmp eq i32 %28, 0
  br i1 %29, label %31, label %30, !prof !2

30:                                               ; preds = %18
  tail call void @_ZN6google8protobuf8internal11InitSCCImplEPNS1_11SCCInfoBaseE(%"struct.google::protobuf::internal::SCCInfoBase"* bitcast ({ { { { i32 } }, i32, i32, void ()* }, [1 x i8*] }* @scc_info_WebFeedMatcher_components_2ffeed_2fcore_2fproto_2fv2_2fwire_2fweb_5ffeed_5fmatcher_2eproto to %"struct.google::protobuf::internal::SCCInfoBase"*)) #11
  br label %31

31:                                               ; preds = %3, %12, %18, %30
  %32 = phi %"class.feedwire::webfeed::WebFeedMatcher"* [ %5, %3 ], [ %5, %12 ], [ %21, %18 ], [ %21, %30 ]
  ret %"class.feedwire::webfeed::WebFeedMatcher"* %32
}

; Function Attrs: inlinehint nounwind ssp uwtable
define linkonce_odr hidden %"class.feedwire::webfeed::WebFeedMatcher_Criteria"* @_ZNK8feedwire7webfeed23WebFeedMatcher_Criteria3NewEv(%"class.feedwire::webfeed::WebFeedMatcher_Criteria"*) unnamed_addr #8 comdat align 2 {
  %2 = tail call %"class.feedwire::webfeed::WebFeedMatcher_Criteria"* @_ZN6google8protobuf5Arena18CreateMaybeMessageIN8feedwire7webfeed23WebFeedMatcher_CriteriaEJEEEPT_PS1_DpOT0_(%"class.google::protobuf::Arena"* null) #11
  ret %"class.feedwire::webfeed::WebFeedMatcher_Criteria"* %2
}

; Function Attrs: nounwind ssp uwtable
define linkonce_odr hidden %"class.feedwire::webfeed::WebFeedMatcher_Criteria"* @_ZNK8feedwire7webfeed23WebFeedMatcher_Criteria3NewEPN6google8protobuf5ArenaE(%"class.feedwire::webfeed::WebFeedMatcher_Criteria"*, %"class.google::protobuf::Arena"*) unnamed_addr #0 comdat align 2 {
  %3 = tail call %"class.feedwire::webfeed::WebFeedMatcher_Criteria"* @_ZN6google8protobuf5Arena18CreateMaybeMessageIN8feedwire7webfeed23WebFeedMatcher_CriteriaEJEEEPT_PS1_DpOT0_(%"class.google::protobuf::Arena"* %1) #11
  ret %"class.feedwire::webfeed::WebFeedMatcher_Criteria"* %3
}

declare void @_ZNK6google8protobuf11MessageLite25InitializationErrorStringEv(%"class.std::__1::basic_string"* sret, %"class.google::protobuf::MessageLite"*) unnamed_addr #4

; Function Attrs: nounwind ssp uwtable
define linkonce_odr hidden i32 @_ZNK8feedwire7webfeed23WebFeedMatcher_Criteria13GetCachedSizeEv(%"class.feedwire::webfeed::WebFeedMatcher_Criteria"*) unnamed_addr #0 comdat align 2 {
  %2 = getelementptr inbounds %"class.feedwire::webfeed::WebFeedMatcher_Criteria", %"class.feedwire::webfeed::WebFeedMatcher_Criteria"* %0, i64 0, i32 3, i32 0, i32 0, i32 0, i32 0, i32 0, i32 0
  %3 = load atomic i32, i32* %2 monotonic, align 4
  ret i32 %3
}

; Function Attrs: nounwind ssp uwtable
define linkonce_odr hidden i8* @_ZNK6google8protobuf11MessageLite16InternalGetTableEv(%"class.google::protobuf::MessageLite"*) unnamed_addr #0 comdat align 2 {
  ret i8* null
}

; Function Attrs: inlinehint nounwind ssp uwtable
define linkonce_odr hidden %"class.feedwire::webfeed::WebFeedMatcher"* @_ZNK8feedwire7webfeed14WebFeedMatcher3NewEv(%"class.feedwire::webfeed::WebFeedMatcher"*) unnamed_addr #8 comdat align 2 {
  %2 = tail call %"class.feedwire::webfeed::WebFeedMatcher"* @_ZN6google8protobuf5Arena18CreateMaybeMessageIN8feedwire7webfeed14WebFeedMatcherEJEEEPT_PS1_DpOT0_(%"class.google::protobuf::Arena"* null) #11
  ret %"class.feedwire::webfeed::WebFeedMatcher"* %2
}

; Function Attrs: nounwind ssp uwtable
define linkonce_odr hidden %"class.feedwire::webfeed::WebFeedMatcher"* @_ZNK8feedwire7webfeed14WebFeedMatcher3NewEPN6google8protobuf5ArenaE(%"class.feedwire::webfeed::WebFeedMatcher"*, %"class.google::protobuf::Arena"*) unnamed_addr #0 comdat align 2 {
  %3 = tail call %"class.feedwire::webfeed::WebFeedMatcher"* @_ZN6google8protobuf5Arena18CreateMaybeMessageIN8feedwire7webfeed14WebFeedMatcherEJEEEPT_PS1_DpOT0_(%"class.google::protobuf::Arena"* %1) #11
  ret %"class.feedwire::webfeed::WebFeedMatcher"* %3
}

; Function Attrs: nounwind ssp uwtable
define linkonce_odr hidden i32 @_ZNK8feedwire7webfeed14WebFeedMatcher13GetCachedSizeEv(%"class.feedwire::webfeed::WebFeedMatcher"*) unnamed_addr #0 comdat align 2 {
  %2 = getelementptr inbounds %"class.feedwire::webfeed::WebFeedMatcher", %"class.feedwire::webfeed::WebFeedMatcher"* %0, i64 0, i32 2, i32 0, i32 0, i32 0, i32 0, i32 0, i32 0
  %3 = load atomic i32, i32* %2 monotonic, align 4
  ret i32 %3
}

declare void @_ZN6google8protobuf8internal13VerifyVersionEiiPKc(i32, i32, i8*) local_unnamed_addr #4

declare void @_ZN6google8protobuf8internal13OnShutdownRunEPFvPKvES3_(void (i8*)*, i8*) local_unnamed_addr #4

declare void @_ZN6google8protobuf8internal14DestroyMessageEPKv(i8*) #4

; Function Attrs: noinline nounwind ssp uwtable
define linkonce_odr hidden void @_ZN6google8protobuf8internal14ArenaStringPtr14CreateInstanceEPNS0_5ArenaEPKNSt3__112basic_stringIcNS5_11char_traitsIcEENS5_9allocatorIcEEEE(%"struct.google::protobuf::internal::ArenaStringPtr"*, %"class.google::protobuf::Arena"*, %"class.std::__1::basic_string"*) local_unnamed_addr #7 comdat align 2 {
  %4 = icmp eq %"class.google::protobuf::Arena"* %1, null
  br i1 %4, label %5, label %19

5:                                                ; preds = %3
  %6 = tail call i8* @_Znwm(i64 24) #12
  %7 = bitcast i8* %6 to %"class.std::__1::basic_string"*
  %8 = bitcast %"class.std::__1::basic_string"* %2 to %"struct.std::__1::basic_string<char, std::__1::char_traits<char>, std::__1::allocator<char> >::__short"*
  %9 = getelementptr inbounds %"struct.std::__1::basic_string<char, std::__1::char_traits<char>, std::__1::allocator<char> >::__short", %"struct.std::__1::basic_string<char, std::__1::char_traits<char>, std::__1::allocator<char> >::__short"* %8, i64 0, i32 1, i32 0
  %10 = load i8, i8* %9, align 1
  %11 = icmp slt i8 %10, 0
  br i1 %11, label %14, label %12

12:                                               ; preds = %5
  %13 = bitcast %"class.std::__1::basic_string"* %2 to i8*
  tail call void @llvm.memcpy.p0i8.p0i8.i64(i8* nonnull align 8 %6, i8* align 8 %13, i64 24, i1 false) #11
  br label %39

14:                                               ; preds = %5
  %15 = getelementptr inbounds %"class.std::__1::basic_string", %"class.std::__1::basic_string"* %2, i64 0, i32 0, i32 0, i32 0, i32 0, i32 0, i32 0
  %16 = load i8*, i8** %15, align 8
  %17 = getelementptr inbounds %"class.std::__1::basic_string", %"class.std::__1::basic_string"* %2, i64 0, i32 0, i32 0, i32 0, i32 0, i32 0, i32 1
  %18 = load i64, i64* %17, align 8
  tail call void @_ZNSt3__112basic_stringIcNS_11char_traitsIcEENS_9allocatorIcEEE25__init_copy_ctor_externalEPKcm(%"class.std::__1::basic_string"* nonnull %7, i8* %16, i64 %18) #11
  br label %39

19:                                               ; preds = %3
  %20 = getelementptr inbounds %"class.google::protobuf::Arena", %"class.google::protobuf::Arena"* %1, i64 0, i32 4
  %21 = load i8*, i8** %20, align 8
  %22 = icmp eq i8* %21, null
  br i1 %22, label %24, label %23, !prof !2

23:                                               ; preds = %19
  tail call void @_ZNK6google8protobuf5Arena17OnArenaAllocationEPKSt9type_infom(%"class.google::protobuf::Arena"* nonnull %1, %"class.std::type_info"* null, i64 24) #11
  br label %24

24:                                               ; preds = %23, %19
  %25 = getelementptr inbounds %"class.google::protobuf::Arena", %"class.google::protobuf::Arena"* %1, i64 0, i32 0
  %26 = tail call i8* @_ZN6google8protobuf8internal9ArenaImpl28AllocateAlignedAndAddCleanupEmPFvPvE(%"class.google::protobuf::internal::ArenaImpl"* %25, i64 24, void (i8*)* nonnull @_ZN6google8protobuf8internal21arena_destruct_objectINSt3__112basic_stringIcNS3_11char_traitsIcEENS3_9allocatorIcEEEEEEvPv) #11
  %27 = bitcast i8* %26 to %"class.std::__1::basic_string"*
  %28 = bitcast %"class.std::__1::basic_string"* %2 to %"struct.std::__1::basic_string<char, std::__1::char_traits<char>, std::__1::allocator<char> >::__short"*
  %29 = getelementptr inbounds %"struct.std::__1::basic_string<char, std::__1::char_traits<char>, std::__1::allocator<char> >::__short", %"struct.std::__1::basic_string<char, std::__1::char_traits<char>, std::__1::allocator<char> >::__short"* %28, i64 0, i32 1, i32 0
  %30 = load i8, i8* %29, align 1
  %31 = icmp slt i8 %30, 0
  br i1 %31, label %34, label %32

32:                                               ; preds = %24
  %33 = bitcast %"class.std::__1::basic_string"* %2 to i8*
  tail call void @llvm.memcpy.p0i8.p0i8.i64(i8* align 8 %26, i8* align 8 %33, i64 24, i1 false) #11
  br label %39

34:                                               ; preds = %24
  %35 = getelementptr inbounds %"class.std::__1::basic_string", %"class.std::__1::basic_string"* %2, i64 0, i32 0, i32 0, i32 0, i32 0, i32 0, i32 0
  %36 = load i8*, i8** %35, align 8
  %37 = getelementptr inbounds %"class.std::__1::basic_string", %"class.std::__1::basic_string"* %2, i64 0, i32 0, i32 0, i32 0, i32 0, i32 0, i32 1
  %38 = load i64, i64* %37, align 8
  tail call void @_ZNSt3__112basic_stringIcNS_11char_traitsIcEENS_9allocatorIcEEE25__init_copy_ctor_externalEPKcm(%"class.std::__1::basic_string"* %27, i8* %36, i64 %38) #11
  br label %39

39:                                               ; preds = %12, %14, %32, %34
  %40 = phi %"class.std::__1::basic_string"* [ %7, %12 ], [ %7, %14 ], [ %27, %32 ], [ %27, %34 ]
  %41 = getelementptr inbounds %"struct.google::protobuf::internal::ArenaStringPtr", %"struct.google::protobuf::internal::ArenaStringPtr"* %0, i64 0, i32 0
  store %"class.std::__1::basic_string"* %40, %"class.std::__1::basic_string"** %41, align 8
  ret void
}

; Function Attrs: nobuiltin nofree
declare noalias nonnull i8* @_Znwm(i64) local_unnamed_addr #9

; Function Attrs: argmemonly nounwind
declare void @llvm.memcpy.p0i8.p0i8.i64(i8* nocapture writeonly, i8* nocapture readonly, i64, i1 immarg) #2

declare void @_ZNSt3__112basic_stringIcNS_11char_traitsIcEENS_9allocatorIcEEE25__init_copy_ctor_externalEPKcm(%"class.std::__1::basic_string"*, i8*, i64) local_unnamed_addr #4

declare i8* @_ZN6google8protobuf5Arena21AllocateAlignedNoHookEm(%"class.google::protobuf::Arena"*, i64) local_unnamed_addr #4

declare i8* @_ZN6google8protobuf8internal9ArenaImpl28AllocateAlignedAndAddCleanupEmPFvPvE(%"class.google::protobuf::internal::ArenaImpl"*, i64, void (i8*)*) local_unnamed_addr #4

; Function Attrs: nounwind ssp uwtable
define linkonce_odr hidden void @_ZN6google8protobuf8internal21arena_destruct_objectINSt3__112basic_stringIcNS3_11char_traitsIcEENS3_9allocatorIcEEEEEEvPv(i8*) #0 comdat {
  %2 = getelementptr inbounds i8, i8* %0, i64 23
  %3 = load i8, i8* %2, align 1
  %4 = icmp slt i8 %3, 0
  br i1 %4, label %5, label %8

5:                                                ; preds = %1
  %6 = bitcast i8* %0 to i8**
  %7 = load i8*, i8** %6, align 8
  tail call void @_ZdlPv(i8* %7) #12
  br label %8

8:                                                ; preds = %1, %5
  ret void
}

declare void @_ZNK6google8protobuf5Arena17OnArenaAllocationEPKSt9type_infom(%"class.google::protobuf::Arena"*, %"class.std::type_info"*, i64) local_unnamed_addr #4

declare dereferenceable(24) %"class.std::__1::basic_string"* @_ZNSt3__112basic_stringIcNS_11char_traitsIcEENS_9allocatorIcEEE17__assign_no_aliasILb1EEERS5_PKcm(%"class.std::__1::basic_string"*, i8*, i64) local_unnamed_addr #4

declare dereferenceable(24) %"class.std::__1::basic_string"* @_ZNSt3__112basic_stringIcNS_11char_traitsIcEENS_9allocatorIcEEE17__assign_no_aliasILb0EEERS5_PKcm(%"class.std::__1::basic_string"*, i8*, i64) local_unnamed_addr #4

declare void @_ZN6google8protobuf8internal11InitSCCImplEPNS1_11SCCInfoBaseE(%"struct.google::protobuf::internal::SCCInfoBase"*) local_unnamed_addr #4

declare { i8*, i8 } @_ZN6google8protobuf8internal18EpsCopyInputStream12DoneFallbackEPKci(%"class.google::protobuf::internal::EpsCopyInputStream"*, i8*, i32) local_unnamed_addr #4

declare { i8*, i32 } @_ZN6google8protobuf8internal15ReadTagFallbackEPKcj(i8*, i32) local_unnamed_addr #4

declare { i8*, i64 } @_ZN6google8protobuf8internal17VarintParseSlow64EPKcj(i8*, i32) local_unnamed_addr #4

declare zeroext i1 @_ZN6google8protobuf8internal10VerifyUTF8ENS0_11StringPieceEPKc(i8*, i64, i8*) local_unnamed_addr #4

declare i8* @_ZN6google8protobuf2io19EpsCopyOutputStream19EnsureSpaceFallbackEPh(%"class.google::protobuf::io::EpsCopyOutputStream"*, i8*) local_unnamed_addr #4

declare i8* @_ZN6google8protobuf2io19EpsCopyOutputStream30WriteStringMaybeAliasedOutlineEjRKNSt3__112basic_stringIcNS3_11char_traitsIcEENS3_9allocatorIcEEEEPh(%"class.google::protobuf::io::EpsCopyOutputStream"*, i32, %"class.std::__1::basic_string"* dereferenceable(24), i8*) local_unnamed_addr #4

declare i8* @_ZN6google8protobuf2io19EpsCopyOutputStream16WriteRawFallbackEPKviPh(%"class.google::protobuf::io::EpsCopyOutputStream"*, i8*, i32, i8*) local_unnamed_addr #4

; Function Attrs: nounwind readnone speculatable
declare i32 @llvm.ctlz.i32(i32, i1 immarg) #10

declare void @_ZN6google8protobuf8internal20RepeatedPtrFieldBase7ReserveEi(%"class.google::protobuf::internal::RepeatedPtrFieldBase"*, i32) local_unnamed_addr #4

declare void @_ZN6google8protobuf11StringPiece18LogFatalSizeTooBigEmPKc(i64, i8*) local_unnamed_addr #4

; Function Attrs: noinline nounwind ssp uwtable
define linkonce_odr hidden %"class.std::__1::basic_string"* @_ZN6google8protobuf8internal16InternalMetadata27mutable_unknown_fields_slowINSt3__112basic_stringIcNS4_11char_traitsIcEENS4_9allocatorIcEEEEEEPT_v(%"class.google::protobuf::internal::InternalMetadata"*) local_unnamed_addr #7 comdat align 2 {
  %2 = bitcast %"class.google::protobuf::internal::InternalMetadata"* %0 to i64*
  %3 = load i64, i64* %2, align 8
  %4 = and i64 %3, 1
  %5 = icmp eq i64 %4, 0
  %6 = and i64 %3, -2
  br i1 %5, label %11, label %7, !prof !2

7:                                                ; preds = %1
  %8 = inttoptr i64 %6 to %"struct.google::protobuf::internal::InternalMetadata::ContainerBase"*
  %9 = getelementptr inbounds %"struct.google::protobuf::internal::InternalMetadata::ContainerBase", %"struct.google::protobuf::internal::InternalMetadata::ContainerBase"* %8, i64 0, i32 0
  %10 = load %"class.google::protobuf::Arena"*, %"class.google::protobuf::Arena"** %9, align 8
  br label %13

11:                                               ; preds = %1
  %12 = inttoptr i64 %6 to %"class.google::protobuf::Arena"*
  br label %13

13:                                               ; preds = %7, %11
  %14 = phi %"class.google::protobuf::Arena"* [ %10, %7 ], [ %12, %11 ]
  %15 = icmp eq %"class.google::protobuf::Arena"* %14, null
  br i1 %15, label %16, label %18

16:                                               ; preds = %13
  %17 = tail call i8* @_Znwm(i64 32) #12
  tail call void @llvm.memset.p0i8.i64(i8* nonnull align 16 %17, i8 0, i64 32, i1 false) #11
  br label %26

18:                                               ; preds = %13
  %19 = getelementptr inbounds %"class.google::protobuf::Arena", %"class.google::protobuf::Arena"* %14, i64 0, i32 4
  %20 = load i8*, i8** %19, align 8
  %21 = icmp eq i8* %20, null
  br i1 %21, label %23, label %22, !prof !2

22:                                               ; preds = %18
  tail call void @_ZNK6google8protobuf5Arena17OnArenaAllocationEPKSt9type_infom(%"class.google::protobuf::Arena"* nonnull %14, %"class.std::type_info"* null, i64 32) #11
  br label %23

23:                                               ; preds = %22, %18
  %24 = getelementptr inbounds %"class.google::protobuf::Arena", %"class.google::protobuf::Arena"* %14, i64 0, i32 0
  %25 = tail call i8* @_ZN6google8protobuf8internal9ArenaImpl28AllocateAlignedAndAddCleanupEmPFvPvE(%"class.google::protobuf::internal::ArenaImpl"* %24, i64 32, void (i8*)* nonnull @_ZN6google8protobuf8internal21arena_destruct_objectINS1_16InternalMetadata9ContainerINSt3__112basic_stringIcNS5_11char_traitsIcEENS5_9allocatorIcEEEEEEEEvPv) #11
  tail call void @llvm.memset.p0i8.i64(i8* align 8 %25, i8 0, i64 32, i1 false) #11
  br label %26

26:                                               ; preds = %16, %23
  %27 = phi i8* [ %17, %16 ], [ %25, %23 ]
  %28 = getelementptr inbounds %"class.google::protobuf::internal::InternalMetadata", %"class.google::protobuf::internal::InternalMetadata"* %0, i64 0, i32 0
  %29 = ptrtoint i8* %27 to i64
  %30 = or i64 %29, 1
  %31 = inttoptr i64 %30 to i8*
  store i8* %31, i8** %28, align 8
  %32 = bitcast i8* %27 to %"class.google::protobuf::Arena"**
  store %"class.google::protobuf::Arena"* %14, %"class.google::protobuf::Arena"** %32, align 8
  %33 = getelementptr inbounds i8, i8* %27, i64 8
  %34 = bitcast i8* %33 to %"class.std::__1::basic_string"*
  ret %"class.std::__1::basic_string"* %34
}

; Function Attrs: argmemonly nounwind
declare void @llvm.memset.p0i8.i64(i8* nocapture writeonly, i8, i64, i1 immarg) #2

; Function Attrs: nounwind ssp uwtable
define linkonce_odr hidden void @_ZN6google8protobuf8internal21arena_destruct_objectINS1_16InternalMetadata9ContainerINSt3__112basic_stringIcNS5_11char_traitsIcEENS5_9allocatorIcEEEEEEEEvPv(i8*) #0 comdat {
  %2 = getelementptr inbounds i8, i8* %0, i64 31
  %3 = load i8, i8* %2, align 1
  %4 = icmp slt i8 %3, 0
  br i1 %4, label %5, label %9

5:                                                ; preds = %1
  %6 = getelementptr inbounds i8, i8* %0, i64 8
  %7 = bitcast i8* %6 to i8**
  %8 = load i8*, i8** %7, align 8
  tail call void @_ZdlPv(i8* %8) #12
  br label %9

9:                                                ; preds = %1, %5
  ret void
}

declare dereferenceable(24) %"class.std::__1::basic_string"* @_ZNSt3__112basic_stringIcNS_11char_traitsIcEENS_9allocatorIcEEE6appendEPKcm(%"class.std::__1::basic_string"*, i8*, i64) local_unnamed_addr #4

declare { i8*, i32 } @_ZN6google8protobuf8internal16ReadSizeFallbackEPKcj(i8*, i32) local_unnamed_addr #4

declare i8** @_ZN6google8protobuf8internal20RepeatedPtrFieldBase14InternalExtendEi(%"class.google::protobuf::internal::RepeatedPtrFieldBase"*, i32) local_unnamed_addr #4

; Function Attrs: noinline nounwind ssp uwtable
define linkonce_odr hidden void @_ZN6google8protobuf8internal18GenericTypeHandlerIN8feedwire7webfeed23WebFeedMatcher_CriteriaEE5MergeERKS5_PS5_(%"class.feedwire::webfeed::WebFeedMatcher_Criteria"* dereferenceable(40), %"class.feedwire::webfeed::WebFeedMatcher_Criteria"*) local_unnamed_addr #7 comdat align 2 {
  tail call void @_ZN8feedwire7webfeed23WebFeedMatcher_Criteria9MergeFromERKS1_(%"class.feedwire::webfeed::WebFeedMatcher_Criteria"* %1, %"class.feedwire::webfeed::WebFeedMatcher_Criteria"* dereferenceable(40) %0)
  ret void
}

attributes #0 = { nounwind ssp uwtable "correctly-rounded-divide-sqrt-fp-math"="false" "disable-tail-calls"="false" "less-precise-fpmad"="false" "min-legal-vector-width"="0" "no-frame-pointer-elim"="false" "no-frame-pointer-elim-non-leaf" "no-infs-fp-math"="false" "no-jump-tables"="false" "no-nans-fp-math"="false" "no-signed-zeros-fp-math"="false" "no-trapping-math"="false" "null-pointer-is-valid"="true" "stack-protector-buffer-size"="4" "target-cpu"="x86-64" "target-features"="+cx8,+fxsr,+mmx,+sse,+sse2,+sse3,+x87" "unsafe-fp-math"="false" "use-soft-float"="false" }
attributes #1 = { norecurse nounwind readnone ssp uwtable "correctly-rounded-divide-sqrt-fp-math"="false" "disable-tail-calls"="false" "less-precise-fpmad"="false" "min-legal-vector-width"="0" "no-frame-pointer-elim"="false" "no-frame-pointer-elim-non-leaf" "no-infs-fp-math"="false" "no-jump-tables"="false" "no-nans-fp-math"="false" "no-signed-zeros-fp-math"="false" "no-trapping-math"="false" "null-pointer-is-valid"="true" "stack-protector-buffer-size"="4" "target-cpu"="x86-64" "target-features"="+cx8,+fxsr,+mmx,+sse,+sse2,+sse3,+x87" "unsafe-fp-math"="false" "use-soft-float"="false" }
attributes #2 = { argmemonly nounwind }
attributes #3 = { nofree nounwind }
attributes #4 = { "correctly-rounded-divide-sqrt-fp-math"="false" "disable-tail-calls"="false" "less-precise-fpmad"="false" "no-frame-pointer-elim"="false" "no-frame-pointer-elim-non-leaf" "no-infs-fp-math"="false" "no-nans-fp-math"="false" "no-signed-zeros-fp-math"="false" "no-trapping-math"="false" "null-pointer-is-valid"="true" "stack-protector-buffer-size"="4" "target-cpu"="x86-64" "target-features"="+cx8,+fxsr,+mmx,+sse,+sse2,+sse3,+x87" "unsafe-fp-math"="false" "use-soft-float"="false" }
attributes #5 = { nobuiltin nounwind "correctly-rounded-divide-sqrt-fp-math"="false" "disable-tail-calls"="false" "less-precise-fpmad"="false" "no-frame-pointer-elim"="false" "no-frame-pointer-elim-non-leaf" "no-infs-fp-math"="false" "no-nans-fp-math"="false" "no-signed-zeros-fp-math"="false" "no-trapping-math"="false" "null-pointer-is-valid"="true" "stack-protector-buffer-size"="4" "target-cpu"="x86-64" "target-features"="+cx8,+fxsr,+mmx,+sse,+sse2,+sse3,+x87" "unsafe-fp-math"="false" "use-soft-float"="false" }
attributes #6 = { nofree norecurse nounwind ssp uwtable "correctly-rounded-divide-sqrt-fp-math"="false" "disable-tail-calls"="false" "less-precise-fpmad"="false" "min-legal-vector-width"="0" "no-frame-pointer-elim"="false" "no-frame-pointer-elim-non-leaf" "no-infs-fp-math"="false" "no-jump-tables"="false" "no-nans-fp-math"="false" "no-signed-zeros-fp-math"="false" "no-trapping-math"="false" "null-pointer-is-valid"="true" "stack-protector-buffer-size"="4" "target-cpu"="x86-64" "target-features"="+cx8,+fxsr,+mmx,+sse,+sse2,+sse3,+x87" "unsafe-fp-math"="false" "use-soft-float"="false" }
attributes #7 = { noinline nounwind ssp uwtable "correctly-rounded-divide-sqrt-fp-math"="false" "disable-tail-calls"="false" "less-precise-fpmad"="false" "min-legal-vector-width"="0" "no-frame-pointer-elim"="false" "no-frame-pointer-elim-non-leaf" "no-infs-fp-math"="false" "no-jump-tables"="false" "no-nans-fp-math"="false" "no-signed-zeros-fp-math"="false" "no-trapping-math"="false" "null-pointer-is-valid"="true" "stack-protector-buffer-size"="4" "target-cpu"="x86-64" "target-features"="+cx8,+fxsr,+mmx,+sse,+sse2,+sse3,+x87" "unsafe-fp-math"="false" "use-soft-float"="false" }
attributes #8 = { inlinehint nounwind ssp uwtable "correctly-rounded-divide-sqrt-fp-math"="false" "disable-tail-calls"="false" "less-precise-fpmad"="false" "min-legal-vector-width"="0" "no-frame-pointer-elim"="false" "no-frame-pointer-elim-non-leaf" "no-infs-fp-math"="false" "no-jump-tables"="false" "no-nans-fp-math"="false" "no-signed-zeros-fp-math"="false" "no-trapping-math"="false" "null-pointer-is-valid"="true" "stack-protector-buffer-size"="4" "target-cpu"="x86-64" "target-features"="+cx8,+fxsr,+mmx,+sse,+sse2,+sse3,+x87" "unsafe-fp-math"="false" "use-soft-float"="false" }
attributes #9 = { nobuiltin nofree "correctly-rounded-divide-sqrt-fp-math"="false" "disable-tail-calls"="false" "less-precise-fpmad"="false" "no-frame-pointer-elim"="false" "no-frame-pointer-elim-non-leaf" "no-infs-fp-math"="false" "no-nans-fp-math"="false" "no-signed-zeros-fp-math"="false" "no-trapping-math"="false" "null-pointer-is-valid"="true" "stack-protector-buffer-size"="4" "target-cpu"="x86-64" "target-features"="+cx8,+fxsr,+mmx,+sse,+sse2,+sse3,+x87" "unsafe-fp-math"="false" "use-soft-float"="false" }
attributes #10 = { nounwind readnone speculatable }
attributes #11 = { nounwind }
attributes #12 = { builtin nounwind }

!llvm.module.flags = !{!0, !1}

!0 = !{i32 1, !"wchar_size", i32 4}
!1 = !{i32 7, !"PIC Level", i32 2}
!2 = !{!"branch_weights", i32 2000, i32 1}
!3 = !{!"branch_weights", i32 1, i32 1048575}
!4 = !{!"branch_weights", i32 1, i32 2000}
!5 = !{!"branch_weights", i32 2002, i32 2000}
!6 = !{i32 0, i32 33}
!7 = !{!"branch_weights", i32 2000, i32 2002}
