; ModuleID = '../../extensions/browser/api/declarative_webrequest/webrequest_constants.cc'
source_filename = "../../extensions/browser/api/declarative_webrequest/webrequest_constants.cc"
target datalayout = "e-m:e-i64:64-f80:128-n8:16:32:64-S128"
target triple = "x86_64-unknown-linux-gnu"

@_ZN10extensions32declarative_webrequest_constants10kOnRequestE = hidden local_unnamed_addr constant [32 x i8] c"declarativeWebRequest.onRequest\00", align 16
@_ZN10extensions32declarative_webrequest_constants10kOnMessageE = hidden local_unnamed_addr constant [32 x i8] c"declarativeWebRequest.onMessage\00", align 16
@_ZN10extensions32declarative_webrequest_constants17kAgeLowerBoundKeyE = hidden local_unnamed_addr constant [14 x i8] c"ageLowerBound\00", align 1
@_ZN10extensions32declarative_webrequest_constants17kAgeUpperBoundKeyE = hidden local_unnamed_addr constant [14 x i8] c"ageUpperBound\00", align 1
@_ZN10extensions32declarative_webrequest_constants10kCookieKeyE = hidden local_unnamed_addr constant [7 x i8] c"cookie\00", align 1
@_ZN10extensions32declarative_webrequest_constants15kContentTypeKeyE = hidden local_unnamed_addr constant [12 x i8] c"contentType\00", align 1
@_ZN10extensions32declarative_webrequest_constants37kDeprecatedFirstPartyForCookiesUrlKeyE = hidden local_unnamed_addr constant [24 x i8] c"firstPartyForCookiesUrl\00", align 16
@_ZN10extensions32declarative_webrequest_constants24kDeprecatedThirdPartyKeyE = hidden local_unnamed_addr constant [21 x i8] c"thirdPartyForCookies\00", align 16
@_ZN10extensions32declarative_webrequest_constants10kDomainKeyE = hidden local_unnamed_addr constant [7 x i8] c"domain\00", align 1
@_ZN10extensions32declarative_webrequest_constants22kExcludeContentTypeKeyE = hidden local_unnamed_addr constant [19 x i8] c"excludeContentType\00", align 16
@_ZN10extensions32declarative_webrequest_constants25kExcludeRequestHeadersKeyE = hidden local_unnamed_addr constant [22 x i8] c"excludeRequestHeaders\00", align 16
@_ZN10extensions32declarative_webrequest_constants26kExcludeResponseHeadersKeyE = hidden local_unnamed_addr constant [23 x i8] c"excludeResponseHeaders\00", align 16
@_ZN10extensions32declarative_webrequest_constants11kExpiresKeyE = hidden local_unnamed_addr constant [8 x i8] c"expires\00", align 1
@_ZN10extensions32declarative_webrequest_constants10kFilterKeyE = hidden local_unnamed_addr constant [7 x i8] c"filter\00", align 1
@_ZN10extensions32declarative_webrequest_constants8kFromKeyE = hidden local_unnamed_addr constant [5 x i8] c"from\00", align 1
@_ZN10extensions32declarative_webrequest_constants12kHttpOnlyKeyE = hidden local_unnamed_addr constant [9 x i8] c"httpOnly\00", align 1
@_ZN10extensions32declarative_webrequest_constants10kHasTagKeyE = hidden local_unnamed_addr constant [7 x i8] c"hasTag\00", align 1
@_ZN10extensions32declarative_webrequest_constants16kInstanceTypeKeyE = hidden local_unnamed_addr constant [13 x i8] c"instanceType\00", align 1
@_ZN10extensions32declarative_webrequest_constants21kLowerPriorityThanKeyE = hidden local_unnamed_addr constant [18 x i8] c"lowerPriorityThan\00", align 16
@_ZN10extensions32declarative_webrequest_constants10kMaxAgeKeyE = hidden local_unnamed_addr constant [7 x i8] c"maxAge\00", align 1
@_ZN10extensions32declarative_webrequest_constants11kMessageKeyE = hidden local_unnamed_addr constant [8 x i8] c"message\00", align 1
@_ZN10extensions32declarative_webrequest_constants16kModificationKeyE = hidden local_unnamed_addr constant [13 x i8] c"modification\00", align 1
@_ZN10extensions32declarative_webrequest_constants16kNameContainsKeyE = hidden local_unnamed_addr constant [13 x i8] c"nameContains\00", align 1
@_ZN10extensions32declarative_webrequest_constants14kNameEqualsKeyE = hidden local_unnamed_addr constant [11 x i8] c"nameEquals\00", align 1
@_ZN10extensions32declarative_webrequest_constants8kNameKeyE = hidden local_unnamed_addr constant [5 x i8] c"name\00", align 1
@_ZN10extensions32declarative_webrequest_constants14kNamePrefixKeyE = hidden local_unnamed_addr constant [11 x i8] c"namePrefix\00", align 1
@_ZN10extensions32declarative_webrequest_constants14kNameSuffixKeyE = hidden local_unnamed_addr constant [11 x i8] c"nameSuffix\00", align 1
@_ZN10extensions32declarative_webrequest_constants8kPathKeyE = hidden local_unnamed_addr constant [5 x i8] c"path\00", align 1
@_ZN10extensions32declarative_webrequest_constants15kRedirectUrlKeyE = hidden local_unnamed_addr constant [12 x i8] c"redirectUrl\00", align 1
@_ZN10extensions32declarative_webrequest_constants18kRequestHeadersKeyE = hidden local_unnamed_addr constant [15 x i8] c"requestHeaders\00", align 1
@_ZN10extensions32declarative_webrequest_constants16kResourceTypeKeyE = hidden local_unnamed_addr constant [13 x i8] c"resourceType\00", align 1
@_ZN10extensions32declarative_webrequest_constants19kResponseHeadersKeyE = hidden local_unnamed_addr constant [16 x i8] c"responseHeaders\00", align 16
@_ZN10extensions32declarative_webrequest_constants10kSecureKeyE = hidden local_unnamed_addr constant [7 x i8] c"secure\00", align 1
@_ZN10extensions32declarative_webrequest_constants17kSessionCookieKeyE = hidden local_unnamed_addr constant [14 x i8] c"sessionCookie\00", align 1
@_ZN10extensions32declarative_webrequest_constants10kStagesKeyE = hidden local_unnamed_addr constant [7 x i8] c"stages\00", align 1
@_ZN10extensions32declarative_webrequest_constants6kToKeyE = hidden local_unnamed_addr constant [3 x i8] c"to\00", align 1
@_ZN10extensions32declarative_webrequest_constants7kUrlKeyE = hidden local_unnamed_addr constant [4 x i8] c"url\00", align 1
@_ZN10extensions32declarative_webrequest_constants17kValueContainsKeyE = hidden local_unnamed_addr constant [14 x i8] c"valueContains\00", align 1
@_ZN10extensions32declarative_webrequest_constants15kValueEqualsKeyE = hidden local_unnamed_addr constant [12 x i8] c"valueEquals\00", align 1
@_ZN10extensions32declarative_webrequest_constants9kValueKeyE = hidden local_unnamed_addr constant [6 x i8] c"value\00", align 1
@_ZN10extensions32declarative_webrequest_constants15kValuePrefixKeyE = hidden local_unnamed_addr constant [12 x i8] c"valuePrefix\00", align 1
@_ZN10extensions32declarative_webrequest_constants15kValueSuffixKeyE = hidden local_unnamed_addr constant [12 x i8] c"valueSuffix\00", align 1
@_ZN10extensions32declarative_webrequest_constants20kOnBeforeRequestEnumE = hidden local_unnamed_addr constant [16 x i8] c"onBeforeRequest\00", align 16
@_ZN10extensions32declarative_webrequest_constants24kOnBeforeSendHeadersEnumE = hidden local_unnamed_addr constant [20 x i8] c"onBeforeSendHeaders\00", align 16
@_ZN10extensions32declarative_webrequest_constants22kOnHeadersReceivedEnumE = hidden local_unnamed_addr constant [18 x i8] c"onHeadersReceived\00", align 16
@_ZN10extensions32declarative_webrequest_constants19kOnAuthRequiredEnumE = hidden local_unnamed_addr constant [15 x i8] c"onAuthRequired\00", align 1
@_ZN10extensions32declarative_webrequest_constants21kAddRequestCookieTypeE = hidden local_unnamed_addr constant [39 x i8] c"declarativeWebRequest.AddRequestCookie\00", align 16
@_ZN10extensions32declarative_webrequest_constants22kAddResponseCookieTypeE = hidden local_unnamed_addr constant [40 x i8] c"declarativeWebRequest.AddResponseCookie\00", align 16
@_ZN10extensions32declarative_webrequest_constants22kAddResponseHeaderTypeE = hidden local_unnamed_addr constant [40 x i8] c"declarativeWebRequest.AddResponseHeader\00", align 16
@_ZN10extensions32declarative_webrequest_constants18kCancelRequestTypeE = hidden local_unnamed_addr constant [36 x i8] c"declarativeWebRequest.CancelRequest\00", align 16
@_ZN10extensions32declarative_webrequest_constants22kEditRequestCookieTypeE = hidden local_unnamed_addr constant [40 x i8] c"declarativeWebRequest.EditRequestCookie\00", align 16
@_ZN10extensions32declarative_webrequest_constants23kEditResponseCookieTypeE = hidden local_unnamed_addr constant [41 x i8] c"declarativeWebRequest.EditResponseCookie\00", align 16
@_ZN10extensions32declarative_webrequest_constants16kIgnoreRulesTypeE = hidden local_unnamed_addr constant [34 x i8] c"declarativeWebRequest.IgnoreRules\00", align 16
@_ZN10extensions32declarative_webrequest_constants20kRedirectRequestTypeE = hidden local_unnamed_addr constant [38 x i8] c"declarativeWebRequest.RedirectRequest\00", align 16
@_ZN10extensions32declarative_webrequest_constants20kRedirectByRegExTypeE = hidden local_unnamed_addr constant [38 x i8] c"declarativeWebRequest.RedirectByRegEx\00", align 16
@_ZN10extensions32declarative_webrequest_constants28kRedirectToEmptyDocumentTypeE = hidden local_unnamed_addr constant [46 x i8] c"declarativeWebRequest.RedirectToEmptyDocument\00", align 16
@_ZN10extensions32declarative_webrequest_constants31kRedirectToTransparentImageTypeE = hidden local_unnamed_addr constant [49 x i8] c"declarativeWebRequest.RedirectToTransparentImage\00", align 16
@_ZN10extensions32declarative_webrequest_constants24kRemoveRequestCookieTypeE = hidden local_unnamed_addr constant [42 x i8] c"declarativeWebRequest.RemoveRequestCookie\00", align 16
@_ZN10extensions32declarative_webrequest_constants24kRemoveRequestHeaderTypeE = hidden local_unnamed_addr constant [42 x i8] c"declarativeWebRequest.RemoveRequestHeader\00", align 16
@_ZN10extensions32declarative_webrequest_constants25kRemoveResponseCookieTypeE = hidden local_unnamed_addr constant [43 x i8] c"declarativeWebRequest.RemoveResponseCookie\00", align 16
@_ZN10extensions32declarative_webrequest_constants25kRemoveResponseHeaderTypeE = hidden local_unnamed_addr constant [43 x i8] c"declarativeWebRequest.RemoveResponseHeader\00", align 16
@_ZN10extensions32declarative_webrequest_constants19kRequestMatcherTypeE = hidden local_unnamed_addr constant [37 x i8] c"declarativeWebRequest.RequestMatcher\00", align 16
@_ZN10extensions32declarative_webrequest_constants27kSendMessageToExtensionTypeE = hidden local_unnamed_addr constant [45 x i8] c"declarativeWebRequest.SendMessageToExtension\00", align 16
@_ZN10extensions32declarative_webrequest_constants21kSetRequestHeaderTypeE = hidden local_unnamed_addr constant [39 x i8] c"declarativeWebRequest.SetRequestHeader\00", align 16

!llvm.module.flags = !{!0, !1}

!0 = !{i32 1, !"wchar_size", i32 4}
!1 = !{i32 7, !"PIC Level", i32 2}
