; ModuleID = '../../third_party/webrtc/pc/webrtc_sdp.cc'
source_filename = "../../third_party/webrtc/pc/webrtc_sdp.cc"
target datalayout = "e-m:e-i64:64-f80:128-n8:16:32:64-S128"
target triple = "x86_64-unknown-linux-gnu"

module asm ".symver exp, exp@GLIBC_2.2.5"
module asm ".symver exp2, exp2@GLIBC_2.2.5"
module asm ".symver exp2f, exp2f@GLIBC_2.2.5"
module asm ".symver expf, expf@GLIBC_2.2.5"
module asm ".symver lgamma, lgamma@GLIBC_2.2.5"
module asm ".symver lgammaf, lgammaf@GLIBC_2.2.5"
module asm ".symver lgammal, lgammal@GLIBC_2.2.5"
module asm ".symver log, log@GLIBC_2.2.5"
module asm ".symver log2, log2@GLIBC_2.2.5"
module asm ".symver log2f, log2f@GLIBC_2.2.5"
module asm ".symver logf, logf@GLIBC_2.2.5"
module asm ".symver pow, pow@GLIBC_2.2.5"
module asm ".symver powf, powf@GLIBC_2.2.5"

%"struct.webrtc::StaticPayloadAudioCodec" = type { i8*, i32, i64 }
%"class.std::__1::locale::id" = type <{ %"struct.std::__1::once_flag", i32, [4 x i8] }>
%"struct.std::__1::once_flag" = type { i64 }
%"struct.std::__1::piecewise_construct_t" = type { i8 }
%"class.std::__1::vector" = type { %"class.std::__1::__vector_base" }
%"class.std::__1::__vector_base" = type { %"class.std::__1::basic_string"*, %"class.std::__1::basic_string"*, %"class.std::__1::__compressed_pair.1" }
%"class.std::__1::__compressed_pair.1" = type { %"struct.std::__1::__compressed_pair_elem.2" }
%"struct.std::__1::__compressed_pair_elem.2" = type { %"class.std::__1::basic_string"* }
%"class.std::__1::basic_string" = type { %"class.std::__1::__compressed_pair" }
%"class.std::__1::__compressed_pair" = type { %"struct.std::__1::__compressed_pair_elem" }
%"struct.std::__1::__compressed_pair_elem" = type { %"struct.std::__1::basic_string<char, std::__1::char_traits<char>, std::__1::allocator<char> >::__rep" }
%"struct.std::__1::basic_string<char, std::__1::char_traits<char>, std::__1::allocator<char> >::__rep" = type { %union.anon }
%union.anon = type { %"struct.std::__1::basic_string<char, std::__1::char_traits<char>, std::__1::allocator<char> >::__long" }
%"struct.std::__1::basic_string<char, std::__1::char_traits<char>, std::__1::allocator<char> >::__long" = type { i8*, i64, i64 }
%"class.std::__1::vector.6" = type { %"class.std::__1::__vector_base.7" }
%"class.std::__1::__vector_base.7" = type { %"struct.cricket::RidDescription"*, %"struct.cricket::RidDescription"*, %"class.std::__1::__compressed_pair.23" }
%"struct.cricket::RidDescription" = type { %"class.std::__1::basic_string", i32, %"class.std::__1::vector.8", %"class.std::__1::map" }
%"class.std::__1::vector.8" = type { %"class.std::__1::__vector_base.9" }
%"class.std::__1::__vector_base.9" = type { i32*, i32*, %"class.std::__1::__compressed_pair.10" }
%"class.std::__1::__compressed_pair.10" = type { %"struct.std::__1::__compressed_pair_elem.11" }
%"struct.std::__1::__compressed_pair_elem.11" = type { i32* }
%"class.std::__1::map" = type { %"class.std::__1::__tree" }
%"class.std::__1::__tree" = type { %"class.std::__1::__tree_end_node"*, %"class.std::__1::__compressed_pair.15", %"class.std::__1::__compressed_pair.20" }
%"class.std::__1::__tree_end_node" = type { %"class.std::__1::__tree_node_base"* }
%"class.std::__1::__tree_node_base" = type <{ %"class.std::__1::__tree_end_node", %"class.std::__1::__tree_node_base"*, %"class.std::__1::__tree_end_node"*, i8, [7 x i8] }>
%"class.std::__1::__compressed_pair.15" = type { %"struct.std::__1::__compressed_pair_elem.16" }
%"struct.std::__1::__compressed_pair_elem.16" = type { %"class.std::__1::__tree_end_node" }
%"class.std::__1::__compressed_pair.20" = type { %"struct.std::__1::__compressed_pair_elem.21" }
%"struct.std::__1::__compressed_pair_elem.21" = type { i64 }
%"class.std::__1::__compressed_pair.23" = type { %"struct.std::__1::__compressed_pair_elem.24" }
%"struct.std::__1::__compressed_pair_elem.24" = type { %"struct.cricket::RidDescription"* }
%"class.std::__1::vector.28" = type { %"class.std::__1::__vector_base.29" }
%"class.std::__1::__vector_base.29" = type { %"struct.cricket::StreamParams"*, %"struct.cricket::StreamParams"*, %"class.std::__1::__compressed_pair.44" }
%"struct.cricket::StreamParams" = type { %"class.std::__1::basic_string", %"class.std::__1::basic_string", %"class.std::__1::vector.30", %"class.std::__1::vector.37", %"class.std::__1::basic_string", %"class.std::__1::vector", %"class.std::__1::vector.6" }
%"class.std::__1::vector.30" = type { %"class.std::__1::__vector_base.31" }
%"class.std::__1::__vector_base.31" = type { i32*, i32*, %"class.std::__1::__compressed_pair.32" }
%"class.std::__1::__compressed_pair.32" = type { %"struct.std::__1::__compressed_pair_elem.33" }
%"struct.std::__1::__compressed_pair_elem.33" = type { i32* }
%"class.std::__1::vector.37" = type { %"class.std::__1::__vector_base.38" }
%"class.std::__1::__vector_base.38" = type { %"struct.cricket::SsrcGroup"*, %"struct.cricket::SsrcGroup"*, %"class.std::__1::__compressed_pair.39" }
%"struct.cricket::SsrcGroup" = type { %"class.std::__1::basic_string", %"class.std::__1::vector.30" }
%"class.std::__1::__compressed_pair.39" = type { %"struct.std::__1::__compressed_pair_elem.40" }
%"struct.std::__1::__compressed_pair_elem.40" = type { %"struct.cricket::SsrcGroup"* }
%"class.std::__1::__compressed_pair.44" = type { %"struct.std::__1::__compressed_pair_elem.45" }
%"struct.std::__1::__compressed_pair_elem.45" = type { %"struct.cricket::StreamParams"* }
%"class.rtc::DiagnosticLogMessage" = type { i8*, i32, i32, i32, i32, i8*, i8, %"class.std::__1::basic_ostringstream" }
%"class.std::__1::basic_ostringstream" = type { %"class.std::__1::basic_ostream.base", %"class.std::__1::basic_stringbuf", %"class.std::__1::basic_ios.base" }
%"class.std::__1::basic_ostream.base" = type { i32 (...)** }
%"class.std::__1::basic_stringbuf" = type <{ %"class.std::__1::basic_streambuf", %"class.std::__1::basic_string", i8*, i32, [4 x i8] }>
%"class.std::__1::basic_streambuf" = type { i32 (...)**, %"class.std::__1::locale", i8*, i8*, i8*, i8*, i8*, i8* }
%"class.std::__1::locale" = type { %"class.std::__1::locale::__imp"* }
%"class.std::__1::locale::__imp" = type opaque
%"class.std::__1::basic_ios.base" = type <{ %"class.std::__1::ios_base", %"class.std::__1::basic_ostream"*, i32 }>
%"class.std::__1::ios_base" = type { i32 (...)**, i32, i64, i64, i32, i32, i8*, i8*, void (i32, %"class.std::__1::ios_base"*, i32)**, i32*, i64, i64, i64*, i64, i64, i8**, i64, i64 }
%"class.std::__1::basic_ostream" = type { i32 (...)**, %"class.std::__1::basic_ios.base" }
%"struct.std::__1::basic_string<char, std::__1::char_traits<char>, std::__1::allocator<char> >::__short" = type { [23 x i8], %struct.anon }
%struct.anon = type { i8 }
%"class.std::__1::vector.49" = type { %"class.std::__1::__vector_base.50" }
%"class.std::__1::__vector_base.50" = type { %"struct.webrtc::SsrcInfo"*, %"struct.webrtc::SsrcInfo"*, %"class.std::__1::__compressed_pair.51" }
%"struct.webrtc::SsrcInfo" = type { i32, %"class.std::__1::basic_string", %"class.std::__1::basic_string", %"class.std::__1::basic_string", %"class.std::__1::basic_string", %"class.std::__1::basic_string" }
%"class.std::__1::__compressed_pair.51" = type { %"struct.std::__1::__compressed_pair_elem.52" }
%"struct.std::__1::__compressed_pair_elem.52" = type { %"struct.webrtc::SsrcInfo"* }
%class.anon = type { %"class.std::__1::basic_string" }
%"class.std::__1::__vector_base_common" = type { i8 }
%"class.cricket::ContentInfo" = type { %"class.std::__1::basic_string", i32, i8, i8, %"class.std::__1::unique_ptr" }
%"class.std::__1::unique_ptr" = type { %"class.std::__1::__compressed_pair.57" }
%"class.std::__1::__compressed_pair.57" = type { %"struct.std::__1::__compressed_pair_elem.58" }
%"struct.std::__1::__compressed_pair_elem.58" = type { %"class.cricket::MediaContentDescription"* }
%"class.cricket::MediaContentDescription" = type { i32 (...)**, i8, i8, i8, i32, %"class.std::__1::basic_string", %"class.std::__1::basic_string", %"class.std::__1::vector.59", %"class.std::__1::vector.66", i8, %"class.std::__1::vector.28", i8, i32, %"class.rtc::SocketAddress", i32, %"class.cricket::SimulcastDescription", %"class.std::__1::vector.6" }
%"class.std::__1::vector.59" = type { %"class.std::__1::__vector_base.60" }
%"class.std::__1::__vector_base.60" = type { %"struct.cricket::CryptoParams"*, %"struct.cricket::CryptoParams"*, %"class.std::__1::__compressed_pair.61" }
%"struct.cricket::CryptoParams" = type { i32, %"class.std::__1::basic_string", %"class.std::__1::basic_string", %"class.std::__1::basic_string" }
%"class.std::__1::__compressed_pair.61" = type { %"struct.std::__1::__compressed_pair_elem.62" }
%"struct.std::__1::__compressed_pair_elem.62" = type { %"struct.cricket::CryptoParams"* }
%"class.std::__1::vector.66" = type { %"class.std::__1::__vector_base.67" }
%"class.std::__1::__vector_base.67" = type { %"struct.webrtc::RtpExtension"*, %"struct.webrtc::RtpExtension"*, %"class.std::__1::__compressed_pair.68" }
%"struct.webrtc::RtpExtension" = type <{ %"class.std::__1::basic_string", i32, i8, [3 x i8] }>
%"class.std::__1::__compressed_pair.68" = type { %"struct.std::__1::__compressed_pair_elem.69" }
%"struct.std::__1::__compressed_pair_elem.69" = type { %"struct.webrtc::RtpExtension"* }
%"class.rtc::SocketAddress" = type <{ %"class.std::__1::basic_string", %"class.rtc::IPAddress", i16, [2 x i8], i32, i8, [7 x i8] }>
%"class.rtc::IPAddress" = type <{ i32 (...)**, i32, %union.anon.73, [4 x i8] }>
%union.anon.73 = type { %struct.in6_addr }
%struct.in6_addr = type { %union.anon.74 }
%union.anon.74 = type { [4 x i32] }
%"class.cricket::SimulcastDescription" = type { %"class.cricket::SimulcastLayerList", %"class.cricket::SimulcastLayerList" }
%"class.cricket::SimulcastLayerList" = type { %"class.std::__1::vector.75" }
%"class.std::__1::vector.75" = type { %"class.std::__1::__vector_base.76" }
%"class.std::__1::__vector_base.76" = type { %"class.std::__1::vector.77"*, %"class.std::__1::vector.77"*, %"class.std::__1::__compressed_pair.84" }
%"class.std::__1::vector.77" = type { %"class.std::__1::__vector_base.78" }
%"class.std::__1::__vector_base.78" = type { %"struct.cricket::SimulcastLayer"*, %"struct.cricket::SimulcastLayer"*, %"class.std::__1::__compressed_pair.79" }
%"struct.cricket::SimulcastLayer" = type <{ %"class.std::__1::basic_string", i8, [7 x i8] }>
%"class.std::__1::__compressed_pair.79" = type { %"struct.std::__1::__compressed_pair_elem.80" }
%"struct.std::__1::__compressed_pair_elem.80" = type { %"struct.cricket::SimulcastLayer"* }
%"class.std::__1::__compressed_pair.84" = type { %"struct.std::__1::__compressed_pair_elem.85" }
%"struct.std::__1::__compressed_pair_elem.85" = type { %"class.std::__1::vector.77"* }
%"class.std::__1::set" = type { %"class.std::__1::__tree.90" }
%"class.std::__1::__tree.90" = type { %"class.std::__1::__tree_end_node"*, %"class.std::__1::__compressed_pair.91", %"class.std::__1::__compressed_pair.95" }
%"class.std::__1::__compressed_pair.91" = type { %"struct.std::__1::__compressed_pair_elem.16" }
%"class.std::__1::__compressed_pair.95" = type { %"struct.std::__1::__compressed_pair_elem.21" }
%"class.webrtc::JsepSessionDescription" = type { %"class.webrtc::SessionDescriptionInterface", %"class.std::__1::unique_ptr.99", %"class.std::__1::basic_string", %"class.std::__1::basic_string", i32, %"class.std::__1::vector.139" }
%"class.webrtc::SessionDescriptionInterface" = type { i32 (...)** }
%"class.std::__1::unique_ptr.99" = type { %"class.std::__1::__compressed_pair.100" }
%"class.std::__1::__compressed_pair.100" = type { %"struct.std::__1::__compressed_pair_elem.101" }
%"struct.std::__1::__compressed_pair_elem.101" = type { %"class.cricket::SessionDescription"* }
%"class.cricket::SessionDescription" = type <{ %"class.std::__1::vector.102", %"class.std::__1::vector.109", %"class.std::__1::vector.129", i8, [3 x i8], i32, i8, [7 x i8] }>
%"class.std::__1::vector.102" = type { %"class.std::__1::__vector_base.103" }
%"class.std::__1::__vector_base.103" = type { %"class.cricket::ContentInfo"*, %"class.cricket::ContentInfo"*, %"class.std::__1::__compressed_pair.104" }
%"class.std::__1::__compressed_pair.104" = type { %"struct.std::__1::__compressed_pair_elem.105" }
%"struct.std::__1::__compressed_pair_elem.105" = type { %"class.cricket::ContentInfo"* }
%"class.std::__1::vector.109" = type { %"class.std::__1::__vector_base.110" }
%"class.std::__1::__vector_base.110" = type { %"struct.cricket::TransportInfo"*, %"struct.cricket::TransportInfo"*, %"class.std::__1::__compressed_pair.124" }
%"struct.cricket::TransportInfo" = type { %"class.std::__1::basic_string", %"struct.cricket::TransportDescription" }
%"struct.cricket::TransportDescription" = type { %"class.std::__1::vector", %"class.std::__1::basic_string", %"class.std::__1::basic_string", i32, i32, %"class.std::__1::unique_ptr.111" }
%"class.std::__1::unique_ptr.111" = type { %"class.std::__1::__compressed_pair.112" }
%"class.std::__1::__compressed_pair.112" = type { %"struct.std::__1::__compressed_pair_elem.113" }
%"struct.std::__1::__compressed_pair_elem.113" = type { %"struct.rtc::SSLFingerprint"* }
%"struct.rtc::SSLFingerprint" = type { %"class.std::__1::basic_string", %"class.rtc::CopyOnWriteBuffer" }
%"class.rtc::CopyOnWriteBuffer" = type { %"class.rtc::scoped_refptr", i64, i64 }
%"class.rtc::scoped_refptr" = type { %"class.rtc::FinalRefCountedObject"* }
%"class.rtc::FinalRefCountedObject" = type <{ %"class.rtc::BufferT", %"class.webrtc::webrtc_impl::RefCounter", [4 x i8] }>
%"class.rtc::BufferT" = type { i64, i64, %"class.std::__1::unique_ptr.114" }
%"class.std::__1::unique_ptr.114" = type { %"class.std::__1::__compressed_pair.115" }
%"class.std::__1::__compressed_pair.115" = type { %"struct.std::__1::__compressed_pair_elem.116" }
%"struct.std::__1::__compressed_pair_elem.116" = type { i8* }
%"class.webrtc::webrtc_impl::RefCounter" = type { %"struct.std::__1::atomic" }
%"struct.std::__1::atomic" = type { %"struct.std::__1::__atomic_base" }
%"struct.std::__1::__atomic_base" = type { %"struct.std::__1::__atomic_base.120" }
%"struct.std::__1::__atomic_base.120" = type { %"struct.std::__1::__cxx_atomic_impl" }
%"struct.std::__1::__cxx_atomic_impl" = type { %"struct.std::__1::__cxx_atomic_base_impl" }
%"struct.std::__1::__cxx_atomic_base_impl" = type { i32 }
%"class.std::__1::__compressed_pair.124" = type { %"struct.std::__1::__compressed_pair_elem.125" }
%"struct.std::__1::__compressed_pair_elem.125" = type { %"struct.cricket::TransportInfo"* }
%"class.std::__1::vector.129" = type { %"class.std::__1::__vector_base.130" }
%"class.std::__1::__vector_base.130" = type { %"class.cricket::ContentGroup"*, %"class.cricket::ContentGroup"*, %"class.std::__1::__compressed_pair.131" }
%"class.cricket::ContentGroup" = type { %"class.std::__1::basic_string", %"class.std::__1::vector" }
%"class.std::__1::__compressed_pair.131" = type { %"struct.std::__1::__compressed_pair_elem.132" }
%"struct.std::__1::__compressed_pair_elem.132" = type { %"class.cricket::ContentGroup"* }
%"class.std::__1::vector.139" = type { %"class.std::__1::__vector_base.140" }
%"class.std::__1::__vector_base.140" = type { %"class.webrtc::JsepCandidateCollection"*, %"class.webrtc::JsepCandidateCollection"*, %"class.std::__1::__compressed_pair.154" }
%"class.webrtc::JsepCandidateCollection" = type { %"class.webrtc::IceCandidateCollection", %"class.std::__1::vector.141" }
%"class.webrtc::IceCandidateCollection" = type { i32 (...)** }
%"class.std::__1::vector.141" = type { %"class.std::__1::__vector_base.142" }
%"class.std::__1::__vector_base.142" = type { %"class.std::__1::unique_ptr.143"*, %"class.std::__1::unique_ptr.143"*, %"class.std::__1::__compressed_pair.149" }
%"class.std::__1::unique_ptr.143" = type { %"class.std::__1::__compressed_pair.144" }
%"class.std::__1::__compressed_pair.144" = type { %"struct.std::__1::__compressed_pair_elem.145" }
%"struct.std::__1::__compressed_pair_elem.145" = type { %"class.webrtc::JsepIceCandidate"* }
%"class.webrtc::JsepIceCandidate" = type { %"class.webrtc::IceCandidateInterface", %"class.std::__1::basic_string", i32, %"class.cricket::Candidate" }
%"class.webrtc::IceCandidateInterface" = type { i32 (...)** }
%"class.cricket::Candidate" = type { %"class.std::__1::basic_string", i32, %"class.std::__1::basic_string", %"class.std::__1::basic_string", %"class.rtc::SocketAddress", i32, %"class.std::__1::basic_string", %"class.std::__1::basic_string", %"class.std::__1::basic_string", %"class.std::__1::basic_string", i32, i32, %"class.std::__1::basic_string", %"class.rtc::SocketAddress", %"class.std::__1::basic_string", %"class.std::__1::basic_string", i16, i16, %"class.std::__1::basic_string" }
%"class.std::__1::__compressed_pair.149" = type { %"struct.std::__1::__compressed_pair_elem.150" }
%"struct.std::__1::__compressed_pair_elem.150" = type { %"class.std::__1::unique_ptr.143"* }
%"class.std::__1::__compressed_pair.154" = type { %"struct.std::__1::__compressed_pair_elem.155" }
%"struct.std::__1::__compressed_pair_elem.155" = type { %"class.webrtc::JsepCandidateCollection"* }
%"class.rtc::StringBuilder" = type { %"class.std::__1::basic_string" }
%"class.std::__1::vector.159" = type { %"class.std::__1::__vector_base.160" }
%"class.std::__1::__vector_base.160" = type { %"class.cricket::ContentGroup"**, %"class.cricket::ContentGroup"**, %"class.std::__1::__compressed_pair.161" }
%"class.std::__1::__compressed_pair.161" = type { %"struct.std::__1::__compressed_pair_elem.162" }
%"struct.std::__1::__compressed_pair_elem.162" = type { %"class.cricket::ContentGroup"** }
%"class.std::__1::vector.170" = type { %"class.std::__1::__vector_base.171" }
%"class.std::__1::__vector_base.171" = type { %"class.cricket::Candidate"*, %"class.cricket::Candidate"*, %"class.std::__1::__compressed_pair.172" }
%"class.std::__1::__compressed_pair.172" = type { %"struct.std::__1::__compressed_pair_elem.173" }
%"struct.std::__1::__compressed_pair_elem.173" = type { %"class.cricket::Candidate"* }
%"class.std::__1::__basic_string_common" = type { i8 }
%"class.std::__1::__tree_node.372" = type { %"class.std::__1::__tree_node_base.base", %"class.std::__1::basic_string" }
%"class.std::__1::__tree_node_base.base" = type <{ %"class.std::__1::__tree_end_node", %"class.std::__1::__tree_node_base"*, %"class.std::__1::__tree_end_node"*, i8 }>
%"class.webrtc::SdpSerializer" = type { i8 }
%"class.cricket::VideoContentDescription" = type { %"class.cricket::MediaContentDescriptionImpl.195" }
%"class.cricket::MediaContentDescriptionImpl.195" = type { %"class.cricket::MediaContentDescription", %"class.std::__1::vector.196" }
%"class.std::__1::vector.196" = type { %"class.std::__1::__vector_base.197" }
%"class.std::__1::__vector_base.197" = type { %"struct.cricket::VideoCodec"*, %"struct.cricket::VideoCodec"*, %"class.std::__1::__compressed_pair.199" }
%"struct.cricket::VideoCodec" = type { %"struct.cricket::Codec", %"class.absl::optional" }
%"struct.cricket::Codec" = type { i32 (...)**, i32, %"class.std::__1::basic_string", i32, %"class.std::__1::map", %"class.cricket::FeedbackParams" }
%"class.cricket::FeedbackParams" = type { %"class.std::__1::vector.183" }
%"class.std::__1::vector.183" = type { %"class.std::__1::__vector_base.184" }
%"class.std::__1::__vector_base.184" = type { %"class.cricket::FeedbackParam"*, %"class.cricket::FeedbackParam"*, %"class.std::__1::__compressed_pair.185" }
%"class.cricket::FeedbackParam" = type { %"class.std::__1::basic_string", %"class.std::__1::basic_string" }
%"class.std::__1::__compressed_pair.185" = type { %"struct.std::__1::__compressed_pair_elem.186" }
%"struct.std::__1::__compressed_pair_elem.186" = type { %"class.cricket::FeedbackParam"* }
%"class.absl::optional" = type { %"class.absl::optional_internal::optional_data" }
%"class.absl::optional_internal::optional_data" = type { %"class.absl::optional_internal::optional_data_base" }
%"class.absl::optional_internal::optional_data_base" = type { %"class.absl::optional_internal::optional_data_dtor_base" }
%"class.absl::optional_internal::optional_data_dtor_base" = type { i8, %union.anon.198 }
%union.anon.198 = type { %"class.std::__1::basic_string" }
%"class.std::__1::__compressed_pair.199" = type { %"struct.std::__1::__compressed_pair_elem.200" }
%"struct.std::__1::__compressed_pair_elem.200" = type { %"struct.cricket::VideoCodec"* }
%"class.cricket::AudioContentDescription" = type { %"class.cricket::MediaContentDescriptionImpl" }
%"class.cricket::MediaContentDescriptionImpl" = type { %"class.cricket::MediaContentDescription", %"class.std::__1::vector.181" }
%"class.std::__1::vector.181" = type { %"class.std::__1::__vector_base.182" }
%"class.std::__1::__vector_base.182" = type { %"struct.cricket::AudioCodec"*, %"struct.cricket::AudioCodec"*, %"class.std::__1::__compressed_pair.190" }
%"struct.cricket::AudioCodec" = type { %"struct.cricket::Codec", i32, i64 }
%"class.std::__1::__compressed_pair.190" = type { %"struct.std::__1::__compressed_pair_elem.191" }
%"struct.std::__1::__compressed_pair_elem.191" = type { %"struct.cricket::AudioCodec"* }
%"class.cricket::SctpDataContentDescription" = type <{ %"class.cricket::MediaContentDescription", i8, [3 x i8], i32, i32, [4 x i8] }>
%"class.cricket::UnsupportedContentDescription" = type { %"class.cricket::MediaContentDescription", %"class.std::__1::basic_string" }
%"struct.webrtc::SdpParseError" = type { %"class.std::__1::basic_string", %"class.std::__1::basic_string" }
%class.anon.298 = type { %"class.std::__1::unordered_map"* }
%"class.std::__1::unordered_map" = type { %"class.std::__1::__hash_table" }
%"class.std::__1::__hash_table" = type <{ %"class.std::__1::unique_ptr.261", %"class.std::__1::__compressed_pair.269", %"class.std::__1::__compressed_pair.274", %"class.std::__1::__compressed_pair.276", [4 x i8] }>
%"class.std::__1::unique_ptr.261" = type { %"class.std::__1::__compressed_pair.262" }
%"class.std::__1::__compressed_pair.262" = type { %"struct.std::__1::__compressed_pair_elem.263", %"struct.std::__1::__compressed_pair_elem.264" }
%"struct.std::__1::__compressed_pair_elem.263" = type { %"struct.std::__1::__hash_node_base"** }
%"struct.std::__1::__hash_node_base" = type { %"struct.std::__1::__hash_node_base"* }
%"struct.std::__1::__compressed_pair_elem.264" = type { %"class.std::__1::__bucket_list_deallocator" }
%"class.std::__1::__bucket_list_deallocator" = type { %"class.std::__1::__compressed_pair.265" }
%"class.std::__1::__compressed_pair.265" = type { %"struct.std::__1::__compressed_pair_elem.21" }
%"class.std::__1::__compressed_pair.269" = type { %"struct.std::__1::__compressed_pair_elem.270" }
%"struct.std::__1::__compressed_pair_elem.270" = type { %"struct.std::__1::__hash_node_base" }
%"class.std::__1::__compressed_pair.274" = type { %"struct.std::__1::__compressed_pair_elem.21" }
%"class.std::__1::__compressed_pair.276" = type { %"struct.std::__1::__compressed_pair_elem.277" }
%"struct.std::__1::__compressed_pair_elem.277" = type { float }
%"class.std::__1::tuple" = type { %"struct.std::__1::__tuple_impl" }
%"struct.std::__1::__tuple_impl" = type { %"class.std::__1::__tuple_leaf" }
%"class.std::__1::__tuple_leaf" = type { i32* }
%"class.std::__1::tuple.290" = type { i8 }
%class.anon.280 = type { %"class.std::__1::unordered_map"* }
%"class.std::__1::allocator" = type { i8 }
%"struct.std::__1::pair.291" = type { i32, i32 }
%"class.std::__1::tuple.384" = type { %"struct.std::__1::__tuple_impl.385" }
%"struct.std::__1::__tuple_impl.385" = type { %"class.std::__1::__tuple_leaf.386" }
%"class.std::__1::__tuple_leaf.386" = type { %"class.std::__1::basic_string"* }
%"class.std::__1::basic_ostream<char, std::__1::char_traits<char> >::sentry" = type { i8, %"class.std::__1::basic_ostream"* }
%"class.std::__1::locale::facet" = type { %"class.std::__1::__shared_count" }
%"class.std::__1::__shared_count" = type { i32 (...)**, i64 }
%"class.std::__1::ctype" = type <{ %"class.std::__1::locale::facet", i16*, i8, [7 x i8] }>
%"class.std::__1::set.349" = type { %"class.std::__1::__tree.350" }
%"class.std::__1::__tree.350" = type { %"class.std::__1::__tree_end_node"*, %"class.std::__1::__compressed_pair.351", %"class.std::__1::__compressed_pair.355" }
%"class.std::__1::__compressed_pair.351" = type { %"struct.std::__1::__compressed_pair_elem.16" }
%"class.std::__1::__compressed_pair.355" = type { %"struct.std::__1::__compressed_pair_elem.21" }
%"class.webrtc::RTCErrorOr" = type { %"class.webrtc::RTCError", %"struct.cricket::RidDescription" }
%"class.webrtc::RTCError" = type { i32, %"class.std::__1::basic_string", i32, %"class.absl::optional.302" }
%"class.absl::optional.302" = type { %"class.absl::optional_internal::optional_data.303" }
%"class.absl::optional_internal::optional_data.303" = type { %"class.absl::optional_internal::optional_data_base.304" }
%"class.absl::optional_internal::optional_data_base.304" = type { %"class.absl::optional_internal::optional_data_dtor_base.305" }
%"class.absl::optional_internal::optional_data_dtor_base.305" = type { i8, %union.anon.306 }
%union.anon.306 = type { i16 }
%"class.webrtc::RTCErrorOr.307" = type { %"class.webrtc::RTCError", %"class.cricket::SimulcastDescription" }
%"class.std::__1::map.308" = type { %"class.std::__1::__tree.309" }
%"class.std::__1::__tree.309" = type { %"class.std::__1::__tree_end_node"*, %"class.std::__1::__compressed_pair.310", %"class.std::__1::__compressed_pair.314" }
%"class.std::__1::__compressed_pair.310" = type { %"struct.std::__1::__compressed_pair_elem.16" }
%"class.std::__1::__compressed_pair.314" = type { %"struct.std::__1::__compressed_pair_elem.21" }
%"class.std::__1::__tree_node" = type { %"class.std::__1::__tree_node_base.base", %"struct.std::__1::__value_type" }
%"struct.std::__1::__value_type" = type { %"struct.std::__1::pair.179" }
%"struct.std::__1::pair.179" = type { %"class.std::__1::basic_string", %"class.std::__1::basic_string" }
%"class.std::__1::__tree_node.367" = type { %"class.std::__1::__tree_node_base.base", i32 }
%"class.std::__1::__tree_node.388" = type { %"class.std::__1::__tree_node_base.base", %"struct.std::__1::__value_type.387" }
%"struct.std::__1::__value_type.387" = type { %"struct.std::__1::pair.319" }
%"struct.std::__1::pair.319" = type { %"class.std::__1::basic_string", %"struct.cricket::RidDescription" }
%"class.std::__1::allocator.54" = type { i8 }
%"struct.std::__1::vector<std::__1::vector<cricket::SimulcastLayer, std::__1::allocator<cricket::SimulcastLayer> >, std::__1::allocator<std::__1::vector<cricket::SimulcastLayer, std::__1::allocator<cricket::SimulcastLayer> > > >::_ConstructTransaction" = type { %"class.std::__1::vector.75"*, %"class.std::__1::vector.77"*, %"class.std::__1::vector.77"* }
%"class.std::__1::allocator.87" = type { i8 }

$_ZN7cricket12StreamParams8add_ssrcEj = comdat any

$_ZN7cricket9CandidateaSERKS0_ = comdat any

$_ZN6webrtc23GetCodecWithPayloadTypeIN7cricket10VideoCodecEEET_RKNSt3__16vectorIS3_NS4_9allocatorIS3_EEEEi = comdat any

$_ZN6webrtc17AddOrReplaceCodecIN7cricket23VideoContentDescriptionENS1_10VideoCodecEEEvPNS1_23MediaContentDescriptionERKT0_ = comdat any

$_ZN6webrtc17AddOrReplaceCodecIN7cricket23AudioContentDescriptionENS1_10AudioCodecEEEvPNS1_23MediaContentDescriptionERKT0_ = comdat any

$_ZNSt3__16vectorIN7cricket14RidDescriptionENS_9allocatorIS2_EEE6assignIPS2_EENS_9enable_ifIXaasr27__is_cpp17_forward_iteratorIT_EE5valuesr16is_constructibleIS2_NS_15iterator_traitsIS9_E9referenceEEE5valueEvE4typeES9_S9_ = comdat any

$_ZNSt3__16vectorIN7cricket9CandidateENS_9allocatorIS2_EEE21__push_back_slow_pathIRKS2_EEvOT_ = comdat any

$_ZNSt3__124__put_character_sequenceIcNS_11char_traitsIcEEEERNS_13basic_ostreamIT_T0_EES7_PKS4_m = comdat any

$_ZNSt3__116__pad_and_outputIcNS_11char_traitsIcEEEENS_19ostreambuf_iteratorIT_T0_EES6_PKS4_S8_S8_RNS_8ios_baseES4_ = comdat any

$_ZN6webrtc20AddPacketizationLineIN7cricket10VideoCodecEEEvRKT_PNSt3__112basic_stringIcNS6_11char_traitsIcEENS6_9allocatorIcEEEE = comdat any

$_ZN6webrtc14AddRtcpFbLinesIN7cricket10VideoCodecEEEvRKT_PNSt3__112basic_stringIcNS6_11char_traitsIcEENS6_9allocatorIcEEEE = comdat any

$_ZN6webrtc14AddRtcpFbLinesIN7cricket10AudioCodecEEEvRKT_PNSt3__112basic_stringIcNS6_11char_traitsIcEENS6_9allocatorIcEEEE = comdat any

$_ZNSt3__16vectorIN7cricket12ContentGroupENS_9allocatorIS2_EEE21__push_back_slow_pathIRKS2_EEvOT_ = comdat any

$_ZNSt3__16vectorIN6webrtc12RtpExtensionENS_9allocatorIS2_EEE21__push_back_slow_pathIRKS2_EEvOT_ = comdat any

$_ZN7cricket23VideoContentDescriptionD0Ev = comdat any

$_ZNK7cricket23VideoContentDescription4typeEv = comdat any

$_ZN7cricket23MediaContentDescription8as_audioEv = comdat any

$_ZNK7cricket23MediaContentDescription8as_audioEv = comdat any

$_ZN7cricket23VideoContentDescription8as_videoEv = comdat any

$_ZNK7cricket23VideoContentDescription8as_videoEv = comdat any

$_ZN7cricket23MediaContentDescription7as_sctpEv = comdat any

$_ZNK7cricket23MediaContentDescription7as_sctpEv = comdat any

$_ZN7cricket23MediaContentDescription14as_unsupportedEv = comdat any

$_ZNK7cricket23MediaContentDescription14as_unsupportedEv = comdat any

$_ZNK7cricket27MediaContentDescriptionImplINS_10VideoCodecEE10has_codecsEv = comdat any

$_ZNK7cricket23MediaContentDescription8protocolEv = comdat any

$_ZN7cricket27MediaContentDescriptionImplINS_10VideoCodecEE12set_protocolERKNSt3__112basic_stringIcNS3_11char_traitsIcEENS3_9allocatorIcEEEE = comdat any

$_ZNK7cricket23MediaContentDescription9directionEv = comdat any

$_ZN7cricket23MediaContentDescription13set_directionEN6webrtc23RtpTransceiverDirectionE = comdat any

$_ZNK7cricket23MediaContentDescription8rtcp_muxEv = comdat any

$_ZN7cricket23MediaContentDescription12set_rtcp_muxEb = comdat any

$_ZNK7cricket23MediaContentDescription17rtcp_reduced_sizeEv = comdat any

$_ZN7cricket23MediaContentDescription21set_rtcp_reduced_sizeEb = comdat any

$_ZNK7cricket23MediaContentDescription15remote_estimateEv = comdat any

$_ZN7cricket23MediaContentDescription19set_remote_estimateEb = comdat any

$_ZNK7cricket23MediaContentDescription9bandwidthEv = comdat any

$_ZN7cricket23MediaContentDescription13set_bandwidthEi = comdat any

$_ZNK7cricket23MediaContentDescription14bandwidth_typeEv = comdat any

$_ZN7cricket23MediaContentDescription18set_bandwidth_typeENSt3__112basic_stringIcNS1_11char_traitsIcEENS1_9allocatorIcEEEE = comdat any

$_ZNK7cricket23MediaContentDescription7cryptosEv = comdat any

$_ZN7cricket23MediaContentDescription9AddCryptoERKNS_12CryptoParamsE = comdat any

$_ZN7cricket23MediaContentDescription11set_cryptosERKNSt3__16vectorINS_12CryptoParamsENS1_9allocatorIS3_EEEE = comdat any

$_ZNK7cricket23MediaContentDescription21rtp_header_extensionsEv = comdat any

$_ZN7cricket23MediaContentDescription25set_rtp_header_extensionsERKNSt3__16vectorIN6webrtc12RtpExtensionENS1_9allocatorIS4_EEEE = comdat any

$_ZN7cricket23MediaContentDescription21AddRtpHeaderExtensionERKN6webrtc12RtpExtensionE = comdat any

$_ZN7cricket23MediaContentDescription24ClearRtpHeaderExtensionsEv = comdat any

$_ZNK7cricket23MediaContentDescription25rtp_header_extensions_setEv = comdat any

$_ZNK7cricket23MediaContentDescription7streamsEv = comdat any

$_ZN7cricket23MediaContentDescription15mutable_streamsEv = comdat any

$_ZN7cricket23MediaContentDescription9AddStreamERKNS_12StreamParamsE = comdat any

$_ZN7cricket23MediaContentDescription15SetCnameIfEmptyERKNSt3__112basic_stringIcNS1_11char_traitsIcEENS1_9allocatorIcEEEE = comdat any

$_ZNK7cricket23MediaContentDescription10first_ssrcEv = comdat any

$_ZNK7cricket23MediaContentDescription9has_ssrcsEv = comdat any

$_ZN7cricket23MediaContentDescription19set_conference_modeEb = comdat any

$_ZNK7cricket23MediaContentDescription15conference_modeEv = comdat any

$_ZN7cricket23MediaContentDescription22set_connection_addressERKN3rtc13SocketAddressE = comdat any

$_ZNK7cricket23MediaContentDescription18connection_addressEv = comdat any

$_ZN7cricket23MediaContentDescription27set_extmap_allow_mixed_enumENS0_16ExtmapAllowMixedE = comdat any

$_ZNK7cricket23MediaContentDescription23extmap_allow_mixed_enumEv = comdat any

$_ZNK7cricket23MediaContentDescription18extmap_allow_mixedEv = comdat any

$_ZNK7cricket23MediaContentDescription12HasSimulcastEv = comdat any

$_ZN7cricket23MediaContentDescription21simulcast_descriptionEv = comdat any

$_ZNK7cricket23MediaContentDescription21simulcast_descriptionEv = comdat any

$_ZN7cricket23MediaContentDescription25set_simulcast_descriptionERKNS_20SimulcastDescriptionE = comdat any

$_ZNK7cricket23MediaContentDescription12receive_ridsEv = comdat any

$_ZN7cricket23MediaContentDescription16set_receive_ridsERKNSt3__16vectorINS_14RidDescriptionENS1_9allocatorIS3_EEEE = comdat any

$_ZNK7cricket23VideoContentDescription13CloneInternalEv = comdat any

$_ZNK7cricket27MediaContentDescriptionImplINS_10VideoCodecEE6codecsEv = comdat any

$_ZN7cricket27MediaContentDescriptionImplINS_10VideoCodecEE10set_codecsERKNSt3__16vectorIS1_NS3_9allocatorIS1_EEEE = comdat any

$_ZN7cricket27MediaContentDescriptionImplINS_10VideoCodecEE8HasCodecEi = comdat any

$_ZN7cricket27MediaContentDescriptionImplINS_10VideoCodecEE8AddCodecERKS1_ = comdat any

$_ZN7cricket27MediaContentDescriptionImplINS_10VideoCodecEE17AddOrReplaceCodecERKS1_ = comdat any

$_ZN7cricket27MediaContentDescriptionImplINS_10VideoCodecEE9AddCodecsERKNSt3__16vectorIS1_NS3_9allocatorIS1_EEEE = comdat any

$_ZN7cricket23MediaContentDescriptionC2Ev = comdat any

$_ZN7cricket27MediaContentDescriptionImplINS_10VideoCodecEED2Ev = comdat any

$_ZN7cricket27MediaContentDescriptionImplINS_10VideoCodecEED0Ev = comdat any

$_ZN7cricket23MediaContentDescription8as_videoEv = comdat any

$_ZNK7cricket23MediaContentDescription8as_videoEv = comdat any

$_ZN7cricket23MediaContentDescriptionD2Ev = comdat any

$_ZN7cricket23MediaContentDescriptionD0Ev = comdat any

$_ZN7cricket23MediaContentDescription12set_protocolERKNSt3__112basic_stringIcNS1_11char_traitsIcEENS1_9allocatorIcEEEE = comdat any

$_ZN7cricket20SimulcastDescriptionD2Ev = comdat any

$_ZNSt3__16vectorIN7cricket12CryptoParamsENS_9allocatorIS2_EEE21__push_back_slow_pathIRKS2_EEvOT_ = comdat any

$_ZNSt3__16vectorIN7cricket12CryptoParamsENS_9allocatorIS2_EEE6assignIPS2_EENS_9enable_ifIXaasr27__is_cpp17_forward_iteratorIT_EE5valuesr16is_constructibleIS2_NS_15iterator_traitsIS9_E9referenceEEE5valueEvE4typeES9_S9_ = comdat any

$_ZN7cricket12CryptoParamsaSERKS0_ = comdat any

$_ZNSt3__16vectorIN6webrtc12RtpExtensionENS_9allocatorIS2_EEE6assignIPS2_EENS_9enable_ifIXaasr27__is_cpp17_forward_iteratorIT_EE5valuesr16is_constructibleIS2_NS_15iterator_traitsIS9_E9referenceEEE5valueEvE4typeES9_S9_ = comdat any

$_ZNSt3__16vectorINS0_IN7cricket14SimulcastLayerENS_9allocatorIS2_EEEENS3_IS5_EEE6assignIPS5_EENS_9enable_ifIXaasr27__is_cpp17_forward_iteratorIT_EE5valuesr16is_constructibleIS5_NS_15iterator_traitsISB_E9referenceEEE5valueEvE4typeESB_SB_ = comdat any

$_ZNSt3__16vectorIN7cricket14SimulcastLayerENS_9allocatorIS2_EEE6assignIPS2_EENS_9enable_ifIXaasr27__is_cpp17_forward_iteratorIT_EE5valuesr16is_constructibleIS2_NS_15iterator_traitsIS9_E9referenceEEE5valueEvE4typeES9_S9_ = comdat any

$_ZNSt3__125__construct_range_forwardINS_9allocatorINS_6vectorIN7cricket14SimulcastLayerENS1_IS4_EEEEEEPS6_S8_EEvRT_T0_SB_RT1_ = comdat any

$_ZN7cricket23MediaContentDescriptionC2ERKS0_ = comdat any

$_ZN7cricket20SimulcastDescriptionC2ERKS0_ = comdat any

$_ZNSt3__16vectorIN7cricket10VideoCodecENS_9allocatorIS2_EEE6assignIPS2_EENS_9enable_ifIXaasr27__is_cpp17_forward_iteratorIT_EE5valuesr16is_constructibleIS2_NS_15iterator_traitsIS9_E9referenceEEE5valueEvE4typeES9_S9_ = comdat any

$_ZNSt3__16vectorIN7cricket10VideoCodecENS_9allocatorIS2_EEE21__push_back_slow_pathIRKS2_EEvOT_ = comdat any

$_ZNSt3__112__hash_tableINS_17__hash_value_typeIiiEENS_22__unordered_map_hasherIiS2_NS_4hashIiEENS_8equal_toIiEELb1EEENS_21__unordered_map_equalIiS2_S7_S5_Lb1EEENS_9allocatorIS2_EEE25__emplace_unique_key_argsIiJRKNS_21piecewise_construct_tENS_5tupleIJRKiEEENSI_IJEEEEEENS_4pairINS_15__hash_iteratorIPNS_11__hash_nodeIS2_PvEEEEbEERKT_DpOT0_ = comdat any

$_ZNSt3__112__hash_tableINS_17__hash_value_typeIiiEENS_22__unordered_map_hasherIiS2_NS_4hashIiEENS_8equal_toIiEELb1EEENS_21__unordered_map_equalIiS2_S7_S5_Lb1EEENS_9allocatorIS2_EEE6rehashEm = comdat any

$_ZNSt3__112__hash_tableINS_17__hash_value_typeIiiEENS_22__unordered_map_hasherIiS2_NS_4hashIiEENS_8equal_toIiEELb1EEENS_21__unordered_map_equalIiS2_S7_S5_Lb1EEENS_9allocatorIS2_EEE8__rehashEm = comdat any

$_ZN7cricket23AudioContentDescriptionD0Ev = comdat any

$_ZNK7cricket23AudioContentDescription4typeEv = comdat any

$_ZN7cricket23AudioContentDescription8as_audioEv = comdat any

$_ZNK7cricket23AudioContentDescription8as_audioEv = comdat any

$_ZNK7cricket27MediaContentDescriptionImplINS_10AudioCodecEE10has_codecsEv = comdat any

$_ZN7cricket27MediaContentDescriptionImplINS_10AudioCodecEE12set_protocolERKNSt3__112basic_stringIcNS3_11char_traitsIcEENS3_9allocatorIcEEEE = comdat any

$_ZNK7cricket23AudioContentDescription13CloneInternalEv = comdat any

$_ZNK7cricket27MediaContentDescriptionImplINS_10AudioCodecEE6codecsEv = comdat any

$_ZN7cricket27MediaContentDescriptionImplINS_10AudioCodecEE10set_codecsERKNSt3__16vectorIS1_NS3_9allocatorIS1_EEEE = comdat any

$_ZN7cricket27MediaContentDescriptionImplINS_10AudioCodecEE8HasCodecEi = comdat any

$_ZN7cricket27MediaContentDescriptionImplINS_10AudioCodecEE8AddCodecERKS1_ = comdat any

$_ZN7cricket27MediaContentDescriptionImplINS_10AudioCodecEE17AddOrReplaceCodecERKS1_ = comdat any

$_ZN7cricket27MediaContentDescriptionImplINS_10AudioCodecEE9AddCodecsERKNSt3__16vectorIS1_NS3_9allocatorIS1_EEEE = comdat any

$_ZN7cricket27MediaContentDescriptionImplINS_10AudioCodecEED2Ev = comdat any

$_ZN7cricket27MediaContentDescriptionImplINS_10AudioCodecEED0Ev = comdat any

$_ZNSt3__16vectorIN7cricket10AudioCodecENS_9allocatorIS2_EEE6assignIPS2_EENS_9enable_ifIXaasr27__is_cpp17_forward_iteratorIT_EE5valuesr16is_constructibleIS2_NS_15iterator_traitsIS9_E9referenceEEE5valueEvE4typeES9_S9_ = comdat any

$_ZNSt3__16vectorIN7cricket10AudioCodecENS_9allocatorIS2_EEE21__push_back_slow_pathIRKS2_EEvOT_ = comdat any

$_ZN7cricket26SctpDataContentDescriptionD0Ev = comdat any

$_ZNK7cricket26SctpDataContentDescription4typeEv = comdat any

$_ZN7cricket26SctpDataContentDescription7as_sctpEv = comdat any

$_ZNK7cricket26SctpDataContentDescription7as_sctpEv = comdat any

$_ZNK7cricket26SctpDataContentDescription10has_codecsEv = comdat any

$_ZN7cricket26SctpDataContentDescription12set_protocolERKNSt3__112basic_stringIcNS1_11char_traitsIcEENS1_9allocatorIcEEEE = comdat any

$_ZNK7cricket26SctpDataContentDescription13CloneInternalEv = comdat any

$_ZN6webrtc24UpdateFromWildcardCodecsIN7cricket10AudioCodecEEEvPNS1_27MediaContentDescriptionImplIT_EE = comdat any

$_ZN6webrtc24UpdateFromWildcardCodecsIN7cricket10VideoCodecEEEvPNS1_27MediaContentDescriptionImplIT_EE = comdat any

$_ZN6webrtc11UpdateCodecIN7cricket23AudioContentDescriptionENS1_10AudioCodecEEEvPNS1_23MediaContentDescriptionEiRKNSt3__13mapINS6_12basic_stringIcNS6_11char_traitsIcEENS6_9allocatorIcEEEESD_NS6_4lessISD_EENSB_INS6_4pairIKSD_SD_EEEEEE = comdat any

$_ZN6webrtc11UpdateCodecIN7cricket23VideoContentDescriptionENS1_10VideoCodecEEEvPNS1_23MediaContentDescriptionEiRKNSt3__13mapINS6_12basic_stringIcNS6_11char_traitsIcEENS6_9allocatorIcEEEESD_NS6_4lessISD_EENSB_INS6_4pairIKSD_SD_EEEEEE = comdat any

$_ZNSt3__16__treeINS_12__value_typeINS_12basic_stringIcNS_11char_traitsIcEENS_9allocatorIcEEEES7_EENS_19__map_value_compareIS7_S8_NS_4lessIS7_EELb1EEENS5_IS8_EEE4findIS7_EENS_15__tree_iteratorIS8_PNS_11__tree_nodeIS8_PvEElEERKT_ = comdat any

$_ZNSt3__16__treeINS_12__value_typeINS_12basic_stringIcNS_11char_traitsIcEENS_9allocatorIcEEEES7_EENS_19__map_value_compareIS7_S8_NS_4lessIS7_EELb1EEENS5_IS8_EEE7destroyEPNS_11__tree_nodeIS8_PvEE = comdat any

$_ZNSt3__16vectorIN7cricket9SsrcGroupENS_9allocatorIS2_EEE21__push_back_slow_pathIS2_EEvOT_ = comdat any

$_ZNSt3__16vectorIN6webrtc8SsrcInfoENS_9allocatorIS2_EEE21__push_back_slow_pathIRKS2_EEvOT_ = comdat any

$_ZN6webrtc8SsrcInfoC2ERKS0_ = comdat any

$_ZNSt3__19allocatorIN6webrtc8SsrcInfoEE7destroyEPS2_ = comdat any

$_ZN6webrtc11UpdateCodecIN7cricket23AudioContentDescriptionENS1_10AudioCodecEEEvPNS1_23MediaContentDescriptionEiRKNS1_13FeedbackParamE = comdat any

$_ZN6webrtc11UpdateCodecIN7cricket23VideoContentDescriptionENS1_10VideoCodecEEEvPNS1_23MediaContentDescriptionEiRKNS1_13FeedbackParamE = comdat any

$_ZNSt3__16vectorIN7cricket14RidDescriptionENS_9allocatorIS2_EEE21__push_back_slow_pathIS2_EEvOT_ = comdat any

$_ZNSt3__127__tree_balance_after_insertIPNS_16__tree_node_baseIPvEEEEvT_S5_ = comdat any

$_ZNSt3__16__treeIiNS_4lessIiEENS_9allocatorIiEEE7destroyEPNS_11__tree_nodeIiPvEE = comdat any

$_ZNKSt3__16__treeINS_12basic_stringIcNS_11char_traitsIcEENS_9allocatorIcEEEENS_4lessIS6_EENS4_IS6_EEE14__count_uniqueIS6_EEmRKT_ = comdat any

$_ZNKSt3__16__treeINS_12basic_stringIcNS_11char_traitsIcEENS_9allocatorIcEEEENS_4lessIS6_EENS4_IS6_EEE4findIS6_EENS_21__tree_const_iteratorIS6_PNS_11__tree_nodeIS6_PvEElEERKT_ = comdat any

$_ZNSt3__16vectorIN7cricket14SimulcastLayerENS_9allocatorIS2_EEE21__push_back_slow_pathIRKS2_EEvOT_ = comdat any

$_ZNSt3__16__treeINS_12__value_typeINS_12basic_stringIcNS_11char_traitsIcEENS_9allocatorIcEEEEN7cricket14RidDescriptionEEENS_19__map_value_compareIS7_SA_NS_4lessIS7_EELb1EEENS5_ISA_EEE25__emplace_unique_key_argsIS7_JRKNS_21piecewise_construct_tENS_5tupleIJRKS7_EEENSL_IJEEEEEENS_4pairINS_15__tree_iteratorISA_PNS_11__tree_nodeISA_PvEElEEbEERKT_DpOT0_ = comdat any

$_ZNSt3__16__treeINS_12__value_typeINS_12basic_stringIcNS_11char_traitsIcEENS_9allocatorIcEEEEN7cricket14RidDescriptionEEENS_19__map_value_compareIS7_SA_NS_4lessIS7_EELb1EEENS5_ISA_EEE12__find_equalIS7_EERPNS_16__tree_node_baseIPvEERPNS_15__tree_end_nodeISL_EERKT_ = comdat any

$_ZNSt3__16__treeINS_12__value_typeINS_12basic_stringIcNS_11char_traitsIcEENS_9allocatorIcEEEEN7cricket14RidDescriptionEEENS_19__map_value_compareIS7_SA_NS_4lessIS7_EELb1EEENS5_ISA_EEE4findIS7_EENS_15__tree_iteratorISA_PNS_11__tree_nodeISA_PvEElEERKT_ = comdat any

$_ZNSt3__16vectorIN7cricket14RidDescriptionENS_9allocatorIS2_EEE21__push_back_slow_pathIRKS2_EEvOT_ = comdat any

$_ZNSt3__16__treeINS_12__value_typeINS_12basic_stringIcNS_11char_traitsIcEENS_9allocatorIcEEEEN7cricket14RidDescriptionEEENS_19__map_value_compareIS7_SA_NS_4lessIS7_EELb1EEENS5_ISA_EEE7destroyEPNS_11__tree_nodeISA_PvEE = comdat any

$_ZNSt3__16vectorIN7cricket9SsrcGroupENS_9allocatorIS2_EEE21__push_back_slow_pathIRKS2_EEvOT_ = comdat any

$_ZNSt3__16vectorINS_10unique_ptrIN6webrtc16JsepIceCandidateENS_14default_deleteIS3_EEEENS_9allocatorIS6_EEE21__push_back_slow_pathIS6_EEvOT_ = comdat any

$_ZN7cricket29UnsupportedContentDescriptionD2Ev = comdat any

$_ZN7cricket29UnsupportedContentDescriptionD0Ev = comdat any

$_ZNK7cricket29UnsupportedContentDescription4typeEv = comdat any

$_ZN7cricket29UnsupportedContentDescription14as_unsupportedEv = comdat any

$_ZNK7cricket29UnsupportedContentDescription14as_unsupportedEv = comdat any

$_ZNK7cricket29UnsupportedContentDescription10has_codecsEv = comdat any

$_ZNK7cricket29UnsupportedContentDescription13CloneInternalEv = comdat any

$_ZNSt3__16vectorINS_12basic_stringIcNS_11char_traitsIcEENS_9allocatorIcEEEENS4_IS6_EEE21__push_back_slow_pathIRKS6_EEvOT_ = comdat any

$_ZNSt3__16vectorINS_12basic_stringIcNS_11char_traitsIcEENS_9allocatorIcEEEENS4_IS6_EEE6assignIPS6_EENS_9enable_ifIXaasr27__is_cpp17_forward_iteratorIT_EE5valuesr16is_constructibleIS6_NS_15iterator_traitsISC_E9referenceEEE5valueEvE4typeESC_SC_ = comdat any

$_ZNSt3__16vectorIN7cricket12StreamParamsENS_9allocatorIS2_EEE21__push_back_slow_pathIRKS2_EEvOT_ = comdat any

$_ZNSt3__16vectorINS_12basic_stringIcNS_11char_traitsIcEENS_9allocatorIcEEEENS4_IS6_EEE21__push_back_slow_pathIS6_EEvOT_ = comdat any

$_ZNSt3__16vectorIN7cricket12StreamParamsENS_9allocatorIS2_EEE21__push_back_slow_pathIS2_EEvOT_ = comdat any

$_ZNSt3__16__treeINS_12basic_stringIcNS_11char_traitsIcEENS_9allocatorIcEEEENS_4lessIS6_EENS4_IS6_EEE25__emplace_unique_key_argsIS6_JRKS6_EEENS_4pairINS_15__tree_iteratorIS6_PNS_11__tree_nodeIS6_PvEElEEbEERKT_DpOT0_ = comdat any

$_ZNSt3__16__treeINS_12basic_stringIcNS_11char_traitsIcEENS_9allocatorIcEEEENS_4lessIS6_EENS4_IS6_EEE12__find_equalIS6_EERPNS_16__tree_node_baseIPvEERPNS_15__tree_end_nodeISF_EERKT_ = comdat any

$_ZNSt3__16__treeINS_12basic_stringIcNS_11char_traitsIcEENS_9allocatorIcEEEENS_4lessIS6_EENS4_IS6_EEE7destroyEPNS_11__tree_nodeIS6_PvEE = comdat any

$_ZNKSt3__16__treeINS_12__value_typeINS_12basic_stringIcNS_11char_traitsIcEENS_9allocatorIcEEEES7_EENS_19__map_value_compareIS7_S8_NS_4lessIS7_EELb1EEENS5_IS8_EEE4findIS7_EENS_21__tree_const_iteratorIS8_PNS_11__tree_nodeIS8_PvEElEERKT_ = comdat any

$_ZNSt3__16__treeINS_12__value_typeINS_12basic_stringIcNS_11char_traitsIcEENS_9allocatorIcEEEES7_EENS_19__map_value_compareIS7_S8_NS_4lessIS7_EELb1EEENS5_IS8_EEE25__emplace_unique_key_argsIS7_JRKNS_21piecewise_construct_tENS_5tupleIJRKS7_EEENSJ_IJEEEEEENS_4pairINS_15__tree_iteratorIS8_PNS_11__tree_nodeIS8_PvEElEEbEERKT_DpOT0_ = comdat any

$_ZNSt3__16__treeINS_12__value_typeINS_12basic_stringIcNS_11char_traitsIcEENS_9allocatorIcEEEES7_EENS_19__map_value_compareIS7_S8_NS_4lessIS7_EELb1EEENS5_IS8_EEE12__find_equalIS7_EERPNS_16__tree_node_baseIPvEERPNS_15__tree_end_nodeISJ_EERKT_ = comdat any

$_ZZN3rtc18webrtc_checks_impl11LogStreamerIJEE11CallCheckOpIJNS0_3ValILNS0_12CheckArgTypeE5EmEES6_EEEvPKciS8_DpRKT_E1t = comdat any

$_ZTVN7cricket23VideoContentDescriptionE = comdat any

$_ZTVN7cricket27MediaContentDescriptionImplINS_10VideoCodecEEE = comdat any

$_ZTVN7cricket23MediaContentDescriptionE = comdat any

$_ZTVN7cricket23AudioContentDescriptionE = comdat any

$_ZTVN7cricket27MediaContentDescriptionImplINS_10AudioCodecEEE = comdat any

$_ZTVN7cricket26SctpDataContentDescriptionE = comdat any

$_ZTVN7cricket29UnsupportedContentDescriptionE = comdat any

@.str = private unnamed_addr constant [42 x i8] c"../../third_party/webrtc/pc/webrtc_sdp.cc\00", align 1
@.str.1 = private unnamed_addr constant [53 x i8] c"MSID not signaled, skipping creation of StreamParams\00", align 1
@.str.2 = private unnamed_addr constant [34 x i8] c"CNAME attribute missing for SSRC \00", align 1
@_ZN6webrtcL12kDefaultMsidE = internal unnamed_addr constant [8 x i8] c"default\00", align 1
@.str.3 = private unnamed_addr constant [1 x i8] zeroinitializer, align 1
@_ZN6webrtcL15kSessionVersionE = internal unnamed_addr constant [4 x i8] c"v=0\00", align 1
@.str.4 = private constant [2 x i8] c" \00", align 1
@_ZN6webrtcL21kSessionOriginNettypeE = internal constant [3 x i8] c"IN\00", align 1
@_ZN6webrtcL21kSessionOriginAddressE = internal constant [10 x i8] c"127.0.0.1\00", align 1
@_ZN6webrtcL12kSessionNameE = internal unnamed_addr constant [4 x i8] c"s=-\00", align 1
@_ZN6webrtcL16kTimeDescriptionE = internal unnamed_addr constant [6 x i8] c"t=0 0\00", align 1
@_ZN7cricket17GROUP_TYPE_BUNDLEE = external constant [0 x i8], align 1
@_ZN6webrtcL10kAttrGroupE = internal unnamed_addr constant [15 x i8] c"a=group:BUNDLE\00", align 1
@_ZN6webrtcL26kAttributeExtmapAllowMixedE = internal unnamed_addr constant [19 x i8] c"extmap-allow-mixed\00", align 16
@_ZN6webrtcL23kAttributeMsidSemanticsE = internal unnamed_addr constant [14 x i8] c"msid-semantic\00", align 1
@_ZN6webrtcL18kSdpDelimiterColonE = internal constant [2 x i8] c":\00", align 1
@_ZN6webrtcL20kMediaStreamSemanticE = internal constant [4 x i8] c"WMS\00", align 1
@.str.5 = private unnamed_addr constant [21 x i8] c"Expect one line only\00", align 1
@_ZN6webrtcL19kAttributeCandidateE = internal constant [10 x i8] c"candidate\00", align 1
@.str.6 = private unnamed_addr constant [14 x i8] c"Expect line: \00", align 1
@.str.7 = private unnamed_addr constant [17 x i8] c":<candidate-str>\00", align 1
@_ZN6webrtcL22kAttributeCandidateTypE = internal constant [4 x i8] c"typ\00", align 1
@.str.8 = private unnamed_addr constant [21 x i8] c"Invalid port number.\00", align 1
@.str.9 = private unnamed_addr constant [28 x i8] c"Unsupported transport type.\00", align 1
@_ZN6webrtcL14kCandidateHostE = internal constant [5 x i8] c"host\00", align 1
@_ZN7cricket15LOCAL_PORT_TYPEE = external constant [0 x i8], align 1
@_ZN6webrtcL15kCandidateSrflxE = internal constant [6 x i8] c"srflx\00", align 1
@_ZN7cricket14STUN_PORT_TYPEE = external constant [0 x i8], align 1
@_ZN6webrtcL15kCandidateRelayE = internal constant [6 x i8] c"relay\00", align 1
@_ZN7cricket15RELAY_PORT_TYPEE = external constant [0 x i8], align 1
@_ZN6webrtcL15kCandidatePrflxE = internal constant [6 x i8] c"prflx\00", align 1
@_ZN7cricket15PRFLX_PORT_TYPEE = external constant [0 x i8], align 1
@.str.10 = private unnamed_addr constant [28 x i8] c"Unsupported candidate type.\00", align 1
@_ZN6webrtcL24kAttributeCandidateRaddrE = internal constant [6 x i8] c"raddr\00", align 1
@_ZN6webrtcL24kAttributeCandidateRportE = internal constant [6 x i8] c"rport\00", align 1
@_ZN6webrtcL17kTcpCandidateTypeE = internal constant [8 x i8] c"tcptype\00", align 1
@_ZN7cricket18TCPTYPE_ACTIVE_STRE = external constant [0 x i8], align 1
@_ZN7cricket19TCPTYPE_PASSIVE_STRE = external constant [0 x i8], align 1
@_ZN7cricket19TCPTYPE_SIMOPEN_STRE = external constant [0 x i8], align 1
@.str.11 = private unnamed_addr constant [28 x i8] c"Invalid TCP candidate type.\00", align 1
@.str.12 = private unnamed_addr constant [26 x i8] c"Invalid non-TCP candidate\00", align 1
@_ZN6webrtcL29kAttributeCandidateGenerationE = internal constant [11 x i8] c"generation\00", align 1
@_ZN6webrtcL24kAttributeCandidateUfragE = internal constant [6 x i8] c"ufrag\00", align 1
@_ZN6webrtcL22kAttributeCandidatePwdE = internal constant [4 x i8] c"pwd\00", align 1
@_ZN6webrtcL28kAttributeCandidateNetworkIdE = internal constant [11 x i8] c"network-id\00", align 1
@_ZN6webrtcL30kAttributeCandidateNetworkCostE = internal constant [13 x i8] c"network-cost\00", align 1
@.str.13 = private unnamed_addr constant [25 x i8] c"Invalid sctp port value.\00", align 1
@.str.14 = private unnamed_addr constant [31 x i8] c"Invalid SCTP max message size.\00", align 1
@_ZN6webrtcL23kAttributePacketizationE = internal unnamed_addr constant [14 x i8] c"packetization\00", align 1
@_ZN6webrtcL16kAttributeRtcpFbE = internal unnamed_addr constant [8 x i8] c"rtcp-fb\00", align 1
@.str.15 = private unnamed_addr constant [2 x i8] c"*\00", align 1
@_ZN7cricket16kCodecParamPTimeE = external constant [0 x i8], align 1
@_ZN7cricket19kCodecParamMaxPTimeE = external constant [0 x i8], align 1
@_ZN6webrtcL22kSdpDelimiterSemicolonE = internal constant [2 x i8] c";\00", align 1
@.str.16 = private unnamed_addr constant [34 x i8] c"Failed to parse the network type.\00", align 1
@_ZN6webrtcL18kConnectionNettypeE = internal constant [3 x i8] c"IN\00", align 1
@.str.17 = private unnamed_addr constant [82 x i8] c"Failed to parse the connection data. The network type is not currently supported.\00", align 1
@.str.18 = private unnamed_addr constant [34 x i8] c"Failed to parse the address type.\00", align 1
@.str.19 = private unnamed_addr constant [75 x i8] c"Failed to parse the connection data. Multicast is not currently supported.\00", align 1
@.str.20 = private constant [4 x i8] c"IP4\00", align 1
@.str.21 = private constant [4 x i8] c"IP6\00", align 1
@.str.22 = private unnamed_addr constant [70 x i8] c"Failed to parse the connection data. The address type is mismatching.\00", align 1
@_ZN6webrtcL25kStaticPayloadAudioCodecsE = internal unnamed_addr constant [19 x %"struct.webrtc::StaticPayloadAudioCodec"] [%"struct.webrtc::StaticPayloadAudioCodec" { i8* getelementptr inbounds ([5 x i8], [5 x i8]* @.str.39, i32 0, i32 0), i32 8000, i64 1 }, %"struct.webrtc::StaticPayloadAudioCodec" { i8* getelementptr inbounds ([9 x i8], [9 x i8]* @.str.40, i32 0, i32 0), i32 0, i64 0 }, %"struct.webrtc::StaticPayloadAudioCodec" { i8* getelementptr inbounds ([9 x i8], [9 x i8]* @.str.40, i32 0, i32 0), i32 0, i64 0 }, %"struct.webrtc::StaticPayloadAudioCodec" { i8* getelementptr inbounds ([4 x i8], [4 x i8]* @.str.41, i32 0, i32 0), i32 8000, i64 1 }, %"struct.webrtc::StaticPayloadAudioCodec" { i8* getelementptr inbounds ([5 x i8], [5 x i8]* @.str.42, i32 0, i32 0), i32 8000, i64 1 }, %"struct.webrtc::StaticPayloadAudioCodec" { i8* getelementptr inbounds ([5 x i8], [5 x i8]* @.str.43, i32 0, i32 0), i32 8000, i64 1 }, %"struct.webrtc::StaticPayloadAudioCodec" { i8* getelementptr inbounds ([5 x i8], [5 x i8]* @.str.43, i32 0, i32 0), i32 16000, i64 1 }, %"struct.webrtc::StaticPayloadAudioCodec" { i8* getelementptr inbounds ([4 x i8], [4 x i8]* @.str.44, i32 0, i32 0), i32 8000, i64 1 }, %"struct.webrtc::StaticPayloadAudioCodec" { i8* getelementptr inbounds ([5 x i8], [5 x i8]* @.str.45, i32 0, i32 0), i32 8000, i64 1 }, %"struct.webrtc::StaticPayloadAudioCodec" { i8* getelementptr inbounds ([5 x i8], [5 x i8]* @.str.46, i32 0, i32 0), i32 8000, i64 1 }, %"struct.webrtc::StaticPayloadAudioCodec" { i8* getelementptr inbounds ([4 x i8], [4 x i8]* @.str.47, i32 0, i32 0), i32 44100, i64 2 }, %"struct.webrtc::StaticPayloadAudioCodec" { i8* getelementptr inbounds ([4 x i8], [4 x i8]* @.str.47, i32 0, i32 0), i32 44100, i64 1 }, %"struct.webrtc::StaticPayloadAudioCodec" { i8* getelementptr inbounds ([6 x i8], [6 x i8]* @.str.48, i32 0, i32 0), i32 8000, i64 1 }, %"struct.webrtc::StaticPayloadAudioCodec" { i8* getelementptr inbounds ([3 x i8], [3 x i8]* @.str.49, i32 0, i32 0), i32 8000, i64 1 }, %"struct.webrtc::StaticPayloadAudioCodec" { i8* getelementptr inbounds ([4 x i8], [4 x i8]* @.str.50, i32 0, i32 0), i32 90000, i64 1 }, %"struct.webrtc::StaticPayloadAudioCodec" { i8* getelementptr inbounds ([5 x i8], [5 x i8]* @.str.51, i32 0, i32 0), i32 8000, i64 1 }, %"struct.webrtc::StaticPayloadAudioCodec" { i8* getelementptr inbounds ([5 x i8], [5 x i8]* @.str.43, i32 0, i32 0), i32 11025, i64 1 }, %"struct.webrtc::StaticPayloadAudioCodec" { i8* getelementptr inbounds ([5 x i8], [5 x i8]* @.str.43, i32 0, i32 0), i32 22050, i64 1 }, %"struct.webrtc::StaticPayloadAudioCodec" { i8* getelementptr inbounds ([5 x i8], [5 x i8]* @.str.52, i32 0, i32 0), i32 8000, i64 1 }], align 16
@_ZN7cricket22kPacketizationParamRawE = external constant [0 x i8], align 1
@_ZN6webrtcL10kLineBreakE = internal constant [3 x i8] c"\0D\0A\00", align 1
@.str.24 = private unnamed_addr constant [19 x i8] c"Failed to parse: \22\00", align 1
@.str.25 = private unnamed_addr constant [12 x i8] c"\22. Reason: \00", align 1
@_ZNSt3__15ctypeIcE2idE = external global %"class.std::__1::locale::id", align 8
@.str.26 = private constant [2 x i8] c"=\00", align 1
@.str.27 = private unnamed_addr constant [18 x i8] c"Expects at least \00", align 1
@.str.28 = private unnamed_addr constant [9 x i8] c" fields.\00", align 1
@_ZN6webrtcL15kMediaTypeVideoE = internal constant [6 x i8] c"video\00", align 1
@_ZN6webrtcL15kMediaTypeAudioE = internal constant [6 x i8] c"audio\00", align 1
@_ZN6webrtcL14kMediaTypeDataE = internal constant [12 x i8] c"application\00", align 1
@_ZN6webrtcL23kDefaultSctpmapProtocolE = internal constant [19 x i8] c"webrtc-datachannel\00", align 16
@_ZN6webrtcL18kMediaPortRejectedE = internal constant [2 x i8] c"0\00", align 1
@_ZN6webrtcL23kConnectionIpv4AddrtypeE = internal constant [4 x i8] c"IP4\00", align 1
@_ZN6webrtcL13kDummyAddressE = internal constant [8 x i8] c"0.0.0.0\00", align 1
@_ZN7cricket29kApplicationSpecificBandwidthE = external constant [0 x i8], align 1
@_ZN7cricket27kTransportSpecificBandwidthE = external constant [0 x i8], align 1
@_ZN6webrtcL20kAttributeBundleOnlyE = internal unnamed_addr constant [12 x i8] c"bundle-only\00", align 1
@_ZN6webrtcL18kAttributeIceUfragE = internal unnamed_addr constant [10 x i8] c"ice-ufrag\00", align 1
@_ZN6webrtcL16kAttributeIcePwdE = internal unnamed_addr constant [8 x i8] c"ice-pwd\00", align 1
@_ZN6webrtcL21kAttributeFingerprintE = internal unnamed_addr constant [12 x i8] c"fingerprint\00", align 1
@_ZN6webrtcL15kAttributeSetupE = internal unnamed_addr constant [6 x i8] c"setup\00", align 1
@_ZN6webrtcL13kAttributeMidE = internal unnamed_addr constant [4 x i8] c"mid\00", align 1
@_ZN7cricket28ICE_CANDIDATE_COMPONENT_RTCPE = external local_unnamed_addr constant i32, align 4
@_ZN7cricket17UDP_PROTOCOL_NAMEE = external constant [0 x i8], align 1
@_ZN6webrtcL19kAttributeIceOptionE = internal unnamed_addr constant [12 x i8] c"ice-options\00", align 1
@_ZN6webrtcL17kAttributeSctpmapE = internal unnamed_addr constant [8 x i8] c"sctpmap\00", align 1
@_ZN6webrtcL18kAttributeSctpPortE = internal unnamed_addr constant [10 x i8] c"sctp-port\00", align 1
@_ZN6webrtcL24kAttributeMaxMessageSizeE = internal unnamed_addr constant [17 x i8] c"max-message-size\00", align 16
@_ZN6webrtcL16kAttributeExtmapE = internal unnamed_addr constant [7 x i8] c"extmap\00", align 1
@_ZN6webrtc12RtpExtension27kEncryptHeaderExtensionsUriE = external constant [35 x i8], align 16
@_ZN6webrtcL13kNoStreamMsidE = internal constant [2 x i8] c"-\00", align 1
@.str.30 = private unnamed_addr constant [101 x i8] c"Trying to serialize Unified Plan SDP with more than one track in a media section. Omitting 'a=msid'.\00", align 1
@_ZN6webrtcL25kAttributeRtcpReducedSizeE = internal unnamed_addr constant [11 x i8] c"rtcp-rsize\00", align 1
@_ZN6webrtcL21kAttributeXGoogleFlagE = internal unnamed_addr constant [14 x i8] c"x-google-flag\00", align 1
@_ZN6webrtcL16kValueConferenceE = internal constant [11 x i8] c"conference\00", align 1
@_ZN6webrtcL28kAttributeRtcpRemoteEstimateE = internal unnamed_addr constant [20 x i8] c"remote-net-estimate\00", align 16
@_ZN6webrtcL16kAttributeCryptoE = internal unnamed_addr constant [7 x i8] c"crypto\00", align 1
@_ZN6webrtcL19kAttributeSsrcGroupE = internal unnamed_addr constant [11 x i8] c"ssrc-group\00", align 1
@_ZN6webrtcL19kSsrcAttributeCnameE = internal constant [6 x i8] c"cname\00", align 1
@_ZN6webrtcL18kSsrcAttributeMsidE = internal constant [5 x i8] c"msid\00", align 1
@_ZN6webrtcL21kSsrcAttributeMslabelE = internal constant [8 x i8] c"mslabel\00", align 1
@_ZN6webrtcL19kSSrcAttributeLabelE = internal constant [6 x i8] c"label\00", align 1
@_ZN6webrtcL13kAttributeRidE = internal unnamed_addr constant [4 x i8] c"rid\00", align 1
@_ZN6webrtcL19kAttributeSimulcastE = internal unnamed_addr constant [10 x i8] c"simulcast\00", align 1
@_ZN6webrtcL16kAttributeRtpmapE = internal unnamed_addr constant [7 x i8] c"rtpmap\00", align 1
@.str.31 = private unnamed_addr constant [2 x i8] c"/\00", align 1
@_ZN7cricket20kVideoCodecClockrateE = external local_unnamed_addr constant i32, align 4
@_ZN7cricket19kCodecParamMinPTimeE = external constant [0 x i8], align 1
@_ZN7cricket17TCP_PROTOCOL_NAMEE = external constant [0 x i8], align 1
@_ZN6webrtcL15kAttributeGroupE = internal unnamed_addr constant [6 x i8] c"group\00", align 1
@.str.32 = private unnamed_addr constant [62 x i8] c"Can't have multiple fingerprint attributes at the same level.\00", align 1
@.str.33 = private unnamed_addr constant [9 x i8] c"Expects \00", align 1
@.str.34 = private unnamed_addr constant [52 x i8] c"kLinePrefixLength + attribute.size() <= line.size()\00", align 1
@_ZZN3rtc18webrtc_checks_impl11LogStreamerIJEE11CallCheckOpIJNS0_3ValILNS0_12CheckArgTypeE5EmEES6_EEEvPKciS8_DpRKT_E1t = linkonce_odr hidden constant [4 x i8] c"\0D\05\05\00", comdat, align 1
@.str.35 = private unnamed_addr constant [39 x i8] c"Failed to get the value of attribute: \00", align 1
@.str.36 = private unnamed_addr constant [46 x i8] c"Failed to create fingerprint from the digest.\00", align 1
@.str.37 = private unnamed_addr constant [25 x i8] c"Invalid attribute value.\00", align 1
@.str.38 = private unnamed_addr constant [28 x i8] c"Recursive encrypted header.\00", align 1
@.str.39 = private unnamed_addr constant [5 x i8] c"PCMU\00", align 1
@.str.40 = private unnamed_addr constant [9 x i8] c"reserved\00", align 1
@.str.41 = private unnamed_addr constant [4 x i8] c"GSM\00", align 1
@.str.42 = private unnamed_addr constant [5 x i8] c"G723\00", align 1
@.str.43 = private unnamed_addr constant [5 x i8] c"DVI4\00", align 1
@.str.44 = private unnamed_addr constant [4 x i8] c"LPC\00", align 1
@.str.45 = private unnamed_addr constant [5 x i8] c"PCMA\00", align 1
@.str.46 = private unnamed_addr constant [5 x i8] c"G722\00", align 1
@.str.47 = private unnamed_addr constant [4 x i8] c"L16\00", align 1
@.str.48 = private unnamed_addr constant [6 x i8] c"QCELP\00", align 1
@.str.49 = private unnamed_addr constant [3 x i8] c"CN\00", align 1
@.str.50 = private unnamed_addr constant [4 x i8] c"MPA\00", align 1
@.str.51 = private unnamed_addr constant [5 x i8] c"G728\00", align 1
@.str.52 = private unnamed_addr constant [5 x i8] c"G729\00", align 1
@.str.53 = private unnamed_addr constant [27 x i8] c"The port number is invalid\00", align 1
@.str.54 = private unnamed_addr constant [36 x i8] c"Unsupported protocol for media type\00", align 1
@.str.55 = private unnamed_addr constant [25 x i8] c"Unsupported media type: \00", align 1
@.str.56 = private unnamed_addr constant [115 x i8] c"a=bundle-only attribute observed with a nonzero port; this usage is unspecified so the attribute is being ignored.\00", align 1
@.str.57 = private unnamed_addr constant [66 x i8] c"The a=extmap MUST be either all session level or all media level.\00", align 1
@.str.58 = private unnamed_addr constant [36 x i8] c"Parse failed with unknown protocol \00", align 1
@.str.59 = private unnamed_addr constant [16 x i8] c"Expects m line.\00", align 1
@_ZTVN7cricket23VideoContentDescriptionE = linkonce_odr hidden unnamed_addr constant { [62 x i8*] } { [62 x i8*] [i8* null, i8* null, i8* bitcast (void (%"class.cricket::MediaContentDescriptionImpl.195"*)* @_ZN7cricket27MediaContentDescriptionImplINS_10VideoCodecEED2Ev to i8*), i8* bitcast (void (%"class.cricket::VideoContentDescription"*)* @_ZN7cricket23VideoContentDescriptionD0Ev to i8*), i8* bitcast (i32 (%"class.cricket::VideoContentDescription"*)* @_ZNK7cricket23VideoContentDescription4typeEv to i8*), i8* bitcast (%"class.cricket::AudioContentDescription"* (%"class.cricket::MediaContentDescription"*)* @_ZN7cricket23MediaContentDescription8as_audioEv to i8*), i8* bitcast (%"class.cricket::AudioContentDescription"* (%"class.cricket::MediaContentDescription"*)* @_ZNK7cricket23MediaContentDescription8as_audioEv to i8*), i8* bitcast (%"class.cricket::VideoContentDescription"* (%"class.cricket::VideoContentDescription"*)* @_ZN7cricket23VideoContentDescription8as_videoEv to i8*), i8* bitcast (%"class.cricket::VideoContentDescription"* (%"class.cricket::VideoContentDescription"*)* @_ZNK7cricket23VideoContentDescription8as_videoEv to i8*), i8* bitcast (%"class.cricket::SctpDataContentDescription"* (%"class.cricket::MediaContentDescription"*)* @_ZN7cricket23MediaContentDescription7as_sctpEv to i8*), i8* bitcast (%"class.cricket::SctpDataContentDescription"* (%"class.cricket::MediaContentDescription"*)* @_ZNK7cricket23MediaContentDescription7as_sctpEv to i8*), i8* bitcast (%"class.cricket::UnsupportedContentDescription"* (%"class.cricket::MediaContentDescription"*)* @_ZN7cricket23MediaContentDescription14as_unsupportedEv to i8*), i8* bitcast (%"class.cricket::UnsupportedContentDescription"* (%"class.cricket::MediaContentDescription"*)* @_ZNK7cricket23MediaContentDescription14as_unsupportedEv to i8*), i8* bitcast (i1 (%"class.cricket::MediaContentDescriptionImpl.195"*)* @_ZNK7cricket27MediaContentDescriptionImplINS_10VideoCodecEE10has_codecsEv to i8*), i8* bitcast (void (%"class.std::__1::basic_string"*, %"class.cricket::MediaContentDescription"*)* @_ZNK7cricket23MediaContentDescription8protocolEv to i8*), i8* bitcast (void (%"class.cricket::MediaContentDescriptionImpl.195"*, %"class.std::__1::basic_string"*)* @_ZN7cricket27MediaContentDescriptionImplINS_10VideoCodecEE12set_protocolERKNSt3__112basic_stringIcNS3_11char_traitsIcEENS3_9allocatorIcEEEE to i8*), i8* bitcast (i32 (%"class.cricket::MediaContentDescription"*)* @_ZNK7cricket23MediaContentDescription9directionEv to i8*), i8* bitcast (void (%"class.cricket::MediaContentDescription"*, i32)* @_ZN7cricket23MediaContentDescription13set_directionEN6webrtc23RtpTransceiverDirectionE to i8*), i8* bitcast (i1 (%"class.cricket::MediaContentDescription"*)* @_ZNK7cricket23MediaContentDescription8rtcp_muxEv to i8*), i8* bitcast (void (%"class.cricket::MediaContentDescription"*, i1)* @_ZN7cricket23MediaContentDescription12set_rtcp_muxEb to i8*), i8* bitcast (i1 (%"class.cricket::MediaContentDescription"*)* @_ZNK7cricket23MediaContentDescription17rtcp_reduced_sizeEv to i8*), i8* bitcast (void (%"class.cricket::MediaContentDescription"*, i1)* @_ZN7cricket23MediaContentDescription21set_rtcp_reduced_sizeEb to i8*), i8* bitcast (i1 (%"class.cricket::MediaContentDescription"*)* @_ZNK7cricket23MediaContentDescription15remote_estimateEv to i8*), i8* bitcast (void (%"class.cricket::MediaContentDescription"*, i1)* @_ZN7cricket23MediaContentDescription19set_remote_estimateEb to i8*), i8* bitcast (i32 (%"class.cricket::MediaContentDescription"*)* @_ZNK7cricket23MediaContentDescription9bandwidthEv to i8*), i8* bitcast (void (%"class.cricket::MediaContentDescription"*, i32)* @_ZN7cricket23MediaContentDescription13set_bandwidthEi to i8*), i8* bitcast (void (%"class.std::__1::basic_string"*, %"class.cricket::MediaContentDescription"*)* @_ZNK7cricket23MediaContentDescription14bandwidth_typeEv to i8*), i8* bitcast (void (%"class.cricket::MediaContentDescription"*, %"class.std::__1::basic_string"*)* @_ZN7cricket23MediaContentDescription18set_bandwidth_typeENSt3__112basic_stringIcNS1_11char_traitsIcEENS1_9allocatorIcEEEE to i8*), i8* bitcast (%"class.std::__1::vector.59"* (%"class.cricket::MediaContentDescription"*)* @_ZNK7cricket23MediaContentDescription7cryptosEv to i8*), i8* bitcast (void (%"class.cricket::MediaContentDescription"*, %"struct.cricket::CryptoParams"*)* @_ZN7cricket23MediaContentDescription9AddCryptoERKNS_12CryptoParamsE to i8*), i8* bitcast (void (%"class.cricket::MediaContentDescription"*, %"class.std::__1::vector.59"*)* @_ZN7cricket23MediaContentDescription11set_cryptosERKNSt3__16vectorINS_12CryptoParamsENS1_9allocatorIS3_EEEE to i8*), i8* bitcast (%"class.std::__1::vector.66"* (%"class.cricket::MediaContentDescription"*)* @_ZNK7cricket23MediaContentDescription21rtp_header_extensionsEv to i8*), i8* bitcast (void (%"class.cricket::MediaContentDescription"*, %"class.std::__1::vector.66"*)* @_ZN7cricket23MediaContentDescription25set_rtp_header_extensionsERKNSt3__16vectorIN6webrtc12RtpExtensionENS1_9allocatorIS4_EEEE to i8*), i8* bitcast (void (%"class.cricket::MediaContentDescription"*, %"struct.webrtc::RtpExtension"*)* @_ZN7cricket23MediaContentDescription21AddRtpHeaderExtensionERKN6webrtc12RtpExtensionE to i8*), i8* bitcast (void (%"class.cricket::MediaContentDescription"*)* @_ZN7cricket23MediaContentDescription24ClearRtpHeaderExtensionsEv to i8*), i8* bitcast (i1 (%"class.cricket::MediaContentDescription"*)* @_ZNK7cricket23MediaContentDescription25rtp_header_extensions_setEv to i8*), i8* bitcast (%"class.std::__1::vector.28"* (%"class.cricket::MediaContentDescription"*)* @_ZNK7cricket23MediaContentDescription7streamsEv to i8*), i8* bitcast (%"class.std::__1::vector.28"* (%"class.cricket::MediaContentDescription"*)* @_ZN7cricket23MediaContentDescription15mutable_streamsEv to i8*), i8* bitcast (void (%"class.cricket::MediaContentDescription"*, %"struct.cricket::StreamParams"*)* @_ZN7cricket23MediaContentDescription9AddStreamERKNS_12StreamParamsE to i8*), i8* bitcast (void (%"class.cricket::MediaContentDescription"*, %"class.std::__1::basic_string"*)* @_ZN7cricket23MediaContentDescription15SetCnameIfEmptyERKNSt3__112basic_stringIcNS1_11char_traitsIcEENS1_9allocatorIcEEEE to i8*), i8* bitcast (i32 (%"class.cricket::MediaContentDescription"*)* @_ZNK7cricket23MediaContentDescription10first_ssrcEv to i8*), i8* bitcast (i1 (%"class.cricket::MediaContentDescription"*)* @_ZNK7cricket23MediaContentDescription9has_ssrcsEv to i8*), i8* bitcast (void (%"class.cricket::MediaContentDescription"*, i1)* @_ZN7cricket23MediaContentDescription19set_conference_modeEb to i8*), i8* bitcast (i1 (%"class.cricket::MediaContentDescription"*)* @_ZNK7cricket23MediaContentDescription15conference_modeEv to i8*), i8* bitcast (void (%"class.cricket::MediaContentDescription"*, %"class.rtc::SocketAddress"*)* @_ZN7cricket23MediaContentDescription22set_connection_addressERKN3rtc13SocketAddressE to i8*), i8* bitcast (%"class.rtc::SocketAddress"* (%"class.cricket::MediaContentDescription"*)* @_ZNK7cricket23MediaContentDescription18connection_addressEv to i8*), i8* bitcast (void (%"class.cricket::MediaContentDescription"*, i32)* @_ZN7cricket23MediaContentDescription27set_extmap_allow_mixed_enumENS0_16ExtmapAllowMixedE to i8*), i8* bitcast (i32 (%"class.cricket::MediaContentDescription"*)* @_ZNK7cricket23MediaContentDescription23extmap_allow_mixed_enumEv to i8*), i8* bitcast (i1 (%"class.cricket::MediaContentDescription"*)* @_ZNK7cricket23MediaContentDescription18extmap_allow_mixedEv to i8*), i8* bitcast (i1 (%"class.cricket::MediaContentDescription"*)* @_ZNK7cricket23MediaContentDescription12HasSimulcastEv to i8*), i8* bitcast (%"class.cricket::SimulcastDescription"* (%"class.cricket::MediaContentDescription"*)* @_ZN7cricket23MediaContentDescription21simulcast_descriptionEv to i8*), i8* bitcast (%"class.cricket::SimulcastDescription"* (%"class.cricket::MediaContentDescription"*)* @_ZNK7cricket23MediaContentDescription21simulcast_descriptionEv to i8*), i8* bitcast (void (%"class.cricket::MediaContentDescription"*, %"class.cricket::SimulcastDescription"*)* @_ZN7cricket23MediaContentDescription25set_simulcast_descriptionERKNS_20SimulcastDescriptionE to i8*), i8* bitcast (%"class.std::__1::vector.6"* (%"class.cricket::MediaContentDescription"*)* @_ZNK7cricket23MediaContentDescription12receive_ridsEv to i8*), i8* bitcast (void (%"class.cricket::MediaContentDescription"*, %"class.std::__1::vector.6"*)* @_ZN7cricket23MediaContentDescription16set_receive_ridsERKNSt3__16vectorINS_14RidDescriptionENS1_9allocatorIS3_EEEE to i8*), i8* bitcast (%"class.cricket::VideoContentDescription"* (%"class.cricket::VideoContentDescription"*)* @_ZNK7cricket23VideoContentDescription13CloneInternalEv to i8*), i8* bitcast (%"class.std::__1::vector.196"* (%"class.cricket::MediaContentDescriptionImpl.195"*)* @_ZNK7cricket27MediaContentDescriptionImplINS_10VideoCodecEE6codecsEv to i8*), i8* bitcast (void (%"class.cricket::MediaContentDescriptionImpl.195"*, %"class.std::__1::vector.196"*)* @_ZN7cricket27MediaContentDescriptionImplINS_10VideoCodecEE10set_codecsERKNSt3__16vectorIS1_NS3_9allocatorIS1_EEEE to i8*), i8* bitcast (i1 (%"class.cricket::MediaContentDescriptionImpl.195"*, i32)* @_ZN7cricket27MediaContentDescriptionImplINS_10VideoCodecEE8HasCodecEi to i8*), i8* bitcast (void (%"class.cricket::MediaContentDescriptionImpl.195"*, %"struct.cricket::VideoCodec"*)* @_ZN7cricket27MediaContentDescriptionImplINS_10VideoCodecEE8AddCodecERKS1_ to i8*), i8* bitcast (void (%"class.cricket::MediaContentDescriptionImpl.195"*, %"struct.cricket::VideoCodec"*)* @_ZN7cricket27MediaContentDescriptionImplINS_10VideoCodecEE17AddOrReplaceCodecERKS1_ to i8*), i8* bitcast (void (%"class.cricket::MediaContentDescriptionImpl.195"*, %"class.std::__1::vector.196"*)* @_ZN7cricket27MediaContentDescriptionImplINS_10VideoCodecEE9AddCodecsERKNSt3__16vectorIS1_NS3_9allocatorIS1_EEEE to i8*)] }, comdat, align 8
@_ZTVN7cricket27MediaContentDescriptionImplINS_10VideoCodecEEE = linkonce_odr hidden unnamed_addr constant { [62 x i8*] } { [62 x i8*] [i8* null, i8* null, i8* bitcast (void (%"class.cricket::MediaContentDescriptionImpl.195"*)* @_ZN7cricket27MediaContentDescriptionImplINS_10VideoCodecEED2Ev to i8*), i8* bitcast (void (%"class.cricket::MediaContentDescriptionImpl.195"*)* @_ZN7cricket27MediaContentDescriptionImplINS_10VideoCodecEED0Ev to i8*), i8* bitcast (void ()* @__cxa_pure_virtual to i8*), i8* bitcast (%"class.cricket::AudioContentDescription"* (%"class.cricket::MediaContentDescription"*)* @_ZN7cricket23MediaContentDescription8as_audioEv to i8*), i8* bitcast (%"class.cricket::AudioContentDescription"* (%"class.cricket::MediaContentDescription"*)* @_ZNK7cricket23MediaContentDescription8as_audioEv to i8*), i8* bitcast (%"class.cricket::VideoContentDescription"* (%"class.cricket::MediaContentDescription"*)* @_ZN7cricket23MediaContentDescription8as_videoEv to i8*), i8* bitcast (%"class.cricket::VideoContentDescription"* (%"class.cricket::MediaContentDescription"*)* @_ZNK7cricket23MediaContentDescription8as_videoEv to i8*), i8* bitcast (%"class.cricket::SctpDataContentDescription"* (%"class.cricket::MediaContentDescription"*)* @_ZN7cricket23MediaContentDescription7as_sctpEv to i8*), i8* bitcast (%"class.cricket::SctpDataContentDescription"* (%"class.cricket::MediaContentDescription"*)* @_ZNK7cricket23MediaContentDescription7as_sctpEv to i8*), i8* bitcast (%"class.cricket::UnsupportedContentDescription"* (%"class.cricket::MediaContentDescription"*)* @_ZN7cricket23MediaContentDescription14as_unsupportedEv to i8*), i8* bitcast (%"class.cricket::UnsupportedContentDescription"* (%"class.cricket::MediaContentDescription"*)* @_ZNK7cricket23MediaContentDescription14as_unsupportedEv to i8*), i8* bitcast (i1 (%"class.cricket::MediaContentDescriptionImpl.195"*)* @_ZNK7cricket27MediaContentDescriptionImplINS_10VideoCodecEE10has_codecsEv to i8*), i8* bitcast (void (%"class.std::__1::basic_string"*, %"class.cricket::MediaContentDescription"*)* @_ZNK7cricket23MediaContentDescription8protocolEv to i8*), i8* bitcast (void (%"class.cricket::MediaContentDescriptionImpl.195"*, %"class.std::__1::basic_string"*)* @_ZN7cricket27MediaContentDescriptionImplINS_10VideoCodecEE12set_protocolERKNSt3__112basic_stringIcNS3_11char_traitsIcEENS3_9allocatorIcEEEE to i8*), i8* bitcast (i32 (%"class.cricket::MediaContentDescription"*)* @_ZNK7cricket23MediaContentDescription9directionEv to i8*), i8* bitcast (void (%"class.cricket::MediaContentDescription"*, i32)* @_ZN7cricket23MediaContentDescription13set_directionEN6webrtc23RtpTransceiverDirectionE to i8*), i8* bitcast (i1 (%"class.cricket::MediaContentDescription"*)* @_ZNK7cricket23MediaContentDescription8rtcp_muxEv to i8*), i8* bitcast (void (%"class.cricket::MediaContentDescription"*, i1)* @_ZN7cricket23MediaContentDescription12set_rtcp_muxEb to i8*), i8* bitcast (i1 (%"class.cricket::MediaContentDescription"*)* @_ZNK7cricket23MediaContentDescription17rtcp_reduced_sizeEv to i8*), i8* bitcast (void (%"class.cricket::MediaContentDescription"*, i1)* @_ZN7cricket23MediaContentDescription21set_rtcp_reduced_sizeEb to i8*), i8* bitcast (i1 (%"class.cricket::MediaContentDescription"*)* @_ZNK7cricket23MediaContentDescription15remote_estimateEv to i8*), i8* bitcast (void (%"class.cricket::MediaContentDescription"*, i1)* @_ZN7cricket23MediaContentDescription19set_remote_estimateEb to i8*), i8* bitcast (i32 (%"class.cricket::MediaContentDescription"*)* @_ZNK7cricket23MediaContentDescription9bandwidthEv to i8*), i8* bitcast (void (%"class.cricket::MediaContentDescription"*, i32)* @_ZN7cricket23MediaContentDescription13set_bandwidthEi to i8*), i8* bitcast (void (%"class.std::__1::basic_string"*, %"class.cricket::MediaContentDescription"*)* @_ZNK7cricket23MediaContentDescription14bandwidth_typeEv to i8*), i8* bitcast (void (%"class.cricket::MediaContentDescription"*, %"class.std::__1::basic_string"*)* @_ZN7cricket23MediaContentDescription18set_bandwidth_typeENSt3__112basic_stringIcNS1_11char_traitsIcEENS1_9allocatorIcEEEE to i8*), i8* bitcast (%"class.std::__1::vector.59"* (%"class.cricket::MediaContentDescription"*)* @_ZNK7cricket23MediaContentDescription7cryptosEv to i8*), i8* bitcast (void (%"class.cricket::MediaContentDescription"*, %"struct.cricket::CryptoParams"*)* @_ZN7cricket23MediaContentDescription9AddCryptoERKNS_12CryptoParamsE to i8*), i8* bitcast (void (%"class.cricket::MediaContentDescription"*, %"class.std::__1::vector.59"*)* @_ZN7cricket23MediaContentDescription11set_cryptosERKNSt3__16vectorINS_12CryptoParamsENS1_9allocatorIS3_EEEE to i8*), i8* bitcast (%"class.std::__1::vector.66"* (%"class.cricket::MediaContentDescription"*)* @_ZNK7cricket23MediaContentDescription21rtp_header_extensionsEv to i8*), i8* bitcast (void (%"class.cricket::MediaContentDescription"*, %"class.std::__1::vector.66"*)* @_ZN7cricket23MediaContentDescription25set_rtp_header_extensionsERKNSt3__16vectorIN6webrtc12RtpExtensionENS1_9allocatorIS4_EEEE to i8*), i8* bitcast (void (%"class.cricket::MediaContentDescription"*, %"struct.webrtc::RtpExtension"*)* @_ZN7cricket23MediaContentDescription21AddRtpHeaderExtensionERKN6webrtc12RtpExtensionE to i8*), i8* bitcast (void (%"class.cricket::MediaContentDescription"*)* @_ZN7cricket23MediaContentDescription24ClearRtpHeaderExtensionsEv to i8*), i8* bitcast (i1 (%"class.cricket::MediaContentDescription"*)* @_ZNK7cricket23MediaContentDescription25rtp_header_extensions_setEv to i8*), i8* bitcast (%"class.std::__1::vector.28"* (%"class.cricket::MediaContentDescription"*)* @_ZNK7cricket23MediaContentDescription7streamsEv to i8*), i8* bitcast (%"class.std::__1::vector.28"* (%"class.cricket::MediaContentDescription"*)* @_ZN7cricket23MediaContentDescription15mutable_streamsEv to i8*), i8* bitcast (void (%"class.cricket::MediaContentDescription"*, %"struct.cricket::StreamParams"*)* @_ZN7cricket23MediaContentDescription9AddStreamERKNS_12StreamParamsE to i8*), i8* bitcast (void (%"class.cricket::MediaContentDescription"*, %"class.std::__1::basic_string"*)* @_ZN7cricket23MediaContentDescription15SetCnameIfEmptyERKNSt3__112basic_stringIcNS1_11char_traitsIcEENS1_9allocatorIcEEEE to i8*), i8* bitcast (i32 (%"class.cricket::MediaContentDescription"*)* @_ZNK7cricket23MediaContentDescription10first_ssrcEv to i8*), i8* bitcast (i1 (%"class.cricket::MediaContentDescription"*)* @_ZNK7cricket23MediaContentDescription9has_ssrcsEv to i8*), i8* bitcast (void (%"class.cricket::MediaContentDescription"*, i1)* @_ZN7cricket23MediaContentDescription19set_conference_modeEb to i8*), i8* bitcast (i1 (%"class.cricket::MediaContentDescription"*)* @_ZNK7cricket23MediaContentDescription15conference_modeEv to i8*), i8* bitcast (void (%"class.cricket::MediaContentDescription"*, %"class.rtc::SocketAddress"*)* @_ZN7cricket23MediaContentDescription22set_connection_addressERKN3rtc13SocketAddressE to i8*), i8* bitcast (%"class.rtc::SocketAddress"* (%"class.cricket::MediaContentDescription"*)* @_ZNK7cricket23MediaContentDescription18connection_addressEv to i8*), i8* bitcast (void (%"class.cricket::MediaContentDescription"*, i32)* @_ZN7cricket23MediaContentDescription27set_extmap_allow_mixed_enumENS0_16ExtmapAllowMixedE to i8*), i8* bitcast (i32 (%"class.cricket::MediaContentDescription"*)* @_ZNK7cricket23MediaContentDescription23extmap_allow_mixed_enumEv to i8*), i8* bitcast (i1 (%"class.cricket::MediaContentDescription"*)* @_ZNK7cricket23MediaContentDescription18extmap_allow_mixedEv to i8*), i8* bitcast (i1 (%"class.cricket::MediaContentDescription"*)* @_ZNK7cricket23MediaContentDescription12HasSimulcastEv to i8*), i8* bitcast (%"class.cricket::SimulcastDescription"* (%"class.cricket::MediaContentDescription"*)* @_ZN7cricket23MediaContentDescription21simulcast_descriptionEv to i8*), i8* bitcast (%"class.cricket::SimulcastDescription"* (%"class.cricket::MediaContentDescription"*)* @_ZNK7cricket23MediaContentDescription21simulcast_descriptionEv to i8*), i8* bitcast (void (%"class.cricket::MediaContentDescription"*, %"class.cricket::SimulcastDescription"*)* @_ZN7cricket23MediaContentDescription25set_simulcast_descriptionERKNS_20SimulcastDescriptionE to i8*), i8* bitcast (%"class.std::__1::vector.6"* (%"class.cricket::MediaContentDescription"*)* @_ZNK7cricket23MediaContentDescription12receive_ridsEv to i8*), i8* bitcast (void (%"class.cricket::MediaContentDescription"*, %"class.std::__1::vector.6"*)* @_ZN7cricket23MediaContentDescription16set_receive_ridsERKNSt3__16vectorINS_14RidDescriptionENS1_9allocatorIS3_EEEE to i8*), i8* bitcast (void ()* @__cxa_pure_virtual to i8*), i8* bitcast (%"class.std::__1::vector.196"* (%"class.cricket::MediaContentDescriptionImpl.195"*)* @_ZNK7cricket27MediaContentDescriptionImplINS_10VideoCodecEE6codecsEv to i8*), i8* bitcast (void (%"class.cricket::MediaContentDescriptionImpl.195"*, %"class.std::__1::vector.196"*)* @_ZN7cricket27MediaContentDescriptionImplINS_10VideoCodecEE10set_codecsERKNSt3__16vectorIS1_NS3_9allocatorIS1_EEEE to i8*), i8* bitcast (i1 (%"class.cricket::MediaContentDescriptionImpl.195"*, i32)* @_ZN7cricket27MediaContentDescriptionImplINS_10VideoCodecEE8HasCodecEi to i8*), i8* bitcast (void (%"class.cricket::MediaContentDescriptionImpl.195"*, %"struct.cricket::VideoCodec"*)* @_ZN7cricket27MediaContentDescriptionImplINS_10VideoCodecEE8AddCodecERKS1_ to i8*), i8* bitcast (void (%"class.cricket::MediaContentDescriptionImpl.195"*, %"struct.cricket::VideoCodec"*)* @_ZN7cricket27MediaContentDescriptionImplINS_10VideoCodecEE17AddOrReplaceCodecERKS1_ to i8*), i8* bitcast (void (%"class.cricket::MediaContentDescriptionImpl.195"*, %"class.std::__1::vector.196"*)* @_ZN7cricket27MediaContentDescriptionImplINS_10VideoCodecEE9AddCodecsERKNSt3__16vectorIS1_NS3_9allocatorIS1_EEEE to i8*)] }, comdat, align 8
@_ZTVN7cricket23MediaContentDescriptionE = linkonce_odr hidden unnamed_addr constant { [56 x i8*] } { [56 x i8*] [i8* null, i8* null, i8* bitcast (void (%"class.cricket::MediaContentDescription"*)* @_ZN7cricket23MediaContentDescriptionD2Ev to i8*), i8* bitcast (void (%"class.cricket::MediaContentDescription"*)* @_ZN7cricket23MediaContentDescriptionD0Ev to i8*), i8* bitcast (void ()* @__cxa_pure_virtual to i8*), i8* bitcast (%"class.cricket::AudioContentDescription"* (%"class.cricket::MediaContentDescription"*)* @_ZN7cricket23MediaContentDescription8as_audioEv to i8*), i8* bitcast (%"class.cricket::AudioContentDescription"* (%"class.cricket::MediaContentDescription"*)* @_ZNK7cricket23MediaContentDescription8as_audioEv to i8*), i8* bitcast (%"class.cricket::VideoContentDescription"* (%"class.cricket::MediaContentDescription"*)* @_ZN7cricket23MediaContentDescription8as_videoEv to i8*), i8* bitcast (%"class.cricket::VideoContentDescription"* (%"class.cricket::MediaContentDescription"*)* @_ZNK7cricket23MediaContentDescription8as_videoEv to i8*), i8* bitcast (%"class.cricket::SctpDataContentDescription"* (%"class.cricket::MediaContentDescription"*)* @_ZN7cricket23MediaContentDescription7as_sctpEv to i8*), i8* bitcast (%"class.cricket::SctpDataContentDescription"* (%"class.cricket::MediaContentDescription"*)* @_ZNK7cricket23MediaContentDescription7as_sctpEv to i8*), i8* bitcast (%"class.cricket::UnsupportedContentDescription"* (%"class.cricket::MediaContentDescription"*)* @_ZN7cricket23MediaContentDescription14as_unsupportedEv to i8*), i8* bitcast (%"class.cricket::UnsupportedContentDescription"* (%"class.cricket::MediaContentDescription"*)* @_ZNK7cricket23MediaContentDescription14as_unsupportedEv to i8*), i8* bitcast (void ()* @__cxa_pure_virtual to i8*), i8* bitcast (void (%"class.std::__1::basic_string"*, %"class.cricket::MediaContentDescription"*)* @_ZNK7cricket23MediaContentDescription8protocolEv to i8*), i8* bitcast (void (%"class.cricket::MediaContentDescription"*, %"class.std::__1::basic_string"*)* @_ZN7cricket23MediaContentDescription12set_protocolERKNSt3__112basic_stringIcNS1_11char_traitsIcEENS1_9allocatorIcEEEE to i8*), i8* bitcast (i32 (%"class.cricket::MediaContentDescription"*)* @_ZNK7cricket23MediaContentDescription9directionEv to i8*), i8* bitcast (void (%"class.cricket::MediaContentDescription"*, i32)* @_ZN7cricket23MediaContentDescription13set_directionEN6webrtc23RtpTransceiverDirectionE to i8*), i8* bitcast (i1 (%"class.cricket::MediaContentDescription"*)* @_ZNK7cricket23MediaContentDescription8rtcp_muxEv to i8*), i8* bitcast (void (%"class.cricket::MediaContentDescription"*, i1)* @_ZN7cricket23MediaContentDescription12set_rtcp_muxEb to i8*), i8* bitcast (i1 (%"class.cricket::MediaContentDescription"*)* @_ZNK7cricket23MediaContentDescription17rtcp_reduced_sizeEv to i8*), i8* bitcast (void (%"class.cricket::MediaContentDescription"*, i1)* @_ZN7cricket23MediaContentDescription21set_rtcp_reduced_sizeEb to i8*), i8* bitcast (i1 (%"class.cricket::MediaContentDescription"*)* @_ZNK7cricket23MediaContentDescription15remote_estimateEv to i8*), i8* bitcast (void (%"class.cricket::MediaContentDescription"*, i1)* @_ZN7cricket23MediaContentDescription19set_remote_estimateEb to i8*), i8* bitcast (i32 (%"class.cricket::MediaContentDescription"*)* @_ZNK7cricket23MediaContentDescription9bandwidthEv to i8*), i8* bitcast (void (%"class.cricket::MediaContentDescription"*, i32)* @_ZN7cricket23MediaContentDescription13set_bandwidthEi to i8*), i8* bitcast (void (%"class.std::__1::basic_string"*, %"class.cricket::MediaContentDescription"*)* @_ZNK7cricket23MediaContentDescription14bandwidth_typeEv to i8*), i8* bitcast (void (%"class.cricket::MediaContentDescription"*, %"class.std::__1::basic_string"*)* @_ZN7cricket23MediaContentDescription18set_bandwidth_typeENSt3__112basic_stringIcNS1_11char_traitsIcEENS1_9allocatorIcEEEE to i8*), i8* bitcast (%"class.std::__1::vector.59"* (%"class.cricket::MediaContentDescription"*)* @_ZNK7cricket23MediaContentDescription7cryptosEv to i8*), i8* bitcast (void (%"class.cricket::MediaContentDescription"*, %"struct.cricket::CryptoParams"*)* @_ZN7cricket23MediaContentDescription9AddCryptoERKNS_12CryptoParamsE to i8*), i8* bitcast (void (%"class.cricket::MediaContentDescription"*, %"class.std::__1::vector.59"*)* @_ZN7cricket23MediaContentDescription11set_cryptosERKNSt3__16vectorINS_12CryptoParamsENS1_9allocatorIS3_EEEE to i8*), i8* bitcast (%"class.std::__1::vector.66"* (%"class.cricket::MediaContentDescription"*)* @_ZNK7cricket23MediaContentDescription21rtp_header_extensionsEv to i8*), i8* bitcast (void (%"class.cricket::MediaContentDescription"*, %"class.std::__1::vector.66"*)* @_ZN7cricket23MediaContentDescription25set_rtp_header_extensionsERKNSt3__16vectorIN6webrtc12RtpExtensionENS1_9allocatorIS4_EEEE to i8*), i8* bitcast (void (%"class.cricket::MediaContentDescription"*, %"struct.webrtc::RtpExtension"*)* @_ZN7cricket23MediaContentDescription21AddRtpHeaderExtensionERKN6webrtc12RtpExtensionE to i8*), i8* bitcast (void (%"class.cricket::MediaContentDescription"*)* @_ZN7cricket23MediaContentDescription24ClearRtpHeaderExtensionsEv to i8*), i8* bitcast (i1 (%"class.cricket::MediaContentDescription"*)* @_ZNK7cricket23MediaContentDescription25rtp_header_extensions_setEv to i8*), i8* bitcast (%"class.std::__1::vector.28"* (%"class.cricket::MediaContentDescription"*)* @_ZNK7cricket23MediaContentDescription7streamsEv to i8*), i8* bitcast (%"class.std::__1::vector.28"* (%"class.cricket::MediaContentDescription"*)* @_ZN7cricket23MediaContentDescription15mutable_streamsEv to i8*), i8* bitcast (void (%"class.cricket::MediaContentDescription"*, %"struct.cricket::StreamParams"*)* @_ZN7cricket23MediaContentDescription9AddStreamERKNS_12StreamParamsE to i8*), i8* bitcast (void (%"class.cricket::MediaContentDescription"*, %"class.std::__1::basic_string"*)* @_ZN7cricket23MediaContentDescription15SetCnameIfEmptyERKNSt3__112basic_stringIcNS1_11char_traitsIcEENS1_9allocatorIcEEEE to i8*), i8* bitcast (i32 (%"class.cricket::MediaContentDescription"*)* @_ZNK7cricket23MediaContentDescription10first_ssrcEv to i8*), i8* bitcast (i1 (%"class.cricket::MediaContentDescription"*)* @_ZNK7cricket23MediaContentDescription9has_ssrcsEv to i8*), i8* bitcast (void (%"class.cricket::MediaContentDescription"*, i1)* @_ZN7cricket23MediaContentDescription19set_conference_modeEb to i8*), i8* bitcast (i1 (%"class.cricket::MediaContentDescription"*)* @_ZNK7cricket23MediaContentDescription15conference_modeEv to i8*), i8* bitcast (void (%"class.cricket::MediaContentDescription"*, %"class.rtc::SocketAddress"*)* @_ZN7cricket23MediaContentDescription22set_connection_addressERKN3rtc13SocketAddressE to i8*), i8* bitcast (%"class.rtc::SocketAddress"* (%"class.cricket::MediaContentDescription"*)* @_ZNK7cricket23MediaContentDescription18connection_addressEv to i8*), i8* bitcast (void (%"class.cricket::MediaContentDescription"*, i32)* @_ZN7cricket23MediaContentDescription27set_extmap_allow_mixed_enumENS0_16ExtmapAllowMixedE to i8*), i8* bitcast (i32 (%"class.cricket::MediaContentDescription"*)* @_ZNK7cricket23MediaContentDescription23extmap_allow_mixed_enumEv to i8*), i8* bitcast (i1 (%"class.cricket::MediaContentDescription"*)* @_ZNK7cricket23MediaContentDescription18extmap_allow_mixedEv to i8*), i8* bitcast (i1 (%"class.cricket::MediaContentDescription"*)* @_ZNK7cricket23MediaContentDescription12HasSimulcastEv to i8*), i8* bitcast (%"class.cricket::SimulcastDescription"* (%"class.cricket::MediaContentDescription"*)* @_ZN7cricket23MediaContentDescription21simulcast_descriptionEv to i8*), i8* bitcast (%"class.cricket::SimulcastDescription"* (%"class.cricket::MediaContentDescription"*)* @_ZNK7cricket23MediaContentDescription21simulcast_descriptionEv to i8*), i8* bitcast (void (%"class.cricket::MediaContentDescription"*, %"class.cricket::SimulcastDescription"*)* @_ZN7cricket23MediaContentDescription25set_simulcast_descriptionERKNS_20SimulcastDescriptionE to i8*), i8* bitcast (%"class.std::__1::vector.6"* (%"class.cricket::MediaContentDescription"*)* @_ZNK7cricket23MediaContentDescription12receive_ridsEv to i8*), i8* bitcast (void (%"class.cricket::MediaContentDescription"*, %"class.std::__1::vector.6"*)* @_ZN7cricket23MediaContentDescription16set_receive_ridsERKNSt3__16vectorINS_14RidDescriptionENS1_9allocatorIS3_EEEE to i8*), i8* bitcast (void ()* @__cxa_pure_virtual to i8*)] }, comdat, align 8
@_ZNSt3__1L19piecewise_constructE = internal constant %"struct.std::__1::piecewise_construct_t" undef, align 1
@_ZTVN7cricket23AudioContentDescriptionE = linkonce_odr hidden unnamed_addr constant { [62 x i8*] } { [62 x i8*] [i8* null, i8* null, i8* bitcast (void (%"class.cricket::MediaContentDescriptionImpl"*)* @_ZN7cricket27MediaContentDescriptionImplINS_10AudioCodecEED2Ev to i8*), i8* bitcast (void (%"class.cricket::AudioContentDescription"*)* @_ZN7cricket23AudioContentDescriptionD0Ev to i8*), i8* bitcast (i32 (%"class.cricket::AudioContentDescription"*)* @_ZNK7cricket23AudioContentDescription4typeEv to i8*), i8* bitcast (%"class.cricket::AudioContentDescription"* (%"class.cricket::AudioContentDescription"*)* @_ZN7cricket23AudioContentDescription8as_audioEv to i8*), i8* bitcast (%"class.cricket::AudioContentDescription"* (%"class.cricket::AudioContentDescription"*)* @_ZNK7cricket23AudioContentDescription8as_audioEv to i8*), i8* bitcast (%"class.cricket::VideoContentDescription"* (%"class.cricket::MediaContentDescription"*)* @_ZN7cricket23MediaContentDescription8as_videoEv to i8*), i8* bitcast (%"class.cricket::VideoContentDescription"* (%"class.cricket::MediaContentDescription"*)* @_ZNK7cricket23MediaContentDescription8as_videoEv to i8*), i8* bitcast (%"class.cricket::SctpDataContentDescription"* (%"class.cricket::MediaContentDescription"*)* @_ZN7cricket23MediaContentDescription7as_sctpEv to i8*), i8* bitcast (%"class.cricket::SctpDataContentDescription"* (%"class.cricket::MediaContentDescription"*)* @_ZNK7cricket23MediaContentDescription7as_sctpEv to i8*), i8* bitcast (%"class.cricket::UnsupportedContentDescription"* (%"class.cricket::MediaContentDescription"*)* @_ZN7cricket23MediaContentDescription14as_unsupportedEv to i8*), i8* bitcast (%"class.cricket::UnsupportedContentDescription"* (%"class.cricket::MediaContentDescription"*)* @_ZNK7cricket23MediaContentDescription14as_unsupportedEv to i8*), i8* bitcast (i1 (%"class.cricket::MediaContentDescriptionImpl"*)* @_ZNK7cricket27MediaContentDescriptionImplINS_10AudioCodecEE10has_codecsEv to i8*), i8* bitcast (void (%"class.std::__1::basic_string"*, %"class.cricket::MediaContentDescription"*)* @_ZNK7cricket23MediaContentDescription8protocolEv to i8*), i8* bitcast (void (%"class.cricket::MediaContentDescriptionImpl"*, %"class.std::__1::basic_string"*)* @_ZN7cricket27MediaContentDescriptionImplINS_10AudioCodecEE12set_protocolERKNSt3__112basic_stringIcNS3_11char_traitsIcEENS3_9allocatorIcEEEE to i8*), i8* bitcast (i32 (%"class.cricket::MediaContentDescription"*)* @_ZNK7cricket23MediaContentDescription9directionEv to i8*), i8* bitcast (void (%"class.cricket::MediaContentDescription"*, i32)* @_ZN7cricket23MediaContentDescription13set_directionEN6webrtc23RtpTransceiverDirectionE to i8*), i8* bitcast (i1 (%"class.cricket::MediaContentDescription"*)* @_ZNK7cricket23MediaContentDescription8rtcp_muxEv to i8*), i8* bitcast (void (%"class.cricket::MediaContentDescription"*, i1)* @_ZN7cricket23MediaContentDescription12set_rtcp_muxEb to i8*), i8* bitcast (i1 (%"class.cricket::MediaContentDescription"*)* @_ZNK7cricket23MediaContentDescription17rtcp_reduced_sizeEv to i8*), i8* bitcast (void (%"class.cricket::MediaContentDescription"*, i1)* @_ZN7cricket23MediaContentDescription21set_rtcp_reduced_sizeEb to i8*), i8* bitcast (i1 (%"class.cricket::MediaContentDescription"*)* @_ZNK7cricket23MediaContentDescription15remote_estimateEv to i8*), i8* bitcast (void (%"class.cricket::MediaContentDescription"*, i1)* @_ZN7cricket23MediaContentDescription19set_remote_estimateEb to i8*), i8* bitcast (i32 (%"class.cricket::MediaContentDescription"*)* @_ZNK7cricket23MediaContentDescription9bandwidthEv to i8*), i8* bitcast (void (%"class.cricket::MediaContentDescription"*, i32)* @_ZN7cricket23MediaContentDescription13set_bandwidthEi to i8*), i8* bitcast (void (%"class.std::__1::basic_string"*, %"class.cricket::MediaContentDescription"*)* @_ZNK7cricket23MediaContentDescription14bandwidth_typeEv to i8*), i8* bitcast (void (%"class.cricket::MediaContentDescription"*, %"class.std::__1::basic_string"*)* @_ZN7cricket23MediaContentDescription18set_bandwidth_typeENSt3__112basic_stringIcNS1_11char_traitsIcEENS1_9allocatorIcEEEE to i8*), i8* bitcast (%"class.std::__1::vector.59"* (%"class.cricket::MediaContentDescription"*)* @_ZNK7cricket23MediaContentDescription7cryptosEv to i8*), i8* bitcast (void (%"class.cricket::MediaContentDescription"*, %"struct.cricket::CryptoParams"*)* @_ZN7cricket23MediaContentDescription9AddCryptoERKNS_12CryptoParamsE to i8*), i8* bitcast (void (%"class.cricket::MediaContentDescription"*, %"class.std::__1::vector.59"*)* @_ZN7cricket23MediaContentDescription11set_cryptosERKNSt3__16vectorINS_12CryptoParamsENS1_9allocatorIS3_EEEE to i8*), i8* bitcast (%"class.std::__1::vector.66"* (%"class.cricket::MediaContentDescription"*)* @_ZNK7cricket23MediaContentDescription21rtp_header_extensionsEv to i8*), i8* bitcast (void (%"class.cricket::MediaContentDescription"*, %"class.std::__1::vector.66"*)* @_ZN7cricket23MediaContentDescription25set_rtp_header_extensionsERKNSt3__16vectorIN6webrtc12RtpExtensionENS1_9allocatorIS4_EEEE to i8*), i8* bitcast (void (%"class.cricket::MediaContentDescription"*, %"struct.webrtc::RtpExtension"*)* @_ZN7cricket23MediaContentDescription21AddRtpHeaderExtensionERKN6webrtc12RtpExtensionE to i8*), i8* bitcast (void (%"class.cricket::MediaContentDescription"*)* @_ZN7cricket23MediaContentDescription24ClearRtpHeaderExtensionsEv to i8*), i8* bitcast (i1 (%"class.cricket::MediaContentDescription"*)* @_ZNK7cricket23MediaContentDescription25rtp_header_extensions_setEv to i8*), i8* bitcast (%"class.std::__1::vector.28"* (%"class.cricket::MediaContentDescription"*)* @_ZNK7cricket23MediaContentDescription7streamsEv to i8*), i8* bitcast (%"class.std::__1::vector.28"* (%"class.cricket::MediaContentDescription"*)* @_ZN7cricket23MediaContentDescription15mutable_streamsEv to i8*), i8* bitcast (void (%"class.cricket::MediaContentDescription"*, %"struct.cricket::StreamParams"*)* @_ZN7cricket23MediaContentDescription9AddStreamERKNS_12StreamParamsE to i8*), i8* bitcast (void (%"class.cricket::MediaContentDescription"*, %"class.std::__1::basic_string"*)* @_ZN7cricket23MediaContentDescription15SetCnameIfEmptyERKNSt3__112basic_stringIcNS1_11char_traitsIcEENS1_9allocatorIcEEEE to i8*), i8* bitcast (i32 (%"class.cricket::MediaContentDescription"*)* @_ZNK7cricket23MediaContentDescription10first_ssrcEv to i8*), i8* bitcast (i1 (%"class.cricket::MediaContentDescription"*)* @_ZNK7cricket23MediaContentDescription9has_ssrcsEv to i8*), i8* bitcast (void (%"class.cricket::MediaContentDescription"*, i1)* @_ZN7cricket23MediaContentDescription19set_conference_modeEb to i8*), i8* bitcast (i1 (%"class.cricket::MediaContentDescription"*)* @_ZNK7cricket23MediaContentDescription15conference_modeEv to i8*), i8* bitcast (void (%"class.cricket::MediaContentDescription"*, %"class.rtc::SocketAddress"*)* @_ZN7cricket23MediaContentDescription22set_connection_addressERKN3rtc13SocketAddressE to i8*), i8* bitcast (%"class.rtc::SocketAddress"* (%"class.cricket::MediaContentDescription"*)* @_ZNK7cricket23MediaContentDescription18connection_addressEv to i8*), i8* bitcast (void (%"class.cricket::MediaContentDescription"*, i32)* @_ZN7cricket23MediaContentDescription27set_extmap_allow_mixed_enumENS0_16ExtmapAllowMixedE to i8*), i8* bitcast (i32 (%"class.cricket::MediaContentDescription"*)* @_ZNK7cricket23MediaContentDescription23extmap_allow_mixed_enumEv to i8*), i8* bitcast (i1 (%"class.cricket::MediaContentDescription"*)* @_ZNK7cricket23MediaContentDescription18extmap_allow_mixedEv to i8*), i8* bitcast (i1 (%"class.cricket::MediaContentDescription"*)* @_ZNK7cricket23MediaContentDescription12HasSimulcastEv to i8*), i8* bitcast (%"class.cricket::SimulcastDescription"* (%"class.cricket::MediaContentDescription"*)* @_ZN7cricket23MediaContentDescription21simulcast_descriptionEv to i8*), i8* bitcast (%"class.cricket::SimulcastDescription"* (%"class.cricket::MediaContentDescription"*)* @_ZNK7cricket23MediaContentDescription21simulcast_descriptionEv to i8*), i8* bitcast (void (%"class.cricket::MediaContentDescription"*, %"class.cricket::SimulcastDescription"*)* @_ZN7cricket23MediaContentDescription25set_simulcast_descriptionERKNS_20SimulcastDescriptionE to i8*), i8* bitcast (%"class.std::__1::vector.6"* (%"class.cricket::MediaContentDescription"*)* @_ZNK7cricket23MediaContentDescription12receive_ridsEv to i8*), i8* bitcast (void (%"class.cricket::MediaContentDescription"*, %"class.std::__1::vector.6"*)* @_ZN7cricket23MediaContentDescription16set_receive_ridsERKNSt3__16vectorINS_14RidDescriptionENS1_9allocatorIS3_EEEE to i8*), i8* bitcast (%"class.cricket::AudioContentDescription"* (%"class.cricket::AudioContentDescription"*)* @_ZNK7cricket23AudioContentDescription13CloneInternalEv to i8*), i8* bitcast (%"class.std::__1::vector.181"* (%"class.cricket::MediaContentDescriptionImpl"*)* @_ZNK7cricket27MediaContentDescriptionImplINS_10AudioCodecEE6codecsEv to i8*), i8* bitcast (void (%"class.cricket::MediaContentDescriptionImpl"*, %"class.std::__1::vector.181"*)* @_ZN7cricket27MediaContentDescriptionImplINS_10AudioCodecEE10set_codecsERKNSt3__16vectorIS1_NS3_9allocatorIS1_EEEE to i8*), i8* bitcast (i1 (%"class.cricket::MediaContentDescriptionImpl"*, i32)* @_ZN7cricket27MediaContentDescriptionImplINS_10AudioCodecEE8HasCodecEi to i8*), i8* bitcast (void (%"class.cricket::MediaContentDescriptionImpl"*, %"struct.cricket::AudioCodec"*)* @_ZN7cricket27MediaContentDescriptionImplINS_10AudioCodecEE8AddCodecERKS1_ to i8*), i8* bitcast (void (%"class.cricket::MediaContentDescriptionImpl"*, %"struct.cricket::AudioCodec"*)* @_ZN7cricket27MediaContentDescriptionImplINS_10AudioCodecEE17AddOrReplaceCodecERKS1_ to i8*), i8* bitcast (void (%"class.cricket::MediaContentDescriptionImpl"*, %"class.std::__1::vector.181"*)* @_ZN7cricket27MediaContentDescriptionImplINS_10AudioCodecEE9AddCodecsERKNSt3__16vectorIS1_NS3_9allocatorIS1_EEEE to i8*)] }, comdat, align 8
@_ZTVN7cricket27MediaContentDescriptionImplINS_10AudioCodecEEE = linkonce_odr hidden unnamed_addr constant { [62 x i8*] } { [62 x i8*] [i8* null, i8* null, i8* bitcast (void (%"class.cricket::MediaContentDescriptionImpl"*)* @_ZN7cricket27MediaContentDescriptionImplINS_10AudioCodecEED2Ev to i8*), i8* bitcast (void (%"class.cricket::MediaContentDescriptionImpl"*)* @_ZN7cricket27MediaContentDescriptionImplINS_10AudioCodecEED0Ev to i8*), i8* bitcast (void ()* @__cxa_pure_virtual to i8*), i8* bitcast (%"class.cricket::AudioContentDescription"* (%"class.cricket::MediaContentDescription"*)* @_ZN7cricket23MediaContentDescription8as_audioEv to i8*), i8* bitcast (%"class.cricket::AudioContentDescription"* (%"class.cricket::MediaContentDescription"*)* @_ZNK7cricket23MediaContentDescription8as_audioEv to i8*), i8* bitcast (%"class.cricket::VideoContentDescription"* (%"class.cricket::MediaContentDescription"*)* @_ZN7cricket23MediaContentDescription8as_videoEv to i8*), i8* bitcast (%"class.cricket::VideoContentDescription"* (%"class.cricket::MediaContentDescription"*)* @_ZNK7cricket23MediaContentDescription8as_videoEv to i8*), i8* bitcast (%"class.cricket::SctpDataContentDescription"* (%"class.cricket::MediaContentDescription"*)* @_ZN7cricket23MediaContentDescription7as_sctpEv to i8*), i8* bitcast (%"class.cricket::SctpDataContentDescription"* (%"class.cricket::MediaContentDescription"*)* @_ZNK7cricket23MediaContentDescription7as_sctpEv to i8*), i8* bitcast (%"class.cricket::UnsupportedContentDescription"* (%"class.cricket::MediaContentDescription"*)* @_ZN7cricket23MediaContentDescription14as_unsupportedEv to i8*), i8* bitcast (%"class.cricket::UnsupportedContentDescription"* (%"class.cricket::MediaContentDescription"*)* @_ZNK7cricket23MediaContentDescription14as_unsupportedEv to i8*), i8* bitcast (i1 (%"class.cricket::MediaContentDescriptionImpl"*)* @_ZNK7cricket27MediaContentDescriptionImplINS_10AudioCodecEE10has_codecsEv to i8*), i8* bitcast (void (%"class.std::__1::basic_string"*, %"class.cricket::MediaContentDescription"*)* @_ZNK7cricket23MediaContentDescription8protocolEv to i8*), i8* bitcast (void (%"class.cricket::MediaContentDescriptionImpl"*, %"class.std::__1::basic_string"*)* @_ZN7cricket27MediaContentDescriptionImplINS_10AudioCodecEE12set_protocolERKNSt3__112basic_stringIcNS3_11char_traitsIcEENS3_9allocatorIcEEEE to i8*), i8* bitcast (i32 (%"class.cricket::MediaContentDescription"*)* @_ZNK7cricket23MediaContentDescription9directionEv to i8*), i8* bitcast (void (%"class.cricket::MediaContentDescription"*, i32)* @_ZN7cricket23MediaContentDescription13set_directionEN6webrtc23RtpTransceiverDirectionE to i8*), i8* bitcast (i1 (%"class.cricket::MediaContentDescription"*)* @_ZNK7cricket23MediaContentDescription8rtcp_muxEv to i8*), i8* bitcast (void (%"class.cricket::MediaContentDescription"*, i1)* @_ZN7cricket23MediaContentDescription12set_rtcp_muxEb to i8*), i8* bitcast (i1 (%"class.cricket::MediaContentDescription"*)* @_ZNK7cricket23MediaContentDescription17rtcp_reduced_sizeEv to i8*), i8* bitcast (void (%"class.cricket::MediaContentDescription"*, i1)* @_ZN7cricket23MediaContentDescription21set_rtcp_reduced_sizeEb to i8*), i8* bitcast (i1 (%"class.cricket::MediaContentDescription"*)* @_ZNK7cricket23MediaContentDescription15remote_estimateEv to i8*), i8* bitcast (void (%"class.cricket::MediaContentDescription"*, i1)* @_ZN7cricket23MediaContentDescription19set_remote_estimateEb to i8*), i8* bitcast (i32 (%"class.cricket::MediaContentDescription"*)* @_ZNK7cricket23MediaContentDescription9bandwidthEv to i8*), i8* bitcast (void (%"class.cricket::MediaContentDescription"*, i32)* @_ZN7cricket23MediaContentDescription13set_bandwidthEi to i8*), i8* bitcast (void (%"class.std::__1::basic_string"*, %"class.cricket::MediaContentDescription"*)* @_ZNK7cricket23MediaContentDescription14bandwidth_typeEv to i8*), i8* bitcast (void (%"class.cricket::MediaContentDescription"*, %"class.std::__1::basic_string"*)* @_ZN7cricket23MediaContentDescription18set_bandwidth_typeENSt3__112basic_stringIcNS1_11char_traitsIcEENS1_9allocatorIcEEEE to i8*), i8* bitcast (%"class.std::__1::vector.59"* (%"class.cricket::MediaContentDescription"*)* @_ZNK7cricket23MediaContentDescription7cryptosEv to i8*), i8* bitcast (void (%"class.cricket::MediaContentDescription"*, %"struct.cricket::CryptoParams"*)* @_ZN7cricket23MediaContentDescription9AddCryptoERKNS_12CryptoParamsE to i8*), i8* bitcast (void (%"class.cricket::MediaContentDescription"*, %"class.std::__1::vector.59"*)* @_ZN7cricket23MediaContentDescription11set_cryptosERKNSt3__16vectorINS_12CryptoParamsENS1_9allocatorIS3_EEEE to i8*), i8* bitcast (%"class.std::__1::vector.66"* (%"class.cricket::MediaContentDescription"*)* @_ZNK7cricket23MediaContentDescription21rtp_header_extensionsEv to i8*), i8* bitcast (void (%"class.cricket::MediaContentDescription"*, %"class.std::__1::vector.66"*)* @_ZN7cricket23MediaContentDescription25set_rtp_header_extensionsERKNSt3__16vectorIN6webrtc12RtpExtensionENS1_9allocatorIS4_EEEE to i8*), i8* bitcast (void (%"class.cricket::MediaContentDescription"*, %"struct.webrtc::RtpExtension"*)* @_ZN7cricket23MediaContentDescription21AddRtpHeaderExtensionERKN6webrtc12RtpExtensionE to i8*), i8* bitcast (void (%"class.cricket::MediaContentDescription"*)* @_ZN7cricket23MediaContentDescription24ClearRtpHeaderExtensionsEv to i8*), i8* bitcast (i1 (%"class.cricket::MediaContentDescription"*)* @_ZNK7cricket23MediaContentDescription25rtp_header_extensions_setEv to i8*), i8* bitcast (%"class.std::__1::vector.28"* (%"class.cricket::MediaContentDescription"*)* @_ZNK7cricket23MediaContentDescription7streamsEv to i8*), i8* bitcast (%"class.std::__1::vector.28"* (%"class.cricket::MediaContentDescription"*)* @_ZN7cricket23MediaContentDescription15mutable_streamsEv to i8*), i8* bitcast (void (%"class.cricket::MediaContentDescription"*, %"struct.cricket::StreamParams"*)* @_ZN7cricket23MediaContentDescription9AddStreamERKNS_12StreamParamsE to i8*), i8* bitcast (void (%"class.cricket::MediaContentDescription"*, %"class.std::__1::basic_string"*)* @_ZN7cricket23MediaContentDescription15SetCnameIfEmptyERKNSt3__112basic_stringIcNS1_11char_traitsIcEENS1_9allocatorIcEEEE to i8*), i8* bitcast (i32 (%"class.cricket::MediaContentDescription"*)* @_ZNK7cricket23MediaContentDescription10first_ssrcEv to i8*), i8* bitcast (i1 (%"class.cricket::MediaContentDescription"*)* @_ZNK7cricket23MediaContentDescription9has_ssrcsEv to i8*), i8* bitcast (void (%"class.cricket::MediaContentDescription"*, i1)* @_ZN7cricket23MediaContentDescription19set_conference_modeEb to i8*), i8* bitcast (i1 (%"class.cricket::MediaContentDescription"*)* @_ZNK7cricket23MediaContentDescription15conference_modeEv to i8*), i8* bitcast (void (%"class.cricket::MediaContentDescription"*, %"class.rtc::SocketAddress"*)* @_ZN7cricket23MediaContentDescription22set_connection_addressERKN3rtc13SocketAddressE to i8*), i8* bitcast (%"class.rtc::SocketAddress"* (%"class.cricket::MediaContentDescription"*)* @_ZNK7cricket23MediaContentDescription18connection_addressEv to i8*), i8* bitcast (void (%"class.cricket::MediaContentDescription"*, i32)* @_ZN7cricket23MediaContentDescription27set_extmap_allow_mixed_enumENS0_16ExtmapAllowMixedE to i8*), i8* bitcast (i32 (%"class.cricket::MediaContentDescription"*)* @_ZNK7cricket23MediaContentDescription23extmap_allow_mixed_enumEv to i8*), i8* bitcast (i1 (%"class.cricket::MediaContentDescription"*)* @_ZNK7cricket23MediaContentDescription18extmap_allow_mixedEv to i8*), i8* bitcast (i1 (%"class.cricket::MediaContentDescription"*)* @_ZNK7cricket23MediaContentDescription12HasSimulcastEv to i8*), i8* bitcast (%"class.cricket::SimulcastDescription"* (%"class.cricket::MediaContentDescription"*)* @_ZN7cricket23MediaContentDescription21simulcast_descriptionEv to i8*), i8* bitcast (%"class.cricket::SimulcastDescription"* (%"class.cricket::MediaContentDescription"*)* @_ZNK7cricket23MediaContentDescription21simulcast_descriptionEv to i8*), i8* bitcast (void (%"class.cricket::MediaContentDescription"*, %"class.cricket::SimulcastDescription"*)* @_ZN7cricket23MediaContentDescription25set_simulcast_descriptionERKNS_20SimulcastDescriptionE to i8*), i8* bitcast (%"class.std::__1::vector.6"* (%"class.cricket::MediaContentDescription"*)* @_ZNK7cricket23MediaContentDescription12receive_ridsEv to i8*), i8* bitcast (void (%"class.cricket::MediaContentDescription"*, %"class.std::__1::vector.6"*)* @_ZN7cricket23MediaContentDescription16set_receive_ridsERKNSt3__16vectorINS_14RidDescriptionENS1_9allocatorIS3_EEEE to i8*), i8* bitcast (void ()* @__cxa_pure_virtual to i8*), i8* bitcast (%"class.std::__1::vector.181"* (%"class.cricket::MediaContentDescriptionImpl"*)* @_ZNK7cricket27MediaContentDescriptionImplINS_10AudioCodecEE6codecsEv to i8*), i8* bitcast (void (%"class.cricket::MediaContentDescriptionImpl"*, %"class.std::__1::vector.181"*)* @_ZN7cricket27MediaContentDescriptionImplINS_10AudioCodecEE10set_codecsERKNSt3__16vectorIS1_NS3_9allocatorIS1_EEEE to i8*), i8* bitcast (i1 (%"class.cricket::MediaContentDescriptionImpl"*, i32)* @_ZN7cricket27MediaContentDescriptionImplINS_10AudioCodecEE8HasCodecEi to i8*), i8* bitcast (void (%"class.cricket::MediaContentDescriptionImpl"*, %"struct.cricket::AudioCodec"*)* @_ZN7cricket27MediaContentDescriptionImplINS_10AudioCodecEE8AddCodecERKS1_ to i8*), i8* bitcast (void (%"class.cricket::MediaContentDescriptionImpl"*, %"struct.cricket::AudioCodec"*)* @_ZN7cricket27MediaContentDescriptionImplINS_10AudioCodecEE17AddOrReplaceCodecERKS1_ to i8*), i8* bitcast (void (%"class.cricket::MediaContentDescriptionImpl"*, %"class.std::__1::vector.181"*)* @_ZN7cricket27MediaContentDescriptionImplINS_10AudioCodecEE9AddCodecsERKNSt3__16vectorIS1_NS3_9allocatorIS1_EEEE to i8*)] }, comdat, align 8
@_ZTVN7cricket26SctpDataContentDescriptionE = linkonce_odr hidden unnamed_addr constant { [56 x i8*] } { [56 x i8*] [i8* null, i8* null, i8* bitcast (void (%"class.cricket::MediaContentDescription"*)* @_ZN7cricket23MediaContentDescriptionD2Ev to i8*), i8* bitcast (void (%"class.cricket::SctpDataContentDescription"*)* @_ZN7cricket26SctpDataContentDescriptionD0Ev to i8*), i8* bitcast (i32 (%"class.cricket::SctpDataContentDescription"*)* @_ZNK7cricket26SctpDataContentDescription4typeEv to i8*), i8* bitcast (%"class.cricket::AudioContentDescription"* (%"class.cricket::MediaContentDescription"*)* @_ZN7cricket23MediaContentDescription8as_audioEv to i8*), i8* bitcast (%"class.cricket::AudioContentDescription"* (%"class.cricket::MediaContentDescription"*)* @_ZNK7cricket23MediaContentDescription8as_audioEv to i8*), i8* bitcast (%"class.cricket::VideoContentDescription"* (%"class.cricket::MediaContentDescription"*)* @_ZN7cricket23MediaContentDescription8as_videoEv to i8*), i8* bitcast (%"class.cricket::VideoContentDescription"* (%"class.cricket::MediaContentDescription"*)* @_ZNK7cricket23MediaContentDescription8as_videoEv to i8*), i8* bitcast (%"class.cricket::SctpDataContentDescription"* (%"class.cricket::SctpDataContentDescription"*)* @_ZN7cricket26SctpDataContentDescription7as_sctpEv to i8*), i8* bitcast (%"class.cricket::SctpDataContentDescription"* (%"class.cricket::SctpDataContentDescription"*)* @_ZNK7cricket26SctpDataContentDescription7as_sctpEv to i8*), i8* bitcast (%"class.cricket::UnsupportedContentDescription"* (%"class.cricket::MediaContentDescription"*)* @_ZN7cricket23MediaContentDescription14as_unsupportedEv to i8*), i8* bitcast (%"class.cricket::UnsupportedContentDescription"* (%"class.cricket::MediaContentDescription"*)* @_ZNK7cricket23MediaContentDescription14as_unsupportedEv to i8*), i8* bitcast (i1 (%"class.cricket::SctpDataContentDescription"*)* @_ZNK7cricket26SctpDataContentDescription10has_codecsEv to i8*), i8* bitcast (void (%"class.std::__1::basic_string"*, %"class.cricket::MediaContentDescription"*)* @_ZNK7cricket23MediaContentDescription8protocolEv to i8*), i8* bitcast (void (%"class.cricket::SctpDataContentDescription"*, %"class.std::__1::basic_string"*)* @_ZN7cricket26SctpDataContentDescription12set_protocolERKNSt3__112basic_stringIcNS1_11char_traitsIcEENS1_9allocatorIcEEEE to i8*), i8* bitcast (i32 (%"class.cricket::MediaContentDescription"*)* @_ZNK7cricket23MediaContentDescription9directionEv to i8*), i8* bitcast (void (%"class.cricket::MediaContentDescription"*, i32)* @_ZN7cricket23MediaContentDescription13set_directionEN6webrtc23RtpTransceiverDirectionE to i8*), i8* bitcast (i1 (%"class.cricket::MediaContentDescription"*)* @_ZNK7cricket23MediaContentDescription8rtcp_muxEv to i8*), i8* bitcast (void (%"class.cricket::MediaContentDescription"*, i1)* @_ZN7cricket23MediaContentDescription12set_rtcp_muxEb to i8*), i8* bitcast (i1 (%"class.cricket::MediaContentDescription"*)* @_ZNK7cricket23MediaContentDescription17rtcp_reduced_sizeEv to i8*), i8* bitcast (void (%"class.cricket::MediaContentDescription"*, i1)* @_ZN7cricket23MediaContentDescription21set_rtcp_reduced_sizeEb to i8*), i8* bitcast (i1 (%"class.cricket::MediaContentDescription"*)* @_ZNK7cricket23MediaContentDescription15remote_estimateEv to i8*), i8* bitcast (void (%"class.cricket::MediaContentDescription"*, i1)* @_ZN7cricket23MediaContentDescription19set_remote_estimateEb to i8*), i8* bitcast (i32 (%"class.cricket::MediaContentDescription"*)* @_ZNK7cricket23MediaContentDescription9bandwidthEv to i8*), i8* bitcast (void (%"class.cricket::MediaContentDescription"*, i32)* @_ZN7cricket23MediaContentDescription13set_bandwidthEi to i8*), i8* bitcast (void (%"class.std::__1::basic_string"*, %"class.cricket::MediaContentDescription"*)* @_ZNK7cricket23MediaContentDescription14bandwidth_typeEv to i8*), i8* bitcast (void (%"class.cricket::MediaContentDescription"*, %"class.std::__1::basic_string"*)* @_ZN7cricket23MediaContentDescription18set_bandwidth_typeENSt3__112basic_stringIcNS1_11char_traitsIcEENS1_9allocatorIcEEEE to i8*), i8* bitcast (%"class.std::__1::vector.59"* (%"class.cricket::MediaContentDescription"*)* @_ZNK7cricket23MediaContentDescription7cryptosEv to i8*), i8* bitcast (void (%"class.cricket::MediaContentDescription"*, %"struct.cricket::CryptoParams"*)* @_ZN7cricket23MediaContentDescription9AddCryptoERKNS_12CryptoParamsE to i8*), i8* bitcast (void (%"class.cricket::MediaContentDescription"*, %"class.std::__1::vector.59"*)* @_ZN7cricket23MediaContentDescription11set_cryptosERKNSt3__16vectorINS_12CryptoParamsENS1_9allocatorIS3_EEEE to i8*), i8* bitcast (%"class.std::__1::vector.66"* (%"class.cricket::MediaContentDescription"*)* @_ZNK7cricket23MediaContentDescription21rtp_header_extensionsEv to i8*), i8* bitcast (void (%"class.cricket::MediaContentDescription"*, %"class.std::__1::vector.66"*)* @_ZN7cricket23MediaContentDescription25set_rtp_header_extensionsERKNSt3__16vectorIN6webrtc12RtpExtensionENS1_9allocatorIS4_EEEE to i8*), i8* bitcast (void (%"class.cricket::MediaContentDescription"*, %"struct.webrtc::RtpExtension"*)* @_ZN7cricket23MediaContentDescription21AddRtpHeaderExtensionERKN6webrtc12RtpExtensionE to i8*), i8* bitcast (void (%"class.cricket::MediaContentDescription"*)* @_ZN7cricket23MediaContentDescription24ClearRtpHeaderExtensionsEv to i8*), i8* bitcast (i1 (%"class.cricket::MediaContentDescription"*)* @_ZNK7cricket23MediaContentDescription25rtp_header_extensions_setEv to i8*), i8* bitcast (%"class.std::__1::vector.28"* (%"class.cricket::MediaContentDescription"*)* @_ZNK7cricket23MediaContentDescription7streamsEv to i8*), i8* bitcast (%"class.std::__1::vector.28"* (%"class.cricket::MediaContentDescription"*)* @_ZN7cricket23MediaContentDescription15mutable_streamsEv to i8*), i8* bitcast (void (%"class.cricket::MediaContentDescription"*, %"struct.cricket::StreamParams"*)* @_ZN7cricket23MediaContentDescription9AddStreamERKNS_12StreamParamsE to i8*), i8* bitcast (void (%"class.cricket::MediaContentDescription"*, %"class.std::__1::basic_string"*)* @_ZN7cricket23MediaContentDescription15SetCnameIfEmptyERKNSt3__112basic_stringIcNS1_11char_traitsIcEENS1_9allocatorIcEEEE to i8*), i8* bitcast (i32 (%"class.cricket::MediaContentDescription"*)* @_ZNK7cricket23MediaContentDescription10first_ssrcEv to i8*), i8* bitcast (i1 (%"class.cricket::MediaContentDescription"*)* @_ZNK7cricket23MediaContentDescription9has_ssrcsEv to i8*), i8* bitcast (void (%"class.cricket::MediaContentDescription"*, i1)* @_ZN7cricket23MediaContentDescription19set_conference_modeEb to i8*), i8* bitcast (i1 (%"class.cricket::MediaContentDescription"*)* @_ZNK7cricket23MediaContentDescription15conference_modeEv to i8*), i8* bitcast (void (%"class.cricket::MediaContentDescription"*, %"class.rtc::SocketAddress"*)* @_ZN7cricket23MediaContentDescription22set_connection_addressERKN3rtc13SocketAddressE to i8*), i8* bitcast (%"class.rtc::SocketAddress"* (%"class.cricket::MediaContentDescription"*)* @_ZNK7cricket23MediaContentDescription18connection_addressEv to i8*), i8* bitcast (void (%"class.cricket::MediaContentDescription"*, i32)* @_ZN7cricket23MediaContentDescription27set_extmap_allow_mixed_enumENS0_16ExtmapAllowMixedE to i8*), i8* bitcast (i32 (%"class.cricket::MediaContentDescription"*)* @_ZNK7cricket23MediaContentDescription23extmap_allow_mixed_enumEv to i8*), i8* bitcast (i1 (%"class.cricket::MediaContentDescription"*)* @_ZNK7cricket23MediaContentDescription18extmap_allow_mixedEv to i8*), i8* bitcast (i1 (%"class.cricket::MediaContentDescription"*)* @_ZNK7cricket23MediaContentDescription12HasSimulcastEv to i8*), i8* bitcast (%"class.cricket::SimulcastDescription"* (%"class.cricket::MediaContentDescription"*)* @_ZN7cricket23MediaContentDescription21simulcast_descriptionEv to i8*), i8* bitcast (%"class.cricket::SimulcastDescription"* (%"class.cricket::MediaContentDescription"*)* @_ZNK7cricket23MediaContentDescription21simulcast_descriptionEv to i8*), i8* bitcast (void (%"class.cricket::MediaContentDescription"*, %"class.cricket::SimulcastDescription"*)* @_ZN7cricket23MediaContentDescription25set_simulcast_descriptionERKNS_20SimulcastDescriptionE to i8*), i8* bitcast (%"class.std::__1::vector.6"* (%"class.cricket::MediaContentDescription"*)* @_ZNK7cricket23MediaContentDescription12receive_ridsEv to i8*), i8* bitcast (void (%"class.cricket::MediaContentDescription"*, %"class.std::__1::vector.6"*)* @_ZN7cricket23MediaContentDescription16set_receive_ridsERKNSt3__16vectorINS_14RidDescriptionENS1_9allocatorIS3_EEEE to i8*), i8* bitcast (%"class.cricket::SctpDataContentDescription"* (%"class.cricket::SctpDataContentDescription"*)* @_ZNK7cricket26SctpDataContentDescription13CloneInternalEv to i8*)] }, comdat, align 8
@.str.60 = private unnamed_addr constant [18 x i8] c"Invalid SDP line.\00", align 1
@.str.61 = private unnamed_addr constant [64 x i8] c"b= syntax error, does not match b=<modifier>:<bandwidth-value>.\00", align 1
@.str.62 = private unnamed_addr constant [61 x i8] c"Ignoring \22b=AS:-1\22; will be treated as \22no bandwidth limit\22.\00", align 1
@.str.63 = private unnamed_addr constant [3 x i8] c"b=\00", align 1
@.str.64 = private unnamed_addr constant [26 x i8] c" value can't be negative.\00", align 1
@.str.65 = private unnamed_addr constant [15 x i8] c"Ignored line: \00", align 1
@.str.66 = private unnamed_addr constant [48 x i8] c"sctp-port attribute can't be used with sctpmap.\00", align 1
@.str.67 = private unnamed_addr constant [31 x i8] c"Ignoring empty RID attribute: \00", align 1
@.str.68 = private unnamed_addr constant [31 x i8] c"Ignoring malformed RID line: '\00", align 1
@.str.69 = private unnamed_addr constant [11 x i8] c"'. Error: \00", align 1
@.str.70 = private unnamed_addr constant [30 x i8] c"Simulcast attribute is empty.\00", align 1
@.str.71 = private unnamed_addr constant [41 x i8] c"Multiple Simulcast attributes specified.\00", align 1
@.str.72 = private unnamed_addr constant [27 x i8] c"Malformed simulcast line: \00", align 1
@.str.73 = private unnamed_addr constant [40 x i8] c"Failed to parse audio codecs correctly.\00", align 1
@.str.74 = private unnamed_addr constant [40 x i8] c"Failed to parse video codecs correctly.\00", align 1
@_ZN6webrtcL21kLegalTokenCharactersE = internal constant [80 x i8] c"!#$%&'*+-.0123456789ABCDEFGHIJKLMNOPQRSTUVWXYZ^_`abcdefghijklmnopqrstuvwxyz{|}~\00", align 16
@.str.75 = private unnamed_addr constant [41 x i8] c"Illegal character found in the value of \00", align 1
@.str.76 = private unnamed_addr constant [48 x i8] c"Overwriting duplicate fmtp parameter with key \22\00", align 1
@.str.77 = private unnamed_addr constant [3 x i8] c"\22.\00", align 1
@.str.78 = private unnamed_addr constant [45 x i8] c"Failed to get the ssrc attribute value from \00", align 1
@.str.79 = private unnamed_addr constant [39 x i8] c". Expected format <attribute>:<value>.\00", align 1
@.str.80 = private unnamed_addr constant [49 x i8] c"Expected format \22msid:<identifier>[ <appdata>]\22.\00", align 1
@.str.81 = private unnamed_addr constant [68 x i8] c"Ignore rtpmap line that did not appear in the <fmt> of the m-line: \00", align 1
@.str.82 = private unnamed_addr constant [71 x i8] c"Expected format \22<encoding name>/<clock rate>[/<encodingparameters>]\22.\00", align 1
@.str.83 = private unnamed_addr constant [16 x i8] c"Invalid value: \00", align 1
@.str.84 = private unnamed_addr constant [2 x i8] c".\00", align 1
@.str.85 = private unnamed_addr constant [36 x i8] c"Missing track ID in msid attribute.\00", align 1
@.str.86 = private unnamed_addr constant [60 x i8] c"Two different track IDs in msid attribute in one m= section\00", align 1
@.str.87 = private unnamed_addr constant [37 x i8] c"Missing stream ID in msid attribute.\00", align 1
@_ZTVN7cricket29UnsupportedContentDescriptionE = linkonce_odr hidden unnamed_addr constant { [56 x i8*] } { [56 x i8*] [i8* null, i8* null, i8* bitcast (void (%"class.cricket::UnsupportedContentDescription"*)* @_ZN7cricket29UnsupportedContentDescriptionD2Ev to i8*), i8* bitcast (void (%"class.cricket::UnsupportedContentDescription"*)* @_ZN7cricket29UnsupportedContentDescriptionD0Ev to i8*), i8* bitcast (i32 (%"class.cricket::UnsupportedContentDescription"*)* @_ZNK7cricket29UnsupportedContentDescription4typeEv to i8*), i8* bitcast (%"class.cricket::AudioContentDescription"* (%"class.cricket::MediaContentDescription"*)* @_ZN7cricket23MediaContentDescription8as_audioEv to i8*), i8* bitcast (%"class.cricket::AudioContentDescription"* (%"class.cricket::MediaContentDescription"*)* @_ZNK7cricket23MediaContentDescription8as_audioEv to i8*), i8* bitcast (%"class.cricket::VideoContentDescription"* (%"class.cricket::MediaContentDescription"*)* @_ZN7cricket23MediaContentDescription8as_videoEv to i8*), i8* bitcast (%"class.cricket::VideoContentDescription"* (%"class.cricket::MediaContentDescription"*)* @_ZNK7cricket23MediaContentDescription8as_videoEv to i8*), i8* bitcast (%"class.cricket::SctpDataContentDescription"* (%"class.cricket::MediaContentDescription"*)* @_ZN7cricket23MediaContentDescription7as_sctpEv to i8*), i8* bitcast (%"class.cricket::SctpDataContentDescription"* (%"class.cricket::MediaContentDescription"*)* @_ZNK7cricket23MediaContentDescription7as_sctpEv to i8*), i8* bitcast (%"class.cricket::UnsupportedContentDescription"* (%"class.cricket::UnsupportedContentDescription"*)* @_ZN7cricket29UnsupportedContentDescription14as_unsupportedEv to i8*), i8* bitcast (%"class.cricket::UnsupportedContentDescription"* (%"class.cricket::UnsupportedContentDescription"*)* @_ZNK7cricket29UnsupportedContentDescription14as_unsupportedEv to i8*), i8* bitcast (i1 (%"class.cricket::UnsupportedContentDescription"*)* @_ZNK7cricket29UnsupportedContentDescription10has_codecsEv to i8*), i8* bitcast (void (%"class.std::__1::basic_string"*, %"class.cricket::MediaContentDescription"*)* @_ZNK7cricket23MediaContentDescription8protocolEv to i8*), i8* bitcast (void (%"class.cricket::MediaContentDescription"*, %"class.std::__1::basic_string"*)* @_ZN7cricket23MediaContentDescription12set_protocolERKNSt3__112basic_stringIcNS1_11char_traitsIcEENS1_9allocatorIcEEEE to i8*), i8* bitcast (i32 (%"class.cricket::MediaContentDescription"*)* @_ZNK7cricket23MediaContentDescription9directionEv to i8*), i8* bitcast (void (%"class.cricket::MediaContentDescription"*, i32)* @_ZN7cricket23MediaContentDescription13set_directionEN6webrtc23RtpTransceiverDirectionE to i8*), i8* bitcast (i1 (%"class.cricket::MediaContentDescription"*)* @_ZNK7cricket23MediaContentDescription8rtcp_muxEv to i8*), i8* bitcast (void (%"class.cricket::MediaContentDescription"*, i1)* @_ZN7cricket23MediaContentDescription12set_rtcp_muxEb to i8*), i8* bitcast (i1 (%"class.cricket::MediaContentDescription"*)* @_ZNK7cricket23MediaContentDescription17rtcp_reduced_sizeEv to i8*), i8* bitcast (void (%"class.cricket::MediaContentDescription"*, i1)* @_ZN7cricket23MediaContentDescription21set_rtcp_reduced_sizeEb to i8*), i8* bitcast (i1 (%"class.cricket::MediaContentDescription"*)* @_ZNK7cricket23MediaContentDescription15remote_estimateEv to i8*), i8* bitcast (void (%"class.cricket::MediaContentDescription"*, i1)* @_ZN7cricket23MediaContentDescription19set_remote_estimateEb to i8*), i8* bitcast (i32 (%"class.cricket::MediaContentDescription"*)* @_ZNK7cricket23MediaContentDescription9bandwidthEv to i8*), i8* bitcast (void (%"class.cricket::MediaContentDescription"*, i32)* @_ZN7cricket23MediaContentDescription13set_bandwidthEi to i8*), i8* bitcast (void (%"class.std::__1::basic_string"*, %"class.cricket::MediaContentDescription"*)* @_ZNK7cricket23MediaContentDescription14bandwidth_typeEv to i8*), i8* bitcast (void (%"class.cricket::MediaContentDescription"*, %"class.std::__1::basic_string"*)* @_ZN7cricket23MediaContentDescription18set_bandwidth_typeENSt3__112basic_stringIcNS1_11char_traitsIcEENS1_9allocatorIcEEEE to i8*), i8* bitcast (%"class.std::__1::vector.59"* (%"class.cricket::MediaContentDescription"*)* @_ZNK7cricket23MediaContentDescription7cryptosEv to i8*), i8* bitcast (void (%"class.cricket::MediaContentDescription"*, %"struct.cricket::CryptoParams"*)* @_ZN7cricket23MediaContentDescription9AddCryptoERKNS_12CryptoParamsE to i8*), i8* bitcast (void (%"class.cricket::MediaContentDescription"*, %"class.std::__1::vector.59"*)* @_ZN7cricket23MediaContentDescription11set_cryptosERKNSt3__16vectorINS_12CryptoParamsENS1_9allocatorIS3_EEEE to i8*), i8* bitcast (%"class.std::__1::vector.66"* (%"class.cricket::MediaContentDescription"*)* @_ZNK7cricket23MediaContentDescription21rtp_header_extensionsEv to i8*), i8* bitcast (void (%"class.cricket::MediaContentDescription"*, %"class.std::__1::vector.66"*)* @_ZN7cricket23MediaContentDescription25set_rtp_header_extensionsERKNSt3__16vectorIN6webrtc12RtpExtensionENS1_9allocatorIS4_EEEE to i8*), i8* bitcast (void (%"class.cricket::MediaContentDescription"*, %"struct.webrtc::RtpExtension"*)* @_ZN7cricket23MediaContentDescription21AddRtpHeaderExtensionERKN6webrtc12RtpExtensionE to i8*), i8* bitcast (void (%"class.cricket::MediaContentDescription"*)* @_ZN7cricket23MediaContentDescription24ClearRtpHeaderExtensionsEv to i8*), i8* bitcast (i1 (%"class.cricket::MediaContentDescription"*)* @_ZNK7cricket23MediaContentDescription25rtp_header_extensions_setEv to i8*), i8* bitcast (%"class.std::__1::vector.28"* (%"class.cricket::MediaContentDescription"*)* @_ZNK7cricket23MediaContentDescription7streamsEv to i8*), i8* bitcast (%"class.std::__1::vector.28"* (%"class.cricket::MediaContentDescription"*)* @_ZN7cricket23MediaContentDescription15mutable_streamsEv to i8*), i8* bitcast (void (%"class.cricket::MediaContentDescription"*, %"struct.cricket::StreamParams"*)* @_ZN7cricket23MediaContentDescription9AddStreamERKNS_12StreamParamsE to i8*), i8* bitcast (void (%"class.cricket::MediaContentDescription"*, %"class.std::__1::basic_string"*)* @_ZN7cricket23MediaContentDescription15SetCnameIfEmptyERKNSt3__112basic_stringIcNS1_11char_traitsIcEENS1_9allocatorIcEEEE to i8*), i8* bitcast (i32 (%"class.cricket::MediaContentDescription"*)* @_ZNK7cricket23MediaContentDescription10first_ssrcEv to i8*), i8* bitcast (i1 (%"class.cricket::MediaContentDescription"*)* @_ZNK7cricket23MediaContentDescription9has_ssrcsEv to i8*), i8* bitcast (void (%"class.cricket::MediaContentDescription"*, i1)* @_ZN7cricket23MediaContentDescription19set_conference_modeEb to i8*), i8* bitcast (i1 (%"class.cricket::MediaContentDescription"*)* @_ZNK7cricket23MediaContentDescription15conference_modeEv to i8*), i8* bitcast (void (%"class.cricket::MediaContentDescription"*, %"class.rtc::SocketAddress"*)* @_ZN7cricket23MediaContentDescription22set_connection_addressERKN3rtc13SocketAddressE to i8*), i8* bitcast (%"class.rtc::SocketAddress"* (%"class.cricket::MediaContentDescription"*)* @_ZNK7cricket23MediaContentDescription18connection_addressEv to i8*), i8* bitcast (void (%"class.cricket::MediaContentDescription"*, i32)* @_ZN7cricket23MediaContentDescription27set_extmap_allow_mixed_enumENS0_16ExtmapAllowMixedE to i8*), i8* bitcast (i32 (%"class.cricket::MediaContentDescription"*)* @_ZNK7cricket23MediaContentDescription23extmap_allow_mixed_enumEv to i8*), i8* bitcast (i1 (%"class.cricket::MediaContentDescription"*)* @_ZNK7cricket23MediaContentDescription18extmap_allow_mixedEv to i8*), i8* bitcast (i1 (%"class.cricket::MediaContentDescription"*)* @_ZNK7cricket23MediaContentDescription12HasSimulcastEv to i8*), i8* bitcast (%"class.cricket::SimulcastDescription"* (%"class.cricket::MediaContentDescription"*)* @_ZN7cricket23MediaContentDescription21simulcast_descriptionEv to i8*), i8* bitcast (%"class.cricket::SimulcastDescription"* (%"class.cricket::MediaContentDescription"*)* @_ZNK7cricket23MediaContentDescription21simulcast_descriptionEv to i8*), i8* bitcast (void (%"class.cricket::MediaContentDescription"*, %"class.cricket::SimulcastDescription"*)* @_ZN7cricket23MediaContentDescription25set_simulcast_descriptionERKNS_20SimulcastDescriptionE to i8*), i8* bitcast (%"class.std::__1::vector.6"* (%"class.cricket::MediaContentDescription"*)* @_ZNK7cricket23MediaContentDescription12receive_ridsEv to i8*), i8* bitcast (void (%"class.cricket::MediaContentDescription"*, %"class.std::__1::vector.6"*)* @_ZN7cricket23MediaContentDescription16set_receive_ridsERKNSt3__16vectorINS_14RidDescriptionENS1_9allocatorIS3_EEEE to i8*), i8* bitcast (%"class.cricket::UnsupportedContentDescription"* (%"class.cricket::UnsupportedContentDescription"*)* @_ZNK7cricket29UnsupportedContentDescription13CloneInternalEv to i8*)] }, comdat, align 8
@_ZTVN7cricket10VideoCodecE = external unnamed_addr constant { [5 x i8*] }, align 8

; Function Attrs: nounwind ssp uwtable
define hidden void @_ZN6webrtc22CreateTrackWithNoSsrcsERKNSt3__16vectorINS0_12basic_stringIcNS0_11char_traitsIcEENS0_9allocatorIcEEEENS5_IS7_EEEERKS7_RKNS1_IN7cricket14RidDescriptionENS5_ISF_EEEEPNS1_INSE_12StreamParamsENS5_ISK_EEEE(%"class.std::__1::vector"* dereferenceable(24), %"class.std::__1::basic_string"* dereferenceable(24), %"class.std::__1::vector.6"* readonly dereferenceable(24), %"class.std::__1::vector.28"*) local_unnamed_addr #0 {
  %5 = alloca %"struct.cricket::StreamParams", align 8
  %6 = alloca %"class.rtc::DiagnosticLogMessage", align 8
  %7 = bitcast %"struct.cricket::StreamParams"* %5 to i8*
  call void @llvm.lifetime.start.p0i8(i64 168, i8* nonnull %7) #17
  call void @llvm.memset.p0i8.i64(i8* nonnull align 8 %7, i8 -86, i64 168, i1 false)
  call void @_ZN7cricket12StreamParamsC1Ev(%"struct.cricket::StreamParams"* nonnull %5) #17
  %8 = bitcast %"class.std::__1::basic_string"* %1 to %"struct.std::__1::basic_string<char, std::__1::char_traits<char>, std::__1::allocator<char> >::__short"*
  %9 = getelementptr inbounds %"struct.std::__1::basic_string<char, std::__1::char_traits<char>, std::__1::allocator<char> >::__short", %"struct.std::__1::basic_string<char, std::__1::char_traits<char>, std::__1::allocator<char> >::__short"* %8, i64 0, i32 1, i32 0
  %10 = load i8, i8* %9, align 1
  %11 = icmp slt i8 %10, 0
  %12 = getelementptr inbounds %"class.std::__1::basic_string", %"class.std::__1::basic_string"* %1, i64 0, i32 0, i32 0, i32 0, i32 0, i32 0, i32 1
  %13 = load i64, i64* %12, align 8
  %14 = zext i8 %10 to i64
  %15 = select i1 %11, i64 %13, i64 %14
  %16 = icmp eq i64 %15, 0
  br i1 %16, label %17, label %28

17:                                               ; preds = %4
  %18 = getelementptr inbounds %"class.std::__1::vector.6", %"class.std::__1::vector.6"* %2, i64 0, i32 0, i32 0
  %19 = load %"struct.cricket::RidDescription"*, %"struct.cricket::RidDescription"** %18, align 8
  %20 = getelementptr inbounds %"class.std::__1::vector.6", %"class.std::__1::vector.6"* %2, i64 0, i32 0, i32 1
  %21 = load %"struct.cricket::RidDescription"*, %"struct.cricket::RidDescription"** %20, align 8
  %22 = icmp eq %"struct.cricket::RidDescription"* %19, %21
  br i1 %22, label %23, label %28

23:                                               ; preds = %17
  %24 = bitcast %"class.rtc::DiagnosticLogMessage"* %6 to i8*
  call void @llvm.lifetime.start.p0i8(i64 304, i8* nonnull %24) #17
  call void @_ZN3rtc20DiagnosticLogMessageC1EPKciNS_15LoggingSeverityENS_15LogErrorContextEi(%"class.rtc::DiagnosticLogMessage"* nonnull %6, i8* getelementptr inbounds ([42 x i8], [42 x i8]* @.str, i64 0, i64 0), i32 683, i32 3, i32 0, i32 0) #17
  %25 = getelementptr inbounds %"class.rtc::DiagnosticLogMessage", %"class.rtc::DiagnosticLogMessage"* %6, i64 0, i32 7
  %26 = bitcast %"class.std::__1::basic_ostringstream"* %25 to %"class.std::__1::basic_ostream"*
  %27 = call dereferenceable(160) %"class.std::__1::basic_ostream"* @_ZNSt3__124__put_character_sequenceIcNS_11char_traitsIcEEEERNS_13basic_ostreamIT_T0_EES7_PKS4_m(%"class.std::__1::basic_ostream"* dereferenceable(160) %26, i8* getelementptr inbounds ([53 x i8], [53 x i8]* @.str.1, i64 0, i64 0), i64 52) #17
  call void @_ZN3rtc20DiagnosticLogMessageD1Ev(%"class.rtc::DiagnosticLogMessage"* nonnull %6) #17
  call void @llvm.lifetime.end.p0i8(i64 304, i8* nonnull %24) #17
  br label %75

28:                                               ; preds = %17, %4
  call void @_ZN7cricket12StreamParams14set_stream_idsERKNSt3__16vectorINS1_12basic_stringIcNS1_11char_traitsIcEENS1_9allocatorIcEEEENS6_IS8_EEEE(%"struct.cricket::StreamParams"* nonnull %5, %"class.std::__1::vector"* dereferenceable(24) %0) #17
  %29 = getelementptr inbounds %"struct.cricket::StreamParams", %"struct.cricket::StreamParams"* %5, i64 0, i32 1
  %30 = icmp eq %"class.std::__1::basic_string"* %29, %1
  br i1 %30, label %56, label %31

31:                                               ; preds = %28
  %32 = bitcast %"class.std::__1::basic_string"* %29 to %"struct.std::__1::basic_string<char, std::__1::char_traits<char>, std::__1::allocator<char> >::__short"*
  %33 = getelementptr inbounds %"struct.std::__1::basic_string<char, std::__1::char_traits<char>, std::__1::allocator<char> >::__short", %"struct.std::__1::basic_string<char, std::__1::char_traits<char>, std::__1::allocator<char> >::__short"* %32, i64 0, i32 1, i32 0
  %34 = load i8, i8* %33, align 1
  %35 = icmp slt i8 %34, 0
  %36 = load i8, i8* %9, align 1
  %37 = icmp slt i8 %36, 0
  br i1 %35, label %47, label %38

38:                                               ; preds = %31
  br i1 %37, label %42, label %39

39:                                               ; preds = %38
  %40 = bitcast %"class.std::__1::basic_string"* %29 to i8*
  %41 = bitcast %"class.std::__1::basic_string"* %1 to i8*
  call void @llvm.memcpy.p0i8.p0i8.i64(i8* align 8 %40, i8* align 8 %41, i64 24, i1 false) #17
  br label %56

42:                                               ; preds = %38
  %43 = getelementptr inbounds %"class.std::__1::basic_string", %"class.std::__1::basic_string"* %1, i64 0, i32 0, i32 0, i32 0, i32 0, i32 0, i32 0
  %44 = load i8*, i8** %43, align 8
  %45 = load i64, i64* %12, align 8
  %46 = call dereferenceable(24) %"class.std::__1::basic_string"* @_ZNSt3__112basic_stringIcNS_11char_traitsIcEENS_9allocatorIcEEE17__assign_no_aliasILb1EEERS5_PKcm(%"class.std::__1::basic_string"* %29, i8* %44, i64 %45) #17
  br label %56

47:                                               ; preds = %31
  %48 = getelementptr inbounds %"class.std::__1::basic_string", %"class.std::__1::basic_string"* %1, i64 0, i32 0, i32 0, i32 0, i32 0, i32 0, i32 0
  %49 = load i8*, i8** %48, align 8
  %50 = load i64, i64* %12, align 8
  %51 = bitcast %"class.std::__1::basic_string"* %1 to i8*
  %52 = zext i8 %36 to i64
  %53 = select i1 %37, i8* %49, i8* %51
  %54 = select i1 %37, i64 %50, i64 %52
  %55 = call dereferenceable(24) %"class.std::__1::basic_string"* @_ZNSt3__112basic_stringIcNS_11char_traitsIcEENS_9allocatorIcEEE17__assign_no_aliasILb0EEERS5_PKcm(%"class.std::__1::basic_string"* %29, i8* %53, i64 %54) #17
  br label %56

56:                                               ; preds = %28, %39, %42, %47
  %57 = getelementptr inbounds %"struct.cricket::StreamParams", %"struct.cricket::StreamParams"* %5, i64 0, i32 6
  %58 = icmp eq %"class.std::__1::vector.6"* %57, %2
  br i1 %58, label %64, label %59

59:                                               ; preds = %56
  %60 = getelementptr inbounds %"class.std::__1::vector.6", %"class.std::__1::vector.6"* %2, i64 0, i32 0, i32 0
  %61 = load %"struct.cricket::RidDescription"*, %"struct.cricket::RidDescription"** %60, align 8
  %62 = getelementptr inbounds %"class.std::__1::vector.6", %"class.std::__1::vector.6"* %2, i64 0, i32 0, i32 1
  %63 = load %"struct.cricket::RidDescription"*, %"struct.cricket::RidDescription"** %62, align 8
  call void @_ZNSt3__16vectorIN7cricket14RidDescriptionENS_9allocatorIS2_EEE6assignIPS2_EENS_9enable_ifIXaasr27__is_cpp17_forward_iteratorIT_EE5valuesr16is_constructibleIS2_NS_15iterator_traitsIS9_E9referenceEEE5valueEvE4typeES9_S9_(%"class.std::__1::vector.6"* %57, %"struct.cricket::RidDescription"* %61, %"struct.cricket::RidDescription"* %63) #17
  br label %64

64:                                               ; preds = %56, %59
  %65 = getelementptr inbounds %"class.std::__1::vector.28", %"class.std::__1::vector.28"* %3, i64 0, i32 0, i32 1
  %66 = load %"struct.cricket::StreamParams"*, %"struct.cricket::StreamParams"** %65, align 8
  %67 = getelementptr inbounds %"class.std::__1::vector.28", %"class.std::__1::vector.28"* %3, i64 0, i32 0, i32 2, i32 0, i32 0
  %68 = load %"struct.cricket::StreamParams"*, %"struct.cricket::StreamParams"** %67, align 8
  %69 = icmp eq %"struct.cricket::StreamParams"* %66, %68
  br i1 %69, label %74, label %70

70:                                               ; preds = %64
  call void @_ZN7cricket12StreamParamsC1ERKS0_(%"struct.cricket::StreamParams"* %66, %"struct.cricket::StreamParams"* nonnull dereferenceable(168) %5) #17
  %71 = getelementptr inbounds %"struct.cricket::StreamParams", %"struct.cricket::StreamParams"* %66, i64 1
  %72 = ptrtoint %"struct.cricket::StreamParams"* %71 to i64
  %73 = bitcast %"struct.cricket::StreamParams"** %65 to i64*
  store i64 %72, i64* %73, align 8
  br label %75

74:                                               ; preds = %64
  call void @_ZNSt3__16vectorIN7cricket12StreamParamsENS_9allocatorIS2_EEE21__push_back_slow_pathIRKS2_EEvOT_(%"class.std::__1::vector.28"* %3, %"struct.cricket::StreamParams"* nonnull dereferenceable(168) %5) #17
  br label %75

75:                                               ; preds = %74, %70, %23
  call void @_ZN7cricket12StreamParamsD1Ev(%"struct.cricket::StreamParams"* nonnull %5) #17
  call void @llvm.lifetime.end.p0i8(i64 168, i8* nonnull %7) #17
  ret void
}

; Function Attrs: argmemonly nounwind
declare void @llvm.lifetime.start.p0i8(i64 immarg, i8* nocapture) #1

; Function Attrs: argmemonly nounwind
declare void @llvm.memset.p0i8.i64(i8* nocapture writeonly, i8, i64, i1 immarg) #1

declare void @_ZN7cricket12StreamParamsC1Ev(%"struct.cricket::StreamParams"*) unnamed_addr #2

declare void @_ZN3rtc20DiagnosticLogMessageC1EPKciNS_15LoggingSeverityENS_15LogErrorContextEi(%"class.rtc::DiagnosticLogMessage"*, i8*, i32, i32, i32, i32) unnamed_addr #2

; Function Attrs: nounwind
declare void @_ZN3rtc20DiagnosticLogMessageD1Ev(%"class.rtc::DiagnosticLogMessage"*) unnamed_addr #3

; Function Attrs: argmemonly nounwind
declare void @llvm.lifetime.end.p0i8(i64 immarg, i8* nocapture) #1

declare void @_ZN7cricket12StreamParams14set_stream_idsERKNSt3__16vectorINS1_12basic_stringIcNS1_11char_traitsIcEENS1_9allocatorIcEEEENS6_IS8_EEEE(%"struct.cricket::StreamParams"*, %"class.std::__1::vector"* dereferenceable(24)) local_unnamed_addr #2

; Function Attrs: nounwind
declare void @_ZN7cricket12StreamParamsD1Ev(%"struct.cricket::StreamParams"*) unnamed_addr #3

; Function Attrs: nounwind ssp uwtable
define hidden void @_ZN6webrtc25CreateTracksFromSsrcInfosERKNSt3__16vectorINS_8SsrcInfoENS0_9allocatorIS2_EEEERKNS1_INS0_12basic_stringIcNS0_11char_traitsIcEENS3_IcEEEENS3_ISC_EEEERKSC_PNS1_IN7cricket12StreamParamsENS3_ISK_EEEEi(%"class.std::__1::vector.49"* nocapture readonly dereferenceable(24), %"class.std::__1::vector"* readonly dereferenceable(24), %"class.std::__1::basic_string"* dereferenceable(24), %"class.std::__1::vector.28"*, i32) local_unnamed_addr #0 {
  %6 = alloca %class.anon, align 8
  %7 = alloca %"class.rtc::DiagnosticLogMessage", align 8
  %8 = alloca %"class.std::__1::vector", align 8
  %9 = alloca %"class.std::__1::basic_string", align 8
  %10 = alloca %"class.std::__1::basic_string", align 8
  %11 = alloca %"class.std::__1::basic_string", align 8
  %12 = alloca %class.anon, align 8
  %13 = alloca %"struct.cricket::StreamParams", align 8
  %14 = getelementptr inbounds %"class.std::__1::vector.49", %"class.std::__1::vector.49"* %0, i64 0, i32 0, i32 0
  %15 = load %"struct.webrtc::SsrcInfo"*, %"struct.webrtc::SsrcInfo"** %14, align 8
  %16 = getelementptr inbounds %"class.std::__1::vector.49", %"class.std::__1::vector.49"* %0, i64 0, i32 0, i32 1
  %17 = load %"struct.webrtc::SsrcInfo"*, %"struct.webrtc::SsrcInfo"** %16, align 8
  %18 = icmp eq %"struct.webrtc::SsrcInfo"* %15, %17
  br i1 %18, label %66, label %19

19:                                               ; preds = %5
  %20 = bitcast %"class.rtc::DiagnosticLogMessage"* %7 to i8*
  %21 = getelementptr inbounds %"class.rtc::DiagnosticLogMessage", %"class.rtc::DiagnosticLogMessage"* %7, i64 0, i32 7
  %22 = bitcast %"class.std::__1::basic_ostringstream"* %21 to %"class.std::__1::basic_ostream"*
  %23 = bitcast %"class.std::__1::vector"* %8 to i8*
  %24 = getelementptr inbounds %"class.std::__1::vector", %"class.std::__1::vector"* %8, i64 0, i32 0, i32 0
  %25 = getelementptr inbounds %"class.std::__1::vector", %"class.std::__1::vector"* %8, i64 0, i32 0, i32 1
  %26 = bitcast %"class.std::__1::basic_string"* %9 to i8*
  %27 = getelementptr inbounds %"class.std::__1::basic_string", %"class.std::__1::basic_string"* %9, i64 0, i32 0, i32 0, i32 0, i32 0, i32 0, i32 0
  %28 = getelementptr inbounds %"class.std::__1::basic_string", %"class.std::__1::basic_string"* %9, i64 0, i32 0, i32 0, i32 0, i32 0, i32 0, i32 1
  %29 = and i32 %4, 1
  %30 = icmp eq i32 %29, 0
  %31 = icmp eq %"class.std::__1::vector"* %8, %1
  %32 = getelementptr inbounds %"class.std::__1::vector", %"class.std::__1::vector"* %1, i64 0, i32 0, i32 0
  %33 = getelementptr inbounds %"class.std::__1::vector", %"class.std::__1::vector"* %1, i64 0, i32 0, i32 1
  %34 = icmp eq %"class.std::__1::basic_string"* %9, %2
  %35 = bitcast %"class.std::__1::basic_string"* %9 to %"struct.std::__1::basic_string<char, std::__1::char_traits<char>, std::__1::allocator<char> >::__short"*
  %36 = getelementptr inbounds %"struct.std::__1::basic_string<char, std::__1::char_traits<char>, std::__1::allocator<char> >::__short", %"struct.std::__1::basic_string<char, std::__1::char_traits<char>, std::__1::allocator<char> >::__short"* %35, i64 0, i32 1, i32 0
  %37 = bitcast %"class.std::__1::basic_string"* %2 to %"struct.std::__1::basic_string<char, std::__1::char_traits<char>, std::__1::allocator<char> >::__short"*
  %38 = getelementptr inbounds %"struct.std::__1::basic_string<char, std::__1::char_traits<char>, std::__1::allocator<char> >::__short", %"struct.std::__1::basic_string<char, std::__1::char_traits<char>, std::__1::allocator<char> >::__short"* %37, i64 0, i32 1, i32 0
  %39 = bitcast %"class.std::__1::basic_string"* %2 to i8*
  %40 = getelementptr inbounds %"class.std::__1::basic_string", %"class.std::__1::basic_string"* %2, i64 0, i32 0, i32 0, i32 0, i32 0, i32 0, i32 0
  %41 = getelementptr inbounds %"class.std::__1::basic_string", %"class.std::__1::basic_string"* %2, i64 0, i32 0, i32 0, i32 0, i32 0, i32 0, i32 1
  %42 = and i32 %4, 2
  %43 = icmp eq i32 %42, 0
  %44 = bitcast %"class.std::__1::basic_string"* %10 to i8*
  %45 = bitcast %"class.std::__1::basic_string"* %10 to %"struct.std::__1::basic_string<char, std::__1::char_traits<char>, std::__1::allocator<char> >::__short"*
  %46 = getelementptr inbounds %"struct.std::__1::basic_string<char, std::__1::char_traits<char>, std::__1::allocator<char> >::__short", %"struct.std::__1::basic_string<char, std::__1::char_traits<char>, std::__1::allocator<char> >::__short"* %45, i64 0, i32 1, i32 0
  %47 = getelementptr inbounds i8, i8* %44, i64 7
  %48 = getelementptr inbounds %"class.std::__1::basic_string", %"class.std::__1::basic_string"* %10, i64 0, i32 0, i32 0, i32 0, i32 0, i32 0, i32 0
  %49 = bitcast %"class.std::__1::basic_string"* %11 to i8*
  %50 = bitcast %class.anon* %12 to i8*
  %51 = getelementptr inbounds %class.anon, %class.anon* %12, i64 0, i32 0
  %52 = bitcast %class.anon* %6 to i8*
  %53 = getelementptr inbounds %"class.std::__1::vector.28", %"class.std::__1::vector.28"* %3, i64 0, i32 0, i32 0
  %54 = getelementptr inbounds %"class.std::__1::vector.28", %"class.std::__1::vector.28"* %3, i64 0, i32 0, i32 1
  %55 = bitcast %class.anon* %6 to %"struct.std::__1::basic_string<char, std::__1::char_traits<char>, std::__1::allocator<char> >::__short"*
  %56 = getelementptr inbounds %"struct.std::__1::basic_string<char, std::__1::char_traits<char>, std::__1::allocator<char> >::__short", %"struct.std::__1::basic_string<char, std::__1::char_traits<char>, std::__1::allocator<char> >::__short"* %55, i64 0, i32 1, i32 0
  %57 = getelementptr inbounds %class.anon, %class.anon* %6, i64 0, i32 0, i32 0, i32 0, i32 0, i32 0, i32 0, i32 1
  %58 = getelementptr inbounds %class.anon, %class.anon* %6, i64 0, i32 0, i32 0, i32 0, i32 0, i32 0, i32 0, i32 0
  %59 = bitcast %class.anon* %12 to %"struct.std::__1::basic_string<char, std::__1::char_traits<char>, std::__1::allocator<char> >::__short"*
  %60 = getelementptr inbounds %"struct.std::__1::basic_string<char, std::__1::char_traits<char>, std::__1::allocator<char> >::__short", %"struct.std::__1::basic_string<char, std::__1::char_traits<char>, std::__1::allocator<char> >::__short"* %59, i64 0, i32 1, i32 0
  %61 = getelementptr inbounds %class.anon, %class.anon* %12, i64 0, i32 0, i32 0, i32 0, i32 0, i32 0, i32 0, i32 0
  %62 = bitcast %"struct.cricket::StreamParams"* %13 to i8*
  %63 = getelementptr inbounds %"class.std::__1::vector.28", %"class.std::__1::vector.28"* %3, i64 0, i32 0, i32 2, i32 0, i32 0
  %64 = bitcast %"struct.cricket::StreamParams"** %54 to i64*
  %65 = bitcast %"class.std::__1::vector"* %8 to i8**
  br label %67

66:                                               ; preds = %376, %5
  ret void

67:                                               ; preds = %19, %376
  %68 = phi %"struct.webrtc::SsrcInfo"* [ %15, %19 ], [ %377, %376 ]
  %69 = getelementptr inbounds %"struct.webrtc::SsrcInfo", %"struct.webrtc::SsrcInfo"* %68, i64 0, i32 1
  %70 = bitcast %"class.std::__1::basic_string"* %69 to %"struct.std::__1::basic_string<char, std::__1::char_traits<char>, std::__1::allocator<char> >::__short"*
  %71 = getelementptr inbounds %"struct.std::__1::basic_string<char, std::__1::char_traits<char>, std::__1::allocator<char> >::__short", %"struct.std::__1::basic_string<char, std::__1::char_traits<char>, std::__1::allocator<char> >::__short"* %70, i64 0, i32 1, i32 0
  %72 = load i8, i8* %71, align 1
  %73 = icmp slt i8 %72, 0
  br i1 %73, label %74, label %77

74:                                               ; preds = %67
  %75 = getelementptr inbounds %"struct.webrtc::SsrcInfo", %"struct.webrtc::SsrcInfo"* %68, i64 0, i32 1, i32 0, i32 0, i32 0, i32 0, i32 0, i32 1
  %76 = load i64, i64* %75, align 8
  br label %79

77:                                               ; preds = %67
  %78 = zext i8 %72 to i64
  br label %79

79:                                               ; preds = %74, %77
  %80 = phi i64 [ %76, %74 ], [ %78, %77 ]
  %81 = icmp eq i64 %80, 0
  br i1 %81, label %82, label %87

82:                                               ; preds = %79
  call void @llvm.lifetime.start.p0i8(i64 304, i8* nonnull %20) #17
  call void @_ZN3rtc20DiagnosticLogMessageC1EPKciNS_15LoggingSeverityENS_15LogErrorContextEi(%"class.rtc::DiagnosticLogMessage"* nonnull %7, i8* getelementptr inbounds ([42 x i8], [42 x i8]* @.str, i64 0, i64 0), i32 706, i32 2, i32 0, i32 0) #17
  %83 = call dereferenceable(160) %"class.std::__1::basic_ostream"* @_ZNSt3__124__put_character_sequenceIcNS_11char_traitsIcEEEERNS_13basic_ostreamIT_T0_EES7_PKS4_m(%"class.std::__1::basic_ostream"* dereferenceable(160) %22, i8* getelementptr inbounds ([34 x i8], [34 x i8]* @.str.2, i64 0, i64 0), i64 33) #17
  %84 = getelementptr inbounds %"struct.webrtc::SsrcInfo", %"struct.webrtc::SsrcInfo"* %68, i64 0, i32 0
  %85 = load i32, i32* %84, align 8
  %86 = call dereferenceable(160) %"class.std::__1::basic_ostream"* @_ZNSt3__113basic_ostreamIcNS_11char_traitsIcEEElsEj(%"class.std::__1::basic_ostream"* %83, i32 %85) #17
  call void @_ZN3rtc20DiagnosticLogMessageD1Ev(%"class.rtc::DiagnosticLogMessage"* nonnull %7) #17
  call void @llvm.lifetime.end.p0i8(i64 304, i8* nonnull %20) #17
  br label %87

87:                                               ; preds = %82, %79
  call void @llvm.lifetime.start.p0i8(i64 24, i8* nonnull %23) #17
  call void @llvm.memset.p0i8.i64(i8* nonnull align 8 %23, i8 0, i64 24, i1 false) #17
  call void @llvm.lifetime.start.p0i8(i64 24, i8* nonnull %26) #17
  call void @llvm.memset.p0i8.i64(i8* nonnull align 8 %26, i8 0, i64 24, i1 false) #17
  br i1 %30, label %111, label %88

88:                                               ; preds = %87
  br i1 %31, label %92, label %89

89:                                               ; preds = %88
  %90 = load %"class.std::__1::basic_string"*, %"class.std::__1::basic_string"** %32, align 8
  %91 = load %"class.std::__1::basic_string"*, %"class.std::__1::basic_string"** %33, align 8
  call void @_ZNSt3__16vectorINS_12basic_stringIcNS_11char_traitsIcEENS_9allocatorIcEEEENS4_IS6_EEE6assignIPS6_EENS_9enable_ifIXaasr27__is_cpp17_forward_iteratorIT_EE5valuesr16is_constructibleIS6_NS_15iterator_traitsISC_E9referenceEEE5valueEvE4typeESC_SC_(%"class.std::__1::vector"* nonnull %8, %"class.std::__1::basic_string"* %90, %"class.std::__1::basic_string"* %91) #17
  br label %92

92:                                               ; preds = %88, %89
  br i1 %34, label %191, label %93

93:                                               ; preds = %92
  %94 = load i8, i8* %36, align 1
  %95 = icmp slt i8 %94, 0
  %96 = load i8, i8* %38, align 1
  %97 = icmp slt i8 %96, 0
  br i1 %95, label %104, label %98

98:                                               ; preds = %93
  br i1 %97, label %100, label %99

99:                                               ; preds = %98
  call void @llvm.memcpy.p0i8.p0i8.i64(i8* nonnull align 8 %26, i8* align 8 %39, i64 24, i1 false) #17
  br label %191

100:                                              ; preds = %98
  %101 = load i8*, i8** %40, align 8
  %102 = load i64, i64* %41, align 8
  %103 = call dereferenceable(24) %"class.std::__1::basic_string"* @_ZNSt3__112basic_stringIcNS_11char_traitsIcEENS_9allocatorIcEEE17__assign_no_aliasILb1EEERS5_PKcm(%"class.std::__1::basic_string"* nonnull %9, i8* %101, i64 %102) #17
  br label %191

104:                                              ; preds = %93
  %105 = load i8*, i8** %40, align 8
  %106 = load i64, i64* %41, align 8
  %107 = zext i8 %96 to i64
  %108 = select i1 %97, i8* %105, i8* %39
  %109 = select i1 %97, i64 %106, i64 %107
  %110 = call dereferenceable(24) %"class.std::__1::basic_string"* @_ZNSt3__112basic_stringIcNS_11char_traitsIcEENS_9allocatorIcEEE17__assign_no_aliasILb0EEERS5_PKcm(%"class.std::__1::basic_string"* nonnull %9, i8* %108, i64 %109) #17
  br label %191

111:                                              ; preds = %87
  br i1 %43, label %142, label %112

112:                                              ; preds = %111
  %113 = getelementptr inbounds %"struct.webrtc::SsrcInfo", %"struct.webrtc::SsrcInfo"* %68, i64 0, i32 2
  call void @_ZNSt3__16vectorINS_12basic_stringIcNS_11char_traitsIcEENS_9allocatorIcEEEENS4_IS6_EEE21__push_back_slow_pathIRKS6_EEvOT_(%"class.std::__1::vector"* nonnull %8, %"class.std::__1::basic_string"* dereferenceable(24) %113) #17
  %114 = getelementptr inbounds %"struct.webrtc::SsrcInfo", %"struct.webrtc::SsrcInfo"* %68, i64 0, i32 3
  %115 = icmp eq %"class.std::__1::basic_string"* %9, %114
  br i1 %115, label %191, label %116

116:                                              ; preds = %112
  %117 = load i8, i8* %36, align 1
  %118 = icmp slt i8 %117, 0
  %119 = bitcast %"class.std::__1::basic_string"* %114 to %"struct.std::__1::basic_string<char, std::__1::char_traits<char>, std::__1::allocator<char> >::__short"*
  %120 = getelementptr inbounds %"struct.std::__1::basic_string<char, std::__1::char_traits<char>, std::__1::allocator<char> >::__short", %"struct.std::__1::basic_string<char, std::__1::char_traits<char>, std::__1::allocator<char> >::__short"* %119, i64 0, i32 1, i32 0
  %121 = load i8, i8* %120, align 1
  %122 = icmp slt i8 %121, 0
  br i1 %118, label %132, label %123

123:                                              ; preds = %116
  br i1 %122, label %126, label %124

124:                                              ; preds = %123
  %125 = bitcast %"class.std::__1::basic_string"* %114 to i8*
  call void @llvm.memcpy.p0i8.p0i8.i64(i8* nonnull align 8 %26, i8* align 8 %125, i64 24, i1 false) #17
  br label %191

126:                                              ; preds = %123
  %127 = getelementptr inbounds %"class.std::__1::basic_string", %"class.std::__1::basic_string"* %114, i64 0, i32 0, i32 0, i32 0, i32 0, i32 0, i32 0
  %128 = load i8*, i8** %127, align 8
  %129 = getelementptr inbounds %"struct.webrtc::SsrcInfo", %"struct.webrtc::SsrcInfo"* %68, i64 0, i32 3, i32 0, i32 0, i32 0, i32 0, i32 0, i32 1
  %130 = load i64, i64* %129, align 8
  %131 = call dereferenceable(24) %"class.std::__1::basic_string"* @_ZNSt3__112basic_stringIcNS_11char_traitsIcEENS_9allocatorIcEEE17__assign_no_aliasILb1EEERS5_PKcm(%"class.std::__1::basic_string"* nonnull %9, i8* %128, i64 %130) #17
  br label %191

132:                                              ; preds = %116
  %133 = getelementptr inbounds %"class.std::__1::basic_string", %"class.std::__1::basic_string"* %114, i64 0, i32 0, i32 0, i32 0, i32 0, i32 0, i32 0
  %134 = load i8*, i8** %133, align 8
  %135 = getelementptr inbounds %"struct.webrtc::SsrcInfo", %"struct.webrtc::SsrcInfo"* %68, i64 0, i32 3, i32 0, i32 0, i32 0, i32 0, i32 0, i32 1
  %136 = load i64, i64* %135, align 8
  %137 = bitcast %"class.std::__1::basic_string"* %114 to i8*
  %138 = zext i8 %121 to i64
  %139 = select i1 %122, i8* %134, i8* %137
  %140 = select i1 %122, i64 %136, i64 %138
  %141 = call dereferenceable(24) %"class.std::__1::basic_string"* @_ZNSt3__112basic_stringIcNS_11char_traitsIcEENS_9allocatorIcEEE17__assign_no_aliasILb0EEERS5_PKcm(%"class.std::__1::basic_string"* nonnull %9, i8* %139, i64 %140) #17
  br label %191

142:                                              ; preds = %111
  %143 = getelementptr inbounds %"struct.webrtc::SsrcInfo", %"struct.webrtc::SsrcInfo"* %68, i64 0, i32 5
  %144 = bitcast %"class.std::__1::basic_string"* %143 to %"struct.std::__1::basic_string<char, std::__1::char_traits<char>, std::__1::allocator<char> >::__short"*
  %145 = getelementptr inbounds %"struct.std::__1::basic_string<char, std::__1::char_traits<char>, std::__1::allocator<char> >::__short", %"struct.std::__1::basic_string<char, std::__1::char_traits<char>, std::__1::allocator<char> >::__short"* %144, i64 0, i32 1, i32 0
  %146 = load i8, i8* %145, align 1
  %147 = icmp slt i8 %146, 0
  br i1 %147, label %148, label %151

148:                                              ; preds = %142
  %149 = getelementptr inbounds %"struct.webrtc::SsrcInfo", %"struct.webrtc::SsrcInfo"* %68, i64 0, i32 5, i32 0, i32 0, i32 0, i32 0, i32 0, i32 1
  %150 = load i64, i64* %149, align 8
  br label %153

151:                                              ; preds = %142
  %152 = zext i8 %146 to i64
  br label %153

153:                                              ; preds = %148, %151
  %154 = phi i64 [ %150, %148 ], [ %152, %151 ]
  %155 = icmp eq i64 %154, 0
  br i1 %155, label %185, label %156

156:                                              ; preds = %153
  call void @_ZNSt3__16vectorINS_12basic_stringIcNS_11char_traitsIcEENS_9allocatorIcEEEENS4_IS6_EEE21__push_back_slow_pathIRKS6_EEvOT_(%"class.std::__1::vector"* nonnull %8, %"class.std::__1::basic_string"* dereferenceable(24) %143) #17
  %157 = getelementptr inbounds %"struct.webrtc::SsrcInfo", %"struct.webrtc::SsrcInfo"* %68, i64 0, i32 4
  %158 = icmp eq %"class.std::__1::basic_string"* %9, %157
  br i1 %158, label %191, label %159

159:                                              ; preds = %156
  %160 = load i8, i8* %36, align 1
  %161 = icmp slt i8 %160, 0
  %162 = bitcast %"class.std::__1::basic_string"* %157 to %"struct.std::__1::basic_string<char, std::__1::char_traits<char>, std::__1::allocator<char> >::__short"*
  %163 = getelementptr inbounds %"struct.std::__1::basic_string<char, std::__1::char_traits<char>, std::__1::allocator<char> >::__short", %"struct.std::__1::basic_string<char, std::__1::char_traits<char>, std::__1::allocator<char> >::__short"* %162, i64 0, i32 1, i32 0
  %164 = load i8, i8* %163, align 1
  %165 = icmp slt i8 %164, 0
  br i1 %161, label %175, label %166

166:                                              ; preds = %159
  br i1 %165, label %169, label %167

167:                                              ; preds = %166
  %168 = bitcast %"class.std::__1::basic_string"* %157 to i8*
  call void @llvm.memcpy.p0i8.p0i8.i64(i8* nonnull align 8 %26, i8* align 8 %168, i64 24, i1 false) #17
  br label %191

169:                                              ; preds = %166
  %170 = getelementptr inbounds %"class.std::__1::basic_string", %"class.std::__1::basic_string"* %157, i64 0, i32 0, i32 0, i32 0, i32 0, i32 0, i32 0
  %171 = load i8*, i8** %170, align 8
  %172 = getelementptr inbounds %"struct.webrtc::SsrcInfo", %"struct.webrtc::SsrcInfo"* %68, i64 0, i32 4, i32 0, i32 0, i32 0, i32 0, i32 0, i32 1
  %173 = load i64, i64* %172, align 8
  %174 = call dereferenceable(24) %"class.std::__1::basic_string"* @_ZNSt3__112basic_stringIcNS_11char_traitsIcEENS_9allocatorIcEEE17__assign_no_aliasILb1EEERS5_PKcm(%"class.std::__1::basic_string"* nonnull %9, i8* %171, i64 %173) #17
  br label %191

175:                                              ; preds = %159
  %176 = getelementptr inbounds %"class.std::__1::basic_string", %"class.std::__1::basic_string"* %157, i64 0, i32 0, i32 0, i32 0, i32 0, i32 0, i32 0
  %177 = load i8*, i8** %176, align 8
  %178 = getelementptr inbounds %"struct.webrtc::SsrcInfo", %"struct.webrtc::SsrcInfo"* %68, i64 0, i32 4, i32 0, i32 0, i32 0, i32 0, i32 0, i32 1
  %179 = load i64, i64* %178, align 8
  %180 = bitcast %"class.std::__1::basic_string"* %157 to i8*
  %181 = zext i8 %164 to i64
  %182 = select i1 %165, i8* %177, i8* %180
  %183 = select i1 %165, i64 %179, i64 %181
  %184 = call dereferenceable(24) %"class.std::__1::basic_string"* @_ZNSt3__112basic_stringIcNS_11char_traitsIcEENS_9allocatorIcEEE17__assign_no_aliasILb0EEERS5_PKcm(%"class.std::__1::basic_string"* nonnull %9, i8* %182, i64 %183) #17
  br label %191

185:                                              ; preds = %153
  call void @llvm.lifetime.start.p0i8(i64 24, i8* nonnull %44) #17
  store i8 7, i8* %46, align 1
  call void @llvm.memcpy.p0i8.p0i8.i64(i8* nonnull align 8 %44, i8* align 1 getelementptr inbounds ([8 x i8], [8 x i8]* @_ZN6webrtcL12kDefaultMsidE, i64 0, i64 0), i64 7, i1 false) #17
  store i8 0, i8* %47, align 1
  call void @_ZNSt3__16vectorINS_12basic_stringIcNS_11char_traitsIcEENS_9allocatorIcEEEENS4_IS6_EEE21__push_back_slow_pathIS6_EEvOT_(%"class.std::__1::vector"* nonnull %8, %"class.std::__1::basic_string"* nonnull dereferenceable(24) %10) #17
  %186 = load i8, i8* %46, align 1
  %187 = icmp slt i8 %186, 0
  br i1 %187, label %188, label %190

188:                                              ; preds = %185
  %189 = load i8*, i8** %48, align 8
  call void @_ZdlPv(i8* %189) #18
  br label %190

190:                                              ; preds = %185, %188
  call void @llvm.lifetime.end.p0i8(i64 24, i8* nonnull %44) #17
  br label %191

191:                                              ; preds = %175, %169, %167, %156, %132, %126, %124, %112, %104, %100, %99, %92, %190
  %192 = load i8, i8* %36, align 1
  %193 = icmp slt i8 %192, 0
  %194 = load i64, i64* %28, align 8
  %195 = zext i8 %192 to i64
  %196 = select i1 %193, i64 %194, i64 %195
  %197 = icmp eq i64 %196, 0
  br i1 %197, label %198, label %205

198:                                              ; preds = %191
  call void @llvm.lifetime.start.p0i8(i64 24, i8* nonnull %49) #17
  call void @_ZN3rtc18CreateRandomStringEm(%"class.std::__1::basic_string"* nonnull sret %11, i64 8) #17
  %199 = load i8, i8* %36, align 1
  %200 = icmp slt i8 %199, 0
  br i1 %200, label %201, label %203

201:                                              ; preds = %198
  %202 = load i8*, i8** %27, align 8
  call void @_ZdlPv(i8* %202) #18
  br label %203

203:                                              ; preds = %201, %198
  call void @llvm.memcpy.p0i8.p0i8.i64(i8* nonnull align 8 %26, i8* nonnull align 8 %49, i64 24, i1 false) #17
  call void @llvm.lifetime.end.p0i8(i64 24, i8* nonnull %49) #17
  %204 = load i8, i8* %36, align 1
  br label %205

205:                                              ; preds = %203, %191
  %206 = phi i8 [ %204, %203 ], [ %192, %191 ]
  call void @llvm.lifetime.start.p0i8(i64 24, i8* nonnull %50) #17
  %207 = icmp slt i8 %206, 0
  br i1 %207, label %209, label %208

208:                                              ; preds = %205
  call void @llvm.memcpy.p0i8.p0i8.i64(i8* nonnull align 8 %50, i8* nonnull align 8 %26, i64 24, i1 false) #17
  br label %212

209:                                              ; preds = %205
  %210 = load i8*, i8** %27, align 8
  %211 = load i64, i64* %28, align 8
  call void @_ZNSt3__112basic_stringIcNS_11char_traitsIcEENS_9allocatorIcEEE25__init_copy_ctor_externalEPKcm(%"class.std::__1::basic_string"* nonnull %51, i8* %210, i64 %211) #17
  br label %212

212:                                              ; preds = %208, %209
  call void @llvm.lifetime.start.p0i8(i64 24, i8* nonnull %52)
  %213 = load %"struct.cricket::StreamParams"*, %"struct.cricket::StreamParams"** %53, align 8
  %214 = load %"struct.cricket::StreamParams"*, %"struct.cricket::StreamParams"** %54, align 8
  call void @llvm.memcpy.p0i8.p0i8.i64(i8* nonnull align 8 %52, i8* nonnull align 8 %50, i64 24, i1 false) #17
  call void @llvm.memset.p0i8.i64(i8* nonnull align 8 %50, i8 0, i64 24, i1 false) #17
  %215 = icmp eq %"struct.cricket::StreamParams"* %213, %214
  %216 = load i8, i8* %56, align 1
  br i1 %215, label %267, label %217

217:                                              ; preds = %212
  %218 = icmp slt i8 %216, 0
  %219 = load i64, i64* %57, align 8
  %220 = zext i8 %216 to i64
  %221 = select i1 %218, i64 %219, i64 %220
  %222 = icmp eq i64 %221, 0
  %223 = load i8*, i8** %58, align 8
  %224 = select i1 %218, i8* %223, i8* %52
  br label %225

225:                                              ; preds = %264, %217
  %226 = phi %"struct.cricket::StreamParams"* [ %213, %217 ], [ %265, %264 ]
  %227 = getelementptr inbounds %"struct.cricket::StreamParams", %"struct.cricket::StreamParams"* %226, i64 0, i32 1
  %228 = bitcast %"class.std::__1::basic_string"* %227 to %"struct.std::__1::basic_string<char, std::__1::char_traits<char>, std::__1::allocator<char> >::__short"*
  %229 = getelementptr inbounds %"struct.std::__1::basic_string<char, std::__1::char_traits<char>, std::__1::allocator<char> >::__short", %"struct.std::__1::basic_string<char, std::__1::char_traits<char>, std::__1::allocator<char> >::__short"* %228, i64 0, i32 1, i32 0
  %230 = load i8, i8* %229, align 1
  %231 = icmp slt i8 %230, 0
  %232 = getelementptr inbounds %"struct.cricket::StreamParams", %"struct.cricket::StreamParams"* %226, i64 0, i32 1, i32 0, i32 0, i32 0, i32 0, i32 0, i32 1
  %233 = load i64, i64* %232, align 8
  %234 = zext i8 %230 to i64
  %235 = select i1 %231, i64 %233, i64 %234
  %236 = icmp eq i64 %235, %221
  br i1 %236, label %237, label %264

237:                                              ; preds = %225
  %238 = getelementptr inbounds %"class.std::__1::basic_string", %"class.std::__1::basic_string"* %227, i64 0, i32 0, i32 0, i32 0, i32 0, i32 0, i32 0
  %239 = load i8*, i8** %238, align 8
  %240 = bitcast %"class.std::__1::basic_string"* %227 to i8*
  %241 = select i1 %231, i8* %239, i8* %240
  br i1 %231, label %248, label %242

242:                                              ; preds = %237
  br i1 %222, label %267, label %243

243:                                              ; preds = %242
  %244 = ptrtoint i8* %239 to i64
  %245 = trunc i64 %244 to i8
  %246 = load i8, i8* %224, align 1
  %247 = icmp eq i8 %246, %245
  br i1 %247, label %249, label %264

248:                                              ; preds = %237
  br i1 %222, label %267, label %261

249:                                              ; preds = %243, %256
  %250 = phi i64 [ %253, %256 ], [ %234, %243 ]
  %251 = phi i8* [ %254, %256 ], [ %240, %243 ]
  %252 = phi i8* [ %257, %256 ], [ %224, %243 ]
  %253 = add i64 %250, -1
  %254 = getelementptr inbounds i8, i8* %251, i64 1
  %255 = icmp eq i64 %253, 0
  br i1 %255, label %267, label %256

256:                                              ; preds = %249
  %257 = getelementptr inbounds i8, i8* %252, i64 1
  %258 = load i8, i8* %254, align 1
  %259 = load i8, i8* %257, align 1
  %260 = icmp eq i8 %258, %259
  br i1 %260, label %249, label %264

261:                                              ; preds = %248
  %262 = call i32 @bcmp(i8* %241, i8* %224, i64 %221) #17
  %263 = icmp eq i32 %262, 0
  br i1 %263, label %267, label %264

264:                                              ; preds = %256, %261, %243, %225
  %265 = getelementptr inbounds %"struct.cricket::StreamParams", %"struct.cricket::StreamParams"* %226, i64 1
  %266 = icmp eq %"struct.cricket::StreamParams"* %265, %214
  br i1 %266, label %267, label %225

267:                                              ; preds = %264, %261, %248, %242, %249, %212
  %268 = phi %"struct.cricket::StreamParams"* [ %213, %212 ], [ %226, %249 ], [ %226, %261 ], [ %226, %248 ], [ %226, %242 ], [ %214, %264 ]
  %269 = icmp slt i8 %216, 0
  br i1 %269, label %271, label %270

270:                                              ; preds = %267
  call void @llvm.lifetime.end.p0i8(i64 24, i8* nonnull %52)
  br label %277

271:                                              ; preds = %267
  %272 = load i8*, i8** %58, align 8
  call void @_ZdlPv(i8* %272) #18
  %273 = load i8, i8* %60, align 1
  call void @llvm.lifetime.end.p0i8(i64 24, i8* nonnull %52)
  %274 = icmp slt i8 %273, 0
  br i1 %274, label %275, label %277

275:                                              ; preds = %271
  %276 = load i8*, i8** %61, align 8
  call void @_ZdlPv(i8* %276) #18
  br label %277

277:                                              ; preds = %270, %271, %275
  call void @llvm.lifetime.end.p0i8(i64 24, i8* nonnull %50) #17
  %278 = load %"struct.cricket::StreamParams"*, %"struct.cricket::StreamParams"** %54, align 8
  %279 = icmp eq %"struct.cricket::StreamParams"* %268, %278
  br i1 %279, label %280, label %291

280:                                              ; preds = %277
  call void @llvm.lifetime.start.p0i8(i64 168, i8* nonnull %62) #17
  call void @_ZN7cricket12StreamParamsC1Ev(%"struct.cricket::StreamParams"* nonnull %13) #17
  %281 = load %"struct.cricket::StreamParams"*, %"struct.cricket::StreamParams"** %54, align 8
  %282 = load %"struct.cricket::StreamParams"*, %"struct.cricket::StreamParams"** %63, align 8
  %283 = icmp ult %"struct.cricket::StreamParams"* %281, %282
  br i1 %283, label %284, label %287

284:                                              ; preds = %280
  call void @_ZN7cricket12StreamParamsC1EOS0_(%"struct.cricket::StreamParams"* %281, %"struct.cricket::StreamParams"* nonnull dereferenceable(168) %13) #17
  %285 = getelementptr inbounds %"struct.cricket::StreamParams", %"struct.cricket::StreamParams"* %281, i64 1
  %286 = ptrtoint %"struct.cricket::StreamParams"* %285 to i64
  store i64 %286, i64* %64, align 8
  br label %288

287:                                              ; preds = %280
  call void @_ZNSt3__16vectorIN7cricket12StreamParamsENS_9allocatorIS2_EEE21__push_back_slow_pathIS2_EEvOT_(%"class.std::__1::vector.28"* %3, %"struct.cricket::StreamParams"* nonnull dereferenceable(168) %13) #17
  br label %288

288:                                              ; preds = %284, %287
  call void @_ZN7cricket12StreamParamsD1Ev(%"struct.cricket::StreamParams"* nonnull %13) #17
  call void @llvm.lifetime.end.p0i8(i64 168, i8* nonnull %62) #17
  %289 = load %"struct.cricket::StreamParams"*, %"struct.cricket::StreamParams"** %54, align 8
  %290 = getelementptr inbounds %"struct.cricket::StreamParams", %"struct.cricket::StreamParams"* %289, i64 -1
  br label %291

291:                                              ; preds = %288, %277
  %292 = phi %"struct.cricket::StreamParams"* [ %290, %288 ], [ %268, %277 ]
  %293 = getelementptr inbounds %"struct.webrtc::SsrcInfo", %"struct.webrtc::SsrcInfo"* %68, i64 0, i32 0
  %294 = load i32, i32* %293, align 8
  call void @_ZN7cricket12StreamParams8add_ssrcEj(%"struct.cricket::StreamParams"* %292, i32 %294)
  %295 = getelementptr inbounds %"struct.cricket::StreamParams", %"struct.cricket::StreamParams"* %292, i64 0, i32 4
  %296 = icmp eq %"class.std::__1::basic_string"* %295, %69
  br i1 %296, label %324, label %297

297:                                              ; preds = %291
  %298 = bitcast %"class.std::__1::basic_string"* %295 to %"struct.std::__1::basic_string<char, std::__1::char_traits<char>, std::__1::allocator<char> >::__short"*
  %299 = getelementptr inbounds %"struct.std::__1::basic_string<char, std::__1::char_traits<char>, std::__1::allocator<char> >::__short", %"struct.std::__1::basic_string<char, std::__1::char_traits<char>, std::__1::allocator<char> >::__short"* %298, i64 0, i32 1, i32 0
  %300 = load i8, i8* %299, align 1
  %301 = icmp slt i8 %300, 0
  %302 = load i8, i8* %71, align 1
  %303 = icmp slt i8 %302, 0
  br i1 %301, label %314, label %304

304:                                              ; preds = %297
  br i1 %303, label %308, label %305

305:                                              ; preds = %304
  %306 = bitcast %"class.std::__1::basic_string"* %295 to i8*
  %307 = bitcast %"class.std::__1::basic_string"* %69 to i8*
  call void @llvm.memcpy.p0i8.p0i8.i64(i8* align 8 %306, i8* align 8 %307, i64 24, i1 false) #17
  br label %324

308:                                              ; preds = %304
  %309 = getelementptr inbounds %"class.std::__1::basic_string", %"class.std::__1::basic_string"* %69, i64 0, i32 0, i32 0, i32 0, i32 0, i32 0, i32 0
  %310 = load i8*, i8** %309, align 8
  %311 = getelementptr inbounds %"struct.webrtc::SsrcInfo", %"struct.webrtc::SsrcInfo"* %68, i64 0, i32 1, i32 0, i32 0, i32 0, i32 0, i32 0, i32 1
  %312 = load i64, i64* %311, align 8
  %313 = call dereferenceable(24) %"class.std::__1::basic_string"* @_ZNSt3__112basic_stringIcNS_11char_traitsIcEENS_9allocatorIcEEE17__assign_no_aliasILb1EEERS5_PKcm(%"class.std::__1::basic_string"* %295, i8* %310, i64 %312) #17
  br label %324

314:                                              ; preds = %297
  %315 = getelementptr inbounds %"class.std::__1::basic_string", %"class.std::__1::basic_string"* %69, i64 0, i32 0, i32 0, i32 0, i32 0, i32 0, i32 0
  %316 = load i8*, i8** %315, align 8
  %317 = getelementptr inbounds %"struct.webrtc::SsrcInfo", %"struct.webrtc::SsrcInfo"* %68, i64 0, i32 1, i32 0, i32 0, i32 0, i32 0, i32 0, i32 1
  %318 = load i64, i64* %317, align 8
  %319 = bitcast %"class.std::__1::basic_string"* %69 to i8*
  %320 = zext i8 %302 to i64
  %321 = select i1 %303, i8* %316, i8* %319
  %322 = select i1 %303, i64 %318, i64 %320
  %323 = call dereferenceable(24) %"class.std::__1::basic_string"* @_ZNSt3__112basic_stringIcNS_11char_traitsIcEENS_9allocatorIcEEE17__assign_no_aliasILb0EEERS5_PKcm(%"class.std::__1::basic_string"* %295, i8* %321, i64 %322) #17
  br label %324

324:                                              ; preds = %291, %305, %308, %314
  call void @_ZN7cricket12StreamParams14set_stream_idsERKNSt3__16vectorINS1_12basic_stringIcNS1_11char_traitsIcEENS1_9allocatorIcEEEENS6_IS8_EEEE(%"struct.cricket::StreamParams"* %292, %"class.std::__1::vector"* nonnull dereferenceable(24) %8) #17
  %325 = getelementptr inbounds %"struct.cricket::StreamParams", %"struct.cricket::StreamParams"* %292, i64 0, i32 1
  %326 = icmp eq %"class.std::__1::basic_string"* %325, %9
  br i1 %326, label %348, label %327

327:                                              ; preds = %324
  %328 = bitcast %"class.std::__1::basic_string"* %325 to %"struct.std::__1::basic_string<char, std::__1::char_traits<char>, std::__1::allocator<char> >::__short"*
  %329 = getelementptr inbounds %"struct.std::__1::basic_string<char, std::__1::char_traits<char>, std::__1::allocator<char> >::__short", %"struct.std::__1::basic_string<char, std::__1::char_traits<char>, std::__1::allocator<char> >::__short"* %328, i64 0, i32 1, i32 0
  %330 = load i8, i8* %329, align 1
  %331 = icmp slt i8 %330, 0
  %332 = load i8, i8* %36, align 1
  %333 = icmp slt i8 %332, 0
  br i1 %331, label %341, label %334

334:                                              ; preds = %327
  br i1 %333, label %337, label %335

335:                                              ; preds = %334
  %336 = bitcast %"class.std::__1::basic_string"* %325 to i8*
  call void @llvm.memcpy.p0i8.p0i8.i64(i8* align 8 %336, i8* nonnull align 8 %26, i64 24, i1 false) #17
  br label %348

337:                                              ; preds = %334
  %338 = load i8*, i8** %27, align 8
  %339 = load i64, i64* %28, align 8
  %340 = call dereferenceable(24) %"class.std::__1::basic_string"* @_ZNSt3__112basic_stringIcNS_11char_traitsIcEENS_9allocatorIcEEE17__assign_no_aliasILb1EEERS5_PKcm(%"class.std::__1::basic_string"* %325, i8* %338, i64 %339) #17
  br label %348

341:                                              ; preds = %327
  %342 = load i8*, i8** %27, align 8
  %343 = load i64, i64* %28, align 8
  %344 = zext i8 %332 to i64
  %345 = select i1 %333, i8* %342, i8* %26
  %346 = select i1 %333, i64 %343, i64 %344
  %347 = call dereferenceable(24) %"class.std::__1::basic_string"* @_ZNSt3__112basic_stringIcNS_11char_traitsIcEENS_9allocatorIcEEE17__assign_no_aliasILb0EEERS5_PKcm(%"class.std::__1::basic_string"* %325, i8* %345, i64 %346) #17
  br label %348

348:                                              ; preds = %324, %335, %337, %341
  %349 = load i8, i8* %36, align 1
  %350 = icmp slt i8 %349, 0
  br i1 %350, label %351, label %353

351:                                              ; preds = %348
  %352 = load i8*, i8** %27, align 8
  call void @_ZdlPv(i8* %352) #18
  br label %353

353:                                              ; preds = %348, %351
  call void @llvm.lifetime.end.p0i8(i64 24, i8* nonnull %26) #17
  %354 = load %"class.std::__1::basic_string"*, %"class.std::__1::basic_string"** %24, align 8
  %355 = icmp eq %"class.std::__1::basic_string"* %354, null
  br i1 %355, label %376, label %356

356:                                              ; preds = %353
  %357 = bitcast %"class.std::__1::basic_string"* %354 to i8*
  %358 = load %"class.std::__1::basic_string"*, %"class.std::__1::basic_string"** %25, align 8
  %359 = icmp eq %"class.std::__1::basic_string"* %358, %354
  br i1 %359, label %374, label %360

360:                                              ; preds = %356, %370
  %361 = phi %"class.std::__1::basic_string"* [ %362, %370 ], [ %358, %356 ]
  %362 = getelementptr inbounds %"class.std::__1::basic_string", %"class.std::__1::basic_string"* %361, i64 -1
  %363 = bitcast %"class.std::__1::basic_string"* %362 to %"struct.std::__1::basic_string<char, std::__1::char_traits<char>, std::__1::allocator<char> >::__short"*
  %364 = getelementptr inbounds %"struct.std::__1::basic_string<char, std::__1::char_traits<char>, std::__1::allocator<char> >::__short", %"struct.std::__1::basic_string<char, std::__1::char_traits<char>, std::__1::allocator<char> >::__short"* %363, i64 0, i32 1, i32 0
  %365 = load i8, i8* %364, align 1
  %366 = icmp slt i8 %365, 0
  br i1 %366, label %367, label %370

367:                                              ; preds = %360
  %368 = getelementptr inbounds %"class.std::__1::basic_string", %"class.std::__1::basic_string"* %362, i64 0, i32 0, i32 0, i32 0, i32 0, i32 0, i32 0
  %369 = load i8*, i8** %368, align 8
  call void @_ZdlPv(i8* %369) #18
  br label %370

370:                                              ; preds = %367, %360
  %371 = icmp eq %"class.std::__1::basic_string"* %362, %354
  br i1 %371, label %372, label %360

372:                                              ; preds = %370
  %373 = load i8*, i8** %65, align 8
  br label %374

374:                                              ; preds = %372, %356
  %375 = phi i8* [ %373, %372 ], [ %357, %356 ]
  store %"class.std::__1::basic_string"* %354, %"class.std::__1::basic_string"** %25, align 8
  call void @_ZdlPv(i8* %375) #18
  br label %376

376:                                              ; preds = %353, %374
  call void @llvm.lifetime.end.p0i8(i64 24, i8* nonnull %23) #17
  %377 = getelementptr inbounds %"struct.webrtc::SsrcInfo", %"struct.webrtc::SsrcInfo"* %68, i64 1
  %378 = icmp eq %"struct.webrtc::SsrcInfo"* %377, %17
  br i1 %378, label %66, label %67
}

declare dereferenceable(160) %"class.std::__1::basic_ostream"* @_ZNSt3__113basic_ostreamIcNS_11char_traitsIcEEElsEj(%"class.std::__1::basic_ostream"*, i32) local_unnamed_addr #2

declare void @_ZN3rtc18CreateRandomStringEm(%"class.std::__1::basic_string"* sret, i64) local_unnamed_addr #2

; Function Attrs: argmemonly nounwind
declare void @llvm.memcpy.p0i8.p0i8.i64(i8* nocapture writeonly, i8* nocapture readonly, i64, i1 immarg) #1

; Function Attrs: nounwind ssp uwtable
define linkonce_odr hidden void @_ZN7cricket12StreamParams8add_ssrcEj(%"struct.cricket::StreamParams"*, i32) local_unnamed_addr #0 comdat align 2 {
  %3 = getelementptr inbounds %"struct.cricket::StreamParams", %"struct.cricket::StreamParams"* %0, i64 0, i32 2
  %4 = getelementptr inbounds %"struct.cricket::StreamParams", %"struct.cricket::StreamParams"* %0, i64 0, i32 2, i32 0, i32 1
  %5 = load i32*, i32** %4, align 8
  %6 = getelementptr inbounds %"struct.cricket::StreamParams", %"struct.cricket::StreamParams"* %0, i64 0, i32 2, i32 0, i32 2, i32 0, i32 0
  %7 = load i32*, i32** %6, align 8
  %8 = icmp eq i32* %5, %7
  %9 = ptrtoint i32* %7 to i64
  br i1 %8, label %14, label %10

10:                                               ; preds = %2
  store i32 %1, i32* %5, align 4
  %11 = getelementptr inbounds i32, i32* %5, i64 1
  %12 = ptrtoint i32* %11 to i64
  %13 = bitcast i32** %4 to i64*
  store i64 %12, i64* %13, align 8
  br label %70

14:                                               ; preds = %2
  %15 = ptrtoint i32* %5 to i64
  %16 = bitcast i32** %4 to i64*
  %17 = bitcast %"class.std::__1::vector.30"* %3 to i64*
  %18 = load i64, i64* %17, align 8
  %19 = sub i64 %15, %18
  %20 = ashr exact i64 %19, 2
  %21 = add nsw i64 %20, 1
  %22 = icmp ugt i64 %21, 4611686018427387903
  br i1 %22, label %23, label %25

23:                                               ; preds = %14
  %24 = bitcast %"class.std::__1::vector.30"* %3 to %"class.std::__1::__vector_base_common"*
  tail call void @_ZNKSt3__120__vector_base_commonILb1EE20__throw_length_errorEv(%"class.std::__1::__vector_base_common"* %24) #19
  unreachable

25:                                               ; preds = %14
  %26 = bitcast i32** %6 to i64*
  %27 = sub i64 %9, %18
  %28 = ashr exact i64 %27, 2
  %29 = icmp ult i64 %28, 2305843009213693951
  br i1 %29, label %30, label %38

30:                                               ; preds = %25
  %31 = ashr exact i64 %27, 1
  %32 = icmp ult i64 %31, %21
  %33 = select i1 %32, i64 %21, i64 %31
  %34 = icmp eq i64 %33, 0
  br i1 %34, label %43, label %35

35:                                               ; preds = %30
  %36 = icmp ugt i64 %33, 4611686018427387903
  br i1 %36, label %37, label %38

37:                                               ; preds = %35
  tail call void @abort() #19
  unreachable

38:                                               ; preds = %35, %25
  %39 = phi i64 [ %33, %35 ], [ 4611686018427387903, %25 ]
  %40 = shl i64 %39, 2
  %41 = tail call i8* @_Znwm(i64 %40) #18
  %42 = bitcast i8* %41 to i32*
  br label %43

43:                                               ; preds = %38, %30
  %44 = phi i64 [ %39, %38 ], [ 0, %30 ]
  %45 = phi i32* [ %42, %38 ], [ null, %30 ]
  %46 = getelementptr inbounds i32, i32* %45, i64 %20
  %47 = getelementptr inbounds i32, i32* %45, i64 %44
  %48 = ptrtoint i32* %47 to i64
  store i32 %1, i32* %46, align 4
  %49 = getelementptr inbounds i32, i32* %46, i64 1
  %50 = ptrtoint i32* %49 to i64
  %51 = getelementptr inbounds %"class.std::__1::vector.30", %"class.std::__1::vector.30"* %3, i64 0, i32 0, i32 0
  %52 = load i32*, i32** %51, align 8
  %53 = load i64, i64* %16, align 8
  %54 = ptrtoint i32* %52 to i64
  %55 = sub i64 %53, %54
  %56 = ashr exact i64 %55, 2
  %57 = sub nsw i64 0, %56
  %58 = getelementptr inbounds i32, i32* %46, i64 %57
  %59 = ptrtoint i32* %58 to i64
  %60 = icmp sgt i64 %55, 0
  br i1 %60, label %61, label %65

61:                                               ; preds = %43
  %62 = bitcast i32* %58 to i8*
  %63 = bitcast i32* %52 to i8*
  tail call void @llvm.memcpy.p0i8.p0i8.i64(i8* align 4 %62, i8* align 4 %63, i64 %55, i1 false) #17
  %64 = load i32*, i32** %51, align 8
  br label %65

65:                                               ; preds = %61, %43
  %66 = phi i32* [ %52, %43 ], [ %64, %61 ]
  store i64 %59, i64* %17, align 8
  store i64 %50, i64* %16, align 8
  store i64 %48, i64* %26, align 8
  %67 = icmp eq i32* %66, null
  br i1 %67, label %70, label %68

68:                                               ; preds = %65
  %69 = bitcast i32* %66 to i8*
  tail call void @_ZdlPv(i8* %69) #18
  br label %70

70:                                               ; preds = %10, %65, %68
  ret void
}

; Function Attrs: nounwind ssp uwtable
define hidden void @_ZN6webrtc17GetMediaStreamIdsEPKN7cricket11ContentInfoEPNSt3__13setINS4_12basic_stringIcNS4_11char_traitsIcEENS4_9allocatorIcEEEENS4_4lessISB_EENS9_ISB_EEEE(%"class.cricket::ContentInfo"*, %"class.std::__1::set"*) local_unnamed_addr #0 {
  %3 = alloca %"class.std::__1::vector", align 8
  %4 = tail call %"class.cricket::MediaContentDescription"* @_ZNK7cricket11ContentInfo17media_descriptionEv(%"class.cricket::ContentInfo"* %0) #17
  %5 = bitcast %"class.cricket::MediaContentDescription"* %4 to %"class.std::__1::vector.28"* (%"class.cricket::MediaContentDescription"*)***
  %6 = load %"class.std::__1::vector.28"* (%"class.cricket::MediaContentDescription"*)**, %"class.std::__1::vector.28"* (%"class.cricket::MediaContentDescription"*)*** %5, align 8
  %7 = getelementptr inbounds %"class.std::__1::vector.28"* (%"class.cricket::MediaContentDescription"*)*, %"class.std::__1::vector.28"* (%"class.cricket::MediaContentDescription"*)** %6, i64 34
  %8 = load %"class.std::__1::vector.28"* (%"class.cricket::MediaContentDescription"*)*, %"class.std::__1::vector.28"* (%"class.cricket::MediaContentDescription"*)** %7, align 8
  %9 = tail call dereferenceable(24) %"class.std::__1::vector.28"* %8(%"class.cricket::MediaContentDescription"* %4) #17
  %10 = getelementptr inbounds %"class.std::__1::vector.28", %"class.std::__1::vector.28"* %9, i64 0, i32 0, i32 0
  %11 = load %"struct.cricket::StreamParams"*, %"struct.cricket::StreamParams"** %10, align 8
  %12 = getelementptr inbounds %"class.std::__1::vector.28", %"class.std::__1::vector.28"* %9, i64 0, i32 0, i32 1
  %13 = load %"struct.cricket::StreamParams"*, %"struct.cricket::StreamParams"** %12, align 8
  %14 = icmp eq %"struct.cricket::StreamParams"* %11, %13
  br i1 %14, label %21, label %15

15:                                               ; preds = %2
  %16 = bitcast %"class.std::__1::vector"* %3 to i8*
  %17 = getelementptr inbounds %"class.std::__1::vector", %"class.std::__1::vector"* %3, i64 0, i32 0, i32 0
  %18 = getelementptr inbounds %"class.std::__1::vector", %"class.std::__1::vector"* %3, i64 0, i32 0, i32 1
  %19 = getelementptr inbounds %"class.std::__1::set", %"class.std::__1::set"* %1, i64 0, i32 0
  %20 = bitcast %"class.std::__1::vector"* %3 to i8**
  br label %22

21:                                               ; preds = %52, %2
  ret void

22:                                               ; preds = %15, %52
  %23 = phi %"struct.cricket::StreamParams"* [ %11, %15 ], [ %53, %52 ]
  call void @llvm.lifetime.start.p0i8(i64 24, i8* nonnull %16) #17
  call void @_ZNK7cricket12StreamParams10stream_idsEv(%"class.std::__1::vector"* nonnull sret %3, %"struct.cricket::StreamParams"* %23) #17
  %24 = load %"class.std::__1::basic_string"*, %"class.std::__1::basic_string"** %17, align 8
  %25 = load %"class.std::__1::basic_string"*, %"class.std::__1::basic_string"** %18, align 8
  %26 = icmp eq %"class.std::__1::basic_string"* %24, %25
  br i1 %26, label %29, label %55

27:                                               ; preds = %55
  %28 = load %"class.std::__1::basic_string"*, %"class.std::__1::basic_string"** %17, align 8
  br label %29

29:                                               ; preds = %27, %22
  %30 = phi %"class.std::__1::basic_string"* [ %28, %27 ], [ %24, %22 ]
  %31 = icmp eq %"class.std::__1::basic_string"* %30, null
  br i1 %31, label %52, label %32

32:                                               ; preds = %29
  %33 = bitcast %"class.std::__1::basic_string"* %30 to i8*
  %34 = load %"class.std::__1::basic_string"*, %"class.std::__1::basic_string"** %18, align 8
  %35 = icmp eq %"class.std::__1::basic_string"* %34, %30
  br i1 %35, label %50, label %36

36:                                               ; preds = %32, %46
  %37 = phi %"class.std::__1::basic_string"* [ %38, %46 ], [ %34, %32 ]
  %38 = getelementptr inbounds %"class.std::__1::basic_string", %"class.std::__1::basic_string"* %37, i64 -1
  %39 = bitcast %"class.std::__1::basic_string"* %38 to %"struct.std::__1::basic_string<char, std::__1::char_traits<char>, std::__1::allocator<char> >::__short"*
  %40 = getelementptr inbounds %"struct.std::__1::basic_string<char, std::__1::char_traits<char>, std::__1::allocator<char> >::__short", %"struct.std::__1::basic_string<char, std::__1::char_traits<char>, std::__1::allocator<char> >::__short"* %39, i64 0, i32 1, i32 0
  %41 = load i8, i8* %40, align 1
  %42 = icmp slt i8 %41, 0
  br i1 %42, label %43, label %46

43:                                               ; preds = %36
  %44 = getelementptr inbounds %"class.std::__1::basic_string", %"class.std::__1::basic_string"* %38, i64 0, i32 0, i32 0, i32 0, i32 0, i32 0, i32 0
  %45 = load i8*, i8** %44, align 8
  call void @_ZdlPv(i8* %45) #18
  br label %46

46:                                               ; preds = %43, %36
  %47 = icmp eq %"class.std::__1::basic_string"* %38, %30
  br i1 %47, label %48, label %36

48:                                               ; preds = %46
  %49 = load i8*, i8** %20, align 8
  br label %50

50:                                               ; preds = %48, %32
  %51 = phi i8* [ %49, %48 ], [ %33, %32 ]
  store %"class.std::__1::basic_string"* %30, %"class.std::__1::basic_string"** %18, align 8
  call void @_ZdlPv(i8* %51) #18
  br label %52

52:                                               ; preds = %29, %50
  call void @llvm.lifetime.end.p0i8(i64 24, i8* nonnull %16) #17
  %53 = getelementptr inbounds %"struct.cricket::StreamParams", %"struct.cricket::StreamParams"* %23, i64 1
  %54 = icmp eq %"struct.cricket::StreamParams"* %53, %13
  br i1 %54, label %21, label %22

55:                                               ; preds = %22, %55
  %56 = phi %"class.std::__1::basic_string"* [ %58, %55 ], [ %24, %22 ]
  %57 = call { %"class.std::__1::__tree_end_node"*, i8 } @_ZNSt3__16__treeINS_12basic_stringIcNS_11char_traitsIcEENS_9allocatorIcEEEENS_4lessIS6_EENS4_IS6_EEE25__emplace_unique_key_argsIS6_JRKS6_EEENS_4pairINS_15__tree_iteratorIS6_PNS_11__tree_nodeIS6_PvEElEEbEERKT_DpOT0_(%"class.std::__1::__tree.90"* %19, %"class.std::__1::basic_string"* dereferenceable(24) %56, %"class.std::__1::basic_string"* dereferenceable(24) %56) #17
  %58 = getelementptr inbounds %"class.std::__1::basic_string", %"class.std::__1::basic_string"* %56, i64 1
  %59 = icmp eq %"class.std::__1::basic_string"* %58, %25
  br i1 %59, label %27, label %55
}

declare %"class.cricket::MediaContentDescription"* @_ZNK7cricket11ContentInfo17media_descriptionEv(%"class.cricket::ContentInfo"*) local_unnamed_addr #2

declare void @_ZNK7cricket12StreamParams10stream_idsEv(%"class.std::__1::vector"* sret, %"struct.cricket::StreamParams"*) local_unnamed_addr #2

; Function Attrs: nounwind ssp uwtable
define hidden void @_ZN6webrtc12SdpSerializeERKNS_22JsepSessionDescriptionE(%"class.std::__1::basic_string"* noalias sret, %"class.webrtc::JsepSessionDescription"* dereferenceable(96)) local_unnamed_addr #0 {
  %3 = alloca %"class.std::__1::basic_string", align 8
  %4 = alloca %"class.std::__1::basic_string", align 8
  %5 = alloca %"class.rtc::StringBuilder", align 8
  %6 = alloca %"class.std::__1::basic_string", align 8
  %7 = alloca %"class.std::__1::basic_string", align 8
  %8 = alloca %"class.std::__1::basic_string", align 8
  %9 = alloca %"class.std::__1::basic_string", align 8
  %10 = alloca %"class.std::__1::basic_string", align 8
  %11 = alloca %"class.std::__1::basic_string", align 8
  %12 = alloca %"class.std::__1::basic_string", align 8
  %13 = alloca %"class.std::__1::vector.159", align 8
  %14 = alloca %"class.std::__1::basic_string", align 8
  %15 = alloca %"class.std::__1::basic_string", align 8
  %16 = alloca %"class.std::__1::basic_string", align 8
  %17 = alloca %"class.std::__1::basic_string", align 8
  %18 = alloca %"class.std::__1::set", align 8
  %19 = alloca %"class.std::__1::basic_string", align 8
  %20 = alloca %"class.std::__1::vector.170", align 8
  %21 = bitcast %"class.webrtc::JsepSessionDescription"* %1 to %"class.cricket::SessionDescription"* (%"class.webrtc::JsepSessionDescription"*)***
  %22 = load %"class.cricket::SessionDescription"* (%"class.webrtc::JsepSessionDescription"*)**, %"class.cricket::SessionDescription"* (%"class.webrtc::JsepSessionDescription"*)*** %21, align 8
  %23 = getelementptr inbounds %"class.cricket::SessionDescription"* (%"class.webrtc::JsepSessionDescription"*)*, %"class.cricket::SessionDescription"* (%"class.webrtc::JsepSessionDescription"*)** %22, i64 4
  %24 = load %"class.cricket::SessionDescription"* (%"class.webrtc::JsepSessionDescription"*)*, %"class.cricket::SessionDescription"* (%"class.webrtc::JsepSessionDescription"*)** %23, align 8
  %25 = tail call %"class.cricket::SessionDescription"* %24(%"class.webrtc::JsepSessionDescription"* %1) #17
  %26 = icmp eq %"class.cricket::SessionDescription"* %25, null
  br i1 %26, label %27, label %31

27:                                               ; preds = %2
  %28 = bitcast %"class.std::__1::basic_string"* %0 to %"struct.std::__1::basic_string<char, std::__1::char_traits<char>, std::__1::allocator<char> >::__short"*
  %29 = getelementptr inbounds %"struct.std::__1::basic_string<char, std::__1::char_traits<char>, std::__1::allocator<char> >::__short", %"struct.std::__1::basic_string<char, std::__1::char_traits<char>, std::__1::allocator<char> >::__short"* %28, i64 0, i32 1, i32 0
  store i8 0, i8* %29, align 1
  %30 = bitcast %"class.std::__1::basic_string"* %0 to i8*
  store i8 0, i8* %30, align 8
  br label %569

31:                                               ; preds = %2
  %32 = bitcast %"class.std::__1::basic_string"* %3 to i8*
  call void @llvm.lifetime.start.p0i8(i64 24, i8* nonnull %32) #17
  %33 = getelementptr inbounds %"class.std::__1::basic_string", %"class.std::__1::basic_string"* %3, i64 0, i32 0, i32 0, i32 0, i32 0, i32 0, i32 0
  call void @llvm.memset.p0i8.i64(i8* nonnull align 8 %32, i8 0, i64 24, i1 false) #17
  %34 = bitcast %"class.std::__1::basic_string"* %4 to i8*
  call void @llvm.lifetime.start.p0i8(i64 24, i8* nonnull %34) #17
  %35 = bitcast %"class.std::__1::basic_string"* %4 to %"struct.std::__1::basic_string<char, std::__1::char_traits<char>, std::__1::allocator<char> >::__short"*
  %36 = getelementptr inbounds %"struct.std::__1::basic_string<char, std::__1::char_traits<char>, std::__1::allocator<char> >::__short", %"struct.std::__1::basic_string<char, std::__1::char_traits<char>, std::__1::allocator<char> >::__short"* %35, i64 0, i32 1, i32 0
  store i8 3, i8* %36, align 1
  call void @llvm.memcpy.p0i8.p0i8.i64(i8* nonnull align 8 %34, i8* align 1 getelementptr inbounds ([4 x i8], [4 x i8]* @_ZN6webrtcL15kSessionVersionE, i64 0, i64 0), i64 3, i1 false) #17
  %37 = getelementptr inbounds i8, i8* %34, i64 3
  store i8 0, i8* %37, align 1
  %38 = call dereferenceable(24) %"class.std::__1::basic_string"* @_ZNSt3__112basic_stringIcNS_11char_traitsIcEENS_9allocatorIcEEE6appendEPKcm(%"class.std::__1::basic_string"* nonnull %3, i8* nonnull %34, i64 3) #17
  %39 = call dereferenceable(24) %"class.std::__1::basic_string"* @_ZNSt3__112basic_stringIcNS_11char_traitsIcEENS_9allocatorIcEEE6appendEPKc(%"class.std::__1::basic_string"* nonnull %3, i8* getelementptr inbounds ([3 x i8], [3 x i8]* @_ZN6webrtcL10kLineBreakE, i64 0, i64 0)) #17
  %40 = load i8, i8* %36, align 1
  %41 = icmp slt i8 %40, 0
  br i1 %41, label %42, label %45

42:                                               ; preds = %31
  %43 = getelementptr inbounds %"class.std::__1::basic_string", %"class.std::__1::basic_string"* %4, i64 0, i32 0, i32 0, i32 0, i32 0, i32 0, i32 0
  %44 = load i8*, i8** %43, align 8
  call void @_ZdlPv(i8* %44) #18
  br label %45

45:                                               ; preds = %31, %42
  call void @llvm.lifetime.end.p0i8(i64 24, i8* nonnull %34) #17
  %46 = bitcast %"class.rtc::StringBuilder"* %5 to i8*
  call void @llvm.lifetime.start.p0i8(i64 24, i8* nonnull %46) #17
  %47 = getelementptr inbounds %"class.rtc::StringBuilder", %"class.rtc::StringBuilder"* %5, i64 0, i32 0, i32 0, i32 0, i32 0, i32 0, i32 0, i32 0
  %48 = getelementptr inbounds %"class.rtc::StringBuilder", %"class.rtc::StringBuilder"* %5, i64 0, i32 0, i32 0, i32 0, i32 0, i32 0, i32 0, i32 1
  call void @llvm.memset.p0i8.i64(i8* nonnull align 8 %46, i8 0, i64 24, i1 false) #17
  %49 = bitcast %"class.std::__1::basic_string"* %6 to i8*
  call void @llvm.lifetime.start.p0i8(i64 24, i8* nonnull %49) #17
  %50 = bitcast %"class.std::__1::basic_string"* %6 to %"struct.std::__1::basic_string<char, std::__1::char_traits<char>, std::__1::allocator<char> >::__short"*
  %51 = getelementptr inbounds %"struct.std::__1::basic_string<char, std::__1::char_traits<char>, std::__1::allocator<char> >::__short", %"struct.std::__1::basic_string<char, std::__1::char_traits<char>, std::__1::allocator<char> >::__short"* %50, i64 0, i32 1, i32 0
  store i8 1, i8* %51, align 1
  store i8 45, i8* %49, align 8
  %52 = getelementptr inbounds i8, i8* %49, i64 1
  store i8 0, i8* %52, align 1
  call fastcc void @_ZN6webrtcL8InitLineEcRKNSt3__112basic_stringIcNS0_11char_traitsIcEENS0_9allocatorIcEEEEPN3rtc13StringBuilderE(i8 signext 111, %"class.std::__1::basic_string"* nonnull dereferenceable(24) %6, %"class.rtc::StringBuilder"* nonnull %5)
  %53 = load i8, i8* %51, align 1
  %54 = icmp slt i8 %53, 0
  br i1 %54, label %55, label %58

55:                                               ; preds = %45
  %56 = getelementptr inbounds %"class.std::__1::basic_string", %"class.std::__1::basic_string"* %6, i64 0, i32 0, i32 0, i32 0, i32 0, i32 0, i32 0
  %57 = load i8*, i8** %56, align 8
  call void @_ZdlPv(i8* %57) #18
  br label %58

58:                                               ; preds = %45, %55
  call void @llvm.lifetime.end.p0i8(i64 24, i8* nonnull %49) #17
  %59 = bitcast %"class.std::__1::basic_string"* %7 to i8*
  call void @llvm.lifetime.start.p0i8(i64 24, i8* nonnull %59) #17
  %60 = bitcast %"class.std::__1::basic_string"* %8 to i8*
  call void @llvm.lifetime.start.p0i8(i64 24, i8* nonnull %60) #17
  %61 = bitcast %"class.webrtc::JsepSessionDescription"* %1 to void (%"class.std::__1::basic_string"*, %"class.webrtc::JsepSessionDescription"*)***
  %62 = load void (%"class.std::__1::basic_string"*, %"class.webrtc::JsepSessionDescription"*)**, void (%"class.std::__1::basic_string"*, %"class.webrtc::JsepSessionDescription"*)*** %61, align 8
  %63 = getelementptr inbounds void (%"class.std::__1::basic_string"*, %"class.webrtc::JsepSessionDescription"*)*, void (%"class.std::__1::basic_string"*, %"class.webrtc::JsepSessionDescription"*)** %62, i64 5
  %64 = load void (%"class.std::__1::basic_string"*, %"class.webrtc::JsepSessionDescription"*)*, void (%"class.std::__1::basic_string"*, %"class.webrtc::JsepSessionDescription"*)** %63, align 8
  call void %64(%"class.std::__1::basic_string"* nonnull sret %8, %"class.webrtc::JsepSessionDescription"* %1) #17
  %65 = bitcast %"class.std::__1::basic_string"* %8 to %"struct.std::__1::basic_string<char, std::__1::char_traits<char>, std::__1::allocator<char> >::__short"*
  %66 = getelementptr inbounds %"struct.std::__1::basic_string<char, std::__1::char_traits<char>, std::__1::allocator<char> >::__short", %"struct.std::__1::basic_string<char, std::__1::char_traits<char>, std::__1::allocator<char> >::__short"* %65, i64 0, i32 1, i32 0
  %67 = load i8, i8* %66, align 1
  %68 = icmp slt i8 %67, 0
  %69 = getelementptr inbounds %"class.std::__1::basic_string", %"class.std::__1::basic_string"* %8, i64 0, i32 0, i32 0, i32 0, i32 0, i32 0, i32 1
  %70 = load i64, i64* %69, align 8
  %71 = zext i8 %67 to i64
  %72 = select i1 %68, i64 %70, i64 %71
  %73 = icmp eq i64 %72, 0
  br i1 %73, label %74, label %78

74:                                               ; preds = %58
  %75 = bitcast %"class.std::__1::basic_string"* %7 to %"struct.std::__1::basic_string<char, std::__1::char_traits<char>, std::__1::allocator<char> >::__short"*
  %76 = getelementptr inbounds %"struct.std::__1::basic_string<char, std::__1::char_traits<char>, std::__1::allocator<char> >::__short", %"struct.std::__1::basic_string<char, std::__1::char_traits<char>, std::__1::allocator<char> >::__short"* %75, i64 0, i32 1, i32 0
  store i8 1, i8* %76, align 1
  store i8 48, i8* %59, align 8
  %77 = getelementptr inbounds i8, i8* %59, i64 1
  store i8 0, i8* %77, align 1
  br label %83

78:                                               ; preds = %58
  %79 = load void (%"class.std::__1::basic_string"*, %"class.webrtc::JsepSessionDescription"*)**, void (%"class.std::__1::basic_string"*, %"class.webrtc::JsepSessionDescription"*)*** %61, align 8
  %80 = getelementptr inbounds void (%"class.std::__1::basic_string"*, %"class.webrtc::JsepSessionDescription"*)*, void (%"class.std::__1::basic_string"*, %"class.webrtc::JsepSessionDescription"*)** %79, i64 5
  %81 = load void (%"class.std::__1::basic_string"*, %"class.webrtc::JsepSessionDescription"*)*, void (%"class.std::__1::basic_string"*, %"class.webrtc::JsepSessionDescription"*)** %80, align 8
  call void %81(%"class.std::__1::basic_string"* nonnull sret %7, %"class.webrtc::JsepSessionDescription"* %1) #17
  %82 = load i8, i8* %66, align 1
  br label %83

83:                                               ; preds = %78, %74
  %84 = phi i8 [ %82, %78 ], [ %67, %74 ]
  %85 = icmp slt i8 %84, 0
  br i1 %85, label %86, label %89

86:                                               ; preds = %83
  %87 = getelementptr inbounds %"class.std::__1::basic_string", %"class.std::__1::basic_string"* %8, i64 0, i32 0, i32 0, i32 0, i32 0, i32 0, i32 0
  %88 = load i8*, i8** %87, align 8
  call void @_ZdlPv(i8* %88) #18
  br label %89

89:                                               ; preds = %83, %86
  call void @llvm.lifetime.end.p0i8(i64 24, i8* nonnull %60) #17
  %90 = bitcast %"class.std::__1::basic_string"* %9 to i8*
  call void @llvm.lifetime.start.p0i8(i64 24, i8* nonnull %90) #17
  %91 = bitcast %"class.std::__1::basic_string"* %10 to i8*
  call void @llvm.lifetime.start.p0i8(i64 24, i8* nonnull %91) #17
  %92 = load void (%"class.std::__1::basic_string"*, %"class.webrtc::JsepSessionDescription"*)**, void (%"class.std::__1::basic_string"*, %"class.webrtc::JsepSessionDescription"*)*** %61, align 8
  %93 = getelementptr inbounds void (%"class.std::__1::basic_string"*, %"class.webrtc::JsepSessionDescription"*)*, void (%"class.std::__1::basic_string"*, %"class.webrtc::JsepSessionDescription"*)** %92, i64 6
  %94 = load void (%"class.std::__1::basic_string"*, %"class.webrtc::JsepSessionDescription"*)*, void (%"class.std::__1::basic_string"*, %"class.webrtc::JsepSessionDescription"*)** %93, align 8
  call void %94(%"class.std::__1::basic_string"* nonnull sret %10, %"class.webrtc::JsepSessionDescription"* %1) #17
  %95 = bitcast %"class.std::__1::basic_string"* %10 to %"struct.std::__1::basic_string<char, std::__1::char_traits<char>, std::__1::allocator<char> >::__short"*
  %96 = getelementptr inbounds %"struct.std::__1::basic_string<char, std::__1::char_traits<char>, std::__1::allocator<char> >::__short", %"struct.std::__1::basic_string<char, std::__1::char_traits<char>, std::__1::allocator<char> >::__short"* %95, i64 0, i32 1, i32 0
  %97 = load i8, i8* %96, align 1
  %98 = icmp slt i8 %97, 0
  %99 = getelementptr inbounds %"class.std::__1::basic_string", %"class.std::__1::basic_string"* %10, i64 0, i32 0, i32 0, i32 0, i32 0, i32 0, i32 1
  %100 = load i64, i64* %99, align 8
  %101 = zext i8 %97 to i64
  %102 = select i1 %98, i64 %100, i64 %101
  %103 = icmp eq i64 %102, 0
  br i1 %103, label %104, label %108

104:                                              ; preds = %89
  %105 = bitcast %"class.std::__1::basic_string"* %9 to %"struct.std::__1::basic_string<char, std::__1::char_traits<char>, std::__1::allocator<char> >::__short"*
  %106 = getelementptr inbounds %"struct.std::__1::basic_string<char, std::__1::char_traits<char>, std::__1::allocator<char> >::__short", %"struct.std::__1::basic_string<char, std::__1::char_traits<char>, std::__1::allocator<char> >::__short"* %105, i64 0, i32 1, i32 0
  store i8 1, i8* %106, align 1
  store i8 48, i8* %90, align 8
  %107 = getelementptr inbounds i8, i8* %90, i64 1
  store i8 0, i8* %107, align 1
  br label %113

108:                                              ; preds = %89
  %109 = load void (%"class.std::__1::basic_string"*, %"class.webrtc::JsepSessionDescription"*)**, void (%"class.std::__1::basic_string"*, %"class.webrtc::JsepSessionDescription"*)*** %61, align 8
  %110 = getelementptr inbounds void (%"class.std::__1::basic_string"*, %"class.webrtc::JsepSessionDescription"*)*, void (%"class.std::__1::basic_string"*, %"class.webrtc::JsepSessionDescription"*)** %109, i64 6
  %111 = load void (%"class.std::__1::basic_string"*, %"class.webrtc::JsepSessionDescription"*)*, void (%"class.std::__1::basic_string"*, %"class.webrtc::JsepSessionDescription"*)** %110, align 8
  call void %111(%"class.std::__1::basic_string"* nonnull sret %9, %"class.webrtc::JsepSessionDescription"* %1) #17
  %112 = load i8, i8* %96, align 1
  br label %113

113:                                              ; preds = %108, %104
  %114 = phi i8 [ %112, %108 ], [ %97, %104 ]
  %115 = icmp slt i8 %114, 0
  br i1 %115, label %116, label %119

116:                                              ; preds = %113
  %117 = getelementptr inbounds %"class.std::__1::basic_string", %"class.std::__1::basic_string"* %10, i64 0, i32 0, i32 0, i32 0, i32 0, i32 0, i32 0
  %118 = load i8*, i8** %117, align 8
  call void @_ZdlPv(i8* %118) #18
  br label %119

119:                                              ; preds = %113, %116
  call void @llvm.lifetime.end.p0i8(i64 24, i8* nonnull %91) #17
  %120 = getelementptr inbounds %"class.rtc::StringBuilder", %"class.rtc::StringBuilder"* %5, i64 0, i32 0
  %121 = call dereferenceable(24) %"class.std::__1::basic_string"* @_ZNSt3__112basic_stringIcNS_11char_traitsIcEENS_9allocatorIcEEE6appendEPKcm(%"class.std::__1::basic_string"* nonnull %120, i8* getelementptr inbounds ([2 x i8], [2 x i8]* @.str.4, i64 0, i64 0), i64 1) #17
  %122 = bitcast %"class.std::__1::basic_string"* %7 to %"struct.std::__1::basic_string<char, std::__1::char_traits<char>, std::__1::allocator<char> >::__short"*
  %123 = getelementptr inbounds %"struct.std::__1::basic_string<char, std::__1::char_traits<char>, std::__1::allocator<char> >::__short", %"struct.std::__1::basic_string<char, std::__1::char_traits<char>, std::__1::allocator<char> >::__short"* %122, i64 0, i32 1, i32 0
  %124 = load i8, i8* %123, align 1
  %125 = icmp slt i8 %124, 0
  br i1 %125, label %129, label %126

126:                                              ; preds = %119
  %127 = zext i8 %124 to i64
  %128 = ptrtoint %"class.std::__1::basic_string"* %7 to i64
  br label %136

129:                                              ; preds = %119
  %130 = bitcast %"class.std::__1::basic_string"* %7 to i64*
  %131 = load i64, i64* %130, align 8
  %132 = getelementptr inbounds %"class.std::__1::basic_string", %"class.std::__1::basic_string"* %7, i64 0, i32 0, i32 0, i32 0, i32 0, i32 0, i32 1
  %133 = load i64, i64* %132, align 8
  %134 = icmp sgt i64 %133, -1
  br i1 %134, label %136, label %135, !prof !2

135:                                              ; preds = %129
  call void @llvm.trap() #17
  unreachable

136:                                              ; preds = %126, %129
  %137 = phi i64 [ %131, %129 ], [ %128, %126 ]
  %138 = phi i64 [ %133, %129 ], [ %127, %126 ]
  %139 = inttoptr i64 %137 to i8*
  %140 = call dereferenceable(24) %"class.std::__1::basic_string"* @_ZNSt3__112basic_stringIcNS_11char_traitsIcEENS_9allocatorIcEEE6appendEPKcm(%"class.std::__1::basic_string"* nonnull %120, i8* %139, i64 %138) #17
  %141 = call dereferenceable(24) %"class.std::__1::basic_string"* @_ZNSt3__112basic_stringIcNS_11char_traitsIcEENS_9allocatorIcEEE6appendEPKcm(%"class.std::__1::basic_string"* nonnull %120, i8* getelementptr inbounds ([2 x i8], [2 x i8]* @.str.4, i64 0, i64 0), i64 1) #17
  %142 = bitcast %"class.std::__1::basic_string"* %9 to %"struct.std::__1::basic_string<char, std::__1::char_traits<char>, std::__1::allocator<char> >::__short"*
  %143 = getelementptr inbounds %"struct.std::__1::basic_string<char, std::__1::char_traits<char>, std::__1::allocator<char> >::__short", %"struct.std::__1::basic_string<char, std::__1::char_traits<char>, std::__1::allocator<char> >::__short"* %142, i64 0, i32 1, i32 0
  %144 = load i8, i8* %143, align 1
  %145 = icmp slt i8 %144, 0
  br i1 %145, label %149, label %146

146:                                              ; preds = %136
  %147 = zext i8 %144 to i64
  %148 = ptrtoint %"class.std::__1::basic_string"* %9 to i64
  br label %156

149:                                              ; preds = %136
  %150 = bitcast %"class.std::__1::basic_string"* %9 to i64*
  %151 = load i64, i64* %150, align 8
  %152 = getelementptr inbounds %"class.std::__1::basic_string", %"class.std::__1::basic_string"* %9, i64 0, i32 0, i32 0, i32 0, i32 0, i32 0, i32 1
  %153 = load i64, i64* %152, align 8
  %154 = icmp sgt i64 %153, -1
  br i1 %154, label %156, label %155, !prof !2

155:                                              ; preds = %149
  call void @llvm.trap() #17
  unreachable

156:                                              ; preds = %146, %149
  %157 = phi i64 [ %151, %149 ], [ %148, %146 ]
  %158 = phi i64 [ %153, %149 ], [ %147, %146 ]
  %159 = inttoptr i64 %157 to i8*
  %160 = call dereferenceable(24) %"class.std::__1::basic_string"* @_ZNSt3__112basic_stringIcNS_11char_traitsIcEENS_9allocatorIcEEE6appendEPKcm(%"class.std::__1::basic_string"* nonnull %120, i8* %159, i64 %158) #17
  %161 = call dereferenceable(24) %"class.std::__1::basic_string"* @_ZNSt3__112basic_stringIcNS_11char_traitsIcEENS_9allocatorIcEEE6appendEPKcm(%"class.std::__1::basic_string"* nonnull %120, i8* getelementptr inbounds ([2 x i8], [2 x i8]* @.str.4, i64 0, i64 0), i64 1) #17
  %162 = call dereferenceable(24) %"class.std::__1::basic_string"* @_ZNSt3__112basic_stringIcNS_11char_traitsIcEENS_9allocatorIcEEE6appendEPKcm(%"class.std::__1::basic_string"* nonnull %120, i8* getelementptr inbounds ([3 x i8], [3 x i8]* @_ZN6webrtcL21kSessionOriginNettypeE, i64 0, i64 0), i64 2) #17
  %163 = call dereferenceable(24) %"class.std::__1::basic_string"* @_ZNSt3__112basic_stringIcNS_11char_traitsIcEENS_9allocatorIcEEE6appendEPKcm(%"class.std::__1::basic_string"* nonnull %120, i8* getelementptr inbounds ([2 x i8], [2 x i8]* @.str.4, i64 0, i64 0), i64 1) #17
  %164 = call dereferenceable(24) %"class.std::__1::basic_string"* @_ZNSt3__112basic_stringIcNS_11char_traitsIcEENS_9allocatorIcEEE6appendEPKcm(%"class.std::__1::basic_string"* nonnull %120, i8* getelementptr inbounds ([4 x i8], [4 x i8]* @.str.20, i64 0, i64 0), i64 3) #17
  %165 = call dereferenceable(24) %"class.std::__1::basic_string"* @_ZNSt3__112basic_stringIcNS_11char_traitsIcEENS_9allocatorIcEEE6appendEPKcm(%"class.std::__1::basic_string"* nonnull %120, i8* getelementptr inbounds ([2 x i8], [2 x i8]* @.str.4, i64 0, i64 0), i64 1) #17
  %166 = call dereferenceable(24) %"class.std::__1::basic_string"* @_ZNSt3__112basic_stringIcNS_11char_traitsIcEENS_9allocatorIcEEE6appendEPKcm(%"class.std::__1::basic_string"* nonnull %120, i8* getelementptr inbounds ([10 x i8], [10 x i8]* @_ZN6webrtcL21kSessionOriginAddressE, i64 0, i64 0), i64 9) #17
  %167 = bitcast %"class.rtc::StringBuilder"* %5 to %"struct.std::__1::basic_string<char, std::__1::char_traits<char>, std::__1::allocator<char> >::__short"*
  %168 = getelementptr inbounds %"struct.std::__1::basic_string<char, std::__1::char_traits<char>, std::__1::allocator<char> >::__short", %"struct.std::__1::basic_string<char, std::__1::char_traits<char>, std::__1::allocator<char> >::__short"* %167, i64 0, i32 1, i32 0
  %169 = load i8, i8* %168, align 1
  %170 = icmp slt i8 %169, 0
  %171 = load i8*, i8** %47, align 8
  %172 = load i64, i64* %48, align 8
  %173 = zext i8 %169 to i64
  %174 = select i1 %170, i8* %171, i8* %46
  %175 = select i1 %170, i64 %172, i64 %173
  %176 = call dereferenceable(24) %"class.std::__1::basic_string"* @_ZNSt3__112basic_stringIcNS_11char_traitsIcEENS_9allocatorIcEEE6appendEPKcm(%"class.std::__1::basic_string"* nonnull %3, i8* %174, i64 %175) #17
  %177 = call dereferenceable(24) %"class.std::__1::basic_string"* @_ZNSt3__112basic_stringIcNS_11char_traitsIcEENS_9allocatorIcEEE6appendEPKc(%"class.std::__1::basic_string"* nonnull %3, i8* getelementptr inbounds ([3 x i8], [3 x i8]* @_ZN6webrtcL10kLineBreakE, i64 0, i64 0)) #17
  %178 = bitcast %"class.std::__1::basic_string"* %11 to i8*
  call void @llvm.lifetime.start.p0i8(i64 24, i8* nonnull %178) #17
  %179 = bitcast %"class.std::__1::basic_string"* %11 to %"struct.std::__1::basic_string<char, std::__1::char_traits<char>, std::__1::allocator<char> >::__short"*
  %180 = getelementptr inbounds %"struct.std::__1::basic_string<char, std::__1::char_traits<char>, std::__1::allocator<char> >::__short", %"struct.std::__1::basic_string<char, std::__1::char_traits<char>, std::__1::allocator<char> >::__short"* %179, i64 0, i32 1, i32 0
  store i8 3, i8* %180, align 1
  call void @llvm.memcpy.p0i8.p0i8.i64(i8* nonnull align 8 %178, i8* align 1 getelementptr inbounds ([4 x i8], [4 x i8]* @_ZN6webrtcL12kSessionNameE, i64 0, i64 0), i64 3, i1 false) #17
  %181 = getelementptr inbounds i8, i8* %178, i64 3
  store i8 0, i8* %181, align 1
  %182 = call dereferenceable(24) %"class.std::__1::basic_string"* @_ZNSt3__112basic_stringIcNS_11char_traitsIcEENS_9allocatorIcEEE6appendEPKcm(%"class.std::__1::basic_string"* nonnull %3, i8* nonnull %178, i64 3) #17
  %183 = call dereferenceable(24) %"class.std::__1::basic_string"* @_ZNSt3__112basic_stringIcNS_11char_traitsIcEENS_9allocatorIcEEE6appendEPKc(%"class.std::__1::basic_string"* nonnull %3, i8* getelementptr inbounds ([3 x i8], [3 x i8]* @_ZN6webrtcL10kLineBreakE, i64 0, i64 0)) #17
  %184 = load i8, i8* %180, align 1
  %185 = icmp slt i8 %184, 0
  br i1 %185, label %186, label %189

186:                                              ; preds = %156
  %187 = getelementptr inbounds %"class.std::__1::basic_string", %"class.std::__1::basic_string"* %11, i64 0, i32 0, i32 0, i32 0, i32 0, i32 0, i32 0
  %188 = load i8*, i8** %187, align 8
  call void @_ZdlPv(i8* %188) #18
  br label %189

189:                                              ; preds = %156, %186
  call void @llvm.lifetime.end.p0i8(i64 24, i8* nonnull %178) #17
  %190 = bitcast %"class.std::__1::basic_string"* %12 to i8*
  call void @llvm.lifetime.start.p0i8(i64 24, i8* nonnull %190) #17
  %191 = bitcast %"class.std::__1::basic_string"* %12 to %"struct.std::__1::basic_string<char, std::__1::char_traits<char>, std::__1::allocator<char> >::__short"*
  %192 = getelementptr inbounds %"struct.std::__1::basic_string<char, std::__1::char_traits<char>, std::__1::allocator<char> >::__short", %"struct.std::__1::basic_string<char, std::__1::char_traits<char>, std::__1::allocator<char> >::__short"* %191, i64 0, i32 1, i32 0
  store i8 5, i8* %192, align 1
  call void @llvm.memcpy.p0i8.p0i8.i64(i8* nonnull align 8 %190, i8* align 1 getelementptr inbounds ([6 x i8], [6 x i8]* @_ZN6webrtcL16kTimeDescriptionE, i64 0, i64 0), i64 5, i1 false) #17
  %193 = getelementptr inbounds i8, i8* %190, i64 5
  store i8 0, i8* %193, align 1
  %194 = call dereferenceable(24) %"class.std::__1::basic_string"* @_ZNSt3__112basic_stringIcNS_11char_traitsIcEENS_9allocatorIcEEE6appendEPKcm(%"class.std::__1::basic_string"* nonnull %3, i8* nonnull %190, i64 5) #17
  %195 = call dereferenceable(24) %"class.std::__1::basic_string"* @_ZNSt3__112basic_stringIcNS_11char_traitsIcEENS_9allocatorIcEEE6appendEPKc(%"class.std::__1::basic_string"* nonnull %3, i8* getelementptr inbounds ([3 x i8], [3 x i8]* @_ZN6webrtcL10kLineBreakE, i64 0, i64 0)) #17
  %196 = load i8, i8* %192, align 1
  %197 = icmp slt i8 %196, 0
  br i1 %197, label %198, label %201

198:                                              ; preds = %189
  %199 = getelementptr inbounds %"class.std::__1::basic_string", %"class.std::__1::basic_string"* %12, i64 0, i32 0, i32 0, i32 0, i32 0, i32 0, i32 0
  %200 = load i8*, i8** %199, align 8
  call void @_ZdlPv(i8* %200) #18
  br label %201

201:                                              ; preds = %189, %198
  call void @llvm.lifetime.end.p0i8(i64 24, i8* nonnull %190) #17
  %202 = bitcast %"class.std::__1::vector.159"* %13 to i8*
  call void @llvm.lifetime.start.p0i8(i64 24, i8* nonnull %202) #17
  %203 = getelementptr inbounds %"class.std::__1::vector.159", %"class.std::__1::vector.159"* %13, i64 0, i32 0, i32 0
  %204 = getelementptr inbounds %"class.std::__1::vector.159", %"class.std::__1::vector.159"* %13, i64 0, i32 0, i32 1
  %205 = bitcast %"class.std::__1::basic_string"* %14 to i8*
  %206 = bitcast %"class.std::__1::vector.159"* %13 to i8*
  call void @llvm.memset.p0i8.i64(i8* nonnull align 8 %206, i8 -86, i64 24, i1 false)
  call void @llvm.lifetime.start.p0i8(i64 24, i8* nonnull %205) #17
  %207 = call i64 @strlen(i8* getelementptr inbounds ([0 x i8], [0 x i8]* @_ZN7cricket17GROUP_TYPE_BUNDLEE, i64 0, i64 0)) #17
  %208 = icmp ugt i64 %207, -17
  br i1 %208, label %209, label %211

209:                                              ; preds = %201
  %210 = bitcast %"class.std::__1::basic_string"* %14 to %"class.std::__1::__basic_string_common"*
  call void @_ZNKSt3__121__basic_string_commonILb1EE20__throw_length_errorEv(%"class.std::__1::__basic_string_common"* nonnull %210) #19
  unreachable

211:                                              ; preds = %201
  %212 = icmp ult i64 %207, 23
  br i1 %212, label %222, label %213

213:                                              ; preds = %211
  %214 = add nuw i64 %207, 16
  %215 = and i64 %214, -16
  %216 = call i8* @_Znwm(i64 %215) #18
  %217 = getelementptr inbounds %"class.std::__1::basic_string", %"class.std::__1::basic_string"* %14, i64 0, i32 0, i32 0, i32 0, i32 0, i32 0, i32 0
  store i8* %216, i8** %217, align 8
  %218 = or i64 %215, -9223372036854775808
  %219 = getelementptr inbounds %"class.std::__1::basic_string", %"class.std::__1::basic_string"* %14, i64 0, i32 0, i32 0, i32 0, i32 0, i32 0, i32 2
  store i64 %218, i64* %219, align 8
  %220 = getelementptr inbounds %"class.std::__1::basic_string", %"class.std::__1::basic_string"* %14, i64 0, i32 0, i32 0, i32 0, i32 0, i32 0, i32 1
  store i64 %207, i64* %220, align 8
  %221 = bitcast %"class.std::__1::basic_string"* %14 to %"struct.std::__1::basic_string<char, std::__1::char_traits<char>, std::__1::allocator<char> >::__short"*
  br label %227

222:                                              ; preds = %211
  %223 = trunc i64 %207 to i8
  %224 = bitcast %"class.std::__1::basic_string"* %14 to %"struct.std::__1::basic_string<char, std::__1::char_traits<char>, std::__1::allocator<char> >::__short"*
  %225 = getelementptr inbounds %"struct.std::__1::basic_string<char, std::__1::char_traits<char>, std::__1::allocator<char> >::__short", %"struct.std::__1::basic_string<char, std::__1::char_traits<char>, std::__1::allocator<char> >::__short"* %224, i64 0, i32 1, i32 0
  store i8 %223, i8* %225, align 1
  %226 = icmp eq i64 %207, 0
  br i1 %226, label %230, label %227

227:                                              ; preds = %222, %213
  %228 = phi %"struct.std::__1::basic_string<char, std::__1::char_traits<char>, std::__1::allocator<char> >::__short"* [ %224, %222 ], [ %221, %213 ]
  %229 = phi i8* [ %205, %222 ], [ %216, %213 ]
  call void @llvm.memcpy.p0i8.p0i8.i64(i8* nonnull align 1 %229, i8* align 1 getelementptr inbounds ([0 x i8], [0 x i8]* @_ZN7cricket17GROUP_TYPE_BUNDLEE, i64 0, i64 0), i64 %207, i1 false) #17
  br label %230

230:                                              ; preds = %222, %227
  %231 = phi %"struct.std::__1::basic_string<char, std::__1::char_traits<char>, std::__1::allocator<char> >::__short"* [ %224, %222 ], [ %228, %227 ]
  %232 = phi i8* [ %205, %222 ], [ %229, %227 ]
  %233 = getelementptr inbounds i8, i8* %232, i64 %207
  store i8 0, i8* %233, align 1
  call void @_ZNK7cricket18SessionDescription15GetGroupsByNameERKNSt3__112basic_stringIcNS1_11char_traitsIcEENS1_9allocatorIcEEEE(%"class.std::__1::vector.159"* nonnull sret %13, %"class.cricket::SessionDescription"* nonnull %25, %"class.std::__1::basic_string"* nonnull dereferenceable(24) %14) #17
  %234 = getelementptr inbounds %"struct.std::__1::basic_string<char, std::__1::char_traits<char>, std::__1::allocator<char> >::__short", %"struct.std::__1::basic_string<char, std::__1::char_traits<char>, std::__1::allocator<char> >::__short"* %231, i64 0, i32 1, i32 0
  %235 = load i8, i8* %234, align 1
  %236 = icmp slt i8 %235, 0
  br i1 %236, label %237, label %240

237:                                              ; preds = %230
  %238 = getelementptr inbounds %"class.std::__1::basic_string", %"class.std::__1::basic_string"* %14, i64 0, i32 0, i32 0, i32 0, i32 0, i32 0, i32 0
  %239 = load i8*, i8** %238, align 8
  call void @_ZdlPv(i8* %239) #18
  br label %240

240:                                              ; preds = %230, %237
  call void @llvm.lifetime.end.p0i8(i64 24, i8* nonnull %205) #17
  %241 = load %"class.cricket::ContentGroup"**, %"class.cricket::ContentGroup"*** %203, align 8
  %242 = load %"class.cricket::ContentGroup"**, %"class.cricket::ContentGroup"*** %204, align 8
  %243 = icmp eq %"class.cricket::ContentGroup"** %241, %242
  br i1 %243, label %252, label %244

244:                                              ; preds = %240
  %245 = bitcast %"class.std::__1::basic_string"* %15 to i8*
  %246 = getelementptr inbounds %"class.std::__1::basic_string", %"class.std::__1::basic_string"* %15, i64 0, i32 0, i32 0, i32 0, i32 0, i32 0, i32 0
  %247 = getelementptr inbounds %"class.std::__1::basic_string", %"class.std::__1::basic_string"* %15, i64 0, i32 0, i32 0, i32 0, i32 0, i32 0, i32 1
  %248 = bitcast %"class.std::__1::basic_string"* %15 to %"struct.std::__1::basic_string<char, std::__1::char_traits<char>, std::__1::allocator<char> >::__short"*
  %249 = getelementptr inbounds %"struct.std::__1::basic_string<char, std::__1::char_traits<char>, std::__1::allocator<char> >::__short", %"struct.std::__1::basic_string<char, std::__1::char_traits<char>, std::__1::allocator<char> >::__short"* %248, i64 0, i32 1, i32 0
  %250 = getelementptr inbounds i8, i8* %245, i64 14
  %251 = bitcast %"class.std::__1::basic_string"* %15 to i8*
  br label %256

252:                                              ; preds = %280, %240
  %253 = getelementptr inbounds %"class.cricket::SessionDescription", %"class.cricket::SessionDescription"* %25, i64 0, i32 6
  %254 = load i8, i8* %253, align 8, !range !3
  %255 = icmp eq i8 %254, 0
  br i1 %255, label %321, label %301

256:                                              ; preds = %244, %280
  %257 = phi %"class.cricket::ContentGroup"** [ %241, %244 ], [ %281, %280 ]
  %258 = load %"class.cricket::ContentGroup"*, %"class.cricket::ContentGroup"** %257, align 8
  call void @llvm.lifetime.start.p0i8(i64 24, i8* nonnull %245) #17
  call void @llvm.memset.p0i8.i64(i8* nonnull align 8 %251, i8 -86, i64 24, i1 false)
  store i8 14, i8* %249, align 1
  call void @llvm.memcpy.p0i8.p0i8.i64(i8* nonnull align 8 %245, i8* align 1 getelementptr inbounds ([15 x i8], [15 x i8]* @_ZN6webrtcL10kAttrGroupE, i64 0, i64 0), i64 14, i1 false) #17
  store i8 0, i8* %250, align 2
  %259 = getelementptr inbounds %"class.cricket::ContentGroup", %"class.cricket::ContentGroup"* %258, i64 0, i32 1, i32 0, i32 0
  %260 = load %"class.std::__1::basic_string"*, %"class.std::__1::basic_string"** %259, align 8
  %261 = getelementptr inbounds %"class.cricket::ContentGroup", %"class.cricket::ContentGroup"* %258, i64 0, i32 1, i32 0, i32 1
  %262 = load %"class.std::__1::basic_string"*, %"class.std::__1::basic_string"** %261, align 8
  %263 = icmp eq %"class.std::__1::basic_string"* %260, %262
  br i1 %263, label %266, label %283

264:                                              ; preds = %283
  %265 = load i8, i8* %249, align 1
  br label %266

266:                                              ; preds = %264, %256
  %267 = phi i8 [ %265, %264 ], [ 14, %256 ]
  %268 = icmp slt i8 %267, 0
  %269 = load i8*, i8** %246, align 8
  %270 = load i64, i64* %247, align 8
  %271 = zext i8 %267 to i64
  %272 = select i1 %268, i8* %269, i8* %245
  %273 = select i1 %268, i64 %270, i64 %271
  %274 = call dereferenceable(24) %"class.std::__1::basic_string"* @_ZNSt3__112basic_stringIcNS_11char_traitsIcEENS_9allocatorIcEEE6appendEPKcm(%"class.std::__1::basic_string"* nonnull %3, i8* %272, i64 %273) #17
  %275 = call dereferenceable(24) %"class.std::__1::basic_string"* @_ZNSt3__112basic_stringIcNS_11char_traitsIcEENS_9allocatorIcEEE6appendEPKc(%"class.std::__1::basic_string"* nonnull %3, i8* getelementptr inbounds ([3 x i8], [3 x i8]* @_ZN6webrtcL10kLineBreakE, i64 0, i64 0)) #17
  %276 = load i8, i8* %249, align 1
  %277 = icmp slt i8 %276, 0
  br i1 %277, label %278, label %280

278:                                              ; preds = %266
  %279 = load i8*, i8** %246, align 8
  call void @_ZdlPv(i8* %279) #18
  br label %280

280:                                              ; preds = %266, %278
  call void @llvm.lifetime.end.p0i8(i64 24, i8* nonnull %245) #17
  %281 = getelementptr inbounds %"class.cricket::ContentGroup"*, %"class.cricket::ContentGroup"** %257, i64 1
  %282 = icmp eq %"class.cricket::ContentGroup"** %281, %242
  br i1 %282, label %252, label %256

283:                                              ; preds = %256, %283
  %284 = phi %"class.std::__1::basic_string"* [ %299, %283 ], [ %260, %256 ]
  %285 = call dereferenceable(24) %"class.std::__1::basic_string"* @_ZNSt3__112basic_stringIcNS_11char_traitsIcEENS_9allocatorIcEEE6appendEPKc(%"class.std::__1::basic_string"* nonnull %15, i8* getelementptr inbounds ([2 x i8], [2 x i8]* @.str.4, i64 0, i64 0)) #17
  %286 = bitcast %"class.std::__1::basic_string"* %284 to %"struct.std::__1::basic_string<char, std::__1::char_traits<char>, std::__1::allocator<char> >::__short"*
  %287 = getelementptr inbounds %"struct.std::__1::basic_string<char, std::__1::char_traits<char>, std::__1::allocator<char> >::__short", %"struct.std::__1::basic_string<char, std::__1::char_traits<char>, std::__1::allocator<char> >::__short"* %286, i64 0, i32 1, i32 0
  %288 = load i8, i8* %287, align 1
  %289 = icmp slt i8 %288, 0
  %290 = getelementptr inbounds %"class.std::__1::basic_string", %"class.std::__1::basic_string"* %284, i64 0, i32 0, i32 0, i32 0, i32 0, i32 0, i32 0
  %291 = load i8*, i8** %290, align 8
  %292 = getelementptr inbounds %"class.std::__1::basic_string", %"class.std::__1::basic_string"* %284, i64 0, i32 0, i32 0, i32 0, i32 0, i32 0, i32 1
  %293 = load i64, i64* %292, align 8
  %294 = bitcast %"class.std::__1::basic_string"* %284 to i8*
  %295 = zext i8 %288 to i64
  %296 = select i1 %289, i8* %291, i8* %294
  %297 = select i1 %289, i64 %293, i64 %295
  %298 = call dereferenceable(24) %"class.std::__1::basic_string"* @_ZNSt3__112basic_stringIcNS_11char_traitsIcEENS_9allocatorIcEEE6appendEPKcm(%"class.std::__1::basic_string"* nonnull %15, i8* %296, i64 %297) #17
  %299 = getelementptr inbounds %"class.std::__1::basic_string", %"class.std::__1::basic_string"* %284, i64 1
  %300 = icmp eq %"class.std::__1::basic_string"* %299, %262
  br i1 %300, label %264, label %283

301:                                              ; preds = %252
  %302 = bitcast %"class.std::__1::basic_string"* %16 to i8*
  call void @llvm.lifetime.start.p0i8(i64 24, i8* nonnull %302) #17
  %303 = bitcast %"class.std::__1::basic_string"* %16 to %"struct.std::__1::basic_string<char, std::__1::char_traits<char>, std::__1::allocator<char> >::__short"*
  %304 = getelementptr inbounds %"struct.std::__1::basic_string<char, std::__1::char_traits<char>, std::__1::allocator<char> >::__short", %"struct.std::__1::basic_string<char, std::__1::char_traits<char>, std::__1::allocator<char> >::__short"* %303, i64 0, i32 1, i32 0
  store i8 18, i8* %304, align 1
  call void @llvm.memcpy.p0i8.p0i8.i64(i8* nonnull align 8 %302, i8* align 16 getelementptr inbounds ([19 x i8], [19 x i8]* @_ZN6webrtcL26kAttributeExtmapAllowMixedE, i64 0, i64 0), i64 18, i1 false) #17
  %305 = getelementptr inbounds i8, i8* %302, i64 18
  store i8 0, i8* %305, align 2
  call fastcc void @_ZN6webrtcL8InitLineEcRKNSt3__112basic_stringIcNS0_11char_traitsIcEENS0_9allocatorIcEEEEPN3rtc13StringBuilderE(i8 signext 97, %"class.std::__1::basic_string"* nonnull dereferenceable(24) %16, %"class.rtc::StringBuilder"* nonnull %5) #17
  %306 = load i8, i8* %304, align 1
  %307 = icmp slt i8 %306, 0
  br i1 %307, label %308, label %311

308:                                              ; preds = %301
  %309 = getelementptr inbounds %"class.std::__1::basic_string", %"class.std::__1::basic_string"* %16, i64 0, i32 0, i32 0, i32 0, i32 0, i32 0, i32 0
  %310 = load i8*, i8** %309, align 8
  call void @_ZdlPv(i8* %310) #18
  br label %311

311:                                              ; preds = %301, %308
  call void @llvm.lifetime.end.p0i8(i64 24, i8* nonnull %302) #17
  %312 = load i8, i8* %168, align 1
  %313 = icmp slt i8 %312, 0
  %314 = load i8*, i8** %47, align 8
  %315 = load i64, i64* %48, align 8
  %316 = zext i8 %312 to i64
  %317 = select i1 %313, i8* %314, i8* %46
  %318 = select i1 %313, i64 %315, i64 %316
  %319 = call dereferenceable(24) %"class.std::__1::basic_string"* @_ZNSt3__112basic_stringIcNS_11char_traitsIcEENS_9allocatorIcEEE6appendEPKcm(%"class.std::__1::basic_string"* nonnull %3, i8* %317, i64 %318) #17
  %320 = call dereferenceable(24) %"class.std::__1::basic_string"* @_ZNSt3__112basic_stringIcNS_11char_traitsIcEENS_9allocatorIcEEE6appendEPKc(%"class.std::__1::basic_string"* nonnull %3, i8* getelementptr inbounds ([3 x i8], [3 x i8]* @_ZN6webrtcL10kLineBreakE, i64 0, i64 0)) #17
  br label %321

321:                                              ; preds = %252, %311
  %322 = bitcast %"class.std::__1::basic_string"* %17 to i8*
  call void @llvm.lifetime.start.p0i8(i64 24, i8* nonnull %322) #17
  %323 = bitcast %"class.std::__1::basic_string"* %17 to %"struct.std::__1::basic_string<char, std::__1::char_traits<char>, std::__1::allocator<char> >::__short"*
  %324 = getelementptr inbounds %"struct.std::__1::basic_string<char, std::__1::char_traits<char>, std::__1::allocator<char> >::__short", %"struct.std::__1::basic_string<char, std::__1::char_traits<char>, std::__1::allocator<char> >::__short"* %323, i64 0, i32 1, i32 0
  store i8 13, i8* %324, align 1
  call void @llvm.memcpy.p0i8.p0i8.i64(i8* nonnull align 8 %322, i8* align 1 getelementptr inbounds ([14 x i8], [14 x i8]* @_ZN6webrtcL23kAttributeMsidSemanticsE, i64 0, i64 0), i64 13, i1 false) #17
  %325 = getelementptr inbounds i8, i8* %322, i64 13
  store i8 0, i8* %325, align 1
  call fastcc void @_ZN6webrtcL8InitLineEcRKNSt3__112basic_stringIcNS0_11char_traitsIcEENS0_9allocatorIcEEEEPN3rtc13StringBuilderE(i8 signext 97, %"class.std::__1::basic_string"* nonnull dereferenceable(24) %17, %"class.rtc::StringBuilder"* nonnull %5) #17
  %326 = load i8, i8* %324, align 1
  %327 = icmp slt i8 %326, 0
  br i1 %327, label %328, label %331

328:                                              ; preds = %321
  %329 = getelementptr inbounds %"class.std::__1::basic_string", %"class.std::__1::basic_string"* %17, i64 0, i32 0, i32 0, i32 0, i32 0, i32 0, i32 0
  %330 = load i8*, i8** %329, align 8
  call void @_ZdlPv(i8* %330) #18
  br label %331

331:                                              ; preds = %321, %328
  call void @llvm.lifetime.end.p0i8(i64 24, i8* nonnull %322) #17
  %332 = call dereferenceable(24) %"class.std::__1::basic_string"* @_ZNSt3__112basic_stringIcNS_11char_traitsIcEENS_9allocatorIcEEE6appendEPKcm(%"class.std::__1::basic_string"* nonnull %120, i8* getelementptr inbounds ([2 x i8], [2 x i8]* @_ZN6webrtcL18kSdpDelimiterColonE, i64 0, i64 0), i64 1) #17
  %333 = call dereferenceable(24) %"class.std::__1::basic_string"* @_ZNSt3__112basic_stringIcNS_11char_traitsIcEENS_9allocatorIcEEE6appendEPKcm(%"class.std::__1::basic_string"* nonnull %120, i8* getelementptr inbounds ([2 x i8], [2 x i8]* @.str.4, i64 0, i64 0), i64 1) #17
  %334 = call dereferenceable(24) %"class.std::__1::basic_string"* @_ZNSt3__112basic_stringIcNS_11char_traitsIcEENS_9allocatorIcEEE6appendEPKcm(%"class.std::__1::basic_string"* nonnull %120, i8* getelementptr inbounds ([4 x i8], [4 x i8]* @_ZN6webrtcL20kMediaStreamSemanticE, i64 0, i64 0), i64 3) #17
  %335 = bitcast %"class.std::__1::set"* %18 to i8*
  call void @llvm.lifetime.start.p0i8(i64 24, i8* nonnull %335) #17
  %336 = getelementptr inbounds %"class.std::__1::set", %"class.std::__1::set"* %18, i64 0, i32 0, i32 0
  %337 = getelementptr inbounds %"class.std::__1::set", %"class.std::__1::set"* %18, i64 0, i32 0, i32 1, i32 0, i32 0, i32 0
  %338 = getelementptr inbounds %"class.std::__1::set", %"class.std::__1::set"* %18, i64 0, i32 0, i32 1, i32 0, i32 0
  %339 = bitcast %"class.std::__1::__tree_node_base"** %337 to i8*
  call void @llvm.memset.p0i8.i64(i8* align 8 %339, i8 0, i64 16, i1 false) #17
  store %"class.std::__1::__tree_end_node"* %338, %"class.std::__1::__tree_end_node"** %336, align 8
  %340 = call %"class.cricket::ContentInfo"* @_ZN7cricket20GetFirstAudioContentEPKNS_18SessionDescriptionE(%"class.cricket::SessionDescription"* nonnull %25) #17
  %341 = icmp eq %"class.cricket::ContentInfo"* %340, null
  br i1 %341, label %343, label %342

342:                                              ; preds = %331
  call void @_ZN6webrtc17GetMediaStreamIdsEPKN7cricket11ContentInfoEPNSt3__13setINS4_12basic_stringIcNS4_11char_traitsIcEENS4_9allocatorIcEEEENS4_4lessISB_EENS9_ISB_EEEE(%"class.cricket::ContentInfo"* nonnull %340, %"class.std::__1::set"* nonnull %18)
  br label %343

343:                                              ; preds = %331, %342
  %344 = call %"class.cricket::ContentInfo"* @_ZN7cricket20GetFirstVideoContentEPKNS_18SessionDescriptionE(%"class.cricket::SessionDescription"* nonnull %25) #17
  %345 = icmp eq %"class.cricket::ContentInfo"* %344, null
  br i1 %345, label %347, label %346

346:                                              ; preds = %343
  call void @_ZN6webrtc17GetMediaStreamIdsEPKN7cricket11ContentInfoEPNSt3__13setINS4_12basic_stringIcNS4_11char_traitsIcEENS4_9allocatorIcEEEENS4_4lessISB_EENS9_ISB_EEEE(%"class.cricket::ContentInfo"* nonnull %344, %"class.std::__1::set"* nonnull %18)
  br label %347

347:                                              ; preds = %343, %346
  %348 = load %"class.std::__1::__tree_end_node"*, %"class.std::__1::__tree_end_node"** %336, align 8
  %349 = icmp eq %"class.std::__1::__tree_end_node"* %348, %338
  br i1 %349, label %350, label %365

350:                                              ; preds = %416, %347
  %351 = load i8, i8* %168, align 1
  %352 = icmp slt i8 %351, 0
  %353 = load i8*, i8** %47, align 8
  %354 = load i64, i64* %48, align 8
  %355 = zext i8 %351 to i64
  %356 = select i1 %352, i8* %353, i8* %46
  %357 = select i1 %352, i64 %354, i64 %355
  %358 = call dereferenceable(24) %"class.std::__1::basic_string"* @_ZNSt3__112basic_stringIcNS_11char_traitsIcEENS_9allocatorIcEEE6appendEPKcm(%"class.std::__1::basic_string"* nonnull %3, i8* %356, i64 %357) #17
  %359 = call dereferenceable(24) %"class.std::__1::basic_string"* @_ZNSt3__112basic_stringIcNS_11char_traitsIcEENS_9allocatorIcEEE6appendEPKc(%"class.std::__1::basic_string"* nonnull %3, i8* getelementptr inbounds ([3 x i8], [3 x i8]* @_ZN6webrtcL10kLineBreakE, i64 0, i64 0)) #17
  %360 = getelementptr inbounds %"class.cricket::SessionDescription", %"class.cricket::SessionDescription"* %25, i64 0, i32 1, i32 0, i32 0
  %361 = load %"struct.cricket::TransportInfo"*, %"struct.cricket::TransportInfo"** %360, align 8
  %362 = getelementptr inbounds %"class.cricket::SessionDescription", %"class.cricket::SessionDescription"* %25, i64 0, i32 1, i32 0, i32 1
  %363 = load %"struct.cricket::TransportInfo"*, %"struct.cricket::TransportInfo"** %362, align 8
  %364 = icmp eq %"struct.cricket::TransportInfo"* %361, %363
  br i1 %364, label %449, label %421

365:                                              ; preds = %347, %416
  %366 = phi %"class.std::__1::__tree_end_node"* [ %417, %416 ], [ %348, %347 ]
  %367 = getelementptr inbounds %"class.std::__1::__tree_end_node", %"class.std::__1::__tree_end_node"* %366, i64 4
  %368 = call dereferenceable(24) %"class.std::__1::basic_string"* @_ZNSt3__112basic_stringIcNS_11char_traitsIcEENS_9allocatorIcEEE6appendEPKcm(%"class.std::__1::basic_string"* nonnull %120, i8* getelementptr inbounds ([2 x i8], [2 x i8]* @.str.4, i64 0, i64 0), i64 1) #17
  %369 = bitcast %"class.std::__1::__tree_end_node"* %367 to %"struct.std::__1::basic_string<char, std::__1::char_traits<char>, std::__1::allocator<char> >::__short"*
  %370 = getelementptr inbounds %"struct.std::__1::basic_string<char, std::__1::char_traits<char>, std::__1::allocator<char> >::__short", %"struct.std::__1::basic_string<char, std::__1::char_traits<char>, std::__1::allocator<char> >::__short"* %369, i64 0, i32 1, i32 0
  %371 = load i8, i8* %370, align 1
  %372 = icmp slt i8 %371, 0
  br i1 %372, label %376, label %373

373:                                              ; preds = %365
  %374 = zext i8 %371 to i64
  %375 = ptrtoint %"class.std::__1::__tree_end_node"* %367 to i64
  br label %384

376:                                              ; preds = %365
  %377 = bitcast %"class.std::__1::__tree_end_node"* %367 to i64*
  %378 = load i64, i64* %377, align 8
  %379 = getelementptr inbounds %"class.std::__1::__tree_end_node", %"class.std::__1::__tree_end_node"* %366, i64 5
  %380 = bitcast %"class.std::__1::__tree_end_node"* %379 to i64*
  %381 = load i64, i64* %380, align 8
  %382 = icmp sgt i64 %381, -1
  br i1 %382, label %384, label %383, !prof !2

383:                                              ; preds = %376
  call void @llvm.trap() #17
  unreachable

384:                                              ; preds = %373, %376
  %385 = phi i64 [ %378, %376 ], [ %375, %373 ]
  %386 = phi i64 [ %381, %376 ], [ %374, %373 ]
  %387 = inttoptr i64 %385 to i8*
  %388 = call dereferenceable(24) %"class.std::__1::basic_string"* @_ZNSt3__112basic_stringIcNS_11char_traitsIcEENS_9allocatorIcEEE6appendEPKcm(%"class.std::__1::basic_string"* nonnull %120, i8* %387, i64 %386) #17
  %389 = getelementptr inbounds %"class.std::__1::__tree_end_node", %"class.std::__1::__tree_end_node"* %366, i64 1, i32 0
  %390 = load %"class.std::__1::__tree_node_base"*, %"class.std::__1::__tree_node_base"** %389, align 8
  %391 = icmp eq %"class.std::__1::__tree_node_base"* %390, null
  br i1 %391, label %392, label %400

392:                                              ; preds = %384
  %393 = bitcast %"class.std::__1::__tree_end_node"* %366 to %"class.std::__1::__tree_node_base"*
  %394 = getelementptr inbounds %"class.std::__1::__tree_end_node", %"class.std::__1::__tree_end_node"* %366, i64 2
  %395 = bitcast %"class.std::__1::__tree_end_node"* %394 to %"class.std::__1::__tree_end_node"**
  %396 = load %"class.std::__1::__tree_end_node"*, %"class.std::__1::__tree_end_node"** %395, align 8
  %397 = getelementptr inbounds %"class.std::__1::__tree_end_node", %"class.std::__1::__tree_end_node"* %396, i64 0, i32 0
  %398 = load %"class.std::__1::__tree_node_base"*, %"class.std::__1::__tree_node_base"** %397, align 8
  %399 = icmp eq %"class.std::__1::__tree_node_base"* %398, %393
  br i1 %399, label %416, label %407

400:                                              ; preds = %384, %400
  %401 = phi %"class.std::__1::__tree_node_base"* [ %403, %400 ], [ %390, %384 ]
  %402 = getelementptr inbounds %"class.std::__1::__tree_node_base", %"class.std::__1::__tree_node_base"* %401, i64 0, i32 0, i32 0
  %403 = load %"class.std::__1::__tree_node_base"*, %"class.std::__1::__tree_node_base"** %402, align 8
  %404 = icmp eq %"class.std::__1::__tree_node_base"* %403, null
  br i1 %404, label %405, label %400

405:                                              ; preds = %400
  %406 = getelementptr inbounds %"class.std::__1::__tree_node_base", %"class.std::__1::__tree_node_base"* %401, i64 0, i32 0
  br label %416

407:                                              ; preds = %392, %407
  %408 = phi %"class.std::__1::__tree_end_node"** [ %411, %407 ], [ %395, %392 ]
  %409 = bitcast %"class.std::__1::__tree_end_node"** %408 to %"class.std::__1::__tree_node_base"**
  %410 = load %"class.std::__1::__tree_node_base"*, %"class.std::__1::__tree_node_base"** %409, align 8
  %411 = getelementptr inbounds %"class.std::__1::__tree_node_base", %"class.std::__1::__tree_node_base"* %410, i64 0, i32 2
  %412 = load %"class.std::__1::__tree_end_node"*, %"class.std::__1::__tree_end_node"** %411, align 8
  %413 = getelementptr inbounds %"class.std::__1::__tree_end_node", %"class.std::__1::__tree_end_node"* %412, i64 0, i32 0
  %414 = load %"class.std::__1::__tree_node_base"*, %"class.std::__1::__tree_node_base"** %413, align 8
  %415 = icmp eq %"class.std::__1::__tree_node_base"* %414, %410
  br i1 %415, label %416, label %407

416:                                              ; preds = %407, %392, %405
  %417 = phi %"class.std::__1::__tree_end_node"* [ %406, %405 ], [ %396, %392 ], [ %412, %407 ]
  %418 = icmp eq %"class.std::__1::__tree_end_node"* %417, %338
  br i1 %418, label %350, label %365

419:                                              ; preds = %421
  %420 = icmp eq %"struct.cricket::TransportInfo"* %426, %363
  br i1 %420, label %449, label %421

421:                                              ; preds = %350, %419
  %422 = phi %"struct.cricket::TransportInfo"* [ %426, %419 ], [ %361, %350 ]
  %423 = getelementptr inbounds %"struct.cricket::TransportInfo", %"struct.cricket::TransportInfo"* %422, i64 0, i32 1, i32 3
  %424 = load i32, i32* %423, align 8
  %425 = icmp eq i32 %424, 1
  %426 = getelementptr inbounds %"struct.cricket::TransportInfo", %"struct.cricket::TransportInfo"* %422, i64 1
  br i1 %425, label %427, label %419

427:                                              ; preds = %421
  %428 = bitcast %"class.std::__1::basic_string"* %19 to i8*
  call void @llvm.lifetime.start.p0i8(i64 24, i8* nonnull %428) #17
  %429 = bitcast %"class.std::__1::basic_string"* %19 to %"struct.std::__1::basic_string<char, std::__1::char_traits<char>, std::__1::allocator<char> >::__short"*
  %430 = getelementptr inbounds %"struct.std::__1::basic_string<char, std::__1::char_traits<char>, std::__1::allocator<char> >::__short", %"struct.std::__1::basic_string<char, std::__1::char_traits<char>, std::__1::allocator<char> >::__short"* %429, i64 0, i32 1, i32 0
  store i8 8, i8* %430, align 1
  %431 = bitcast %"class.std::__1::basic_string"* %19 to i64*
  store i64 7310584008468161385, i64* %431, align 8
  %432 = getelementptr inbounds %"class.std::__1::basic_string", %"class.std::__1::basic_string"* %19, i64 0, i32 0, i32 0, i32 0, i32 0, i32 0, i32 1
  %433 = bitcast i64* %432 to i8*
  store i8 0, i8* %433, align 8
  call fastcc void @_ZN6webrtcL8InitLineEcRKNSt3__112basic_stringIcNS0_11char_traitsIcEENS0_9allocatorIcEEEEPN3rtc13StringBuilderE(i8 signext 97, %"class.std::__1::basic_string"* nonnull dereferenceable(24) %19, %"class.rtc::StringBuilder"* nonnull %5) #17
  %434 = load i8, i8* %430, align 1
  %435 = icmp slt i8 %434, 0
  br i1 %435, label %436, label %439

436:                                              ; preds = %427
  %437 = getelementptr inbounds %"class.std::__1::basic_string", %"class.std::__1::basic_string"* %19, i64 0, i32 0, i32 0, i32 0, i32 0, i32 0, i32 0
  %438 = load i8*, i8** %437, align 8
  call void @_ZdlPv(i8* %438) #18
  br label %439

439:                                              ; preds = %427, %436
  call void @llvm.lifetime.end.p0i8(i64 24, i8* nonnull %428) #17
  %440 = load i8, i8* %168, align 1
  %441 = icmp slt i8 %440, 0
  %442 = load i8*, i8** %47, align 8
  %443 = load i64, i64* %48, align 8
  %444 = zext i8 %440 to i64
  %445 = select i1 %441, i8* %442, i8* %46
  %446 = select i1 %441, i64 %443, i64 %444
  %447 = call dereferenceable(24) %"class.std::__1::basic_string"* @_ZNSt3__112basic_stringIcNS_11char_traitsIcEENS_9allocatorIcEEE6appendEPKcm(%"class.std::__1::basic_string"* nonnull %3, i8* %445, i64 %446) #17
  %448 = call dereferenceable(24) %"class.std::__1::basic_string"* @_ZNSt3__112basic_stringIcNS_11char_traitsIcEENS_9allocatorIcEEE6appendEPKc(%"class.std::__1::basic_string"* nonnull %3, i8* getelementptr inbounds ([3 x i8], [3 x i8]* @_ZN6webrtcL10kLineBreakE, i64 0, i64 0)) #17
  br label %449

449:                                              ; preds = %419, %350, %439
  %450 = getelementptr inbounds %"class.cricket::SessionDescription", %"class.cricket::SessionDescription"* %25, i64 0, i32 0, i32 0, i32 0
  %451 = load %"class.cricket::ContentInfo"*, %"class.cricket::ContentInfo"** %450, align 8
  %452 = getelementptr inbounds %"class.cricket::SessionDescription", %"class.cricket::SessionDescription"* %25, i64 0, i32 0, i32 0, i32 1
  %453 = load %"class.cricket::ContentInfo"*, %"class.cricket::ContentInfo"** %452, align 8
  %454 = icmp eq %"class.cricket::ContentInfo"* %451, %453
  br i1 %454, label %465, label %455

455:                                              ; preds = %449
  %456 = bitcast %"class.std::__1::vector.170"* %20 to i8*
  %457 = getelementptr inbounds %"class.std::__1::vector.170", %"class.std::__1::vector.170"* %20, i64 0, i32 0, i32 0
  %458 = getelementptr inbounds %"class.std::__1::vector.170", %"class.std::__1::vector.170"* %20, i64 0, i32 0, i32 1
  %459 = getelementptr inbounds %"class.std::__1::vector.170", %"class.std::__1::vector.170"* %20, i64 0, i32 0, i32 2, i32 0, i32 0
  %460 = getelementptr inbounds %"class.webrtc::JsepSessionDescription", %"class.webrtc::JsepSessionDescription"* %1, i64 0, i32 0
  %461 = bitcast %"class.webrtc::JsepSessionDescription"* %1 to %"class.webrtc::IceCandidateCollection"* (%"class.webrtc::SessionDescriptionInterface"*, i64)***
  %462 = bitcast %"class.cricket::Candidate"** %458 to i64*
  %463 = getelementptr inbounds %"class.cricket::SessionDescription", %"class.cricket::SessionDescription"* %25, i64 0, i32 5
  %464 = bitcast %"class.std::__1::vector.170"* %20 to i8**
  br label %501

465:                                              ; preds = %566, %449
  %466 = bitcast %"class.std::__1::basic_string"* %0 to i8*
  call void @llvm.memcpy.p0i8.p0i8.i64(i8* align 8 %466, i8* nonnull align 8 %32, i64 24, i1 false) #17
  call void @llvm.memset.p0i8.i64(i8* nonnull align 8 %32, i8 0, i64 24, i1 false) #17
  %467 = getelementptr inbounds %"class.std::__1::set", %"class.std::__1::set"* %18, i64 0, i32 0
  %468 = bitcast %"class.std::__1::__tree_end_node"* %338 to %"class.std::__1::__tree_node.372"**
  %469 = load %"class.std::__1::__tree_node.372"*, %"class.std::__1::__tree_node.372"** %468, align 8
  call void @_ZNSt3__16__treeINS_12basic_stringIcNS_11char_traitsIcEENS_9allocatorIcEEEENS_4lessIS6_EENS4_IS6_EEE7destroyEPNS_11__tree_nodeIS6_PvEE(%"class.std::__1::__tree.90"* nonnull %467, %"class.std::__1::__tree_node.372"* %469) #17
  call void @llvm.lifetime.end.p0i8(i64 24, i8* nonnull %335) #17
  %470 = load %"class.cricket::ContentGroup"**, %"class.cricket::ContentGroup"*** %203, align 8
  %471 = icmp eq %"class.cricket::ContentGroup"** %470, null
  br i1 %471, label %476, label %472

472:                                              ; preds = %465
  %473 = ptrtoint %"class.cricket::ContentGroup"** %470 to i64
  %474 = bitcast %"class.cricket::ContentGroup"*** %204 to i64*
  store i64 %473, i64* %474, align 8
  %475 = bitcast %"class.cricket::ContentGroup"** %470 to i8*
  call void @_ZdlPv(i8* %475) #18
  br label %476

476:                                              ; preds = %465, %472
  call void @llvm.lifetime.end.p0i8(i64 24, i8* nonnull %202) #17
  %477 = load i8, i8* %143, align 1
  %478 = icmp slt i8 %477, 0
  br i1 %478, label %479, label %482

479:                                              ; preds = %476
  %480 = getelementptr inbounds %"class.std::__1::basic_string", %"class.std::__1::basic_string"* %9, i64 0, i32 0, i32 0, i32 0, i32 0, i32 0, i32 0
  %481 = load i8*, i8** %480, align 8
  call void @_ZdlPv(i8* %481) #18
  br label %482

482:                                              ; preds = %476, %479
  call void @llvm.lifetime.end.p0i8(i64 24, i8* nonnull %90) #17
  %483 = load i8, i8* %123, align 1
  %484 = icmp slt i8 %483, 0
  br i1 %484, label %485, label %488

485:                                              ; preds = %482
  %486 = getelementptr inbounds %"class.std::__1::basic_string", %"class.std::__1::basic_string"* %7, i64 0, i32 0, i32 0, i32 0, i32 0, i32 0, i32 0
  %487 = load i8*, i8** %486, align 8
  call void @_ZdlPv(i8* %487) #18
  br label %488

488:                                              ; preds = %482, %485
  call void @llvm.lifetime.end.p0i8(i64 24, i8* nonnull %59) #17
  %489 = load i8, i8* %168, align 1
  %490 = icmp slt i8 %489, 0
  br i1 %490, label %491, label %493

491:                                              ; preds = %488
  %492 = load i8*, i8** %47, align 8
  call void @_ZdlPv(i8* %492) #18
  br label %493

493:                                              ; preds = %488, %491
  call void @llvm.lifetime.end.p0i8(i64 24, i8* nonnull %46) #17
  %494 = bitcast %"class.std::__1::basic_string"* %3 to %"struct.std::__1::basic_string<char, std::__1::char_traits<char>, std::__1::allocator<char> >::__short"*
  %495 = getelementptr inbounds %"struct.std::__1::basic_string<char, std::__1::char_traits<char>, std::__1::allocator<char> >::__short", %"struct.std::__1::basic_string<char, std::__1::char_traits<char>, std::__1::allocator<char> >::__short"* %494, i64 0, i32 1, i32 0
  %496 = load i8, i8* %495, align 1
  %497 = icmp slt i8 %496, 0
  br i1 %497, label %498, label %500

498:                                              ; preds = %493
  %499 = load i8*, i8** %33, align 8
  call void @_ZdlPv(i8* %499) #18
  br label %500

500:                                              ; preds = %493, %498
  call void @llvm.lifetime.end.p0i8(i64 24, i8* nonnull %32) #17
  br label %569

501:                                              ; preds = %455, %566
  %502 = phi i64 [ -1, %455 ], [ %504, %566 ]
  %503 = phi %"class.cricket::ContentInfo"* [ %451, %455 ], [ %567, %566 ]
  call void @llvm.lifetime.start.p0i8(i64 24, i8* nonnull %456) #17
  call void @llvm.memset.p0i8.i64(i8* nonnull align 8 %456, i8 0, i64 24, i1 false) #17
  %504 = add i64 %502, 1
  %505 = load %"class.webrtc::IceCandidateCollection"* (%"class.webrtc::SessionDescriptionInterface"*, i64)**, %"class.webrtc::IceCandidateCollection"* (%"class.webrtc::SessionDescriptionInterface"*, i64)*** %461, align 8
  %506 = getelementptr inbounds %"class.webrtc::IceCandidateCollection"* (%"class.webrtc::SessionDescriptionInterface"*, i64)*, %"class.webrtc::IceCandidateCollection"* (%"class.webrtc::SessionDescriptionInterface"*, i64)** %505, i64 12
  %507 = load %"class.webrtc::IceCandidateCollection"* (%"class.webrtc::SessionDescriptionInterface"*, i64)*, %"class.webrtc::IceCandidateCollection"* (%"class.webrtc::SessionDescriptionInterface"*, i64)** %506, align 8
  %508 = call %"class.webrtc::IceCandidateCollection"* %507(%"class.webrtc::SessionDescriptionInterface"* %460, i64 %504) #17
  %509 = bitcast %"class.webrtc::IceCandidateCollection"* %508 to i64 (%"class.webrtc::IceCandidateCollection"*)***
  %510 = load i64 (%"class.webrtc::IceCandidateCollection"*)**, i64 (%"class.webrtc::IceCandidateCollection"*)*** %509, align 8
  %511 = getelementptr inbounds i64 (%"class.webrtc::IceCandidateCollection"*)*, i64 (%"class.webrtc::IceCandidateCollection"*)** %510, i64 2
  %512 = load i64 (%"class.webrtc::IceCandidateCollection"*)*, i64 (%"class.webrtc::IceCandidateCollection"*)** %511, align 8
  %513 = call i64 %512(%"class.webrtc::IceCandidateCollection"* %508) #17
  %514 = icmp eq i64 %513, 0
  br i1 %514, label %542, label %515

515:                                              ; preds = %501
  %516 = bitcast %"class.webrtc::IceCandidateCollection"* %508 to %"class.webrtc::IceCandidateInterface"* (%"class.webrtc::IceCandidateCollection"*, i64)***
  br label %517

517:                                              ; preds = %535, %515
  %518 = phi i64 [ 0, %515 ], [ %536, %535 ]
  %519 = load %"class.webrtc::IceCandidateInterface"* (%"class.webrtc::IceCandidateCollection"*, i64)**, %"class.webrtc::IceCandidateInterface"* (%"class.webrtc::IceCandidateCollection"*, i64)*** %516, align 8
  %520 = getelementptr inbounds %"class.webrtc::IceCandidateInterface"* (%"class.webrtc::IceCandidateCollection"*, i64)*, %"class.webrtc::IceCandidateInterface"* (%"class.webrtc::IceCandidateCollection"*, i64)** %519, i64 4
  %521 = load %"class.webrtc::IceCandidateInterface"* (%"class.webrtc::IceCandidateCollection"*, i64)*, %"class.webrtc::IceCandidateInterface"* (%"class.webrtc::IceCandidateCollection"*, i64)** %520, align 8
  %522 = call %"class.webrtc::IceCandidateInterface"* %521(%"class.webrtc::IceCandidateCollection"* %508, i64 %518) #17
  %523 = bitcast %"class.webrtc::IceCandidateInterface"* %522 to %"class.cricket::Candidate"* (%"class.webrtc::IceCandidateInterface"*)***
  %524 = load %"class.cricket::Candidate"* (%"class.webrtc::IceCandidateInterface"*)**, %"class.cricket::Candidate"* (%"class.webrtc::IceCandidateInterface"*)*** %523, align 8
  %525 = getelementptr inbounds %"class.cricket::Candidate"* (%"class.webrtc::IceCandidateInterface"*)*, %"class.cricket::Candidate"* (%"class.webrtc::IceCandidateInterface"*)** %524, i64 4
  %526 = load %"class.cricket::Candidate"* (%"class.webrtc::IceCandidateInterface"*)*, %"class.cricket::Candidate"* (%"class.webrtc::IceCandidateInterface"*)** %525, align 8
  %527 = call dereferenceable(440) %"class.cricket::Candidate"* %526(%"class.webrtc::IceCandidateInterface"* %522) #17
  %528 = load %"class.cricket::Candidate"*, %"class.cricket::Candidate"** %458, align 8
  %529 = load %"class.cricket::Candidate"*, %"class.cricket::Candidate"** %459, align 8
  %530 = icmp eq %"class.cricket::Candidate"* %528, %529
  br i1 %530, label %534, label %531

531:                                              ; preds = %517
  call void @_ZN7cricket9CandidateC1ERKS0_(%"class.cricket::Candidate"* %528, %"class.cricket::Candidate"* dereferenceable(440) %527) #17
  %532 = getelementptr inbounds %"class.cricket::Candidate", %"class.cricket::Candidate"* %528, i64 1
  %533 = ptrtoint %"class.cricket::Candidate"* %532 to i64
  store i64 %533, i64* %462, align 8
  br label %535

534:                                              ; preds = %517
  call void @_ZNSt3__16vectorIN7cricket9CandidateENS_9allocatorIS2_EEE21__push_back_slow_pathIRKS2_EEvOT_(%"class.std::__1::vector.170"* nonnull %20, %"class.cricket::Candidate"* dereferenceable(440) %527) #17
  br label %535

535:                                              ; preds = %534, %531
  %536 = add nuw i64 %518, 1
  %537 = load i64 (%"class.webrtc::IceCandidateCollection"*)**, i64 (%"class.webrtc::IceCandidateCollection"*)*** %509, align 8
  %538 = getelementptr inbounds i64 (%"class.webrtc::IceCandidateCollection"*)*, i64 (%"class.webrtc::IceCandidateCollection"*)** %537, i64 2
  %539 = load i64 (%"class.webrtc::IceCandidateCollection"*)*, i64 (%"class.webrtc::IceCandidateCollection"*)** %538, align 8
  %540 = call i64 %539(%"class.webrtc::IceCandidateCollection"* %508) #17
  %541 = icmp ult i64 %536, %540
  br i1 %541, label %517, label %542

542:                                              ; preds = %535, %501
  %543 = getelementptr inbounds %"class.cricket::ContentInfo", %"class.cricket::ContentInfo"* %503, i64 0, i32 0
  %544 = call %"struct.cricket::TransportInfo"* @_ZNK7cricket18SessionDescription22GetTransportInfoByNameERKNSt3__112basic_stringIcNS1_11char_traitsIcEENS1_9allocatorIcEEEE(%"class.cricket::SessionDescription"* nonnull %25, %"class.std::__1::basic_string"* dereferenceable(24) %543) #17
  %545 = call %"class.cricket::MediaContentDescription"* @_ZNK7cricket11ContentInfo17media_descriptionEv(%"class.cricket::ContentInfo"* %503) #17
  %546 = bitcast %"class.cricket::MediaContentDescription"* %545 to i32 (%"class.cricket::MediaContentDescription"*)***
  %547 = load i32 (%"class.cricket::MediaContentDescription"*)**, i32 (%"class.cricket::MediaContentDescription"*)*** %546, align 8
  %548 = getelementptr inbounds i32 (%"class.cricket::MediaContentDescription"*)*, i32 (%"class.cricket::MediaContentDescription"*)** %547, i64 2
  %549 = load i32 (%"class.cricket::MediaContentDescription"*)*, i32 (%"class.cricket::MediaContentDescription"*)** %548, align 8
  %550 = call i32 %549(%"class.cricket::MediaContentDescription"* %545) #17
  %551 = load i32, i32* %463, align 4
  call fastcc void @_ZN6webrtcL21BuildMediaDescriptionEPKN7cricket11ContentInfoEPKNS0_13TransportInfoENS0_9MediaTypeERKNSt3__16vectorINS0_9CandidateENS8_9allocatorISA_EEEEiPNS8_12basic_stringIcNS8_11char_traitsIcEENSB_IcEEEE(%"class.cricket::ContentInfo"* %503, %"struct.cricket::TransportInfo"* %544, i32 %550, %"class.std::__1::vector.170"* nonnull dereferenceable(24) %20, i32 %551, %"class.std::__1::basic_string"* nonnull %3)
  %552 = load %"class.cricket::Candidate"*, %"class.cricket::Candidate"** %457, align 8
  %553 = icmp eq %"class.cricket::Candidate"* %552, null
  br i1 %553, label %566, label %554

554:                                              ; preds = %542
  %555 = bitcast %"class.cricket::Candidate"* %552 to i8*
  %556 = load %"class.cricket::Candidate"*, %"class.cricket::Candidate"** %458, align 8
  %557 = icmp eq %"class.cricket::Candidate"* %556, %552
  br i1 %557, label %564, label %558

558:                                              ; preds = %554, %558
  %559 = phi %"class.cricket::Candidate"* [ %560, %558 ], [ %556, %554 ]
  %560 = getelementptr inbounds %"class.cricket::Candidate", %"class.cricket::Candidate"* %559, i64 -1
  call void @_ZN7cricket9CandidateD1Ev(%"class.cricket::Candidate"* %560) #17
  %561 = icmp eq %"class.cricket::Candidate"* %560, %552
  br i1 %561, label %562, label %558

562:                                              ; preds = %558
  %563 = load i8*, i8** %464, align 8
  br label %564

564:                                              ; preds = %562, %554
  %565 = phi i8* [ %563, %562 ], [ %555, %554 ]
  store %"class.cricket::Candidate"* %552, %"class.cricket::Candidate"** %458, align 8
  call void @_ZdlPv(i8* %565) #18
  br label %566

566:                                              ; preds = %542, %564
  call void @llvm.lifetime.end.p0i8(i64 24, i8* nonnull %456) #17
  %567 = getelementptr inbounds %"class.cricket::ContentInfo", %"class.cricket::ContentInfo"* %503, i64 1
  %568 = icmp eq %"class.cricket::ContentInfo"* %567, %453
  br i1 %568, label %465, label %501

569:                                              ; preds = %500, %27
  ret void
}

; Function Attrs: nounwind ssp uwtable
define internal fastcc void @_ZN6webrtcL8InitLineEcRKNSt3__112basic_stringIcNS0_11char_traitsIcEENS0_9allocatorIcEEEEPN3rtc13StringBuilderE(i8 signext, %"class.std::__1::basic_string"* dereferenceable(24), %"class.rtc::StringBuilder"*) unnamed_addr #0 {
  %4 = alloca %"class.std::__1::basic_string", align 8
  %5 = bitcast %"class.rtc::StringBuilder"* %2 to %"struct.std::__1::basic_string<char, std::__1::char_traits<char>, std::__1::allocator<char> >::__short"*
  %6 = getelementptr inbounds %"struct.std::__1::basic_string<char, std::__1::char_traits<char>, std::__1::allocator<char> >::__short", %"struct.std::__1::basic_string<char, std::__1::char_traits<char>, std::__1::allocator<char> >::__short"* %5, i64 0, i32 1, i32 0
  %7 = load i8, i8* %6, align 1
  %8 = icmp slt i8 %7, 0
  br i1 %8, label %9, label %13

9:                                                ; preds = %3
  %10 = getelementptr inbounds %"class.rtc::StringBuilder", %"class.rtc::StringBuilder"* %2, i64 0, i32 0, i32 0, i32 0, i32 0, i32 0, i32 0, i32 0
  %11 = load i8*, i8** %10, align 8
  store i8 0, i8* %11, align 1
  %12 = getelementptr inbounds %"class.rtc::StringBuilder", %"class.rtc::StringBuilder"* %2, i64 0, i32 0, i32 0, i32 0, i32 0, i32 0, i32 0, i32 1
  store i64 0, i64* %12, align 8
  br label %15

13:                                               ; preds = %3
  %14 = bitcast %"class.rtc::StringBuilder"* %2 to i8*
  store i8 0, i8* %14, align 1
  store i8 0, i8* %6, align 1
  br label %15

15:                                               ; preds = %9, %13
  %16 = bitcast %"class.std::__1::basic_string"* %4 to i8*
  call void @llvm.lifetime.start.p0i8(i64 24, i8* nonnull %16) #17
  %17 = bitcast %"class.std::__1::basic_string"* %4 to %"struct.std::__1::basic_string<char, std::__1::char_traits<char>, std::__1::allocator<char> >::__short"*
  %18 = getelementptr inbounds %"struct.std::__1::basic_string<char, std::__1::char_traits<char>, std::__1::allocator<char> >::__short", %"struct.std::__1::basic_string<char, std::__1::char_traits<char>, std::__1::allocator<char> >::__short"* %17, i64 0, i32 1, i32 0
  store i8 1, i8* %18, align 1
  call void @llvm.memset.p0i8.i64(i8* nonnull align 8 %16, i8 %0, i64 1, i1 false) #17
  %19 = getelementptr inbounds i8, i8* %16, i64 1
  store i8 0, i8* %19, align 1
  %20 = getelementptr inbounds %"class.rtc::StringBuilder", %"class.rtc::StringBuilder"* %2, i64 0, i32 0
  %21 = call dereferenceable(24) %"class.std::__1::basic_string"* @_ZNSt3__112basic_stringIcNS_11char_traitsIcEENS_9allocatorIcEEE6appendEPKcm(%"class.std::__1::basic_string"* %20, i8* nonnull %16, i64 1) #17
  %22 = call dereferenceable(24) %"class.std::__1::basic_string"* @_ZNSt3__112basic_stringIcNS_11char_traitsIcEENS_9allocatorIcEEE6appendEPKcm(%"class.std::__1::basic_string"* %20, i8* getelementptr inbounds ([2 x i8], [2 x i8]* @.str.26, i64 0, i64 0), i64 1) #17
  %23 = bitcast %"class.std::__1::basic_string"* %1 to %"struct.std::__1::basic_string<char, std::__1::char_traits<char>, std::__1::allocator<char> >::__short"*
  %24 = getelementptr inbounds %"struct.std::__1::basic_string<char, std::__1::char_traits<char>, std::__1::allocator<char> >::__short", %"struct.std::__1::basic_string<char, std::__1::char_traits<char>, std::__1::allocator<char> >::__short"* %23, i64 0, i32 1, i32 0
  %25 = load i8, i8* %24, align 1
  %26 = icmp slt i8 %25, 0
  br i1 %26, label %30, label %27

27:                                               ; preds = %15
  %28 = zext i8 %25 to i64
  %29 = ptrtoint %"class.std::__1::basic_string"* %1 to i64
  br label %37

30:                                               ; preds = %15
  %31 = bitcast %"class.std::__1::basic_string"* %1 to i64*
  %32 = load i64, i64* %31, align 8
  %33 = getelementptr inbounds %"class.std::__1::basic_string", %"class.std::__1::basic_string"* %1, i64 0, i32 0, i32 0, i32 0, i32 0, i32 0, i32 1
  %34 = load i64, i64* %33, align 8
  %35 = icmp sgt i64 %34, -1
  br i1 %35, label %37, label %36, !prof !2

36:                                               ; preds = %30
  call void @llvm.trap() #17
  unreachable

37:                                               ; preds = %27, %30
  %38 = phi i64 [ %32, %30 ], [ %29, %27 ]
  %39 = phi i64 [ %34, %30 ], [ %28, %27 ]
  %40 = inttoptr i64 %38 to i8*
  %41 = call dereferenceable(24) %"class.std::__1::basic_string"* @_ZNSt3__112basic_stringIcNS_11char_traitsIcEENS_9allocatorIcEEE6appendEPKcm(%"class.std::__1::basic_string"* %20, i8* %40, i64 %39) #17
  %42 = load i8, i8* %18, align 1
  %43 = icmp slt i8 %42, 0
  br i1 %43, label %44, label %47

44:                                               ; preds = %37
  %45 = getelementptr inbounds %"class.std::__1::basic_string", %"class.std::__1::basic_string"* %4, i64 0, i32 0, i32 0, i32 0, i32 0, i32 0, i32 0
  %46 = load i8*, i8** %45, align 8
  call void @_ZdlPv(i8* %46) #18
  br label %47

47:                                               ; preds = %37, %44
  call void @llvm.lifetime.end.p0i8(i64 24, i8* nonnull %16) #17
  ret void
}

declare void @_ZNK7cricket18SessionDescription15GetGroupsByNameERKNSt3__112basic_stringIcNS1_11char_traitsIcEENS1_9allocatorIcEEEE(%"class.std::__1::vector.159"* sret, %"class.cricket::SessionDescription"*, %"class.std::__1::basic_string"* dereferenceable(24)) local_unnamed_addr #2

declare dereferenceable(24) %"class.std::__1::basic_string"* @_ZNSt3__112basic_stringIcNS_11char_traitsIcEENS_9allocatorIcEEE6appendEPKc(%"class.std::__1::basic_string"*, i8*) local_unnamed_addr #2

declare %"class.cricket::ContentInfo"* @_ZN7cricket20GetFirstAudioContentEPKNS_18SessionDescriptionE(%"class.cricket::SessionDescription"*) local_unnamed_addr #2

declare %"class.cricket::ContentInfo"* @_ZN7cricket20GetFirstVideoContentEPKNS_18SessionDescriptionE(%"class.cricket::SessionDescription"*) local_unnamed_addr #2

; Function Attrs: nounwind ssp uwtable
define internal fastcc void @_ZN6webrtcL21BuildMediaDescriptionEPKN7cricket11ContentInfoEPKNS0_13TransportInfoENS0_9MediaTypeERKNSt3__16vectorINS0_9CandidateENS8_9allocatorISA_EEEEiPNS8_12basic_stringIcNS8_11char_traitsIcEENSB_IcEEEE(%"class.cricket::ContentInfo"*, %"struct.cricket::TransportInfo"*, i32, %"class.std::__1::vector.170"* nocapture readonly dereferenceable(24), i32, %"class.std::__1::basic_string"*) unnamed_addr #0 {
  %7 = alloca %"class.std::__1::basic_string", align 8
  %8 = alloca %"class.std::__1::basic_string", align 8
  %9 = alloca %"class.std::__1::basic_string", align 8
  %10 = alloca %"class.std::__1::basic_string", align 8
  %11 = alloca %"class.rtc::StringBuilder", align 8
  %12 = alloca %"class.rtc::StringBuilder", align 8
  %13 = alloca %"class.std::__1::basic_string", align 8
  %14 = alloca %"class.std::__1::basic_string", align 8
  %15 = alloca %"class.std::__1::basic_string", align 8
  %16 = alloca %"class.rtc::StringBuilder", align 8
  %17 = alloca %"class.std::__1::basic_string", align 8
  %18 = alloca %"class.std::__1::basic_string", align 8
  %19 = alloca %"class.std::__1::basic_string", align 8
  %20 = alloca %"class.std::__1::basic_string", align 8
  %21 = alloca %"class.std::__1::basic_string", align 8
  %22 = alloca %"class.std::__1::basic_string", align 8
  %23 = alloca %"class.rtc::StringBuilder", align 8
  %24 = alloca %"class.std::__1::basic_string", align 8
  %25 = alloca %"class.std::__1::basic_string", align 8
  %26 = alloca %"class.std::__1::basic_string", align 8
  %27 = alloca %"class.std::__1::basic_string", align 8
  %28 = alloca %"class.std::__1::basic_string", align 8
  %29 = alloca %"class.rtc::StringBuilder", align 8
  %30 = alloca %"class.std::__1::basic_string", align 8
  %31 = alloca %"class.std::__1::basic_string", align 8
  %32 = alloca %"class.std::__1::basic_string", align 8
  %33 = alloca %"class.rtc::StringBuilder", align 8
  %34 = alloca %"class.std::__1::basic_string", align 8
  %35 = alloca %"class.std::__1::basic_string", align 8
  %36 = alloca %"class.rtc::StringBuilder", align 8
  %37 = alloca %"class.std::__1::basic_string", align 8
  %38 = alloca %"class.std::__1::vector.8", align 8
  %39 = alloca %"class.std::__1::vector.8", align 8
  %40 = alloca %"class.std::__1::basic_string", align 8
  %41 = alloca %"class.std::__1::basic_string", align 8
  %42 = alloca %"class.std::__1::basic_string", align 8
  %43 = alloca %"class.std::__1::basic_string", align 8
  %44 = alloca %"class.std::__1::basic_string", align 8
  %45 = alloca %"class.std::__1::basic_string", align 8
  %46 = alloca %"class.std::__1::basic_string", align 8
  %47 = alloca %"class.webrtc::SdpSerializer", align 1
  %48 = alloca %"class.rtc::StringBuilder", align 8
  %49 = alloca %"class.std::__1::basic_string", align 8
  %50 = alloca %"class.std::__1::basic_string", align 8
  %51 = alloca %"class.std::__1::basic_string", align 8
  %52 = alloca %"class.std::__1::basic_string", align 8
  %53 = alloca %"class.std::__1::basic_string", align 8
  %54 = alloca %"class.std::__1::basic_string", align 8
  %55 = alloca %"class.std::__1::basic_string", align 8
  %56 = alloca %"class.std::__1::vector", align 8
  %57 = alloca %"class.std::__1::basic_string", align 8
  %58 = alloca %"class.std::__1::basic_string", align 8
  %59 = alloca %"class.rtc::DiagnosticLogMessage", align 8
  %60 = alloca %"class.std::__1::basic_string", align 8
  %61 = alloca %"class.std::__1::basic_string", align 8
  %62 = alloca %"class.std::__1::basic_string", align 8
  %63 = alloca %"class.std::__1::basic_string", align 8
  %64 = alloca %"class.std::__1::basic_string", align 8
  %65 = alloca %"class.std::__1::basic_string", align 8
  %66 = alloca %"class.std::__1::basic_string", align 8
  %67 = alloca %"class.std::__1::basic_string", align 8
  %68 = alloca %"class.std::__1::basic_string", align 8
  %69 = alloca %"class.std::__1::basic_string", align 8
  %70 = alloca %"class.std::__1::basic_string", align 8
  %71 = alloca %"class.std::__1::basic_string", align 8
  %72 = alloca %"class.std::__1::basic_string", align 8
  %73 = alloca %"class.std::__1::basic_string", align 8
  %74 = alloca %"class.std::__1::basic_string", align 8
  %75 = alloca %"class.std::__1::basic_string", align 8
  %76 = alloca %"class.std::__1::basic_string", align 8
  %77 = alloca %"class.std::__1::basic_string", align 8
  %78 = alloca %"class.std::__1::basic_string", align 8
  %79 = alloca %"class.rtc::StringBuilder", align 8
  %80 = alloca %"class.std::__1::basic_string", align 8
  %81 = alloca %"class.std::__1::basic_string", align 8
  %82 = alloca %"class.std::__1::basic_string", align 8
  %83 = alloca %"class.std::__1::basic_string", align 8
  %84 = alloca %"class.std::__1::basic_string", align 8
  %85 = alloca %"class.std::__1::basic_string", align 8
  %86 = alloca %"class.std::__1::basic_string", align 8
  %87 = alloca %"class.std::__1::basic_string", align 8
  %88 = alloca %"class.std::__1::basic_string", align 8
  %89 = alloca %"class.std::__1::basic_string", align 8
  %90 = alloca %"class.std::__1::basic_string", align 8
  %91 = alloca %"class.std::__1::basic_string", align 8
  %92 = alloca %"class.std::__1::basic_string", align 8
  %93 = alloca %"class.std::__1::basic_string", align 8
  %94 = alloca %"class.std::__1::basic_string", align 8
  %95 = alloca %"class.std::__1::basic_string", align 8
  %96 = alloca %"class.std::__1::basic_string", align 8
  %97 = alloca %"class.std::__1::basic_string", align 8
  %98 = alloca %"class.std::__1::basic_string", align 8
  %99 = alloca i32, align 4
  %100 = alloca %"class.std::__1::basic_string", align 8
  %101 = alloca %"class.std::__1::basic_string", align 8
  %102 = alloca %"class.std::__1::basic_string", align 8
  %103 = alloca %"class.std::__1::basic_string", align 8
  %104 = alloca %"class.std::__1::basic_string", align 8
  %105 = icmp eq %"class.cricket::ContentInfo"* %0, null
  %106 = icmp eq %"class.std::__1::basic_string"* %5, null
  %107 = or i1 %105, %106
  br i1 %107, label %3424, label %108

108:                                              ; preds = %6
  %109 = bitcast %"class.rtc::StringBuilder"* %79 to i8*
  call void @llvm.lifetime.start.p0i8(i64 24, i8* nonnull %109) #17
  %110 = getelementptr inbounds %"class.rtc::StringBuilder", %"class.rtc::StringBuilder"* %79, i64 0, i32 0, i32 0, i32 0, i32 0, i32 0, i32 0, i32 0
  %111 = getelementptr inbounds %"class.rtc::StringBuilder", %"class.rtc::StringBuilder"* %79, i64 0, i32 0, i32 0, i32 0, i32 0, i32 0, i32 0, i32 1
  call void @llvm.memset.p0i8.i64(i8* nonnull align 8 %109, i8 0, i64 24, i1 false) #17
  %112 = tail call %"class.cricket::MediaContentDescription"* @_ZNK7cricket11ContentInfo17media_descriptionEv(%"class.cricket::ContentInfo"* nonnull %0) #17
  %113 = bitcast %"class.std::__1::basic_string"* %80 to i8*
  call void @llvm.lifetime.start.p0i8(i64 24, i8* nonnull %113) #17
  %114 = getelementptr inbounds %"class.std::__1::basic_string", %"class.std::__1::basic_string"* %80, i64 0, i32 0, i32 0, i32 0, i32 0, i32 0, i32 0
  call void @llvm.memset.p0i8.i64(i8* nonnull align 8 %113, i8 0, i64 24, i1 false) #17
  %115 = bitcast %"class.std::__1::basic_string"* %81 to i8*
  call void @llvm.lifetime.start.p0i8(i64 24, i8* nonnull %115) #17
  %116 = getelementptr inbounds %"class.std::__1::basic_string", %"class.std::__1::basic_string"* %81, i64 0, i32 0, i32 0, i32 0, i32 0, i32 0, i32 0
  %117 = getelementptr inbounds %"class.std::__1::basic_string", %"class.std::__1::basic_string"* %81, i64 0, i32 0, i32 0, i32 0, i32 0, i32 0, i32 1
  call void @llvm.memset.p0i8.i64(i8* nonnull align 8 %115, i8 0, i64 24, i1 false) #17
  switch i32 %2, label %269 [
    i32 1, label %118
    i32 0, label %164
    i32 2, label %210
    i32 3, label %248
  ]

118:                                              ; preds = %108
  %119 = bitcast %"class.std::__1::basic_string"* %80 to %"struct.std::__1::basic_string<char, std::__1::char_traits<char>, std::__1::allocator<char> >::__short"*
  %120 = getelementptr inbounds %"struct.std::__1::basic_string<char, std::__1::char_traits<char>, std::__1::allocator<char> >::__short", %"struct.std::__1::basic_string<char, std::__1::char_traits<char>, std::__1::allocator<char> >::__short"* %119, i64 0, i32 1, i32 0
  store i8 5, i8* %120, align 1
  call void @llvm.memcpy.p0i8.p0i8.i64(i8* nonnull align 8 %113, i8* align 1 getelementptr inbounds ([6 x i8], [6 x i8]* @_ZN6webrtcL15kMediaTypeVideoE, i64 0, i64 0), i64 5, i1 false) #17
  %121 = getelementptr inbounds i8, i8* %113, i64 5
  store i8 0, i8* %121, align 1
  %122 = bitcast %"class.cricket::MediaContentDescription"* %112 to %"class.cricket::VideoContentDescription"* (%"class.cricket::MediaContentDescription"*)***
  %123 = load %"class.cricket::VideoContentDescription"* (%"class.cricket::MediaContentDescription"*)**, %"class.cricket::VideoContentDescription"* (%"class.cricket::MediaContentDescription"*)*** %122, align 8
  %124 = getelementptr inbounds %"class.cricket::VideoContentDescription"* (%"class.cricket::MediaContentDescription"*)*, %"class.cricket::VideoContentDescription"* (%"class.cricket::MediaContentDescription"*)** %123, i64 6
  %125 = load %"class.cricket::VideoContentDescription"* (%"class.cricket::MediaContentDescription"*)*, %"class.cricket::VideoContentDescription"* (%"class.cricket::MediaContentDescription"*)** %124, align 8
  %126 = tail call %"class.cricket::VideoContentDescription"* %125(%"class.cricket::MediaContentDescription"* %112) #17
  %127 = getelementptr inbounds %"class.cricket::VideoContentDescription", %"class.cricket::VideoContentDescription"* %126, i64 0, i32 0
  %128 = bitcast %"class.cricket::VideoContentDescription"* %126 to %"class.std::__1::vector.196"* (%"class.cricket::MediaContentDescriptionImpl.195"*)***
  %129 = load %"class.std::__1::vector.196"* (%"class.cricket::MediaContentDescriptionImpl.195"*)**, %"class.std::__1::vector.196"* (%"class.cricket::MediaContentDescriptionImpl.195"*)*** %128, align 8
  %130 = getelementptr inbounds %"class.std::__1::vector.196"* (%"class.cricket::MediaContentDescriptionImpl.195"*)*, %"class.std::__1::vector.196"* (%"class.cricket::MediaContentDescriptionImpl.195"*)** %129, i64 54
  %131 = load %"class.std::__1::vector.196"* (%"class.cricket::MediaContentDescriptionImpl.195"*)*, %"class.std::__1::vector.196"* (%"class.cricket::MediaContentDescriptionImpl.195"*)** %130, align 8
  %132 = tail call dereferenceable(24) %"class.std::__1::vector.196"* %131(%"class.cricket::MediaContentDescriptionImpl.195"* %127) #17
  %133 = getelementptr inbounds %"class.std::__1::vector.196", %"class.std::__1::vector.196"* %132, i64 0, i32 0, i32 0
  %134 = load %"struct.cricket::VideoCodec"*, %"struct.cricket::VideoCodec"** %133, align 8
  %135 = getelementptr inbounds %"class.std::__1::vector.196", %"class.std::__1::vector.196"* %132, i64 0, i32 0, i32 1
  %136 = load %"struct.cricket::VideoCodec"*, %"struct.cricket::VideoCodec"** %135, align 8
  %137 = icmp eq %"struct.cricket::VideoCodec"* %134, %136
  br i1 %137, label %269, label %138

138:                                              ; preds = %118
  %139 = bitcast %"class.std::__1::basic_string"* %82 to i8*
  %140 = bitcast %"class.std::__1::basic_string"* %82 to %"struct.std::__1::basic_string<char, std::__1::char_traits<char>, std::__1::allocator<char> >::__short"*
  %141 = getelementptr inbounds %"struct.std::__1::basic_string<char, std::__1::char_traits<char>, std::__1::allocator<char> >::__short", %"struct.std::__1::basic_string<char, std::__1::char_traits<char>, std::__1::allocator<char> >::__short"* %140, i64 0, i32 1, i32 0
  %142 = getelementptr inbounds %"class.std::__1::basic_string", %"class.std::__1::basic_string"* %82, i64 0, i32 0, i32 0, i32 0, i32 0, i32 0, i32 0
  %143 = getelementptr inbounds %"class.std::__1::basic_string", %"class.std::__1::basic_string"* %82, i64 0, i32 0, i32 0, i32 0, i32 0, i32 0, i32 1
  br label %144

144:                                              ; preds = %138, %161
  %145 = phi %"struct.cricket::VideoCodec"* [ %134, %138 ], [ %162, %161 ]
  %146 = call dereferenceable(24) %"class.std::__1::basic_string"* @_ZNSt3__112basic_stringIcNS_11char_traitsIcEENS_9allocatorIcEEE6appendEPKc(%"class.std::__1::basic_string"* nonnull %81, i8* getelementptr inbounds ([2 x i8], [2 x i8]* @.str.4, i64 0, i64 0)) #17
  call void @llvm.lifetime.start.p0i8(i64 24, i8* nonnull %139) #17
  %147 = getelementptr inbounds %"struct.cricket::VideoCodec", %"struct.cricket::VideoCodec"* %145, i64 0, i32 0, i32 1
  %148 = load i32, i32* %147, align 8
  call void @_ZN3rtc8ToStringEi(%"class.std::__1::basic_string"* nonnull sret %82, i32 %148) #17
  %149 = load i8, i8* %141, align 1
  %150 = icmp slt i8 %149, 0
  %151 = load i8*, i8** %142, align 8
  %152 = load i64, i64* %143, align 8
  %153 = zext i8 %149 to i64
  %154 = select i1 %150, i8* %151, i8* %139
  %155 = select i1 %150, i64 %152, i64 %153
  %156 = call dereferenceable(24) %"class.std::__1::basic_string"* @_ZNSt3__112basic_stringIcNS_11char_traitsIcEENS_9allocatorIcEEE6appendEPKcm(%"class.std::__1::basic_string"* nonnull %81, i8* %154, i64 %155) #17
  %157 = load i8, i8* %141, align 1
  %158 = icmp slt i8 %157, 0
  br i1 %158, label %159, label %161

159:                                              ; preds = %144
  %160 = load i8*, i8** %142, align 8
  call void @_ZdlPv(i8* %160) #18
  br label %161

161:                                              ; preds = %144, %159
  call void @llvm.lifetime.end.p0i8(i64 24, i8* nonnull %139) #17
  %162 = getelementptr inbounds %"struct.cricket::VideoCodec", %"struct.cricket::VideoCodec"* %145, i64 1
  %163 = icmp eq %"struct.cricket::VideoCodec"* %162, %136
  br i1 %163, label %269, label %144

164:                                              ; preds = %108
  %165 = bitcast %"class.std::__1::basic_string"* %80 to %"struct.std::__1::basic_string<char, std::__1::char_traits<char>, std::__1::allocator<char> >::__short"*
  %166 = getelementptr inbounds %"struct.std::__1::basic_string<char, std::__1::char_traits<char>, std::__1::allocator<char> >::__short", %"struct.std::__1::basic_string<char, std::__1::char_traits<char>, std::__1::allocator<char> >::__short"* %165, i64 0, i32 1, i32 0
  store i8 5, i8* %166, align 1
  call void @llvm.memcpy.p0i8.p0i8.i64(i8* nonnull align 8 %113, i8* align 1 getelementptr inbounds ([6 x i8], [6 x i8]* @_ZN6webrtcL15kMediaTypeAudioE, i64 0, i64 0), i64 5, i1 false) #17
  %167 = getelementptr inbounds i8, i8* %113, i64 5
  store i8 0, i8* %167, align 1
  %168 = bitcast %"class.cricket::MediaContentDescription"* %112 to %"class.cricket::AudioContentDescription"* (%"class.cricket::MediaContentDescription"*)***
  %169 = load %"class.cricket::AudioContentDescription"* (%"class.cricket::MediaContentDescription"*)**, %"class.cricket::AudioContentDescription"* (%"class.cricket::MediaContentDescription"*)*** %168, align 8
  %170 = getelementptr inbounds %"class.cricket::AudioContentDescription"* (%"class.cricket::MediaContentDescription"*)*, %"class.cricket::AudioContentDescription"* (%"class.cricket::MediaContentDescription"*)** %169, i64 4
  %171 = load %"class.cricket::AudioContentDescription"* (%"class.cricket::MediaContentDescription"*)*, %"class.cricket::AudioContentDescription"* (%"class.cricket::MediaContentDescription"*)** %170, align 8
  %172 = tail call %"class.cricket::AudioContentDescription"* %171(%"class.cricket::MediaContentDescription"* %112) #17
  %173 = getelementptr inbounds %"class.cricket::AudioContentDescription", %"class.cricket::AudioContentDescription"* %172, i64 0, i32 0
  %174 = bitcast %"class.cricket::AudioContentDescription"* %172 to %"class.std::__1::vector.181"* (%"class.cricket::MediaContentDescriptionImpl"*)***
  %175 = load %"class.std::__1::vector.181"* (%"class.cricket::MediaContentDescriptionImpl"*)**, %"class.std::__1::vector.181"* (%"class.cricket::MediaContentDescriptionImpl"*)*** %174, align 8
  %176 = getelementptr inbounds %"class.std::__1::vector.181"* (%"class.cricket::MediaContentDescriptionImpl"*)*, %"class.std::__1::vector.181"* (%"class.cricket::MediaContentDescriptionImpl"*)** %175, i64 54
  %177 = load %"class.std::__1::vector.181"* (%"class.cricket::MediaContentDescriptionImpl"*)*, %"class.std::__1::vector.181"* (%"class.cricket::MediaContentDescriptionImpl"*)** %176, align 8
  %178 = tail call dereferenceable(24) %"class.std::__1::vector.181"* %177(%"class.cricket::MediaContentDescriptionImpl"* %173) #17
  %179 = getelementptr inbounds %"class.std::__1::vector.181", %"class.std::__1::vector.181"* %178, i64 0, i32 0, i32 0
  %180 = load %"struct.cricket::AudioCodec"*, %"struct.cricket::AudioCodec"** %179, align 8
  %181 = getelementptr inbounds %"class.std::__1::vector.181", %"class.std::__1::vector.181"* %178, i64 0, i32 0, i32 1
  %182 = load %"struct.cricket::AudioCodec"*, %"struct.cricket::AudioCodec"** %181, align 8
  %183 = icmp eq %"struct.cricket::AudioCodec"* %180, %182
  br i1 %183, label %269, label %184

184:                                              ; preds = %164
  %185 = bitcast %"class.std::__1::basic_string"* %83 to i8*
  %186 = bitcast %"class.std::__1::basic_string"* %83 to %"struct.std::__1::basic_string<char, std::__1::char_traits<char>, std::__1::allocator<char> >::__short"*
  %187 = getelementptr inbounds %"struct.std::__1::basic_string<char, std::__1::char_traits<char>, std::__1::allocator<char> >::__short", %"struct.std::__1::basic_string<char, std::__1::char_traits<char>, std::__1::allocator<char> >::__short"* %186, i64 0, i32 1, i32 0
  %188 = getelementptr inbounds %"class.std::__1::basic_string", %"class.std::__1::basic_string"* %83, i64 0, i32 0, i32 0, i32 0, i32 0, i32 0, i32 0
  %189 = getelementptr inbounds %"class.std::__1::basic_string", %"class.std::__1::basic_string"* %83, i64 0, i32 0, i32 0, i32 0, i32 0, i32 0, i32 1
  br label %190

190:                                              ; preds = %184, %207
  %191 = phi %"struct.cricket::AudioCodec"* [ %180, %184 ], [ %208, %207 ]
  %192 = call dereferenceable(24) %"class.std::__1::basic_string"* @_ZNSt3__112basic_stringIcNS_11char_traitsIcEENS_9allocatorIcEEE6appendEPKc(%"class.std::__1::basic_string"* nonnull %81, i8* getelementptr inbounds ([2 x i8], [2 x i8]* @.str.4, i64 0, i64 0)) #17
  call void @llvm.lifetime.start.p0i8(i64 24, i8* nonnull %185) #17
  %193 = getelementptr inbounds %"struct.cricket::AudioCodec", %"struct.cricket::AudioCodec"* %191, i64 0, i32 0, i32 1
  %194 = load i32, i32* %193, align 8
  call void @_ZN3rtc8ToStringEi(%"class.std::__1::basic_string"* nonnull sret %83, i32 %194) #17
  %195 = load i8, i8* %187, align 1
  %196 = icmp slt i8 %195, 0
  %197 = load i8*, i8** %188, align 8
  %198 = load i64, i64* %189, align 8
  %199 = zext i8 %195 to i64
  %200 = select i1 %196, i8* %197, i8* %185
  %201 = select i1 %196, i64 %198, i64 %199
  %202 = call dereferenceable(24) %"class.std::__1::basic_string"* @_ZNSt3__112basic_stringIcNS_11char_traitsIcEENS_9allocatorIcEEE6appendEPKcm(%"class.std::__1::basic_string"* nonnull %81, i8* %200, i64 %201) #17
  %203 = load i8, i8* %187, align 1
  %204 = icmp slt i8 %203, 0
  br i1 %204, label %205, label %207

205:                                              ; preds = %190
  %206 = load i8*, i8** %188, align 8
  call void @_ZdlPv(i8* %206) #18
  br label %207

207:                                              ; preds = %190, %205
  call void @llvm.lifetime.end.p0i8(i64 24, i8* nonnull %185) #17
  %208 = getelementptr inbounds %"struct.cricket::AudioCodec", %"struct.cricket::AudioCodec"* %191, i64 1
  %209 = icmp eq %"struct.cricket::AudioCodec"* %208, %182
  br i1 %209, label %269, label %190

210:                                              ; preds = %108
  %211 = bitcast %"class.std::__1::basic_string"* %80 to %"struct.std::__1::basic_string<char, std::__1::char_traits<char>, std::__1::allocator<char> >::__short"*
  %212 = getelementptr inbounds %"struct.std::__1::basic_string<char, std::__1::char_traits<char>, std::__1::allocator<char> >::__short", %"struct.std::__1::basic_string<char, std::__1::char_traits<char>, std::__1::allocator<char> >::__short"* %211, i64 0, i32 1, i32 0
  store i8 11, i8* %212, align 1
  call void @llvm.memcpy.p0i8.p0i8.i64(i8* nonnull align 8 %113, i8* align 1 getelementptr inbounds ([12 x i8], [12 x i8]* @_ZN6webrtcL14kMediaTypeDataE, i64 0, i64 0), i64 11, i1 false) #17
  %213 = getelementptr inbounds i8, i8* %113, i64 11
  store i8 0, i8* %213, align 1
  %214 = bitcast %"class.cricket::MediaContentDescription"* %112 to %"class.cricket::SctpDataContentDescription"* (%"class.cricket::MediaContentDescription"*)***
  %215 = load %"class.cricket::SctpDataContentDescription"* (%"class.cricket::MediaContentDescription"*)**, %"class.cricket::SctpDataContentDescription"* (%"class.cricket::MediaContentDescription"*)*** %214, align 8
  %216 = getelementptr inbounds %"class.cricket::SctpDataContentDescription"* (%"class.cricket::MediaContentDescription"*)*, %"class.cricket::SctpDataContentDescription"* (%"class.cricket::MediaContentDescription"*)** %215, i64 8
  %217 = load %"class.cricket::SctpDataContentDescription"* (%"class.cricket::MediaContentDescription"*)*, %"class.cricket::SctpDataContentDescription"* (%"class.cricket::MediaContentDescription"*)** %216, align 8
  %218 = tail call %"class.cricket::SctpDataContentDescription"* %217(%"class.cricket::MediaContentDescription"* %112) #17
  %219 = icmp eq %"class.cricket::SctpDataContentDescription"* %218, null
  br i1 %219, label %269, label %220

220:                                              ; preds = %210
  %221 = call dereferenceable(24) %"class.std::__1::basic_string"* @_ZNSt3__112basic_stringIcNS_11char_traitsIcEENS_9allocatorIcEEE6appendEPKc(%"class.std::__1::basic_string"* nonnull %81, i8* getelementptr inbounds ([2 x i8], [2 x i8]* @.str.4, i64 0, i64 0)) #17
  %222 = getelementptr inbounds %"class.cricket::SctpDataContentDescription", %"class.cricket::SctpDataContentDescription"* %218, i64 0, i32 1
  %223 = load i8, i8* %222, align 8, !range !3
  %224 = icmp eq i8 %223, 0
  br i1 %224, label %246, label %225

225:                                              ; preds = %220
  %226 = bitcast %"class.std::__1::basic_string"* %84 to i8*
  call void @llvm.lifetime.start.p0i8(i64 24, i8* nonnull %226) #17
  %227 = getelementptr inbounds %"class.cricket::SctpDataContentDescription", %"class.cricket::SctpDataContentDescription"* %218, i64 0, i32 3
  %228 = load i32, i32* %227, align 4
  call void @_ZN3rtc8ToStringEi(%"class.std::__1::basic_string"* nonnull sret %84, i32 %228) #17
  %229 = bitcast %"class.std::__1::basic_string"* %84 to %"struct.std::__1::basic_string<char, std::__1::char_traits<char>, std::__1::allocator<char> >::__short"*
  %230 = getelementptr inbounds %"struct.std::__1::basic_string<char, std::__1::char_traits<char>, std::__1::allocator<char> >::__short", %"struct.std::__1::basic_string<char, std::__1::char_traits<char>, std::__1::allocator<char> >::__short"* %229, i64 0, i32 1, i32 0
  %231 = load i8, i8* %230, align 1
  %232 = icmp slt i8 %231, 0
  %233 = getelementptr inbounds %"class.std::__1::basic_string", %"class.std::__1::basic_string"* %84, i64 0, i32 0, i32 0, i32 0, i32 0, i32 0, i32 0
  %234 = load i8*, i8** %233, align 8
  %235 = getelementptr inbounds %"class.std::__1::basic_string", %"class.std::__1::basic_string"* %84, i64 0, i32 0, i32 0, i32 0, i32 0, i32 0, i32 1
  %236 = load i64, i64* %235, align 8
  %237 = zext i8 %231 to i64
  %238 = select i1 %232, i8* %234, i8* %226
  %239 = select i1 %232, i64 %236, i64 %237
  %240 = call dereferenceable(24) %"class.std::__1::basic_string"* @_ZNSt3__112basic_stringIcNS_11char_traitsIcEENS_9allocatorIcEEE6appendEPKcm(%"class.std::__1::basic_string"* nonnull %81, i8* %238, i64 %239) #17
  %241 = load i8, i8* %230, align 1
  %242 = icmp slt i8 %241, 0
  br i1 %242, label %243, label %245

243:                                              ; preds = %225
  %244 = load i8*, i8** %233, align 8
  call void @_ZdlPv(i8* %244) #18
  br label %245

245:                                              ; preds = %225, %243
  call void @llvm.lifetime.end.p0i8(i64 24, i8* nonnull %226) #17
  br label %269

246:                                              ; preds = %220
  %247 = call dereferenceable(24) %"class.std::__1::basic_string"* @_ZNSt3__112basic_stringIcNS_11char_traitsIcEENS_9allocatorIcEEE6appendEPKc(%"class.std::__1::basic_string"* nonnull %81, i8* getelementptr inbounds ([19 x i8], [19 x i8]* @_ZN6webrtcL23kDefaultSctpmapProtocolE, i64 0, i64 0)) #17
  br label %269

248:                                              ; preds = %108
  %249 = bitcast %"class.cricket::MediaContentDescription"* %112 to %"class.cricket::UnsupportedContentDescription"* (%"class.cricket::MediaContentDescription"*)***
  %250 = load %"class.cricket::UnsupportedContentDescription"* (%"class.cricket::MediaContentDescription"*)**, %"class.cricket::UnsupportedContentDescription"* (%"class.cricket::MediaContentDescription"*)*** %249, align 8
  %251 = getelementptr inbounds %"class.cricket::UnsupportedContentDescription"* (%"class.cricket::MediaContentDescription"*)*, %"class.cricket::UnsupportedContentDescription"* (%"class.cricket::MediaContentDescription"*)** %250, i64 10
  %252 = load %"class.cricket::UnsupportedContentDescription"* (%"class.cricket::MediaContentDescription"*)*, %"class.cricket::UnsupportedContentDescription"* (%"class.cricket::MediaContentDescription"*)** %251, align 8
  %253 = tail call %"class.cricket::UnsupportedContentDescription"* %252(%"class.cricket::MediaContentDescription"* %112) #17
  %254 = getelementptr inbounds %"class.cricket::UnsupportedContentDescription", %"class.cricket::UnsupportedContentDescription"* %253, i64 0, i32 1
  %255 = icmp eq %"class.std::__1::basic_string"* %80, %254
  br i1 %255, label %269, label %256

256:                                              ; preds = %248
  %257 = bitcast %"class.std::__1::basic_string"* %254 to %"struct.std::__1::basic_string<char, std::__1::char_traits<char>, std::__1::allocator<char> >::__short"*
  %258 = getelementptr inbounds %"struct.std::__1::basic_string<char, std::__1::char_traits<char>, std::__1::allocator<char> >::__short", %"struct.std::__1::basic_string<char, std::__1::char_traits<char>, std::__1::allocator<char> >::__short"* %257, i64 0, i32 1, i32 0
  %259 = load i8, i8* %258, align 1
  %260 = icmp slt i8 %259, 0
  br i1 %260, label %263, label %261

261:                                              ; preds = %256
  %262 = bitcast %"class.std::__1::basic_string"* %254 to i8*
  call void @llvm.memcpy.p0i8.p0i8.i64(i8* nonnull align 8 %113, i8* align 8 %262, i64 24, i1 false) #17
  br label %269

263:                                              ; preds = %256
  %264 = getelementptr inbounds %"class.std::__1::basic_string", %"class.std::__1::basic_string"* %254, i64 0, i32 0, i32 0, i32 0, i32 0, i32 0, i32 0
  %265 = load i8*, i8** %264, align 8
  %266 = getelementptr inbounds %"class.cricket::UnsupportedContentDescription", %"class.cricket::UnsupportedContentDescription"* %253, i64 0, i32 1, i32 0, i32 0, i32 0, i32 0, i32 0, i32 1
  %267 = load i64, i64* %266, align 8
  %268 = call dereferenceable(24) %"class.std::__1::basic_string"* @_ZNSt3__112basic_stringIcNS_11char_traitsIcEENS_9allocatorIcEEE17__assign_no_aliasILb1EEERS5_PKcm(%"class.std::__1::basic_string"* nonnull %80, i8* %265, i64 %267) #17
  br label %269

269:                                              ; preds = %207, %161, %164, %118, %263, %261, %248, %108, %246, %245, %210
  %270 = bitcast %"class.std::__1::basic_string"* %81 to %"struct.std::__1::basic_string<char, std::__1::char_traits<char>, std::__1::allocator<char> >::__short"*
  %271 = getelementptr inbounds %"struct.std::__1::basic_string<char, std::__1::char_traits<char>, std::__1::allocator<char> >::__short", %"struct.std::__1::basic_string<char, std::__1::char_traits<char>, std::__1::allocator<char> >::__short"* %270, i64 0, i32 1, i32 0
  %272 = load i8, i8* %271, align 1
  %273 = icmp slt i8 %272, 0
  %274 = load i64, i64* %117, align 8
  %275 = zext i8 %272 to i64
  %276 = select i1 %273, i64 %274, i64 %275
  %277 = icmp eq i64 %276, 0
  br i1 %277, label %278, label %286

278:                                              ; preds = %269
  br i1 %273, label %279, label %281

279:                                              ; preds = %278
  store i64 2, i64* %117, align 8
  %280 = load i8*, i8** %116, align 8
  br label %282

281:                                              ; preds = %278
  store i8 2, i8* %271, align 1
  br label %282

282:                                              ; preds = %279, %281
  %283 = phi i8* [ %280, %279 ], [ %115, %281 ]
  %284 = bitcast i8* %283 to i16*
  store i16 12320, i16* %284, align 1
  %285 = getelementptr inbounds i8, i8* %283, i64 2
  store i8 0, i8* %285, align 1
  br label %286

286:                                              ; preds = %282, %269
  %287 = bitcast %"class.std::__1::basic_string"* %85 to i8*
  call void @llvm.lifetime.start.p0i8(i64 24, i8* nonnull %287) #17
  %288 = getelementptr inbounds %"class.std::__1::basic_string", %"class.std::__1::basic_string"* %85, i64 0, i32 0, i32 0, i32 0, i32 0, i32 0, i32 0
  %289 = getelementptr inbounds %"class.std::__1::basic_string", %"class.std::__1::basic_string"* %85, i64 0, i32 0, i32 0, i32 0, i32 0, i32 0, i32 1
  %290 = bitcast %"class.std::__1::basic_string"* %85 to %"struct.std::__1::basic_string<char, std::__1::char_traits<char>, std::__1::allocator<char> >::__short"*
  %291 = getelementptr inbounds %"struct.std::__1::basic_string<char, std::__1::char_traits<char>, std::__1::allocator<char> >::__short", %"struct.std::__1::basic_string<char, std::__1::char_traits<char>, std::__1::allocator<char> >::__short"* %290, i64 0, i32 1, i32 0
  %292 = bitcast %"class.std::__1::basic_string"* %85 to i8*
  call void @llvm.memset.p0i8.i64(i8* nonnull align 8 %292, i8 -86, i64 24, i1 false)
  store i8 1, i8* %291, align 1
  store i8 57, i8* %287, align 8
  %293 = getelementptr inbounds i8, i8* %287, i64 1
  store i8 0, i8* %293, align 1
  %294 = getelementptr inbounds %"class.cricket::ContentInfo", %"class.cricket::ContentInfo"* %0, i64 0, i32 2
  %295 = load i8, i8* %294, align 4, !range !3
  %296 = icmp eq i8 %295, 0
  br i1 %296, label %297, label %301

297:                                              ; preds = %286
  %298 = getelementptr inbounds %"class.cricket::ContentInfo", %"class.cricket::ContentInfo"* %0, i64 0, i32 3
  %299 = load i8, i8* %298, align 1, !range !3
  %300 = icmp eq i8 %299, 0
  br i1 %300, label %302, label %301

301:                                              ; preds = %286, %297
  store i8 1, i8* %291, align 1
  store i8 48, i8* %287, align 8
  store i8 0, i8* %293, align 1
  br label %321

302:                                              ; preds = %297
  %303 = bitcast %"class.cricket::MediaContentDescription"* %112 to %"class.rtc::SocketAddress"* (%"class.cricket::MediaContentDescription"*)***
  %304 = load %"class.rtc::SocketAddress"* (%"class.cricket::MediaContentDescription"*)**, %"class.rtc::SocketAddress"* (%"class.cricket::MediaContentDescription"*)*** %303, align 8
  %305 = getelementptr inbounds %"class.rtc::SocketAddress"* (%"class.cricket::MediaContentDescription"*)*, %"class.rtc::SocketAddress"* (%"class.cricket::MediaContentDescription"*)** %304, i64 43
  %306 = load %"class.rtc::SocketAddress"* (%"class.cricket::MediaContentDescription"*)*, %"class.rtc::SocketAddress"* (%"class.cricket::MediaContentDescription"*)** %305, align 8
  %307 = call dereferenceable(72) %"class.rtc::SocketAddress"* %306(%"class.cricket::MediaContentDescription"* %112) #17
  %308 = call zeroext i1 @_ZNK3rtc13SocketAddress5IsNilEv(%"class.rtc::SocketAddress"* %307) #17
  br i1 %308, label %321, label %309

309:                                              ; preds = %302
  %310 = bitcast %"class.std::__1::basic_string"* %86 to i8*
  call void @llvm.lifetime.start.p0i8(i64 24, i8* nonnull %310) #17
  %311 = load %"class.rtc::SocketAddress"* (%"class.cricket::MediaContentDescription"*)**, %"class.rtc::SocketAddress"* (%"class.cricket::MediaContentDescription"*)*** %303, align 8
  %312 = getelementptr inbounds %"class.rtc::SocketAddress"* (%"class.cricket::MediaContentDescription"*)*, %"class.rtc::SocketAddress"* (%"class.cricket::MediaContentDescription"*)** %311, i64 43
  %313 = load %"class.rtc::SocketAddress"* (%"class.cricket::MediaContentDescription"*)*, %"class.rtc::SocketAddress"* (%"class.cricket::MediaContentDescription"*)** %312, align 8
  %314 = call dereferenceable(72) %"class.rtc::SocketAddress"* %313(%"class.cricket::MediaContentDescription"* %112) #17
  %315 = call zeroext i16 @_ZNK3rtc13SocketAddress4portEv(%"class.rtc::SocketAddress"* %314) #17
  call void @_ZN3rtc8ToStringEt(%"class.std::__1::basic_string"* nonnull sret %86, i16 zeroext %315) #17
  %316 = load i8, i8* %291, align 1
  %317 = icmp slt i8 %316, 0
  br i1 %317, label %318, label %320

318:                                              ; preds = %309
  %319 = load i8*, i8** %288, align 8
  call void @_ZdlPv(i8* %319) #18
  br label %320

320:                                              ; preds = %318, %309
  call void @llvm.memcpy.p0i8.p0i8.i64(i8* nonnull align 8 %287, i8* nonnull align 8 %310, i64 24, i1 false) #17
  call void @llvm.lifetime.end.p0i8(i64 24, i8* nonnull %310) #17
  br label %321

321:                                              ; preds = %301, %302, %320
  %322 = icmp ne %"struct.cricket::TransportInfo"* %1, null
  br i1 %322, label %323, label %327

323:                                              ; preds = %321
  %324 = getelementptr inbounds %"struct.cricket::TransportInfo", %"struct.cricket::TransportInfo"* %1, i64 0, i32 1, i32 5, i32 0, i32 0, i32 0
  %325 = load %"struct.rtc::SSLFingerprint"*, %"struct.rtc::SSLFingerprint"** %324, align 8
  %326 = bitcast %"struct.rtc::SSLFingerprint"* %325 to %"struct.std::__1::basic_string<char, std::__1::char_traits<char>, std::__1::allocator<char> >::__short"*
  br label %327

327:                                              ; preds = %321, %323
  %328 = phi %"struct.std::__1::basic_string<char, std::__1::char_traits<char>, std::__1::allocator<char> >::__short"* [ %326, %323 ], [ null, %321 ]
  %329 = phi %"struct.rtc::SSLFingerprint"* [ %325, %323 ], [ null, %321 ]
  call fastcc void @_ZN6webrtcL8InitLineEcRKNSt3__112basic_stringIcNS0_11char_traitsIcEENS0_9allocatorIcEEEEPN3rtc13StringBuilderE(i8 signext 109, %"class.std::__1::basic_string"* nonnull dereferenceable(24) %80, %"class.rtc::StringBuilder"* nonnull %79)
  %330 = getelementptr inbounds %"class.rtc::StringBuilder", %"class.rtc::StringBuilder"* %79, i64 0, i32 0
  %331 = call dereferenceable(24) %"class.std::__1::basic_string"* @_ZNSt3__112basic_stringIcNS_11char_traitsIcEENS_9allocatorIcEEE6appendEPKcm(%"class.std::__1::basic_string"* nonnull %330, i8* getelementptr inbounds ([2 x i8], [2 x i8]* @.str.4, i64 0, i64 0), i64 1) #17
  %332 = load i8, i8* %291, align 1
  %333 = icmp slt i8 %332, 0
  br i1 %333, label %337, label %334

334:                                              ; preds = %327
  %335 = zext i8 %332 to i64
  %336 = ptrtoint %"class.std::__1::basic_string"* %85 to i64
  br label %343

337:                                              ; preds = %327
  %338 = bitcast %"class.std::__1::basic_string"* %85 to i64*
  %339 = load i64, i64* %338, align 8
  %340 = load i64, i64* %289, align 8
  %341 = icmp sgt i64 %340, -1
  br i1 %341, label %343, label %342, !prof !2

342:                                              ; preds = %337
  call void @llvm.trap() #17
  unreachable

343:                                              ; preds = %334, %337
  %344 = phi i64 [ %339, %337 ], [ %336, %334 ]
  %345 = phi i64 [ %340, %337 ], [ %335, %334 ]
  %346 = inttoptr i64 %344 to i8*
  %347 = call dereferenceable(24) %"class.std::__1::basic_string"* @_ZNSt3__112basic_stringIcNS_11char_traitsIcEENS_9allocatorIcEEE6appendEPKcm(%"class.std::__1::basic_string"* nonnull %330, i8* %346, i64 %345) #17
  %348 = call dereferenceable(24) %"class.std::__1::basic_string"* @_ZNSt3__112basic_stringIcNS_11char_traitsIcEENS_9allocatorIcEEE6appendEPKcm(%"class.std::__1::basic_string"* nonnull %330, i8* getelementptr inbounds ([2 x i8], [2 x i8]* @.str.4, i64 0, i64 0), i64 1) #17
  %349 = bitcast %"class.std::__1::basic_string"* %87 to i8*
  call void @llvm.lifetime.start.p0i8(i64 24, i8* nonnull %349) #17
  %350 = bitcast %"class.cricket::MediaContentDescription"* %112 to void (%"class.std::__1::basic_string"*, %"class.cricket::MediaContentDescription"*)***
  %351 = load void (%"class.std::__1::basic_string"*, %"class.cricket::MediaContentDescription"*)**, void (%"class.std::__1::basic_string"*, %"class.cricket::MediaContentDescription"*)*** %350, align 8
  %352 = getelementptr inbounds void (%"class.std::__1::basic_string"*, %"class.cricket::MediaContentDescription"*)*, void (%"class.std::__1::basic_string"*, %"class.cricket::MediaContentDescription"*)** %351, i64 12
  %353 = load void (%"class.std::__1::basic_string"*, %"class.cricket::MediaContentDescription"*)*, void (%"class.std::__1::basic_string"*, %"class.cricket::MediaContentDescription"*)** %352, align 8
  call void %353(%"class.std::__1::basic_string"* nonnull sret %87, %"class.cricket::MediaContentDescription"* %112) #17
  %354 = bitcast %"class.std::__1::basic_string"* %87 to %"struct.std::__1::basic_string<char, std::__1::char_traits<char>, std::__1::allocator<char> >::__short"*
  %355 = getelementptr inbounds %"struct.std::__1::basic_string<char, std::__1::char_traits<char>, std::__1::allocator<char> >::__short", %"struct.std::__1::basic_string<char, std::__1::char_traits<char>, std::__1::allocator<char> >::__short"* %354, i64 0, i32 1, i32 0
  %356 = load i8, i8* %355, align 1
  %357 = icmp slt i8 %356, 0
  br i1 %357, label %361, label %358

358:                                              ; preds = %343
  %359 = zext i8 %356 to i64
  %360 = ptrtoint %"class.std::__1::basic_string"* %87 to i64
  br label %368

361:                                              ; preds = %343
  %362 = bitcast %"class.std::__1::basic_string"* %87 to i64*
  %363 = load i64, i64* %362, align 8
  %364 = getelementptr inbounds %"class.std::__1::basic_string", %"class.std::__1::basic_string"* %87, i64 0, i32 0, i32 0, i32 0, i32 0, i32 0, i32 1
  %365 = load i64, i64* %364, align 8
  %366 = icmp sgt i64 %365, -1
  br i1 %366, label %368, label %367, !prof !2

367:                                              ; preds = %361
  call void @llvm.trap() #17
  unreachable

368:                                              ; preds = %358, %361
  %369 = phi i64 [ %363, %361 ], [ %360, %358 ]
  %370 = phi i64 [ %365, %361 ], [ %359, %358 ]
  %371 = inttoptr i64 %369 to i8*
  %372 = call dereferenceable(24) %"class.std::__1::basic_string"* @_ZNSt3__112basic_stringIcNS_11char_traitsIcEENS_9allocatorIcEEE6appendEPKcm(%"class.std::__1::basic_string"* nonnull %330, i8* %371, i64 %370) #17
  %373 = load i8, i8* %271, align 1
  %374 = icmp slt i8 %373, 0
  br i1 %374, label %378, label %375

375:                                              ; preds = %368
  %376 = zext i8 %373 to i64
  %377 = ptrtoint %"class.std::__1::basic_string"* %81 to i64
  br label %384

378:                                              ; preds = %368
  %379 = bitcast %"class.std::__1::basic_string"* %81 to i64*
  %380 = load i64, i64* %379, align 8
  %381 = load i64, i64* %117, align 8
  %382 = icmp sgt i64 %381, -1
  br i1 %382, label %384, label %383, !prof !2

383:                                              ; preds = %378
  call void @llvm.trap() #17
  unreachable

384:                                              ; preds = %375, %378
  %385 = phi i64 [ %380, %378 ], [ %377, %375 ]
  %386 = phi i64 [ %381, %378 ], [ %376, %375 ]
  %387 = inttoptr i64 %385 to i8*
  %388 = call dereferenceable(24) %"class.std::__1::basic_string"* @_ZNSt3__112basic_stringIcNS_11char_traitsIcEENS_9allocatorIcEEE6appendEPKcm(%"class.std::__1::basic_string"* nonnull %330, i8* %387, i64 %386) #17
  %389 = load i8, i8* %355, align 1
  %390 = icmp slt i8 %389, 0
  br i1 %390, label %391, label %394

391:                                              ; preds = %384
  %392 = getelementptr inbounds %"class.std::__1::basic_string", %"class.std::__1::basic_string"* %87, i64 0, i32 0, i32 0, i32 0, i32 0, i32 0, i32 0
  %393 = load i8*, i8** %392, align 8
  call void @_ZdlPv(i8* %393) #18
  br label %394

394:                                              ; preds = %384, %391
  call void @llvm.lifetime.end.p0i8(i64 24, i8* nonnull %349) #17
  %395 = bitcast %"class.rtc::StringBuilder"* %79 to %"struct.std::__1::basic_string<char, std::__1::char_traits<char>, std::__1::allocator<char> >::__short"*
  %396 = getelementptr inbounds %"struct.std::__1::basic_string<char, std::__1::char_traits<char>, std::__1::allocator<char> >::__short", %"struct.std::__1::basic_string<char, std::__1::char_traits<char>, std::__1::allocator<char> >::__short"* %395, i64 0, i32 1, i32 0
  %397 = load i8, i8* %396, align 1
  %398 = icmp slt i8 %397, 0
  %399 = load i8*, i8** %110, align 8
  %400 = load i64, i64* %111, align 8
  %401 = zext i8 %397 to i64
  %402 = select i1 %398, i8* %399, i8* %109
  %403 = select i1 %398, i64 %400, i64 %401
  %404 = call dereferenceable(24) %"class.std::__1::basic_string"* @_ZNSt3__112basic_stringIcNS_11char_traitsIcEENS_9allocatorIcEEE6appendEPKcm(%"class.std::__1::basic_string"* nonnull %5, i8* %402, i64 %403) #17
  %405 = call dereferenceable(24) %"class.std::__1::basic_string"* @_ZNSt3__112basic_stringIcNS_11char_traitsIcEENS_9allocatorIcEEE6appendEPKc(%"class.std::__1::basic_string"* nonnull %5, i8* getelementptr inbounds ([3 x i8], [3 x i8]* @_ZN6webrtcL10kLineBreakE, i64 0, i64 0)) #17
  %406 = bitcast %"class.std::__1::basic_string"* %88 to i8*
  call void @llvm.lifetime.start.p0i8(i64 24, i8* nonnull %406) #17
  %407 = bitcast %"class.std::__1::basic_string"* %88 to %"struct.std::__1::basic_string<char, std::__1::char_traits<char>, std::__1::allocator<char> >::__short"*
  %408 = getelementptr inbounds %"struct.std::__1::basic_string<char, std::__1::char_traits<char>, std::__1::allocator<char> >::__short", %"struct.std::__1::basic_string<char, std::__1::char_traits<char>, std::__1::allocator<char> >::__short"* %407, i64 0, i32 1, i32 0
  store i8 2, i8* %408, align 1
  %409 = bitcast %"class.std::__1::basic_string"* %88 to i16*
  store i16 20041, i16* %409, align 8
  %410 = getelementptr inbounds i8, i8* %406, i64 2
  store i8 0, i8* %410, align 2
  call fastcc void @_ZN6webrtcL8InitLineEcRKNSt3__112basic_stringIcNS0_11char_traitsIcEENS0_9allocatorIcEEEEPN3rtc13StringBuilderE(i8 signext 99, %"class.std::__1::basic_string"* nonnull dereferenceable(24) %88, %"class.rtc::StringBuilder"* nonnull %79)
  %411 = load i8, i8* %408, align 1
  %412 = icmp slt i8 %411, 0
  br i1 %412, label %413, label %416

413:                                              ; preds = %394
  %414 = getelementptr inbounds %"class.std::__1::basic_string", %"class.std::__1::basic_string"* %88, i64 0, i32 0, i32 0, i32 0, i32 0, i32 0, i32 0
  %415 = load i8*, i8** %414, align 8
  call void @_ZdlPv(i8* %415) #18
  br label %416

416:                                              ; preds = %394, %413
  call void @llvm.lifetime.end.p0i8(i64 24, i8* nonnull %406) #17
  %417 = bitcast %"class.cricket::MediaContentDescription"* %112 to %"class.rtc::SocketAddress"* (%"class.cricket::MediaContentDescription"*)***
  %418 = load %"class.rtc::SocketAddress"* (%"class.cricket::MediaContentDescription"*)**, %"class.rtc::SocketAddress"* (%"class.cricket::MediaContentDescription"*)*** %417, align 8
  %419 = getelementptr inbounds %"class.rtc::SocketAddress"* (%"class.cricket::MediaContentDescription"*)*, %"class.rtc::SocketAddress"* (%"class.cricket::MediaContentDescription"*)** %418, i64 43
  %420 = load %"class.rtc::SocketAddress"* (%"class.cricket::MediaContentDescription"*)*, %"class.rtc::SocketAddress"* (%"class.cricket::MediaContentDescription"*)** %419, align 8
  %421 = call dereferenceable(72) %"class.rtc::SocketAddress"* %420(%"class.cricket::MediaContentDescription"* %112) #17
  %422 = call zeroext i1 @_ZNK3rtc13SocketAddress5IsNilEv(%"class.rtc::SocketAddress"* %421) #17
  br i1 %422, label %423, label %428

423:                                              ; preds = %416
  %424 = call dereferenceable(24) %"class.std::__1::basic_string"* @_ZNSt3__112basic_stringIcNS_11char_traitsIcEENS_9allocatorIcEEE6appendEPKcm(%"class.std::__1::basic_string"* nonnull %330, i8* getelementptr inbounds ([2 x i8], [2 x i8]* @.str.4, i64 0, i64 0), i64 1) #17
  %425 = call dereferenceable(24) %"class.std::__1::basic_string"* @_ZNSt3__112basic_stringIcNS_11char_traitsIcEENS_9allocatorIcEEE6appendEPKcm(%"class.std::__1::basic_string"* nonnull %330, i8* getelementptr inbounds ([4 x i8], [4 x i8]* @_ZN6webrtcL23kConnectionIpv4AddrtypeE, i64 0, i64 0), i64 3) #17
  %426 = call dereferenceable(24) %"class.std::__1::basic_string"* @_ZNSt3__112basic_stringIcNS_11char_traitsIcEENS_9allocatorIcEEE6appendEPKcm(%"class.std::__1::basic_string"* nonnull %330, i8* getelementptr inbounds ([2 x i8], [2 x i8]* @.str.4, i64 0, i64 0), i64 1) #17
  %427 = call dereferenceable(24) %"class.std::__1::basic_string"* @_ZNSt3__112basic_stringIcNS_11char_traitsIcEENS_9allocatorIcEEE6appendEPKcm(%"class.std::__1::basic_string"* nonnull %330, i8* getelementptr inbounds ([8 x i8], [8 x i8]* @_ZN6webrtcL13kDummyAddressE, i64 0, i64 0), i64 7) #17
  br label %518

428:                                              ; preds = %416
  %429 = load %"class.rtc::SocketAddress"* (%"class.cricket::MediaContentDescription"*)**, %"class.rtc::SocketAddress"* (%"class.cricket::MediaContentDescription"*)*** %417, align 8
  %430 = getelementptr inbounds %"class.rtc::SocketAddress"* (%"class.cricket::MediaContentDescription"*)*, %"class.rtc::SocketAddress"* (%"class.cricket::MediaContentDescription"*)** %429, i64 43
  %431 = load %"class.rtc::SocketAddress"* (%"class.cricket::MediaContentDescription"*)*, %"class.rtc::SocketAddress"* (%"class.cricket::MediaContentDescription"*)** %430, align 8
  %432 = call dereferenceable(72) %"class.rtc::SocketAddress"* %431(%"class.cricket::MediaContentDescription"* %112) #17
  %433 = getelementptr inbounds %"class.rtc::SocketAddress", %"class.rtc::SocketAddress"* %432, i64 0, i32 1, i32 1
  %434 = load i32, i32* %433, align 8
  %435 = icmp eq i32 %434, 2
  br i1 %435, label %436, label %471

436:                                              ; preds = %428
  %437 = call dereferenceable(24) %"class.std::__1::basic_string"* @_ZNSt3__112basic_stringIcNS_11char_traitsIcEENS_9allocatorIcEEE6appendEPKcm(%"class.std::__1::basic_string"* nonnull %330, i8* getelementptr inbounds ([2 x i8], [2 x i8]* @.str.4, i64 0, i64 0), i64 1) #17
  %438 = call dereferenceable(24) %"class.std::__1::basic_string"* @_ZNSt3__112basic_stringIcNS_11char_traitsIcEENS_9allocatorIcEEE6appendEPKcm(%"class.std::__1::basic_string"* nonnull %330, i8* getelementptr inbounds ([4 x i8], [4 x i8]* @_ZN6webrtcL23kConnectionIpv4AddrtypeE, i64 0, i64 0), i64 3) #17
  %439 = call dereferenceable(24) %"class.std::__1::basic_string"* @_ZNSt3__112basic_stringIcNS_11char_traitsIcEENS_9allocatorIcEEE6appendEPKcm(%"class.std::__1::basic_string"* nonnull %330, i8* getelementptr inbounds ([2 x i8], [2 x i8]* @.str.4, i64 0, i64 0), i64 1) #17
  %440 = bitcast %"class.std::__1::basic_string"* %89 to i8*
  call void @llvm.lifetime.start.p0i8(i64 24, i8* nonnull %440) #17
  %441 = load %"class.rtc::SocketAddress"* (%"class.cricket::MediaContentDescription"*)**, %"class.rtc::SocketAddress"* (%"class.cricket::MediaContentDescription"*)*** %417, align 8
  %442 = getelementptr inbounds %"class.rtc::SocketAddress"* (%"class.cricket::MediaContentDescription"*)*, %"class.rtc::SocketAddress"* (%"class.cricket::MediaContentDescription"*)** %441, i64 43
  %443 = load %"class.rtc::SocketAddress"* (%"class.cricket::MediaContentDescription"*)*, %"class.rtc::SocketAddress"* (%"class.cricket::MediaContentDescription"*)** %442, align 8
  %444 = call dereferenceable(72) %"class.rtc::SocketAddress"* %443(%"class.cricket::MediaContentDescription"* %112) #17
  %445 = call dereferenceable(32) %"class.rtc::IPAddress"* @_ZNK3rtc13SocketAddress6ipaddrEv(%"class.rtc::SocketAddress"* %444) #17
  call void @_ZNK3rtc9IPAddress8ToStringEv(%"class.std::__1::basic_string"* nonnull sret %89, %"class.rtc::IPAddress"* %445) #17
  %446 = bitcast %"class.std::__1::basic_string"* %89 to %"struct.std::__1::basic_string<char, std::__1::char_traits<char>, std::__1::allocator<char> >::__short"*
  %447 = getelementptr inbounds %"struct.std::__1::basic_string<char, std::__1::char_traits<char>, std::__1::allocator<char> >::__short", %"struct.std::__1::basic_string<char, std::__1::char_traits<char>, std::__1::allocator<char> >::__short"* %446, i64 0, i32 1, i32 0
  %448 = load i8, i8* %447, align 1
  %449 = icmp slt i8 %448, 0
  br i1 %449, label %453, label %450

450:                                              ; preds = %436
  %451 = zext i8 %448 to i64
  %452 = ptrtoint %"class.std::__1::basic_string"* %89 to i64
  br label %460

453:                                              ; preds = %436
  %454 = bitcast %"class.std::__1::basic_string"* %89 to i64*
  %455 = load i64, i64* %454, align 8
  %456 = getelementptr inbounds %"class.std::__1::basic_string", %"class.std::__1::basic_string"* %89, i64 0, i32 0, i32 0, i32 0, i32 0, i32 0, i32 1
  %457 = load i64, i64* %456, align 8
  %458 = icmp sgt i64 %457, -1
  br i1 %458, label %460, label %459, !prof !2

459:                                              ; preds = %453
  call void @llvm.trap() #17
  unreachable

460:                                              ; preds = %450, %453
  %461 = phi i64 [ %455, %453 ], [ %452, %450 ]
  %462 = phi i64 [ %457, %453 ], [ %451, %450 ]
  %463 = inttoptr i64 %461 to i8*
  %464 = call dereferenceable(24) %"class.std::__1::basic_string"* @_ZNSt3__112basic_stringIcNS_11char_traitsIcEENS_9allocatorIcEEE6appendEPKcm(%"class.std::__1::basic_string"* nonnull %330, i8* %463, i64 %462) #17
  %465 = load i8, i8* %447, align 1
  %466 = icmp slt i8 %465, 0
  br i1 %466, label %467, label %470

467:                                              ; preds = %460
  %468 = getelementptr inbounds %"class.std::__1::basic_string", %"class.std::__1::basic_string"* %89, i64 0, i32 0, i32 0, i32 0, i32 0, i32 0, i32 0
  %469 = load i8*, i8** %468, align 8
  call void @_ZdlPv(i8* %469) #18
  br label %470

470:                                              ; preds = %460, %467
  call void @llvm.lifetime.end.p0i8(i64 24, i8* nonnull %440) #17
  br label %518

471:                                              ; preds = %428
  %472 = load %"class.rtc::SocketAddress"* (%"class.cricket::MediaContentDescription"*)**, %"class.rtc::SocketAddress"* (%"class.cricket::MediaContentDescription"*)*** %417, align 8
  %473 = getelementptr inbounds %"class.rtc::SocketAddress"* (%"class.cricket::MediaContentDescription"*)*, %"class.rtc::SocketAddress"* (%"class.cricket::MediaContentDescription"*)** %472, i64 43
  %474 = load %"class.rtc::SocketAddress"* (%"class.cricket::MediaContentDescription"*)*, %"class.rtc::SocketAddress"* (%"class.cricket::MediaContentDescription"*)** %473, align 8
  %475 = call dereferenceable(72) %"class.rtc::SocketAddress"* %474(%"class.cricket::MediaContentDescription"* %112) #17
  %476 = getelementptr inbounds %"class.rtc::SocketAddress", %"class.rtc::SocketAddress"* %475, i64 0, i32 1, i32 1
  %477 = load i32, i32* %476, align 8
  %478 = icmp eq i32 %477, 10
  %479 = call dereferenceable(24) %"class.std::__1::basic_string"* @_ZNSt3__112basic_stringIcNS_11char_traitsIcEENS_9allocatorIcEEE6appendEPKcm(%"class.std::__1::basic_string"* nonnull %330, i8* getelementptr inbounds ([2 x i8], [2 x i8]* @.str.4, i64 0, i64 0), i64 1) #17
  br i1 %478, label %480, label %514

480:                                              ; preds = %471
  %481 = call dereferenceable(24) %"class.std::__1::basic_string"* @_ZNSt3__112basic_stringIcNS_11char_traitsIcEENS_9allocatorIcEEE6appendEPKcm(%"class.std::__1::basic_string"* nonnull %330, i8* getelementptr inbounds ([4 x i8], [4 x i8]* @.str.21, i64 0, i64 0), i64 3) #17
  %482 = call dereferenceable(24) %"class.std::__1::basic_string"* @_ZNSt3__112basic_stringIcNS_11char_traitsIcEENS_9allocatorIcEEE6appendEPKcm(%"class.std::__1::basic_string"* nonnull %330, i8* getelementptr inbounds ([2 x i8], [2 x i8]* @.str.4, i64 0, i64 0), i64 1) #17
  %483 = bitcast %"class.std::__1::basic_string"* %90 to i8*
  call void @llvm.lifetime.start.p0i8(i64 24, i8* nonnull %483) #17
  %484 = load %"class.rtc::SocketAddress"* (%"class.cricket::MediaContentDescription"*)**, %"class.rtc::SocketAddress"* (%"class.cricket::MediaContentDescription"*)*** %417, align 8
  %485 = getelementptr inbounds %"class.rtc::SocketAddress"* (%"class.cricket::MediaContentDescription"*)*, %"class.rtc::SocketAddress"* (%"class.cricket::MediaContentDescription"*)** %484, i64 43
  %486 = load %"class.rtc::SocketAddress"* (%"class.cricket::MediaContentDescription"*)*, %"class.rtc::SocketAddress"* (%"class.cricket::MediaContentDescription"*)** %485, align 8
  %487 = call dereferenceable(72) %"class.rtc::SocketAddress"* %486(%"class.cricket::MediaContentDescription"* %112) #17
  %488 = call dereferenceable(32) %"class.rtc::IPAddress"* @_ZNK3rtc13SocketAddress6ipaddrEv(%"class.rtc::SocketAddress"* %487) #17
  call void @_ZNK3rtc9IPAddress8ToStringEv(%"class.std::__1::basic_string"* nonnull sret %90, %"class.rtc::IPAddress"* %488) #17
  %489 = bitcast %"class.std::__1::basic_string"* %90 to %"struct.std::__1::basic_string<char, std::__1::char_traits<char>, std::__1::allocator<char> >::__short"*
  %490 = getelementptr inbounds %"struct.std::__1::basic_string<char, std::__1::char_traits<char>, std::__1::allocator<char> >::__short", %"struct.std::__1::basic_string<char, std::__1::char_traits<char>, std::__1::allocator<char> >::__short"* %489, i64 0, i32 1, i32 0
  %491 = load i8, i8* %490, align 1
  %492 = icmp slt i8 %491, 0
  br i1 %492, label %496, label %493

493:                                              ; preds = %480
  %494 = zext i8 %491 to i64
  %495 = ptrtoint %"class.std::__1::basic_string"* %90 to i64
  br label %503

496:                                              ; preds = %480
  %497 = bitcast %"class.std::__1::basic_string"* %90 to i64*
  %498 = load i64, i64* %497, align 8
  %499 = getelementptr inbounds %"class.std::__1::basic_string", %"class.std::__1::basic_string"* %90, i64 0, i32 0, i32 0, i32 0, i32 0, i32 0, i32 1
  %500 = load i64, i64* %499, align 8
  %501 = icmp sgt i64 %500, -1
  br i1 %501, label %503, label %502, !prof !2

502:                                              ; preds = %496
  call void @llvm.trap() #17
  unreachable

503:                                              ; preds = %493, %496
  %504 = phi i64 [ %498, %496 ], [ %495, %493 ]
  %505 = phi i64 [ %500, %496 ], [ %494, %493 ]
  %506 = inttoptr i64 %504 to i8*
  %507 = call dereferenceable(24) %"class.std::__1::basic_string"* @_ZNSt3__112basic_stringIcNS_11char_traitsIcEENS_9allocatorIcEEE6appendEPKcm(%"class.std::__1::basic_string"* nonnull %330, i8* %506, i64 %505) #17
  %508 = load i8, i8* %490, align 1
  %509 = icmp slt i8 %508, 0
  br i1 %509, label %510, label %513

510:                                              ; preds = %503
  %511 = getelementptr inbounds %"class.std::__1::basic_string", %"class.std::__1::basic_string"* %90, i64 0, i32 0, i32 0, i32 0, i32 0, i32 0, i32 0
  %512 = load i8*, i8** %511, align 8
  call void @_ZdlPv(i8* %512) #18
  br label %513

513:                                              ; preds = %503, %510
  call void @llvm.lifetime.end.p0i8(i64 24, i8* nonnull %483) #17
  br label %518

514:                                              ; preds = %471
  %515 = call dereferenceable(24) %"class.std::__1::basic_string"* @_ZNSt3__112basic_stringIcNS_11char_traitsIcEENS_9allocatorIcEEE6appendEPKcm(%"class.std::__1::basic_string"* nonnull %330, i8* getelementptr inbounds ([4 x i8], [4 x i8]* @_ZN6webrtcL23kConnectionIpv4AddrtypeE, i64 0, i64 0), i64 3) #17
  %516 = call dereferenceable(24) %"class.std::__1::basic_string"* @_ZNSt3__112basic_stringIcNS_11char_traitsIcEENS_9allocatorIcEEE6appendEPKcm(%"class.std::__1::basic_string"* nonnull %330, i8* getelementptr inbounds ([2 x i8], [2 x i8]* @.str.4, i64 0, i64 0), i64 1) #17
  %517 = call dereferenceable(24) %"class.std::__1::basic_string"* @_ZNSt3__112basic_stringIcNS_11char_traitsIcEENS_9allocatorIcEEE6appendEPKcm(%"class.std::__1::basic_string"* nonnull %330, i8* getelementptr inbounds ([8 x i8], [8 x i8]* @_ZN6webrtcL13kDummyAddressE, i64 0, i64 0), i64 7) #17
  br label %518

518:                                              ; preds = %470, %514, %513, %423
  %519 = load i8, i8* %396, align 1
  %520 = icmp slt i8 %519, 0
  %521 = load i8*, i8** %110, align 8
  %522 = load i64, i64* %111, align 8
  %523 = zext i8 %519 to i64
  %524 = select i1 %520, i8* %521, i8* %109
  %525 = select i1 %520, i64 %522, i64 %523
  %526 = call dereferenceable(24) %"class.std::__1::basic_string"* @_ZNSt3__112basic_stringIcNS_11char_traitsIcEENS_9allocatorIcEEE6appendEPKcm(%"class.std::__1::basic_string"* nonnull %5, i8* %524, i64 %525) #17
  %527 = call dereferenceable(24) %"class.std::__1::basic_string"* @_ZNSt3__112basic_stringIcNS_11char_traitsIcEENS_9allocatorIcEEE6appendEPKc(%"class.std::__1::basic_string"* nonnull %5, i8* getelementptr inbounds ([3 x i8], [3 x i8]* @_ZN6webrtcL10kLineBreakE, i64 0, i64 0)) #17
  %528 = bitcast %"class.cricket::MediaContentDescription"* %112 to i32 (%"class.cricket::MediaContentDescription"*)***
  %529 = load i32 (%"class.cricket::MediaContentDescription"*)**, i32 (%"class.cricket::MediaContentDescription"*)*** %528, align 8
  %530 = getelementptr inbounds i32 (%"class.cricket::MediaContentDescription"*)*, i32 (%"class.cricket::MediaContentDescription"*)** %529, i64 22
  %531 = load i32 (%"class.cricket::MediaContentDescription"*)*, i32 (%"class.cricket::MediaContentDescription"*)** %530, align 8
  %532 = call i32 %531(%"class.cricket::MediaContentDescription"* %112) #17
  %533 = bitcast %"class.std::__1::basic_string"* %91 to i8*
  call void @llvm.lifetime.start.p0i8(i64 24, i8* nonnull %533) #17
  %534 = getelementptr inbounds %"class.std::__1::basic_string", %"class.std::__1::basic_string"* %91, i64 0, i32 0, i32 0, i32 0, i32 0, i32 0, i32 0
  %535 = getelementptr inbounds %"class.std::__1::basic_string", %"class.std::__1::basic_string"* %91, i64 0, i32 0, i32 0, i32 0, i32 0, i32 0, i32 1
  %536 = bitcast %"class.std::__1::basic_string"* %91 to i8*
  call void @llvm.memset.p0i8.i64(i8* nonnull align 8 %536, i8 -86, i64 24, i1 false)
  %537 = load void (%"class.std::__1::basic_string"*, %"class.cricket::MediaContentDescription"*)**, void (%"class.std::__1::basic_string"*, %"class.cricket::MediaContentDescription"*)*** %350, align 8
  %538 = getelementptr inbounds void (%"class.std::__1::basic_string"*, %"class.cricket::MediaContentDescription"*)*, void (%"class.std::__1::basic_string"*, %"class.cricket::MediaContentDescription"*)** %537, i64 24
  %539 = load void (%"class.std::__1::basic_string"*, %"class.cricket::MediaContentDescription"*)*, void (%"class.std::__1::basic_string"*, %"class.cricket::MediaContentDescription"*)** %538, align 8
  call void %539(%"class.std::__1::basic_string"* nonnull sret %91, %"class.cricket::MediaContentDescription"* %112) #17
  %540 = call i64 @strlen(i8* getelementptr inbounds ([0 x i8], [0 x i8]* @_ZN7cricket29kApplicationSpecificBandwidthE, i64 0, i64 0)) #17
  %541 = bitcast %"class.std::__1::basic_string"* %91 to %"struct.std::__1::basic_string<char, std::__1::char_traits<char>, std::__1::allocator<char> >::__short"*
  %542 = getelementptr inbounds %"struct.std::__1::basic_string<char, std::__1::char_traits<char>, std::__1::allocator<char> >::__short", %"struct.std::__1::basic_string<char, std::__1::char_traits<char>, std::__1::allocator<char> >::__short"* %541, i64 0, i32 1, i32 0
  %543 = load i8, i8* %542, align 1
  %544 = icmp slt i8 %543, 0
  %545 = load i64, i64* %535, align 8
  %546 = zext i8 %543 to i64
  %547 = select i1 %544, i64 %545, i64 %546
  %548 = icmp eq i64 %540, %547
  br i1 %548, label %549, label %588

549:                                              ; preds = %518
  %550 = call i32 @_ZNKSt3__112basic_stringIcNS_11char_traitsIcEENS_9allocatorIcEEE7compareEmmPKcm(%"class.std::__1::basic_string"* nonnull %91, i64 0, i64 -1, i8* getelementptr inbounds ([0 x i8], [0 x i8]* @_ZN7cricket29kApplicationSpecificBandwidthE, i64 0, i64 0), i64 %540) #17
  %551 = icmp eq i32 %550, 0
  %552 = icmp sgt i32 %532, 999
  %553 = and i1 %552, %551
  br i1 %553, label %558, label %554

554:                                              ; preds = %549
  %555 = load i8, i8* %542, align 1
  %556 = load i64, i64* %535, align 8
  %557 = zext i8 %555 to i64
  br label %588

558:                                              ; preds = %549
  call fastcc void @_ZN6webrtcL8InitLineEcRKNSt3__112basic_stringIcNS0_11char_traitsIcEENS0_9allocatorIcEEEEPN3rtc13StringBuilderE(i8 signext 98, %"class.std::__1::basic_string"* nonnull dereferenceable(24) %91, %"class.rtc::StringBuilder"* nonnull %79)
  %559 = udiv i32 %532, 1000
  %560 = call dereferenceable(24) %"class.std::__1::basic_string"* @_ZNSt3__112basic_stringIcNS_11char_traitsIcEENS_9allocatorIcEEE6appendEPKcm(%"class.std::__1::basic_string"* nonnull %330, i8* getelementptr inbounds ([2 x i8], [2 x i8]* @_ZN6webrtcL18kSdpDelimiterColonE, i64 0, i64 0), i64 1) #17
  %561 = bitcast %"class.std::__1::basic_string"* %26 to i8*
  call void @llvm.lifetime.start.p0i8(i64 24, i8* nonnull %561) #17
  call void @_ZN3rtc8ToStringEi(%"class.std::__1::basic_string"* nonnull sret %26, i32 %559) #17
  %562 = bitcast %"class.std::__1::basic_string"* %26 to %"struct.std::__1::basic_string<char, std::__1::char_traits<char>, std::__1::allocator<char> >::__short"*
  %563 = getelementptr inbounds %"struct.std::__1::basic_string<char, std::__1::char_traits<char>, std::__1::allocator<char> >::__short", %"struct.std::__1::basic_string<char, std::__1::char_traits<char>, std::__1::allocator<char> >::__short"* %562, i64 0, i32 1, i32 0
  %564 = load i8, i8* %563, align 1
  %565 = icmp slt i8 %564, 0
  %566 = getelementptr inbounds %"class.std::__1::basic_string", %"class.std::__1::basic_string"* %26, i64 0, i32 0, i32 0, i32 0, i32 0, i32 0, i32 0
  %567 = load i8*, i8** %566, align 8
  %568 = getelementptr inbounds %"class.std::__1::basic_string", %"class.std::__1::basic_string"* %26, i64 0, i32 0, i32 0, i32 0, i32 0, i32 0, i32 1
  %569 = load i64, i64* %568, align 8
  %570 = zext i8 %564 to i64
  %571 = select i1 %565, i8* %567, i8* %561
  %572 = select i1 %565, i64 %569, i64 %570
  %573 = call dereferenceable(24) %"class.std::__1::basic_string"* @_ZNSt3__112basic_stringIcNS_11char_traitsIcEENS_9allocatorIcEEE6appendEPKcm(%"class.std::__1::basic_string"* nonnull %330, i8* %571, i64 %572) #17
  %574 = load i8, i8* %563, align 1
  %575 = icmp slt i8 %574, 0
  br i1 %575, label %576, label %578

576:                                              ; preds = %558
  %577 = load i8*, i8** %566, align 8
  call void @_ZdlPv(i8* %577) #18
  br label %578

578:                                              ; preds = %558, %576
  call void @llvm.lifetime.end.p0i8(i64 24, i8* nonnull %561) #17
  %579 = load i8, i8* %396, align 1
  %580 = icmp slt i8 %579, 0
  %581 = load i8*, i8** %110, align 8
  %582 = load i64, i64* %111, align 8
  %583 = zext i8 %579 to i64
  %584 = select i1 %580, i8* %581, i8* %109
  %585 = select i1 %580, i64 %582, i64 %583
  %586 = call dereferenceable(24) %"class.std::__1::basic_string"* @_ZNSt3__112basic_stringIcNS_11char_traitsIcEENS_9allocatorIcEEE6appendEPKcm(%"class.std::__1::basic_string"* nonnull %5, i8* %584, i64 %585) #17
  %587 = call dereferenceable(24) %"class.std::__1::basic_string"* @_ZNSt3__112basic_stringIcNS_11char_traitsIcEENS_9allocatorIcEEE6appendEPKc(%"class.std::__1::basic_string"* nonnull %5, i8* getelementptr inbounds ([3 x i8], [3 x i8]* @_ZN6webrtcL10kLineBreakE, i64 0, i64 0)) #17
  br label %630

588:                                              ; preds = %554, %518
  %589 = phi i64 [ %557, %554 ], [ %546, %518 ]
  %590 = phi i64 [ %556, %554 ], [ %545, %518 ]
  %591 = phi i8 [ %555, %554 ], [ %543, %518 ]
  %592 = call i64 @strlen(i8* getelementptr inbounds ([0 x i8], [0 x i8]* @_ZN7cricket27kTransportSpecificBandwidthE, i64 0, i64 0)) #17
  %593 = icmp slt i8 %591, 0
  %594 = select i1 %593, i64 %590, i64 %589
  %595 = icmp eq i64 %592, %594
  br i1 %595, label %596, label %630

596:                                              ; preds = %588
  %597 = call i32 @_ZNKSt3__112basic_stringIcNS_11char_traitsIcEENS_9allocatorIcEEE7compareEmmPKcm(%"class.std::__1::basic_string"* nonnull %91, i64 0, i64 -1, i8* getelementptr inbounds ([0 x i8], [0 x i8]* @_ZN7cricket27kTransportSpecificBandwidthE, i64 0, i64 0), i64 %592) #17
  %598 = icmp eq i32 %597, 0
  %599 = icmp sgt i32 %532, 0
  %600 = and i1 %599, %598
  br i1 %600, label %601, label %630

601:                                              ; preds = %596
  call fastcc void @_ZN6webrtcL8InitLineEcRKNSt3__112basic_stringIcNS0_11char_traitsIcEENS0_9allocatorIcEEEEPN3rtc13StringBuilderE(i8 signext 98, %"class.std::__1::basic_string"* nonnull dereferenceable(24) %91, %"class.rtc::StringBuilder"* nonnull %79)
  %602 = call dereferenceable(24) %"class.std::__1::basic_string"* @_ZNSt3__112basic_stringIcNS_11char_traitsIcEENS_9allocatorIcEEE6appendEPKcm(%"class.std::__1::basic_string"* nonnull %330, i8* getelementptr inbounds ([2 x i8], [2 x i8]* @_ZN6webrtcL18kSdpDelimiterColonE, i64 0, i64 0), i64 1) #17
  %603 = bitcast %"class.std::__1::basic_string"* %25 to i8*
  call void @llvm.lifetime.start.p0i8(i64 24, i8* nonnull %603) #17
  call void @_ZN3rtc8ToStringEi(%"class.std::__1::basic_string"* nonnull sret %25, i32 %532) #17
  %604 = bitcast %"class.std::__1::basic_string"* %25 to %"struct.std::__1::basic_string<char, std::__1::char_traits<char>, std::__1::allocator<char> >::__short"*
  %605 = getelementptr inbounds %"struct.std::__1::basic_string<char, std::__1::char_traits<char>, std::__1::allocator<char> >::__short", %"struct.std::__1::basic_string<char, std::__1::char_traits<char>, std::__1::allocator<char> >::__short"* %604, i64 0, i32 1, i32 0
  %606 = load i8, i8* %605, align 1
  %607 = icmp slt i8 %606, 0
  %608 = getelementptr inbounds %"class.std::__1::basic_string", %"class.std::__1::basic_string"* %25, i64 0, i32 0, i32 0, i32 0, i32 0, i32 0, i32 0
  %609 = load i8*, i8** %608, align 8
  %610 = getelementptr inbounds %"class.std::__1::basic_string", %"class.std::__1::basic_string"* %25, i64 0, i32 0, i32 0, i32 0, i32 0, i32 0, i32 1
  %611 = load i64, i64* %610, align 8
  %612 = zext i8 %606 to i64
  %613 = select i1 %607, i8* %609, i8* %603
  %614 = select i1 %607, i64 %611, i64 %612
  %615 = call dereferenceable(24) %"class.std::__1::basic_string"* @_ZNSt3__112basic_stringIcNS_11char_traitsIcEENS_9allocatorIcEEE6appendEPKcm(%"class.std::__1::basic_string"* nonnull %330, i8* %613, i64 %614) #17
  %616 = load i8, i8* %605, align 1
  %617 = icmp slt i8 %616, 0
  br i1 %617, label %618, label %620

618:                                              ; preds = %601
  %619 = load i8*, i8** %608, align 8
  call void @_ZdlPv(i8* %619) #18
  br label %620

620:                                              ; preds = %601, %618
  call void @llvm.lifetime.end.p0i8(i64 24, i8* nonnull %603) #17
  %621 = load i8, i8* %396, align 1
  %622 = icmp slt i8 %621, 0
  %623 = load i8*, i8** %110, align 8
  %624 = load i64, i64* %111, align 8
  %625 = zext i8 %621 to i64
  %626 = select i1 %622, i8* %623, i8* %109
  %627 = select i1 %622, i64 %624, i64 %625
  %628 = call dereferenceable(24) %"class.std::__1::basic_string"* @_ZNSt3__112basic_stringIcNS_11char_traitsIcEENS_9allocatorIcEEE6appendEPKcm(%"class.std::__1::basic_string"* nonnull %5, i8* %626, i64 %627) #17
  %629 = call dereferenceable(24) %"class.std::__1::basic_string"* @_ZNSt3__112basic_stringIcNS_11char_traitsIcEENS_9allocatorIcEEE6appendEPKc(%"class.std::__1::basic_string"* nonnull %5, i8* getelementptr inbounds ([3 x i8], [3 x i8]* @_ZN6webrtcL10kLineBreakE, i64 0, i64 0)) #17
  br label %630

630:                                              ; preds = %588, %596, %620, %578
  %631 = getelementptr inbounds %"class.cricket::ContentInfo", %"class.cricket::ContentInfo"* %0, i64 0, i32 3
  %632 = load i8, i8* %631, align 1, !range !3
  %633 = icmp eq i8 %632, 0
  br i1 %633, label %654, label %634

634:                                              ; preds = %630
  %635 = bitcast %"class.std::__1::basic_string"* %92 to i8*
  call void @llvm.lifetime.start.p0i8(i64 24, i8* nonnull %635) #17
  %636 = bitcast %"class.std::__1::basic_string"* %92 to %"struct.std::__1::basic_string<char, std::__1::char_traits<char>, std::__1::allocator<char> >::__short"*
  %637 = getelementptr inbounds %"struct.std::__1::basic_string<char, std::__1::char_traits<char>, std::__1::allocator<char> >::__short", %"struct.std::__1::basic_string<char, std::__1::char_traits<char>, std::__1::allocator<char> >::__short"* %636, i64 0, i32 1, i32 0
  store i8 11, i8* %637, align 1
  call void @llvm.memcpy.p0i8.p0i8.i64(i8* nonnull align 8 %635, i8* align 1 getelementptr inbounds ([12 x i8], [12 x i8]* @_ZN6webrtcL20kAttributeBundleOnlyE, i64 0, i64 0), i64 11, i1 false) #17
  %638 = getelementptr inbounds i8, i8* %635, i64 11
  store i8 0, i8* %638, align 1
  call fastcc void @_ZN6webrtcL8InitLineEcRKNSt3__112basic_stringIcNS0_11char_traitsIcEENS0_9allocatorIcEEEEPN3rtc13StringBuilderE(i8 signext 97, %"class.std::__1::basic_string"* nonnull dereferenceable(24) %92, %"class.rtc::StringBuilder"* nonnull %79) #17
  %639 = load i8, i8* %637, align 1
  %640 = icmp slt i8 %639, 0
  br i1 %640, label %641, label %644

641:                                              ; preds = %634
  %642 = getelementptr inbounds %"class.std::__1::basic_string", %"class.std::__1::basic_string"* %92, i64 0, i32 0, i32 0, i32 0, i32 0, i32 0, i32 0
  %643 = load i8*, i8** %642, align 8
  call void @_ZdlPv(i8* %643) #18
  br label %644

644:                                              ; preds = %634, %641
  call void @llvm.lifetime.end.p0i8(i64 24, i8* nonnull %635) #17
  %645 = load i8, i8* %396, align 1
  %646 = icmp slt i8 %645, 0
  %647 = load i8*, i8** %110, align 8
  %648 = load i64, i64* %111, align 8
  %649 = zext i8 %645 to i64
  %650 = select i1 %646, i8* %647, i8* %109
  %651 = select i1 %646, i64 %648, i64 %649
  %652 = call dereferenceable(24) %"class.std::__1::basic_string"* @_ZNSt3__112basic_stringIcNS_11char_traitsIcEENS_9allocatorIcEEE6appendEPKcm(%"class.std::__1::basic_string"* nonnull %5, i8* %650, i64 %651) #17
  %653 = call dereferenceable(24) %"class.std::__1::basic_string"* @_ZNSt3__112basic_stringIcNS_11char_traitsIcEENS_9allocatorIcEEE6appendEPKc(%"class.std::__1::basic_string"* nonnull %5, i8* getelementptr inbounds ([3 x i8], [3 x i8]* @_ZN6webrtcL10kLineBreakE, i64 0, i64 0)) #17
  br label %654

654:                                              ; preds = %630, %644
  %655 = bitcast %"class.std::__1::basic_string"* %93 to i8*
  call void @llvm.lifetime.start.p0i8(i64 24, i8* nonnull %655) #17
  %656 = load void (%"class.std::__1::basic_string"*, %"class.cricket::MediaContentDescription"*)**, void (%"class.std::__1::basic_string"*, %"class.cricket::MediaContentDescription"*)*** %350, align 8
  %657 = getelementptr inbounds void (%"class.std::__1::basic_string"*, %"class.cricket::MediaContentDescription"*)*, void (%"class.std::__1::basic_string"*, %"class.cricket::MediaContentDescription"*)** %656, i64 12
  %658 = load void (%"class.std::__1::basic_string"*, %"class.cricket::MediaContentDescription"*)*, void (%"class.std::__1::basic_string"*, %"class.cricket::MediaContentDescription"*)** %657, align 8
  call void %658(%"class.std::__1::basic_string"* nonnull sret %93, %"class.cricket::MediaContentDescription"* %112) #17
  %659 = call zeroext i1 @_ZN7cricket13IsRtpProtocolERKNSt3__112basic_stringIcNS0_11char_traitsIcEENS0_9allocatorIcEEEE(%"class.std::__1::basic_string"* nonnull dereferenceable(24) %93) #17
  %660 = bitcast %"class.std::__1::basic_string"* %93 to %"struct.std::__1::basic_string<char, std::__1::char_traits<char>, std::__1::allocator<char> >::__short"*
  %661 = getelementptr inbounds %"struct.std::__1::basic_string<char, std::__1::char_traits<char>, std::__1::allocator<char> >::__short", %"struct.std::__1::basic_string<char, std::__1::char_traits<char>, std::__1::allocator<char> >::__short"* %660, i64 0, i32 1, i32 0
  %662 = load i8, i8* %661, align 1
  %663 = icmp slt i8 %662, 0
  br i1 %663, label %664, label %667

664:                                              ; preds = %654
  %665 = getelementptr inbounds %"class.std::__1::basic_string", %"class.std::__1::basic_string"* %93, i64 0, i32 0, i32 0, i32 0, i32 0, i32 0, i32 0
  %666 = load i8*, i8** %665, align 8
  call void @_ZdlPv(i8* %666) #18
  br label %667

667:                                              ; preds = %654, %664
  call void @llvm.lifetime.end.p0i8(i64 24, i8* nonnull %655) #17
  br i1 %659, label %668, label %949

668:                                              ; preds = %667
  %669 = bitcast %"class.std::__1::basic_string"* %94 to i8*
  call void @llvm.lifetime.start.p0i8(i64 24, i8* nonnull %669) #17
  %670 = getelementptr inbounds %"class.std::__1::basic_string", %"class.std::__1::basic_string"* %94, i64 0, i32 0, i32 0, i32 0, i32 0, i32 0, i32 0
  %671 = getelementptr inbounds %"class.std::__1::basic_string", %"class.std::__1::basic_string"* %94, i64 0, i32 0, i32 0, i32 0, i32 0, i32 0, i32 1
  call void @llvm.memset.p0i8.i64(i8* nonnull align 8 %669, i8 0, i64 24, i1 false) #17, !alias.scope !4
  %672 = bitcast %"class.std::__1::basic_string"* %20 to i8*
  call void @llvm.lifetime.start.p0i8(i64 24, i8* nonnull %672) #17, !noalias !4
  %673 = getelementptr inbounds %"class.std::__1::basic_string", %"class.std::__1::basic_string"* %20, i64 0, i32 0, i32 0, i32 0, i32 0, i32 0, i32 0
  %674 = getelementptr inbounds %"class.std::__1::basic_string", %"class.std::__1::basic_string"* %20, i64 0, i32 0, i32 0, i32 0, i32 0, i32 0, i32 1
  call void @llvm.memset.p0i8.i64(i8* nonnull align 8 %672, i8 0, i64 24, i1 false) #17, !noalias !4
  %675 = bitcast %"class.std::__1::basic_string"* %21 to i8*
  call void @llvm.lifetime.start.p0i8(i64 24, i8* nonnull %675) #17, !noalias !4
  %676 = getelementptr inbounds %"class.std::__1::basic_string", %"class.std::__1::basic_string"* %21, i64 0, i32 0, i32 0, i32 0, i32 0, i32 0, i32 0
  %677 = getelementptr inbounds %"class.std::__1::basic_string", %"class.std::__1::basic_string"* %21, i64 0, i32 0, i32 0, i32 0, i32 0, i32 0, i32 1
  %678 = bitcast i64* %677 to i8*
  call void @llvm.memset.p0i8.i64(i8* nonnull align 8 %678, i8 0, i64 16, i1 false) #17, !noalias !4
  %679 = bitcast %"class.std::__1::basic_string"* %22 to i8*
  call void @llvm.lifetime.start.p0i8(i64 24, i8* nonnull %679) #17, !noalias !4
  %680 = getelementptr inbounds %"class.std::__1::basic_string", %"class.std::__1::basic_string"* %22, i64 0, i32 0, i32 0, i32 0, i32 0, i32 0, i32 0
  %681 = getelementptr inbounds %"class.std::__1::basic_string", %"class.std::__1::basic_string"* %22, i64 0, i32 0, i32 0, i32 0, i32 0, i32 0, i32 1
  call void @llvm.memset.p0i8.i64(i8* nonnull align 8 %679, i8 0, i64 24, i1 false) #17, !noalias !4
  %682 = load i32, i32* @_ZN7cricket28ICE_CANDIDATE_COMPONENT_RTCPE, align 4, !noalias !4
  %683 = bitcast %"class.std::__1::basic_string"* %22 to %"struct.std::__1::basic_string<char, std::__1::char_traits<char>, std::__1::allocator<char> >::__short"*
  %684 = getelementptr inbounds %"struct.std::__1::basic_string<char, std::__1::char_traits<char>, std::__1::allocator<char> >::__short", %"struct.std::__1::basic_string<char, std::__1::char_traits<char>, std::__1::allocator<char> >::__short"* %683, i64 0, i32 1, i32 0
  store i8 3, i8* %684, align 1, !noalias !4
  call void @llvm.memcpy.p0i8.p0i8.i64(i8* nonnull align 8 %679, i8* align 1 getelementptr inbounds ([4 x i8], [4 x i8]* @_ZN6webrtcL23kConnectionIpv4AddrtypeE, i64 0, i64 0), i64 3, i1 false) #17, !noalias !4
  %685 = getelementptr inbounds i8, i8* %679, i64 3
  store i8 0, i8* %685, align 1, !noalias !4
  %686 = bitcast %"class.std::__1::basic_string"* %20 to %"struct.std::__1::basic_string<char, std::__1::char_traits<char>, std::__1::allocator<char> >::__short"*
  %687 = getelementptr inbounds %"struct.std::__1::basic_string<char, std::__1::char_traits<char>, std::__1::allocator<char> >::__short", %"struct.std::__1::basic_string<char, std::__1::char_traits<char>, std::__1::allocator<char> >::__short"* %686, i64 0, i32 1, i32 0
  store i8 1, i8* %687, align 1, !noalias !4
  store i8 57, i8* %672, align 8, !noalias !4
  %688 = getelementptr inbounds i8, i8* %672, i64 1
  store i8 0, i8* %688, align 1, !noalias !4
  %689 = bitcast %"class.std::__1::basic_string"* %21 to %"struct.std::__1::basic_string<char, std::__1::char_traits<char>, std::__1::allocator<char> >::__short"*
  %690 = getelementptr inbounds %"struct.std::__1::basic_string<char, std::__1::char_traits<char>, std::__1::allocator<char> >::__short", %"struct.std::__1::basic_string<char, std::__1::char_traits<char>, std::__1::allocator<char> >::__short"* %689, i64 0, i32 1, i32 0
  store i8 7, i8* %690, align 1, !noalias !4
  call void @llvm.memcpy.p0i8.p0i8.i64(i8* nonnull align 8 %675, i8* align 1 getelementptr inbounds ([8 x i8], [8 x i8]* @_ZN6webrtcL13kDummyAddressE, i64 0, i64 0), i64 7, i1 false) #17, !noalias !4
  %691 = getelementptr inbounds i8, i8* %675, i64 7
  store i8 0, i8* %691, align 1, !noalias !4
  %692 = getelementptr inbounds %"class.std::__1::vector.170", %"class.std::__1::vector.170"* %3, i64 0, i32 0, i32 0
  %693 = load %"class.cricket::Candidate"*, %"class.cricket::Candidate"** %692, align 8, !noalias !4
  %694 = getelementptr inbounds %"class.std::__1::vector.170", %"class.std::__1::vector.170"* %3, i64 0, i32 0, i32 1
  %695 = load %"class.cricket::Candidate"*, %"class.cricket::Candidate"** %694, align 8, !noalias !4
  %696 = icmp eq %"class.cricket::Candidate"* %693, %695
  br i1 %696, label %820, label %697

697:                                              ; preds = %668
  %698 = bitcast %"class.std::__1::basic_string"* %18 to i8*
  %699 = bitcast %"class.std::__1::basic_string"* %19 to i8*
  br label %700

700:                                              ; preds = %815, %697
  %701 = phi i32 [ 0, %697 ], [ %817, %815 ]
  %702 = phi i32 [ 0, %697 ], [ %816, %815 ]
  %703 = phi %"class.cricket::Candidate"* [ %693, %697 ], [ %818, %815 ]
  %704 = getelementptr inbounds %"class.cricket::Candidate", %"class.cricket::Candidate"* %703, i64 0, i32 1
  %705 = load i32, i32* %704, align 8
  %706 = icmp eq i32 %705, %682
  br i1 %706, label %707, label %815

707:                                              ; preds = %700
  %708 = getelementptr inbounds %"class.cricket::Candidate", %"class.cricket::Candidate"* %703, i64 0, i32 2
  %709 = call i64 @strlen(i8* getelementptr inbounds ([0 x i8], [0 x i8]* @_ZN7cricket17UDP_PROTOCOL_NAMEE, i64 0, i64 0)) #17
  %710 = bitcast %"class.std::__1::basic_string"* %708 to %"struct.std::__1::basic_string<char, std::__1::char_traits<char>, std::__1::allocator<char> >::__short"*
  %711 = getelementptr inbounds %"struct.std::__1::basic_string<char, std::__1::char_traits<char>, std::__1::allocator<char> >::__short", %"struct.std::__1::basic_string<char, std::__1::char_traits<char>, std::__1::allocator<char> >::__short"* %710, i64 0, i32 1, i32 0
  %712 = load i8, i8* %711, align 1
  %713 = icmp slt i8 %712, 0
  %714 = getelementptr inbounds %"class.cricket::Candidate", %"class.cricket::Candidate"* %703, i64 0, i32 2, i32 0, i32 0, i32 0, i32 0, i32 0, i32 1
  %715 = load i64, i64* %714, align 8
  %716 = zext i8 %712 to i64
  %717 = select i1 %713, i64 %715, i64 %716
  %718 = icmp eq i64 %709, %717
  br i1 %718, label %719, label %815

719:                                              ; preds = %707
  %720 = call i32 @_ZNKSt3__112basic_stringIcNS_11char_traitsIcEENS_9allocatorIcEEE7compareEmmPKcm(%"class.std::__1::basic_string"* %708, i64 0, i64 -1, i8* getelementptr inbounds ([0 x i8], [0 x i8]* @_ZN7cricket17UDP_PROTOCOL_NAMEE, i64 0, i64 0), i64 %709) #17
  %721 = icmp eq i32 %720, 0
  br i1 %721, label %722, label %815

722:                                              ; preds = %719
  %723 = getelementptr inbounds %"class.cricket::Candidate", %"class.cricket::Candidate"* %703, i64 0, i32 8
  %724 = call i64 @strlen(i8* getelementptr inbounds ([0 x i8], [0 x i8]* @_ZN7cricket15LOCAL_PORT_TYPEE, i64 0, i64 0)) #17
  %725 = bitcast %"class.std::__1::basic_string"* %723 to %"struct.std::__1::basic_string<char, std::__1::char_traits<char>, std::__1::allocator<char> >::__short"*
  %726 = getelementptr inbounds %"struct.std::__1::basic_string<char, std::__1::char_traits<char>, std::__1::allocator<char> >::__short", %"struct.std::__1::basic_string<char, std::__1::char_traits<char>, std::__1::allocator<char> >::__short"* %725, i64 0, i32 1, i32 0
  %727 = load i8, i8* %726, align 1
  %728 = icmp slt i8 %727, 0
  %729 = getelementptr inbounds %"class.cricket::Candidate", %"class.cricket::Candidate"* %703, i64 0, i32 8, i32 0, i32 0, i32 0, i32 0, i32 0, i32 1
  %730 = load i64, i64* %729, align 8
  %731 = zext i8 %727 to i64
  %732 = select i1 %728, i64 %730, i64 %731
  %733 = icmp eq i64 %724, %732
  br i1 %733, label %734, label %741

734:                                              ; preds = %722
  %735 = call i32 @_ZNKSt3__112basic_stringIcNS_11char_traitsIcEENS_9allocatorIcEEE7compareEmmPKcm(%"class.std::__1::basic_string"* %723, i64 0, i64 -1, i8* getelementptr inbounds ([0 x i8], [0 x i8]* @_ZN7cricket15LOCAL_PORT_TYPEE, i64 0, i64 0), i64 %724) #17
  %736 = icmp eq i32 %735, 0
  br i1 %736, label %768, label %737

737:                                              ; preds = %734
  %738 = load i8, i8* %726, align 1
  %739 = load i64, i64* %729, align 8
  %740 = zext i8 %738 to i64
  br label %741

741:                                              ; preds = %737, %722
  %742 = phi i64 [ %740, %737 ], [ %731, %722 ]
  %743 = phi i64 [ %739, %737 ], [ %730, %722 ]
  %744 = phi i8 [ %738, %737 ], [ %727, %722 ]
  %745 = call i64 @strlen(i8* getelementptr inbounds ([0 x i8], [0 x i8]* @_ZN7cricket14STUN_PORT_TYPEE, i64 0, i64 0)) #17
  %746 = icmp slt i8 %744, 0
  %747 = select i1 %746, i64 %743, i64 %742
  %748 = icmp eq i64 %745, %747
  br i1 %748, label %749, label %756

749:                                              ; preds = %741
  %750 = call i32 @_ZNKSt3__112basic_stringIcNS_11char_traitsIcEENS_9allocatorIcEEE7compareEmmPKcm(%"class.std::__1::basic_string"* %723, i64 0, i64 -1, i8* getelementptr inbounds ([0 x i8], [0 x i8]* @_ZN7cricket14STUN_PORT_TYPEE, i64 0, i64 0), i64 %745) #17
  %751 = icmp eq i32 %750, 0
  br i1 %751, label %768, label %752

752:                                              ; preds = %749
  %753 = load i8, i8* %726, align 1
  %754 = load i64, i64* %729, align 8
  %755 = zext i8 %753 to i64
  br label %756

756:                                              ; preds = %752, %741
  %757 = phi i64 [ %755, %752 ], [ %742, %741 ]
  %758 = phi i64 [ %754, %752 ], [ %743, %741 ]
  %759 = phi i8 [ %753, %752 ], [ %744, %741 ]
  %760 = call i64 @strlen(i8* getelementptr inbounds ([0 x i8], [0 x i8]* @_ZN7cricket15RELAY_PORT_TYPEE, i64 0, i64 0)) #17
  %761 = icmp slt i8 %759, 0
  %762 = select i1 %761, i64 %758, i64 %757
  %763 = icmp eq i64 %760, %762
  br i1 %763, label %764, label %768

764:                                              ; preds = %756
  %765 = call i32 @_ZNKSt3__112basic_stringIcNS_11char_traitsIcEENS_9allocatorIcEEE7compareEmmPKcm(%"class.std::__1::basic_string"* %723, i64 0, i64 -1, i8* getelementptr inbounds ([0 x i8], [0 x i8]* @_ZN7cricket15RELAY_PORT_TYPEE, i64 0, i64 0), i64 %760) #17
  %766 = icmp eq i32 %765, 0
  %767 = select i1 %766, i32 3, i32 0
  br label %768

768:                                              ; preds = %764, %756, %749, %734
  %769 = phi i32 [ %767, %764 ], [ 0, %756 ], [ 1, %734 ], [ 2, %749 ]
  %770 = getelementptr inbounds %"class.cricket::Candidate", %"class.cricket::Candidate"* %703, i64 0, i32 4
  %771 = call dereferenceable(32) %"class.rtc::IPAddress"* @_ZNK3rtc13SocketAddress6ipaddrEv(%"class.rtc::SocketAddress"* %770) #17
  %772 = getelementptr inbounds %"class.rtc::IPAddress", %"class.rtc::IPAddress"* %771, i64 0, i32 1
  %773 = load i32, i32* %772, align 8
  %774 = icmp sle i32 %769, %701
  %775 = icmp eq i32 %702, %773
  %776 = and i1 %774, %775
  br i1 %776, label %815, label %777

777:                                              ; preds = %768
  %778 = icmp eq i32 %702, 2
  %779 = icmp eq i32 %773, 10
  %780 = and i1 %778, %779
  br i1 %780, label %815, label %781

781:                                              ; preds = %777
  %782 = icmp eq i32 %773, 2
  br i1 %782, label %783, label %791

783:                                              ; preds = %781
  %784 = load i8, i8* %684, align 1, !noalias !4
  %785 = icmp slt i8 %784, 0
  br i1 %785, label %786, label %788

786:                                              ; preds = %783
  store i64 3, i64* %681, align 8, !noalias !4
  %787 = load i8*, i8** %680, align 8, !noalias !4
  br label %789

788:                                              ; preds = %783
  store i8 3, i8* %684, align 1, !noalias !4
  br label %789

789:                                              ; preds = %788, %786
  %790 = phi i8* [ %787, %786 ], [ %679, %788 ]
  call void @llvm.memcpy.p0i8.p0i8.i64(i8* align 1 %790, i8* align 1 getelementptr inbounds ([4 x i8], [4 x i8]* @_ZN6webrtcL23kConnectionIpv4AddrtypeE, i64 0, i64 0), i64 3, i1 false) #17
  br label %800

791:                                              ; preds = %781
  br i1 %779, label %792, label %803

792:                                              ; preds = %791
  %793 = load i8, i8* %684, align 1, !noalias !4
  %794 = icmp slt i8 %793, 0
  br i1 %794, label %795, label %797

795:                                              ; preds = %792
  store i64 3, i64* %681, align 8, !noalias !4
  %796 = load i8*, i8** %680, align 8, !noalias !4
  br label %798

797:                                              ; preds = %792
  store i8 3, i8* %684, align 1, !noalias !4
  br label %798

798:                                              ; preds = %797, %795
  %799 = phi i8* [ %796, %795 ], [ %679, %797 ]
  call void @llvm.memcpy.p0i8.p0i8.i64(i8* align 1 %799, i8* align 1 getelementptr inbounds ([4 x i8], [4 x i8]* @.str.21, i64 0, i64 0), i64 3, i1 false) #17
  br label %800

800:                                              ; preds = %789, %798
  %801 = phi i8* [ %799, %798 ], [ %790, %789 ]
  %802 = getelementptr inbounds i8, i8* %801, i64 3
  store i8 0, i8* %802, align 1
  br label %803

803:                                              ; preds = %800, %791
  call void @llvm.lifetime.start.p0i8(i64 24, i8* nonnull %698) #17, !noalias !4
  call void @_ZNK3rtc13SocketAddress12PortAsStringEv(%"class.std::__1::basic_string"* nonnull sret %18, %"class.rtc::SocketAddress"* %770) #17
  %804 = load i8, i8* %687, align 1, !noalias !4
  %805 = icmp slt i8 %804, 0
  br i1 %805, label %806, label %808

806:                                              ; preds = %803
  %807 = load i8*, i8** %673, align 8, !noalias !4
  call void @_ZdlPv(i8* %807) #18
  br label %808

808:                                              ; preds = %806, %803
  call void @llvm.memcpy.p0i8.p0i8.i64(i8* nonnull align 8 %672, i8* nonnull align 8 %698, i64 24, i1 false) #17, !noalias !4
  call void @llvm.lifetime.end.p0i8(i64 24, i8* nonnull %698) #17, !noalias !4
  call void @llvm.lifetime.start.p0i8(i64 24, i8* nonnull %699) #17, !noalias !4
  %809 = call dereferenceable(32) %"class.rtc::IPAddress"* @_ZNK3rtc13SocketAddress6ipaddrEv(%"class.rtc::SocketAddress"* %770) #17
  call void @_ZNK3rtc9IPAddress8ToStringEv(%"class.std::__1::basic_string"* nonnull sret %19, %"class.rtc::IPAddress"* %809) #17
  %810 = load i8, i8* %690, align 1, !noalias !4
  %811 = icmp slt i8 %810, 0
  br i1 %811, label %812, label %814

812:                                              ; preds = %808
  %813 = load i8*, i8** %676, align 8, !noalias !4
  call void @_ZdlPv(i8* %813) #18
  br label %814

814:                                              ; preds = %812, %808
  call void @llvm.memcpy.p0i8.p0i8.i64(i8* nonnull align 8 %675, i8* nonnull align 8 %699, i64 24, i1 false) #17, !noalias !4
  call void @llvm.lifetime.end.p0i8(i64 24, i8* nonnull %699) #17, !noalias !4
  br label %815

815:                                              ; preds = %814, %777, %768, %719, %707, %700
  %816 = phi i32 [ %702, %700 ], [ %702, %719 ], [ %773, %814 ], [ %702, %768 ], [ 2, %777 ], [ %702, %707 ]
  %817 = phi i32 [ %701, %700 ], [ %701, %719 ], [ %769, %814 ], [ %701, %768 ], [ %701, %777 ], [ %701, %707 ]
  %818 = getelementptr inbounds %"class.cricket::Candidate", %"class.cricket::Candidate"* %703, i64 1
  %819 = icmp eq %"class.cricket::Candidate"* %818, %695
  br i1 %819, label %820, label %700

820:                                              ; preds = %815, %668
  %821 = bitcast %"class.rtc::StringBuilder"* %23 to i8*
  call void @llvm.lifetime.start.p0i8(i64 24, i8* nonnull %821) #17, !noalias !4
  %822 = getelementptr inbounds %"class.rtc::StringBuilder", %"class.rtc::StringBuilder"* %23, i64 0, i32 0, i32 0, i32 0, i32 0, i32 0, i32 0, i32 0
  %823 = getelementptr inbounds %"class.rtc::StringBuilder", %"class.rtc::StringBuilder"* %23, i64 0, i32 0, i32 0, i32 0, i32 0, i32 0, i32 0, i32 1
  call void @llvm.memset.p0i8.i64(i8* nonnull align 8 %821, i8 0, i64 24, i1 false) #17, !noalias !4
  %824 = bitcast %"class.std::__1::basic_string"* %24 to i8*
  call void @llvm.lifetime.start.p0i8(i64 24, i8* nonnull %824) #17, !noalias !4
  %825 = bitcast %"class.std::__1::basic_string"* %24 to %"struct.std::__1::basic_string<char, std::__1::char_traits<char>, std::__1::allocator<char> >::__short"*
  %826 = getelementptr inbounds %"struct.std::__1::basic_string<char, std::__1::char_traits<char>, std::__1::allocator<char> >::__short", %"struct.std::__1::basic_string<char, std::__1::char_traits<char>, std::__1::allocator<char> >::__short"* %825, i64 0, i32 1, i32 0
  store i8 4, i8* %826, align 1, !noalias !4
  %827 = bitcast %"class.std::__1::basic_string"* %24 to i32*
  store i32 1885566066, i32* %827, align 8, !noalias !4
  %828 = getelementptr inbounds i8, i8* %824, i64 4
  store i8 0, i8* %828, align 4, !noalias !4
  call fastcc void @_ZN6webrtcL8InitLineEcRKNSt3__112basic_stringIcNS0_11char_traitsIcEENS0_9allocatorIcEEEEPN3rtc13StringBuilderE(i8 signext 97, %"class.std::__1::basic_string"* nonnull dereferenceable(24) %24, %"class.rtc::StringBuilder"* nonnull %23) #17, !noalias !4
  %829 = load i8, i8* %826, align 1, !noalias !4
  %830 = icmp slt i8 %829, 0
  br i1 %830, label %831, label %834

831:                                              ; preds = %820
  %832 = getelementptr inbounds %"class.std::__1::basic_string", %"class.std::__1::basic_string"* %24, i64 0, i32 0, i32 0, i32 0, i32 0, i32 0, i32 0
  %833 = load i8*, i8** %832, align 8, !noalias !4
  call void @_ZdlPv(i8* %833) #18
  br label %834

834:                                              ; preds = %831, %820
  call void @llvm.lifetime.end.p0i8(i64 24, i8* nonnull %824) #17, !noalias !4
  %835 = getelementptr inbounds %"class.rtc::StringBuilder", %"class.rtc::StringBuilder"* %23, i64 0, i32 0
  %836 = call dereferenceable(24) %"class.std::__1::basic_string"* @_ZNSt3__112basic_stringIcNS_11char_traitsIcEENS_9allocatorIcEEE6appendEPKcm(%"class.std::__1::basic_string"* nonnull %835, i8* getelementptr inbounds ([2 x i8], [2 x i8]* @_ZN6webrtcL18kSdpDelimiterColonE, i64 0, i64 0), i64 1) #17, !noalias !4
  %837 = load i8, i8* %687, align 1, !noalias !4
  %838 = icmp slt i8 %837, 0
  br i1 %838, label %842, label %839

839:                                              ; preds = %834
  %840 = zext i8 %837 to i64
  %841 = ptrtoint %"class.std::__1::basic_string"* %20 to i64
  br label %848

842:                                              ; preds = %834
  %843 = bitcast %"class.std::__1::basic_string"* %20 to i64*
  %844 = load i64, i64* %843, align 8, !noalias !4
  %845 = load i64, i64* %674, align 8, !noalias !4
  %846 = icmp sgt i64 %845, -1
  br i1 %846, label %848, label %847, !prof !2

847:                                              ; preds = %842
  call void @llvm.trap() #17
  unreachable

848:                                              ; preds = %842, %839
  %849 = phi i64 [ %844, %842 ], [ %841, %839 ]
  %850 = phi i64 [ %845, %842 ], [ %840, %839 ]
  %851 = inttoptr i64 %849 to i8*
  %852 = call dereferenceable(24) %"class.std::__1::basic_string"* @_ZNSt3__112basic_stringIcNS_11char_traitsIcEENS_9allocatorIcEEE6appendEPKcm(%"class.std::__1::basic_string"* nonnull %835, i8* %851, i64 %850) #17, !noalias !4
  %853 = call dereferenceable(24) %"class.std::__1::basic_string"* @_ZNSt3__112basic_stringIcNS_11char_traitsIcEENS_9allocatorIcEEE6appendEPKcm(%"class.std::__1::basic_string"* nonnull %835, i8* getelementptr inbounds ([2 x i8], [2 x i8]* @.str.4, i64 0, i64 0), i64 1) #17, !noalias !4
  %854 = call dereferenceable(24) %"class.std::__1::basic_string"* @_ZNSt3__112basic_stringIcNS_11char_traitsIcEENS_9allocatorIcEEE6appendEPKcm(%"class.std::__1::basic_string"* nonnull %835, i8* getelementptr inbounds ([3 x i8], [3 x i8]* @_ZN6webrtcL18kConnectionNettypeE, i64 0, i64 0), i64 2) #17, !noalias !4
  %855 = call dereferenceable(24) %"class.std::__1::basic_string"* @_ZNSt3__112basic_stringIcNS_11char_traitsIcEENS_9allocatorIcEEE6appendEPKcm(%"class.std::__1::basic_string"* nonnull %835, i8* getelementptr inbounds ([2 x i8], [2 x i8]* @.str.4, i64 0, i64 0), i64 1) #17, !noalias !4
  %856 = load i8, i8* %684, align 1, !noalias !4
  %857 = icmp slt i8 %856, 0
  br i1 %857, label %861, label %858

858:                                              ; preds = %848
  %859 = zext i8 %856 to i64
  %860 = ptrtoint %"class.std::__1::basic_string"* %22 to i64
  br label %867

861:                                              ; preds = %848
  %862 = bitcast %"class.std::__1::basic_string"* %22 to i64*
  %863 = load i64, i64* %862, align 8, !noalias !4
  %864 = load i64, i64* %681, align 8, !noalias !4
  %865 = icmp sgt i64 %864, -1
  br i1 %865, label %867, label %866, !prof !2

866:                                              ; preds = %861
  call void @llvm.trap() #17
  unreachable

867:                                              ; preds = %861, %858
  %868 = phi i64 [ %863, %861 ], [ %860, %858 ]
  %869 = phi i64 [ %864, %861 ], [ %859, %858 ]
  %870 = inttoptr i64 %868 to i8*
  %871 = call dereferenceable(24) %"class.std::__1::basic_string"* @_ZNSt3__112basic_stringIcNS_11char_traitsIcEENS_9allocatorIcEEE6appendEPKcm(%"class.std::__1::basic_string"* nonnull %835, i8* %870, i64 %869) #17, !noalias !4
  %872 = call dereferenceable(24) %"class.std::__1::basic_string"* @_ZNSt3__112basic_stringIcNS_11char_traitsIcEENS_9allocatorIcEEE6appendEPKcm(%"class.std::__1::basic_string"* nonnull %835, i8* getelementptr inbounds ([2 x i8], [2 x i8]* @.str.4, i64 0, i64 0), i64 1) #17, !noalias !4
  %873 = load i8, i8* %690, align 1, !noalias !4
  %874 = icmp slt i8 %873, 0
  br i1 %874, label %878, label %875

875:                                              ; preds = %867
  %876 = zext i8 %873 to i64
  %877 = ptrtoint %"class.std::__1::basic_string"* %21 to i64
  br label %884

878:                                              ; preds = %867
  %879 = bitcast %"class.std::__1::basic_string"* %21 to i64*
  %880 = load i64, i64* %879, align 8, !noalias !4
  %881 = load i64, i64* %677, align 8, !noalias !4
  %882 = icmp sgt i64 %881, -1
  br i1 %882, label %884, label %883, !prof !2

883:                                              ; preds = %878
  call void @llvm.trap() #17
  unreachable

884:                                              ; preds = %878, %875
  %885 = phi i64 [ %880, %878 ], [ %877, %875 ]
  %886 = phi i64 [ %881, %878 ], [ %876, %875 ]
  %887 = inttoptr i64 %885 to i8*
  %888 = call dereferenceable(24) %"class.std::__1::basic_string"* @_ZNSt3__112basic_stringIcNS_11char_traitsIcEENS_9allocatorIcEEE6appendEPKcm(%"class.std::__1::basic_string"* nonnull %835, i8* %887, i64 %886) #17, !noalias !4
  %889 = bitcast %"class.std::__1::basic_string"* %94 to %"struct.std::__1::basic_string<char, std::__1::char_traits<char>, std::__1::allocator<char> >::__short"*
  %890 = getelementptr inbounds %"struct.std::__1::basic_string<char, std::__1::char_traits<char>, std::__1::allocator<char> >::__short", %"struct.std::__1::basic_string<char, std::__1::char_traits<char>, std::__1::allocator<char> >::__short"* %889, i64 0, i32 1, i32 0
  %891 = load i8, i8* %890, align 1, !alias.scope !4
  %892 = icmp slt i8 %891, 0
  %893 = bitcast %"class.rtc::StringBuilder"* %23 to %"struct.std::__1::basic_string<char, std::__1::char_traits<char>, std::__1::allocator<char> >::__short"*
  %894 = getelementptr inbounds %"struct.std::__1::basic_string<char, std::__1::char_traits<char>, std::__1::allocator<char> >::__short", %"struct.std::__1::basic_string<char, std::__1::char_traits<char>, std::__1::allocator<char> >::__short"* %893, i64 0, i32 1, i32 0
  %895 = load i8, i8* %894, align 1, !noalias !4
  %896 = icmp slt i8 %895, 0
  br i1 %892, label %903, label %897

897:                                              ; preds = %884
  br i1 %896, label %899, label %898

898:                                              ; preds = %897
  call void @llvm.memcpy.p0i8.p0i8.i64(i8* nonnull align 8 %669, i8* nonnull align 8 %821, i64 24, i1 false) #17
  br label %915

899:                                              ; preds = %897
  %900 = load i8*, i8** %822, align 8, !noalias !4
  %901 = load i64, i64* %823, align 8, !noalias !4
  %902 = call dereferenceable(24) %"class.std::__1::basic_string"* @_ZNSt3__112basic_stringIcNS_11char_traitsIcEENS_9allocatorIcEEE17__assign_no_aliasILb1EEERS5_PKcm(%"class.std::__1::basic_string"* nonnull %94, i8* %900, i64 %901) #17
  br label %910

903:                                              ; preds = %884
  %904 = load i8*, i8** %822, align 8, !noalias !4
  %905 = load i64, i64* %823, align 8, !noalias !4
  %906 = zext i8 %895 to i64
  %907 = select i1 %896, i8* %904, i8* %821
  %908 = select i1 %896, i64 %905, i64 %906
  %909 = call dereferenceable(24) %"class.std::__1::basic_string"* @_ZNSt3__112basic_stringIcNS_11char_traitsIcEENS_9allocatorIcEEE17__assign_no_aliasILb0EEERS5_PKcm(%"class.std::__1::basic_string"* nonnull %94, i8* %907, i64 %908) #17
  br label %910

910:                                              ; preds = %903, %899
  %911 = load i8, i8* %894, align 1, !noalias !4
  %912 = icmp slt i8 %911, 0
  br i1 %912, label %913, label %915

913:                                              ; preds = %910
  %914 = load i8*, i8** %822, align 8, !noalias !4
  call void @_ZdlPv(i8* %914) #18
  br label %915

915:                                              ; preds = %898, %913, %910
  call void @llvm.lifetime.end.p0i8(i64 24, i8* nonnull %821) #17, !noalias !4
  %916 = load i8, i8* %684, align 1, !noalias !4
  %917 = icmp slt i8 %916, 0
  br i1 %917, label %918, label %920

918:                                              ; preds = %915
  %919 = load i8*, i8** %680, align 8, !noalias !4
  call void @_ZdlPv(i8* %919) #18
  br label %920

920:                                              ; preds = %918, %915
  call void @llvm.lifetime.end.p0i8(i64 24, i8* nonnull %679) #17, !noalias !4
  %921 = load i8, i8* %690, align 1, !noalias !4
  %922 = icmp slt i8 %921, 0
  br i1 %922, label %923, label %925

923:                                              ; preds = %920
  %924 = load i8*, i8** %676, align 8, !noalias !4
  call void @_ZdlPv(i8* %924) #18
  br label %925

925:                                              ; preds = %923, %920
  call void @llvm.lifetime.end.p0i8(i64 24, i8* nonnull %675) #17, !noalias !4
  %926 = load i8, i8* %687, align 1, !noalias !4
  %927 = icmp slt i8 %926, 0
  br i1 %927, label %928, label %930

928:                                              ; preds = %925
  %929 = load i8*, i8** %673, align 8, !noalias !4
  call void @_ZdlPv(i8* %929) #18
  br label %930

930:                                              ; preds = %925, %928
  call void @llvm.lifetime.end.p0i8(i64 24, i8* nonnull %672) #17, !noalias !4
  %931 = load i8, i8* %890, align 1
  %932 = icmp slt i8 %931, 0
  %933 = load i64, i64* %671, align 8
  %934 = zext i8 %931 to i64
  %935 = select i1 %932, i64 %933, i64 %934
  %936 = icmp eq i64 %935, 0
  br i1 %936, label %943, label %937

937:                                              ; preds = %930
  %938 = load i8*, i8** %670, align 8
  %939 = select i1 %932, i8* %938, i8* %669
  %940 = call dereferenceable(24) %"class.std::__1::basic_string"* @_ZNSt3__112basic_stringIcNS_11char_traitsIcEENS_9allocatorIcEEE6appendEPKcm(%"class.std::__1::basic_string"* nonnull %5, i8* %939, i64 %935) #17
  %941 = call dereferenceable(24) %"class.std::__1::basic_string"* @_ZNSt3__112basic_stringIcNS_11char_traitsIcEENS_9allocatorIcEEE6appendEPKc(%"class.std::__1::basic_string"* nonnull %5, i8* getelementptr inbounds ([3 x i8], [3 x i8]* @_ZN6webrtcL10kLineBreakE, i64 0, i64 0)) #17
  %942 = load i8, i8* %890, align 1
  br label %943

943:                                              ; preds = %937, %930
  %944 = phi i8 [ %942, %937 ], [ %931, %930 ]
  %945 = icmp slt i8 %944, 0
  br i1 %945, label %946, label %948

946:                                              ; preds = %943
  %947 = load i8*, i8** %670, align 8
  call void @_ZdlPv(i8* %947) #18
  br label %948

948:                                              ; preds = %943, %946
  call void @llvm.lifetime.end.p0i8(i64 24, i8* nonnull %669) #17
  br label %949

949:                                              ; preds = %948, %667
  call fastcc void @_ZN6webrtcL14BuildCandidateERKNSt3__16vectorIN7cricket9CandidateENS0_9allocatorIS3_EEEEbPNS0_12basic_stringIcNS0_11char_traitsIcEENS4_IcEEEE(%"class.std::__1::vector.170"* dereferenceable(24) %3, i1 zeroext false, %"class.std::__1::basic_string"* %5)
  br i1 %322, label %950, label %1271

950:                                              ; preds = %949
  %951 = getelementptr inbounds %"struct.cricket::TransportInfo", %"struct.cricket::TransportInfo"* %1, i64 0, i32 1, i32 1
  %952 = bitcast %"class.std::__1::basic_string"* %951 to %"struct.std::__1::basic_string<char, std::__1::char_traits<char>, std::__1::allocator<char> >::__short"*
  %953 = getelementptr inbounds %"struct.std::__1::basic_string<char, std::__1::char_traits<char>, std::__1::allocator<char> >::__short", %"struct.std::__1::basic_string<char, std::__1::char_traits<char>, std::__1::allocator<char> >::__short"* %952, i64 0, i32 1, i32 0
  %954 = load i8, i8* %953, align 1
  %955 = icmp slt i8 %954, 0
  br i1 %955, label %956, label %959

956:                                              ; preds = %950
  %957 = getelementptr inbounds %"struct.cricket::TransportInfo", %"struct.cricket::TransportInfo"* %1, i64 0, i32 1, i32 1, i32 0, i32 0, i32 0, i32 0, i32 0, i32 1
  %958 = load i64, i64* %957, align 8
  br label %961

959:                                              ; preds = %950
  %960 = zext i8 %954 to i64
  br label %961

961:                                              ; preds = %956, %959
  %962 = phi i64 [ %958, %956 ], [ %960, %959 ]
  %963 = icmp eq i64 %962, 0
  br i1 %963, label %1002, label %964

964:                                              ; preds = %961
  %965 = bitcast %"class.std::__1::basic_string"* %95 to i8*
  call void @llvm.lifetime.start.p0i8(i64 24, i8* nonnull %965) #17
  %966 = bitcast %"class.std::__1::basic_string"* %95 to %"struct.std::__1::basic_string<char, std::__1::char_traits<char>, std::__1::allocator<char> >::__short"*
  %967 = getelementptr inbounds %"struct.std::__1::basic_string<char, std::__1::char_traits<char>, std::__1::allocator<char> >::__short", %"struct.std::__1::basic_string<char, std::__1::char_traits<char>, std::__1::allocator<char> >::__short"* %966, i64 0, i32 1, i32 0
  store i8 9, i8* %967, align 1
  call void @llvm.memcpy.p0i8.p0i8.i64(i8* nonnull align 8 %965, i8* align 1 getelementptr inbounds ([10 x i8], [10 x i8]* @_ZN6webrtcL18kAttributeIceUfragE, i64 0, i64 0), i64 9, i1 false) #17
  %968 = getelementptr inbounds i8, i8* %965, i64 9
  store i8 0, i8* %968, align 1
  call fastcc void @_ZN6webrtcL8InitLineEcRKNSt3__112basic_stringIcNS0_11char_traitsIcEENS0_9allocatorIcEEEEPN3rtc13StringBuilderE(i8 signext 97, %"class.std::__1::basic_string"* nonnull dereferenceable(24) %95, %"class.rtc::StringBuilder"* nonnull %79) #17
  %969 = load i8, i8* %967, align 1
  %970 = icmp slt i8 %969, 0
  br i1 %970, label %971, label %974

971:                                              ; preds = %964
  %972 = getelementptr inbounds %"class.std::__1::basic_string", %"class.std::__1::basic_string"* %95, i64 0, i32 0, i32 0, i32 0, i32 0, i32 0, i32 0
  %973 = load i8*, i8** %972, align 8
  call void @_ZdlPv(i8* %973) #18
  br label %974

974:                                              ; preds = %964, %971
  call void @llvm.lifetime.end.p0i8(i64 24, i8* nonnull %965) #17
  %975 = call dereferenceable(24) %"class.std::__1::basic_string"* @_ZNSt3__112basic_stringIcNS_11char_traitsIcEENS_9allocatorIcEEE6appendEPKcm(%"class.std::__1::basic_string"* nonnull %330, i8* getelementptr inbounds ([2 x i8], [2 x i8]* @_ZN6webrtcL18kSdpDelimiterColonE, i64 0, i64 0), i64 1) #17
  %976 = load i8, i8* %953, align 1
  %977 = icmp slt i8 %976, 0
  br i1 %977, label %981, label %978

978:                                              ; preds = %974
  %979 = zext i8 %976 to i64
  %980 = ptrtoint %"class.std::__1::basic_string"* %951 to i64
  br label %988

981:                                              ; preds = %974
  %982 = bitcast %"class.std::__1::basic_string"* %951 to i64*
  %983 = load i64, i64* %982, align 8
  %984 = getelementptr inbounds %"struct.cricket::TransportInfo", %"struct.cricket::TransportInfo"* %1, i64 0, i32 1, i32 1, i32 0, i32 0, i32 0, i32 0, i32 0, i32 1
  %985 = load i64, i64* %984, align 8
  %986 = icmp sgt i64 %985, -1
  br i1 %986, label %988, label %987, !prof !2

987:                                              ; preds = %981
  call void @llvm.trap() #17
  unreachable

988:                                              ; preds = %978, %981
  %989 = phi i64 [ %983, %981 ], [ %980, %978 ]
  %990 = phi i64 [ %985, %981 ], [ %979, %978 ]
  %991 = inttoptr i64 %989 to i8*
  %992 = call dereferenceable(24) %"class.std::__1::basic_string"* @_ZNSt3__112basic_stringIcNS_11char_traitsIcEENS_9allocatorIcEEE6appendEPKcm(%"class.std::__1::basic_string"* nonnull %330, i8* %991, i64 %990) #17
  %993 = load i8, i8* %396, align 1
  %994 = icmp slt i8 %993, 0
  %995 = load i8*, i8** %110, align 8
  %996 = load i64, i64* %111, align 8
  %997 = zext i8 %993 to i64
  %998 = select i1 %994, i8* %995, i8* %109
  %999 = select i1 %994, i64 %996, i64 %997
  %1000 = call dereferenceable(24) %"class.std::__1::basic_string"* @_ZNSt3__112basic_stringIcNS_11char_traitsIcEENS_9allocatorIcEEE6appendEPKcm(%"class.std::__1::basic_string"* nonnull %5, i8* %998, i64 %999) #17
  %1001 = call dereferenceable(24) %"class.std::__1::basic_string"* @_ZNSt3__112basic_stringIcNS_11char_traitsIcEENS_9allocatorIcEEE6appendEPKc(%"class.std::__1::basic_string"* nonnull %5, i8* getelementptr inbounds ([3 x i8], [3 x i8]* @_ZN6webrtcL10kLineBreakE, i64 0, i64 0)) #17
  br label %1002

1002:                                             ; preds = %988, %961
  %1003 = getelementptr inbounds %"struct.cricket::TransportInfo", %"struct.cricket::TransportInfo"* %1, i64 0, i32 1, i32 2
  %1004 = bitcast %"class.std::__1::basic_string"* %1003 to %"struct.std::__1::basic_string<char, std::__1::char_traits<char>, std::__1::allocator<char> >::__short"*
  %1005 = getelementptr inbounds %"struct.std::__1::basic_string<char, std::__1::char_traits<char>, std::__1::allocator<char> >::__short", %"struct.std::__1::basic_string<char, std::__1::char_traits<char>, std::__1::allocator<char> >::__short"* %1004, i64 0, i32 1, i32 0
  %1006 = load i8, i8* %1005, align 1
  %1007 = icmp slt i8 %1006, 0
  br i1 %1007, label %1008, label %1011

1008:                                             ; preds = %1002
  %1009 = getelementptr inbounds %"struct.cricket::TransportInfo", %"struct.cricket::TransportInfo"* %1, i64 0, i32 1, i32 2, i32 0, i32 0, i32 0, i32 0, i32 0, i32 1
  %1010 = load i64, i64* %1009, align 8
  br label %1013

1011:                                             ; preds = %1002
  %1012 = zext i8 %1006 to i64
  br label %1013

1013:                                             ; preds = %1008, %1011
  %1014 = phi i64 [ %1010, %1008 ], [ %1012, %1011 ]
  %1015 = icmp eq i64 %1014, 0
  br i1 %1015, label %1054, label %1016

1016:                                             ; preds = %1013
  %1017 = bitcast %"class.std::__1::basic_string"* %96 to i8*
  call void @llvm.lifetime.start.p0i8(i64 24, i8* nonnull %1017) #17
  %1018 = bitcast %"class.std::__1::basic_string"* %96 to %"struct.std::__1::basic_string<char, std::__1::char_traits<char>, std::__1::allocator<char> >::__short"*
  %1019 = getelementptr inbounds %"struct.std::__1::basic_string<char, std::__1::char_traits<char>, std::__1::allocator<char> >::__short", %"struct.std::__1::basic_string<char, std::__1::char_traits<char>, std::__1::allocator<char> >::__short"* %1018, i64 0, i32 1, i32 0
  store i8 7, i8* %1019, align 1
  call void @llvm.memcpy.p0i8.p0i8.i64(i8* nonnull align 8 %1017, i8* align 1 getelementptr inbounds ([8 x i8], [8 x i8]* @_ZN6webrtcL16kAttributeIcePwdE, i64 0, i64 0), i64 7, i1 false) #17
  %1020 = getelementptr inbounds i8, i8* %1017, i64 7
  store i8 0, i8* %1020, align 1
  call fastcc void @_ZN6webrtcL8InitLineEcRKNSt3__112basic_stringIcNS0_11char_traitsIcEENS0_9allocatorIcEEEEPN3rtc13StringBuilderE(i8 signext 97, %"class.std::__1::basic_string"* nonnull dereferenceable(24) %96, %"class.rtc::StringBuilder"* nonnull %79) #17
  %1021 = load i8, i8* %1019, align 1
  %1022 = icmp slt i8 %1021, 0
  br i1 %1022, label %1023, label %1026

1023:                                             ; preds = %1016
  %1024 = getelementptr inbounds %"class.std::__1::basic_string", %"class.std::__1::basic_string"* %96, i64 0, i32 0, i32 0, i32 0, i32 0, i32 0, i32 0
  %1025 = load i8*, i8** %1024, align 8
  call void @_ZdlPv(i8* %1025) #18
  br label %1026

1026:                                             ; preds = %1016, %1023
  call void @llvm.lifetime.end.p0i8(i64 24, i8* nonnull %1017) #17
  %1027 = call dereferenceable(24) %"class.std::__1::basic_string"* @_ZNSt3__112basic_stringIcNS_11char_traitsIcEENS_9allocatorIcEEE6appendEPKcm(%"class.std::__1::basic_string"* nonnull %330, i8* getelementptr inbounds ([2 x i8], [2 x i8]* @_ZN6webrtcL18kSdpDelimiterColonE, i64 0, i64 0), i64 1) #17
  %1028 = load i8, i8* %1005, align 1
  %1029 = icmp slt i8 %1028, 0
  br i1 %1029, label %1033, label %1030

1030:                                             ; preds = %1026
  %1031 = zext i8 %1028 to i64
  %1032 = ptrtoint %"class.std::__1::basic_string"* %1003 to i64
  br label %1040

1033:                                             ; preds = %1026
  %1034 = bitcast %"class.std::__1::basic_string"* %1003 to i64*
  %1035 = load i64, i64* %1034, align 8
  %1036 = getelementptr inbounds %"struct.cricket::TransportInfo", %"struct.cricket::TransportInfo"* %1, i64 0, i32 1, i32 2, i32 0, i32 0, i32 0, i32 0, i32 0, i32 1
  %1037 = load i64, i64* %1036, align 8
  %1038 = icmp sgt i64 %1037, -1
  br i1 %1038, label %1040, label %1039, !prof !2

1039:                                             ; preds = %1033
  call void @llvm.trap() #17
  unreachable

1040:                                             ; preds = %1030, %1033
  %1041 = phi i64 [ %1035, %1033 ], [ %1032, %1030 ]
  %1042 = phi i64 [ %1037, %1033 ], [ %1031, %1030 ]
  %1043 = inttoptr i64 %1041 to i8*
  %1044 = call dereferenceable(24) %"class.std::__1::basic_string"* @_ZNSt3__112basic_stringIcNS_11char_traitsIcEENS_9allocatorIcEEE6appendEPKcm(%"class.std::__1::basic_string"* nonnull %330, i8* %1043, i64 %1042) #17
  %1045 = load i8, i8* %396, align 1
  %1046 = icmp slt i8 %1045, 0
  %1047 = load i8*, i8** %110, align 8
  %1048 = load i64, i64* %111, align 8
  %1049 = zext i8 %1045 to i64
  %1050 = select i1 %1046, i8* %1047, i8* %109
  %1051 = select i1 %1046, i64 %1048, i64 %1049
  %1052 = call dereferenceable(24) %"class.std::__1::basic_string"* @_ZNSt3__112basic_stringIcNS_11char_traitsIcEENS_9allocatorIcEEE6appendEPKcm(%"class.std::__1::basic_string"* nonnull %5, i8* %1050, i64 %1051) #17
  %1053 = call dereferenceable(24) %"class.std::__1::basic_string"* @_ZNSt3__112basic_stringIcNS_11char_traitsIcEENS_9allocatorIcEEE6appendEPKc(%"class.std::__1::basic_string"* nonnull %5, i8* getelementptr inbounds ([3 x i8], [3 x i8]* @_ZN6webrtcL10kLineBreakE, i64 0, i64 0)) #17
  br label %1054

1054:                                             ; preds = %1040, %1013
  %1055 = getelementptr inbounds %"struct.cricket::TransportInfo", %"struct.cricket::TransportInfo"* %1, i64 0, i32 1, i32 0
  %1056 = getelementptr inbounds %"class.std::__1::vector", %"class.std::__1::vector"* %1055, i64 0, i32 0, i32 0
  %1057 = load %"class.std::__1::basic_string"*, %"class.std::__1::basic_string"** %1056, align 8
  %1058 = getelementptr inbounds %"struct.cricket::TransportInfo", %"struct.cricket::TransportInfo"* %1, i64 0, i32 1, i32 0, i32 0, i32 1
  %1059 = load %"class.std::__1::basic_string"*, %"class.std::__1::basic_string"** %1058, align 8
  %1060 = icmp eq %"class.std::__1::basic_string"* %1057, %1059
  br i1 %1060, label %1151, label %1061

1061:                                             ; preds = %1054
  %1062 = bitcast %"class.rtc::StringBuilder"* %16 to i8*
  call void @llvm.lifetime.start.p0i8(i64 24, i8* nonnull %1062) #17
  %1063 = getelementptr inbounds %"class.rtc::StringBuilder", %"class.rtc::StringBuilder"* %16, i64 0, i32 0, i32 0, i32 0, i32 0, i32 0, i32 0, i32 0
  %1064 = getelementptr inbounds %"class.rtc::StringBuilder", %"class.rtc::StringBuilder"* %16, i64 0, i32 0, i32 0, i32 0, i32 0, i32 0, i32 0, i32 1
  call void @llvm.memset.p0i8.i64(i8* nonnull align 8 %1062, i8 0, i64 24, i1 false) #17
  %1065 = bitcast %"class.std::__1::basic_string"* %17 to i8*
  call void @llvm.lifetime.start.p0i8(i64 24, i8* nonnull %1065) #17
  %1066 = bitcast %"class.std::__1::basic_string"* %17 to %"struct.std::__1::basic_string<char, std::__1::char_traits<char>, std::__1::allocator<char> >::__short"*
  %1067 = getelementptr inbounds %"struct.std::__1::basic_string<char, std::__1::char_traits<char>, std::__1::allocator<char> >::__short", %"struct.std::__1::basic_string<char, std::__1::char_traits<char>, std::__1::allocator<char> >::__short"* %1066, i64 0, i32 1, i32 0
  store i8 11, i8* %1067, align 1
  call void @llvm.memcpy.p0i8.p0i8.i64(i8* nonnull align 8 %1065, i8* align 1 getelementptr inbounds ([12 x i8], [12 x i8]* @_ZN6webrtcL19kAttributeIceOptionE, i64 0, i64 0), i64 11, i1 false) #17
  %1068 = getelementptr inbounds i8, i8* %1065, i64 11
  store i8 0, i8* %1068, align 1
  call fastcc void @_ZN6webrtcL8InitLineEcRKNSt3__112basic_stringIcNS0_11char_traitsIcEENS0_9allocatorIcEEEEPN3rtc13StringBuilderE(i8 signext 97, %"class.std::__1::basic_string"* nonnull dereferenceable(24) %17, %"class.rtc::StringBuilder"* nonnull %16) #17
  %1069 = load i8, i8* %1067, align 1
  %1070 = icmp slt i8 %1069, 0
  br i1 %1070, label %1071, label %1074

1071:                                             ; preds = %1061
  %1072 = getelementptr inbounds %"class.std::__1::basic_string", %"class.std::__1::basic_string"* %17, i64 0, i32 0, i32 0, i32 0, i32 0, i32 0, i32 0
  %1073 = load i8*, i8** %1072, align 8
  call void @_ZdlPv(i8* %1073) #18
  br label %1074

1074:                                             ; preds = %1071, %1061
  call void @llvm.lifetime.end.p0i8(i64 24, i8* nonnull %1065) #17
  %1075 = getelementptr inbounds %"class.rtc::StringBuilder", %"class.rtc::StringBuilder"* %16, i64 0, i32 0
  %1076 = call dereferenceable(24) %"class.std::__1::basic_string"* @_ZNSt3__112basic_stringIcNS_11char_traitsIcEENS_9allocatorIcEEE6appendEPKcm(%"class.std::__1::basic_string"* nonnull %1075, i8* getelementptr inbounds ([2 x i8], [2 x i8]* @_ZN6webrtcL18kSdpDelimiterColonE, i64 0, i64 0), i64 1) #17
  %1077 = load %"class.std::__1::basic_string"*, %"class.std::__1::basic_string"** %1056, align 8
  %1078 = bitcast %"class.std::__1::basic_string"* %1077 to %"struct.std::__1::basic_string<char, std::__1::char_traits<char>, std::__1::allocator<char> >::__short"*
  %1079 = getelementptr inbounds %"struct.std::__1::basic_string<char, std::__1::char_traits<char>, std::__1::allocator<char> >::__short", %"struct.std::__1::basic_string<char, std::__1::char_traits<char>, std::__1::allocator<char> >::__short"* %1078, i64 0, i32 1, i32 0
  %1080 = load i8, i8* %1079, align 1
  %1081 = icmp slt i8 %1080, 0
  br i1 %1081, label %1085, label %1082

1082:                                             ; preds = %1074
  %1083 = zext i8 %1080 to i64
  %1084 = ptrtoint %"class.std::__1::basic_string"* %1077 to i64
  br label %1092

1085:                                             ; preds = %1074
  %1086 = bitcast %"class.std::__1::basic_string"* %1077 to i64*
  %1087 = load i64, i64* %1086, align 8
  %1088 = getelementptr inbounds %"class.std::__1::basic_string", %"class.std::__1::basic_string"* %1077, i64 0, i32 0, i32 0, i32 0, i32 0, i32 0, i32 1
  %1089 = load i64, i64* %1088, align 8
  %1090 = icmp sgt i64 %1089, -1
  br i1 %1090, label %1092, label %1091, !prof !2

1091:                                             ; preds = %1085
  call void @llvm.trap() #17
  unreachable

1092:                                             ; preds = %1085, %1082
  %1093 = phi i64 [ %1087, %1085 ], [ %1084, %1082 ]
  %1094 = phi i64 [ %1089, %1085 ], [ %1083, %1082 ]
  %1095 = inttoptr i64 %1093 to i8*
  %1096 = call dereferenceable(24) %"class.std::__1::basic_string"* @_ZNSt3__112basic_stringIcNS_11char_traitsIcEENS_9allocatorIcEEE6appendEPKcm(%"class.std::__1::basic_string"* nonnull %1075, i8* %1095, i64 %1094) #17
  %1097 = bitcast %"class.std::__1::basic_string"** %1058 to i64*
  %1098 = load i64, i64* %1097, align 8
  %1099 = bitcast %"class.std::__1::vector"* %1055 to i64*
  %1100 = load i64, i64* %1099, align 8
  %1101 = sub i64 %1098, %1100
  %1102 = sdiv exact i64 %1101, 24
  %1103 = icmp ugt i64 %1102, 1
  br i1 %1103, label %1121, label %1104

1104:                                             ; preds = %1140, %1092
  %1105 = bitcast %"class.rtc::StringBuilder"* %16 to %"struct.std::__1::basic_string<char, std::__1::char_traits<char>, std::__1::allocator<char> >::__short"*
  %1106 = getelementptr inbounds %"struct.std::__1::basic_string<char, std::__1::char_traits<char>, std::__1::allocator<char> >::__short", %"struct.std::__1::basic_string<char, std::__1::char_traits<char>, std::__1::allocator<char> >::__short"* %1105, i64 0, i32 1, i32 0
  %1107 = load i8, i8* %1106, align 1
  %1108 = icmp slt i8 %1107, 0
  %1109 = load i8*, i8** %1063, align 8
  %1110 = load i64, i64* %1064, align 8
  %1111 = zext i8 %1107 to i64
  %1112 = select i1 %1108, i8* %1109, i8* %1062
  %1113 = select i1 %1108, i64 %1110, i64 %1111
  %1114 = call dereferenceable(24) %"class.std::__1::basic_string"* @_ZNSt3__112basic_stringIcNS_11char_traitsIcEENS_9allocatorIcEEE6appendEPKcm(%"class.std::__1::basic_string"* nonnull %5, i8* %1112, i64 %1113) #17
  %1115 = call dereferenceable(24) %"class.std::__1::basic_string"* @_ZNSt3__112basic_stringIcNS_11char_traitsIcEENS_9allocatorIcEEE6appendEPKc(%"class.std::__1::basic_string"* nonnull %5, i8* getelementptr inbounds ([3 x i8], [3 x i8]* @_ZN6webrtcL10kLineBreakE, i64 0, i64 0)) #17
  %1116 = load i8, i8* %1106, align 1
  %1117 = icmp slt i8 %1116, 0
  br i1 %1117, label %1118, label %1120

1118:                                             ; preds = %1104
  %1119 = load i8*, i8** %1063, align 8
  call void @_ZdlPv(i8* %1119) #18
  br label %1120

1120:                                             ; preds = %1118, %1104
  call void @llvm.lifetime.end.p0i8(i64 24, i8* nonnull %1062) #17
  br label %1151

1121:                                             ; preds = %1092, %1140
  %1122 = phi i64 [ %1145, %1140 ], [ 1, %1092 ]
  %1123 = call dereferenceable(24) %"class.std::__1::basic_string"* @_ZNSt3__112basic_stringIcNS_11char_traitsIcEENS_9allocatorIcEEE6appendEPKcm(%"class.std::__1::basic_string"* nonnull %1075, i8* getelementptr inbounds ([2 x i8], [2 x i8]* @.str.4, i64 0, i64 0), i64 1) #17
  %1124 = load %"class.std::__1::basic_string"*, %"class.std::__1::basic_string"** %1056, align 8
  %1125 = getelementptr inbounds %"class.std::__1::basic_string", %"class.std::__1::basic_string"* %1124, i64 %1122
  %1126 = bitcast %"class.std::__1::basic_string"* %1125 to %"struct.std::__1::basic_string<char, std::__1::char_traits<char>, std::__1::allocator<char> >::__short"*
  %1127 = getelementptr inbounds %"struct.std::__1::basic_string<char, std::__1::char_traits<char>, std::__1::allocator<char> >::__short", %"struct.std::__1::basic_string<char, std::__1::char_traits<char>, std::__1::allocator<char> >::__short"* %1126, i64 0, i32 1, i32 0
  %1128 = load i8, i8* %1127, align 1
  %1129 = icmp slt i8 %1128, 0
  br i1 %1129, label %1133, label %1130

1130:                                             ; preds = %1121
  %1131 = zext i8 %1128 to i64
  %1132 = ptrtoint %"class.std::__1::basic_string"* %1125 to i64
  br label %1140

1133:                                             ; preds = %1121
  %1134 = bitcast %"class.std::__1::basic_string"* %1125 to i64*
  %1135 = load i64, i64* %1134, align 8
  %1136 = getelementptr inbounds %"class.std::__1::basic_string", %"class.std::__1::basic_string"* %1124, i64 %1122, i32 0, i32 0, i32 0, i32 0, i32 0, i32 1
  %1137 = load i64, i64* %1136, align 8
  %1138 = icmp sgt i64 %1137, -1
  br i1 %1138, label %1140, label %1139, !prof !2

1139:                                             ; preds = %1133
  call void @llvm.trap() #17
  unreachable

1140:                                             ; preds = %1133, %1130
  %1141 = phi i64 [ %1135, %1133 ], [ %1132, %1130 ]
  %1142 = phi i64 [ %1137, %1133 ], [ %1131, %1130 ]
  %1143 = inttoptr i64 %1141 to i8*
  %1144 = call dereferenceable(24) %"class.std::__1::basic_string"* @_ZNSt3__112basic_stringIcNS_11char_traitsIcEENS_9allocatorIcEEE6appendEPKcm(%"class.std::__1::basic_string"* nonnull %1075, i8* %1143, i64 %1142) #17
  %1145 = add nuw i64 %1122, 1
  %1146 = load i64, i64* %1097, align 8
  %1147 = load i64, i64* %1099, align 8
  %1148 = sub i64 %1146, %1147
  %1149 = sdiv exact i64 %1148, 24
  %1150 = icmp ult i64 %1145, %1149
  br i1 %1150, label %1121, label %1104

1151:                                             ; preds = %1054, %1120
  %1152 = icmp eq %"struct.rtc::SSLFingerprint"* %329, null
  br i1 %1152, label %1271, label %1153

1153:                                             ; preds = %1151
  %1154 = bitcast %"class.std::__1::basic_string"* %97 to i8*
  call void @llvm.lifetime.start.p0i8(i64 24, i8* nonnull %1154) #17
  %1155 = bitcast %"class.std::__1::basic_string"* %97 to %"struct.std::__1::basic_string<char, std::__1::char_traits<char>, std::__1::allocator<char> >::__short"*
  %1156 = getelementptr inbounds %"struct.std::__1::basic_string<char, std::__1::char_traits<char>, std::__1::allocator<char> >::__short", %"struct.std::__1::basic_string<char, std::__1::char_traits<char>, std::__1::allocator<char> >::__short"* %1155, i64 0, i32 1, i32 0
  store i8 11, i8* %1156, align 1
  call void @llvm.memcpy.p0i8.p0i8.i64(i8* nonnull align 8 %1154, i8* align 1 getelementptr inbounds ([12 x i8], [12 x i8]* @_ZN6webrtcL21kAttributeFingerprintE, i64 0, i64 0), i64 11, i1 false) #17
  %1157 = getelementptr inbounds i8, i8* %1154, i64 11
  store i8 0, i8* %1157, align 1
  call fastcc void @_ZN6webrtcL8InitLineEcRKNSt3__112basic_stringIcNS0_11char_traitsIcEENS0_9allocatorIcEEEEPN3rtc13StringBuilderE(i8 signext 97, %"class.std::__1::basic_string"* nonnull dereferenceable(24) %97, %"class.rtc::StringBuilder"* nonnull %79) #17
  %1158 = load i8, i8* %1156, align 1
  %1159 = icmp slt i8 %1158, 0
  br i1 %1159, label %1160, label %1163

1160:                                             ; preds = %1153
  %1161 = getelementptr inbounds %"class.std::__1::basic_string", %"class.std::__1::basic_string"* %97, i64 0, i32 0, i32 0, i32 0, i32 0, i32 0, i32 0
  %1162 = load i8*, i8** %1161, align 8
  call void @_ZdlPv(i8* %1162) #18
  br label %1163

1163:                                             ; preds = %1153, %1160
  call void @llvm.lifetime.end.p0i8(i64 24, i8* nonnull %1154) #17
  %1164 = call dereferenceable(24) %"class.std::__1::basic_string"* @_ZNSt3__112basic_stringIcNS_11char_traitsIcEENS_9allocatorIcEEE6appendEPKcm(%"class.std::__1::basic_string"* nonnull %330, i8* getelementptr inbounds ([2 x i8], [2 x i8]* @_ZN6webrtcL18kSdpDelimiterColonE, i64 0, i64 0), i64 1) #17
  %1165 = getelementptr inbounds %"struct.std::__1::basic_string<char, std::__1::char_traits<char>, std::__1::allocator<char> >::__short", %"struct.std::__1::basic_string<char, std::__1::char_traits<char>, std::__1::allocator<char> >::__short"* %328, i64 0, i32 1, i32 0
  %1166 = load i8, i8* %1165, align 1
  %1167 = icmp slt i8 %1166, 0
  br i1 %1167, label %1171, label %1168

1168:                                             ; preds = %1163
  %1169 = zext i8 %1166 to i64
  %1170 = ptrtoint %"struct.rtc::SSLFingerprint"* %329 to i64
  br label %1178

1171:                                             ; preds = %1163
  %1172 = bitcast %"struct.rtc::SSLFingerprint"* %329 to i64*
  %1173 = load i64, i64* %1172, align 8
  %1174 = getelementptr inbounds %"struct.rtc::SSLFingerprint", %"struct.rtc::SSLFingerprint"* %329, i64 0, i32 0, i32 0, i32 0, i32 0, i32 0, i32 0, i32 1
  %1175 = load i64, i64* %1174, align 8
  %1176 = icmp sgt i64 %1175, -1
  br i1 %1176, label %1178, label %1177, !prof !2

1177:                                             ; preds = %1171
  call void @llvm.trap() #17
  unreachable

1178:                                             ; preds = %1168, %1171
  %1179 = phi i64 [ %1173, %1171 ], [ %1170, %1168 ]
  %1180 = phi i64 [ %1175, %1171 ], [ %1169, %1168 ]
  %1181 = inttoptr i64 %1179 to i8*
  %1182 = call dereferenceable(24) %"class.std::__1::basic_string"* @_ZNSt3__112basic_stringIcNS_11char_traitsIcEENS_9allocatorIcEEE6appendEPKcm(%"class.std::__1::basic_string"* nonnull %330, i8* %1181, i64 %1180) #17
  %1183 = call dereferenceable(24) %"class.std::__1::basic_string"* @_ZNSt3__112basic_stringIcNS_11char_traitsIcEENS_9allocatorIcEEE6appendEPKcm(%"class.std::__1::basic_string"* nonnull %330, i8* getelementptr inbounds ([2 x i8], [2 x i8]* @.str.4, i64 0, i64 0), i64 1) #17
  %1184 = bitcast %"class.std::__1::basic_string"* %98 to i8*
  call void @llvm.lifetime.start.p0i8(i64 24, i8* nonnull %1184) #17
  call void @_ZNK3rtc14SSLFingerprint21GetRfc4572FingerprintEv(%"class.std::__1::basic_string"* nonnull sret %98, %"struct.rtc::SSLFingerprint"* nonnull %329) #17
  %1185 = bitcast %"class.std::__1::basic_string"* %98 to %"struct.std::__1::basic_string<char, std::__1::char_traits<char>, std::__1::allocator<char> >::__short"*
  %1186 = getelementptr inbounds %"struct.std::__1::basic_string<char, std::__1::char_traits<char>, std::__1::allocator<char> >::__short", %"struct.std::__1::basic_string<char, std::__1::char_traits<char>, std::__1::allocator<char> >::__short"* %1185, i64 0, i32 1, i32 0
  %1187 = load i8, i8* %1186, align 1
  %1188 = icmp slt i8 %1187, 0
  br i1 %1188, label %1192, label %1189

1189:                                             ; preds = %1178
  %1190 = zext i8 %1187 to i64
  %1191 = ptrtoint %"class.std::__1::basic_string"* %98 to i64
  br label %1199

1192:                                             ; preds = %1178
  %1193 = bitcast %"class.std::__1::basic_string"* %98 to i64*
  %1194 = load i64, i64* %1193, align 8
  %1195 = getelementptr inbounds %"class.std::__1::basic_string", %"class.std::__1::basic_string"* %98, i64 0, i32 0, i32 0, i32 0, i32 0, i32 0, i32 1
  %1196 = load i64, i64* %1195, align 8
  %1197 = icmp sgt i64 %1196, -1
  br i1 %1197, label %1199, label %1198, !prof !2

1198:                                             ; preds = %1192
  call void @llvm.trap() #17
  unreachable

1199:                                             ; preds = %1189, %1192
  %1200 = phi i64 [ %1194, %1192 ], [ %1191, %1189 ]
  %1201 = phi i64 [ %1196, %1192 ], [ %1190, %1189 ]
  %1202 = inttoptr i64 %1200 to i8*
  %1203 = call dereferenceable(24) %"class.std::__1::basic_string"* @_ZNSt3__112basic_stringIcNS_11char_traitsIcEENS_9allocatorIcEEE6appendEPKcm(%"class.std::__1::basic_string"* nonnull %330, i8* %1202, i64 %1201) #17
  %1204 = load i8, i8* %1186, align 1
  %1205 = icmp slt i8 %1204, 0
  br i1 %1205, label %1206, label %1209

1206:                                             ; preds = %1199
  %1207 = getelementptr inbounds %"class.std::__1::basic_string", %"class.std::__1::basic_string"* %98, i64 0, i32 0, i32 0, i32 0, i32 0, i32 0, i32 0
  %1208 = load i8*, i8** %1207, align 8
  call void @_ZdlPv(i8* %1208) #18
  br label %1209

1209:                                             ; preds = %1199, %1206
  call void @llvm.lifetime.end.p0i8(i64 24, i8* nonnull %1184) #17
  %1210 = load i8, i8* %396, align 1
  %1211 = icmp slt i8 %1210, 0
  %1212 = load i8*, i8** %110, align 8
  %1213 = load i64, i64* %111, align 8
  %1214 = zext i8 %1210 to i64
  %1215 = select i1 %1211, i8* %1212, i8* %109
  %1216 = select i1 %1211, i64 %1213, i64 %1214
  %1217 = call dereferenceable(24) %"class.std::__1::basic_string"* @_ZNSt3__112basic_stringIcNS_11char_traitsIcEENS_9allocatorIcEEE6appendEPKcm(%"class.std::__1::basic_string"* nonnull %5, i8* %1215, i64 %1216) #17
  %1218 = call dereferenceable(24) %"class.std::__1::basic_string"* @_ZNSt3__112basic_stringIcNS_11char_traitsIcEENS_9allocatorIcEEE6appendEPKc(%"class.std::__1::basic_string"* nonnull %5, i8* getelementptr inbounds ([3 x i8], [3 x i8]* @_ZN6webrtcL10kLineBreakE, i64 0, i64 0)) #17
  %1219 = getelementptr inbounds %"struct.cricket::TransportInfo", %"struct.cricket::TransportInfo"* %1, i64 0, i32 1, i32 4
  %1220 = load i32, i32* %1219, align 4
  %1221 = icmp eq i32 %1220, 0
  br i1 %1221, label %1271, label %1222

1222:                                             ; preds = %1209
  %1223 = bitcast i32* %99 to i8*
  call void @llvm.lifetime.start.p0i8(i64 4, i8* nonnull %1223) #17
  store i32 %1220, i32* %99, align 4
  %1224 = bitcast %"class.std::__1::basic_string"* %100 to i8*
  call void @llvm.lifetime.start.p0i8(i64 24, i8* nonnull %1224) #17
  %1225 = getelementptr inbounds %"class.std::__1::basic_string", %"class.std::__1::basic_string"* %100, i64 0, i32 0, i32 0, i32 0, i32 0, i32 0, i32 0
  %1226 = getelementptr inbounds %"class.std::__1::basic_string", %"class.std::__1::basic_string"* %100, i64 0, i32 0, i32 0, i32 0, i32 0, i32 0, i32 1
  call void @llvm.memset.p0i8.i64(i8* nonnull align 8 %1224, i8 0, i64 24, i1 false) #17
  %1227 = call zeroext i1 @_ZN7cricket22ConnectionRoleToStringERKNS_14ConnectionRoleEPNSt3__112basic_stringIcNS3_11char_traitsIcEENS3_9allocatorIcEEEE(i32* nonnull dereferenceable(4) %99, %"class.std::__1::basic_string"* nonnull %100) #17
  %1228 = bitcast %"class.std::__1::basic_string"* %101 to i8*
  call void @llvm.lifetime.start.p0i8(i64 24, i8* nonnull %1228) #17
  %1229 = bitcast %"class.std::__1::basic_string"* %101 to %"struct.std::__1::basic_string<char, std::__1::char_traits<char>, std::__1::allocator<char> >::__short"*
  %1230 = getelementptr inbounds %"struct.std::__1::basic_string<char, std::__1::char_traits<char>, std::__1::allocator<char> >::__short", %"struct.std::__1::basic_string<char, std::__1::char_traits<char>, std::__1::allocator<char> >::__short"* %1229, i64 0, i32 1, i32 0
  store i8 5, i8* %1230, align 1
  call void @llvm.memcpy.p0i8.p0i8.i64(i8* nonnull align 8 %1228, i8* align 1 getelementptr inbounds ([6 x i8], [6 x i8]* @_ZN6webrtcL15kAttributeSetupE, i64 0, i64 0), i64 5, i1 false) #17
  %1231 = getelementptr inbounds i8, i8* %1228, i64 5
  store i8 0, i8* %1231, align 1
  call fastcc void @_ZN6webrtcL8InitLineEcRKNSt3__112basic_stringIcNS0_11char_traitsIcEENS0_9allocatorIcEEEEPN3rtc13StringBuilderE(i8 signext 97, %"class.std::__1::basic_string"* nonnull dereferenceable(24) %101, %"class.rtc::StringBuilder"* nonnull %79) #17
  %1232 = load i8, i8* %1230, align 1
  %1233 = icmp slt i8 %1232, 0
  br i1 %1233, label %1234, label %1237

1234:                                             ; preds = %1222
  %1235 = getelementptr inbounds %"class.std::__1::basic_string", %"class.std::__1::basic_string"* %101, i64 0, i32 0, i32 0, i32 0, i32 0, i32 0, i32 0
  %1236 = load i8*, i8** %1235, align 8
  call void @_ZdlPv(i8* %1236) #18
  br label %1237

1237:                                             ; preds = %1222, %1234
  call void @llvm.lifetime.end.p0i8(i64 24, i8* nonnull %1228) #17
  %1238 = call dereferenceable(24) %"class.std::__1::basic_string"* @_ZNSt3__112basic_stringIcNS_11char_traitsIcEENS_9allocatorIcEEE6appendEPKcm(%"class.std::__1::basic_string"* nonnull %330, i8* getelementptr inbounds ([2 x i8], [2 x i8]* @_ZN6webrtcL18kSdpDelimiterColonE, i64 0, i64 0), i64 1) #17
  %1239 = bitcast %"class.std::__1::basic_string"* %100 to %"struct.std::__1::basic_string<char, std::__1::char_traits<char>, std::__1::allocator<char> >::__short"*
  %1240 = getelementptr inbounds %"struct.std::__1::basic_string<char, std::__1::char_traits<char>, std::__1::allocator<char> >::__short", %"struct.std::__1::basic_string<char, std::__1::char_traits<char>, std::__1::allocator<char> >::__short"* %1239, i64 0, i32 1, i32 0
  %1241 = load i8, i8* %1240, align 1
  %1242 = icmp slt i8 %1241, 0
  br i1 %1242, label %1246, label %1243

1243:                                             ; preds = %1237
  %1244 = zext i8 %1241 to i64
  %1245 = ptrtoint %"class.std::__1::basic_string"* %100 to i64
  br label %1252

1246:                                             ; preds = %1237
  %1247 = bitcast %"class.std::__1::basic_string"* %100 to i64*
  %1248 = load i64, i64* %1247, align 8
  %1249 = load i64, i64* %1226, align 8
  %1250 = icmp sgt i64 %1249, -1
  br i1 %1250, label %1252, label %1251, !prof !2

1251:                                             ; preds = %1246
  call void @llvm.trap() #17
  unreachable

1252:                                             ; preds = %1243, %1246
  %1253 = phi i64 [ %1248, %1246 ], [ %1245, %1243 ]
  %1254 = phi i64 [ %1249, %1246 ], [ %1244, %1243 ]
  %1255 = inttoptr i64 %1253 to i8*
  %1256 = call dereferenceable(24) %"class.std::__1::basic_string"* @_ZNSt3__112basic_stringIcNS_11char_traitsIcEENS_9allocatorIcEEE6appendEPKcm(%"class.std::__1::basic_string"* nonnull %330, i8* %1255, i64 %1254) #17
  %1257 = load i8, i8* %396, align 1
  %1258 = icmp slt i8 %1257, 0
  %1259 = load i8*, i8** %110, align 8
  %1260 = load i64, i64* %111, align 8
  %1261 = zext i8 %1257 to i64
  %1262 = select i1 %1258, i8* %1259, i8* %109
  %1263 = select i1 %1258, i64 %1260, i64 %1261
  %1264 = call dereferenceable(24) %"class.std::__1::basic_string"* @_ZNSt3__112basic_stringIcNS_11char_traitsIcEENS_9allocatorIcEEE6appendEPKcm(%"class.std::__1::basic_string"* nonnull %5, i8* %1262, i64 %1263) #17
  %1265 = call dereferenceable(24) %"class.std::__1::basic_string"* @_ZNSt3__112basic_stringIcNS_11char_traitsIcEENS_9allocatorIcEEE6appendEPKc(%"class.std::__1::basic_string"* nonnull %5, i8* getelementptr inbounds ([3 x i8], [3 x i8]* @_ZN6webrtcL10kLineBreakE, i64 0, i64 0)) #17
  %1266 = load i8, i8* %1240, align 1
  %1267 = icmp slt i8 %1266, 0
  br i1 %1267, label %1268, label %1270

1268:                                             ; preds = %1252
  %1269 = load i8*, i8** %1225, align 8
  call void @_ZdlPv(i8* %1269) #18
  br label %1270

1270:                                             ; preds = %1252, %1268
  call void @llvm.lifetime.end.p0i8(i64 24, i8* nonnull %1224) #17
  call void @llvm.lifetime.end.p0i8(i64 4, i8* nonnull %1223) #17
  br label %1271

1271:                                             ; preds = %1209, %1151, %1270, %949
  %1272 = bitcast %"class.std::__1::basic_string"* %102 to i8*
  call void @llvm.lifetime.start.p0i8(i64 24, i8* nonnull %1272) #17
  %1273 = bitcast %"class.std::__1::basic_string"* %102 to %"struct.std::__1::basic_string<char, std::__1::char_traits<char>, std::__1::allocator<char> >::__short"*
  %1274 = getelementptr inbounds %"struct.std::__1::basic_string<char, std::__1::char_traits<char>, std::__1::allocator<char> >::__short", %"struct.std::__1::basic_string<char, std::__1::char_traits<char>, std::__1::allocator<char> >::__short"* %1273, i64 0, i32 1, i32 0
  store i8 3, i8* %1274, align 1
  call void @llvm.memcpy.p0i8.p0i8.i64(i8* nonnull align 8 %1272, i8* align 1 getelementptr inbounds ([4 x i8], [4 x i8]* @_ZN6webrtcL13kAttributeMidE, i64 0, i64 0), i64 3, i1 false) #17
  %1275 = getelementptr inbounds i8, i8* %1272, i64 3
  store i8 0, i8* %1275, align 1
  call fastcc void @_ZN6webrtcL8InitLineEcRKNSt3__112basic_stringIcNS0_11char_traitsIcEENS0_9allocatorIcEEEEPN3rtc13StringBuilderE(i8 signext 97, %"class.std::__1::basic_string"* nonnull dereferenceable(24) %102, %"class.rtc::StringBuilder"* nonnull %79) #17
  %1276 = load i8, i8* %1274, align 1
  %1277 = icmp slt i8 %1276, 0
  br i1 %1277, label %1278, label %1281

1278:                                             ; preds = %1271
  %1279 = getelementptr inbounds %"class.std::__1::basic_string", %"class.std::__1::basic_string"* %102, i64 0, i32 0, i32 0, i32 0, i32 0, i32 0, i32 0
  %1280 = load i8*, i8** %1279, align 8
  call void @_ZdlPv(i8* %1280) #18
  br label %1281

1281:                                             ; preds = %1271, %1278
  call void @llvm.lifetime.end.p0i8(i64 24, i8* nonnull %1272) #17
  %1282 = call dereferenceable(24) %"class.std::__1::basic_string"* @_ZNSt3__112basic_stringIcNS_11char_traitsIcEENS_9allocatorIcEEE6appendEPKcm(%"class.std::__1::basic_string"* nonnull %330, i8* getelementptr inbounds ([2 x i8], [2 x i8]* @_ZN6webrtcL18kSdpDelimiterColonE, i64 0, i64 0), i64 1) #17
  %1283 = bitcast %"class.cricket::ContentInfo"* %0 to %"struct.std::__1::basic_string<char, std::__1::char_traits<char>, std::__1::allocator<char> >::__short"*
  %1284 = getelementptr inbounds %"struct.std::__1::basic_string<char, std::__1::char_traits<char>, std::__1::allocator<char> >::__short", %"struct.std::__1::basic_string<char, std::__1::char_traits<char>, std::__1::allocator<char> >::__short"* %1283, i64 0, i32 1, i32 0
  %1285 = load i8, i8* %1284, align 1
  %1286 = icmp slt i8 %1285, 0
  br i1 %1286, label %1290, label %1287

1287:                                             ; preds = %1281
  %1288 = zext i8 %1285 to i64
  %1289 = ptrtoint %"class.cricket::ContentInfo"* %0 to i64
  br label %1297

1290:                                             ; preds = %1281
  %1291 = bitcast %"class.cricket::ContentInfo"* %0 to i64*
  %1292 = load i64, i64* %1291, align 8
  %1293 = getelementptr inbounds %"class.cricket::ContentInfo", %"class.cricket::ContentInfo"* %0, i64 0, i32 0, i32 0, i32 0, i32 0, i32 0, i32 0, i32 1
  %1294 = load i64, i64* %1293, align 8
  %1295 = icmp sgt i64 %1294, -1
  br i1 %1295, label %1297, label %1296, !prof !2

1296:                                             ; preds = %1290
  call void @llvm.trap() #17
  unreachable

1297:                                             ; preds = %1287, %1290
  %1298 = phi i64 [ %1292, %1290 ], [ %1289, %1287 ]
  %1299 = phi i64 [ %1294, %1290 ], [ %1288, %1287 ]
  %1300 = inttoptr i64 %1298 to i8*
  %1301 = call dereferenceable(24) %"class.std::__1::basic_string"* @_ZNSt3__112basic_stringIcNS_11char_traitsIcEENS_9allocatorIcEEE6appendEPKcm(%"class.std::__1::basic_string"* nonnull %330, i8* %1300, i64 %1299) #17
  %1302 = load i8, i8* %396, align 1
  %1303 = icmp slt i8 %1302, 0
  %1304 = load i8*, i8** %110, align 8
  %1305 = load i64, i64* %111, align 8
  %1306 = zext i8 %1302 to i64
  %1307 = select i1 %1303, i8* %1304, i8* %109
  %1308 = select i1 %1303, i64 %1305, i64 %1306
  %1309 = call dereferenceable(24) %"class.std::__1::basic_string"* @_ZNSt3__112basic_stringIcNS_11char_traitsIcEENS_9allocatorIcEEE6appendEPKcm(%"class.std::__1::basic_string"* nonnull %5, i8* %1307, i64 %1308) #17
  %1310 = call dereferenceable(24) %"class.std::__1::basic_string"* @_ZNSt3__112basic_stringIcNS_11char_traitsIcEENS_9allocatorIcEEE6appendEPKc(%"class.std::__1::basic_string"* nonnull %5, i8* getelementptr inbounds ([3 x i8], [3 x i8]* @_ZN6webrtcL10kLineBreakE, i64 0, i64 0)) #17
  %1311 = bitcast %"class.std::__1::basic_string"* %103 to i8*
  call void @llvm.lifetime.start.p0i8(i64 24, i8* nonnull %1311) #17
  %1312 = load void (%"class.std::__1::basic_string"*, %"class.cricket::MediaContentDescription"*)**, void (%"class.std::__1::basic_string"*, %"class.cricket::MediaContentDescription"*)*** %350, align 8
  %1313 = getelementptr inbounds void (%"class.std::__1::basic_string"*, %"class.cricket::MediaContentDescription"*)*, void (%"class.std::__1::basic_string"*, %"class.cricket::MediaContentDescription"*)** %1312, i64 12
  %1314 = load void (%"class.std::__1::basic_string"*, %"class.cricket::MediaContentDescription"*)*, void (%"class.std::__1::basic_string"*, %"class.cricket::MediaContentDescription"*)** %1313, align 8
  call void %1314(%"class.std::__1::basic_string"* nonnull sret %103, %"class.cricket::MediaContentDescription"* %112) #17
  %1315 = call zeroext i1 @_ZN7cricket10IsDtlsSctpERKNSt3__112basic_stringIcNS0_11char_traitsIcEENS0_9allocatorIcEEEE(%"class.std::__1::basic_string"* nonnull dereferenceable(24) %103) #17
  %1316 = bitcast %"class.std::__1::basic_string"* %103 to %"struct.std::__1::basic_string<char, std::__1::char_traits<char>, std::__1::allocator<char> >::__short"*
  %1317 = getelementptr inbounds %"struct.std::__1::basic_string<char, std::__1::char_traits<char>, std::__1::allocator<char> >::__short", %"struct.std::__1::basic_string<char, std::__1::char_traits<char>, std::__1::allocator<char> >::__short"* %1316, i64 0, i32 1, i32 0
  %1318 = load i8, i8* %1317, align 1
  %1319 = icmp slt i8 %1318, 0
  br i1 %1319, label %1320, label %1323

1320:                                             ; preds = %1297
  %1321 = getelementptr inbounds %"class.std::__1::basic_string", %"class.std::__1::basic_string"* %103, i64 0, i32 0, i32 0, i32 0, i32 0, i32 0, i32 0
  %1322 = load i8*, i8** %1321, align 8
  call void @_ZdlPv(i8* %1322) #18
  br label %1323

1323:                                             ; preds = %1297, %1320
  call void @llvm.lifetime.end.p0i8(i64 24, i8* nonnull %1311) #17
  br i1 %1315, label %1324, label %1506

1324:                                             ; preds = %1323
  %1325 = bitcast %"class.cricket::MediaContentDescription"* %112 to %"class.cricket::SctpDataContentDescription"* (%"class.cricket::MediaContentDescription"*)***
  %1326 = load %"class.cricket::SctpDataContentDescription"* (%"class.cricket::MediaContentDescription"*)**, %"class.cricket::SctpDataContentDescription"* (%"class.cricket::MediaContentDescription"*)*** %1325, align 8
  %1327 = getelementptr inbounds %"class.cricket::SctpDataContentDescription"* (%"class.cricket::MediaContentDescription"*)*, %"class.cricket::SctpDataContentDescription"* (%"class.cricket::MediaContentDescription"*)** %1326, i64 8
  %1328 = load %"class.cricket::SctpDataContentDescription"* (%"class.cricket::MediaContentDescription"*)*, %"class.cricket::SctpDataContentDescription"* (%"class.cricket::MediaContentDescription"*)** %1327, align 8
  %1329 = call %"class.cricket::SctpDataContentDescription"* %1328(%"class.cricket::MediaContentDescription"* %112) #17
  %1330 = bitcast %"class.rtc::StringBuilder"* %11 to i8*
  call void @llvm.lifetime.start.p0i8(i64 24, i8* nonnull %1330) #17
  %1331 = getelementptr inbounds %"class.rtc::StringBuilder", %"class.rtc::StringBuilder"* %11, i64 0, i32 0, i32 0, i32 0, i32 0, i32 0, i32 0, i32 0
  %1332 = getelementptr inbounds %"class.rtc::StringBuilder", %"class.rtc::StringBuilder"* %11, i64 0, i32 0, i32 0, i32 0, i32 0, i32 0, i32 0, i32 1
  call void @llvm.memset.p0i8.i64(i8* nonnull align 8 %1330, i8 0, i64 24, i1 false) #17
  %1333 = getelementptr inbounds %"class.cricket::SctpDataContentDescription", %"class.cricket::SctpDataContentDescription"* %1329, i64 0, i32 1
  %1334 = load i8, i8* %1333, align 8, !range !3
  %1335 = icmp eq i8 %1334, 0
  br i1 %1335, label %1410, label %1336

1336:                                             ; preds = %1324
  %1337 = bitcast %"class.rtc::StringBuilder"* %12 to i8*
  call void @llvm.lifetime.start.p0i8(i64 24, i8* nonnull %1337) #17
  %1338 = getelementptr inbounds %"class.rtc::StringBuilder", %"class.rtc::StringBuilder"* %12, i64 0, i32 0, i32 0, i32 0, i32 0, i32 0, i32 0, i32 0
  %1339 = getelementptr inbounds %"class.rtc::StringBuilder", %"class.rtc::StringBuilder"* %12, i64 0, i32 0, i32 0, i32 0, i32 0, i32 0, i32 0, i32 1
  call void @llvm.memset.p0i8.i64(i8* nonnull align 8 %1337, i8 0, i64 24, i1 false) #17
  %1340 = bitcast %"class.std::__1::basic_string"* %13 to i8*
  call void @llvm.lifetime.start.p0i8(i64 24, i8* nonnull %1340) #17
  %1341 = bitcast %"class.std::__1::basic_string"* %13 to %"struct.std::__1::basic_string<char, std::__1::char_traits<char>, std::__1::allocator<char> >::__short"*
  %1342 = getelementptr inbounds %"struct.std::__1::basic_string<char, std::__1::char_traits<char>, std::__1::allocator<char> >::__short", %"struct.std::__1::basic_string<char, std::__1::char_traits<char>, std::__1::allocator<char> >::__short"* %1341, i64 0, i32 1, i32 0
  store i8 7, i8* %1342, align 1
  call void @llvm.memcpy.p0i8.p0i8.i64(i8* nonnull align 8 %1340, i8* align 1 getelementptr inbounds ([8 x i8], [8 x i8]* @_ZN6webrtcL17kAttributeSctpmapE, i64 0, i64 0), i64 7, i1 false) #17
  %1343 = getelementptr inbounds i8, i8* %1340, i64 7
  store i8 0, i8* %1343, align 1
  call fastcc void @_ZN6webrtcL8InitLineEcRKNSt3__112basic_stringIcNS0_11char_traitsIcEENS0_9allocatorIcEEEEPN3rtc13StringBuilderE(i8 signext 97, %"class.std::__1::basic_string"* nonnull dereferenceable(24) %13, %"class.rtc::StringBuilder"* nonnull %12) #17
  %1344 = load i8, i8* %1342, align 1
  %1345 = icmp slt i8 %1344, 0
  br i1 %1345, label %1346, label %1349

1346:                                             ; preds = %1336
  %1347 = getelementptr inbounds %"class.std::__1::basic_string", %"class.std::__1::basic_string"* %13, i64 0, i32 0, i32 0, i32 0, i32 0, i32 0, i32 0
  %1348 = load i8*, i8** %1347, align 8
  call void @_ZdlPv(i8* %1348) #18
  br label %1349

1349:                                             ; preds = %1346, %1336
  call void @llvm.lifetime.end.p0i8(i64 24, i8* nonnull %1340) #17
  %1350 = getelementptr inbounds %"class.rtc::StringBuilder", %"class.rtc::StringBuilder"* %12, i64 0, i32 0
  %1351 = call dereferenceable(24) %"class.std::__1::basic_string"* @_ZNSt3__112basic_stringIcNS_11char_traitsIcEENS_9allocatorIcEEE6appendEPKcm(%"class.std::__1::basic_string"* nonnull %1350, i8* getelementptr inbounds ([2 x i8], [2 x i8]* @_ZN6webrtcL18kSdpDelimiterColonE, i64 0, i64 0), i64 1) #17
  %1352 = getelementptr inbounds %"class.cricket::SctpDataContentDescription", %"class.cricket::SctpDataContentDescription"* %1329, i64 0, i32 3
  %1353 = load i32, i32* %1352, align 4
  %1354 = bitcast %"class.std::__1::basic_string"* %10 to i8*
  call void @llvm.lifetime.start.p0i8(i64 24, i8* nonnull %1354) #17
  call void @_ZN3rtc8ToStringEi(%"class.std::__1::basic_string"* nonnull sret %10, i32 %1353) #17
  %1355 = bitcast %"class.std::__1::basic_string"* %10 to %"struct.std::__1::basic_string<char, std::__1::char_traits<char>, std::__1::allocator<char> >::__short"*
  %1356 = getelementptr inbounds %"struct.std::__1::basic_string<char, std::__1::char_traits<char>, std::__1::allocator<char> >::__short", %"struct.std::__1::basic_string<char, std::__1::char_traits<char>, std::__1::allocator<char> >::__short"* %1355, i64 0, i32 1, i32 0
  %1357 = load i8, i8* %1356, align 1
  %1358 = icmp slt i8 %1357, 0
  %1359 = getelementptr inbounds %"class.std::__1::basic_string", %"class.std::__1::basic_string"* %10, i64 0, i32 0, i32 0, i32 0, i32 0, i32 0, i32 0
  %1360 = load i8*, i8** %1359, align 8
  %1361 = getelementptr inbounds %"class.std::__1::basic_string", %"class.std::__1::basic_string"* %10, i64 0, i32 0, i32 0, i32 0, i32 0, i32 0, i32 1
  %1362 = load i64, i64* %1361, align 8
  %1363 = zext i8 %1357 to i64
  %1364 = select i1 %1358, i8* %1360, i8* %1354
  %1365 = select i1 %1358, i64 %1362, i64 %1363
  %1366 = call dereferenceable(24) %"class.std::__1::basic_string"* @_ZNSt3__112basic_stringIcNS_11char_traitsIcEENS_9allocatorIcEEE6appendEPKcm(%"class.std::__1::basic_string"* nonnull %1350, i8* %1364, i64 %1365) #17
  %1367 = load i8, i8* %1356, align 1
  %1368 = icmp slt i8 %1367, 0
  br i1 %1368, label %1369, label %1371

1369:                                             ; preds = %1349
  %1370 = load i8*, i8** %1359, align 8
  call void @_ZdlPv(i8* %1370) #18
  br label %1371

1371:                                             ; preds = %1369, %1349
  call void @llvm.lifetime.end.p0i8(i64 24, i8* nonnull %1354) #17
  %1372 = call dereferenceable(24) %"class.std::__1::basic_string"* @_ZNSt3__112basic_stringIcNS_11char_traitsIcEENS_9allocatorIcEEE6appendEPKcm(%"class.std::__1::basic_string"* nonnull %1350, i8* getelementptr inbounds ([2 x i8], [2 x i8]* @.str.4, i64 0, i64 0), i64 1) #17
  %1373 = call dereferenceable(24) %"class.std::__1::basic_string"* @_ZNSt3__112basic_stringIcNS_11char_traitsIcEENS_9allocatorIcEEE6appendEPKcm(%"class.std::__1::basic_string"* nonnull %1350, i8* getelementptr inbounds ([19 x i8], [19 x i8]* @_ZN6webrtcL23kDefaultSctpmapProtocolE, i64 0, i64 0), i64 18) #17
  %1374 = call dereferenceable(24) %"class.std::__1::basic_string"* @_ZNSt3__112basic_stringIcNS_11char_traitsIcEENS_9allocatorIcEEE6appendEPKcm(%"class.std::__1::basic_string"* nonnull %1350, i8* getelementptr inbounds ([2 x i8], [2 x i8]* @.str.4, i64 0, i64 0), i64 1) #17
  %1375 = bitcast %"class.std::__1::basic_string"* %9 to i8*
  call void @llvm.lifetime.start.p0i8(i64 24, i8* nonnull %1375) #17
  call void @_ZN3rtc8ToStringEi(%"class.std::__1::basic_string"* nonnull sret %9, i32 1024) #17
  %1376 = bitcast %"class.std::__1::basic_string"* %9 to %"struct.std::__1::basic_string<char, std::__1::char_traits<char>, std::__1::allocator<char> >::__short"*
  %1377 = getelementptr inbounds %"struct.std::__1::basic_string<char, std::__1::char_traits<char>, std::__1::allocator<char> >::__short", %"struct.std::__1::basic_string<char, std::__1::char_traits<char>, std::__1::allocator<char> >::__short"* %1376, i64 0, i32 1, i32 0
  %1378 = load i8, i8* %1377, align 1
  %1379 = icmp slt i8 %1378, 0
  %1380 = getelementptr inbounds %"class.std::__1::basic_string", %"class.std::__1::basic_string"* %9, i64 0, i32 0, i32 0, i32 0, i32 0, i32 0, i32 0
  %1381 = load i8*, i8** %1380, align 8
  %1382 = getelementptr inbounds %"class.std::__1::basic_string", %"class.std::__1::basic_string"* %9, i64 0, i32 0, i32 0, i32 0, i32 0, i32 0, i32 1
  %1383 = load i64, i64* %1382, align 8
  %1384 = zext i8 %1378 to i64
  %1385 = select i1 %1379, i8* %1381, i8* %1375
  %1386 = select i1 %1379, i64 %1383, i64 %1384
  %1387 = call dereferenceable(24) %"class.std::__1::basic_string"* @_ZNSt3__112basic_stringIcNS_11char_traitsIcEENS_9allocatorIcEEE6appendEPKcm(%"class.std::__1::basic_string"* nonnull %1350, i8* %1385, i64 %1386) #17
  %1388 = load i8, i8* %1377, align 1
  %1389 = icmp slt i8 %1388, 0
  br i1 %1389, label %1390, label %1392

1390:                                             ; preds = %1371
  %1391 = load i8*, i8** %1380, align 8
  call void @_ZdlPv(i8* %1391) #18
  br label %1392

1392:                                             ; preds = %1390, %1371
  call void @llvm.lifetime.end.p0i8(i64 24, i8* nonnull %1375) #17
  %1393 = bitcast %"class.rtc::StringBuilder"* %12 to %"struct.std::__1::basic_string<char, std::__1::char_traits<char>, std::__1::allocator<char> >::__short"*
  %1394 = getelementptr inbounds %"struct.std::__1::basic_string<char, std::__1::char_traits<char>, std::__1::allocator<char> >::__short", %"struct.std::__1::basic_string<char, std::__1::char_traits<char>, std::__1::allocator<char> >::__short"* %1393, i64 0, i32 1, i32 0
  %1395 = load i8, i8* %1394, align 1
  %1396 = icmp slt i8 %1395, 0
  %1397 = load i8*, i8** %1338, align 8
  %1398 = load i64, i64* %1339, align 8
  %1399 = zext i8 %1395 to i64
  %1400 = select i1 %1396, i8* %1397, i8* %1337
  %1401 = select i1 %1396, i64 %1398, i64 %1399
  %1402 = call dereferenceable(24) %"class.std::__1::basic_string"* @_ZNSt3__112basic_stringIcNS_11char_traitsIcEENS_9allocatorIcEEE6appendEPKcm(%"class.std::__1::basic_string"* nonnull %5, i8* %1400, i64 %1401) #17
  %1403 = call dereferenceable(24) %"class.std::__1::basic_string"* @_ZNSt3__112basic_stringIcNS_11char_traitsIcEENS_9allocatorIcEEE6appendEPKc(%"class.std::__1::basic_string"* nonnull %5, i8* getelementptr inbounds ([3 x i8], [3 x i8]* @_ZN6webrtcL10kLineBreakE, i64 0, i64 0)) #17
  %1404 = load i8, i8* %1394, align 1
  %1405 = icmp slt i8 %1404, 0
  br i1 %1405, label %1406, label %1408

1406:                                             ; preds = %1392
  %1407 = load i8*, i8** %1338, align 8
  call void @_ZdlPv(i8* %1407) #18
  br label %1408

1408:                                             ; preds = %1406, %1392
  call void @llvm.lifetime.end.p0i8(i64 24, i8* nonnull %1337) #17
  %1409 = bitcast %"class.rtc::StringBuilder"* %11 to %"struct.std::__1::basic_string<char, std::__1::char_traits<char>, std::__1::allocator<char> >::__short"*
  br label %1498

1410:                                             ; preds = %1324
  %1411 = bitcast %"class.std::__1::basic_string"* %14 to i8*
  call void @llvm.lifetime.start.p0i8(i64 24, i8* nonnull %1411) #17
  %1412 = bitcast %"class.std::__1::basic_string"* %14 to %"struct.std::__1::basic_string<char, std::__1::char_traits<char>, std::__1::allocator<char> >::__short"*
  %1413 = getelementptr inbounds %"struct.std::__1::basic_string<char, std::__1::char_traits<char>, std::__1::allocator<char> >::__short", %"struct.std::__1::basic_string<char, std::__1::char_traits<char>, std::__1::allocator<char> >::__short"* %1412, i64 0, i32 1, i32 0
  store i8 9, i8* %1413, align 1
  call void @llvm.memcpy.p0i8.p0i8.i64(i8* nonnull align 8 %1411, i8* align 1 getelementptr inbounds ([10 x i8], [10 x i8]* @_ZN6webrtcL18kAttributeSctpPortE, i64 0, i64 0), i64 9, i1 false) #17
  %1414 = getelementptr inbounds i8, i8* %1411, i64 9
  store i8 0, i8* %1414, align 1
  call fastcc void @_ZN6webrtcL8InitLineEcRKNSt3__112basic_stringIcNS0_11char_traitsIcEENS0_9allocatorIcEEEEPN3rtc13StringBuilderE(i8 signext 97, %"class.std::__1::basic_string"* nonnull dereferenceable(24) %14, %"class.rtc::StringBuilder"* nonnull %11) #17
  %1415 = load i8, i8* %1413, align 1
  %1416 = icmp slt i8 %1415, 0
  br i1 %1416, label %1417, label %1420

1417:                                             ; preds = %1410
  %1418 = getelementptr inbounds %"class.std::__1::basic_string", %"class.std::__1::basic_string"* %14, i64 0, i32 0, i32 0, i32 0, i32 0, i32 0, i32 0
  %1419 = load i8*, i8** %1418, align 8
  call void @_ZdlPv(i8* %1419) #18
  br label %1420

1420:                                             ; preds = %1417, %1410
  call void @llvm.lifetime.end.p0i8(i64 24, i8* nonnull %1411) #17
  %1421 = getelementptr inbounds %"class.rtc::StringBuilder", %"class.rtc::StringBuilder"* %11, i64 0, i32 0
  %1422 = call dereferenceable(24) %"class.std::__1::basic_string"* @_ZNSt3__112basic_stringIcNS_11char_traitsIcEENS_9allocatorIcEEE6appendEPKcm(%"class.std::__1::basic_string"* nonnull %1421, i8* getelementptr inbounds ([2 x i8], [2 x i8]* @_ZN6webrtcL18kSdpDelimiterColonE, i64 0, i64 0), i64 1) #17
  %1423 = getelementptr inbounds %"class.cricket::SctpDataContentDescription", %"class.cricket::SctpDataContentDescription"* %1329, i64 0, i32 3
  %1424 = load i32, i32* %1423, align 4
  %1425 = bitcast %"class.std::__1::basic_string"* %8 to i8*
  call void @llvm.lifetime.start.p0i8(i64 24, i8* nonnull %1425) #17
  call void @_ZN3rtc8ToStringEi(%"class.std::__1::basic_string"* nonnull sret %8, i32 %1424) #17
  %1426 = bitcast %"class.std::__1::basic_string"* %8 to %"struct.std::__1::basic_string<char, std::__1::char_traits<char>, std::__1::allocator<char> >::__short"*
  %1427 = getelementptr inbounds %"struct.std::__1::basic_string<char, std::__1::char_traits<char>, std::__1::allocator<char> >::__short", %"struct.std::__1::basic_string<char, std::__1::char_traits<char>, std::__1::allocator<char> >::__short"* %1426, i64 0, i32 1, i32 0
  %1428 = load i8, i8* %1427, align 1
  %1429 = icmp slt i8 %1428, 0
  %1430 = getelementptr inbounds %"class.std::__1::basic_string", %"class.std::__1::basic_string"* %8, i64 0, i32 0, i32 0, i32 0, i32 0, i32 0, i32 0
  %1431 = load i8*, i8** %1430, align 8
  %1432 = getelementptr inbounds %"class.std::__1::basic_string", %"class.std::__1::basic_string"* %8, i64 0, i32 0, i32 0, i32 0, i32 0, i32 0, i32 1
  %1433 = load i64, i64* %1432, align 8
  %1434 = zext i8 %1428 to i64
  %1435 = select i1 %1429, i8* %1431, i8* %1425
  %1436 = select i1 %1429, i64 %1433, i64 %1434
  %1437 = call dereferenceable(24) %"class.std::__1::basic_string"* @_ZNSt3__112basic_stringIcNS_11char_traitsIcEENS_9allocatorIcEEE6appendEPKcm(%"class.std::__1::basic_string"* nonnull %1421, i8* %1435, i64 %1436) #17
  %1438 = load i8, i8* %1427, align 1
  %1439 = icmp slt i8 %1438, 0
  br i1 %1439, label %1440, label %1442

1440:                                             ; preds = %1420
  %1441 = load i8*, i8** %1430, align 8
  call void @_ZdlPv(i8* %1441) #18
  br label %1442

1442:                                             ; preds = %1440, %1420
  call void @llvm.lifetime.end.p0i8(i64 24, i8* nonnull %1425) #17
  %1443 = bitcast %"class.rtc::StringBuilder"* %11 to %"struct.std::__1::basic_string<char, std::__1::char_traits<char>, std::__1::allocator<char> >::__short"*
  %1444 = getelementptr inbounds %"struct.std::__1::basic_string<char, std::__1::char_traits<char>, std::__1::allocator<char> >::__short", %"struct.std::__1::basic_string<char, std::__1::char_traits<char>, std::__1::allocator<char> >::__short"* %1443, i64 0, i32 1, i32 0
  %1445 = load i8, i8* %1444, align 1
  %1446 = icmp slt i8 %1445, 0
  %1447 = load i8*, i8** %1331, align 8
  %1448 = load i64, i64* %1332, align 8
  %1449 = zext i8 %1445 to i64
  %1450 = select i1 %1446, i8* %1447, i8* %1330
  %1451 = select i1 %1446, i64 %1448, i64 %1449
  %1452 = call dereferenceable(24) %"class.std::__1::basic_string"* @_ZNSt3__112basic_stringIcNS_11char_traitsIcEENS_9allocatorIcEEE6appendEPKcm(%"class.std::__1::basic_string"* nonnull %5, i8* %1450, i64 %1451) #17
  %1453 = call dereferenceable(24) %"class.std::__1::basic_string"* @_ZNSt3__112basic_stringIcNS_11char_traitsIcEENS_9allocatorIcEEE6appendEPKc(%"class.std::__1::basic_string"* nonnull %5, i8* getelementptr inbounds ([3 x i8], [3 x i8]* @_ZN6webrtcL10kLineBreakE, i64 0, i64 0)) #17
  %1454 = getelementptr inbounds %"class.cricket::SctpDataContentDescription", %"class.cricket::SctpDataContentDescription"* %1329, i64 0, i32 4
  %1455 = load i32, i32* %1454, align 8
  %1456 = icmp eq i32 %1455, 65536
  br i1 %1456, label %1498, label %1457

1457:                                             ; preds = %1442
  %1458 = bitcast %"class.std::__1::basic_string"* %15 to i8*
  call void @llvm.lifetime.start.p0i8(i64 24, i8* nonnull %1458) #17
  %1459 = bitcast %"class.std::__1::basic_string"* %15 to %"struct.std::__1::basic_string<char, std::__1::char_traits<char>, std::__1::allocator<char> >::__short"*
  %1460 = getelementptr inbounds %"struct.std::__1::basic_string<char, std::__1::char_traits<char>, std::__1::allocator<char> >::__short", %"struct.std::__1::basic_string<char, std::__1::char_traits<char>, std::__1::allocator<char> >::__short"* %1459, i64 0, i32 1, i32 0
  store i8 16, i8* %1460, align 1
  call void @llvm.memcpy.p0i8.p0i8.i64(i8* nonnull align 8 %1458, i8* align 16 getelementptr inbounds ([17 x i8], [17 x i8]* @_ZN6webrtcL24kAttributeMaxMessageSizeE, i64 0, i64 0), i64 16, i1 false) #17
  %1461 = getelementptr inbounds %"class.std::__1::basic_string", %"class.std::__1::basic_string"* %15, i64 0, i32 0, i32 0, i32 0, i32 0, i32 0, i32 2
  %1462 = bitcast i64* %1461 to i8*
  store i8 0, i8* %1462, align 8
  call fastcc void @_ZN6webrtcL8InitLineEcRKNSt3__112basic_stringIcNS0_11char_traitsIcEENS0_9allocatorIcEEEEPN3rtc13StringBuilderE(i8 signext 97, %"class.std::__1::basic_string"* nonnull dereferenceable(24) %15, %"class.rtc::StringBuilder"* nonnull %11) #17
  %1463 = load i8, i8* %1460, align 1
  %1464 = icmp slt i8 %1463, 0
  br i1 %1464, label %1465, label %1468

1465:                                             ; preds = %1457
  %1466 = getelementptr inbounds %"class.std::__1::basic_string", %"class.std::__1::basic_string"* %15, i64 0, i32 0, i32 0, i32 0, i32 0, i32 0, i32 0
  %1467 = load i8*, i8** %1466, align 8
  call void @_ZdlPv(i8* %1467) #18
  br label %1468

1468:                                             ; preds = %1465, %1457
  call void @llvm.lifetime.end.p0i8(i64 24, i8* nonnull %1458) #17
  %1469 = call dereferenceable(24) %"class.std::__1::basic_string"* @_ZNSt3__112basic_stringIcNS_11char_traitsIcEENS_9allocatorIcEEE6appendEPKcm(%"class.std::__1::basic_string"* nonnull %1421, i8* getelementptr inbounds ([2 x i8], [2 x i8]* @_ZN6webrtcL18kSdpDelimiterColonE, i64 0, i64 0), i64 1) #17
  %1470 = load i32, i32* %1454, align 8
  %1471 = bitcast %"class.std::__1::basic_string"* %7 to i8*
  call void @llvm.lifetime.start.p0i8(i64 24, i8* nonnull %1471) #17
  call void @_ZN3rtc8ToStringEi(%"class.std::__1::basic_string"* nonnull sret %7, i32 %1470) #17
  %1472 = bitcast %"class.std::__1::basic_string"* %7 to %"struct.std::__1::basic_string<char, std::__1::char_traits<char>, std::__1::allocator<char> >::__short"*
  %1473 = getelementptr inbounds %"struct.std::__1::basic_string<char, std::__1::char_traits<char>, std::__1::allocator<char> >::__short", %"struct.std::__1::basic_string<char, std::__1::char_traits<char>, std::__1::allocator<char> >::__short"* %1472, i64 0, i32 1, i32 0
  %1474 = load i8, i8* %1473, align 1
  %1475 = icmp slt i8 %1474, 0
  %1476 = getelementptr inbounds %"class.std::__1::basic_string", %"class.std::__1::basic_string"* %7, i64 0, i32 0, i32 0, i32 0, i32 0, i32 0, i32 0
  %1477 = load i8*, i8** %1476, align 8
  %1478 = getelementptr inbounds %"class.std::__1::basic_string", %"class.std::__1::basic_string"* %7, i64 0, i32 0, i32 0, i32 0, i32 0, i32 0, i32 1
  %1479 = load i64, i64* %1478, align 8
  %1480 = zext i8 %1474 to i64
  %1481 = select i1 %1475, i8* %1477, i8* %1471
  %1482 = select i1 %1475, i64 %1479, i64 %1480
  %1483 = call dereferenceable(24) %"class.std::__1::basic_string"* @_ZNSt3__112basic_stringIcNS_11char_traitsIcEENS_9allocatorIcEEE6appendEPKcm(%"class.std::__1::basic_string"* nonnull %1421, i8* %1481, i64 %1482) #17
  %1484 = load i8, i8* %1473, align 1
  %1485 = icmp slt i8 %1484, 0
  br i1 %1485, label %1486, label %1488

1486:                                             ; preds = %1468
  %1487 = load i8*, i8** %1476, align 8
  call void @_ZdlPv(i8* %1487) #18
  br label %1488

1488:                                             ; preds = %1468, %1486
  call void @llvm.lifetime.end.p0i8(i64 24, i8* nonnull %1471) #17
  %1489 = load i8, i8* %1444, align 1
  %1490 = icmp slt i8 %1489, 0
  %1491 = load i8*, i8** %1331, align 8
  %1492 = load i64, i64* %1332, align 8
  %1493 = zext i8 %1489 to i64
  %1494 = select i1 %1490, i8* %1491, i8* %1330
  %1495 = select i1 %1490, i64 %1492, i64 %1493
  %1496 = call dereferenceable(24) %"class.std::__1::basic_string"* @_ZNSt3__112basic_stringIcNS_11char_traitsIcEENS_9allocatorIcEEE6appendEPKcm(%"class.std::__1::basic_string"* nonnull %5, i8* %1494, i64 %1495) #17
  %1497 = call dereferenceable(24) %"class.std::__1::basic_string"* @_ZNSt3__112basic_stringIcNS_11char_traitsIcEENS_9allocatorIcEEE6appendEPKc(%"class.std::__1::basic_string"* nonnull %5, i8* getelementptr inbounds ([3 x i8], [3 x i8]* @_ZN6webrtcL10kLineBreakE, i64 0, i64 0)) #17
  br label %1498

1498:                                             ; preds = %1488, %1442, %1408
  %1499 = phi %"struct.std::__1::basic_string<char, std::__1::char_traits<char>, std::__1::allocator<char> >::__short"* [ %1443, %1488 ], [ %1443, %1442 ], [ %1409, %1408 ]
  %1500 = getelementptr inbounds %"struct.std::__1::basic_string<char, std::__1::char_traits<char>, std::__1::allocator<char> >::__short", %"struct.std::__1::basic_string<char, std::__1::char_traits<char>, std::__1::allocator<char> >::__short"* %1499, i64 0, i32 1, i32 0
  %1501 = load i8, i8* %1500, align 1
  %1502 = icmp slt i8 %1501, 0
  br i1 %1502, label %1503, label %1505

1503:                                             ; preds = %1498
  %1504 = load i8*, i8** %1331, align 8
  call void @_ZdlPv(i8* %1504) #18
  br label %1505

1505:                                             ; preds = %1498, %1503
  call void @llvm.lifetime.end.p0i8(i64 24, i8* nonnull %1330) #17
  br label %3396

1506:                                             ; preds = %1323
  %1507 = bitcast %"class.std::__1::basic_string"* %104 to i8*
  call void @llvm.lifetime.start.p0i8(i64 24, i8* nonnull %1507) #17
  %1508 = load void (%"class.std::__1::basic_string"*, %"class.cricket::MediaContentDescription"*)**, void (%"class.std::__1::basic_string"*, %"class.cricket::MediaContentDescription"*)*** %350, align 8
  %1509 = getelementptr inbounds void (%"class.std::__1::basic_string"*, %"class.cricket::MediaContentDescription"*)*, void (%"class.std::__1::basic_string"*, %"class.cricket::MediaContentDescription"*)** %1508, i64 12
  %1510 = load void (%"class.std::__1::basic_string"*, %"class.cricket::MediaContentDescription"*)*, void (%"class.std::__1::basic_string"*, %"class.cricket::MediaContentDescription"*)** %1509, align 8
  call void %1510(%"class.std::__1::basic_string"* nonnull sret %104, %"class.cricket::MediaContentDescription"* %112) #17
  %1511 = call zeroext i1 @_ZN7cricket13IsRtpProtocolERKNSt3__112basic_stringIcNS0_11char_traitsIcEENS0_9allocatorIcEEEE(%"class.std::__1::basic_string"* nonnull dereferenceable(24) %104) #17
  %1512 = bitcast %"class.std::__1::basic_string"* %104 to %"struct.std::__1::basic_string<char, std::__1::char_traits<char>, std::__1::allocator<char> >::__short"*
  %1513 = getelementptr inbounds %"struct.std::__1::basic_string<char, std::__1::char_traits<char>, std::__1::allocator<char> >::__short", %"struct.std::__1::basic_string<char, std::__1::char_traits<char>, std::__1::allocator<char> >::__short"* %1512, i64 0, i32 1, i32 0
  %1514 = load i8, i8* %1513, align 1
  %1515 = icmp slt i8 %1514, 0
  br i1 %1515, label %1516, label %1519

1516:                                             ; preds = %1506
  %1517 = getelementptr inbounds %"class.std::__1::basic_string", %"class.std::__1::basic_string"* %104, i64 0, i32 0, i32 0, i32 0, i32 0, i32 0, i32 0
  %1518 = load i8*, i8** %1517, align 8
  call void @_ZdlPv(i8* %1518) #18
  br label %1519

1519:                                             ; preds = %1506, %1516
  call void @llvm.lifetime.end.p0i8(i64 24, i8* nonnull %1507) #17
  br i1 %1511, label %1520, label %3396

1520:                                             ; preds = %1519
  %1521 = getelementptr inbounds %"class.webrtc::SdpSerializer", %"class.webrtc::SdpSerializer"* %47, i64 0, i32 0
  call void @llvm.lifetime.start.p0i8(i64 1, i8* nonnull %1521) #17
  store i8 -86, i8* %1521, align 1
  %1522 = bitcast %"class.rtc::StringBuilder"* %48 to i8*
  call void @llvm.lifetime.start.p0i8(i64 24, i8* nonnull %1522) #17
  %1523 = getelementptr inbounds %"class.rtc::StringBuilder", %"class.rtc::StringBuilder"* %48, i64 0, i32 0, i32 0, i32 0, i32 0, i32 0, i32 0, i32 0
  %1524 = getelementptr inbounds %"class.rtc::StringBuilder", %"class.rtc::StringBuilder"* %48, i64 0, i32 0, i32 0, i32 0, i32 0, i32 0, i32 0, i32 1
  call void @llvm.memset.p0i8.i64(i8* nonnull align 8 %1522, i8 0, i64 24, i1 false) #17
  %1525 = load i32 (%"class.cricket::MediaContentDescription"*)**, i32 (%"class.cricket::MediaContentDescription"*)*** %528, align 8
  %1526 = getelementptr inbounds i32 (%"class.cricket::MediaContentDescription"*)*, i32 (%"class.cricket::MediaContentDescription"*)** %1525, i64 45
  %1527 = load i32 (%"class.cricket::MediaContentDescription"*)*, i32 (%"class.cricket::MediaContentDescription"*)** %1526, align 8
  %1528 = call i32 %1527(%"class.cricket::MediaContentDescription"* %112) #17
  %1529 = icmp eq i32 %1528, 2
  br i1 %1529, label %1530, label %1552

1530:                                             ; preds = %1520
  %1531 = bitcast %"class.std::__1::basic_string"* %49 to i8*
  call void @llvm.lifetime.start.p0i8(i64 24, i8* nonnull %1531) #17
  %1532 = bitcast %"class.std::__1::basic_string"* %49 to %"struct.std::__1::basic_string<char, std::__1::char_traits<char>, std::__1::allocator<char> >::__short"*
  %1533 = getelementptr inbounds %"struct.std::__1::basic_string<char, std::__1::char_traits<char>, std::__1::allocator<char> >::__short", %"struct.std::__1::basic_string<char, std::__1::char_traits<char>, std::__1::allocator<char> >::__short"* %1532, i64 0, i32 1, i32 0
  store i8 18, i8* %1533, align 1
  call void @llvm.memcpy.p0i8.p0i8.i64(i8* nonnull align 8 %1531, i8* align 16 getelementptr inbounds ([19 x i8], [19 x i8]* @_ZN6webrtcL26kAttributeExtmapAllowMixedE, i64 0, i64 0), i64 18, i1 false) #17
  %1534 = getelementptr inbounds i8, i8* %1531, i64 18
  store i8 0, i8* %1534, align 2
  call fastcc void @_ZN6webrtcL8InitLineEcRKNSt3__112basic_stringIcNS0_11char_traitsIcEENS0_9allocatorIcEEEEPN3rtc13StringBuilderE(i8 signext 97, %"class.std::__1::basic_string"* nonnull dereferenceable(24) %49, %"class.rtc::StringBuilder"* nonnull %48) #17
  %1535 = load i8, i8* %1533, align 1
  %1536 = icmp slt i8 %1535, 0
  br i1 %1536, label %1537, label %1540

1537:                                             ; preds = %1530
  %1538 = getelementptr inbounds %"class.std::__1::basic_string", %"class.std::__1::basic_string"* %49, i64 0, i32 0, i32 0, i32 0, i32 0, i32 0, i32 0
  %1539 = load i8*, i8** %1538, align 8
  call void @_ZdlPv(i8* %1539) #18
  br label %1540

1540:                                             ; preds = %1530, %1537
  call void @llvm.lifetime.end.p0i8(i64 24, i8* nonnull %1531) #17
  %1541 = bitcast %"class.rtc::StringBuilder"* %48 to %"struct.std::__1::basic_string<char, std::__1::char_traits<char>, std::__1::allocator<char> >::__short"*
  %1542 = getelementptr inbounds %"struct.std::__1::basic_string<char, std::__1::char_traits<char>, std::__1::allocator<char> >::__short", %"struct.std::__1::basic_string<char, std::__1::char_traits<char>, std::__1::allocator<char> >::__short"* %1541, i64 0, i32 1, i32 0
  %1543 = load i8, i8* %1542, align 1
  %1544 = icmp slt i8 %1543, 0
  %1545 = load i8*, i8** %1523, align 8
  %1546 = load i64, i64* %1524, align 8
  %1547 = zext i8 %1543 to i64
  %1548 = select i1 %1544, i8* %1545, i8* %1522
  %1549 = select i1 %1544, i64 %1546, i64 %1547
  %1550 = call dereferenceable(24) %"class.std::__1::basic_string"* @_ZNSt3__112basic_stringIcNS_11char_traitsIcEENS_9allocatorIcEEE6appendEPKcm(%"class.std::__1::basic_string"* nonnull %5, i8* %1548, i64 %1549) #17
  %1551 = call dereferenceable(24) %"class.std::__1::basic_string"* @_ZNSt3__112basic_stringIcNS_11char_traitsIcEENS_9allocatorIcEEE6appendEPKc(%"class.std::__1::basic_string"* nonnull %5, i8* getelementptr inbounds ([3 x i8], [3 x i8]* @_ZN6webrtcL10kLineBreakE, i64 0, i64 0)) #17
  br label %1552

1552:                                             ; preds = %1540, %1520
  %1553 = bitcast %"class.cricket::MediaContentDescription"* %112 to %"class.std::__1::vector.66"* (%"class.cricket::MediaContentDescription"*)***
  %1554 = load %"class.std::__1::vector.66"* (%"class.cricket::MediaContentDescription"*)**, %"class.std::__1::vector.66"* (%"class.cricket::MediaContentDescription"*)*** %1553, align 8
  %1555 = getelementptr inbounds %"class.std::__1::vector.66"* (%"class.cricket::MediaContentDescription"*)*, %"class.std::__1::vector.66"* (%"class.cricket::MediaContentDescription"*)** %1554, i64 29
  %1556 = load %"class.std::__1::vector.66"* (%"class.cricket::MediaContentDescription"*)*, %"class.std::__1::vector.66"* (%"class.cricket::MediaContentDescription"*)** %1555, align 8
  %1557 = call dereferenceable(24) %"class.std::__1::vector.66"* %1556(%"class.cricket::MediaContentDescription"* %112) #17
  %1558 = getelementptr inbounds %"class.std::__1::vector.66", %"class.std::__1::vector.66"* %1557, i64 0, i32 0, i32 1
  %1559 = bitcast %"struct.webrtc::RtpExtension"** %1558 to i64*
  %1560 = load i64, i64* %1559, align 8
  %1561 = bitcast %"class.std::__1::vector.66"* %1557 to i64*
  %1562 = load i64, i64* %1561, align 8
  %1563 = icmp eq i64 %1560, %1562
  br i1 %1563, label %1578, label %1564

1564:                                             ; preds = %1552
  %1565 = bitcast %"class.std::__1::basic_string"* %50 to i8*
  %1566 = bitcast %"class.std::__1::basic_string"* %50 to %"struct.std::__1::basic_string<char, std::__1::char_traits<char>, std::__1::allocator<char> >::__short"*
  %1567 = getelementptr inbounds %"struct.std::__1::basic_string<char, std::__1::char_traits<char>, std::__1::allocator<char> >::__short", %"struct.std::__1::basic_string<char, std::__1::char_traits<char>, std::__1::allocator<char> >::__short"* %1566, i64 0, i32 1, i32 0
  %1568 = getelementptr inbounds i8, i8* %1565, i64 6
  %1569 = getelementptr inbounds %"class.std::__1::basic_string", %"class.std::__1::basic_string"* %50, i64 0, i32 0, i32 0, i32 0, i32 0, i32 0, i32 0
  %1570 = getelementptr inbounds %"class.rtc::StringBuilder", %"class.rtc::StringBuilder"* %48, i64 0, i32 0
  %1571 = bitcast %"class.std::__1::basic_string"* %46 to i8*
  %1572 = bitcast %"class.std::__1::basic_string"* %46 to %"struct.std::__1::basic_string<char, std::__1::char_traits<char>, std::__1::allocator<char> >::__short"*
  %1573 = getelementptr inbounds %"struct.std::__1::basic_string<char, std::__1::char_traits<char>, std::__1::allocator<char> >::__short", %"struct.std::__1::basic_string<char, std::__1::char_traits<char>, std::__1::allocator<char> >::__short"* %1572, i64 0, i32 1, i32 0
  %1574 = getelementptr inbounds %"class.std::__1::basic_string", %"class.std::__1::basic_string"* %46, i64 0, i32 0, i32 0, i32 0, i32 0, i32 0, i32 0
  %1575 = getelementptr inbounds %"class.std::__1::basic_string", %"class.std::__1::basic_string"* %46, i64 0, i32 0, i32 0, i32 0, i32 0, i32 0, i32 1
  %1576 = bitcast %"class.rtc::StringBuilder"* %48 to %"struct.std::__1::basic_string<char, std::__1::char_traits<char>, std::__1::allocator<char> >::__short"*
  %1577 = getelementptr inbounds %"struct.std::__1::basic_string<char, std::__1::char_traits<char>, std::__1::allocator<char> >::__short", %"struct.std::__1::basic_string<char, std::__1::char_traits<char>, std::__1::allocator<char> >::__short"* %1576, i64 0, i32 1, i32 0
  br label %1583

1578:                                             ; preds = %1635, %1552
  %1579 = load i32 (%"class.cricket::MediaContentDescription"*)**, i32 (%"class.cricket::MediaContentDescription"*)*** %528, align 8
  %1580 = getelementptr inbounds i32 (%"class.cricket::MediaContentDescription"*)*, i32 (%"class.cricket::MediaContentDescription"*)** %1579, i64 14
  %1581 = load i32 (%"class.cricket::MediaContentDescription"*)*, i32 (%"class.cricket::MediaContentDescription"*)** %1580, align 8
  %1582 = call i32 %1581(%"class.cricket::MediaContentDescription"* %112) #17
  switch i32 %1582, label %1710 [
    i32 4, label %1662
    i32 3, label %1662
    i32 1, label %1674
    i32 2, label %1686
    i32 0, label %1698
  ]

1583:                                             ; preds = %1635, %1564
  %1584 = phi i64 [ 0, %1564 ], [ %1649, %1635 ]
  %1585 = load %"class.std::__1::vector.66"* (%"class.cricket::MediaContentDescription"*)**, %"class.std::__1::vector.66"* (%"class.cricket::MediaContentDescription"*)*** %1553, align 8
  %1586 = getelementptr inbounds %"class.std::__1::vector.66"* (%"class.cricket::MediaContentDescription"*)*, %"class.std::__1::vector.66"* (%"class.cricket::MediaContentDescription"*)** %1585, i64 29
  %1587 = load %"class.std::__1::vector.66"* (%"class.cricket::MediaContentDescription"*)*, %"class.std::__1::vector.66"* (%"class.cricket::MediaContentDescription"*)** %1586, align 8
  %1588 = call dereferenceable(24) %"class.std::__1::vector.66"* %1587(%"class.cricket::MediaContentDescription"* %112) #17
  %1589 = getelementptr inbounds %"class.std::__1::vector.66", %"class.std::__1::vector.66"* %1588, i64 0, i32 0, i32 0
  %1590 = load %"struct.webrtc::RtpExtension"*, %"struct.webrtc::RtpExtension"** %1589, align 8
  call void @llvm.lifetime.start.p0i8(i64 24, i8* nonnull %1565) #17
  store i8 6, i8* %1567, align 1
  call void @llvm.memcpy.p0i8.p0i8.i64(i8* nonnull align 8 %1565, i8* align 1 getelementptr inbounds ([7 x i8], [7 x i8]* @_ZN6webrtcL16kAttributeExtmapE, i64 0, i64 0), i64 6, i1 false) #17
  store i8 0, i8* %1568, align 2
  call fastcc void @_ZN6webrtcL8InitLineEcRKNSt3__112basic_stringIcNS0_11char_traitsIcEENS0_9allocatorIcEEEEPN3rtc13StringBuilderE(i8 signext 97, %"class.std::__1::basic_string"* nonnull dereferenceable(24) %50, %"class.rtc::StringBuilder"* nonnull %48) #17
  %1591 = load i8, i8* %1567, align 1
  %1592 = icmp slt i8 %1591, 0
  br i1 %1592, label %1593, label %1595

1593:                                             ; preds = %1583
  %1594 = load i8*, i8** %1569, align 8
  call void @_ZdlPv(i8* %1594) #18
  br label %1595

1595:                                             ; preds = %1593, %1583
  call void @llvm.lifetime.end.p0i8(i64 24, i8* nonnull %1565) #17
  %1596 = call dereferenceable(24) %"class.std::__1::basic_string"* @_ZNSt3__112basic_stringIcNS_11char_traitsIcEENS_9allocatorIcEEE6appendEPKcm(%"class.std::__1::basic_string"* nonnull %1570, i8* getelementptr inbounds ([2 x i8], [2 x i8]* @_ZN6webrtcL18kSdpDelimiterColonE, i64 0, i64 0), i64 1) #17
  %1597 = getelementptr inbounds %"struct.webrtc::RtpExtension", %"struct.webrtc::RtpExtension"* %1590, i64 %1584, i32 1
  %1598 = load i32, i32* %1597, align 8
  call void @llvm.lifetime.start.p0i8(i64 24, i8* nonnull %1571) #17
  call void @_ZN3rtc8ToStringEi(%"class.std::__1::basic_string"* nonnull sret %46, i32 %1598) #17
  %1599 = load i8, i8* %1573, align 1
  %1600 = icmp slt i8 %1599, 0
  %1601 = load i8*, i8** %1574, align 8
  %1602 = load i64, i64* %1575, align 8
  %1603 = zext i8 %1599 to i64
  %1604 = select i1 %1600, i8* %1601, i8* %1571
  %1605 = select i1 %1600, i64 %1602, i64 %1603
  %1606 = call dereferenceable(24) %"class.std::__1::basic_string"* @_ZNSt3__112basic_stringIcNS_11char_traitsIcEENS_9allocatorIcEEE6appendEPKcm(%"class.std::__1::basic_string"* nonnull %1570, i8* %1604, i64 %1605) #17
  %1607 = load i8, i8* %1573, align 1
  %1608 = icmp slt i8 %1607, 0
  br i1 %1608, label %1609, label %1611

1609:                                             ; preds = %1595
  %1610 = load i8*, i8** %1574, align 8
  call void @_ZdlPv(i8* %1610) #18
  br label %1611

1611:                                             ; preds = %1609, %1595
  call void @llvm.lifetime.end.p0i8(i64 24, i8* nonnull %1571) #17
  %1612 = getelementptr inbounds %"struct.webrtc::RtpExtension", %"struct.webrtc::RtpExtension"* %1590, i64 %1584, i32 2
  %1613 = load i8, i8* %1612, align 4, !range !3
  %1614 = icmp eq i8 %1613, 0
  br i1 %1614, label %1618, label %1615

1615:                                             ; preds = %1611
  %1616 = call dereferenceable(24) %"class.std::__1::basic_string"* @_ZNSt3__112basic_stringIcNS_11char_traitsIcEENS_9allocatorIcEEE6appendEPKcm(%"class.std::__1::basic_string"* nonnull %1570, i8* getelementptr inbounds ([2 x i8], [2 x i8]* @.str.4, i64 0, i64 0), i64 1) #17
  %1617 = call dereferenceable(24) %"class.std::__1::basic_string"* @_ZNSt3__112basic_stringIcNS_11char_traitsIcEENS_9allocatorIcEEE6appendEPKcm(%"class.std::__1::basic_string"* nonnull %1570, i8* getelementptr inbounds ([35 x i8], [35 x i8]* @_ZN6webrtc12RtpExtension27kEncryptHeaderExtensionsUriE, i64 0, i64 0), i64 34) #17
  br label %1618

1618:                                             ; preds = %1615, %1611
  %1619 = call dereferenceable(24) %"class.std::__1::basic_string"* @_ZNSt3__112basic_stringIcNS_11char_traitsIcEENS_9allocatorIcEEE6appendEPKcm(%"class.std::__1::basic_string"* nonnull %1570, i8* getelementptr inbounds ([2 x i8], [2 x i8]* @.str.4, i64 0, i64 0), i64 1) #17
  %1620 = getelementptr inbounds %"struct.webrtc::RtpExtension", %"struct.webrtc::RtpExtension"* %1590, i64 %1584, i32 0
  %1621 = bitcast %"class.std::__1::basic_string"* %1620 to %"struct.std::__1::basic_string<char, std::__1::char_traits<char>, std::__1::allocator<char> >::__short"*
  %1622 = getelementptr inbounds %"struct.std::__1::basic_string<char, std::__1::char_traits<char>, std::__1::allocator<char> >::__short", %"struct.std::__1::basic_string<char, std::__1::char_traits<char>, std::__1::allocator<char> >::__short"* %1621, i64 0, i32 1, i32 0
  %1623 = load i8, i8* %1622, align 1
  %1624 = icmp slt i8 %1623, 0
  br i1 %1624, label %1628, label %1625

1625:                                             ; preds = %1618
  %1626 = zext i8 %1623 to i64
  %1627 = ptrtoint %"class.std::__1::basic_string"* %1620 to i64
  br label %1635

1628:                                             ; preds = %1618
  %1629 = bitcast %"class.std::__1::basic_string"* %1620 to i64*
  %1630 = load i64, i64* %1629, align 8
  %1631 = getelementptr inbounds %"struct.webrtc::RtpExtension", %"struct.webrtc::RtpExtension"* %1590, i64 %1584, i32 0, i32 0, i32 0, i32 0, i32 0, i32 0, i32 1
  %1632 = load i64, i64* %1631, align 8
  %1633 = icmp sgt i64 %1632, -1
  br i1 %1633, label %1635, label %1634, !prof !2

1634:                                             ; preds = %1628
  call void @llvm.trap() #17
  unreachable

1635:                                             ; preds = %1628, %1625
  %1636 = phi i64 [ %1630, %1628 ], [ %1627, %1625 ]
  %1637 = phi i64 [ %1632, %1628 ], [ %1626, %1625 ]
  %1638 = inttoptr i64 %1636 to i8*
  %1639 = call dereferenceable(24) %"class.std::__1::basic_string"* @_ZNSt3__112basic_stringIcNS_11char_traitsIcEENS_9allocatorIcEEE6appendEPKcm(%"class.std::__1::basic_string"* nonnull %1570, i8* %1638, i64 %1637) #17
  %1640 = load i8, i8* %1577, align 1
  %1641 = icmp slt i8 %1640, 0
  %1642 = load i8*, i8** %1523, align 8
  %1643 = load i64, i64* %1524, align 8
  %1644 = zext i8 %1640 to i64
  %1645 = select i1 %1641, i8* %1642, i8* %1522
  %1646 = select i1 %1641, i64 %1643, i64 %1644
  %1647 = call dereferenceable(24) %"class.std::__1::basic_string"* @_ZNSt3__112basic_stringIcNS_11char_traitsIcEENS_9allocatorIcEEE6appendEPKcm(%"class.std::__1::basic_string"* nonnull %5, i8* %1645, i64 %1646) #17
  %1648 = call dereferenceable(24) %"class.std::__1::basic_string"* @_ZNSt3__112basic_stringIcNS_11char_traitsIcEENS_9allocatorIcEEE6appendEPKc(%"class.std::__1::basic_string"* nonnull %5, i8* getelementptr inbounds ([3 x i8], [3 x i8]* @_ZN6webrtcL10kLineBreakE, i64 0, i64 0)) #17
  %1649 = add nuw i64 %1584, 1
  %1650 = load %"class.std::__1::vector.66"* (%"class.cricket::MediaContentDescription"*)**, %"class.std::__1::vector.66"* (%"class.cricket::MediaContentDescription"*)*** %1553, align 8
  %1651 = getelementptr inbounds %"class.std::__1::vector.66"* (%"class.cricket::MediaContentDescription"*)*, %"class.std::__1::vector.66"* (%"class.cricket::MediaContentDescription"*)** %1650, i64 29
  %1652 = load %"class.std::__1::vector.66"* (%"class.cricket::MediaContentDescription"*)*, %"class.std::__1::vector.66"* (%"class.cricket::MediaContentDescription"*)** %1651, align 8
  %1653 = call dereferenceable(24) %"class.std::__1::vector.66"* %1652(%"class.cricket::MediaContentDescription"* %112) #17
  %1654 = getelementptr inbounds %"class.std::__1::vector.66", %"class.std::__1::vector.66"* %1653, i64 0, i32 0, i32 1
  %1655 = bitcast %"struct.webrtc::RtpExtension"** %1654 to i64*
  %1656 = load i64, i64* %1655, align 8
  %1657 = bitcast %"class.std::__1::vector.66"* %1653 to i64*
  %1658 = load i64, i64* %1657, align 8
  %1659 = sub i64 %1656, %1658
  %1660 = ashr exact i64 %1659, 5
  %1661 = icmp ult i64 %1649, %1660
  br i1 %1661, label %1583, label %1578

1662:                                             ; preds = %1578, %1578
  %1663 = bitcast %"class.std::__1::basic_string"* %51 to i8*
  call void @llvm.lifetime.start.p0i8(i64 24, i8* nonnull %1663) #17
  %1664 = bitcast %"class.std::__1::basic_string"* %51 to %"struct.std::__1::basic_string<char, std::__1::char_traits<char>, std::__1::allocator<char> >::__short"*
  %1665 = getelementptr inbounds %"struct.std::__1::basic_string<char, std::__1::char_traits<char>, std::__1::allocator<char> >::__short", %"struct.std::__1::basic_string<char, std::__1::char_traits<char>, std::__1::allocator<char> >::__short"* %1664, i64 0, i32 1, i32 0
  store i8 8, i8* %1665, align 1
  %1666 = bitcast %"class.std::__1::basic_string"* %51 to i64*
  store i64 7311146993687031401, i64* %1666, align 8
  %1667 = getelementptr inbounds %"class.std::__1::basic_string", %"class.std::__1::basic_string"* %51, i64 0, i32 0, i32 0, i32 0, i32 0, i32 0, i32 1
  %1668 = bitcast i64* %1667 to i8*
  store i8 0, i8* %1668, align 8
  call fastcc void @_ZN6webrtcL8InitLineEcRKNSt3__112basic_stringIcNS0_11char_traitsIcEENS0_9allocatorIcEEEEPN3rtc13StringBuilderE(i8 signext 97, %"class.std::__1::basic_string"* nonnull dereferenceable(24) %51, %"class.rtc::StringBuilder"* nonnull %48) #17
  %1669 = load i8, i8* %1665, align 1
  %1670 = icmp slt i8 %1669, 0
  br i1 %1670, label %1671, label %1722

1671:                                             ; preds = %1662
  %1672 = getelementptr inbounds %"class.std::__1::basic_string", %"class.std::__1::basic_string"* %51, i64 0, i32 0, i32 0, i32 0, i32 0, i32 0, i32 0
  %1673 = load i8*, i8** %1672, align 8
  call void @_ZdlPv(i8* %1673) #18
  br label %1722

1674:                                             ; preds = %1578
  %1675 = bitcast %"class.std::__1::basic_string"* %52 to i8*
  call void @llvm.lifetime.start.p0i8(i64 24, i8* nonnull %1675) #17
  %1676 = bitcast %"class.std::__1::basic_string"* %52 to %"struct.std::__1::basic_string<char, std::__1::char_traits<char>, std::__1::allocator<char> >::__short"*
  %1677 = getelementptr inbounds %"struct.std::__1::basic_string<char, std::__1::char_traits<char>, std::__1::allocator<char> >::__short", %"struct.std::__1::basic_string<char, std::__1::char_traits<char>, std::__1::allocator<char> >::__short"* %1676, i64 0, i32 1, i32 0
  store i8 8, i8* %1677, align 1
  %1678 = bitcast %"class.std::__1::basic_string"* %52 to i64*
  store i64 8749489600779412851, i64* %1678, align 8
  %1679 = getelementptr inbounds %"class.std::__1::basic_string", %"class.std::__1::basic_string"* %52, i64 0, i32 0, i32 0, i32 0, i32 0, i32 0, i32 1
  %1680 = bitcast i64* %1679 to i8*
  store i8 0, i8* %1680, align 8
  call fastcc void @_ZN6webrtcL8InitLineEcRKNSt3__112basic_stringIcNS0_11char_traitsIcEENS0_9allocatorIcEEEEPN3rtc13StringBuilderE(i8 signext 97, %"class.std::__1::basic_string"* nonnull dereferenceable(24) %52, %"class.rtc::StringBuilder"* nonnull %48) #17
  %1681 = load i8, i8* %1677, align 1
  %1682 = icmp slt i8 %1681, 0
  br i1 %1682, label %1683, label %1722

1683:                                             ; preds = %1674
  %1684 = getelementptr inbounds %"class.std::__1::basic_string", %"class.std::__1::basic_string"* %52, i64 0, i32 0, i32 0, i32 0, i32 0, i32 0, i32 0
  %1685 = load i8*, i8** %1684, align 8
  call void @_ZdlPv(i8* %1685) #18
  br label %1722

1686:                                             ; preds = %1578
  %1687 = bitcast %"class.std::__1::basic_string"* %53 to i8*
  call void @llvm.lifetime.start.p0i8(i64 24, i8* nonnull %1687) #17
  %1688 = bitcast %"class.std::__1::basic_string"* %53 to %"struct.std::__1::basic_string<char, std::__1::char_traits<char>, std::__1::allocator<char> >::__short"*
  %1689 = getelementptr inbounds %"struct.std::__1::basic_string<char, std::__1::char_traits<char>, std::__1::allocator<char> >::__short", %"struct.std::__1::basic_string<char, std::__1::char_traits<char>, std::__1::allocator<char> >::__short"* %1688, i64 0, i32 1, i32 0
  store i8 8, i8* %1689, align 1
  %1690 = bitcast %"class.std::__1::basic_string"* %53 to i64*
  store i64 8749489601080681842, i64* %1690, align 8
  %1691 = getelementptr inbounds %"class.std::__1::basic_string", %"class.std::__1::basic_string"* %53, i64 0, i32 0, i32 0, i32 0, i32 0, i32 0, i32 1
  %1692 = bitcast i64* %1691 to i8*
  store i8 0, i8* %1692, align 8
  call fastcc void @_ZN6webrtcL8InitLineEcRKNSt3__112basic_stringIcNS0_11char_traitsIcEENS0_9allocatorIcEEEEPN3rtc13StringBuilderE(i8 signext 97, %"class.std::__1::basic_string"* nonnull dereferenceable(24) %53, %"class.rtc::StringBuilder"* nonnull %48) #17
  %1693 = load i8, i8* %1689, align 1
  %1694 = icmp slt i8 %1693, 0
  br i1 %1694, label %1695, label %1722

1695:                                             ; preds = %1686
  %1696 = getelementptr inbounds %"class.std::__1::basic_string", %"class.std::__1::basic_string"* %53, i64 0, i32 0, i32 0, i32 0, i32 0, i32 0, i32 0
  %1697 = load i8*, i8** %1696, align 8
  call void @_ZdlPv(i8* %1697) #18
  br label %1722

1698:                                             ; preds = %1578
  %1699 = bitcast %"class.std::__1::basic_string"* %54 to i8*
  call void @llvm.lifetime.start.p0i8(i64 24, i8* nonnull %1699) #17
  %1700 = bitcast %"class.std::__1::basic_string"* %54 to %"struct.std::__1::basic_string<char, std::__1::char_traits<char>, std::__1::allocator<char> >::__short"*
  %1701 = getelementptr inbounds %"struct.std::__1::basic_string<char, std::__1::char_traits<char>, std::__1::allocator<char> >::__short", %"struct.std::__1::basic_string<char, std::__1::char_traits<char>, std::__1::allocator<char> >::__short"* %1700, i64 0, i32 1, i32 0
  store i8 8, i8* %1701, align 1
  %1702 = bitcast %"class.std::__1::basic_string"* %54 to i64*
  store i64 8530773661155485043, i64* %1702, align 8
  %1703 = getelementptr inbounds %"class.std::__1::basic_string", %"class.std::__1::basic_string"* %54, i64 0, i32 0, i32 0, i32 0, i32 0, i32 0, i32 1
  %1704 = bitcast i64* %1703 to i8*
  store i8 0, i8* %1704, align 8
  call fastcc void @_ZN6webrtcL8InitLineEcRKNSt3__112basic_stringIcNS0_11char_traitsIcEENS0_9allocatorIcEEEEPN3rtc13StringBuilderE(i8 signext 97, %"class.std::__1::basic_string"* nonnull dereferenceable(24) %54, %"class.rtc::StringBuilder"* nonnull %48) #17
  %1705 = load i8, i8* %1701, align 1
  %1706 = icmp slt i8 %1705, 0
  br i1 %1706, label %1707, label %1722

1707:                                             ; preds = %1698
  %1708 = getelementptr inbounds %"class.std::__1::basic_string", %"class.std::__1::basic_string"* %54, i64 0, i32 0, i32 0, i32 0, i32 0, i32 0, i32 0
  %1709 = load i8*, i8** %1708, align 8
  call void @_ZdlPv(i8* %1709) #18
  br label %1722

1710:                                             ; preds = %1578
  %1711 = bitcast %"class.std::__1::basic_string"* %55 to i8*
  call void @llvm.lifetime.start.p0i8(i64 24, i8* nonnull %1711) #17
  %1712 = bitcast %"class.std::__1::basic_string"* %55 to %"struct.std::__1::basic_string<char, std::__1::char_traits<char>, std::__1::allocator<char> >::__short"*
  %1713 = getelementptr inbounds %"struct.std::__1::basic_string<char, std::__1::char_traits<char>, std::__1::allocator<char> >::__short", %"struct.std::__1::basic_string<char, std::__1::char_traits<char>, std::__1::allocator<char> >::__short"* %1712, i64 0, i32 1, i32 0
  store i8 8, i8* %1713, align 1
  %1714 = bitcast %"class.std::__1::basic_string"* %55 to i64*
  store i64 8530773661155485043, i64* %1714, align 8
  %1715 = getelementptr inbounds %"class.std::__1::basic_string", %"class.std::__1::basic_string"* %55, i64 0, i32 0, i32 0, i32 0, i32 0, i32 0, i32 1
  %1716 = bitcast i64* %1715 to i8*
  store i8 0, i8* %1716, align 8
  call fastcc void @_ZN6webrtcL8InitLineEcRKNSt3__112basic_stringIcNS0_11char_traitsIcEENS0_9allocatorIcEEEEPN3rtc13StringBuilderE(i8 signext 97, %"class.std::__1::basic_string"* nonnull dereferenceable(24) %55, %"class.rtc::StringBuilder"* nonnull %48) #17
  %1717 = load i8, i8* %1713, align 1
  %1718 = icmp slt i8 %1717, 0
  br i1 %1718, label %1719, label %1722

1719:                                             ; preds = %1710
  %1720 = getelementptr inbounds %"class.std::__1::basic_string", %"class.std::__1::basic_string"* %55, i64 0, i32 0, i32 0, i32 0, i32 0, i32 0, i32 0
  %1721 = load i8*, i8** %1720, align 8
  call void @_ZdlPv(i8* %1721) #18
  br label %1722

1722:                                             ; preds = %1710, %1719, %1698, %1707, %1686, %1695, %1674, %1683, %1662, %1671
  %1723 = phi i8* [ %1663, %1671 ], [ %1663, %1662 ], [ %1675, %1683 ], [ %1675, %1674 ], [ %1687, %1695 ], [ %1687, %1686 ], [ %1699, %1707 ], [ %1699, %1698 ], [ %1711, %1719 ], [ %1711, %1710 ]
  call void @llvm.lifetime.end.p0i8(i64 24, i8* nonnull %1723) #17
  %1724 = getelementptr inbounds %"class.rtc::StringBuilder", %"class.rtc::StringBuilder"* %48, i64 0, i32 0
  %1725 = bitcast %"class.rtc::StringBuilder"* %48 to %"struct.std::__1::basic_string<char, std::__1::char_traits<char>, std::__1::allocator<char> >::__short"*
  %1726 = getelementptr inbounds %"struct.std::__1::basic_string<char, std::__1::char_traits<char>, std::__1::allocator<char> >::__short", %"struct.std::__1::basic_string<char, std::__1::char_traits<char>, std::__1::allocator<char> >::__short"* %1725, i64 0, i32 1, i32 0
  %1727 = load i8, i8* %1726, align 1
  %1728 = icmp slt i8 %1727, 0
  %1729 = load i8*, i8** %1523, align 8
  %1730 = load i64, i64* %1524, align 8
  %1731 = zext i8 %1727 to i64
  %1732 = select i1 %1728, i8* %1729, i8* %1522
  %1733 = select i1 %1728, i64 %1730, i64 %1731
  %1734 = call dereferenceable(24) %"class.std::__1::basic_string"* @_ZNSt3__112basic_stringIcNS_11char_traitsIcEENS_9allocatorIcEEE6appendEPKcm(%"class.std::__1::basic_string"* nonnull %5, i8* %1732, i64 %1733) #17
  %1735 = call dereferenceable(24) %"class.std::__1::basic_string"* @_ZNSt3__112basic_stringIcNS_11char_traitsIcEENS_9allocatorIcEEE6appendEPKc(%"class.std::__1::basic_string"* nonnull %5, i8* getelementptr inbounds ([3 x i8], [3 x i8]* @_ZN6webrtcL10kLineBreakE, i64 0, i64 0)) #17
  %1736 = and i32 %4, 1
  %1737 = icmp eq i32 %1736, 0
  br i1 %1737, label %1886, label %1738

1738:                                             ; preds = %1722
  %1739 = bitcast %"class.cricket::MediaContentDescription"* %112 to %"class.std::__1::vector.28"* (%"class.cricket::MediaContentDescription"*)***
  %1740 = load %"class.std::__1::vector.28"* (%"class.cricket::MediaContentDescription"*)**, %"class.std::__1::vector.28"* (%"class.cricket::MediaContentDescription"*)*** %1739, align 8
  %1741 = getelementptr inbounds %"class.std::__1::vector.28"* (%"class.cricket::MediaContentDescription"*)*, %"class.std::__1::vector.28"* (%"class.cricket::MediaContentDescription"*)** %1740, i64 34
  %1742 = load %"class.std::__1::vector.28"* (%"class.cricket::MediaContentDescription"*)*, %"class.std::__1::vector.28"* (%"class.cricket::MediaContentDescription"*)** %1741, align 8
  %1743 = call dereferenceable(24) %"class.std::__1::vector.28"* %1742(%"class.cricket::MediaContentDescription"* %112) #17
  %1744 = getelementptr inbounds %"class.std::__1::vector.28", %"class.std::__1::vector.28"* %1743, i64 0, i32 0, i32 1
  %1745 = bitcast %"struct.cricket::StreamParams"** %1744 to i64*
  %1746 = load i64, i64* %1745, align 8
  %1747 = bitcast %"class.std::__1::vector.28"* %1743 to i64*
  %1748 = load i64, i64* %1747, align 8
  %1749 = sub i64 %1746, %1748
  %1750 = icmp eq i64 %1749, 168
  %1751 = inttoptr i64 %1748 to %"struct.cricket::StreamParams"*
  br i1 %1750, label %1752, label %1878

1752:                                             ; preds = %1738
  %1753 = bitcast %"class.std::__1::vector"* %56 to i8*
  call void @llvm.lifetime.start.p0i8(i64 24, i8* nonnull %1753) #17
  %1754 = getelementptr inbounds %"class.std::__1::vector", %"class.std::__1::vector"* %56, i64 0, i32 0, i32 0
  %1755 = getelementptr inbounds %"class.std::__1::vector", %"class.std::__1::vector"* %56, i64 0, i32 0, i32 1
  call void @llvm.memset.p0i8.i64(i8* nonnull align 8 %1753, i8 -86, i64 24, i1 false) #17
  call void @_ZNK7cricket12StreamParams10stream_idsEv(%"class.std::__1::vector"* nonnull sret %56, %"struct.cricket::StreamParams"* %1751) #17
  %1756 = load %"class.std::__1::basic_string"*, %"class.std::__1::basic_string"** %1754, align 8
  %1757 = load %"class.std::__1::basic_string"*, %"class.std::__1::basic_string"** %1755, align 8
  %1758 = icmp eq %"class.std::__1::basic_string"* %1756, %1757
  br i1 %1758, label %1759, label %1781

1759:                                             ; preds = %1752
  %1760 = getelementptr inbounds %"class.std::__1::vector", %"class.std::__1::vector"* %56, i64 0, i32 0, i32 2, i32 0, i32 0
  %1761 = bitcast %"class.std::__1::basic_string"* %57 to i8*
  call void @llvm.lifetime.start.p0i8(i64 24, i8* nonnull %1761) #17
  %1762 = bitcast %"class.std::__1::basic_string"* %57 to %"struct.std::__1::basic_string<char, std::__1::char_traits<char>, std::__1::allocator<char> >::__short"*
  %1763 = getelementptr inbounds %"struct.std::__1::basic_string<char, std::__1::char_traits<char>, std::__1::allocator<char> >::__short", %"struct.std::__1::basic_string<char, std::__1::char_traits<char>, std::__1::allocator<char> >::__short"* %1762, i64 0, i32 1, i32 0
  store i8 1, i8* %1763, align 1
  store i8 45, i8* %1761, align 8
  %1764 = getelementptr inbounds i8, i8* %1761, i64 1
  store i8 0, i8* %1764, align 1
  %1765 = load %"class.std::__1::basic_string"*, %"class.std::__1::basic_string"** %1760, align 8
  %1766 = icmp ult %"class.std::__1::basic_string"* %1756, %1765
  br i1 %1766, label %1767, label %1772

1767:                                             ; preds = %1759
  %1768 = bitcast %"class.std::__1::basic_string"* %1756 to i8*
  call void @llvm.memcpy.p0i8.p0i8.i64(i8* align 8 %1768, i8* nonnull align 8 %1761, i64 24, i1 false) #17
  call void @llvm.memset.p0i8.i64(i8* nonnull align 8 %1761, i8 0, i64 24, i1 false) #17
  %1769 = getelementptr inbounds %"class.std::__1::basic_string", %"class.std::__1::basic_string"* %1756, i64 1
  %1770 = ptrtoint %"class.std::__1::basic_string"* %1769 to i64
  %1771 = bitcast %"class.std::__1::basic_string"** %1755 to i64*
  store i64 %1770, i64* %1771, align 8
  br label %1778

1772:                                             ; preds = %1759
  call void @_ZNSt3__16vectorINS_12basic_stringIcNS_11char_traitsIcEENS_9allocatorIcEEEENS4_IS6_EEE21__push_back_slow_pathIS6_EEvOT_(%"class.std::__1::vector"* nonnull %56, %"class.std::__1::basic_string"* nonnull dereferenceable(24) %57) #17
  %1773 = load i8, i8* %1763, align 1
  %1774 = icmp slt i8 %1773, 0
  br i1 %1774, label %1775, label %1778

1775:                                             ; preds = %1772
  %1776 = getelementptr inbounds %"class.std::__1::basic_string", %"class.std::__1::basic_string"* %57, i64 0, i32 0, i32 0, i32 0, i32 0, i32 0, i32 0
  %1777 = load i8*, i8** %1776, align 8
  call void @_ZdlPv(i8* %1777) #18
  br label %1778

1778:                                             ; preds = %1775, %1772, %1767
  call void @llvm.lifetime.end.p0i8(i64 24, i8* nonnull %1761) #17
  %1779 = load %"class.std::__1::basic_string"*, %"class.std::__1::basic_string"** %1754, align 8
  %1780 = load %"class.std::__1::basic_string"*, %"class.std::__1::basic_string"** %1755, align 8
  br label %1781

1781:                                             ; preds = %1778, %1752
  %1782 = phi %"class.std::__1::basic_string"* [ %1780, %1778 ], [ %1757, %1752 ]
  %1783 = phi %"class.std::__1::basic_string"* [ %1779, %1778 ], [ %1756, %1752 ]
  %1784 = icmp eq %"class.std::__1::basic_string"* %1783, %1782
  br i1 %1784, label %1800, label %1785

1785:                                             ; preds = %1781
  %1786 = bitcast %"class.std::__1::basic_string"* %58 to i8*
  %1787 = bitcast %"class.std::__1::basic_string"* %58 to %"struct.std::__1::basic_string<char, std::__1::char_traits<char>, std::__1::allocator<char> >::__short"*
  %1788 = getelementptr inbounds %"struct.std::__1::basic_string<char, std::__1::char_traits<char>, std::__1::allocator<char> >::__short", %"struct.std::__1::basic_string<char, std::__1::char_traits<char>, std::__1::allocator<char> >::__short"* %1787, i64 0, i32 1, i32 0
  %1789 = bitcast %"class.std::__1::basic_string"* %58 to i32*
  %1790 = getelementptr inbounds i8, i8* %1786, i64 4
  %1791 = getelementptr inbounds %"class.std::__1::basic_string", %"class.std::__1::basic_string"* %58, i64 0, i32 0, i32 0, i32 0, i32 0, i32 0, i32 0
  %1792 = getelementptr inbounds %"struct.cricket::StreamParams", %"struct.cricket::StreamParams"* %1751, i64 0, i32 1
  %1793 = bitcast %"class.std::__1::basic_string"* %1792 to %"struct.std::__1::basic_string<char, std::__1::char_traits<char>, std::__1::allocator<char> >::__short"*
  %1794 = getelementptr inbounds %"struct.std::__1::basic_string<char, std::__1::char_traits<char>, std::__1::allocator<char> >::__short", %"struct.std::__1::basic_string<char, std::__1::char_traits<char>, std::__1::allocator<char> >::__short"* %1793, i64 0, i32 1, i32 0
  %1795 = ptrtoint %"class.std::__1::basic_string"* %1792 to i64
  %1796 = bitcast %"class.std::__1::basic_string"* %1792 to i64*
  %1797 = getelementptr inbounds %"struct.cricket::StreamParams", %"struct.cricket::StreamParams"* %1751, i64 0, i32 1, i32 0, i32 0, i32 0, i32 0, i32 0, i32 1
  br label %1825

1798:                                             ; preds = %1862
  %1799 = load %"class.std::__1::basic_string"*, %"class.std::__1::basic_string"** %1754, align 8
  br label %1800

1800:                                             ; preds = %1798, %1781
  %1801 = phi %"class.std::__1::basic_string"* [ %1799, %1798 ], [ %1782, %1781 ]
  %1802 = icmp eq %"class.std::__1::basic_string"* %1801, null
  br i1 %1802, label %1824, label %1803

1803:                                             ; preds = %1800
  %1804 = bitcast %"class.std::__1::basic_string"* %1801 to i8*
  %1805 = load %"class.std::__1::basic_string"*, %"class.std::__1::basic_string"** %1755, align 8
  %1806 = icmp eq %"class.std::__1::basic_string"* %1805, %1801
  br i1 %1806, label %1822, label %1807

1807:                                             ; preds = %1803, %1817
  %1808 = phi %"class.std::__1::basic_string"* [ %1809, %1817 ], [ %1805, %1803 ]
  %1809 = getelementptr inbounds %"class.std::__1::basic_string", %"class.std::__1::basic_string"* %1808, i64 -1
  %1810 = bitcast %"class.std::__1::basic_string"* %1809 to %"struct.std::__1::basic_string<char, std::__1::char_traits<char>, std::__1::allocator<char> >::__short"*
  %1811 = getelementptr inbounds %"struct.std::__1::basic_string<char, std::__1::char_traits<char>, std::__1::allocator<char> >::__short", %"struct.std::__1::basic_string<char, std::__1::char_traits<char>, std::__1::allocator<char> >::__short"* %1810, i64 0, i32 1, i32 0
  %1812 = load i8, i8* %1811, align 1
  %1813 = icmp slt i8 %1812, 0
  br i1 %1813, label %1814, label %1817

1814:                                             ; preds = %1807
  %1815 = getelementptr inbounds %"class.std::__1::basic_string", %"class.std::__1::basic_string"* %1809, i64 0, i32 0, i32 0, i32 0, i32 0, i32 0, i32 0
  %1816 = load i8*, i8** %1815, align 8
  call void @_ZdlPv(i8* %1816) #18
  br label %1817

1817:                                             ; preds = %1814, %1807
  %1818 = icmp eq %"class.std::__1::basic_string"* %1809, %1801
  br i1 %1818, label %1819, label %1807

1819:                                             ; preds = %1817
  %1820 = bitcast %"class.std::__1::vector"* %56 to i8**
  %1821 = load i8*, i8** %1820, align 8
  br label %1822

1822:                                             ; preds = %1819, %1803
  %1823 = phi i8* [ %1821, %1819 ], [ %1804, %1803 ]
  store %"class.std::__1::basic_string"* %1801, %"class.std::__1::basic_string"** %1755, align 8
  call void @_ZdlPv(i8* %1823) #18
  br label %1824

1824:                                             ; preds = %1822, %1800
  call void @llvm.lifetime.end.p0i8(i64 24, i8* nonnull %1753) #17
  br label %1886

1825:                                             ; preds = %1862, %1785
  %1826 = phi %"class.std::__1::basic_string"* [ %1783, %1785 ], [ %1876, %1862 ]
  call void @llvm.lifetime.start.p0i8(i64 24, i8* nonnull %1786) #17
  store i8 4, i8* %1788, align 1
  store i32 1684632429, i32* %1789, align 8
  store i8 0, i8* %1790, align 4
  call fastcc void @_ZN6webrtcL8InitLineEcRKNSt3__112basic_stringIcNS0_11char_traitsIcEENS0_9allocatorIcEEEEPN3rtc13StringBuilderE(i8 signext 97, %"class.std::__1::basic_string"* nonnull dereferenceable(24) %58, %"class.rtc::StringBuilder"* nonnull %48) #17
  %1827 = load i8, i8* %1788, align 1
  %1828 = icmp slt i8 %1827, 0
  br i1 %1828, label %1829, label %1831

1829:                                             ; preds = %1825
  %1830 = load i8*, i8** %1791, align 8
  call void @_ZdlPv(i8* %1830) #18
  br label %1831

1831:                                             ; preds = %1829, %1825
  call void @llvm.lifetime.end.p0i8(i64 24, i8* nonnull %1786) #17
  %1832 = call dereferenceable(24) %"class.std::__1::basic_string"* @_ZNSt3__112basic_stringIcNS_11char_traitsIcEENS_9allocatorIcEEE6appendEPKcm(%"class.std::__1::basic_string"* nonnull %1724, i8* getelementptr inbounds ([2 x i8], [2 x i8]* @_ZN6webrtcL18kSdpDelimiterColonE, i64 0, i64 0), i64 1) #17
  %1833 = bitcast %"class.std::__1::basic_string"* %1826 to %"struct.std::__1::basic_string<char, std::__1::char_traits<char>, std::__1::allocator<char> >::__short"*
  %1834 = getelementptr inbounds %"struct.std::__1::basic_string<char, std::__1::char_traits<char>, std::__1::allocator<char> >::__short", %"struct.std::__1::basic_string<char, std::__1::char_traits<char>, std::__1::allocator<char> >::__short"* %1833, i64 0, i32 1, i32 0
  %1835 = load i8, i8* %1834, align 1
  %1836 = icmp slt i8 %1835, 0
  br i1 %1836, label %1840, label %1837

1837:                                             ; preds = %1831
  %1838 = zext i8 %1835 to i64
  %1839 = ptrtoint %"class.std::__1::basic_string"* %1826 to i64
  br label %1847

1840:                                             ; preds = %1831
  %1841 = bitcast %"class.std::__1::basic_string"* %1826 to i64*
  %1842 = load i64, i64* %1841, align 8
  %1843 = getelementptr inbounds %"class.std::__1::basic_string", %"class.std::__1::basic_string"* %1826, i64 0, i32 0, i32 0, i32 0, i32 0, i32 0, i32 1
  %1844 = load i64, i64* %1843, align 8
  %1845 = icmp sgt i64 %1844, -1
  br i1 %1845, label %1847, label %1846, !prof !2

1846:                                             ; preds = %1840
  call void @llvm.trap() #17
  unreachable

1847:                                             ; preds = %1840, %1837
  %1848 = phi i64 [ %1842, %1840 ], [ %1839, %1837 ]
  %1849 = phi i64 [ %1844, %1840 ], [ %1838, %1837 ]
  %1850 = inttoptr i64 %1848 to i8*
  %1851 = call dereferenceable(24) %"class.std::__1::basic_string"* @_ZNSt3__112basic_stringIcNS_11char_traitsIcEENS_9allocatorIcEEE6appendEPKcm(%"class.std::__1::basic_string"* nonnull %1724, i8* %1850, i64 %1849) #17
  %1852 = call dereferenceable(24) %"class.std::__1::basic_string"* @_ZNSt3__112basic_stringIcNS_11char_traitsIcEENS_9allocatorIcEEE6appendEPKcm(%"class.std::__1::basic_string"* nonnull %1724, i8* getelementptr inbounds ([2 x i8], [2 x i8]* @.str.4, i64 0, i64 0), i64 1) #17
  %1853 = load i8, i8* %1794, align 1
  %1854 = icmp slt i8 %1853, 0
  br i1 %1854, label %1857, label %1855

1855:                                             ; preds = %1847
  %1856 = zext i8 %1853 to i64
  br label %1862

1857:                                             ; preds = %1847
  %1858 = load i64, i64* %1796, align 8
  %1859 = load i64, i64* %1797, align 8
  %1860 = icmp sgt i64 %1859, -1
  br i1 %1860, label %1862, label %1861, !prof !2

1861:                                             ; preds = %1857
  call void @llvm.trap() #17
  unreachable

1862:                                             ; preds = %1857, %1855
  %1863 = phi i64 [ %1858, %1857 ], [ %1795, %1855 ]
  %1864 = phi i64 [ %1859, %1857 ], [ %1856, %1855 ]
  %1865 = inttoptr i64 %1863 to i8*
  %1866 = call dereferenceable(24) %"class.std::__1::basic_string"* @_ZNSt3__112basic_stringIcNS_11char_traitsIcEENS_9allocatorIcEEE6appendEPKcm(%"class.std::__1::basic_string"* nonnull %1724, i8* %1865, i64 %1864) #17
  %1867 = load i8, i8* %1726, align 1
  %1868 = icmp slt i8 %1867, 0
  %1869 = load i8*, i8** %1523, align 8
  %1870 = load i64, i64* %1524, align 8
  %1871 = zext i8 %1867 to i64
  %1872 = select i1 %1868, i8* %1869, i8* %1522
  %1873 = select i1 %1868, i64 %1870, i64 %1871
  %1874 = call dereferenceable(24) %"class.std::__1::basic_string"* @_ZNSt3__112basic_stringIcNS_11char_traitsIcEENS_9allocatorIcEEE6appendEPKcm(%"class.std::__1::basic_string"* nonnull %5, i8* %1872, i64 %1873) #17
  %1875 = call dereferenceable(24) %"class.std::__1::basic_string"* @_ZNSt3__112basic_stringIcNS_11char_traitsIcEENS_9allocatorIcEEE6appendEPKc(%"class.std::__1::basic_string"* nonnull %5, i8* getelementptr inbounds ([3 x i8], [3 x i8]* @_ZN6webrtcL10kLineBreakE, i64 0, i64 0)) #17
  %1876 = getelementptr inbounds %"class.std::__1::basic_string", %"class.std::__1::basic_string"* %1826, i64 1
  %1877 = icmp eq %"class.std::__1::basic_string"* %1876, %1782
  br i1 %1877, label %1798, label %1825

1878:                                             ; preds = %1738
  %1879 = sdiv exact i64 %1749, 168
  %1880 = icmp ugt i64 %1879, 1
  br i1 %1880, label %1881, label %1886

1881:                                             ; preds = %1878
  %1882 = bitcast %"class.rtc::DiagnosticLogMessage"* %59 to i8*
  call void @llvm.lifetime.start.p0i8(i64 304, i8* nonnull %1882) #17
  call void @_ZN3rtc20DiagnosticLogMessageC1EPKciNS_15LoggingSeverityENS_15LogErrorContextEi(%"class.rtc::DiagnosticLogMessage"* nonnull %59, i8* getelementptr inbounds ([42 x i8], [42 x i8]* @.str, i64 0, i64 0), i32 1647, i32 2, i32 0, i32 0) #17
  %1883 = getelementptr inbounds %"class.rtc::DiagnosticLogMessage", %"class.rtc::DiagnosticLogMessage"* %59, i64 0, i32 7
  %1884 = bitcast %"class.std::__1::basic_ostringstream"* %1883 to %"class.std::__1::basic_ostream"*
  %1885 = call dereferenceable(160) %"class.std::__1::basic_ostream"* @_ZNSt3__124__put_character_sequenceIcNS_11char_traitsIcEEEERNS_13basic_ostreamIT_T0_EES7_PKS4_m(%"class.std::__1::basic_ostream"* dereferenceable(160) %1884, i8* getelementptr inbounds ([101 x i8], [101 x i8]* @.str.30, i64 0, i64 0), i64 100) #17
  call void @_ZN3rtc20DiagnosticLogMessageD1Ev(%"class.rtc::DiagnosticLogMessage"* nonnull %59) #17
  call void @llvm.lifetime.end.p0i8(i64 304, i8* nonnull %1882) #17
  br label %1886

1886:                                             ; preds = %1881, %1878, %1824, %1722
  %1887 = bitcast %"class.cricket::MediaContentDescription"* %112 to i1 (%"class.cricket::MediaContentDescription"*)***
  %1888 = load i1 (%"class.cricket::MediaContentDescription"*)**, i1 (%"class.cricket::MediaContentDescription"*)*** %1887, align 8
  %1889 = getelementptr inbounds i1 (%"class.cricket::MediaContentDescription"*)*, i1 (%"class.cricket::MediaContentDescription"*)** %1888, i64 16
  %1890 = load i1 (%"class.cricket::MediaContentDescription"*)*, i1 (%"class.cricket::MediaContentDescription"*)** %1889, align 8
  %1891 = call zeroext i1 %1890(%"class.cricket::MediaContentDescription"* %112) #17
  br i1 %1891, label %1892, label %1914

1892:                                             ; preds = %1886
  %1893 = bitcast %"class.std::__1::basic_string"* %60 to i8*
  call void @llvm.lifetime.start.p0i8(i64 24, i8* nonnull %1893) #17
  %1894 = bitcast %"class.std::__1::basic_string"* %60 to %"struct.std::__1::basic_string<char, std::__1::char_traits<char>, std::__1::allocator<char> >::__short"*
  %1895 = getelementptr inbounds %"struct.std::__1::basic_string<char, std::__1::char_traits<char>, std::__1::allocator<char> >::__short", %"struct.std::__1::basic_string<char, std::__1::char_traits<char>, std::__1::allocator<char> >::__short"* %1894, i64 0, i32 1, i32 0
  store i8 8, i8* %1895, align 1
  %1896 = bitcast %"class.std::__1::basic_string"* %60 to i64*
  store i64 8679963898753021042, i64* %1896, align 8
  %1897 = getelementptr inbounds %"class.std::__1::basic_string", %"class.std::__1::basic_string"* %60, i64 0, i32 0, i32 0, i32 0, i32 0, i32 0, i32 1
  %1898 = bitcast i64* %1897 to i8*
  store i8 0, i8* %1898, align 8
  call fastcc void @_ZN6webrtcL8InitLineEcRKNSt3__112basic_stringIcNS0_11char_traitsIcEENS0_9allocatorIcEEEEPN3rtc13StringBuilderE(i8 signext 97, %"class.std::__1::basic_string"* nonnull dereferenceable(24) %60, %"class.rtc::StringBuilder"* nonnull %48) #17
  %1899 = load i8, i8* %1895, align 1
  %1900 = icmp slt i8 %1899, 0
  br i1 %1900, label %1901, label %1904

1901:                                             ; preds = %1892
  %1902 = getelementptr inbounds %"class.std::__1::basic_string", %"class.std::__1::basic_string"* %60, i64 0, i32 0, i32 0, i32 0, i32 0, i32 0, i32 0
  %1903 = load i8*, i8** %1902, align 8
  call void @_ZdlPv(i8* %1903) #18
  br label %1904

1904:                                             ; preds = %1892, %1901
  call void @llvm.lifetime.end.p0i8(i64 24, i8* nonnull %1893) #17
  %1905 = load i8, i8* %1726, align 1
  %1906 = icmp slt i8 %1905, 0
  %1907 = load i8*, i8** %1523, align 8
  %1908 = load i64, i64* %1524, align 8
  %1909 = zext i8 %1905 to i64
  %1910 = select i1 %1906, i8* %1907, i8* %1522
  %1911 = select i1 %1906, i64 %1908, i64 %1909
  %1912 = call dereferenceable(24) %"class.std::__1::basic_string"* @_ZNSt3__112basic_stringIcNS_11char_traitsIcEENS_9allocatorIcEEE6appendEPKcm(%"class.std::__1::basic_string"* nonnull %5, i8* %1910, i64 %1911) #17
  %1913 = call dereferenceable(24) %"class.std::__1::basic_string"* @_ZNSt3__112basic_stringIcNS_11char_traitsIcEENS_9allocatorIcEEE6appendEPKc(%"class.std::__1::basic_string"* nonnull %5, i8* getelementptr inbounds ([3 x i8], [3 x i8]* @_ZN6webrtcL10kLineBreakE, i64 0, i64 0)) #17
  br label %1914

1914:                                             ; preds = %1904, %1886
  %1915 = load i1 (%"class.cricket::MediaContentDescription"*)**, i1 (%"class.cricket::MediaContentDescription"*)*** %1887, align 8
  %1916 = getelementptr inbounds i1 (%"class.cricket::MediaContentDescription"*)*, i1 (%"class.cricket::MediaContentDescription"*)** %1915, i64 18
  %1917 = load i1 (%"class.cricket::MediaContentDescription"*)*, i1 (%"class.cricket::MediaContentDescription"*)** %1916, align 8
  %1918 = call zeroext i1 %1917(%"class.cricket::MediaContentDescription"* %112) #17
  br i1 %1918, label %1919, label %1939

1919:                                             ; preds = %1914
  %1920 = bitcast %"class.std::__1::basic_string"* %61 to i8*
  call void @llvm.lifetime.start.p0i8(i64 24, i8* nonnull %1920) #17
  %1921 = bitcast %"class.std::__1::basic_string"* %61 to %"struct.std::__1::basic_string<char, std::__1::char_traits<char>, std::__1::allocator<char> >::__short"*
  %1922 = getelementptr inbounds %"struct.std::__1::basic_string<char, std::__1::char_traits<char>, std::__1::allocator<char> >::__short", %"struct.std::__1::basic_string<char, std::__1::char_traits<char>, std::__1::allocator<char> >::__short"* %1921, i64 0, i32 1, i32 0
  store i8 10, i8* %1922, align 1
  call void @llvm.memcpy.p0i8.p0i8.i64(i8* nonnull align 8 %1920, i8* align 1 getelementptr inbounds ([11 x i8], [11 x i8]* @_ZN6webrtcL25kAttributeRtcpReducedSizeE, i64 0, i64 0), i64 10, i1 false) #17
  %1923 = getelementptr inbounds i8, i8* %1920, i64 10
  store i8 0, i8* %1923, align 2
  call fastcc void @_ZN6webrtcL8InitLineEcRKNSt3__112basic_stringIcNS0_11char_traitsIcEENS0_9allocatorIcEEEEPN3rtc13StringBuilderE(i8 signext 97, %"class.std::__1::basic_string"* nonnull dereferenceable(24) %61, %"class.rtc::StringBuilder"* nonnull %48) #17
  %1924 = load i8, i8* %1922, align 1
  %1925 = icmp slt i8 %1924, 0
  br i1 %1925, label %1926, label %1929

1926:                                             ; preds = %1919
  %1927 = getelementptr inbounds %"class.std::__1::basic_string", %"class.std::__1::basic_string"* %61, i64 0, i32 0, i32 0, i32 0, i32 0, i32 0, i32 0
  %1928 = load i8*, i8** %1927, align 8
  call void @_ZdlPv(i8* %1928) #18
  br label %1929

1929:                                             ; preds = %1919, %1926
  call void @llvm.lifetime.end.p0i8(i64 24, i8* nonnull %1920) #17
  %1930 = load i8, i8* %1726, align 1
  %1931 = icmp slt i8 %1930, 0
  %1932 = load i8*, i8** %1523, align 8
  %1933 = load i64, i64* %1524, align 8
  %1934 = zext i8 %1930 to i64
  %1935 = select i1 %1931, i8* %1932, i8* %1522
  %1936 = select i1 %1931, i64 %1933, i64 %1934
  %1937 = call dereferenceable(24) %"class.std::__1::basic_string"* @_ZNSt3__112basic_stringIcNS_11char_traitsIcEENS_9allocatorIcEEE6appendEPKcm(%"class.std::__1::basic_string"* nonnull %5, i8* %1935, i64 %1936) #17
  %1938 = call dereferenceable(24) %"class.std::__1::basic_string"* @_ZNSt3__112basic_stringIcNS_11char_traitsIcEENS_9allocatorIcEEE6appendEPKc(%"class.std::__1::basic_string"* nonnull %5, i8* getelementptr inbounds ([3 x i8], [3 x i8]* @_ZN6webrtcL10kLineBreakE, i64 0, i64 0)) #17
  br label %1939

1939:                                             ; preds = %1929, %1914
  %1940 = load i1 (%"class.cricket::MediaContentDescription"*)**, i1 (%"class.cricket::MediaContentDescription"*)*** %1887, align 8
  %1941 = getelementptr inbounds i1 (%"class.cricket::MediaContentDescription"*)*, i1 (%"class.cricket::MediaContentDescription"*)** %1940, i64 41
  %1942 = load i1 (%"class.cricket::MediaContentDescription"*)*, i1 (%"class.cricket::MediaContentDescription"*)** %1941, align 8
  %1943 = call zeroext i1 %1942(%"class.cricket::MediaContentDescription"* %112) #17
  br i1 %1943, label %1944, label %1966

1944:                                             ; preds = %1939
  %1945 = bitcast %"class.std::__1::basic_string"* %62 to i8*
  call void @llvm.lifetime.start.p0i8(i64 24, i8* nonnull %1945) #17
  %1946 = bitcast %"class.std::__1::basic_string"* %62 to %"struct.std::__1::basic_string<char, std::__1::char_traits<char>, std::__1::allocator<char> >::__short"*
  %1947 = getelementptr inbounds %"struct.std::__1::basic_string<char, std::__1::char_traits<char>, std::__1::allocator<char> >::__short", %"struct.std::__1::basic_string<char, std::__1::char_traits<char>, std::__1::allocator<char> >::__short"* %1946, i64 0, i32 1, i32 0
  store i8 13, i8* %1947, align 1
  call void @llvm.memcpy.p0i8.p0i8.i64(i8* nonnull align 8 %1945, i8* align 1 getelementptr inbounds ([14 x i8], [14 x i8]* @_ZN6webrtcL21kAttributeXGoogleFlagE, i64 0, i64 0), i64 13, i1 false) #17
  %1948 = getelementptr inbounds i8, i8* %1945, i64 13
  store i8 0, i8* %1948, align 1
  call fastcc void @_ZN6webrtcL8InitLineEcRKNSt3__112basic_stringIcNS0_11char_traitsIcEENS0_9allocatorIcEEEEPN3rtc13StringBuilderE(i8 signext 97, %"class.std::__1::basic_string"* nonnull dereferenceable(24) %62, %"class.rtc::StringBuilder"* nonnull %48) #17
  %1949 = load i8, i8* %1947, align 1
  %1950 = icmp slt i8 %1949, 0
  br i1 %1950, label %1951, label %1954

1951:                                             ; preds = %1944
  %1952 = getelementptr inbounds %"class.std::__1::basic_string", %"class.std::__1::basic_string"* %62, i64 0, i32 0, i32 0, i32 0, i32 0, i32 0, i32 0
  %1953 = load i8*, i8** %1952, align 8
  call void @_ZdlPv(i8* %1953) #18
  br label %1954

1954:                                             ; preds = %1944, %1951
  call void @llvm.lifetime.end.p0i8(i64 24, i8* nonnull %1945) #17
  %1955 = call dereferenceable(24) %"class.std::__1::basic_string"* @_ZNSt3__112basic_stringIcNS_11char_traitsIcEENS_9allocatorIcEEE6appendEPKcm(%"class.std::__1::basic_string"* nonnull %1724, i8* getelementptr inbounds ([2 x i8], [2 x i8]* @_ZN6webrtcL18kSdpDelimiterColonE, i64 0, i64 0), i64 1) #17
  %1956 = call dereferenceable(24) %"class.std::__1::basic_string"* @_ZNSt3__112basic_stringIcNS_11char_traitsIcEENS_9allocatorIcEEE6appendEPKcm(%"class.std::__1::basic_string"* nonnull %1724, i8* getelementptr inbounds ([11 x i8], [11 x i8]* @_ZN6webrtcL16kValueConferenceE, i64 0, i64 0), i64 10) #17
  %1957 = load i8, i8* %1726, align 1
  %1958 = icmp slt i8 %1957, 0
  %1959 = load i8*, i8** %1523, align 8
  %1960 = load i64, i64* %1524, align 8
  %1961 = zext i8 %1957 to i64
  %1962 = select i1 %1958, i8* %1959, i8* %1522
  %1963 = select i1 %1958, i64 %1960, i64 %1961
  %1964 = call dereferenceable(24) %"class.std::__1::basic_string"* @_ZNSt3__112basic_stringIcNS_11char_traitsIcEENS_9allocatorIcEEE6appendEPKcm(%"class.std::__1::basic_string"* nonnull %5, i8* %1962, i64 %1963) #17
  %1965 = call dereferenceable(24) %"class.std::__1::basic_string"* @_ZNSt3__112basic_stringIcNS_11char_traitsIcEENS_9allocatorIcEEE6appendEPKc(%"class.std::__1::basic_string"* nonnull %5, i8* getelementptr inbounds ([3 x i8], [3 x i8]* @_ZN6webrtcL10kLineBreakE, i64 0, i64 0)) #17
  br label %1966

1966:                                             ; preds = %1954, %1939
  %1967 = load i1 (%"class.cricket::MediaContentDescription"*)**, i1 (%"class.cricket::MediaContentDescription"*)*** %1887, align 8
  %1968 = getelementptr inbounds i1 (%"class.cricket::MediaContentDescription"*)*, i1 (%"class.cricket::MediaContentDescription"*)** %1967, i64 20
  %1969 = load i1 (%"class.cricket::MediaContentDescription"*)*, i1 (%"class.cricket::MediaContentDescription"*)** %1968, align 8
  %1970 = call zeroext i1 %1969(%"class.cricket::MediaContentDescription"* %112) #17
  br i1 %1970, label %1971, label %1991

1971:                                             ; preds = %1966
  %1972 = bitcast %"class.std::__1::basic_string"* %63 to i8*
  call void @llvm.lifetime.start.p0i8(i64 24, i8* nonnull %1972) #17
  %1973 = bitcast %"class.std::__1::basic_string"* %63 to %"struct.std::__1::basic_string<char, std::__1::char_traits<char>, std::__1::allocator<char> >::__short"*
  %1974 = getelementptr inbounds %"struct.std::__1::basic_string<char, std::__1::char_traits<char>, std::__1::allocator<char> >::__short", %"struct.std::__1::basic_string<char, std::__1::char_traits<char>, std::__1::allocator<char> >::__short"* %1973, i64 0, i32 1, i32 0
  store i8 19, i8* %1974, align 1
  call void @llvm.memcpy.p0i8.p0i8.i64(i8* nonnull align 8 %1972, i8* align 16 getelementptr inbounds ([20 x i8], [20 x i8]* @_ZN6webrtcL28kAttributeRtcpRemoteEstimateE, i64 0, i64 0), i64 19, i1 false) #17
  %1975 = getelementptr inbounds i8, i8* %1972, i64 19
  store i8 0, i8* %1975, align 1
  call fastcc void @_ZN6webrtcL8InitLineEcRKNSt3__112basic_stringIcNS0_11char_traitsIcEENS0_9allocatorIcEEEEPN3rtc13StringBuilderE(i8 signext 97, %"class.std::__1::basic_string"* nonnull dereferenceable(24) %63, %"class.rtc::StringBuilder"* nonnull %48) #17
  %1976 = load i8, i8* %1974, align 1
  %1977 = icmp slt i8 %1976, 0
  br i1 %1977, label %1978, label %1981

1978:                                             ; preds = %1971
  %1979 = getelementptr inbounds %"class.std::__1::basic_string", %"class.std::__1::basic_string"* %63, i64 0, i32 0, i32 0, i32 0, i32 0, i32 0, i32 0
  %1980 = load i8*, i8** %1979, align 8
  call void @_ZdlPv(i8* %1980) #18
  br label %1981

1981:                                             ; preds = %1971, %1978
  call void @llvm.lifetime.end.p0i8(i64 24, i8* nonnull %1972) #17
  %1982 = load i8, i8* %1726, align 1
  %1983 = icmp slt i8 %1982, 0
  %1984 = load i8*, i8** %1523, align 8
  %1985 = load i64, i64* %1524, align 8
  %1986 = zext i8 %1982 to i64
  %1987 = select i1 %1983, i8* %1984, i8* %1522
  %1988 = select i1 %1983, i64 %1985, i64 %1986
  %1989 = call dereferenceable(24) %"class.std::__1::basic_string"* @_ZNSt3__112basic_stringIcNS_11char_traitsIcEENS_9allocatorIcEEE6appendEPKcm(%"class.std::__1::basic_string"* nonnull %5, i8* %1987, i64 %1988) #17
  %1990 = call dereferenceable(24) %"class.std::__1::basic_string"* @_ZNSt3__112basic_stringIcNS_11char_traitsIcEENS_9allocatorIcEEE6appendEPKc(%"class.std::__1::basic_string"* nonnull %5, i8* getelementptr inbounds ([3 x i8], [3 x i8]* @_ZN6webrtcL10kLineBreakE, i64 0, i64 0)) #17
  br label %1991

1991:                                             ; preds = %1981, %1966
  %1992 = bitcast %"class.cricket::MediaContentDescription"* %112 to %"class.std::__1::vector.59"* (%"class.cricket::MediaContentDescription"*)***
  %1993 = load %"class.std::__1::vector.59"* (%"class.cricket::MediaContentDescription"*)**, %"class.std::__1::vector.59"* (%"class.cricket::MediaContentDescription"*)*** %1992, align 8
  %1994 = getelementptr inbounds %"class.std::__1::vector.59"* (%"class.cricket::MediaContentDescription"*)*, %"class.std::__1::vector.59"* (%"class.cricket::MediaContentDescription"*)** %1993, i64 26
  %1995 = load %"class.std::__1::vector.59"* (%"class.cricket::MediaContentDescription"*)*, %"class.std::__1::vector.59"* (%"class.cricket::MediaContentDescription"*)** %1994, align 8
  %1996 = call dereferenceable(24) %"class.std::__1::vector.59"* %1995(%"class.cricket::MediaContentDescription"* %112) #17
  %1997 = getelementptr inbounds %"class.std::__1::vector.59", %"class.std::__1::vector.59"* %1996, i64 0, i32 0, i32 0
  %1998 = load %"struct.cricket::CryptoParams"*, %"struct.cricket::CryptoParams"** %1997, align 8
  %1999 = getelementptr inbounds %"class.std::__1::vector.59", %"class.std::__1::vector.59"* %1996, i64 0, i32 0, i32 1
  %2000 = load %"struct.cricket::CryptoParams"*, %"struct.cricket::CryptoParams"** %1999, align 8
  %2001 = icmp eq %"struct.cricket::CryptoParams"* %1998, %2000
  br i1 %2001, label %2013, label %2002

2002:                                             ; preds = %1991
  %2003 = bitcast %"class.std::__1::basic_string"* %64 to i8*
  %2004 = bitcast %"class.std::__1::basic_string"* %64 to %"struct.std::__1::basic_string<char, std::__1::char_traits<char>, std::__1::allocator<char> >::__short"*
  %2005 = getelementptr inbounds %"struct.std::__1::basic_string<char, std::__1::char_traits<char>, std::__1::allocator<char> >::__short", %"struct.std::__1::basic_string<char, std::__1::char_traits<char>, std::__1::allocator<char> >::__short"* %2004, i64 0, i32 1, i32 0
  %2006 = getelementptr inbounds i8, i8* %2003, i64 6
  %2007 = getelementptr inbounds %"class.std::__1::basic_string", %"class.std::__1::basic_string"* %64, i64 0, i32 0, i32 0, i32 0, i32 0, i32 0, i32 0
  %2008 = bitcast %"class.std::__1::basic_string"* %28 to i8*
  %2009 = bitcast %"class.std::__1::basic_string"* %28 to %"struct.std::__1::basic_string<char, std::__1::char_traits<char>, std::__1::allocator<char> >::__short"*
  %2010 = getelementptr inbounds %"struct.std::__1::basic_string<char, std::__1::char_traits<char>, std::__1::allocator<char> >::__short", %"struct.std::__1::basic_string<char, std::__1::char_traits<char>, std::__1::allocator<char> >::__short"* %2009, i64 0, i32 1, i32 0
  %2011 = getelementptr inbounds %"class.std::__1::basic_string", %"class.std::__1::basic_string"* %28, i64 0, i32 0, i32 0, i32 0, i32 0, i32 0, i32 0
  %2012 = getelementptr inbounds %"class.std::__1::basic_string", %"class.std::__1::basic_string"* %28, i64 0, i32 0, i32 0, i32 0, i32 0, i32 0, i32 1
  br label %2916

2013:                                             ; preds = %3013, %1991
  %2014 = bitcast %"class.rtc::StringBuilder"* %36 to i8*
  call void @llvm.lifetime.start.p0i8(i64 24, i8* nonnull %2014) #17
  %2015 = getelementptr inbounds %"class.rtc::StringBuilder", %"class.rtc::StringBuilder"* %36, i64 0, i32 0, i32 0, i32 0, i32 0, i32 0, i32 0, i32 0
  %2016 = getelementptr inbounds %"class.rtc::StringBuilder", %"class.rtc::StringBuilder"* %36, i64 0, i32 0, i32 0, i32 0, i32 0, i32 0, i32 0, i32 1
  call void @llvm.memset.p0i8.i64(i8* nonnull align 8 %2014, i8 0, i64 24, i1 false) #17
  switch i32 %2, label %2832 [
    i32 1, label %2017
    i32 0, label %2153
  ]

2017:                                             ; preds = %2013
  %2018 = bitcast %"class.cricket::MediaContentDescription"* %112 to %"class.cricket::VideoContentDescription"* (%"class.cricket::MediaContentDescription"*)***
  %2019 = load %"class.cricket::VideoContentDescription"* (%"class.cricket::MediaContentDescription"*)**, %"class.cricket::VideoContentDescription"* (%"class.cricket::MediaContentDescription"*)*** %2018, align 8
  %2020 = getelementptr inbounds %"class.cricket::VideoContentDescription"* (%"class.cricket::MediaContentDescription"*)*, %"class.cricket::VideoContentDescription"* (%"class.cricket::MediaContentDescription"*)** %2019, i64 6
  %2021 = load %"class.cricket::VideoContentDescription"* (%"class.cricket::MediaContentDescription"*)*, %"class.cricket::VideoContentDescription"* (%"class.cricket::MediaContentDescription"*)** %2020, align 8
  %2022 = call %"class.cricket::VideoContentDescription"* %2021(%"class.cricket::MediaContentDescription"* %112) #17
  %2023 = getelementptr inbounds %"class.cricket::VideoContentDescription", %"class.cricket::VideoContentDescription"* %2022, i64 0, i32 0
  %2024 = bitcast %"class.cricket::VideoContentDescription"* %2022 to %"class.std::__1::vector.196"* (%"class.cricket::MediaContentDescriptionImpl.195"*)***
  %2025 = load %"class.std::__1::vector.196"* (%"class.cricket::MediaContentDescriptionImpl.195"*)**, %"class.std::__1::vector.196"* (%"class.cricket::MediaContentDescriptionImpl.195"*)*** %2024, align 8
  %2026 = getelementptr inbounds %"class.std::__1::vector.196"* (%"class.cricket::MediaContentDescriptionImpl.195"*)*, %"class.std::__1::vector.196"* (%"class.cricket::MediaContentDescriptionImpl.195"*)** %2025, i64 54
  %2027 = load %"class.std::__1::vector.196"* (%"class.cricket::MediaContentDescriptionImpl.195"*)*, %"class.std::__1::vector.196"* (%"class.cricket::MediaContentDescriptionImpl.195"*)** %2026, align 8
  %2028 = call dereferenceable(24) %"class.std::__1::vector.196"* %2027(%"class.cricket::MediaContentDescriptionImpl.195"* %2023) #17
  %2029 = getelementptr inbounds %"class.std::__1::vector.196", %"class.std::__1::vector.196"* %2028, i64 0, i32 0, i32 0
  %2030 = load %"struct.cricket::VideoCodec"*, %"struct.cricket::VideoCodec"** %2029, align 8
  %2031 = getelementptr inbounds %"class.std::__1::vector.196", %"class.std::__1::vector.196"* %2028, i64 0, i32 0, i32 1
  %2032 = load %"struct.cricket::VideoCodec"*, %"struct.cricket::VideoCodec"** %2031, align 8
  %2033 = icmp eq %"struct.cricket::VideoCodec"* %2030, %2032
  br i1 %2033, label %2832, label %2034

2034:                                             ; preds = %2017
  %2035 = bitcast %"class.std::__1::basic_string"* %37 to i8*
  %2036 = bitcast %"class.std::__1::basic_string"* %37 to %"struct.std::__1::basic_string<char, std::__1::char_traits<char>, std::__1::allocator<char> >::__short"*
  %2037 = getelementptr inbounds %"struct.std::__1::basic_string<char, std::__1::char_traits<char>, std::__1::allocator<char> >::__short", %"struct.std::__1::basic_string<char, std::__1::char_traits<char>, std::__1::allocator<char> >::__short"* %2036, i64 0, i32 1, i32 0
  %2038 = getelementptr inbounds i8, i8* %2035, i64 6
  %2039 = getelementptr inbounds %"class.std::__1::basic_string", %"class.std::__1::basic_string"* %37, i64 0, i32 0, i32 0, i32 0, i32 0, i32 0, i32 0
  %2040 = getelementptr inbounds %"class.rtc::StringBuilder", %"class.rtc::StringBuilder"* %36, i64 0, i32 0
  %2041 = bitcast %"class.std::__1::basic_string"* %35 to i8*
  %2042 = bitcast %"class.std::__1::basic_string"* %35 to %"struct.std::__1::basic_string<char, std::__1::char_traits<char>, std::__1::allocator<char> >::__short"*
  %2043 = getelementptr inbounds %"struct.std::__1::basic_string<char, std::__1::char_traits<char>, std::__1::allocator<char> >::__short", %"struct.std::__1::basic_string<char, std::__1::char_traits<char>, std::__1::allocator<char> >::__short"* %2042, i64 0, i32 1, i32 0
  %2044 = getelementptr inbounds %"class.std::__1::basic_string", %"class.std::__1::basic_string"* %35, i64 0, i32 0, i32 0, i32 0, i32 0, i32 0, i32 0
  %2045 = getelementptr inbounds %"class.std::__1::basic_string", %"class.std::__1::basic_string"* %35, i64 0, i32 0, i32 0, i32 0, i32 0, i32 0, i32 1
  %2046 = load i32, i32* @_ZN7cricket20kVideoCodecClockrateE, align 4
  %2047 = bitcast %"class.std::__1::basic_string"* %34 to i8*
  %2048 = bitcast %"class.std::__1::basic_string"* %34 to %"struct.std::__1::basic_string<char, std::__1::char_traits<char>, std::__1::allocator<char> >::__short"*
  %2049 = getelementptr inbounds %"struct.std::__1::basic_string<char, std::__1::char_traits<char>, std::__1::allocator<char> >::__short", %"struct.std::__1::basic_string<char, std::__1::char_traits<char>, std::__1::allocator<char> >::__short"* %2048, i64 0, i32 1, i32 0
  %2050 = getelementptr inbounds %"class.std::__1::basic_string", %"class.std::__1::basic_string"* %34, i64 0, i32 0, i32 0, i32 0, i32 0, i32 0, i32 0
  %2051 = getelementptr inbounds %"class.std::__1::basic_string", %"class.std::__1::basic_string"* %34, i64 0, i32 0, i32 0, i32 0, i32 0, i32 0, i32 1
  %2052 = bitcast %"class.rtc::StringBuilder"* %36 to %"struct.std::__1::basic_string<char, std::__1::char_traits<char>, std::__1::allocator<char> >::__short"*
  %2053 = getelementptr inbounds %"struct.std::__1::basic_string<char, std::__1::char_traits<char>, std::__1::allocator<char> >::__short", %"struct.std::__1::basic_string<char, std::__1::char_traits<char>, std::__1::allocator<char> >::__short"* %2052, i64 0, i32 1, i32 0
  %2054 = bitcast %"class.rtc::StringBuilder"* %33 to i8*
  %2055 = getelementptr inbounds %"class.rtc::StringBuilder", %"class.rtc::StringBuilder"* %33, i64 0, i32 0, i32 0, i32 0, i32 0, i32 0, i32 0, i32 0
  %2056 = getelementptr inbounds %"class.rtc::StringBuilder", %"class.rtc::StringBuilder"* %33, i64 0, i32 0
