; ModuleID = '../../chrome/common/webui_url_constants.cc'
source_filename = "../../chrome/common/webui_url_constants.cc"
target datalayout = "e-m:e-i64:64-f80:128-n8:16:32:64-S128"
target triple = "x86_64-unknown-linux-gnu"

@_ZN6chrome18kChromeUIAboutHostE = hidden constant [6 x i8] c"about\00", align 1
@_ZN6chrome17kChromeUIAboutURLE = hidden local_unnamed_addr constant [16 x i8] c"chrome://about/\00", align 16
@_ZN6chrome26kChromeUIAccessibilityHostE = hidden constant [14 x i8] c"accessibility\00", align 1
@_ZN6chrome20kChromeUIAppIconHostE = hidden local_unnamed_addr constant [9 x i8] c"app-icon\00", align 1
@_ZN6chrome19kChromeUIAppIconURLE = hidden local_unnamed_addr constant [19 x i8] c"chrome://app-icon/\00", align 16
@_ZN6chrome28kChromeUIAppLauncherPageHostE = hidden constant [5 x i8] c"apps\00", align 1
@_ZN6chrome16kChromeUIAppsURLE = hidden local_unnamed_addr constant [15 x i8] c"chrome://apps/\00", align 1
@_ZN6chrome30kChromeUIAutofillInternalsHostE = hidden constant [19 x i8] c"autofill-internals\00", align 16
@_ZN6chrome31kChromeUIBluetoothInternalsHostE = hidden constant [20 x i8] c"bluetooth-internals\00", align 16
@_ZN6chrome22kChromeUIBookmarksHostE = hidden constant [10 x i8] c"bookmarks\00", align 1
@_ZN6chrome21kChromeUIBookmarksURLE = hidden local_unnamed_addr constant [20 x i8] c"chrome://bookmarks/\00", align 16
@_ZN6chrome30kChromeUICertificateViewerHostE = hidden local_unnamed_addr constant [10 x i8] c"view-cert\00", align 1
@_ZN6chrome29kChromeUICertificateViewerURLE = hidden local_unnamed_addr constant [20 x i8] c"chrome://view-cert/\00", align 16
@_ZN6chrome25kChromeUIChromeSigninHostE = hidden local_unnamed_addr constant [14 x i8] c"chrome-signin\00", align 1
@_ZN6chrome24kChromeUIChromeSigninURLE = hidden local_unnamed_addr constant [24 x i8] c"chrome://chrome-signin/\00", align 16
@_ZN6chrome23kChromeUIChromeURLsHostE = hidden constant [12 x i8] c"chrome-urls\00", align 1
@_ZN6chrome22kChromeUIChromeURLsURLE = hidden local_unnamed_addr constant [22 x i8] c"chrome://chrome-urls/\00", align 16
@_ZN6chrome23kChromeUIComponentsHostE = hidden constant [11 x i8] c"components\00", align 1
@_ZN6chrome22kChromeUIConflictsHostE = hidden local_unnamed_addr constant [10 x i8] c"conflicts\00", align 1
@_ZN6chrome31kChromeUIConstrainedHTMLTestURLE = hidden local_unnamed_addr constant [27 x i8] c"chrome://constrained-test/\00", align 16
@_ZN6chrome27kChromeUIContentSettingsURLE = hidden local_unnamed_addr constant [26 x i8] c"chrome://settings/content\00", align 16
@_ZN6chrome36kChromeUICookieSettingsDeprecatedURLE = hidden local_unnamed_addr constant [34 x i8] c"chrome://settings/content/cookies\00", align 16
@_ZN6chrome26kChromeUICookieSettingsURLE = hidden local_unnamed_addr constant [26 x i8] c"chrome://settings/cookies\00", align 16
@_ZN6chrome18kChromeUICrashHostE = hidden local_unnamed_addr constant [6 x i8] c"crash\00", align 1
@_ZN6chrome20kChromeUICrashesHostE = hidden constant [8 x i8] c"crashes\00", align 1
@_ZN6chrome20kChromeUICreditsHostE = hidden constant [8 x i8] c"credits\00", align 1
@_ZN6chrome19kChromeUICreditsURLE = hidden local_unnamed_addr constant [18 x i8] c"chrome://credits/\00", align 16
@_ZN6chrome20kChromeUIDefaultHostE = hidden local_unnamed_addr constant [8 x i8] c"version\00", align 1
@_ZN6chrome26kChromeUIDelayedHangUIHostE = hidden local_unnamed_addr constant [20 x i8] c"delayeduithreadhang\00", align 16
@_ZN6chrome26kChromeUIDevToolsBlankPathE = hidden local_unnamed_addr constant [6 x i8] c"blank\00", align 1
@_ZN6chrome28kChromeUIDevToolsBundledPathE = hidden local_unnamed_addr constant [8 x i8] c"bundled\00", align 1
@_ZN6chrome27kChromeUIDevToolsCustomPathE = hidden local_unnamed_addr constant [7 x i8] c"custom\00", align 1
@_ZN6chrome21kChromeUIDevToolsHostE = hidden local_unnamed_addr constant [9 x i8] c"devtools\00", align 1
@_ZN6chrome27kChromeUIDevToolsRemotePathE = hidden local_unnamed_addr constant [7 x i8] c"remote\00", align 1
@_ZN6chrome20kChromeUIDevToolsURLE = hidden local_unnamed_addr constant [43 x i8] c"devtools://devtools/bundled/inspector.html\00", align 16
@_ZN6chrome22kChromeUIDeviceLogHostE = hidden constant [11 x i8] c"device-log\00", align 1
@_ZN6chrome20kChromeUIDevicesHostE = hidden constant [8 x i8] c"devices\00", align 1
@_ZN6chrome19kChromeUIDevicesURLE = hidden local_unnamed_addr constant [18 x i8] c"chrome://devices/\00", align 16
@_ZN6chrome23kChromeUIDevUiLoaderURLE = hidden local_unnamed_addr constant [24 x i8] c"chrome://dev-ui-loader/\00", align 16
@_ZN6chrome35kChromeUIDiceWebSigninInterceptHostE = hidden local_unnamed_addr constant [26 x i8] c"signin-dice-web-intercept\00", align 16
@_ZN6chrome34kChromeUIDiceWebSigninInterceptURLE = hidden local_unnamed_addr constant [36 x i8] c"chrome://signin-dice-web-intercept/\00", align 16
@_ZN6chrome39kChromeUIDomainReliabilityInternalsHostE = hidden local_unnamed_addr constant [29 x i8] c"domain-reliability-internals\00", align 16
@_ZN6chrome30kChromeUIDownloadInternalsHostE = hidden constant [19 x i8] c"download-internals\00", align 16
@_ZN6chrome22kChromeUIDownloadsHostE = hidden constant [10 x i8] c"downloads\00", align 1
@_ZN6chrome21kChromeUIDownloadsURLE = hidden local_unnamed_addr constant [20 x i8] c"chrome://downloads/\00", align 16
@_ZN6chrome27kChromeUIDriveInternalsHostE = hidden local_unnamed_addr constant [16 x i8] c"drive-internals\00", align 16
@_ZN6chrome33kChromeUIEDUCoexistenceLoginURLV1E = hidden local_unnamed_addr constant [27 x i8] c"chrome://chrome-signin/edu\00", align 16
@_ZN6chrome33kChromeUIEDUCoexistenceLoginURLV2E = hidden local_unnamed_addr constant [39 x i8] c"chrome://chrome-signin/edu-coexistence\00", align 16
@_ZN6chrome26kChromeUIExtensionIconHostE = hidden local_unnamed_addr constant [15 x i8] c"extension-icon\00", align 1
@_ZN6chrome25kChromeUIExtensionIconURLE = hidden local_unnamed_addr constant [25 x i8] c"chrome://extension-icon/\00", align 16
@_ZN6chrome23kChromeUIExtensionsHostE = hidden constant [11 x i8] c"extensions\00", align 1
@_ZN6chrome32kChromeUIExtensionsInternalsHostE = hidden local_unnamed_addr constant [21 x i8] c"extensions-internals\00", align 16
@_ZN6chrome22kChromeUIExtensionsURLE = hidden local_unnamed_addr constant [21 x i8] c"chrome://extensions/\00", align 16
@_ZN6chrome20kChromeUIFaviconHostE = hidden local_unnamed_addr constant [8 x i8] c"favicon\00", align 1
@_ZN6chrome19kChromeUIFaviconURLE = hidden local_unnamed_addr constant [18 x i8] c"chrome://favicon/\00", align 16
@_ZN6chrome21kChromeUIFavicon2HostE = hidden local_unnamed_addr constant [9 x i8] c"favicon2\00", align 1
@_ZN6chrome21kChromeUIFeedbackHostE = hidden local_unnamed_addr constant [9 x i8] c"feedback\00", align 1
@_ZN6chrome20kChromeUIFeedbackURLE = hidden local_unnamed_addr constant [19 x i8] c"chrome://feedback/\00", align 16
@_ZN6chrome20kChromeUIFileiconURLE = hidden local_unnamed_addr constant [19 x i8] c"chrome://fileicon/\00", align 16
@_ZN6chrome18kChromeUIFlagsHostE = hidden constant [6 x i8] c"flags\00", align 1
@_ZN6chrome17kChromeUIFlagsURLE = hidden local_unnamed_addr constant [16 x i8] c"chrome://flags/\00", align 16
@_ZN6chrome25kChromeUIGCMInternalsHostE = hidden constant [14 x i8] c"gcm-internals\00", align 1
@_ZN6chrome19kChromeUIHangUIHostE = hidden local_unnamed_addr constant [13 x i8] c"uithreadhang\00", align 1
@_ZN6chrome17kChromeUIHelpHostE = hidden constant [5 x i8] c"help\00", align 1
@_ZN6chrome16kChromeUIHelpURLE = hidden local_unnamed_addr constant [15 x i8] c"chrome://help/\00", align 1
@_ZN6chrome20kChromeUIHistoryHostE = hidden constant [8 x i8] c"history\00", align 1
@_ZN6chrome26kChromeUIHistorySyncedTabsE = hidden local_unnamed_addr constant [12 x i8] c"/syncedTabs\00", align 1
@_ZN6chrome19kChromeUIHistoryURLE = hidden local_unnamed_addr constant [18 x i8] c"chrome://history/\00", align 16
@_ZN6chrome30kChromeUIIdentityInternalsHostE = hidden local_unnamed_addr constant [19 x i8] c"identity-internals\00", align 16
@_ZN6chrome18kChromeUIImageHostE = hidden local_unnamed_addr constant [6 x i8] c"image\00", align 1
@_ZN6chrome17kChromeUIImageURLE = hidden local_unnamed_addr constant [16 x i8] c"chrome://image/\00", align 16
@_ZN6chrome20kChromeUIInspectHostE = hidden constant [8 x i8] c"inspect\00", align 1
@_ZN6chrome19kChromeUIInspectURLE = hidden local_unnamed_addr constant [18 x i8] c"chrome://inspect/\00", align 16
@_ZN6chrome22kChromeUIInternalsHostE = hidden local_unnamed_addr constant [10 x i8] c"internals\00", align 1
@_ZN6chrome32kChromeUIInternalsQueryTilesPathE = hidden local_unnamed_addr constant [12 x i8] c"query-tiles\00", align 1
@_ZN6chrome28kChromeUIInternalsWebAppPathE = hidden constant [8 x i8] c"web-app\00", align 1
@_ZN6chrome25kChromeUIInterstitialHostE = hidden constant [14 x i8] c"interstitials\00", align 1
@_ZN6chrome24kChromeUIInterstitialURLE = hidden local_unnamed_addr constant [24 x i8] c"chrome://interstitials/\00", align 16
@_ZN6chrome26kChromeUIInvalidationsHostE = hidden constant [14 x i8] c"invalidations\00", align 1
@_ZN6chrome17kChromeUIKillHostE = hidden local_unnamed_addr constant [5 x i8] c"kill\00", align 1
@_ZN6chrome23kChromeUILocalStateHostE = hidden constant [12 x i8] c"local-state\00", align 1
@_ZN6chrome23kChromeUIManagementHostE = hidden constant [11 x i8] c"management\00", align 1
@_ZN6chrome22kChromeUIManagementURLE = hidden local_unnamed_addr constant [20 x i8] c"chrome://management\00", align 16
@_ZN6chrome28kChromeUIMediaEngagementHostE = hidden constant [17 x i8] c"media-engagement\00", align 16
@_ZN6chrome25kChromeUIMediaHistoryHostE = hidden local_unnamed_addr constant [14 x i8] c"media-history\00", align 1
@_ZN6chrome33kChromeUIMediaRouterInternalsHostE = hidden local_unnamed_addr constant [23 x i8] c"media-router-internals\00", align 16
@_ZN6chrome21kChromeUIMemoriesHostE = hidden constant [9 x i8] c"memories\00", align 1
@_ZN6chrome28kChromeUIMemoryInternalsHostE = hidden local_unnamed_addr constant [17 x i8] c"memory-internals\00", align 16
@_ZN6chrome30kChromeUINTPTilesInternalsHostE = hidden constant [20 x i8] c"ntp-tiles-internals\00", align 16
@_ZN6chrome17kChromeUINaClHostE = hidden constant [5 x i8] c"nacl\00", align 1
@_ZN6chrome22kChromeUINetExportHostE = hidden constant [11 x i8] c"net-export\00", align 1
@_ZN6chrome25kChromeUINetInternalsHostE = hidden constant [14 x i8] c"net-internals\00", align 1
@_ZN6chrome24kChromeUINetInternalsURLE = hidden local_unnamed_addr constant [24 x i8] c"chrome://net-internals/\00", align 16
@_ZN6chrome19kChromeUINewTabHostE = hidden constant [7 x i8] c"newtab\00", align 1
@_ZN6chrome23kChromeUINewTabIconHostE = hidden local_unnamed_addr constant [8 x i8] c"ntpicon\00", align 1
@_ZN6chrome23kChromeUINewTabPageHostE = hidden constant [13 x i8] c"new-tab-page\00", align 1
@_ZN6chrome22kChromeUINewTabPageURLE = hidden local_unnamed_addr constant [23 x i8] c"chrome://new-tab-page/\00", align 16
@_ZN6chrome33kChromeUINewTabPageThirdPartyHostE = hidden constant [25 x i8] c"new-tab-page-third-party\00", align 16
@_ZN6chrome32kChromeUINewTabPageThirdPartyURLE = hidden local_unnamed_addr constant [35 x i8] c"chrome://new-tab-page-third-party/\00", align 16
@_ZN6chrome18kChromeUINewTabURLE = hidden local_unnamed_addr constant [17 x i8] c"chrome://newtab/\00", align 16
@_ZN6chrome20kChromeUIOmniboxHostE = hidden constant [8 x i8] c"omnibox\00", align 1
@_ZN6chrome19kChromeUIOmniboxURLE = hidden local_unnamed_addr constant [18 x i8] c"chrome://omnibox/\00", align 16
@_ZN6chrome37kChromeUIPasswordManagerInternalsHostE = hidden constant [27 x i8] c"password-manager-internals\00", align 16
@_ZN6chrome19kChromeUIPolicyHostE = hidden constant [7 x i8] c"policy\00", align 1
@_ZN6chrome18kChromeUIPolicyURLE = hidden local_unnamed_addr constant [17 x i8] c"chrome://policy/\00", align 16
@_ZN6chrome23kChromeUIPredictorsHostE = hidden constant [11 x i8] c"predictors\00", align 1
@_ZN6chrome27kChromeUIPrefsInternalsHostE = hidden constant [16 x i8] c"prefs-internals\00", align 16
@_ZN6chrome17kChromeUIPrintURLE = hidden local_unnamed_addr constant [16 x i8] c"chrome://print/\00", align 16
@_ZN6chrome17kChromeUIQuitHostE = hidden local_unnamed_addr constant [5 x i8] c"quit\00", align 1
@_ZN6chrome16kChromeUIQuitURLE = hidden constant [15 x i8] c"chrome://quit/\00", align 1
@_ZN6chrome27kChromeUIQuotaInternalsHostE = hidden constant [16 x i8] c"quota-internals\00", align 16
@_ZN6chrome26kChromeUIResetPasswordHostE = hidden local_unnamed_addr constant [15 x i8] c"reset-password\00", align 1
@_ZN6chrome25kChromeUIResetPasswordURLE = hidden local_unnamed_addr constant [25 x i8] c"chrome://reset-password/\00", align 16
@_ZN6chrome20kChromeUIRestartHostE = hidden local_unnamed_addr constant [8 x i8] c"restart\00", align 1
@_ZN6chrome19kChromeUIRestartURLE = hidden constant [18 x i8] c"chrome://restart/\00", align 16
@_ZN6chrome27kChromeUISafetyPixelbookURLE = hidden local_unnamed_addr constant [29 x i8] c"https://g.co/Pixelbook/legal\00", align 16
@_ZN6chrome28kChromeUISafetyPixelSlateURLE = hidden local_unnamed_addr constant [30 x i8] c"https://g.co/PixelSlate/legal\00", align 16
@_ZN6chrome36kChromeUISessionServiceInternalsPathE = hidden constant [16 x i8] c"session-service\00", align 16
@_ZN6chrome21kChromeUISettingsHostE = hidden constant [9 x i8] c"settings\00", align 1
@_ZN6chrome20kChromeUISettingsURLE = hidden local_unnamed_addr constant [19 x i8] c"chrome://settings/\00", align 16
@_ZN6chrome28kChromeUISignInInternalsHostE = hidden constant [17 x i8] c"signin-internals\00", align 16
@_ZN6chrome36kChromeUISigninEmailConfirmationHostE = hidden local_unnamed_addr constant [26 x i8] c"signin-email-confirmation\00", align 16
@_ZN6chrome35kChromeUISigninEmailConfirmationURLE = hidden local_unnamed_addr constant [35 x i8] c"chrome://signin-email-confirmation\00", align 16
@_ZN6chrome24kChromeUISigninErrorHostE = hidden local_unnamed_addr constant [13 x i8] c"signin-error\00", align 1
@_ZN6chrome23kChromeUISigninErrorURLE = hidden local_unnamed_addr constant [23 x i8] c"chrome://signin-error/\00", align 16
@_ZN6chrome25kChromeUISigninReauthHostE = hidden local_unnamed_addr constant [14 x i8] c"signin-reauth\00", align 1
@_ZN6chrome24kChromeUISigninReauthURLE = hidden local_unnamed_addr constant [24 x i8] c"chrome://signin-reauth/\00", align 16
@_ZN6chrome29kChromeUISiteDetailsPrefixURLE = hidden local_unnamed_addr constant [44 x i8] c"chrome://settings/content/siteDetails?site=\00", align 16
@_ZN6chrome27kChromeUISiteEngagementHostE = hidden constant [16 x i8] c"site-engagement\00", align 16
@_ZN6chrome24kChromeUISuggestionsHostE = hidden constant [12 x i8] c"suggestions\00", align 1
@_ZN6chrome23kChromeUISuggestionsURLE = hidden local_unnamed_addr constant [22 x i8] c"chrome://suggestions/\00", align 16
@_ZN6chrome41kChromeUISupervisedUserPassphrasePageHostE = hidden local_unnamed_addr constant [24 x i8] c"managed-user-passphrase\00", align 16
@_ZN6chrome29kChromeUISyncConfirmationHostE = hidden local_unnamed_addr constant [18 x i8] c"sync-confirmation\00", align 16
@_ZN6chrome36kChromeUISyncConfirmationLoadingPathE = hidden local_unnamed_addr constant [8 x i8] c"loading\00", align 1
@_ZN6chrome28kChromeUISyncConfirmationURLE = hidden local_unnamed_addr constant [28 x i8] c"chrome://sync-confirmation/\00", align 16
@_ZN6chrome36kChromeUISyncFileSystemInternalsHostE = hidden local_unnamed_addr constant [17 x i8] c"syncfs-internals\00", align 16
@_ZN6chrome17kChromeUISyncHostE = hidden local_unnamed_addr constant [5 x i8] c"sync\00", align 1
@_ZN6chrome26kChromeUISyncInternalsHostE = hidden constant [15 x i8] c"sync-internals\00", align 1
@_ZN6chrome23kChromeUISystemInfoHostE = hidden constant [7 x i8] c"system\00", align 1
@_ZN6chrome18kChromeUITermsHostE = hidden constant [6 x i8] c"terms\00", align 1
@_ZN6chrome17kChromeUITermsURLE = hidden local_unnamed_addr constant [16 x i8] c"chrome://terms/\00", align 16
@_ZN6chrome18kChromeUIThemeHostE = hidden local_unnamed_addr constant [6 x i8] c"theme\00", align 1
@_ZN6chrome17kChromeUIThemeURLE = hidden local_unnamed_addr constant [16 x i8] c"chrome://theme/\00", align 16
@_ZN6chrome24kChromeUITopChromeDomainE = hidden local_unnamed_addr constant [11 x i8] c"top-chrome\00", align 1
@_ZN6chrome26kChromeUIUntrustedThemeURLE = hidden local_unnamed_addr constant [26 x i8] c"chrome-untrusted://theme/\00", align 16
@_ZN6chrome23kChromeUIThumbnailHost2E = hidden local_unnamed_addr constant [7 x i8] c"thumb2\00", align 1
@_ZN6chrome22kChromeUIThumbnailHostE = hidden local_unnamed_addr constant [6 x i8] c"thumb\00", align 1
@_ZN6chrome21kChromeUIThumbnailURLE = hidden local_unnamed_addr constant [16 x i8] c"chrome://thumb/\00", align 16
@_ZN6chrome31kChromeUITranslateInternalsHostE = hidden constant [20 x i8] c"translate-internals\00", align 16
@_ZN6chrome25kChromeUIUsbInternalsHostE = hidden constant [14 x i8] c"usb-internals\00", align 1
@_ZN6chrome24kChromeUIUserActionsHostE = hidden constant [13 x i8] c"user-actions\00", align 1
@_ZN6chrome20kChromeUIVersionHostE = hidden constant [8 x i8] c"version\00", align 1
@_ZN6chrome19kChromeUIVersionURLE = hidden local_unnamed_addr constant [18 x i8] c"chrome://version/\00", align 16
@_ZN6chrome32kChromeUIWebFooterExperimentHostE = hidden local_unnamed_addr constant [22 x i8] c"web-footer-experiment\00", align 16
@_ZN6chrome31kChromeUIWebFooterExperimentURLE = hidden local_unnamed_addr constant [32 x i8] c"chrome://web-footer-experiment/\00", align 16
@_ZN6chrome20kChromeUIWelcomeHostE = hidden local_unnamed_addr constant [8 x i8] c"welcome\00", align 1
@_ZN6chrome19kChromeUIWelcomeURLE = hidden local_unnamed_addr constant [18 x i8] c"chrome://welcome/\00", align 16
@_ZN6chrome28kChromeUINearbyInternalsHostE = hidden local_unnamed_addr constant [17 x i8] c"nearby-internals\00", align 16
@_ZN6chrome22kChromeUIReadLaterHostE = hidden local_unnamed_addr constant [22 x i8] c"read-later.top-chrome\00", align 16
@_ZN6chrome21kChromeUIReadLaterURLE = hidden local_unnamed_addr constant [32 x i8] c"chrome://read-later.top-chrome/\00", align 16
@_ZN6chrome25kChromeUIWebUIJsErrorHostE = hidden local_unnamed_addr constant [13 x i8] c"webuijserror\00", align 1
@_ZN6chrome24kChromeUIWebUIJsErrorURLE = hidden constant [23 x i8] c"chrome://webuijserror/\00", align 16
@_ZN6chrome21kChromeUIDiscardsHostE = hidden constant [9 x i8] c"discards\00", align 1
@_ZN6chrome20kChromeUIDiscardsURLE = hidden local_unnamed_addr constant [19 x i8] c"chrome://discards/\00", align 16
@_ZN6chrome24kChromeUINearbyShareHostE = hidden local_unnamed_addr constant [7 x i8] c"nearby\00", align 1
@_ZN6chrome23kChromeUINearbyShareURLE = hidden local_unnamed_addr constant [17 x i8] c"chrome://nearby/\00", align 16
@_ZN6chrome29kChromeUILinuxProxyConfigHostE = hidden constant [19 x i8] c"linux-proxy-config\00", align 16
@_ZN6chrome20kChromeUISandboxHostE = hidden constant [8 x i8] c"sandbox\00", align 1
@_ZN6chrome26kChromeUIBrowserSwitchHostE = hidden local_unnamed_addr constant [15 x i8] c"browser-switch\00", align 1
@_ZN6chrome25kChromeUIBrowserSwitchURLE = hidden local_unnamed_addr constant [25 x i8] c"chrome://browser-switch/\00", align 16
@_ZN6chrome37kChromeUIEnterpriseProfileWelcomeHostE = hidden local_unnamed_addr constant [27 x i8] c"enterprise-profile-welcome\00", align 16
@_ZN6chrome36kChromeUIEnterpriseProfileWelcomeURLE = hidden local_unnamed_addr constant [37 x i8] c"chrome://enterprise-profile-welcome/\00", align 16
@_ZN6chrome33kChromeUIProfileCustomizationHostE = hidden local_unnamed_addr constant [22 x i8] c"profile-customization\00", align 16
@_ZN6chrome32kChromeUIProfileCustomizationURLE = hidden local_unnamed_addr constant [31 x i8] c"chrome://profile-customization\00", align 16
@_ZN6chrome26kChromeUIProfilePickerHostE = hidden local_unnamed_addr constant [15 x i8] c"profile-picker\00", align 1
@_ZN6chrome25kChromeUIProfilePickerUrlE = hidden local_unnamed_addr constant [25 x i8] c"chrome://profile-picker/\00", align 16
@_ZN6chrome34kChromeUIProfilePickerStartupQueryE = hidden local_unnamed_addr constant [8 x i8] c"startup\00", align 1
@_ZN6chrome34kChromeUITabModalConfirmDialogHostE = hidden local_unnamed_addr constant [25 x i8] c"tab-modal-confirm-dialog\00", align 16
@_ZN6chrome18kChromeUIPrintHostE = hidden constant [6 x i8] c"print\00", align 1
@_ZN6chrome21kChromeUITabStripHostE = hidden local_unnamed_addr constant [10 x i8] c"tab-strip\00", align 1
@_ZN6chrome20kChromeUITabStripURLE = hidden local_unnamed_addr constant [19 x i8] c"chrome://tab-strip\00", align 16
@_ZN6chrome22kChromeUICommanderHostE = hidden local_unnamed_addr constant [10 x i8] c"commander\00", align 1
@_ZN6chrome21kChromeUICommanderURLE = hidden local_unnamed_addr constant [19 x i8] c"chrome://commander\00", align 16
@_ZN6chrome26kChromeUIDownloadShelfHostE = hidden local_unnamed_addr constant [26 x i8] c"download-shelf.top-chrome\00", align 16
@_ZN6chrome25kChromeUIDownloadShelfURLE = hidden local_unnamed_addr constant [36 x i8] c"chrome://download-shelf.top-chrome/\00", align 16
@_ZN6chrome22kChromeUITabSearchHostE = hidden local_unnamed_addr constant [22 x i8] c"tab-search.top-chrome\00", align 16
@_ZN6chrome21kChromeUITabSearchURLE = hidden local_unnamed_addr constant [32 x i8] c"chrome://tab-search.top-chrome/\00", align 16
@_ZN6chrome23kChromeUIWebRtcLogsHostE = hidden constant [12 x i8] c"webrtc-logs\00", align 1
@_ZN6chrome21kAccessibilitySubPageE = hidden local_unnamed_addr constant [14 x i8] c"accessibility\00", align 1
@_ZN6chrome17kAddressesSubPageE = hidden local_unnamed_addr constant [10 x i8] c"addresses\00", align 1
@_ZN6chrome18kAppearanceSubPageE = hidden local_unnamed_addr constant [11 x i8] c"appearance\00", align 1
@_ZN6chrome16kAutofillSubPageE = hidden local_unnamed_addr constant [9 x i8] c"autofill\00", align 1
@_ZN6chrome24kClearBrowserDataSubPageE = hidden local_unnamed_addr constant [17 x i8] c"clearBrowserData\00", align 16
@_ZN6chrome21kCloudPrintersSubPageE = hidden local_unnamed_addr constant [14 x i8] c"cloudPrinters\00", align 1
@_ZN6chrome23kContentSettingsSubPageE = hidden local_unnamed_addr constant [8 x i8] c"content\00", align 1
@_ZN6chrome22kCookieSettingsSubPageE = hidden local_unnamed_addr constant [8 x i8] c"cookies\00", align 1
@_ZN6chrome17kDownloadsSubPageE = hidden local_unnamed_addr constant [10 x i8] c"downloads\00", align 1
@_ZN6chrome23kHandlerSettingsSubPageE = hidden local_unnamed_addr constant [9 x i8] c"handlers\00", align 1
@_ZN6chrome18kImportDataSubPageE = hidden local_unnamed_addr constant [11 x i8] c"importData\00", align 1
@_ZN6chrome17kLanguagesSubPageE = hidden local_unnamed_addr constant [18 x i8] c"languages/details\00", align 16
@_ZN6chrome23kLanguageOptionsSubPageE = hidden local_unnamed_addr constant [10 x i8] c"languages\00", align 1
@_ZN6chrome17kOnStartupSubPageE = hidden local_unnamed_addr constant [10 x i8] c"onStartup\00", align 1
@_ZN6chrome21kPasswordCheckSubPageE = hidden local_unnamed_addr constant [27 x i8] c"passwords/check?start=true\00", align 16
@_ZN6chrome23kPasswordManagerSubPageE = hidden local_unnamed_addr constant [10 x i8] c"passwords\00", align 1
@_ZN6chrome16kPaymentsSubPageE = hidden local_unnamed_addr constant [9 x i8] c"payments\00", align 1
@_ZN6chrome24kPrintingSettingsSubPageE = hidden local_unnamed_addr constant [9 x i8] c"printing\00", align 1
@_ZN6chrome15kPrivacySubPageE = hidden local_unnamed_addr constant [8 x i8] c"privacy\00", align 1
@_ZN6chrome13kResetSubPageE = hidden local_unnamed_addr constant [6 x i8] c"reset\00", align 1
@_ZN6chrome28kResetProfileSettingsSubPageE = hidden local_unnamed_addr constant [21 x i8] c"resetProfileSettings\00", align 16
@_ZN6chrome38kSafeBrowsingEnhancedProtectionSubPageE = hidden local_unnamed_addr constant [20 x i8] c"security?q=enhanced\00", align 16
@_ZN6chrome19kSafetyCheckSubPageE = hidden local_unnamed_addr constant [12 x i8] c"safetyCheck\00", align 1
@_ZN6chrome14kSearchSubPageE = hidden local_unnamed_addr constant [7 x i8] c"search\00", align 1
@_ZN6chrome21kSearchEnginesSubPageE = hidden local_unnamed_addr constant [14 x i8] c"searchEngines\00", align 1
@_ZN6chrome15kSignOutSubPageE = hidden local_unnamed_addr constant [8 x i8] c"signOut\00", align 1
@_ZN6chrome17kSyncSetupSubPageE = hidden local_unnamed_addr constant [10 x i8] c"syncSetup\00", align 1
@_ZN6chrome37kTriggeredResetProfileSettingsSubPageE = hidden local_unnamed_addr constant [30 x i8] c"triggeredResetProfileSettings\00", align 16
@_ZN6chrome21kCreateProfileSubPageE = hidden local_unnamed_addr constant [14 x i8] c"createProfile\00", align 1
@_ZN6chrome21kManageProfileSubPageE = hidden local_unnamed_addr constant [14 x i8] c"manageProfile\00", align 1
@_ZN6chrome14kPeopleSubPageE = hidden local_unnamed_addr constant [7 x i8] c"people\00", align 1
@_ZN6chrome26kPrivacySandboxSubPagePathE = hidden local_unnamed_addr constant [16 x i8] c"/privacySandbox\00", align 16
@_ZN6chrome34kExtensionConfigureCommandsSubPageE = hidden local_unnamed_addr constant [18 x i8] c"configureCommands\00", align 16
@_ZN13safe_browsing25kChromeUISafeBrowsingHostE = external constant [0 x i8], align 1
@_ZN7content30kChromeUIAppCacheInternalsHostE = external constant [0 x i8], align 1
@_ZN7content26kChromeUIBlobInternalsHostE = external constant [0 x i8], align 1
@_ZN7content32kChromeUIConversionInternalsHostE = external constant [0 x i8], align 1
@_ZN7content17kChromeUIDinoHostE = external constant [0 x i8], align 1
@_ZN7content16kChromeUIGpuHostE = external constant [0 x i8], align 1
@_ZN7content22kChromeUIHistogramHostE = external constant [0 x i8], align 1
@_ZN7content31kChromeUIIndexedDBInternalsHostE = external constant [0 x i8], align 1
@_ZN7content27kChromeUIMediaInternalsHostE = external constant [0 x i8], align 1
@_ZN7content25kChromeUINetworkErrorHostE = external constant [0 x i8], align 1
@_ZN7content33kChromeUINetworkErrorsListingHostE = external constant [0 x i8], align 1
@_ZN7content29kChromeUIProcessInternalsHostE = external constant [0 x i8], align 1
@_ZN7content35kChromeUIServiceWorkerInternalsHostE = external constant [0 x i8], align 1
@_ZN7content20kChromeUITracingHostE = external constant [0 x i8], align 1
@_ZN7content16kChromeUIUkmHostE = external constant [0 x i8], align 1
@_ZN7content28kChromeUIWebRTCInternalsHostE = external constant [0 x i8], align 1
@_ZN6chrome15kChromeHostURLsE = hidden local_unnamed_addr constant [71 x i8*] [i8* getelementptr inbounds ([6 x i8], [6 x i8]* @_ZN6chrome18kChromeUIAboutHostE, i32 0, i32 0), i8* getelementptr inbounds ([14 x i8], [14 x i8]* @_ZN6chrome26kChromeUIAccessibilityHostE, i32 0, i32 0), i8* getelementptr inbounds ([19 x i8], [19 x i8]* @_ZN6chrome30kChromeUIAutofillInternalsHostE, i32 0, i32 0), i8* getelementptr inbounds ([20 x i8], [20 x i8]* @_ZN6chrome31kChromeUIBluetoothInternalsHostE, i32 0, i32 0), i8* getelementptr inbounds ([12 x i8], [12 x i8]* @_ZN6chrome23kChromeUIChromeURLsHostE, i32 0, i32 0), i8* getelementptr inbounds ([11 x i8], [11 x i8]* @_ZN6chrome23kChromeUIComponentsHostE, i32 0, i32 0), i8* getelementptr inbounds ([8 x i8], [8 x i8]* @_ZN6chrome20kChromeUICrashesHostE, i32 0, i32 0), i8* getelementptr inbounds ([8 x i8], [8 x i8]* @_ZN6chrome20kChromeUICreditsHostE, i32 0, i32 0), i8* getelementptr inbounds ([11 x i8], [11 x i8]* @_ZN6chrome22kChromeUIDeviceLogHostE, i32 0, i32 0), i8* getelementptr inbounds ([19 x i8], [19 x i8]* @_ZN6chrome30kChromeUIDownloadInternalsHostE, i32 0, i32 0), i8* getelementptr inbounds ([6 x i8], [6 x i8]* @_ZN6chrome18kChromeUIFlagsHostE, i32 0, i32 0), i8* getelementptr inbounds ([14 x i8], [14 x i8]* @_ZN6chrome25kChromeUIGCMInternalsHostE, i32 0, i32 0), i8* getelementptr inbounds ([8 x i8], [8 x i8]* @_ZN6chrome20kChromeUIHistoryHostE, i32 0, i32 0), i8* getelementptr inbounds ([14 x i8], [14 x i8]* @_ZN6chrome25kChromeUIInterstitialHostE, i32 0, i32 0), i8* getelementptr inbounds ([14 x i8], [14 x i8]* @_ZN6chrome26kChromeUIInvalidationsHostE, i32 0, i32 0), i8* getelementptr inbounds ([12 x i8], [12 x i8]* @_ZN6chrome23kChromeUILocalStateHostE, i32 0, i32 0), i8* getelementptr inbounds ([11 x i8], [11 x i8]* @_ZN6chrome23kChromeUIManagementHostE, i32 0, i32 0), i8* getelementptr inbounds ([17 x i8], [17 x i8]* @_ZN6chrome28kChromeUIMediaEngagementHostE, i32 0, i32 0), i8* getelementptr inbounds ([9 x i8], [9 x i8]* @_ZN6chrome21kChromeUIMemoriesHostE, i32 0, i32 0), i8* getelementptr inbounds ([11 x i8], [11 x i8]* @_ZN6chrome22kChromeUINetExportHostE, i32 0, i32 0), i8* getelementptr inbounds ([14 x i8], [14 x i8]* @_ZN6chrome25kChromeUINetInternalsHostE, i32 0, i32 0), i8* getelementptr inbounds ([7 x i8], [7 x i8]* @_ZN6chrome19kChromeUINewTabHostE, i32 0, i32 0), i8* getelementptr inbounds ([8 x i8], [8 x i8]* @_ZN6chrome20kChromeUIOmniboxHostE, i32 0, i32 0), i8* getelementptr inbounds ([27 x i8], [27 x i8]* @_ZN6chrome37kChromeUIPasswordManagerInternalsHostE, i32 0, i32 0), i8* getelementptr inbounds ([7 x i8], [7 x i8]* @_ZN6chrome19kChromeUIPolicyHostE, i32 0, i32 0), i8* getelementptr inbounds ([11 x i8], [11 x i8]* @_ZN6chrome23kChromeUIPredictorsHostE, i32 0, i32 0), i8* getelementptr inbounds ([16 x i8], [16 x i8]* @_ZN6chrome27kChromeUIPrefsInternalsHostE, i32 0, i32 0), i8* getelementptr inbounds ([16 x i8], [16 x i8]* @_ZN6chrome27kChromeUIQuotaInternalsHostE, i32 0, i32 0), i8* getelementptr inbounds ([17 x i8], [17 x i8]* @_ZN6chrome28kChromeUISignInInternalsHostE, i32 0, i32 0), i8* getelementptr inbounds ([16 x i8], [16 x i8]* @_ZN6chrome27kChromeUISiteEngagementHostE, i32 0, i32 0), i8* getelementptr inbounds ([20 x i8], [20 x i8]* @_ZN6chrome30kChromeUINTPTilesInternalsHostE, i32 0, i32 0), i8* getelementptr inbounds ([0 x i8], [0 x i8]* @_ZN13safe_browsing25kChromeUISafeBrowsingHostE, i32 0, i32 0), i8* getelementptr inbounds ([12 x i8], [12 x i8]* @_ZN6chrome24kChromeUISuggestionsHostE, i32 0, i32 0), i8* getelementptr inbounds ([15 x i8], [15 x i8]* @_ZN6chrome26kChromeUISyncInternalsHostE, i32 0, i32 0), i8* getelementptr inbounds ([6 x i8], [6 x i8]* @_ZN6chrome18kChromeUITermsHostE, i32 0, i32 0), i8* getelementptr inbounds ([20 x i8], [20 x i8]* @_ZN6chrome31kChromeUITranslateInternalsHostE, i32 0, i32 0), i8* getelementptr inbounds ([14 x i8], [14 x i8]* @_ZN6chrome25kChromeUIUsbInternalsHostE, i32 0, i32 0), i8* getelementptr inbounds ([13 x i8], [13 x i8]* @_ZN6chrome24kChromeUIUserActionsHostE, i32 0, i32 0), i8* getelementptr inbounds ([8 x i8], [8 x i8]* @_ZN6chrome20kChromeUIVersionHostE, i32 0, i32 0), i8* getelementptr inbounds ([0 x i8], [0 x i8]* @_ZN7content30kChromeUIAppCacheInternalsHostE, i32 0, i32 0), i8* getelementptr inbounds ([0 x i8], [0 x i8]* @_ZN7content26kChromeUIBlobInternalsHostE, i32 0, i32 0), i8* getelementptr inbounds ([0 x i8], [0 x i8]* @_ZN7content32kChromeUIConversionInternalsHostE, i32 0, i32 0), i8* getelementptr inbounds ([0 x i8], [0 x i8]* @_ZN7content17kChromeUIDinoHostE, i32 0, i32 0), i8* getelementptr inbounds ([0 x i8], [0 x i8]* @_ZN7content16kChromeUIGpuHostE, i32 0, i32 0), i8* getelementptr inbounds ([0 x i8], [0 x i8]* @_ZN7content22kChromeUIHistogramHostE, i32 0, i32 0), i8* getelementptr inbounds ([0 x i8], [0 x i8]* @_ZN7content31kChromeUIIndexedDBInternalsHostE, i32 0, i32 0), i8* getelementptr inbounds ([0 x i8], [0 x i8]* @_ZN7content27kChromeUIMediaInternalsHostE, i32 0, i32 0), i8* getelementptr inbounds ([0 x i8], [0 x i8]* @_ZN7content25kChromeUINetworkErrorHostE, i32 0, i32 0), i8* getelementptr inbounds ([0 x i8], [0 x i8]* @_ZN7content33kChromeUINetworkErrorsListingHostE, i32 0, i32 0), i8* getelementptr inbounds ([0 x i8], [0 x i8]* @_ZN7content29kChromeUIProcessInternalsHostE, i32 0, i32 0), i8* getelementptr inbounds ([0 x i8], [0 x i8]* @_ZN7content35kChromeUIServiceWorkerInternalsHostE, i32 0, i32 0), i8* getelementptr inbounds ([0 x i8], [0 x i8]* @_ZN7content20kChromeUITracingHostE, i32 0, i32 0), i8* getelementptr inbounds ([0 x i8], [0 x i8]* @_ZN7content16kChromeUIUkmHostE, i32 0, i32 0), i8* getelementptr inbounds ([0 x i8], [0 x i8]* @_ZN7content28kChromeUIWebRTCInternalsHostE, i32 0, i32 0), i8* getelementptr inbounds ([5 x i8], [5 x i8]* @_ZN6chrome28kChromeUIAppLauncherPageHostE, i32 0, i32 0), i8* getelementptr inbounds ([10 x i8], [10 x i8]* @_ZN6chrome22kChromeUIBookmarksHostE, i32 0, i32 0), i8* getelementptr inbounds ([10 x i8], [10 x i8]* @_ZN6chrome22kChromeUIDownloadsHostE, i32 0, i32 0), i8* getelementptr inbounds ([5 x i8], [5 x i8]* @_ZN6chrome17kChromeUIHelpHostE, i32 0, i32 0), i8* getelementptr inbounds ([8 x i8], [8 x i8]* @_ZN6chrome20kChromeUIInspectHostE, i32 0, i32 0), i8* getelementptr inbounds ([13 x i8], [13 x i8]* @_ZN6chrome23kChromeUINewTabPageHostE, i32 0, i32 0), i8* getelementptr inbounds ([25 x i8], [25 x i8]* @_ZN6chrome33kChromeUINewTabPageThirdPartyHostE, i32 0, i32 0), i8* getelementptr inbounds ([9 x i8], [9 x i8]* @_ZN6chrome21kChromeUISettingsHostE, i32 0, i32 0), i8* getelementptr inbounds ([7 x i8], [7 x i8]* @_ZN6chrome23kChromeUISystemInfoHostE, i32 0, i32 0), i8* getelementptr inbounds ([9 x i8], [9 x i8]* @_ZN6chrome21kChromeUIDiscardsHostE, i32 0, i32 0), i8* getelementptr inbounds ([19 x i8], [19 x i8]* @_ZN6chrome29kChromeUILinuxProxyConfigHostE, i32 0, i32 0), i8* getelementptr inbounds ([8 x i8], [8 x i8]* @_ZN6chrome20kChromeUISandboxHostE, i32 0, i32 0), i8* getelementptr inbounds ([5 x i8], [5 x i8]* @_ZN6chrome17kChromeUINaClHostE, i32 0, i32 0), i8* getelementptr inbounds ([11 x i8], [11 x i8]* @_ZN6chrome23kChromeUIExtensionsHostE, i32 0, i32 0), i8* getelementptr inbounds ([6 x i8], [6 x i8]* @_ZN6chrome18kChromeUIPrintHostE, i32 0, i32 0), i8* getelementptr inbounds ([8 x i8], [8 x i8]* @_ZN6chrome20kChromeUIDevicesHostE, i32 0, i32 0), i8* getelementptr inbounds ([12 x i8], [12 x i8]* @_ZN6chrome23kChromeUIWebRtcLogsHostE, i32 0, i32 0)], align 16
@_ZN6chrome23kNumberOfChromeHostURLsE = hidden local_unnamed_addr constant i64 71, align 8
@_ZN6chrome24kChromeInternalsPathURLsE = hidden local_unnamed_addr constant [2 x i8*] [i8* getelementptr inbounds ([8 x i8], [8 x i8]* @_ZN6chrome28kChromeUIInternalsWebAppPathE, i32 0, i32 0), i8* getelementptr inbounds ([16 x i8], [16 x i8]* @_ZN6chrome36kChromeUISessionServiceInternalsPathE, i32 0, i32 0)], align 16
@_ZN6chrome32kNumberOfChromeInternalsPathURLsE = hidden local_unnamed_addr constant i64 2, align 8
@_ZN5blink24kChromeUIBadCastCrashURLE = external constant [0 x i8], align 1
@_ZN5blink24kChromeUIBrowserCrashURLE = external constant [0 x i8], align 1
@_ZN5blink17kChromeUICrashURLE = external constant [0 x i8], align 1
@_ZN5blink16kChromeUIDumpURLE = external constant [0 x i8], align 1
@_ZN5blink16kChromeUIKillURLE = external constant [0 x i8], align 1
@_ZN5blink16kChromeUIHangURLE = external constant [0 x i8], align 1
@_ZN5blink21kChromeUIShorthangURLE = external constant [0 x i8], align 1
@_ZN5blink20kChromeUIGpuCleanURLE = external constant [0 x i8], align 1
@_ZN5blink20kChromeUIGpuCrashURLE = external constant [0 x i8], align 1
@_ZN5blink19kChromeUIGpuHangURLE = external constant [0 x i8], align 1
@_ZN5blink25kChromeUIMemoryExhaustURLE = external constant [0 x i8], align 1
@_ZN5blink34kChromeUIMemoryPressureCriticalURLE = external constant [0 x i8], align 1
@_ZN5blink34kChromeUIMemoryPressureModerateURLE = external constant [0 x i8], align 1
@_ZN5blink27kChromeUIPpapiFlashCrashURLE = external constant [0 x i8], align 1
@_ZN5blink26kChromeUIPpapiFlashHangURLE = external constant [0 x i8], align 1
@_ZN6chrome16kChromeDebugURLsE = hidden local_unnamed_addr constant [18 x i8*] [i8* getelementptr inbounds ([0 x i8], [0 x i8]* @_ZN5blink24kChromeUIBadCastCrashURLE, i32 0, i32 0), i8* getelementptr inbounds ([0 x i8], [0 x i8]* @_ZN5blink24kChromeUIBrowserCrashURLE, i32 0, i32 0), i8* getelementptr inbounds ([0 x i8], [0 x i8]* @_ZN5blink17kChromeUICrashURLE, i32 0, i32 0), i8* getelementptr inbounds ([0 x i8], [0 x i8]* @_ZN5blink16kChromeUIDumpURLE, i32 0, i32 0), i8* getelementptr inbounds ([0 x i8], [0 x i8]* @_ZN5blink16kChromeUIKillURLE, i32 0, i32 0), i8* getelementptr inbounds ([0 x i8], [0 x i8]* @_ZN5blink16kChromeUIHangURLE, i32 0, i32 0), i8* getelementptr inbounds ([0 x i8], [0 x i8]* @_ZN5blink21kChromeUIShorthangURLE, i32 0, i32 0), i8* getelementptr inbounds ([0 x i8], [0 x i8]* @_ZN5blink20kChromeUIGpuCleanURLE, i32 0, i32 0), i8* getelementptr inbounds ([0 x i8], [0 x i8]* @_ZN5blink20kChromeUIGpuCrashURLE, i32 0, i32 0), i8* getelementptr inbounds ([0 x i8], [0 x i8]* @_ZN5blink19kChromeUIGpuHangURLE, i32 0, i32 0), i8* getelementptr inbounds ([0 x i8], [0 x i8]* @_ZN5blink25kChromeUIMemoryExhaustURLE, i32 0, i32 0), i8* getelementptr inbounds ([0 x i8], [0 x i8]* @_ZN5blink34kChromeUIMemoryPressureCriticalURLE, i32 0, i32 0), i8* getelementptr inbounds ([0 x i8], [0 x i8]* @_ZN5blink34kChromeUIMemoryPressureModerateURLE, i32 0, i32 0), i8* getelementptr inbounds ([0 x i8], [0 x i8]* @_ZN5blink27kChromeUIPpapiFlashCrashURLE, i32 0, i32 0), i8* getelementptr inbounds ([0 x i8], [0 x i8]* @_ZN5blink26kChromeUIPpapiFlashHangURLE, i32 0, i32 0), i8* getelementptr inbounds ([23 x i8], [23 x i8]* @_ZN6chrome24kChromeUIWebUIJsErrorURLE, i32 0, i32 0), i8* getelementptr inbounds ([15 x i8], [15 x i8]* @_ZN6chrome16kChromeUIQuitURLE, i32 0, i32 0), i8* getelementptr inbounds ([18 x i8], [18 x i8]* @_ZN6chrome19kChromeUIRestartURLE, i32 0, i32 0)], align 16
@_ZN6chrome24kNumberOfChromeDebugURLsE = hidden local_unnamed_addr constant i64 18, align 8

!llvm.module.flags = !{!0, !1}

!0 = !{i32 1, !"wchar_size", i32 4}
!1 = !{i32 7, !"PIC Level", i32 2}
