; ModuleID = '../../chrome/browser/ui/views/omnibox/webui_omnibox_popup_view.cc'
source_filename = "../../chrome/browser/ui/views/omnibox/webui_omnibox_popup_view.cc"
target datalayout = "e-m:e-i64:64-f80:128-n8:16:32:64-S128"
target triple = "x86_64-unknown-linux-gnu"

module asm ".symver exp, exp@GLIBC_2.2.5"
module asm ".symver exp2, exp2@GLIBC_2.2.5"
module asm ".symver exp2f, exp2f@GLIBC_2.2.5"
module asm ".symver expf, expf@GLIBC_2.2.5"
module asm ".symver lgamma, lgamma@GLIBC_2.2.5"
module asm ".symver lgammaf, lgammaf@GLIBC_2.2.5"
module asm ".symver lgammal, lgammal@GLIBC_2.2.5"
module asm ".symver log, log@GLIBC_2.2.5"
module asm ".symver log2, log2@GLIBC_2.2.5"
module asm ".symver log2f, log2f@GLIBC_2.2.5"
module asm ".symver logf, logf@GLIBC_2.2.5"
module asm ".symver pow, pow@GLIBC_2.2.5"
module asm ".symver powf, powf@GLIBC_2.2.5"

%"class.ui::metadata::ClassMetaData" = type <{ i32 (...)**, %"class.std::__1::basic_string", %"class.std::__1::vector.184", %"class.ui::metadata::ClassMetaData"*, %"class.std::__1::basic_string", i32, [4 x i8] }>
%"class.std::__1::vector.184" = type { %"class.std::__1::__vector_base.185" }
%"class.std::__1::__vector_base.185" = type { %"class.ui::metadata::MemberMetaDataBase"**, %"class.ui::metadata::MemberMetaDataBase"**, %"class.std::__1::__compressed_pair.186" }
%"class.ui::metadata::MemberMetaDataBase" = type { i32 (...)**, %"class.std::__1::basic_string", %"class.std::__1::basic_string" }
%"class.std::__1::__compressed_pair.186" = type { %"struct.std::__1::__compressed_pair_elem.187" }
%"struct.std::__1::__compressed_pair_elem.187" = type { %"class.ui::metadata::MemberMetaDataBase"** }
%"class.std::__1::basic_string" = type { %"class.std::__1::__compressed_pair.160" }
%"class.std::__1::__compressed_pair.160" = type { %"struct.std::__1::__compressed_pair_elem.161" }
%"struct.std::__1::__compressed_pair_elem.161" = type { %"struct.std::__1::basic_string<char, std::__1::char_traits<char>, std::__1::allocator<char> >::__rep" }
%"struct.std::__1::basic_string<char, std::__1::char_traits<char>, std::__1::allocator<char> >::__rep" = type { %union.anon.162 }
%union.anon.162 = type { %"struct.std::__1::basic_string<char, std::__1::char_traits<char>, std::__1::allocator<char> >::__long" }
%"struct.std::__1::basic_string<char, std::__1::char_traits<char>, std::__1::allocator<char> >::__long" = type { i8*, i64, i64 }
%class.WebUIOmniboxPopupView = type { %"class.views::WebView.base", [4 x i8] }
%"class.views::WebView.base" = type <{ %"class.views::View.base", [4 x i8], %"class.content::WebContentsDelegate", %"class.content::WebContentsObserver", %"class.ui::AXModeObserver", %"class.views::NativeViewHost"*, %"class.std::__1::unique_ptr.154", i8, [7 x i8], %"class.content::BrowserContext"*, i8, [7 x i8], %"class.views::View"*, i8, [3 x i8], %"class.gfx::Size", %"class.gfx::Size" }>
%"class.views::View.base" = type <{ %"class.ui::LayerDelegate", %"class.ui::LayerObserver", %"class.ui::LayerOwner", %"class.ui::AcceleratorTarget", %"class.ui::EventTarget", %"class.ui::EventHandler", %"class.ui::PropertyHandler", %"class.ui::metadata::MetaDataProvider", i8, [3 x i8], i32, i32, [4 x i8], %"class.views::View"*, %"class.std::__1::vector.35", i8, [3 x i8], %"class.absl::optional", %"class.gfx::Rect", i8, i8, i8, i8, [4 x i8], %"class.std::__1::unique_ptr.42", %class.SkPath, i8, [7 x i8], %"class.std::__1::unique_ptr.61", %"class.absl::optional.67", i8, [7 x i8], %"class.std::__1::unique_ptr.72", %"class.std::__1::unique_ptr.78", %"class.ui::PaintCache", i8, [7 x i8], %"class.ui::NativeTheme"*, i8, %"class.absl::optional.89", i8, i8, [3 x i8], %"class.std::__1::vector.94", %"class.std::__1::unique_ptr.101", %"class.views::FocusManager"*, %"class.std::__1::unique_ptr.107", i64, %"class.views::View"*, %"class.views::View"*, i32, [4 x i8], %"class.views::ContextMenuController"*, %"class.views::DragController"*, %"class.std::__1::unique_ptr.114", %"class.std::__1::unique_ptr.120", %"class.base::ObserverList.126", i32 }>
%"class.ui::LayerDelegate" = type { i32 (...)** }
%"class.ui::LayerObserver" = type { i32 (...)** }
%"class.ui::LayerOwner" = type { i32 (...)**, %"class.std::__1::unique_ptr", %"class.ui::Layer"*, %"class.base::ObserverList" }
%"class.std::__1::unique_ptr" = type { %"class.std::__1::__compressed_pair" }
%"class.std::__1::__compressed_pair" = type { %"struct.std::__1::__compressed_pair_elem" }
%"struct.std::__1::__compressed_pair_elem" = type { %"class.ui::Layer"* }
%"class.ui::Layer" = type opaque
%"class.base::ObserverList" = type <{ %"class.std::__1::vector", %"class.base::LinkedList", i64, i32, [4 x i8] }>
%"class.std::__1::vector" = type { %"class.std::__1::__vector_base" }
%"class.std::__1::__vector_base" = type { %"class.base::internal::UncheckedObserverAdapter"*, %"class.base::internal::UncheckedObserverAdapter"*, %"class.std::__1::__compressed_pair.1" }
%"class.base::internal::UncheckedObserverAdapter" = type { i8* }
%"class.std::__1::__compressed_pair.1" = type { %"struct.std::__1::__compressed_pair_elem.2" }
%"struct.std::__1::__compressed_pair_elem.2" = type { %"class.base::internal::UncheckedObserverAdapter"* }
%"class.base::LinkedList" = type { %"class.base::LinkNode" }
%"class.base::LinkNode" = type { %"class.base::internal::LinkNodeBase" }
%"class.base::internal::LinkNodeBase" = type { %"class.base::internal::LinkNodeBase"*, %"class.base::internal::LinkNodeBase"* }
%"class.ui::AcceleratorTarget" = type { i32 (...)** }
%"class.ui::EventTarget" = type { i32 (...)**, %"class.std::__1::vector.4", %"class.std::__1::vector.11", %"class.ui::EventHandler"* }
%"class.std::__1::vector.4" = type { %"class.std::__1::__vector_base.5" }
%"class.std::__1::__vector_base.5" = type { %"struct.ui::EventTarget::PrioritizedHandler"*, %"struct.ui::EventTarget::PrioritizedHandler"*, %"class.std::__1::__compressed_pair.6" }
%"struct.ui::EventTarget::PrioritizedHandler" = type <{ %"class.ui::EventHandler"*, i32, [4 x i8] }>
%"class.std::__1::__compressed_pair.6" = type { %"struct.std::__1::__compressed_pair_elem.7" }
%"struct.std::__1::__compressed_pair_elem.7" = type { %"struct.ui::EventTarget::PrioritizedHandler"* }
%"class.std::__1::vector.11" = type { %"class.std::__1::__vector_base.12" }
%"class.std::__1::__vector_base.12" = type { %"class.ui::EventHandler"**, %"class.ui::EventHandler"**, %"class.std::__1::__compressed_pair.13" }
%"class.std::__1::__compressed_pair.13" = type { %"struct.std::__1::__compressed_pair_elem.14" }
%"struct.std::__1::__compressed_pair_elem.14" = type { %"class.ui::EventHandler"** }
%"class.ui::EventHandler" = type { i32 (...)**, %"class.std::__1::stack" }
%"class.std::__1::stack" = type { %"class.base::circular_deque" }
%"class.base::circular_deque" = type { %"class.base::internal::VectorBuffer", i64, i64 }
%"class.base::internal::VectorBuffer" = type { %"class.ui::EventDispatcher"**, i64 }
%"class.ui::EventDispatcher" = type opaque
%"class.ui::PropertyHandler" = type { i32 (...)**, %"class.std::__1::map" }
%"class.std::__1::map" = type { %"class.std::__1::__tree" }
%"class.std::__1::__tree" = type { %"class.std::__1::__tree_end_node"*, %"class.std::__1::__compressed_pair.18", %"class.std::__1::__compressed_pair.23" }
%"class.std::__1::__tree_end_node" = type { %"class.std::__1::__tree_node_base"* }
%"class.std::__1::__tree_node_base" = type <{ %"class.std::__1::__tree_end_node", %"class.std::__1::__tree_node_base"*, %"class.std::__1::__tree_end_node"*, i8, [7 x i8] }>
%"class.std::__1::__compressed_pair.18" = type { %"struct.std::__1::__compressed_pair_elem.19" }
%"struct.std::__1::__compressed_pair_elem.19" = type { %"class.std::__1::__tree_end_node" }
%"class.std::__1::__compressed_pair.23" = type { %"struct.std::__1::__compressed_pair_elem.24" }
%"struct.std::__1::__compressed_pair_elem.24" = type { i64 }
%"class.ui::metadata::MetaDataProvider" = type { i32 (...)**, %"class.std::__1::map.26" }
%"class.std::__1::map.26" = type { %"class.std::__1::__tree.27" }
%"class.std::__1::__tree.27" = type { %"class.std::__1::__tree_end_node"*, %"class.std::__1::__compressed_pair.28", %"class.std::__1::__compressed_pair.32" }
%"class.std::__1::__compressed_pair.28" = type { %"struct.std::__1::__compressed_pair_elem.19" }
%"class.std::__1::__compressed_pair.32" = type { %"struct.std::__1::__compressed_pair_elem.24" }
%"class.std::__1::vector.35" = type { %"class.std::__1::__vector_base.36" }
%"class.std::__1::__vector_base.36" = type { %"class.views::View"**, %"class.views::View"**, %"class.std::__1::__compressed_pair.37" }
%"class.std::__1::__compressed_pair.37" = type { %"struct.std::__1::__compressed_pair_elem.38" }
%"struct.std::__1::__compressed_pair_elem.38" = type { %"class.views::View"** }
%"class.absl::optional" = type { %"class.absl::optional_internal::optional_data" }
%"class.absl::optional_internal::optional_data" = type { %"class.absl::optional_internal::optional_data_base" }
%"class.absl::optional_internal::optional_data_base" = type { %"class.absl::optional_internal::optional_data_dtor_base" }
%"class.absl::optional_internal::optional_data_dtor_base" = type { i8, %union.anon }
%union.anon = type { %"class.gfx::Size" }
%"class.gfx::Rect" = type { %"class.gfx::Point", %"class.gfx::Size" }
%"class.gfx::Point" = type { i32, i32 }
%"class.std::__1::unique_ptr.42" = type { %"class.std::__1::__compressed_pair.43" }
%"class.std::__1::__compressed_pair.43" = type { %"struct.std::__1::__compressed_pair_elem.44" }
%"struct.std::__1::__compressed_pair_elem.44" = type { %"class.std::__1::vector.35"* }
%class.SkPath = type <{ %class.sk_sp, i32, %"struct.std::__1::atomic.51", %"struct.std::__1::atomic.51", i8, i8 }>
%class.sk_sp = type { %class.SkPathRef* }
%class.SkPathRef = type <{ %class.SkNVRefCnt, %struct.SkRect, [4 x i8], %class.SkTDArray, %class.SkTDArray.49, %class.SkTDArray.50, i32, [4 x i8], %"class.SkIDChangeListener::List", i8, i8, i8, i8, i8, i8, i8, i8 }>
%class.SkNVRefCnt = type { %"struct.std::__1::atomic" }
%"struct.std::__1::atomic" = type { %"struct.std::__1::__atomic_base" }
%"struct.std::__1::__atomic_base" = type { %"struct.std::__1::__atomic_base.48" }
%"struct.std::__1::__atomic_base.48" = type { %"struct.std::__1::__cxx_atomic_impl" }
%"struct.std::__1::__cxx_atomic_impl" = type { %"struct.std::__1::__cxx_atomic_base_impl" }
%"struct.std::__1::__cxx_atomic_base_impl" = type { i32 }
%struct.SkRect = type { float, float, float, float }
%class.SkTDArray = type { %struct.SkPoint*, i32, i32 }
%struct.SkPoint = type { float, float }
%class.SkTDArray.49 = type { i8*, i32, i32 }
%class.SkTDArray.50 = type { float*, i32, i32 }
%"class.SkIDChangeListener::List" = type { %class.SkMutex, %class.SkTDArray.56 }
%class.SkMutex = type { %class.SkSemaphore }
%class.SkSemaphore = type { %"struct.std::__1::atomic", %class.SkOnce, %"struct.SkSemaphore::OSSemaphore"* }
%class.SkOnce = type { %"struct.std::__1::atomic.51" }
%"struct.SkSemaphore::OSSemaphore" = type opaque
%class.SkTDArray.56 = type { %class.SkIDChangeListener**, i32, i32 }
%class.SkIDChangeListener = type { %class.SkRefCnt.base, %"struct.std::__1::atomic.57", [3 x i8] }
%class.SkRefCnt.base = type { %class.SkRefCntBase.base }
%class.SkRefCntBase.base = type <{ i32 (...)**, %"struct.std::__1::atomic" }>
%"struct.std::__1::atomic.57" = type { %"struct.std::__1::__atomic_base.58" }
%"struct.std::__1::__atomic_base.58" = type { %"struct.std::__1::__cxx_atomic_impl.59" }
%"struct.std::__1::__cxx_atomic_impl.59" = type { %"struct.std::__1::__cxx_atomic_base_impl.60" }
%"struct.std::__1::__cxx_atomic_base_impl.60" = type { i8 }
%"struct.std::__1::atomic.51" = type { %"struct.std::__1::__atomic_base.52" }
%"struct.std::__1::__atomic_base.52" = type { %"struct.std::__1::__atomic_base.53" }
%"struct.std::__1::__atomic_base.53" = type { %"struct.std::__1::__cxx_atomic_impl.54" }
%"struct.std::__1::__cxx_atomic_impl.54" = type { %"struct.std::__1::__cxx_atomic_base_impl.55" }
%"struct.std::__1::__cxx_atomic_base_impl.55" = type { i8 }
%"class.std::__1::unique_ptr.61" = type { %"class.std::__1::__compressed_pair.62" }
%"class.std::__1::__compressed_pair.62" = type { %"struct.std::__1::__compressed_pair_elem.63" }
%"struct.std::__1::__compressed_pair_elem.63" = type { %"class.views::LayoutManager"* }
%"class.views::LayoutManager" = type { i32 (...)**, %"class.views::View"* }
%"class.absl::optional.67" = type { %"class.absl::optional_internal::optional_data.68" }
%"class.absl::optional_internal::optional_data.68" = type { %"class.absl::optional_internal::optional_data_base.69" }
%"class.absl::optional_internal::optional_data_base.69" = type { %"class.absl::optional_internal::optional_data_dtor_base.70" }
%"class.absl::optional_internal::optional_data_dtor_base.70" = type { i8, %union.anon.71 }
%union.anon.71 = type { %"class.views::View::DefaultFillLayout" }
%"class.views::View::DefaultFillLayout" = type { %"class.views::LayoutManager" }
%"class.std::__1::unique_ptr.72" = type { %"class.std::__1::__compressed_pair.73" }
%"class.std::__1::__compressed_pair.73" = type { %"struct.std::__1::__compressed_pair_elem.74" }
%"struct.std::__1::__compressed_pair_elem.74" = type { %"class.views::Background"* }
%"class.views::Background" = type opaque
%"class.std::__1::unique_ptr.78" = type { %"class.std::__1::__compressed_pair.79" }
%"class.std::__1::__compressed_pair.79" = type { %"struct.std::__1::__compressed_pair_elem.80" }
%"struct.std::__1::__compressed_pair_elem.80" = type { %"class.views::Border"* }
%"class.views::Border" = type opaque
%"class.ui::PaintCache" = type <{ %class.sk_sp.84, float, [4 x i8] }>
%class.sk_sp.84 = type { %"class.cc::PaintOpBuffer"* }
%"class.cc::PaintOpBuffer" = type <{ %class.SkRefCnt.base, [4 x i8], %"class.std::__1::unique_ptr.85", i64, i64, i64, i64, i64, i32, i8, [3 x i8] }>
%"class.std::__1::unique_ptr.85" = type { %"class.std::__1::__compressed_pair.86" }
%"class.std::__1::__compressed_pair.86" = type { %"struct.std::__1::__compressed_pair_elem.87" }
%"struct.std::__1::__compressed_pair_elem.87" = type { i8* }
%"class.ui::NativeTheme" = type opaque
%"class.absl::optional.89" = type { %"class.absl::optional_internal::optional_data.90" }
%"class.absl::optional_internal::optional_data.90" = type { %"class.absl::optional_internal::optional_data_base.91" }
%"class.absl::optional_internal::optional_data_base.91" = type { %"class.absl::optional_internal::optional_data_dtor_base.92" }
%"class.absl::optional_internal::optional_data_dtor_base.92" = type { i8, %union.anon.93 }
%union.anon.93 = type { i8 }
%"class.std::__1::vector.94" = type { %"class.std::__1::__vector_base.95" }
%"class.std::__1::__vector_base.95" = type { %"class.ui::Layer"**, %"class.ui::Layer"**, %"class.std::__1::__compressed_pair.96" }
%"class.std::__1::__compressed_pair.96" = type { %"struct.std::__1::__compressed_pair_elem.97" }
%"struct.std::__1::__compressed_pair_elem.97" = type { %"class.ui::Layer"** }
%"class.std::__1::unique_ptr.101" = type { %"class.std::__1::__compressed_pair.102" }
%"class.std::__1::__compressed_pair.102" = type { %"struct.std::__1::__compressed_pair_elem.103" }
%"struct.std::__1::__compressed_pair_elem.103" = type { %"class.views::ViewMaskLayer"* }
%"class.views::ViewMaskLayer" = type opaque
%"class.views::FocusManager" = type opaque
%"class.std::__1::unique_ptr.107" = type { %"class.std::__1::__compressed_pair.108" }
%"class.std::__1::__compressed_pair.108" = type { %"struct.std::__1::__compressed_pair_elem.109" }
%"struct.std::__1::__compressed_pair_elem.109" = type { %"class.std::__1::vector.110"* }
%"class.std::__1::vector.110" = type opaque
%"class.views::ContextMenuController" = type opaque
%"class.views::DragController" = type opaque
%"class.std::__1::unique_ptr.114" = type { %"class.std::__1::__compressed_pair.115" }
%"class.std::__1::__compressed_pair.115" = type { %"struct.std::__1::__compressed_pair_elem.116" }
%"struct.std::__1::__compressed_pair_elem.116" = type { %"class.views::ViewTargeter"* }
%"class.views::ViewTargeter" = type { %"class.ui::EventTargeter", %"class.views::ViewTargeterDelegate"* }
%"class.ui::EventTargeter" = type { i32 (...)** }
%"class.views::ViewTargeterDelegate" = type opaque
%"class.std::__1::unique_ptr.120" = type { %"class.std::__1::__compressed_pair.121" }
%"class.std::__1::__compressed_pair.121" = type { %"struct.std::__1::__compressed_pair_elem.122" }
%"struct.std::__1::__compressed_pair_elem.122" = type { %"class.views::ViewAccessibility"* }
%"class.views::ViewAccessibility" = type opaque
%"class.base::ObserverList.126" = type <{ %"class.std::__1::vector", %"class.base::LinkedList.127", i64, i32, [4 x i8] }>
%"class.base::LinkedList.127" = type { %"class.base::LinkNode.128" }
%"class.base::LinkNode.128" = type { %"class.base::internal::LinkNodeBase" }
%"class.content::WebContentsDelegate" = type { i32 (...)**, %"class.std::__1::set" }
%"class.std::__1::set" = type { %"class.std::__1::__tree.130" }
%"class.std::__1::__tree.130" = type { %"class.std::__1::__tree_end_node"*, %"class.std::__1::__compressed_pair.131", %"class.std::__1::__compressed_pair.135" }
%"class.std::__1::__compressed_pair.131" = type { %"struct.std::__1::__compressed_pair_elem.19" }
%"class.std::__1::__compressed_pair.135" = type { %"struct.std::__1::__compressed_pair_elem.24" }
%"class.content::WebContentsObserver" = type { %"class.IPC::Listener", %"class.content::WebContents"* }
%"class.IPC::Listener" = type { i32 (...)** }
%"class.content::WebContents" = type <{ %"class.content::PageNavigator", %"class.base::SupportsUserData.base", [7 x i8] }>
%"class.content::PageNavigator" = type { i32 (...)** }
%"class.base::SupportsUserData.base" = type <{ i32 (...)**, %"class.std::__1::map.139", %"class.base::SequenceCheckerDoNothing" }>
%"class.std::__1::map.139" = type { %"class.std::__1::__tree.140" }
%"class.std::__1::__tree.140" = type { %"class.std::__1::__tree_end_node"*, %"class.std::__1::__compressed_pair.141", %"class.std::__1::__compressed_pair.145" }
%"class.std::__1::__compressed_pair.141" = type { %"struct.std::__1::__compressed_pair_elem.19" }
%"class.std::__1::__compressed_pair.145" = type { %"struct.std::__1::__compressed_pair_elem.24" }
%"class.base::SequenceCheckerDoNothing" = type { i8 }
%"class.ui::AXModeObserver" = type { i32 (...)** }
%"class.views::NativeViewHost" = type <{ %"class.views::View.base", [4 x i8], %"class.aura::Window"*, %"class.std::__1::unique_ptr.148", %"class.gfx::Size", i8, [7 x i8] }>
%"class.aura::Window" = type opaque
%"class.std::__1::unique_ptr.148" = type { %"class.std::__1::__compressed_pair.149" }
%"class.std::__1::__compressed_pair.149" = type { %"struct.std::__1::__compressed_pair_elem.150" }
%"struct.std::__1::__compressed_pair_elem.150" = type { %"class.views::NativeViewHostWrapper"* }
%"class.views::NativeViewHostWrapper" = type opaque
%"class.std::__1::unique_ptr.154" = type { %"class.std::__1::__compressed_pair.155" }
%"class.std::__1::__compressed_pair.155" = type { %"struct.std::__1::__compressed_pair_elem.156" }
%"struct.std::__1::__compressed_pair_elem.156" = type { %"class.content::WebContents"* }
%"class.views::View" = type <{ %"class.ui::LayerDelegate", %"class.ui::LayerObserver", %"class.ui::LayerOwner", %"class.ui::AcceleratorTarget", %"class.ui::EventTarget", %"class.ui::EventHandler", %"class.ui::PropertyHandler", %"class.ui::metadata::MetaDataProvider", i8, [3 x i8], i32, i32, [4 x i8], %"class.views::View"*, %"class.std::__1::vector.35", i8, [3 x i8], %"class.absl::optional", %"class.gfx::Rect", i8, i8, i8, i8, [4 x i8], %"class.std::__1::unique_ptr.42", %class.SkPath, i8, [7 x i8], %"class.std::__1::unique_ptr.61", %"class.absl::optional.67", i8, [7 x i8], %"class.std::__1::unique_ptr.72", %"class.std::__1::unique_ptr.78", %"class.ui::PaintCache", i8, [7 x i8], %"class.ui::NativeTheme"*, i8, %"class.absl::optional.89", i8, i8, [3 x i8], %"class.std::__1::vector.94", %"class.std::__1::unique_ptr.101", %"class.views::FocusManager"*, %"class.std::__1::unique_ptr.107", i64, %"class.views::View"*, %"class.views::View"*, i32, [4 x i8], %"class.views::ContextMenuController"*, %"class.views::DragController"*, %"class.std::__1::unique_ptr.114", %"class.std::__1::unique_ptr.120", %"class.base::ObserverList.126", i32, [4 x i8] }>
%"class.gfx::Size" = type { i32, i32 }
%"class.content::BrowserContext" = type opaque
%class.GURL = type { %"class.std::__1::basic_string", i8, %"struct.url::Parsed", %"class.std::__1::unique_ptr.166" }
%"struct.url::Parsed" = type { %"struct.url::Component", %"struct.url::Component", %"struct.url::Component", %"struct.url::Component", %"struct.url::Component", %"struct.url::Component", %"struct.url::Component", %"struct.url::Component", i8, %"struct.url::Parsed"* }
%"struct.url::Component" = type { i32, i32 }
%"class.std::__1::unique_ptr.166" = type { %"class.std::__1::__compressed_pair.167" }
%"class.std::__1::__compressed_pair.167" = type { %"struct.std::__1::__compressed_pair_elem.168" }
%"struct.std::__1::__compressed_pair_elem.168" = type { %class.GURL* }
%"class.views::WebView" = type <{ %"class.views::View.base", [4 x i8], %"class.content::WebContentsDelegate", %"class.content::WebContentsObserver", %"class.ui::AXModeObserver", %"class.views::NativeViewHost"*, %"class.std::__1::unique_ptr.154", i8, [7 x i8], %"class.content::BrowserContext"*, i8, [7 x i8], %"class.views::View"*, i8, [3 x i8], %"class.gfx::Size", %"class.gfx::Size", [4 x i8] }>
%class.OmniboxPopupHandler = type opaque
%"class.content::WebUI" = type { i32 (...)** }
%"class.content::WebUIController" = type { i32 (...)**, %"class.content::WebUI"* }
%"class.WebUIOmniboxPopupView::WebUIOmniboxPopupView_MetaData" = type { %"class.ui::metadata::ClassMetaData.base", [4 x i8] }
%"class.ui::metadata::ClassMetaData.base" = type <{ i32 (...)**, %"class.std::__1::basic_string", %"class.std::__1::vector.184", %"class.ui::metadata::ClassMetaData"*, %"class.std::__1::basic_string", i32 }>
%"struct.std::__1::basic_string<char, std::__1::char_traits<char>, std::__1::allocator<char> >::__short" = type { [23 x i8], %struct.anon }
%struct.anon = type { i8 }
%"class.ui::PaintContext" = type <{ %"class.cc::DisplayItemList"*, float, %"class.gfx::Rect", %"class.gfx::Vector2d", i8, [3 x i8] }>
%"class.cc::DisplayItemList" = type opaque
%"class.gfx::Vector2d" = type { i32, i32 }
%"class.gfx::Transform" = type { %class.SkMatrix44 }
%class.SkMatrix44 = type <{ [4 x [4 x float]], i8, [3 x i8] }>
%"class.views::Widget" = type opaque
%"class.views::SizeBounds" = type { %"class.views::SizeBound", %"class.views::SizeBound" }
%"class.views::SizeBound" = type { %"class.absl::optional.191" }
%"class.absl::optional.191" = type { %"class.absl::optional_internal::optional_data.192" }
%"class.absl::optional_internal::optional_data.192" = type { %"class.absl::optional_internal::optional_data_base.193" }
%"class.absl::optional_internal::optional_data_base.193" = type { %"class.absl::optional_internal::optional_data_dtor_base.194" }
%"class.absl::optional_internal::optional_data_dtor_base.194" = type { i8, %union.anon.195 }
%union.anon.195 = type { i32 }
%"class.ui::MouseEvent" = type { %"class.ui::LocatedEvent", i32, %"class.gfx::Vector2dF", %"struct.ui::PointerDetails" }
%"class.ui::LocatedEvent" = type { %"class.ui::Event", %"class.gfx::PointF", %"class.gfx::PointF" }
%"class.ui::Event" = type { i32 (...)**, i32, %"class.base::TimeTicks", %"class.ui::LatencyInfo", i32, %"class.ui::Event"*, i8, i8, %"class.ui::EventTarget"*, i32, i32, i32, %"class.std::__1::unique_ptr.203" }
%"class.base::TimeTicks" = type { %"class.base::time_internal::TimeBase" }
%"class.base::time_internal::TimeBase" = type { i64 }
%"class.ui::LatencyInfo" = type { %"class.base::flat_map", i64, i64, i8, i8, i8, i32, float, float, i64 }
%"class.base::flat_map" = type { %"class.base::internal::flat_tree" }
%"class.base::internal::flat_tree" = type { %"class.std::__1::vector.196" }
%"class.std::__1::vector.196" = type { %"class.std::__1::__vector_base.197" }
%"class.std::__1::__vector_base.197" = type { %"struct.std::__1::pair"*, %"struct.std::__1::pair"*, %"class.std::__1::__compressed_pair.198" }
%"struct.std::__1::pair" = type opaque
%"class.std::__1::__compressed_pair.198" = type { %"struct.std::__1::__compressed_pair_elem.199" }
%"struct.std::__1::__compressed_pair_elem.199" = type { %"struct.std::__1::pair"* }
%"class.std::__1::unique_ptr.203" = type { %"class.std::__1::__compressed_pair.204" }
%"class.std::__1::__compressed_pair.204" = type { %"struct.std::__1::__compressed_pair_elem.205" }
%"struct.std::__1::__compressed_pair_elem.205" = type { %"class.base::flat_map.206"* }
%"class.base::flat_map.206" = type opaque
%"class.gfx::PointF" = type { float, float }
%"class.gfx::Vector2dF" = type { float, float }
%"struct.ui::PointerDetails" = type { i32, float, float, float, float, float, float, float, i32, %"class.gfx::Vector2d" }
%"class.ui::KeyEvent" = type <{ %"class.ui::Event", i32, i32, i32, i8, [3 x i8], %"class.ui::DomKey", [4 x i8] }>
%"class.ui::DomKey" = type { i32 }
%"class.ui::MouseWheelEvent" = type { %"class.ui::MouseEvent", %"class.gfx::Vector2d", %"class.gfx::Vector2d" }
%"class.views::WordLookupClient" = type opaque
%"class.ui::ScrollEvent" = type <{ %"class.ui::MouseEvent", float, float, float, float, i32, i32, i32, [4 x i8] }>
%"class.ui::TouchEvent" = type <{ %"class.ui::LocatedEvent", i32, i8, i8, [2 x i8], %"struct.ui::PointerDetails", [4 x i8] }>
%"class.ui::GestureEvent" = type <{ %"class.ui::LocatedEvent", %"struct.ui::GestureEventDetails", i32, [4 x i8] }>
%"struct.ui::GestureEventDetails" = type { i32, %"union.ui::GestureEventDetails::Details", i32, i8, i32, i32, %"class.gfx::RectF" }
%"union.ui::GestureEventDetails::Details" = type { %struct.anon.210 }
%struct.anon.210 = type { float, float, i8 }
%"class.gfx::RectF" = type { %"class.gfx::PointF", %"class.gfx::SizeF" }
%"class.gfx::SizeF" = type { float, float }
%"class.ui::Accelerator" = type { i32, i32, i32, %"class.base::TimeTicks", i8, i32 }
%"class.views::FocusTraversable" = type opaque
%"class.std::__1::basic_string.215" = type { %"class.std::__1::__compressed_pair.216" }
%"class.std::__1::__compressed_pair.216" = type { %"struct.std::__1::__compressed_pair_elem.217" }
%"struct.std::__1::__compressed_pair_elem.217" = type { %"struct.std::__1::basic_string<char16_t, std::__1::char_traits<char16_t>, std::__1::allocator<char16_t> >::__rep" }
%"struct.std::__1::basic_string<char16_t, std::__1::char_traits<char16_t>, std::__1::allocator<char16_t> >::__rep" = type { %union.anon.218 }
%union.anon.218 = type { %"struct.std::__1::basic_string<char16_t, std::__1::char_traits<char16_t>, std::__1::allocator<char16_t> >::__long" }
%"struct.std::__1::basic_string<char16_t, std::__1::char_traits<char16_t>, std::__1::allocator<char16_t> >::__long" = type { i16*, i64, i64 }
%"class.std::__1::set.224" = type opaque
%"class.ui::OSExchangeData" = type { %"class.std::__1::unique_ptr.225" }
%"class.std::__1::unique_ptr.225" = type { %"class.std::__1::__compressed_pair.226" }
%"class.std::__1::__compressed_pair.226" = type { %"struct.std::__1::__compressed_pair_elem.227" }
%"struct.std::__1::__compressed_pair_elem.227" = type { %"class.ui::OSExchangeDataProvider"* }
%"class.ui::OSExchangeDataProvider" = type { i32 (...)** }
%"class.ui::DropTargetEvent" = type <{ %"class.ui::LocatedEvent", %"class.ui::OSExchangeData"*, i32, [4 x i8] }>
%"struct.ui::AXNodeData" = type opaque
%"struct.ui::AXActionData" = type opaque
%struct._AtkObject = type opaque
%"struct.views::ViewHierarchyChangedDetails" = type { i8, %"class.views::View"*, %"class.views::View"*, %"class.views::View"* }
%"class.views::PaintInfo" = type <{ float, float, %"class.gfx::Rect", %"class.gfx::Vector2d", %"class.ui::PaintContext", %"class.ui::PaintContext"*, i8, [7 x i8] }>
%"class.gfx::Canvas" = type opaque
%"class.views::View::LayerOffsetData" = type { %"class.gfx::Vector2d", %"class.gfx::Vector2dF", float }
%"struct.views::View::DragInfo" = type { i8, %"class.gfx::Point" }
%"class.content::RenderFrameHost" = type { %"class.IPC::Listener", %"class.IPC::Sender" }
%"class.IPC::Sender" = type { i32 (...)** }
%"class.IPC::Message" = type { %"class.base::Pickle", i8, %class.scoped_refptr }
%"class.base::Pickle" = type { i32 (...)**, %"struct.base::Pickle::Header"*, i64, i64, i64 }
%"struct.base::Pickle::Header" = type { i32 }
%class.scoped_refptr = type { %"class.IPC::MessageAttachmentSet"* }
%"class.IPC::MessageAttachmentSet" = type opaque
%"class.content::RenderWidgetHost" = type opaque
%"class.ui::CancelModeEvent" = type { %"class.ui::Event" }
%"struct.content::OpenURLParams" = type { %class.GURL, %"struct.content::Referrer", %"class.absl::optional.231", i32, %"class.absl::optional.236", %class.scoped_refptr.246, %"class.std::__1::vector.247", %class.scoped_refptr.253, %"class.std::__1::basic_string", i32, i32, i32, i32, i32, i8, i8, i8, i32, i8, %class.scoped_refptr.276, i8, %"class.std::__1::basic_string", i32, %"class.absl::optional.278" }
%"struct.content::Referrer" = type <{ %class.GURL, i32, [4 x i8] }>
%"class.absl::optional.231" = type { %"class.absl::optional_internal::optional_data.232" }
%"class.absl::optional_internal::optional_data.232" = type { %"class.absl::optional_internal::optional_data_base.233" }
%"class.absl::optional_internal::optional_data_base.233" = type { %"class.absl::optional_internal::optional_data_dtor_base.234" }
%"class.absl::optional_internal::optional_data_dtor_base.234" = type { i8, %union.anon.235 }
%union.anon.235 = type { %"class.util::TokenType" }
%"class.util::TokenType" = type { %"class.base::StrongAlias" }
%"class.base::StrongAlias" = type { %"class.base::UnguessableToken" }
%"class.base::UnguessableToken" = type { %"class.base::Token" }
%"class.base::Token" = type { i64, i64 }
%"class.absl::optional.236" = type { %"class.absl::optional_internal::optional_data.237" }
%"class.absl::optional_internal::optional_data.237" = type { %"class.absl::optional_internal::optional_data_base.238" }
%"class.absl::optional_internal::optional_data_base.238" = type { %"class.absl::optional_internal::optional_data_dtor_base.239" }
%"class.absl::optional_internal::optional_data_dtor_base.239" = type { i8, %union.anon.240 }
%union.anon.240 = type { %"class.url::Origin" }
%"class.url::Origin" = type { %"class.url::SchemeHostPort", %"class.absl::optional.241" }
%"class.url::SchemeHostPort" = type <{ %"class.std::__1::basic_string", %"class.std::__1::basic_string", i16, [6 x i8] }>
%"class.absl::optional.241" = type { %"class.absl::optional_internal::optional_data.242" }
%"class.absl::optional_internal::optional_data.242" = type { %"class.absl::optional_internal::optional_data_base.243" }
%"class.absl::optional_internal::optional_data_base.243" = type { %"class.absl::optional_internal::optional_data_dtor_base.244" }
%"class.absl::optional_internal::optional_data_dtor_base.244" = type { i8, %union.anon.245 }
%union.anon.245 = type { %"class.url::Origin::Nonce" }
%"class.url::Origin::Nonce" = type { %"class.base::UnguessableToken" }
%class.scoped_refptr.246 = type { %"class.content::SiteInstance"* }
%"class.content::SiteInstance" = type <{ i32 (...)**, %"class.base::RefCounted", [4 x i8] }>
%"class.base::RefCounted" = type { %"class.base::subtle::RefCountedBase" }
%"class.base::subtle::RefCountedBase" = type { i32 }
%"class.std::__1::vector.247" = type { %"class.std::__1::__vector_base.248" }
%"class.std::__1::__vector_base.248" = type { %class.GURL*, %class.GURL*, %"class.std::__1::__compressed_pair.249" }
%"class.std::__1::__compressed_pair.249" = type { %"struct.std::__1::__compressed_pair_elem.168" }
%class.scoped_refptr.253 = type { %"class.network::ResourceRequestBody"* }
%"class.network::ResourceRequestBody" = type <{ %"class.base::RefCountedThreadSafe", [4 x i8], %"class.std::__1::vector.254", i64, i8, i8, [6 x i8] }>
%"class.base::RefCountedThreadSafe" = type { %"class.base::subtle::RefCountedThreadSafeBase" }
%"class.base::subtle::RefCountedThreadSafeBase" = type { %"class.base::AtomicRefCount" }
%"class.base::AtomicRefCount" = type { %"struct.std::__1::atomic" }
%"class.std::__1::vector.254" = type { %"class.std::__1::__vector_base.255" }
%"class.std::__1::__vector_base.255" = type { %"class.network::DataElement"*, %"class.network::DataElement"*, %"class.std::__1::__compressed_pair.271" }
%"class.network::DataElement" = type { %"class.absl::variant" }
%"class.absl::variant" = type { %"class.absl::variant_internal::VariantMoveAssignBaseNontrivial" }
%"class.absl::variant_internal::VariantMoveAssignBaseNontrivial" = type { %"class.absl::variant_internal::VariantMoveBaseNontrivial" }
%"class.absl::variant_internal::VariantMoveBaseNontrivial" = type { %"class.absl::variant_internal::VariantStateBaseDestructorNontrivial" }
%"class.absl::variant_internal::VariantStateBaseDestructorNontrivial" = type { %"class.absl::variant_internal::VariantStateBase" }
%"class.absl::variant_internal::VariantStateBase" = type { %"union.absl::variant_internal::DestructibleUnionImpl", i64 }
%"union.absl::variant_internal::DestructibleUnionImpl" = type { %"union.absl::variant_internal::DestructibleUnionImpl.256" }
%"union.absl::variant_internal::DestructibleUnionImpl.256" = type { %"union.absl::variant_internal::DestructibleUnionImpl.264" }
%"union.absl::variant_internal::DestructibleUnionImpl.264" = type { %"union.absl::variant_internal::DestructibleUnionImpl.265" }
%"union.absl::variant_internal::DestructibleUnionImpl.265" = type { %"union.absl::variant_internal::DestructibleUnionImpl.268" }
%"union.absl::variant_internal::DestructibleUnionImpl.268" = type { %"class.network::DataElementFile" }
%"class.network::DataElementFile" = type { %"class.base::FilePath", i64, i64, %"class.base::Time" }
%"class.base::FilePath" = type { %"class.std::__1::basic_string" }
%"class.base::Time" = type { %"class.base::time_internal::TimeBase.269" }
%"class.base::time_internal::TimeBase.269" = type { i64 }
%"class.std::__1::__compressed_pair.271" = type { %"struct.std::__1::__compressed_pair_elem.272" }
%"struct.std::__1::__compressed_pair_elem.272" = type { %"class.network::DataElement"* }
%class.scoped_refptr.276 = type { %"class.network::SharedURLLoaderFactory"* }
%"class.network::SharedURLLoaderFactory" = type <{ %"class.network::mojom::URLLoaderFactory", %"class.base::RefCounted.277", [4 x i8] }>
%"class.network::mojom::URLLoaderFactory" = type { i32 (...)** }
%"class.base::RefCounted.277" = type { %"class.base::subtle::RefCountedBase" }
%"class.absl::optional.278" = type { %"class.absl::optional_internal::optional_data.279" }
%"class.absl::optional_internal::optional_data.279" = type { %"class.absl::optional_internal::optional_data_base.280" }
%"class.absl::optional_internal::optional_data_base.280" = type { %"class.absl::optional_internal::optional_data_dtor_base.281" }
%"class.absl::optional_internal::optional_data_dtor_base.281" = type { i8, %union.anon.282 }
%union.anon.282 = type { %"struct.blink::Impression" }
%"struct.blink::Impression" = type { %"class.url::Origin", %"class.absl::optional.236", i64, %"class.absl::optional.283", i64 }
%"class.absl::optional.283" = type { %"class.absl::optional_internal::optional_data.284" }
%"class.absl::optional_internal::optional_data.284" = type { %"class.absl::optional_internal::optional_data_base.285" }
%"class.absl::optional_internal::optional_data_base.285" = type { %"class.absl::optional_internal::optional_data_dtor_base.286" }
%"class.absl::optional_internal::optional_data_dtor_base.286" = type { i8, %union.anon.287 }
%union.anon.287 = type { %"class.base::TimeDelta" }
%"class.base::TimeDelta" = type { i64 }
%"struct.content::ContextMenuParams" = type opaque
%"struct.content::NativeWebKeyboardEvent" = type opaque
%"class.blink::WebGestureEvent" = type opaque
%"struct.content::DropData" = type opaque
%"class.content::StoragePartitionId" = type { %"class.std::__1::basic_string", %"class.content::StoragePartitionConfig" }
%"class.content::StoragePartitionConfig" = type { %"class.std::__1::basic_string", %"class.std::__1::basic_string", i8, i32 }
%"class.content::SessionStorageNamespace" = type <{ i32 (...)**, %"class.base::RefCountedThreadSafe.288", [4 x i8] }>
%"class.base::RefCountedThreadSafe.288" = type { %"class.base::subtle::RefCountedThreadSafeBase" }
%"class.base::RepeatingCallback" = type { %"class.base::internal::CallbackBaseCopyable" }
%"class.base::internal::CallbackBaseCopyable" = type { %"class.base::internal::CallbackBase" }
%"class.base::internal::CallbackBase" = type { %class.scoped_refptr.289 }
%class.scoped_refptr.289 = type { %"class.base::internal::BindStateBase"* }
%"class.base::internal::BindStateBase" = type { %"class.base::RefCountedThreadSafe.290", void ()*, void (%"class.base::internal::BindStateBase"*)*, i1 (%"class.base::internal::BindStateBase"*, i32)* }
%"class.base::RefCountedThreadSafe.290" = type { %"class.base::subtle::RefCountedThreadSafeBase" }
%"class.content::JavaScriptDialogManager" = type opaque
%"class.content::ColorChooser" = type opaque
%"class.std::__1::vector.291" = type opaque
%"class.std::__1::vector.292" = type { %"class.std::__1::__vector_base.293" }
%"class.std::__1::__vector_base.293" = type { %"class.url::Origin"*, %"class.url::Origin"*, %"class.std::__1::__compressed_pair.294" }
%"class.std::__1::__compressed_pair.294" = type { %"struct.std::__1::__compressed_pair_elem.295" }
%"struct.std::__1::__compressed_pair_elem.295" = type { %"class.url::Origin"* }
%"class.base::OnceCallback" = type { %"class.base::internal::CallbackBase" }
%"class.blink::mojom::FullscreenOptions" = type opaque
%"struct.content::SecurityStyleExplanations" = type opaque
%"class.viz::SurfaceId" = type opaque
%"struct.content::MediaPlayerWatchTime" = type opaque
%"class.device::mojom::GeolocationContext" = type opaque
%"class.mojo::ScopedInterfaceEndpointHandle" = type { %class.scoped_refptr.299 }
%class.scoped_refptr.299 = type { %"class.mojo::ScopedInterfaceEndpointHandle::State"* }
%"class.mojo::ScopedInterfaceEndpointHandle::State" = type opaque
%"class.blink::mojom::CaptureHandleConfig" = type opaque
%"class.content::RenderViewHost" = type opaque
%"class.content::RenderProcessHost" = type opaque
%"class.content::NavigationHandle" = type { %"class.base::SupportsUserData.base", [7 x i8] }
%"struct.content::GlobalRequestID" = type { i32, i32 }
%"class.blink::mojom::ResourceLoadInfo" = type opaque
%"struct.content::CookieAccessDetails" = type <{ i32, [4 x i8], %class.GURL, %class.GURL, %"class.std::__1::vector.300", i8, [7 x i8] }>
%"class.std::__1::vector.300" = type { %"class.std::__1::__vector_base.301" }
%"class.std::__1::__vector_base.301" = type { %"class.net::CanonicalCookie"*, %"class.net::CanonicalCookie"*, %"class.std::__1::__compressed_pair.302" }
%"class.net::CanonicalCookie" = type { %"class.std::__1::basic_string", %"class.std::__1::basic_string", %"class.std::__1::basic_string", %"class.std::__1::basic_string", %"class.base::Time", %"class.base::Time", %"class.base::Time", i8, i8, i32, i32, i8, i32, i32 }
%"class.std::__1::__compressed_pair.302" = type { %"struct.std::__1::__compressed_pair_elem.303" }
%"struct.std::__1::__compressed_pair_elem.303" = type { %"class.net::CanonicalCookie"* }
%"struct.content::LoadCommittedDetails" = type opaque
%"struct.content::PrunedDetails" = type opaque
%"struct.content::EntryChangedDetails" = type opaque
%"class.blink::WebInputEvent" = type { i32 (...)**, float, %"class.gfx::Vector2dF", %"class.base::TimeTicks", i32, i32 }
%"class.content::NavigationEntry" = type opaque
%"struct.blink::UserAgentOverride" = type { %"class.std::__1::basic_string", %"class.absl::optional.307" }
%"class.absl::optional.307" = type { %"class.absl::optional_internal::optional_data.308" }
%"class.absl::optional_internal::optional_data.308" = type { %"class.absl::optional_internal::optional_data_base.309" }
%"class.absl::optional_internal::optional_data_base.309" = type { %"class.absl::optional_internal::optional_data_dtor_base.310" }
%"class.absl::optional_internal::optional_data_dtor_base.310" = type { i8, [7 x i8], %union.anon.311 }
%union.anon.311 = type { %"struct.blink::UserAgentMetadata" }
%"struct.blink::UserAgentMetadata" = type <{ %"class.std::__1::vector.312", %"class.std::__1::basic_string", %"class.std::__1::basic_string", %"class.std::__1::basic_string", %"class.std::__1::basic_string", %"class.std::__1::basic_string", i8, [7 x i8] }>
%"class.std::__1::vector.312" = type { %"class.std::__1::__vector_base.313" }
%"class.std::__1::__vector_base.313" = type { %"struct.blink::UserAgentBrandVersion"*, %"struct.blink::UserAgentBrandVersion"*, %"class.std::__1::__compressed_pair.314" }
%"struct.blink::UserAgentBrandVersion" = type { %"class.std::__1::basic_string", %"class.std::__1::basic_string" }
%"class.std::__1::__compressed_pair.314" = type { %"struct.std::__1::__compressed_pair_elem.315" }
%"struct.std::__1::__compressed_pair_elem.315" = type { %"struct.blink::UserAgentBrandVersion"* }
%"class.std::__1::vector.319" = type opaque
%"struct.content::AXEventNotificationDetails" = type opaque
%"class.std::__1::vector.320" = type opaque
%"class.absl::optional.321" = type opaque
%"struct.content::WebContentsObserver::MediaPlayerInfo" = type { i8, i8 }
%"struct.content::MediaPlayerId" = type opaque
%"struct.content::FocusedNodeDetails" = type opaque
%"class.absl::optional.322" = type { %"class.absl::optional_internal::optional_data.323" }
%"class.absl::optional_internal::optional_data.323" = type { %"class.absl::optional_internal::optional_data_base.324" }
%"class.absl::optional_internal::optional_data_base.324" = type { %"class.absl::optional_internal::optional_data_dtor_base.325" }
%"class.absl::optional_internal::optional_data_dtor_base.325" = type { i8, %union.anon.326 }
%union.anon.326 = type { %class.GURL }
%"class.mojo::ScopedHandleBase" = type { %"class.mojo::MessagePipeHandle" }
%"class.mojo::MessagePipeHandle" = type { %"class.mojo::Handle" }
%"class.mojo::Handle" = type { i32 }
%"struct.std::__1::pair.327" = type opaque

$_ZN21WebUIOmniboxPopupView30WebUIOmniboxPopupView_MetaDataD0Ev = comdat any

$_ZN21WebUIOmniboxPopupViewD0Ev = comdat any

$_ZN5views4View25ChildPreferredSizeChangedEPS0_ = comdat any

$_ZN5views4View22ChildVisibilityChangedEPS0_ = comdat any

$_ZN5views7WebView21OnWebContentsAttachedEv = comdat any

$_ZN5views7WebView21OnLetterboxingChangedEv = comdat any

$_ZN5views7WebView18OnChannelConnectedEi = comdat any

$_ZN5views7WebView14OnChannelErrorEv = comdat any

$_ZN5views7WebView20OnBadMessageReceivedERKN3IPC7MessageE = comdat any

$_ZThn8_N21WebUIOmniboxPopupViewD1Ev = comdat any

$_ZThn8_N21WebUIOmniboxPopupViewD0Ev = comdat any

$_ZThn16_N21WebUIOmniboxPopupViewD1Ev = comdat any

$_ZThn16_N21WebUIOmniboxPopupViewD0Ev = comdat any

$_ZThn96_N21WebUIOmniboxPopupViewD1Ev = comdat any

$_ZThn96_N21WebUIOmniboxPopupViewD0Ev = comdat any

$_ZThn104_N21WebUIOmniboxPopupViewD1Ev = comdat any

$_ZThn104_N21WebUIOmniboxPopupViewD0Ev = comdat any

$_ZThn168_N21WebUIOmniboxPopupViewD1Ev = comdat any

$_ZThn168_N21WebUIOmniboxPopupViewD0Ev = comdat any

$_ZThn208_N21WebUIOmniboxPopupViewD1Ev = comdat any

$_ZThn208_N21WebUIOmniboxPopupViewD0Ev = comdat any

$_ZThn240_N21WebUIOmniboxPopupViewD1Ev = comdat any

$_ZThn240_N21WebUIOmniboxPopupViewD0Ev = comdat any

$_ZN7content19WebContentsDelegate22NavigationStateChangedEPNS_11WebContentsENS_15InvalidateTypesE = comdat any

$_ZN7content19WebContentsDelegate27VisibleSecurityStateChangedEPNS_11WebContentsE = comdat any

$_ZN7content19WebContentsDelegate14AddNewContentsEPNS_11WebContentsENSt3__110unique_ptrIS1_NS3_14default_deleteIS1_EEEERK4GURL21WindowOpenDispositionRKN3gfx4RectEbPb = comdat any

$_ZN7content19WebContentsDelegate16ActivateContentsEPNS_11WebContentsE = comdat any

$_ZN7content19WebContentsDelegate19LoadingStateChangedEPNS_11WebContentsEb = comdat any

$_ZN7content19WebContentsDelegate13CloseContentsEPNS_11WebContentsE = comdat any

$_ZN7content19WebContentsDelegate17SetContentsBoundsEPNS_11WebContentsERKN3gfx4RectE = comdat any

$_ZN7content19WebContentsDelegate15UpdateTargetURLEPNS_11WebContentsERK4GURL = comdat any

$_ZN7content19WebContentsDelegate18ContentsMouseEventEPNS_11WebContentsEbb = comdat any

$_ZN7content19WebContentsDelegate18ContentsZoomChangeEb = comdat any

$_ZN7content19WebContentsDelegate26WillRunBeforeUnloadConfirmEv = comdat any

$_ZN7content19WebContentsDelegate21SetFocusToLocationBarEv = comdat any

$_ZN7content19WebContentsDelegate11LostCaptureEv = comdat any

$_ZN7content19WebContentsDelegate27ShowRepostFormWarningDialogEPNS_11WebContentsE = comdat any

$_ZN7content19WebContentsDelegate18WebContentsCreatedEPNS_11WebContentsEiiRKNSt3__112basic_stringIcNS3_11char_traitsIcEENS3_9allocatorIcEEEERK4GURLS2_ = comdat any

$_ZN7content19WebContentsDelegate24PortalWebContentsCreatedEPNS_11WebContentsE = comdat any

$_ZN7content19WebContentsDelegate23WebContentsBecamePortalEPNS_11WebContentsE = comdat any

$_ZN7content19WebContentsDelegate20RendererUnresponsiveEPNS_11WebContentsEPNS_16RenderWidgetHostEN4base17RepeatingCallbackIFvvEEE = comdat any

$_ZN7content19WebContentsDelegate18RendererResponsiveEPNS_11WebContentsEPNS_16RenderWidgetHostE = comdat any

$_ZN7content19WebContentsDelegate30DidNavigateMainFramePostCommitEPNS_11WebContentsE = comdat any

$_ZN7content19WebContentsDelegate25EnterFullscreenModeForTabEPNS_15RenderFrameHostERKN5blink5mojom17FullscreenOptionsE = comdat any

$_ZN7content19WebContentsDelegate28FullscreenStateChangedForTabEPNS_15RenderFrameHostERKN5blink5mojom17FullscreenOptionsE = comdat any

$_ZN7content19WebContentsDelegate24ExitFullscreenModeForTabEPNS_11WebContentsE = comdat any

$_ZN7content19WebContentsDelegate23RegisterProtocolHandlerEPNS_15RenderFrameHostERKNSt3__112basic_stringIcNS3_11char_traitsIcEENS3_9allocatorIcEEEERK4GURLb = comdat any

$_ZN7content19WebContentsDelegate25UnregisterProtocolHandlerEPNS_15RenderFrameHostERKNSt3__112basic_stringIcNS3_11char_traitsIcEENS3_9allocatorIcEEEERK4GURLb = comdat any

$_ZN7content19WebContentsDelegate9FindReplyEPNS_11WebContentsEiiRKN3gfx4RectEib = comdat any

$_ZN7content19WebContentsDelegate19UpdatePreferredSizeEPNS_11WebContentsERKN3gfx4SizeE = comdat any

$_ZN7content19WebContentsDelegate13LostMouseLockEv = comdat any

$_ZN7content19WebContentsDelegate25CancelKeyboardLockRequestEPNS_11WebContentsE = comdat any

$_ZN7content19WebContentsDelegate20OnDidBlockNavigationEPNS_11WebContentsERK4GURLS5_N5blink5mojom23NavigationBlockedReasonE = comdat any

$_ZN7content19WebContentsDelegate27PassiveInsecureContentFoundERK4GURL = comdat any

$_ZN7content19WebContentsDelegate24SetTopControlsShownRatioEPNS_11WebContentsEf = comdat any

$_ZN7content19WebContentsDelegate37SetTopControlsGestureScrollInProgressEb = comdat any

$_ZN7content19WebContentsDelegate32AdjustPreviewsStateForNavigationEPNS_11WebContentsEPi = comdat any

$_ZNK7content19WebContentsDelegate25PrintCrossProcessSubframeEPNS_11WebContentsERKN3gfx4RectEiPNS_15RenderFrameHostE = comdat any

$_ZN7content19WebContentsDelegate29CapturePaintPreviewOfSubframeEPNS_11WebContentsERKN3gfx4RectERKN4base16UnguessableTokenEPNS_15RenderFrameHostE = comdat any

$_ZN7content19WebContentsDelegate20ExitPictureInPictureEv = comdat any

$_ZN7content19WebContentsDelegate21MediaWatchTimeChangedERKNS_20MediaPlayerWatchTimeE = comdat any

$_ZThn664_N21WebUIOmniboxPopupViewD1Ev = comdat any

$_ZThn664_N21WebUIOmniboxPopupViewD0Ev = comdat any

$_ZThn696_N5views7WebView18OnChannelConnectedEi = comdat any

$_ZThn696_N5views7WebView14OnChannelErrorEv = comdat any

$_ZThn696_N5views7WebView20OnBadMessageReceivedERKN3IPC7MessageE = comdat any

$_ZN3IPC8Listener28OnAssociatedInterfaceRequestERKNSt3__112basic_stringIcNS1_11char_traitsIcEENS1_9allocatorIcEEEEN4mojo29ScopedInterfaceEndpointHandleE = comdat any

$_ZN3IPC8Listener15OnChannelDeniedEv = comdat any

$_ZN3IPC8Listener20OnChannelListenErrorEv = comdat any

$_ZThn696_N21WebUIOmniboxPopupViewD1Ev = comdat any

$_ZThn696_N21WebUIOmniboxPopupViewD0Ev = comdat any

$_ZN7content19WebContentsObserver12FrameDeletedEi = comdat any

$_ZN7content19WebContentsObserver27RenderFrameHostStateChangedEPNS_15RenderFrameHostENS1_14LifecycleStateES3_ = comdat any

$_ZN7content19WebContentsObserver20CaptureTargetChangedEv = comdat any

$_ZN7content19WebContentsObserver27OnCaptureHandleConfigUpdateERKN5blink5mojom19CaptureHandleConfigE = comdat any

$_ZN7content19WebContentsObserver15RenderViewReadyEv = comdat any

$_ZN7content19WebContentsObserver17RenderViewDeletedEPNS_14RenderViewHostE = comdat any

$_ZN7content19WebContentsObserver17RenderProcessGoneEN4base17TerminationStatusE = comdat any

$_ZN7content19WebContentsObserver21RenderViewHostChangedEPNS_14RenderViewHostES2_ = comdat any

$_ZN7content19WebContentsObserver22OnRendererUnresponsiveEPNS_17RenderProcessHostE = comdat any

$_ZN7content19WebContentsObserver20OnRendererResponsiveEPNS_17RenderProcessHostE = comdat any

$_ZN7content19WebContentsObserver18DidStartNavigationEPNS_16NavigationHandleE = comdat any

$_ZN7content19WebContentsObserver21DidRedirectNavigationEPNS_16NavigationHandleE = comdat any

$_ZN7content19WebContentsObserver23ReadyToCommitNavigationEPNS_16NavigationHandleE = comdat any

$_ZN7content19WebContentsObserver19DidFinishNavigationEPNS_16NavigationHandleE = comdat any

$_ZN7content19WebContentsObserver17DidActivatePortalEPNS_11WebContentsEN4base9TimeTicksE = comdat any

$_ZN7content19WebContentsObserver15DidStartLoadingEv = comdat any

$_ZN7content19WebContentsObserver18DidReceiveResponseEv = comdat any

$_ZN7content19WebContentsObserver14DidStopLoadingEv = comdat any

$_ZN7content19WebContentsObserver19LoadProgressChangedEd = comdat any

$_ZN7content19WebContentsObserver28DocumentAvailableInMainFrameEPNS_15RenderFrameHostE = comdat any

$_ZN7content19WebContentsObserver34DocumentOnLoadCompletedInMainFrameEPNS_15RenderFrameHostE = comdat any

$_ZN7content19WebContentsObserver16DOMContentLoadedEPNS_15RenderFrameHostE = comdat any

$_ZN7content19WebContentsObserver13DidFinishLoadEPNS_15RenderFrameHostERK4GURL = comdat any

$_ZN7content19WebContentsObserver11DidFailLoadEPNS_15RenderFrameHostERK4GURLi = comdat any

$_ZN7content19WebContentsObserver29DidChangeVisibleSecurityStateEv = comdat any

$_ZN7content19WebContentsObserver30DidLoadResourceFromMemoryCacheEPNS_15RenderFrameHostERK4GURLRKNSt3__112basic_stringIcNS6_11char_traitsIcEENS6_9allocatorIcEEEEN7network5mojom18RequestDestinationE = comdat any

$_ZN7content19WebContentsObserver20ResourceLoadCompleteEPNS_15RenderFrameHostERKNS_15GlobalRequestIDERKN5blink5mojom16ResourceLoadInfoE = comdat any

$_ZN7content19WebContentsObserver17OnCookiesAccessedEPNS_15RenderFrameHostERKNS_19CookieAccessDetailsE = comdat any

$_ZN7content19WebContentsObserver17OnCookiesAccessedEPNS_16NavigationHandleERKNS_19CookieAccessDetailsE = comdat any

$_ZN7content19WebContentsObserver24NavigationEntryCommittedERKNS_20LoadCommittedDetailsE = comdat any

$_ZN7content19WebContentsObserver20NavigationListPrunedERKNS_13PrunedDetailsE = comdat any

$_ZN7content19WebContentsObserver24NavigationEntriesDeletedEv = comdat any

$_ZN7content19WebContentsObserver22NavigationEntryChangedERKNS_19EntryChangedDetailsE = comdat any

$_ZN7content19WebContentsObserver19DidOpenRequestedURLEPNS_11WebContentsEPNS_15RenderFrameHostERK4GURLRKNS_8ReferrerE21WindowOpenDispositionN2ui14PageTransitionEbb = comdat any

$_ZN7content19WebContentsObserver29DidFirstVisuallyNonEmptyPaintEv = comdat any

$_ZN7content19WebContentsObserver17NavigationStoppedEv = comdat any

$_ZN7content19WebContentsObserver21DidGetUserInteractionERKN5blink13WebInputEventE = comdat any

$_ZN7content19WebContentsObserver20DidGetIgnoredUIEventEv = comdat any

$_ZN7content19WebContentsObserver19OnVisibilityChangedENS_10VisibilityE = comdat any

$_ZN7content19WebContentsObserver19MainFrameWasResizedEb = comdat any

$_ZN7content19WebContentsObserver16FrameNameChangedEPNS_15RenderFrameHostERKNSt3__112basic_stringIcNS3_11char_traitsIcEENS3_9allocatorIcEEEE = comdat any

$_ZN7content19WebContentsObserver27FrameReceivedUserActivationEPNS_15RenderFrameHostE = comdat any

$_ZN7content19WebContentsObserver24FrameDisplayStateChangedEPNS_15RenderFrameHostEb = comdat any

$_ZN7content19WebContentsObserver16FrameSizeChangedEPNS_15RenderFrameHostERKN3gfx4SizeE = comdat any

$_ZN7content19WebContentsObserver11TitleWasSetEPNS_15NavigationEntryE = comdat any

$_ZN7content19WebContentsObserver16AppCacheAccessedERK4GURLb = comdat any

$_ZN7content19WebContentsObserver21PepperInstanceCreatedEv = comdat any

$_ZN7content19WebContentsObserver21PepperInstanceDeletedEv = comdat any

$_ZN7content19WebContentsObserver18ViewportFitChangedEN5blink5mojom11ViewportFitE = comdat any

$_ZN7content19WebContentsObserver13PluginCrashedERKN4base8FilePathEi = comdat any

$_ZN7content19WebContentsObserver23PluginHungStatusChangedEiRKN4base8FilePathEb = comdat any

$_ZN7content19WebContentsObserver23InnerWebContentsCreatedEPNS_11WebContentsE = comdat any

$_ZN7content19WebContentsObserver24InnerWebContentsAttachedEPNS_11WebContentsEPNS_15RenderFrameHostEb = comdat any

$_ZN7content19WebContentsObserver24InnerWebContentsDetachedEPNS_11WebContentsE = comdat any

$_ZN7content19WebContentsObserver24DidCloneToNewWebContentsEPNS_11WebContentsES2_ = comdat any

$_ZN7content19WebContentsObserver20WebContentsDestroyedEv = comdat any

$_ZN7content19WebContentsObserver20UserAgentOverrideSetERKN5blink17UserAgentOverrideE = comdat any

$_ZN7content19WebContentsObserver19DidUpdateFaviconURLEPNS_15RenderFrameHostERKNSt3__16vectorIN4mojo9StructPtrIN5blink5mojom10FaviconURLEEENS3_9allocatorISA_EEEE = comdat any

$_ZN7content19WebContentsObserver19OnAudioStateChangedEb = comdat any

$_ZN7content19WebContentsObserver24OnFrameAudioStateChangedEPNS_15RenderFrameHostEb = comdat any

$_ZN7content19WebContentsObserver37OnIsConnectedToBluetoothDeviceChangedEb = comdat any

$_ZN7content19WebContentsObserver25DidUpdateAudioMutingStateEb = comdat any

$_ZN7content19WebContentsObserver20DidAcquireFullscreenEPNS_15RenderFrameHostE = comdat any

$_ZN7content19WebContentsObserver32DidChangeVerticalScrollDirectionEN3viz23VerticalScrollDirectionE = comdat any

$_ZN7content19WebContentsObserver27BeforeFormRepostWarningShowEv = comdat any

$_ZN7content19WebContentsObserver17BeforeUnloadFiredEbRKN4base9TimeTicksE = comdat any

$_ZN7content19WebContentsObserver27BeforeUnloadDialogCancelledEv = comdat any

$_ZN7content19WebContentsObserver26AccessibilityEventReceivedERKNS_26AXEventNotificationDetailsE = comdat any

$_ZN7content19WebContentsObserver36AccessibilityLocationChangesReceivedERKNSt3__16vectorINS_35AXLocationChangeNotificationDetailsENS1_9allocatorIS3_EEEE = comdat any

$_ZN7content19WebContentsObserver19DidChangeThemeColorEv = comdat any

$_ZN7content19WebContentsObserver24OnBackgroundColorChangedEv = comdat any

$_ZN7content19WebContentsObserver24OnDidAddMessageToConsoleEPNS_15RenderFrameHostEN5blink5mojom19ConsoleMessageLevelERKNSt3__112basic_stringIDsNS6_11char_traitsIDsEENS6_9allocatorIDsEEEEiSE_RKN4absl8optionalISC_EE = comdat any

$_ZN7content19WebContentsObserver19MediaStartedPlayingERKNS0_15MediaPlayerInfoERKNS_13MediaPlayerIdE = comdat any

$_ZN7content19WebContentsObserver19MediaStoppedPlayingERKNS0_15MediaPlayerInfoERKNS_13MediaPlayerIdENS0_18MediaStoppedReasonE = comdat any

$_ZN7content19WebContentsObserver12MediaResizedERKN3gfx4SizeERKNS_13MediaPlayerIdE = comdat any

$_ZN7content19WebContentsObserver33MediaEffectivelyFullscreenChangedEb = comdat any

$_ZN7content19WebContentsObserver28MediaPictureInPictureChangedEb = comdat any

$_ZN7content19WebContentsObserver23MediaMutedStatusChangedERKNS_13MediaPlayerIdEb = comdat any

$_ZN7content19WebContentsObserver20MediaBufferUnderflowERKNS_13MediaPlayerIdE = comdat any

$_ZN7content19WebContentsObserver15MediaPlayerSeekERKNS_13MediaPlayerIdE = comdat any

$_ZN7content19WebContentsObserver14MediaDestroyedERKNS_13MediaPlayerIdE = comdat any

$_ZN7content19WebContentsObserver24OnPageScaleFactorChangedEf = comdat any

$_ZN7content19WebContentsObserver7OnPasteEv = comdat any

$_ZN7content19WebContentsObserver22OnWebContentsLostFocusEPNS_16RenderWidgetHostE = comdat any

$_ZN7content19WebContentsObserver20OnFocusChangedInPageEPNS_18FocusedNodeDetailsE = comdat any

$_ZN7content19WebContentsObserver23DidUpdateWebManifestURLEPNS_15RenderFrameHostERKN4absl8optionalI4GURLEE = comdat any

$_ZN7content19WebContentsObserver27OnInterfaceRequestFromFrameEPNS_15RenderFrameHostERKNSt3__112basic_stringIcNS3_11char_traitsIcEENS3_9allocatorIcEEEEPN4mojo16ScopedHandleBaseINSC_17MessagePipeHandleEEE = comdat any

$_ZN7content19WebContentsObserver27AudioContextPlaybackStartedERKNSt3__14pairIPNS_15RenderFrameHostEiEE = comdat any

$_ZN7content19WebContentsObserver27AudioContextPlaybackStoppedERKNSt3__14pairIPNS_15RenderFrameHostEiEE = comdat any

$_ZN7content19WebContentsObserver23OnServiceWorkerAccessedEPNS_15RenderFrameHostERK4GURLNS_24AllowServiceWorkerResultE = comdat any

$_ZN7content19WebContentsObserver23OnServiceWorkerAccessedEPNS_16NavigationHandleERK4GURLNS_24AllowServiceWorkerResultE = comdat any

$_ZThn712_N21WebUIOmniboxPopupViewD1Ev = comdat any

$_ZThn712_N21WebUIOmniboxPopupViewD0Ev = comdat any

$_ZN21WebUIOmniboxPopupView30WebUIOmniboxPopupView_MetaDataC2Ev = comdat any

@_ZTV21WebUIOmniboxPopupView = hidden unnamed_addr constant { [130 x i8*], [5 x i8*], [7 x i8*], [6 x i8*], [10 x i8*], [12 x i8*], [5 x i8*], [5 x i8*], [99 x i8*], [109 x i8*], [5 x i8*] } { [130 x i8*] [i8* null, i8* null, i8* bitcast (void (%"class.views::View"*, %"class.ui::PaintContext"*)* @_ZN5views4View12OnPaintLayerERKN2ui12PaintContextE to i8*), i8* bitcast (void (%"class.views::View"*, float, float)* @_ZN5views4View26OnDeviceScaleFactorChangedEff to i8*), i8* bitcast (void (%"class.ui::LayerDelegate"*, %"class.gfx::Rect"*, i32)* @_ZN2ui13LayerDelegate20OnLayerBoundsChangedERKN3gfx4RectENS_20PropertyChangeReasonE to i8*), i8* bitcast (void (%"class.views::View"*, %"class.gfx::Transform"*, i32)* @_ZN5views4View18OnLayerTransformedERKN3gfx9TransformEN2ui20PropertyChangeReasonE to i8*), i8* bitcast (void (%"class.ui::LayerDelegate"*, i32)* @_ZN2ui13LayerDelegate21OnLayerOpacityChangedENS_20PropertyChangeReasonE to i8*), i8* bitcast (void (%"class.ui::LayerDelegate"*)* @_ZN2ui13LayerDelegate24OnLayerAlphaShapeChangedEv to i8*), i8* bitcast (void (%"class.ui::LayerDelegate"*, i32)* @_ZN2ui13LayerDelegate33OnLayerFillsBoundsOpaquelyChangedENS_20PropertyChangeReasonE to i8*), i8* bitcast (void (%"class.ui::LayerDelegate"*)* @_ZN2ui13LayerDelegate17UpdateVisualStateEv to i8*), i8* bitcast (void (%"class.views::WebView"*)* @_ZN5views7WebViewD2Ev to i8*), i8* bitcast (void (%class.WebUIOmniboxPopupView*)* @_ZN21WebUIOmniboxPopupViewD0Ev to i8*), i8* bitcast (i8* (%class.WebUIOmniboxPopupView*)* @_ZNK21WebUIOmniboxPopupView12GetClassNameEv to i8*), i8* bitcast (%"class.ui::metadata::ClassMetaData"* (%class.WebUIOmniboxPopupView*)* @_ZN21WebUIOmniboxPopupView16GetClassMetaDataEv to i8*), i8* bitcast (%"class.views::Widget"* (%"class.views::View"*)* @_ZNK5views4View9GetWidgetEv to i8*), i8* bitcast (%"class.views::Widget"* (%"class.views::View"*)* @_ZN5views4View9GetWidgetEv to i8*), i8* bitcast ({ i64, i64 } (%"class.views::View"*)* @_ZNK5views4View9GetInsetsEv to i8*), i8* bitcast ({ i64, i64 } (%"class.views::View"*)* @_ZNK5views4View23GetAnchorBoundsInScreenEv to i8*), i8* bitcast (i32 (%"class.views::View"*)* @_ZNK5views4View11GetBaselineEv to i8*), i8* bitcast (i64 (%"class.views::View"*)* @_ZNK5views4View14GetMinimumSizeEv to i8*), i8* bitcast (i64 (%"class.views::View"*)* @_ZNK5views4View14GetMaximumSizeEv to i8*), i8* bitcast (i32 (%"class.views::View"*, i32)* @_ZNK5views4View17GetHeightForWidthEi to i8*), i8* bitcast (void (%"class.views::SizeBounds"*, %"class.views::View"*, %"class.views::View"*)* @_ZNK5views4View16GetAvailableSizeEPKS0_ to i8*), i8* bitcast (void (%"class.views::View"*, i1)* @_ZN5views4View10SetVisibleEb to i8*), i8* bitcast (i1 (%"class.views::View"*)* @_ZNK5views4View7IsDrawnEv to i8*), i8* bitcast (void (%"class.std::__1::vector.35"*, %"class.views::View"*)* @_ZN5views4View19GetChildrenInZOrderEv to i8*), i8* bitcast (void (%"class.views::View"*, %"class.ui::Layer"*)* @_ZN5views4View19AddLayerBeneathViewEPN2ui5LayerE to i8*), i8* bitcast (void (%"class.views::View"*, %"class.ui::Layer"*)* @_ZN5views4View22RemoveLayerBeneathViewEPN2ui5LayerE to i8*), i8* bitcast (void (%"class.views::View"*, %"class.ui::Layer"*)* @_ZN5views4View14LayerDestroyedEPN2ui5LayerE to i8*), i8* bitcast (%"class.ui::Layer"* (%"class.views::View"*)* @_ZN5views4View13RecreateLayerEv to i8*), i8* bitcast (void (%"class.views::View"*)* @_ZN5views4View6LayoutEv to i8*), i8* bitcast (i1 (%"class.views::View"*)* @_ZNK5views4View23IsGroupFocusTraversableEv to i8*), i8* bitcast (%"class.views::View"* (%"class.views::View"*, i32)* @_ZN5views4View23GetSelectedViewForGroupEi to i8*), i8* bitcast (void (%"class.views::View"*, %"class.views::Border"*)* @_ZN5views4View9SetBorderENSt3__110unique_ptrINS_6BorderENS1_14default_deleteIS3_EEEE to i8*), i8* bitcast (%"class.views::View"* (%"class.views::View"*, %"class.gfx::Point"*)* @_ZN5views4View25GetTooltipHandlerForPointERKN3gfx5PointE to i8*), i8* bitcast (void ()* @_ZN5views4View9GetCursorERKN2ui10MouseEventE to i8*), i8* bitcast (i1 (%"class.views::View"*)* @_ZNK5views4View32GetCanProcessEventsWithinSubtreeEv to i8*), i8* bitcast (i1 (%"class.views::WebView"*, %"class.ui::MouseEvent"*)* @_ZN5views7WebView14OnMousePressedERKN2ui10MouseEventE to i8*), i8* bitcast (i1 (%"class.views::View"*, %"class.ui::MouseEvent"*)* @_ZN5views4View14OnMouseDraggedERKN2ui10MouseEventE to i8*), i8* bitcast (void (%"class.views::View"*, %"class.ui::MouseEvent"*)* @_ZN5views4View15OnMouseReleasedERKN2ui10MouseEventE to i8*), i8* bitcast (void (%"class.views::View"*)* @_ZN5views4View18OnMouseCaptureLostEv to i8*), i8* bitcast (void (%"class.views::View"*, %"class.ui::MouseEvent"*)* @_ZN5views4View12OnMouseMovedERKN2ui10MouseEventE to i8*), i8* bitcast (void (%"class.views::View"*, %"class.ui::MouseEvent"*)* @_ZN5views4View14OnMouseEnteredERKN2ui10MouseEventE to i8*), i8* bitcast (void (%"class.views::View"*, %"class.ui::MouseEvent"*)* @_ZN5views4View13OnMouseExitedERKN2ui10MouseEventE to i8*), i8* bitcast (void (%"class.views::View"*, %"class.views::View"*)* @_ZN5views4View25SetMouseAndGestureHandlerEPS0_ to i8*), i8* bitcast (void (%"class.views::View"*, %"class.views::View"*)* @_ZN5views4View15SetMouseHandlerEPS0_ to i8*), i8* bitcast (i1 (%"class.views::View"*, %"class.ui::KeyEvent"*)* @_ZN5views4View12OnKeyPressedERKN2ui8KeyEventE to i8*), i8* bitcast (i1 (%"class.views::View"*, %"class.ui::KeyEvent"*)* @_ZN5views4View13OnKeyReleasedERKN2ui8KeyEventE to i8*), i8* bitcast (i1 (%"class.views::View"*, %"class.ui::MouseWheelEvent"*)* @_ZN5views4View12OnMouseWheelERKN2ui15MouseWheelEventE to i8*), i8* bitcast (%"class.views::WordLookupClient"* (%"class.views::View"*)* @_ZN5views4View19GetWordLookupClientEv to i8*), i8* bitcast (i1 (%"class.views::View"*, %"class.ui::Event"*)* @_ZN5views4View14CanAcceptEventERKN2ui5EventE to i8*), i8* bitcast (%"class.ui::EventTarget"* (%"class.views::View"*)* @_ZN5views4View15GetParentTargetEv to i8*), i8* bitcast (void ()* @_ZNK5views4View16GetChildIteratorEv to i8*), i8* bitcast (%"class.ui::EventTargeter"* (%"class.views::View"*)* @_ZN5views4View16GetEventTargeterEv to i8*), i8* bitcast (void (%"class.views::View"*, %"class.ui::EventTarget"*, %"class.ui::LocatedEvent"*)* @_ZNK5views4View20ConvertEventToTargetEPKN2ui11EventTargetEPNS1_12LocatedEventE to i8*), i8* bitcast (<2 x float> (%"class.views::View"*, %"class.ui::LocatedEvent"*)* @_ZNK5views4View18GetScreenLocationFERKN2ui12LocatedEventE to i8*), i8* bitcast (void (%"class.views::View"*, %"class.ui::KeyEvent"*)* @_ZN5views4View10OnKeyEventEPN2ui8KeyEventE to i8*), i8* bitcast (void (%"class.views::View"*, %"class.ui::MouseEvent"*)* @_ZN5views4View12OnMouseEventEPN2ui10MouseEventE to i8*), i8* bitcast (void (%"class.views::View"*, %"class.ui::ScrollEvent"*)* @_ZN5views4View13OnScrollEventEPN2ui11ScrollEventE to i8*), i8* bitcast (void (%"class.views::View"*, %"class.ui::TouchEvent"*)* @_ZN5views4View12OnTouchEventEPN2ui10TouchEventE to i8*), i8* bitcast (void (%"class.views::View"*, %"class.ui::GestureEvent"*)* @_ZN5views4View14OnGestureEventEPN2ui12GestureEventE to i8*), i8* bitcast ({ i8*, i64 } (%"class.views::View"*)* @_ZNK5views4View13GetLogContextEv to i8*), i8* bitcast (i1 (%"class.views::View"*, %"class.ui::Accelerator"*)* @_ZN5views4View18AcceleratorPressedERKN2ui11AcceleratorE to i8*), i8* bitcast (i1 (%"class.views::View"*)* @_ZNK5views4View21CanHandleAcceleratorsEv to i8*), i8* bitcast (i1 (%"class.views::View"*)* @_ZNK5views4View8HasFocusEv to i8*), i8* bitcast (i32 (%"class.views::View"*)* @_ZNK5views4View16GetFocusBehaviorEv to i8*), i8* bitcast (void (%"class.views::View"*)* @_ZN5views4View12RequestFocusEv to i8*), i8* bitcast (void (%"class.views::WebView"*, i1)* @_ZN5views7WebView35AboutToRequestFocusFromTabTraversalEb to i8*), i8* bitcast (i1 (%"class.views::WebView"*, %"class.ui::KeyEvent"*)* @_ZN5views7WebView29SkipDefaultKeyEventProcessingERKN2ui8KeyEventE to i8*), i8* bitcast (%"class.views::FocusTraversable"* (%"class.views::View"*)* @_ZN5views4View19GetFocusTraversableEv to i8*), i8* bitcast (%"class.views::FocusTraversable"* (%"class.views::View"*)* @_ZN5views4View23GetPaneFocusTraversableEv to i8*), i8* bitcast (void (%"class.std::__1::basic_string.215"*, %"class.views::View"*, %"class.gfx::Point"*)* @_ZNK5views4View14GetTooltipTextERKN3gfx5PointE to i8*), i8* bitcast (void (%"class.views::View"*, %"class.gfx::Point"*, i32)* @_ZN5views4View15ShowContextMenuERKN3gfx5PointEN2ui14MenuSourceTypeE to i8*), i8* bitcast (i64 (%"class.views::View"*)* @_ZN5views4View30GetKeyboardContextMenuLocationEv to i8*), i8* bitcast (i1 (%"class.views::View"*, i32*, %"class.std::__1::set.224"*)* @_ZN5views4View14GetDropFormatsEPiPNSt3__13setIN2ui19ClipboardFormatTypeENS2_4lessIS5_EENS2_9allocatorIS5_EEEE to i8*), i8* bitcast (i1 (%"class.views::View"*)* @_ZN5views4View20AreDropTypesRequiredEv to i8*), i8* bitcast (i1 (%"class.views::View"*, %"class.ui::OSExchangeData"*)* @_ZN5views4View7CanDropERKN2ui14OSExchangeDataE to i8*), i8* bitcast (void (%"class.views::View"*, %"class.ui::DropTargetEvent"*)* @_ZN5views4View13OnDragEnteredERKN2ui15DropTargetEventE to i8*), i8* bitcast (i32 (%"class.views::View"*, %"class.ui::DropTargetEvent"*)* @_ZN5views4View13OnDragUpdatedERKN2ui15DropTargetEventE to i8*), i8* bitcast (void (%"class.views::View"*)* @_ZN5views4View12OnDragExitedEv to i8*), i8* bitcast (i32 (%"class.views::View"*, %"class.ui::DropTargetEvent"*)* @_ZN5views4View13OnPerformDropERKN2ui15DropTargetEventE to i8*), i8* bitcast (void (%"class.views::View"*)* @_ZN5views4View10OnDragDoneEv to i8*), i8* bitcast (void ()* @_ZN5views4View15GetDropCallbackERKN2ui15DropTargetEventE to i8*), i8* bitcast (void (%"class.views::WebView"*, %"struct.ui::AXNodeData"*)* @_ZN5views7WebView21GetAccessibleNodeDataEPN2ui10AXNodeDataE to i8*), i8* bitcast (i1 (%"class.views::View"*, %"struct.ui::AXActionData"*)* @_ZN5views4View22HandleAccessibleActionERKN2ui12AXActionDataE to i8*), i8* bitcast (%struct._AtkObject* (%"class.views::WebView"*)* @_ZN5views7WebView23GetNativeViewAccessibleEv to i8*), i8* bitcast (void (%"class.views::View"*, i32)* @_ZN5views4View20OnAccessibilityEventEN2ax5mojom5EventE to i8*), i8* bitcast (void (%"class.views::View"*, %"class.gfx::Rect"*)* @_ZN5views4View19ScrollRectToVisibleERKN3gfx4RectE to i8*), i8* bitcast (i64 (%"class.views::View"*)* @_ZNK5views4View22CalculatePreferredSizeEv to i8*), i8* bitcast (void (%"class.views::WebView"*, %"class.gfx::Rect"*)* @_ZN5views7WebView15OnBoundsChangedERKN3gfx4RectE to i8*), i8* bitcast (void (%"class.views::View"*, %"class.views::View"*)* @_ZN5views4View25ChildPreferredSizeChangedEPS0_ to i8*), i8* bitcast (void (%"class.views::View"*, %"class.views::View"*)* @_ZN5views4View22ChildVisibilityChangedEPS0_ to i8*), i8* bitcast (void (%"class.views::View"*)* @_ZN5views4View20PreferredSizeChangedEv to i8*), i8* bitcast (i1 (%"class.views::View"*)* @_ZNK5views4View43GetNeedsNotificationWhenVisibleBoundsChangeEv to i8*), i8* bitcast (void (%"class.views::View"*)* @_ZN5views4View22OnVisibleBoundsChangedEv to i8*), i8* bitcast (void (%"class.views::WebView"*, %"struct.views::ViewHierarchyChangedDetails"*)* @_ZN5views7WebView20ViewHierarchyChangedERKNS_27ViewHierarchyChangedDetailsE to i8*), i8* bitcast (void (%"class.views::View"*, %"class.views::View"*, i1)* @_ZN5views4View17VisibilityChangedEPS0_b to i8*), i8* bitcast (void (%"class.views::View"*)* @_ZN5views4View26NativeViewHierarchyChangedEv to i8*), i8* bitcast (void (%"class.views::WebView"*)* @_ZN5views7WebView13AddedToWidgetEv to i8*), i8* bitcast (void (%"class.views::View"*)* @_ZN5views4View17RemovedFromWidgetEv to i8*), i8* bitcast (void (%"class.views::View"*, %"class.gfx::Rect"*)* @_ZN5views4View18OnDidSchedulePaintERKN3gfx4RectE to i8*), i8* bitcast (void (%"class.views::View"*, %"class.views::PaintInfo"*)* @_ZN5views4View13PaintChildrenERKNS_9PaintInfoE to i8*), i8* bitcast (void (%"class.views::View"*, %"class.gfx::Canvas"*)* @_ZN5views4View7OnPaintEPN3gfx6CanvasE to i8*), i8* bitcast (void (%"class.views::View"*, %"class.gfx::Canvas"*)* @_ZN5views4View17OnPaintBackgroundEPN3gfx6CanvasE to i8*), i8* bitcast (void (%"class.views::View"*, %"class.gfx::Canvas"*)* @_ZN5views4View13OnPaintBorderEPN3gfx6CanvasE to i8*), i8* bitcast (i32 (%"class.views::View"*)* @_ZNK5views4View17GetPaintScaleTypeEv to i8*), i8* bitcast (void (%"class.views::View::LayerOffsetData"*, %"class.views::View"*, %"class.ui::Layer"**)* @_ZN5views4View34CalculateOffsetToAncestorWithLayerEPPN2ui5LayerE to i8*), i8* bitcast (void (%"class.views::View"*)* @_ZN5views4View17UpdateParentLayerEv to i8*), i8* bitcast (void (%"class.views::View"*, %"class.ui::Layer"*)* @_ZN5views4View18ReorderChildLayersEPN2ui5LayerE to i8*), i8* bitcast (void (%"class.views::View"*, %"class.views::View"*)* @_ZN5views4View19OnChildLayerChangedEPS0_ to i8*), i8* bitcast (%"struct.views::View::DragInfo"* (%"class.views::View"*)* @_ZN5views4View11GetDragInfoEv to i8*), i8* bitcast (void (%"class.views::WebView"*)* @_ZN5views7WebView7OnFocusEv to i8*), i8* bitcast (void (%"class.views::View"*)* @_ZN5views4View6OnBlurEv to i8*), i8* bitcast (void (%"class.views::View"*)* @_ZN5views4View14OnThemeChangedEv to i8*), i8* bitcast (i32 (%"class.views::View"*, %"class.gfx::Point"*)* @_ZN5views4View17GetDragOperationsERKN3gfx5PointE to i8*), i8* bitcast (void (%"class.views::View"*, %"class.gfx::Point"*, %"class.ui::OSExchangeData"*)* @_ZN5views4View13WriteDragDataERKN3gfx5PointEPN2ui14OSExchangeDataE to i8*), i8* bitcast (void (%"class.views::View"*, i8*, i64)* @_ZN5views4View19AfterPropertyChangeEPKvl to i8*), i8* bitcast (void (%"class.views::WebView"*, %"class.content::WebContents"*, %"class.gfx::Size"*)* @_ZN5views7WebView21ResizeDueToAutoResizeEPN7content11WebContentsERKN3gfx4SizeE to i8*), i8* bitcast (void (%"class.views::WebView"*)* @_ZN5views7WebView21OnWebContentsAttachedEv to i8*), i8* bitcast (void (%"class.views::WebView"*)* @_ZN5views7WebView21OnLetterboxingChangedEv to i8*), i8* bitcast (void (%"class.views::WebView"*, %"class.content::RenderFrameHost"*)* @_ZN5views7WebView18RenderFrameCreatedEPN7content15RenderFrameHostE to i8*), i8* bitcast (void (%"class.views::WebView"*, %"class.content::RenderFrameHost"*)* @_ZN5views7WebView18RenderFrameDeletedEPN7content15RenderFrameHostE to i8*), i8* bitcast (void (%"class.views::WebView"*, %"class.content::RenderFrameHost"*, %"class.content::RenderFrameHost"*)* @_ZN5views7WebView22RenderFrameHostChangedEPN7content15RenderFrameHostES3_ to i8*), i8* bitcast (void (%"class.views::WebView"*, i1, i1)* @_ZN5views7WebView29DidToggleFullscreenModeForTabEbb to i8*), i8* bitcast (void (%"class.views::WebView"*, i32)* @_ZN5views7WebView18OnChannelConnectedEi to i8*), i8* bitcast (void (%"class.views::WebView"*)* @_ZN5views7WebView14OnChannelErrorEv to i8*), i8* bitcast (void (%"class.views::WebView"*, %"class.IPC::Message"*)* @_ZN5views7WebView20OnBadMessageReceivedERKN3IPC7MessageE to i8*), i8* bitcast (void (%"class.views::WebView"*, %"class.content::RenderWidgetHost"*)* @_ZN5views7WebView20OnWebContentsFocusedEPN7content16RenderWidgetHostE to i8*), i8* bitcast (void (%"class.views::WebView"*)* @_ZN5views7WebView30AXTreeIDForMainFrameHasChangedEv to i8*), i8* bitcast (void (%"class.views::WebView"*, i32)* @_ZN5views7WebView13OnAXModeAddedEN2ui6AXModeE to i8*)], [5 x i8*] [i8* inttoptr (i64 -8 to i8*), i8* null, i8* bitcast (void (%"class.views::View"*, %"class.ui::Layer"*)* @_ZThn8_N5views4View14LayerDestroyedEPN2ui5LayerE to i8*), i8* bitcast (void (%class.WebUIOmniboxPopupView*)* @_ZThn8_N21WebUIOmniboxPopupViewD1Ev to i8*), i8* bitcast (void (%class.WebUIOmniboxPopupView*)* @_ZThn8_N21WebUIOmniboxPopupViewD0Ev to i8*)], [7 x i8*] [i8* inttoptr (i64 -16 to i8*), i8* null, i8* bitcast (void (%class.WebUIOmniboxPopupView*)* @_ZThn16_N21WebUIOmniboxPopupViewD1Ev to i8*), i8* bitcast (void (%class.WebUIOmniboxPopupView*)* @_ZThn16_N21WebUIOmniboxPopupViewD0Ev to i8*), i8* bitcast (%"class.ui::Layer"* (%"class.ui::LayerOwner"*)* @_ZN2ui10LayerOwner12ReleaseLayerEv to i8*), i8* bitcast (%"class.ui::Layer"* (%"class.views::View"*)* @_ZThn16_N5views4View13RecreateLayerEv to i8*), i8* bitcast (void (%"class.ui::LayerOwner"*, %"class.ui::Layer"*)* @_ZN2ui10LayerOwner8SetLayerENSt3__110unique_ptrINS_5LayerENS1_14default_deleteIS3_EEEE to i8*)], [6 x i8*] [i8* inttoptr (i64 -96 to i8*), i8* null, i8* bitcast (i1 (%"class.views::View"*, %"class.ui::Accelerator"*)* @_ZThn96_N5views4View18AcceleratorPressedERKN2ui11AcceleratorE to i8*), i8* bitcast (i1 (%"class.views::View"*)* @_ZThn96_NK5views4View21CanHandleAcceleratorsEv to i8*), i8* bitcast (void (%class.WebUIOmniboxPopupView*)* @_ZThn96_N21WebUIOmniboxPopupViewD1Ev to i8*), i8* bitcast (void (%class.WebUIOmniboxPopupView*)* @_ZThn96_N21WebUIOmniboxPopupViewD0Ev to i8*)], [10 x i8*] [i8* inttoptr (i64 -104 to i8*), i8* null, i8* bitcast (void (%class.WebUIOmniboxPopupView*)* @_ZThn104_N21WebUIOmniboxPopupViewD1Ev to i8*), i8* bitcast (void (%class.WebUIOmniboxPopupView*)* @_ZThn104_N21WebUIOmniboxPopupViewD0Ev to i8*), i8* bitcast (i1 (%"class.views::View"*, %"class.ui::Event"*)* @_ZThn104_N5views4View14CanAcceptEventERKN2ui5EventE to i8*), i8* bitcast (%"class.ui::EventTarget"* (%"class.views::View"*)* @_ZThn104_N5views4View15GetParentTargetEv to i8*), i8* bitcast (void ()* @_ZThn104_NK5views4View16GetChildIteratorEv to i8*), i8* bitcast (%"class.ui::EventTargeter"* (%"class.views::View"*)* @_ZThn104_N5views4View16GetEventTargeterEv to i8*), i8* bitcast (void (%"class.views::View"*, %"class.ui::EventTarget"*, %"class.ui::LocatedEvent"*)* @_ZThn104_NK5views4View20ConvertEventToTargetEPKN2ui11EventTargetEPNS1_12LocatedEventE to i8*), i8* bitcast (<2 x float> (%"class.views::View"*, %"class.ui::LocatedEvent"*)* @_ZThn104_NK5views4View18GetScreenLocationFERKN2ui12LocatedEventE to i8*)], [12 x i8*] [i8* inttoptr (i64 -168 to i8*), i8* null, i8* bitcast (void (%class.WebUIOmniboxPopupView*)* @_ZThn168_N21WebUIOmniboxPopupViewD1Ev to i8*), i8* bitcast (void (%class.WebUIOmniboxPopupView*)* @_ZThn168_N21WebUIOmniboxPopupViewD0Ev to i8*), i8* bitcast (void (%"class.ui::EventHandler"*, %"class.ui::Event"*)* @_ZN2ui12EventHandler7OnEventEPNS_5EventE to i8*), i8* bitcast (void (%"class.views::View"*, %"class.ui::KeyEvent"*)* @_ZThn168_N5views4View10OnKeyEventEPN2ui8KeyEventE to i8*), i8* bitcast (void (%"class.views::View"*, %"class.ui::MouseEvent"*)* @_ZThn168_N5views4View12OnMouseEventEPN2ui10MouseEventE to i8*), i8* bitcast (void (%"class.views::View"*, %"class.ui::ScrollEvent"*)* @_ZThn168_N5views4View13OnScrollEventEPN2ui11ScrollEventE to i8*), i8* bitcast (void (%"class.views::View"*, %"class.ui::TouchEvent"*)* @_ZThn168_N5views4View12OnTouchEventEPN2ui10TouchEventE to i8*), i8* bitcast (void (%"class.views::View"*, %"class.ui::GestureEvent"*)* @_ZThn168_N5views4View14OnGestureEventEPN2ui12GestureEventE to i8*), i8* bitcast (void (%"class.ui::EventHandler"*, %"class.ui::CancelModeEvent"*)* @_ZN2ui12EventHandler12OnCancelModeEPNS_15CancelModeEventE to i8*), i8* bitcast ({ i8*, i64 } (%"class.views::View"*)* @_ZThn168_NK5views4View13GetLogContextEv to i8*)], [5 x i8*] [i8* inttoptr (i64 -208 to i8*), i8* null, i8* bitcast (void (%class.WebUIOmniboxPopupView*)* @_ZThn208_N21WebUIOmniboxPopupViewD1Ev to i8*), i8* bitcast (void (%class.WebUIOmniboxPopupView*)* @_ZThn208_N21WebUIOmniboxPopupViewD0Ev to i8*), i8* bitcast (void (%"class.views::View"*, i8*, i64)* @_ZThn208_N5views4View19AfterPropertyChangeEPKvl to i8*)], [5 x i8*] [i8* inttoptr (i64 -240 to i8*), i8* null, i8* bitcast (void (%class.WebUIOmniboxPopupView*)* @_ZThn240_N21WebUIOmniboxPopupViewD1Ev to i8*), i8* bitcast (void (%class.WebUIOmniboxPopupView*)* @_ZThn240_N21WebUIOmniboxPopupViewD0Ev to i8*), i8* bitcast (%"class.ui::metadata::ClassMetaData"* (%class.WebUIOmniboxPopupView*)* @_ZThn240_N21WebUIOmniboxPopupView16GetClassMetaDataEv to i8*)], [99 x i8*] [i8* inttoptr (i64 -664 to i8*), i8* null, i8* bitcast (%"class.content::WebContents"* (%"class.content::WebContentsDelegate"*, %"class.content::WebContents"*, %"struct.content::OpenURLParams"*)* @_ZN7content19WebContentsDelegate14OpenURLFromTabEPNS_11WebContentsERKNS_13OpenURLParamsE to i8*), i8* bitcast (i1 (%"class.content::WebContentsDelegate"*, i1)* @_ZN7content19WebContentsDelegate24ShouldTransferNavigationEb to i8*), i8* bitcast (void (%"class.content::WebContentsDelegate"*, %"class.content::WebContents"*, i32)* @_ZN7content19WebContentsDelegate22NavigationStateChangedEPNS_11WebContentsENS_15InvalidateTypesE to i8*), i8* bitcast (void (%"class.content::WebContentsDelegate"*, %"class.content::WebContents"*)* @_ZN7content19WebContentsDelegate27VisibleSecurityStateChangedEPNS_11WebContentsE to i8*), i8* bitcast (void (%"class.content::WebContentsDelegate"*, %"class.content::WebContents"*, %"class.content::WebContents"*, %class.GURL*, i32, %"class.gfx::Rect"*, i1, i8*)* @_ZN7content19WebContentsDelegate14AddNewContentsEPNS_11WebContentsENSt3__110unique_ptrIS1_NS3_14default_deleteIS1_EEEERK4GURL21WindowOpenDispositionRKN3gfx4RectEbPb to i8*), i8* bitcast (void (%"class.content::WebContentsDelegate"*, %"class.content::WebContents"*)* @_ZN7content19WebContentsDelegate16ActivateContentsEPNS_11WebContentsE to i8*), i8* bitcast (void (%"class.content::WebContentsDelegate"*, %"class.content::WebContents"*, i1)* @_ZN7content19WebContentsDelegate19LoadingStateChangedEPNS_11WebContentsEb to i8*), i8* bitcast (void (%"class.content::WebContentsDelegate"*, %"class.content::WebContents"*)* @_ZN7content19WebContentsDelegate13CloseContentsEPNS_11WebContentsE to i8*), i8* bitcast (void (%"class.content::WebContentsDelegate"*, %"class.content::WebContents"*, %"class.gfx::Rect"*)* @_ZN7content19WebContentsDelegate17SetContentsBoundsEPNS_11WebContentsERKN3gfx4RectE to i8*), i8* bitcast (void (%"class.content::WebContentsDelegate"*, %"class.content::WebContents"*, %class.GURL*)* @_ZN7content19WebContentsDelegate15UpdateTargetURLEPNS_11WebContentsERK4GURL to i8*), i8* bitcast (void (%"class.content::WebContentsDelegate"*, %"class.content::WebContents"*, i1, i1)* @_ZN7content19WebContentsDelegate18ContentsMouseEventEPNS_11WebContentsEbb to i8*), i8* bitcast (void (%"class.content::WebContentsDelegate"*, i1)* @_ZN7content19WebContentsDelegate18ContentsZoomChangeEb to i8*), i8* bitcast (i1 (%"class.content::WebContentsDelegate"*)* @_ZN7content19WebContentsDelegate20CanOverscrollContentEv to i8*), i8* bitcast (void (%"class.content::WebContentsDelegate"*)* @_ZN7content19WebContentsDelegate26WillRunBeforeUnloadConfirmEv to i8*), i8* bitcast (i1 (%"class.content::WebContentsDelegate"*, %"class.content::WebContents"*)* @_ZN7content19WebContentsDelegate21ShouldSuppressDialogsEPNS_11WebContentsE to i8*), i8* bitcast (i1 (%"class.content::WebContentsDelegate"*, %"class.content::WebContents"*)* @_ZN7content19WebContentsDelegate25ShouldPreserveAbortedURLsEPNS_11WebContentsE to i8*), i8* bitcast (i1 (%"class.content::WebContentsDelegate"*, %"class.content::WebContents"*, i32, %"class.std::__1::basic_string.215"*, i32, %"class.std::__1::basic_string.215"*)* @_ZN7content19WebContentsDelegate22DidAddMessageToConsoleEPNS_11WebContentsEN5blink5mojom19ConsoleMessageLevelERKNSt3__112basic_stringIDsNS6_11char_traitsIDsEENS6_9allocatorIDsEEEEiSE_ to i8*), i8* bitcast (void (%"class.content::WebContentsDelegate"*, %"class.content::WebContents"*, i1, i8*)* @_ZN7content19WebContentsDelegate17BeforeUnloadFiredEPNS_11WebContentsEbPb to i8*), i8* bitcast (i1 (%"class.content::WebContentsDelegate"*, %"class.content::WebContents"*)* @_ZN7content19WebContentsDelegate31ShouldFocusLocationBarByDefaultEPNS_11WebContentsE to i8*), i8* bitcast (void (%"class.content::WebContentsDelegate"*)* @_ZN7content19WebContentsDelegate21SetFocusToLocationBarEv to i8*), i8* bitcast (i1 (%"class.content::WebContentsDelegate"*)* @_ZN7content19WebContentsDelegate25ShouldFocusPageAfterCrashEv to i8*), i8* bitcast (i1 (%"class.content::WebContentsDelegate"*)* @_ZN7content19WebContentsDelegate36ShouldResumeRequestsForCreatedWindowEv to i8*), i8* bitcast (i1 (%"class.content::WebContentsDelegate"*, %"class.content::WebContents"*, i1)* @_ZN7content19WebContentsDelegate9TakeFocusEPNS_11WebContentsEb to i8*), i8* bitcast (void (%"class.content::WebContentsDelegate"*)* @_ZN7content19WebContentsDelegate11LostCaptureEv to i8*), i8* bitcast (void ()* @_ZN7content19WebContentsDelegate11CanDownloadERK4GURLRKNSt3__112basic_stringIcNS4_11char_traitsIcEENS4_9allocatorIcEEEEN4base12OnceCallbackIFvbEEE to i8*), i8* bitcast (i1 (%"class.content::WebContentsDelegate"*, %"class.content::RenderFrameHost"*, %"struct.content::ContextMenuParams"*)* @_ZN7content19WebContentsDelegate17HandleContextMenuEPNS_15RenderFrameHostERKNS_17ContextMenuParamsE to i8*), i8* bitcast (i32 (%"class.content::WebContentsDelegate"*, %"class.content::WebContents"*, %"struct.content::NativeWebKeyboardEvent"*)* @_ZN7content19WebContentsDelegate22PreHandleKeyboardEventEPNS_11WebContentsERKNS_22NativeWebKeyboardEventE to i8*), i8* bitcast (i1 (%"class.content::WebContentsDelegate"*, %"class.content::WebContents"*, %"struct.content::NativeWebKeyboardEvent"*)* @_ZN7content19WebContentsDelegate19HandleKeyboardEventEPNS_11WebContentsERKNS_22NativeWebKeyboardEventE to i8*), i8* bitcast (i1 (%"class.content::WebContentsDelegate"*, %"class.content::WebContents"*, %"class.blink::WebGestureEvent"*)* @_ZN7content19WebContentsDelegate21PreHandleGestureEventEPNS_11WebContentsERKN5blink15WebGestureEventE to i8*), i8* bitcast (i1 (%"class.content::WebContentsDelegate"*, %"class.content::WebContents"*, %"struct.content::DropData"*, i32)* @_ZN7content19WebContentsDelegate12CanDragEnterEPNS_11WebContentsERKNS_8DropDataEN5blink18DragOperationsMaskE to i8*), i8* bitcast (void (%"class.content::WebContentsDelegate"*, %"class.content::WebContents"*)* @_ZN7content19WebContentsDelegate27ShowRepostFormWarningDialogEPNS_11WebContentsE to i8*), i8* bitcast (i1 (%"class.content::WebContentsDelegate"*, i32)* @_ZN7content19WebContentsDelegate17OnGoToEntryOffsetEi to i8*), i8* bitcast (i1 (%"class.content::WebContentsDelegate"*, %"class.content::SiteInstance"*, i32, %class.GURL*, %"class.std::__1::basic_string"*, %class.GURL*)* @_ZN7content19WebContentsDelegate31IsWebContentsCreationOverriddenEPNS_12SiteInstanceENS_5mojom19WindowContainerTypeERK4GURLRKNSt3__112basic_stringIcNS8_11char_traitsIcEENS8_9allocatorIcEEEES7_ to i8*), i8* bitcast (%"class.content::WebContents"* (%"class.content::WebContentsDelegate"*, %"class.content::RenderFrameHost"*, %"class.content::SiteInstance"*, i1, %class.GURL*, %"class.std::__1::basic_string"*, %class.GURL*, %"class.content::StoragePartitionId"*, %"class.content::SessionStorageNamespace"*)* @_ZN7content19WebContentsDelegate23CreateCustomWebContentsEPNS_15RenderFrameHostEPNS_12SiteInstanceEbRK4GURLRKNSt3__112basic_stringIcNS8_11char_traitsIcEENS8_9allocatorIcEEEES7_RKNS_18StoragePartitionIdEPNS_23SessionStorageNamespaceE to i8*), i8* bitcast (void (%"class.content::WebContentsDelegate"*, %"class.content::WebContents"*, i32, i32, %"class.std::__1::basic_string"*, %class.GURL*, %"class.content::WebContents"*)* @_ZN7content19WebContentsDelegate18WebContentsCreatedEPNS_11WebContentsEiiRKNSt3__112basic_stringIcNS3_11char_traitsIcEENS3_9allocatorIcEEEERK4GURLS2_ to i8*), i8* bitcast (void (%"class.content::WebContentsDelegate"*, %"class.content::WebContents"*)* @_ZN7content19WebContentsDelegate24PortalWebContentsCreatedEPNS_11WebContentsE to i8*), i8* bitcast (void (%"class.content::WebContentsDelegate"*, %"class.content::WebContents"*)* @_ZN7content19WebContentsDelegate23WebContentsBecamePortalEPNS_11WebContentsE to i8*), i8* bitcast (void (%"class.content::WebContentsDelegate"*, %"class.content::WebContents"*, %"class.content::RenderWidgetHost"*, %"class.base::RepeatingCallback"*)* @_ZN7content19WebContentsDelegate20RendererUnresponsiveEPNS_11WebContentsEPNS_16RenderWidgetHostEN4base17RepeatingCallbackIFvvEEE to i8*), i8* bitcast (void (%"class.content::WebContentsDelegate"*, %"class.content::WebContents"*, %"class.content::RenderWidgetHost"*)* @_ZN7content19WebContentsDelegate18RendererResponsiveEPNS_11WebContentsEPNS_16RenderWidgetHostE to i8*), i8* bitcast (void (%"class.content::WebContentsDelegate"*, %"class.content::WebContents"*)* @_ZN7content19WebContentsDelegate30DidNavigateMainFramePostCommitEPNS_11WebContentsE to i8*), i8* bitcast (%"class.content::JavaScriptDialogManager"* (%"class.content::WebContentsDelegate"*, %"class.content::WebContents"*)* @_ZN7content19WebContentsDelegate26GetJavaScriptDialogManagerEPNS_11WebContentsE to i8*), i8* bitcast (%"class.content::ColorChooser"* (%"class.content::WebContentsDelegate"*, %"class.content::WebContents"*, i32, %"class.std::__1::vector.291"*)* @_ZN7content19WebContentsDelegate16OpenColorChooserEPNS_11WebContentsEjRKNSt3__16vectorIN4mojo16InlinedStructPtrIN5blink5mojom15ColorSuggestionEEENS3_9allocatorISA_EEEE to i8*), i8* bitcast (void ()* @_ZN7content19WebContentsDelegate14OpenEyeDropperEPNS_15RenderFrameHostEPNS_18EyeDropperListenerE to i8*), i8* bitcast (void ()* @_ZN7content19WebContentsDelegate14RunFileChooserEPNS_15RenderFrameHostE13scoped_refptrINS_18FileSelectListenerEERKN5blink5mojom17FileChooserParamsE to i8*), i8* bitcast (void ()* @_ZN7content19WebContentsDelegate18EnumerateDirectoryEPNS_11WebContentsE13scoped_refptrINS_18FileSelectListenerEERKN4base8FilePathE to i8*), i8* bitcast (void (%"class.content::WebContentsDelegate"*, %"class.content::RenderFrameHost"*, %"class.std::__1::vector.292"*, %"class.std::__1::basic_string"*, %"class.base::OnceCallback"*, %"class.base::OnceCallback"*)* @_ZN7content19WebContentsDelegate15CreateSmsPromptEPNS_15RenderFrameHostERKNSt3__16vectorIN3url6OriginENS3_9allocatorIS6_EEEERKNS3_12basic_stringIcNS3_11char_traitsIcEENS7_IcEEEEN4base12OnceCallbackIFvvEEESM_ to i8*), i8* bitcast (void (%"class.content::WebContentsDelegate"*, %"class.content::RenderFrameHost"*, %"class.blink::mojom::FullscreenOptions"*)* @_ZN7content19WebContentsDelegate25EnterFullscreenModeForTabEPNS_15RenderFrameHostERKN5blink5mojom17FullscreenOptionsE to i8*), i8* bitcast (void (%"class.content::WebContentsDelegate"*, %"class.content::RenderFrameHost"*, %"class.blink::mojom::FullscreenOptions"*)* @_ZN7content19WebContentsDelegate28FullscreenStateChangedForTabEPNS_15RenderFrameHostERKN5blink5mojom17FullscreenOptionsE to i8*), i8* bitcast (void (%"class.content::WebContentsDelegate"*, %"class.content::WebContents"*)* @_ZN7content19WebContentsDelegate24ExitFullscreenModeForTabEPNS_11WebContentsE to i8*), i8* bitcast (i1 (%"class.content::WebContentsDelegate"*, %"class.content::WebContents"*)* @_ZN7content19WebContentsDelegate27IsFullscreenForTabOrPendingEPKNS_11WebContentsE to i8*), i8* bitcast (i32 (%"class.content::WebContentsDelegate"*, %"class.content::WebContents"*)* @_ZN7content19WebContentsDelegate14GetDisplayModeEPKNS_11WebContentsE to i8*), i8* bitcast (i32 (%"class.content::WebContentsDelegate"*, %"class.content::RenderFrameHost"*)* @_ZN7content19WebContentsDelegate31GetProtocolHandlerSecurityLevelEPNS_15RenderFrameHostE to i8*), i8* bitcast (void (%"class.content::WebContentsDelegate"*, %"class.content::RenderFrameHost"*, %"class.std::__1::basic_string"*, %class.GURL*, i1)* @_ZN7content19WebContentsDelegate23RegisterProtocolHandlerEPNS_15RenderFrameHostERKNSt3__112basic_stringIcNS3_11char_traitsIcEENS3_9allocatorIcEEEERK4GURLb to i8*), i8* bitcast (void (%"class.content::WebContentsDelegate"*, %"class.content::RenderFrameHost"*, %"class.std::__1::basic_string"*, %class.GURL*, i1)* @_ZN7content19WebContentsDelegate25UnregisterProtocolHandlerEPNS_15RenderFrameHostERKNSt3__112basic_stringIcNS3_11char_traitsIcEENS3_9allocatorIcEEEERK4GURLb to i8*), i8* bitcast (void (%"class.content::WebContentsDelegate"*, %"class.content::WebContents"*, i32, i32, %"class.gfx::Rect"*, i32, i1)* @_ZN7content19WebContentsDelegate9FindReplyEPNS_11WebContentsEiiRKN3gfx4RectEib to i8*), i8* bitcast (void (%"class.content::WebContentsDelegate"*, %"class.content::WebContents"*, %"class.gfx::Size"*)* @_ZN7content19WebContentsDelegate19UpdatePreferredSizeEPNS_11WebContentsERKN3gfx4SizeE to i8*), i8* bitcast (void (%"class.views::WebView"*, %"class.content::WebContents"*, %"class.gfx::Size"*)* @_ZThn664_N5views7WebView21ResizeDueToAutoResizeEPN7content11WebContentsERKN3gfx4SizeE to i8*), i8* bitcast (void (%"class.content::WebContentsDelegate"*, %"class.content::WebContents"*, i1, i1)* @_ZN7content19WebContentsDelegate18RequestToLockMouseEPNS_11WebContentsEbb to i8*), i8* bitcast (void (%"class.content::WebContentsDelegate"*)* @_ZN7content19WebContentsDelegate13LostMouseLockEv to i8*), i8* bitcast (void (%"class.content::WebContentsDelegate"*, %"class.content::WebContents"*, i1)* @_ZN7content19WebContentsDelegate19RequestKeyboardLockEPNS_11WebContentsEb to i8*), i8* bitcast (void (%"class.content::WebContentsDelegate"*, %"class.content::WebContents"*)* @_ZN7content19WebContentsDelegate25CancelKeyboardLockRequestEPNS_11WebContentsE to i8*), i8* bitcast (void ()* @_ZN7content19WebContentsDelegate28RequestMediaAccessPermissionEPNS_11WebContentsERKNS_18MediaStreamRequestEN4base12OnceCallbackIFvRKNSt3__16vectorIN5blink17MediaStreamDeviceENS8_9allocatorISB_EEEENSA_5mojom24MediaStreamRequestResultENS8_10unique_ptrINS_13MediaStreamUIENS8_14default_deleteISK_EEEEEEE to i8*), i8* bitcast (i1 (%"class.content::WebContentsDelegate"*, %"class.content::RenderFrameHost"*, %class.GURL*, i32)* @_ZN7content19WebContentsDelegate26CheckMediaAccessPermissionEPNS_15RenderFrameHostERK4GURLN5blink5mojom15MediaStreamTypeE to i8*), i8* bitcast (void (%"class.std::__1::basic_string"*, %"class.content::WebContentsDelegate"*, %"class.content::WebContents"*, i32)* @_ZN7content19WebContentsDelegate23GetDefaultMediaDeviceIDEPNS_11WebContentsEN5blink5mojom15MediaStreamTypeE to i8*), i8* bitcast (i64 (%"class.content::WebContentsDelegate"*, %"class.content::WebContents"*)* @_ZN7content19WebContentsDelegate23GetSizeForNewRenderViewEPNS_11WebContentsE to i8*), i8* bitcast (i1 (%"class.content::WebContentsDelegate"*, %"class.content::WebContents"*)* @_ZN7content19WebContentsDelegate17IsNeverCompositedEPNS_11WebContentsE to i8*), i8* bitcast (i1 (%"class.content::WebContentsDelegate"*, %"class.content::WebContents"*)* @_ZN7content19WebContentsDelegate14GuestSaveFrameEPNS_11WebContentsE to i8*), i8* bitcast (i1 (%"class.content::WebContentsDelegate"*, %class.GURL*, %"struct.content::Referrer"*, %"class.content::RenderFrameHost"*)* @_ZN7content19WebContentsDelegate9SaveFrameERK4GURLRKNS_8ReferrerEPNS_15RenderFrameHostE to i8*), i8* bitcast (i32 (%"class.content::WebContentsDelegate"*, %"class.content::WebContents"*, %"struct.content::SecurityStyleExplanations"*)* @_ZN7content19WebContentsDelegate16GetSecurityStyleEPNS_11WebContentsEPNS_25SecurityStyleExplanationsE to i8*), i8* bitcast (void (%"class.content::WebContentsDelegate"*, %"class.content::WebContents"*, %class.GURL*, %class.GURL*, i32)* @_ZN7content19WebContentsDelegate20OnDidBlockNavigationEPNS_11WebContentsERK4GURLS5_N5blink5mojom23NavigationBlockedReasonE to i8*), i8* bitcast (void (%"class.content::WebContentsDelegate"*, %class.GURL*)* @_ZN7content19WebContentsDelegate27PassiveInsecureContentFoundERK4GURL to i8*), i8* bitcast (i1 (%"class.content::WebContentsDelegate"*, %"class.content::WebContents"*, i1, %"class.url::Origin"*, %class.GURL*)* @_ZN7content19WebContentsDelegate33ShouldAllowRunningInsecureContentEPNS_11WebContentsEbRKN3url6OriginERK4GURL to i8*), i8* bitcast (void (%"class.content::WebContentsDelegate"*, %"class.content::WebContents"*, float)* @_ZN7content19WebContentsDelegate24SetTopControlsShownRatioEPNS_11WebContentsEf to i8*), i8* bitcast (i32 (%"class.content::WebContentsDelegate"*)* @_ZN7content19WebContentsDelegate20GetTopControlsHeightEv to i8*), i8* bitcast (i32 (%"class.content::WebContentsDelegate"*)* @_ZN7content19WebContentsDelegate23GetTopControlsMinHeightEv to i8*), i8* bitcast (i32 (%"class.content::WebContentsDelegate"*)* @_ZN7content19WebContentsDelegate23GetBottomControlsHeightEv to i8*), i8* bitcast (i32 (%"class.content::WebContentsDelegate"*)* @_ZN7content19WebContentsDelegate26GetBottomControlsMinHeightEv to i8*), i8* bitcast (i1 (%"class.content::WebContentsDelegate"*)* @_ZN7content19WebContentsDelegate41ShouldAnimateBrowserControlsHeightChangesEv to i8*), i8* bitcast (i1 (%"class.content::WebContentsDelegate"*, %"class.content::WebContents"*)* @_ZN7content19WebContentsDelegate35DoBrowserControlsShrinkRendererSizeEPNS_11WebContentsE to i8*), i8* bitcast (i1 (%"class.content::WebContentsDelegate"*)* @_ZN7content19WebContentsDelegate30OnlyExpandTopControlsAtPageTopEv to i8*), i8* bitcast (void (%"class.content::WebContentsDelegate"*, i1)* @_ZN7content19WebContentsDelegate37SetTopControlsGestureScrollInProgressEb to i8*), i8* bitcast (void (%"class.content::WebContentsDelegate"*, %"class.content::WebContents"*, i32*)* @_ZN7content19WebContentsDelegate32AdjustPreviewsStateForNavigationEPNS_11WebContentsEPi to i8*), i8* bitcast (void (%"class.content::WebContentsDelegate"*, %"class.content::WebContents"*, %"class.gfx::Rect"*, i32, %"class.content::RenderFrameHost"*)* @_ZNK7content19WebContentsDelegate25PrintCrossProcessSubframeEPNS_11WebContentsERKN3gfx4RectEiPNS_15RenderFrameHostE to i8*), i8* bitcast (void (%"class.content::WebContentsDelegate"*, %"class.content::WebContents"*, %"class.gfx::Rect"*, %"class.base::UnguessableToken"*, %"class.content::RenderFrameHost"*)* @_ZN7content19WebContentsDelegate29CapturePaintPreviewOfSubframeEPNS_11WebContentsERKN3gfx4RectERKN4base16UnguessableTokenEPNS_15RenderFrameHostE to i8*), i8* bitcast (i32 (%"class.content::WebContentsDelegate"*, %"class.content::WebContents"*, %"class.viz::SurfaceId"*, %"class.gfx::Size"*)* @_ZN7content19WebContentsDelegate21EnterPictureInPictureEPNS_11WebContentsERKN3viz9SurfaceIdERKN3gfx4SizeE to i8*), i8* bitcast (void (%"class.content::WebContentsDelegate"*)* @_ZN7content19WebContentsDelegate20ExitPictureInPictureEv to i8*), i8* bitcast (i1 (%"class.content::WebContentsDelegate"*)* @_ZN7content19WebContentsDelegate19ShouldAllowLazyLoadEv to i8*), i8* bitcast (i1 (%"class.content::WebContentsDelegate"*)* @_ZN7content19WebContentsDelegate27IsBackForwardCacheSupportedEv to i8*), i8* bitcast (%"class.content::WebContents"* (%"class.content::WebContentsDelegate"*, %"class.content::WebContents"*, %"class.content::WebContents"*)* @_ZN7content19WebContentsDelegate25ActivatePortalWebContentsEPNS_11WebContentsENSt3__110unique_ptrIS1_NS3_14default_deleteIS1_EEEE to i8*), i8* bitcast (void (%"class.content::WebContentsDelegate"*, %"class.content::WebContents"*, %"class.content::WebContents"*, %"class.base::OnceCallback"*)* @_ZN7content19WebContentsDelegate37UpdateInspectedWebContentsIfNecessaryEPNS_11WebContentsES2_N4base12OnceCallbackIFvvEEE to i8*), i8* bitcast (i1 (%"class.content::WebContentsDelegate"*, %"class.content::WebContents"*)* @_ZN7content19WebContentsDelegate32ShouldShowStaleContentOnEvictionEPNS_11WebContentsE to i8*), i8* bitcast (%"class.content::WebContents"* (%"class.content::WebContentsDelegate"*, %"class.content::WebContents"*)* @_ZN7content19WebContentsDelegate25GetResponsibleWebContentsEPNS_11WebContentsE to i8*), i8* bitcast (void (%"class.content::WebContentsDelegate"*, %"struct.content::MediaPlayerWatchTime"*)* @_ZN7content19WebContentsDelegate21MediaWatchTimeChangedERKNS_20MediaPlayerWatchTimeE to i8*), i8* bitcast (%"class.device::mojom::GeolocationContext"* (%"class.content::WebContentsDelegate"*)* @_ZN7content19WebContentsDelegate36GetInstalledWebappGeolocationContextEv to i8*), i8* bitcast (void ()* @_ZN7content19WebContentsDelegate18GetDelegateWeakPtrEv to i8*), i8* bitcast (void (%class.WebUIOmniboxPopupView*)* @_ZThn664_N21WebUIOmniboxPopupViewD1Ev to i8*), i8* bitcast (void (%class.WebUIOmniboxPopupView*)* @_ZThn664_N21WebUIOmniboxPopupViewD0Ev to i8*)], [109 x i8*] [i8* inttoptr (i64 -696 to i8*), i8* null, i8* bitcast (i1 (%"class.content::WebContentsObserver"*, %"class.IPC::Message"*)* @_ZN7content19WebContentsObserver17OnMessageReceivedERKN3IPC7MessageE to i8*), i8* bitcast (void (%"class.views::WebView"*, i32)* @_ZThn696_N5views7WebView18OnChannelConnectedEi to i8*), i8* bitcast (void (%"class.views::WebView"*)* @_ZThn696_N5views7WebView14OnChannelErrorEv to i8*), i8* bitcast (void (%"class.views::WebView"*, %"class.IPC::Message"*)* @_ZThn696_N5views7WebView20OnBadMessageReceivedERKN3IPC7MessageE to i8*), i8* bitcast (void (%"class.IPC::Listener"*, %"class.std::__1::basic_string"*, %"class.mojo::ScopedInterfaceEndpointHandle"*)* @_ZN3IPC8Listener28OnAssociatedInterfaceRequestERKNSt3__112basic_stringIcNS1_11char_traitsIcEENS1_9allocatorIcEEEEN4mojo29ScopedInterfaceEndpointHandleE to i8*), i8* bitcast (void (%"class.IPC::Listener"*)* @_ZN3IPC8Listener15OnChannelDeniedEv to i8*), i8* bitcast (void (%"class.IPC::Listener"*)* @_ZN3IPC8Listener20OnChannelListenErrorEv to i8*), i8* bitcast (void (%class.WebUIOmniboxPopupView*)* @_ZThn696_N21WebUIOmniboxPopupViewD1Ev to i8*), i8* bitcast (void (%class.WebUIOmniboxPopupView*)* @_ZThn696_N21WebUIOmniboxPopupViewD0Ev to i8*), i8* bitcast (void (%"class.views::WebView"*, %"class.content::RenderFrameHost"*)* @_ZThn696_N5views7WebView18RenderFrameCreatedEPN7content15RenderFrameHostE to i8*), i8* bitcast (void (%"class.views::WebView"*, %"class.content::RenderFrameHost"*)* @_ZThn696_N5views7WebView18RenderFrameDeletedEPN7content15RenderFrameHostE to i8*), i8* bitcast (void (%"class.views::WebView"*, %"class.content::RenderFrameHost"*, %"class.content::RenderFrameHost"*)* @_ZThn696_N5views7WebView22RenderFrameHostChangedEPN7content15RenderFrameHostES3_ to i8*), i8* bitcast (void (%"class.content::WebContentsObserver"*, i32)* @_ZN7content19WebContentsObserver12FrameDeletedEi to i8*), i8* bitcast (void (%"class.content::WebContentsObserver"*, %"class.content::RenderFrameHost"*, i32, i32)* @_ZN7content19WebContentsObserver27RenderFrameHostStateChangedEPNS_15RenderFrameHostENS1_14LifecycleStateES3_ to i8*), i8* bitcast (void (%"class.content::WebContentsObserver"*)* @_ZN7content19WebContentsObserver20CaptureTargetChangedEv to i8*), i8* bitcast (void (%"class.content::WebContentsObserver"*, %"class.blink::mojom::CaptureHandleConfig"*)* @_ZN7content19WebContentsObserver27OnCaptureHandleConfigUpdateERKN5blink5mojom19CaptureHandleConfigE to i8*), i8* bitcast (void (%"class.content::WebContentsObserver"*)* @_ZN7content19WebContentsObserver15RenderViewReadyEv to i8*), i8* bitcast (void (%"class.content::WebContentsObserver"*, %"class.content::RenderViewHost"*)* @_ZN7content19WebContentsObserver17RenderViewDeletedEPNS_14RenderViewHostE to i8*), i8* bitcast (void (%"class.content::WebContentsObserver"*, i32)* @_ZN7content19WebContentsObserver17RenderProcessGoneEN4base17TerminationStatusE to i8*), i8* bitcast (void (%"class.content::WebContentsObserver"*, %"class.content::RenderViewHost"*, %"class.content::RenderViewHost"*)* @_ZN7content19WebContentsObserver21RenderViewHostChangedEPNS_14RenderViewHostES2_ to i8*), i8* bitcast (void (%"class.content::WebContentsObserver"*, %"class.content::RenderProcessHost"*)* @_ZN7content19WebContentsObserver22OnRendererUnresponsiveEPNS_17RenderProcessHostE to i8*), i8* bitcast (void (%"class.content::WebContentsObserver"*, %"class.content::RenderProcessHost"*)* @_ZN7content19WebContentsObserver20OnRendererResponsiveEPNS_17RenderProcessHostE to i8*), i8* bitcast (void (%"class.content::WebContentsObserver"*, %"class.content::NavigationHandle"*)* @_ZN7content19WebContentsObserver18DidStartNavigationEPNS_16NavigationHandleE to i8*), i8* bitcast (void (%"class.content::WebContentsObserver"*, %"class.content::NavigationHandle"*)* @_ZN7content19WebContentsObserver21DidRedirectNavigationEPNS_16NavigationHandleE to i8*), i8* bitcast (void (%"class.content::WebContentsObserver"*, %"class.content::NavigationHandle"*)* @_ZN7content19WebContentsObserver23ReadyToCommitNavigationEPNS_16NavigationHandleE to i8*), i8* bitcast (void (%"class.content::WebContentsObserver"*, %"class.content::NavigationHandle"*)* @_ZN7content19WebContentsObserver19DidFinishNavigationEPNS_16NavigationHandleE to i8*), i8* bitcast (void (%"class.content::WebContentsObserver"*, %"class.content::WebContents"*, i64)* @_ZN7content19WebContentsObserver17DidActivatePortalEPNS_11WebContentsEN4base9TimeTicksE to i8*), i8* bitcast (void (%"class.content::WebContentsObserver"*)* @_ZN7content19WebContentsObserver15DidStartLoadingEv to i8*), i8* bitcast (void (%"class.content::WebContentsObserver"*)* @_ZN7content19WebContentsObserver18DidReceiveResponseEv to i8*), i8* bitcast (void (%"class.content::WebContentsObserver"*)* @_ZN7content19WebContentsObserver14DidStopLoadingEv to i8*), i8* bitcast (void (%"class.content::WebContentsObserver"*, double)* @_ZN7content19WebContentsObserver19LoadProgressChangedEd to i8*), i8* bitcast (void (%"class.content::WebContentsObserver"*, %"class.content::RenderFrameHost"*)* @_ZN7content19WebContentsObserver28DocumentAvailableInMainFrameEPNS_15RenderFrameHostE to i8*), i8* bitcast (void (%"class.content::WebContentsObserver"*, %"class.content::RenderFrameHost"*)* @_ZN7content19WebContentsObserver34DocumentOnLoadCompletedInMainFrameEPNS_15RenderFrameHostE to i8*), i8* bitcast (void (%"class.content::WebContentsObserver"*, %"class.content::RenderFrameHost"*)* @_ZN7content19WebContentsObserver16DOMContentLoadedEPNS_15RenderFrameHostE to i8*), i8* bitcast (void (%"class.content::WebContentsObserver"*, %"class.content::RenderFrameHost"*, %class.GURL*)* @_ZN7content19WebContentsObserver13DidFinishLoadEPNS_15RenderFrameHostERK4GURL to i8*), i8* bitcast (void (%"class.content::WebContentsObserver"*, %"class.content::RenderFrameHost"*, %class.GURL*, i32)* @_ZN7content19WebContentsObserver11DidFailLoadEPNS_15RenderFrameHostERK4GURLi to i8*), i8* bitcast (void (%"class.content::WebContentsObserver"*)* @_ZN7content19WebContentsObserver29DidChangeVisibleSecurityStateEv to i8*), i8* bitcast (void (%"class.content::WebContentsObserver"*, %"class.content::RenderFrameHost"*, %class.GURL*, %"class.std::__1::basic_string"*, i32)* @_ZN7content19WebContentsObserver30DidLoadResourceFromMemoryCacheEPNS_15RenderFrameHostERK4GURLRKNSt3__112basic_stringIcNS6_11char_traitsIcEENS6_9allocatorIcEEEEN7network5mojom18RequestDestinationE to i8*), i8* bitcast (void (%"class.content::WebContentsObserver"*, %"class.content::RenderFrameHost"*, %"struct.content::GlobalRequestID"*, %"class.blink::mojom::ResourceLoadInfo"*)* @_ZN7content19WebContentsObserver20ResourceLoadCompleteEPNS_15RenderFrameHostERKNS_15GlobalRequestIDERKN5blink5mojom16ResourceLoadInfoE to i8*), i8* bitcast (void (%"class.content::WebContentsObserver"*, %"class.content::RenderFrameHost"*, %"struct.content::CookieAccessDetails"*)* @_ZN7content19WebContentsObserver17OnCookiesAccessedEPNS_15RenderFrameHostERKNS_19CookieAccessDetailsE to i8*), i8* bitcast (void (%"class.content::WebContentsObserver"*, %"class.content::NavigationHandle"*, %"struct.content::CookieAccessDetails"*)* @_ZN7content19WebContentsObserver17OnCookiesAccessedEPNS_16NavigationHandleERKNS_19CookieAccessDetailsE to i8*), i8* bitcast (void (%"class.content::WebContentsObserver"*, %"struct.content::LoadCommittedDetails"*)* @_ZN7content19WebContentsObserver24NavigationEntryCommittedERKNS_20LoadCommittedDetailsE to i8*), i8* bitcast (void (%"class.content::WebContentsObserver"*, %"struct.content::PrunedDetails"*)* @_ZN7content19WebContentsObserver20NavigationListPrunedERKNS_13PrunedDetailsE to i8*), i8* bitcast (void (%"class.content::WebContentsObserver"*)* @_ZN7content19WebContentsObserver24NavigationEntriesDeletedEv to i8*), i8* bitcast (void (%"class.content::WebContentsObserver"*, %"struct.content::EntryChangedDetails"*)* @_ZN7content19WebContentsObserver22NavigationEntryChangedERKNS_19EntryChangedDetailsE to i8*), i8* bitcast (void (%"class.content::WebContentsObserver"*, %"class.content::WebContents"*, %"class.content::RenderFrameHost"*, %class.GURL*, %"struct.content::Referrer"*, i32, i32, i1, i1)* @_ZN7content19WebContentsObserver19DidOpenRequestedURLEPNS_11WebContentsEPNS_15RenderFrameHostERK4GURLRKNS_8ReferrerE21WindowOpenDispositionN2ui14PageTransitionEbb to i8*), i8* bitcast (void (%"class.content::WebContentsObserver"*)* @_ZN7content19WebContentsObserver29DidFirstVisuallyNonEmptyPaintEv to i8*), i8* bitcast (void (%"class.content::WebContentsObserver"*)* @_ZN7content19WebContentsObserver17NavigationStoppedEv to i8*), i8* bitcast (void (%"class.content::WebContentsObserver"*, %"class.blink::WebInputEvent"*)* @_ZN7content19WebContentsObserver21DidGetUserInteractionERKN5blink13WebInputEventE to i8*), i8* bitcast (void (%"class.content::WebContentsObserver"*)* @_ZN7content19WebContentsObserver20DidGetIgnoredUIEventEv to i8*), i8* bitcast (void (%"class.content::WebContentsObserver"*, i32)* @_ZN7content19WebContentsObserver19OnVisibilityChangedENS_10VisibilityE to i8*), i8* bitcast (void (%"class.content::WebContentsObserver"*, i1)* @_ZN7content19WebContentsObserver19MainFrameWasResizedEb to i8*), i8* bitcast (void (%"class.content::WebContentsObserver"*, %"class.content::RenderFrameHost"*, %"class.std::__1::basic_string"*)* @_ZN7content19WebContentsObserver16FrameNameChangedEPNS_15RenderFrameHostERKNSt3__112basic_stringIcNS3_11char_traitsIcEENS3_9allocatorIcEEEE to i8*), i8* bitcast (void (%"class.content::WebContentsObserver"*, %"class.content::RenderFrameHost"*)* @_ZN7content19WebContentsObserver27FrameReceivedUserActivationEPNS_15RenderFrameHostE to i8*), i8* bitcast (void (%"class.content::WebContentsObserver"*, %"class.content::RenderFrameHost"*, i1)* @_ZN7content19WebContentsObserver24FrameDisplayStateChangedEPNS_15RenderFrameHostEb to i8*), i8* bitcast (void (%"class.content::WebContentsObserver"*, %"class.content::RenderFrameHost"*, %"class.gfx::Size"*)* @_ZN7content19WebContentsObserver16FrameSizeChangedEPNS_15RenderFrameHostERKN3gfx4SizeE to i8*), i8* bitcast (void (%"class.content::WebContentsObserver"*, %"class.content::NavigationEntry"*)* @_ZN7content19WebContentsObserver11TitleWasSetEPNS_15NavigationEntryE to i8*), i8* bitcast (void (%"class.content::WebContentsObserver"*, %class.GURL*, i1)* @_ZN7content19WebContentsObserver16AppCacheAccessedERK4GURLb to i8*), i8* bitcast (void (%"class.content::WebContentsObserver"*)* @_ZN7content19WebContentsObserver21PepperInstanceCreatedEv to i8*), i8* bitcast (void (%"class.content::WebContentsObserver"*)* @_ZN7content19WebContentsObserver21PepperInstanceDeletedEv to i8*), i8* bitcast (void (%"class.content::WebContentsObserver"*, i32)* @_ZN7content19WebContentsObserver18ViewportFitChangedEN5blink5mojom11ViewportFitE to i8*), i8* bitcast (void (%"class.content::WebContentsObserver"*, %"class.base::FilePath"*, i32)* @_ZN7content19WebContentsObserver13PluginCrashedERKN4base8FilePathEi to i8*), i8* bitcast (void (%"class.content::WebContentsObserver"*, i32, %"class.base::FilePath"*, i1)* @_ZN7content19WebContentsObserver23PluginHungStatusChangedEiRKN4base8FilePathEb to i8*), i8* bitcast (void (%"class.content::WebContentsObserver"*, %"class.content::WebContents"*)* @_ZN7content19WebContentsObserver23InnerWebContentsCreatedEPNS_11WebContentsE to i8*), i8* bitcast (void (%"class.content::WebContentsObserver"*, %"class.content::WebContents"*, %"class.content::RenderFrameHost"*, i1)* @_ZN7content19WebContentsObserver24InnerWebContentsAttachedEPNS_11WebContentsEPNS_15RenderFrameHostEb to i8*), i8* bitcast (void (%"class.content::WebContentsObserver"*, %"class.content::WebContents"*)* @_ZN7content19WebContentsObserver24InnerWebContentsDetachedEPNS_11WebContentsE to i8*), i8* bitcast (void (%"class.content::WebContentsObserver"*, %"class.content::WebContents"*, %"class.content::WebContents"*)* @_ZN7content19WebContentsObserver24DidCloneToNewWebContentsEPNS_11WebContentsES2_ to i8*), i8* bitcast (void (%"class.content::WebContentsObserver"*)* @_ZN7content19WebContentsObserver20WebContentsDestroyedEv to i8*), i8* bitcast (void (%"class.content::WebContentsObserver"*, %"struct.blink::UserAgentOverride"*)* @_ZN7content19WebContentsObserver20UserAgentOverrideSetERKN5blink17UserAgentOverrideE to i8*), i8* bitcast (void (%"class.content::WebContentsObserver"*, %"class.content::RenderFrameHost"*, %"class.std::__1::vector.319"*)* @_ZN7content19WebContentsObserver19DidUpdateFaviconURLEPNS_15RenderFrameHostERKNSt3__16vectorIN4mojo9StructPtrIN5blink5mojom10FaviconURLEEENS3_9allocatorISA_EEEE to i8*), i8* bitcast (void (%"class.content::WebContentsObserver"*, i1)* @_ZN7content19WebContentsObserver19OnAudioStateChangedEb to i8*), i8* bitcast (void (%"class.content::WebContentsObserver"*, %"class.content::RenderFrameHost"*, i1)* @_ZN7content19WebContentsObserver24OnFrameAudioStateChangedEPNS_15RenderFrameHostEb to i8*), i8* bitcast (void (%"class.content::WebContentsObserver"*, i1)* @_ZN7content19WebContentsObserver37OnIsConnectedToBluetoothDeviceChangedEb to i8*), i8* bitcast (void (%"class.content::WebContentsObserver"*, i1)* @_ZN7content19WebContentsObserver25DidUpdateAudioMutingStateEb to i8*), i8* bitcast (void (%"class.views::WebView"*, i1, i1)* @_ZThn696_N5views7WebView29DidToggleFullscreenModeForTabEbb to i8*), i8* bitcast (void (%"class.content::WebContentsObserver"*, %"class.content::RenderFrameHost"*)* @_ZN7content19WebContentsObserver20DidAcquireFullscreenEPNS_15RenderFrameHostE to i8*), i8* bitcast (void (%"class.content::WebContentsObserver"*, i32)* @_ZN7content19WebContentsObserver32DidChangeVerticalScrollDirectionEN3viz23VerticalScrollDirectionE to i8*), i8* bitcast (void (%"class.content::WebContentsObserver"*)* @_ZN7content19WebContentsObserver27BeforeFormRepostWarningShowEv to i8*), i8* bitcast (void (%"class.content::WebContentsObserver"*, i1, %"class.base::TimeTicks"*)* @_ZN7content19WebContentsObserver17BeforeUnloadFiredEbRKN4base9TimeTicksE to i8*), i8* bitcast (void (%"class.content::WebContentsObserver"*)* @_ZN7content19WebContentsObserver27BeforeUnloadDialogCancelledEv to i8*), i8* bitcast (void (%"class.views::WebView"*)* @_ZThn696_N5views7WebView30AXTreeIDForMainFrameHasChangedEv to i8*), i8* bitcast (void (%"class.content::WebContentsObserver"*, %"struct.content::AXEventNotificationDetails"*)* @_ZN7content19WebContentsObserver26AccessibilityEventReceivedERKNS_26AXEventNotificationDetailsE to i8*), i8* bitcast (void (%"class.content::WebContentsObserver"*, %"class.std::__1::vector.320"*)* @_ZN7content19WebContentsObserver36AccessibilityLocationChangesReceivedERKNSt3__16vectorINS_35AXLocationChangeNotificationDetailsENS1_9allocatorIS3_EEEE to i8*), i8* bitcast (void (%"class.content::WebContentsObserver"*)* @_ZN7content19WebContentsObserver19DidChangeThemeColorEv to i8*), i8* bitcast (void (%"class.content::WebContentsObserver"*)* @_ZN7content19WebContentsObserver24OnBackgroundColorChangedEv to i8*), i8* bitcast (void (%"class.content::WebContentsObserver"*, %"class.content::RenderFrameHost"*, i32, %"class.std::__1::basic_string.215"*, i32, %"class.std::__1::basic_string.215"*, %"class.absl::optional.321"*)* @_ZN7content19WebContentsObserver24OnDidAddMessageToConsoleEPNS_15RenderFrameHostEN5blink5mojom19ConsoleMessageLevelERKNSt3__112basic_stringIDsNS6_11char_traitsIDsEENS6_9allocatorIDsEEEEiSE_RKN4absl8optionalISC_EE to i8*), i8* bitcast (void (%"class.content::WebContentsObserver"*, %"struct.content::WebContentsObserver::MediaPlayerInfo"*, %"struct.content::MediaPlayerId"*)* @_ZN7content19WebContentsObserver19MediaStartedPlayingERKNS0_15MediaPlayerInfoERKNS_13MediaPlayerIdE to i8*), i8* bitcast (void (%"class.content::WebContentsObserver"*, %"struct.content::WebContentsObserver::MediaPlayerInfo"*, %"struct.content::MediaPlayerId"*, i32)* @_ZN7content19WebContentsObserver19MediaStoppedPlayingERKNS0_15MediaPlayerInfoERKNS_13MediaPlayerIdENS0_18MediaStoppedReasonE to i8*), i8* bitcast (void (%"class.content::WebContentsObserver"*, %"class.gfx::Size"*, %"struct.content::MediaPlayerId"*)* @_ZN7content19WebContentsObserver12MediaResizedERKN3gfx4SizeERKNS_13MediaPlayerIdE to i8*), i8* bitcast (void (%"class.content::WebContentsObserver"*, i1)* @_ZN7content19WebContentsObserver33MediaEffectivelyFullscreenChangedEb to i8*), i8* bitcast (void (%"class.content::WebContentsObserver"*, i1)* @_ZN7content19WebContentsObserver28MediaPictureInPictureChangedEb to i8*), i8* bitcast (void (%"class.content::WebContentsObserver"*, %"struct.content::MediaPlayerId"*, i1)* @_ZN7content19WebContentsObserver23MediaMutedStatusChangedERKNS_13MediaPlayerIdEb to i8*), i8* bitcast (void (%"class.content::WebContentsObserver"*, %"struct.content::MediaPlayerId"*)* @_ZN7content19WebContentsObserver20MediaBufferUnderflowERKNS_13MediaPlayerIdE to i8*), i8* bitcast (void (%"class.content::WebContentsObserver"*, %"struct.content::MediaPlayerId"*)* @_ZN7content19WebContentsObserver15MediaPlayerSeekERKNS_13MediaPlayerIdE to i8*), i8* bitcast (void (%"class.content::WebContentsObserver"*, %"struct.content::MediaPlayerId"*)* @_ZN7content19WebContentsObserver14MediaDestroyedERKNS_13MediaPlayerIdE to i8*), i8* bitcast (void (%"class.content::WebContentsObserver"*, float)* @_ZN7content19WebContentsObserver24OnPageScaleFactorChangedEf to i8*), i8* bitcast (void (%"class.content::WebContentsObserver"*)* @_ZN7content19WebContentsObserver7OnPasteEv to i8*), i8* bitcast (i1 (%"class.content::WebContentsObserver"*, %"class.IPC::Message"*, %"class.content::RenderFrameHost"*)* @_ZN7content19WebContentsObserver17OnMessageReceivedERKN3IPC7MessageEPNS_15RenderFrameHostE to i8*), i8* bitcast (void (%"class.views::WebView"*, %"class.content::RenderWidgetHost"*)* @_ZThn696_N5views7WebView20OnWebContentsFocusedEPN7content16RenderWidgetHostE to i8*), i8* bitcast (void (%"class.content::WebContentsObserver"*, %"class.content::RenderWidgetHost"*)* @_ZN7content19WebContentsObserver22OnWebContentsLostFocusEPNS_16RenderWidgetHostE to i8*), i8* bitcast (void (%"class.content::WebContentsObserver"*, %"struct.content::FocusedNodeDetails"*)* @_ZN7content19WebContentsObserver20OnFocusChangedInPageEPNS_18FocusedNodeDetailsE to i8*), i8* bitcast (void (%"class.content::WebContentsObserver"*, %"class.content::RenderFrameHost"*, %"class.absl::optional.322"*)* @_ZN7content19WebContentsObserver23DidUpdateWebManifestURLEPNS_15RenderFrameHostERKN4absl8optionalI4GURLEE to i8*), i8* bitcast (void (%"class.content::WebContentsObserver"*, %"class.content::RenderFrameHost"*, %"class.std::__1::basic_string"*, %"class.mojo::ScopedHandleBase"*)* @_ZN7content19WebContentsObserver27OnInterfaceRequestFromFrameEPNS_15RenderFrameHostERKNSt3__112basic_stringIcNS3_11char_traitsIcEENS3_9allocatorIcEEEEPN4mojo16ScopedHandleBaseINSC_17MessagePipeHandleEEE to i8*), i8* bitcast (void (%"class.content::WebContentsObserver"*, %"struct.std::__1::pair.327"*)* @_ZN7content19WebContentsObserver27AudioContextPlaybackStartedERKNSt3__14pairIPNS_15RenderFrameHostEiEE to i8*), i8* bitcast (void (%"class.content::WebContentsObserver"*, %"struct.std::__1::pair.327"*)* @_ZN7content19WebContentsObserver27AudioContextPlaybackStoppedERKNSt3__14pairIPNS_15RenderFrameHostEiEE to i8*), i8* bitcast (void (%"class.content::WebContentsObserver"*, %"class.content::RenderFrameHost"*, %class.GURL*, i24)* @_ZN7content19WebContentsObserver23OnServiceWorkerAccessedEPNS_15RenderFrameHostERK4GURLNS_24AllowServiceWorkerResultE to i8*), i8* bitcast (void (%"class.content::WebContentsObserver"*, %"class.content::NavigationHandle"*, %class.GURL*, i24)* @_ZN7content19WebContentsObserver23OnServiceWorkerAccessedEPNS_16NavigationHandleERK4GURLNS_24AllowServiceWorkerResultE to i8*)], [5 x i8*] [i8* inttoptr (i64 -712 to i8*), i8* null, i8* bitcast (void (%class.WebUIOmniboxPopupView*)* @_ZThn712_N21WebUIOmniboxPopupViewD1Ev to i8*), i8* bitcast (void (%class.WebUIOmniboxPopupView*)* @_ZThn712_N21WebUIOmniboxPopupViewD0Ev to i8*), i8* bitcast (void (%"class.views::WebView"*, i32)* @_ZThn712_N5views7WebView13OnAXModeAddedEN2ui6AXModeE to i8*)] }, align 8
@_ZZN21WebUIOmniboxPopupViewC1EPN7content14BrowserContextEE16kOmniboxPopupUrl = internal constant [36 x i8] c"chrome://omnibox/omnibox_popup.html\00", align 16
@_ZN21WebUIOmniboxPopupView30WebUIOmniboxPopupView_MetaData10meta_data_E = hidden local_unnamed_addr global %"class.ui::metadata::ClassMetaData"* null, align 8
@_ZN21WebUIOmniboxPopupView14kViewClassNameE = hidden constant [22 x i8] c"WebUIOmniboxPopupView\00", align 16
@_ZTVN21WebUIOmniboxPopupView30WebUIOmniboxPopupView_MetaDataE = hidden unnamed_addr constant { [5 x i8*] } { [5 x i8*] [i8* null, i8* null, i8* bitcast (void (%"class.ui::metadata::ClassMetaData"*)* @_ZN2ui8metadata13ClassMetaDataD2Ev to i8*), i8* bitcast (void (%"class.WebUIOmniboxPopupView::WebUIOmniboxPopupView_MetaData"*)* @_ZN21WebUIOmniboxPopupView30WebUIOmniboxPopupView_MetaDataD0Ev to i8*), i8* bitcast (void (%"class.WebUIOmniboxPopupView::WebUIOmniboxPopupView_MetaData"*)* @_ZN21WebUIOmniboxPopupView30WebUIOmniboxPopupView_MetaData13BuildMetaDataEv to i8*)] }, align 8
@.str.5 = private unnamed_addr constant [65 x i8] c"../../chrome/browser/ui/views/omnibox/webui_omnibox_popup_view.h\00", align 1

@_ZN21WebUIOmniboxPopupViewC1EPN7content14BrowserContextE = hidden unnamed_addr alias void (%class.WebUIOmniboxPopupView*, %"class.content::BrowserContext"*), void (%class.WebUIOmniboxPopupView*, %"class.content::BrowserContext"*)* @_ZN21WebUIOmniboxPopupViewC2EPN7content14BrowserContextE

; Function Attrs: nounwind ssp uwtable
define hidden void @_ZN21WebUIOmniboxPopupViewC2EPN7content14BrowserContextE(%class.WebUIOmniboxPopupView*, %"class.content::BrowserContext"*) unnamed_addr #0 align 2 {
  %3 = alloca %"class.gfx::Size", align 4
  %4 = alloca %class.GURL, align 8
  %5 = bitcast %class.WebUIOmniboxPopupView* %0 to %"class.views::WebView"*
  tail call void @_ZN5views7WebViewC2EPN7content14BrowserContextE(%"class.views::WebView"* %5, %"class.content::BrowserContext"* %1) #9
  %6 = bitcast %class.WebUIOmniboxPopupView* %0 to <2 x i32 (...)**>*
  store <2 x i32 (...)**> <i32 (...)** bitcast (i8** getelementptr inbounds ({ [130 x i8*], [5 x i8*], [7 x i8*], [6 x i8*], [10 x i8*], [12 x i8*], [5 x i8*], [5 x i8*], [99 x i8*], [109 x i8*], [5 x i8*] }, { [130 x i8*], [5 x i8*], [7 x i8*], [6 x i8*], [10 x i8*], [12 x i8*], [5 x i8*], [5 x i8*], [99 x i8*], [109 x i8*], [5 x i8*] }* @_ZTV21WebUIOmniboxPopupView, i64 0, inrange i32 0, i64 2) to i32 (...)**), i32 (...)** bitcast (i8** getelementptr inbounds ({ [130 x i8*], [5 x i8*], [7 x i8*], [6 x i8*], [10 x i8*], [12 x i8*], [5 x i8*], [5 x i8*], [99 x i8*], [109 x i8*], [5 x i8*] }, { [130 x i8*], [5 x i8*], [7 x i8*], [6 x i8*], [10 x i8*], [12 x i8*], [5 x i8*], [5 x i8*], [99 x i8*], [109 x i8*], [5 x i8*] }* @_ZTV21WebUIOmniboxPopupView, i64 0, inrange i32 1, i64 2) to i32 (...)**)>, <2 x i32 (...)**>* %6, align 8
  %7 = getelementptr inbounds %class.WebUIOmniboxPopupView, %class.WebUIOmniboxPopupView* %0, i64 0, i32 0, i32 0, i32 2, i32 0
  store i32 (...)** bitcast (i8** getelementptr inbounds ({ [130 x i8*], [5 x i8*], [7 x i8*], [6 x i8*], [10 x i8*], [12 x i8*], [5 x i8*], [5 x i8*], [99 x i8*], [109 x i8*], [5 x i8*] }, { [130 x i8*], [5 x i8*], [7 x i8*], [6 x i8*], [10 x i8*], [12 x i8*], [5 x i8*], [5 x i8*], [99 x i8*], [109 x i8*], [5 x i8*] }* @_ZTV21WebUIOmniboxPopupView, i64 0, inrange i32 2, i64 2) to i32 (...)**), i32 (...)*** %7, align 8
  %8 = getelementptr inbounds %class.WebUIOmniboxPopupView, %class.WebUIOmniboxPopupView* %0, i64 0, i32 0, i32 0, i32 3, i32 0
  %9 = bitcast i32 (...)*** %8 to <2 x i32 (...)**>*
  store <2 x i32 (...)**> <i32 (...)** bitcast (i8** getelementptr inbounds ({ [130 x i8*], [5 x i8*], [7 x i8*], [6 x i8*], [10 x i8*], [12 x i8*], [5 x i8*], [5 x i8*], [99 x i8*], [109 x i8*], [5 x i8*] }, { [130 x i8*], [5 x i8*], [7 x i8*], [6 x i8*], [10 x i8*], [12 x i8*], [5 x i8*], [5 x i8*], [99 x i8*], [109 x i8*], [5 x i8*] }* @_ZTV21WebUIOmniboxPopupView, i64 0, inrange i32 3, i64 2) to i32 (...)**), i32 (...)** bitcast (i8** getelementptr inbounds ({ [130 x i8*], [5 x i8*], [7 x i8*], [6 x i8*], [10 x i8*], [12 x i8*], [5 x i8*], [5 x i8*], [99 x i8*], [109 x i8*], [5 x i8*] }, { [130 x i8*], [5 x i8*], [7 x i8*], [6 x i8*], [10 x i8*], [12 x i8*], [5 x i8*], [5 x i8*], [99 x i8*], [109 x i8*], [5 x i8*] }* @_ZTV21WebUIOmniboxPopupView, i64 0, inrange i32 4, i64 2) to i32 (...)**)>, <2 x i32 (...)**>* %9, align 8
  %10 = getelementptr inbounds %class.WebUIOmniboxPopupView, %class.WebUIOmniboxPopupView* %0, i64 0, i32 0, i32 0, i32 5, i32 0
  store i32 (...)** bitcast (i8** getelementptr inbounds ({ [130 x i8*], [5 x i8*], [7 x i8*], [6 x i8*], [10 x i8*], [12 x i8*], [5 x i8*], [5 x i8*], [99 x i8*], [109 x i8*], [5 x i8*] }, { [130 x i8*], [5 x i8*], [7 x i8*], [6 x i8*], [10 x i8*], [12 x i8*], [5 x i8*], [5 x i8*], [99 x i8*], [109 x i8*], [5 x i8*] }* @_ZTV21WebUIOmniboxPopupView, i64 0, inrange i32 5, i64 2) to i32 (...)**), i32 (...)*** %10, align 8
  %11 = getelementptr inbounds %class.WebUIOmniboxPopupView, %class.WebUIOmniboxPopupView* %0, i64 0, i32 0, i32 0, i32 6, i32 0
  store i32 (...)** bitcast (i8** getelementptr inbounds ({ [130 x i8*], [5 x i8*], [7 x i8*], [6 x i8*], [10 x i8*], [12 x i8*], [5 x i8*], [5 x i8*], [99 x i8*], [109 x i8*], [5 x i8*] }, { [130 x i8*], [5 x i8*], [7 x i8*], [6 x i8*], [10 x i8*], [12 x i8*], [5 x i8*], [5 x i8*], [99 x i8*], [109 x i8*], [5 x i8*] }* @_ZTV21WebUIOmniboxPopupView, i64 0, inrange i32 6, i64 2) to i32 (...)**), i32 (...)*** %11, align 8
  %12 = getelementptr inbounds %class.WebUIOmniboxPopupView, %class.WebUIOmniboxPopupView* %0, i64 0, i32 0, i32 0, i32 7, i32 0
  store i32 (...)** bitcast (i8** getelementptr inbounds ({ [130 x i8*], [5 x i8*], [7 x i8*], [6 x i8*], [10 x i8*], [12 x i8*], [5 x i8*], [5 x i8*], [99 x i8*], [109 x i8*], [5 x i8*] }, { [130 x i8*], [5 x i8*], [7 x i8*], [6 x i8*], [10 x i8*], [12 x i8*], [5 x i8*], [5 x i8*], [99 x i8*], [109 x i8*], [5 x i8*] }* @_ZTV21WebUIOmniboxPopupView, i64 0, inrange i32 7, i64 2) to i32 (...)**), i32 (...)*** %12, align 8
  %13 = getelementptr inbounds %class.WebUIOmniboxPopupView, %class.WebUIOmniboxPopupView* %0, i64 0, i32 0, i32 2, i32 0
  store i32 (...)** bitcast (i8** getelementptr inbounds ({ [130 x i8*], [5 x i8*], [7 x i8*], [6 x i8*], [10 x i8*], [12 x i8*], [5 x i8*], [5 x i8*], [99 x i8*], [109 x i8*], [5 x i8*] }, { [130 x i8*], [5 x i8*], [7 x i8*], [6 x i8*], [10 x i8*], [12 x i8*], [5 x i8*], [5 x i8*], [99 x i8*], [109 x i8*], [5 x i8*] }* @_ZTV21WebUIOmniboxPopupView, i64 0, inrange i32 8, i64 2) to i32 (...)**), i32 (...)*** %13, align 8
  %14 = getelementptr inbounds %class.WebUIOmniboxPopupView, %class.WebUIOmniboxPopupView* %0, i64 0, i32 0, i32 3, i32 0, i32 0
  store i32 (...)** bitcast (i8** getelementptr inbounds ({ [130 x i8*], [5 x i8*], [7 x i8*], [6 x i8*], [10 x i8*], [12 x i8*], [5 x i8*], [5 x i8*], [99 x i8*], [109 x i8*], [5 x i8*] }, { [130 x i8*], [5 x i8*], [7 x i8*], [6 x i8*], [10 x i8*], [12 x i8*], [5 x i8*], [5 x i8*], [99 x i8*], [109 x i8*], [5 x i8*] }* @_ZTV21WebUIOmniboxPopupView, i64 0, inrange i32 9, i64 2) to i32 (...)**), i32 (...)*** %14, align 8
  %15 = getelementptr inbounds %class.WebUIOmniboxPopupView, %class.WebUIOmniboxPopupView* %0, i64 0, i32 0, i32 4, i32 0
  store i32 (...)** bitcast (i8** getelementptr inbounds ({ [130 x i8*], [5 x i8*], [7 x i8*], [6 x i8*], [10 x i8*], [12 x i8*], [5 x i8*], [5 x i8*], [99 x i8*], [109 x i8*], [5 x i8*] }, { [130 x i8*], [5 x i8*], [7 x i8*], [6 x i8*], [10 x i8*], [12 x i8*], [5 x i8*], [5 x i8*], [99 x i8*], [109 x i8*], [5 x i8*] }* @_ZTV21WebUIOmniboxPopupView, i64 0, inrange i32 10, i64 2) to i32 (...)**), i32 (...)*** %15, align 8
  %16 = bitcast %class.WebUIOmniboxPopupView* %0 to %"class.views::View"*
  %17 = bitcast %"class.gfx::Size"* %3 to i8*
  call void @llvm.lifetime.start.p0i8(i64 8, i8* nonnull %17) #9
  %18 = getelementptr inbounds %"class.gfx::Size", %"class.gfx::Size"* %3, i64 0, i32 0
  store i32 600, i32* %18, align 4
  %19 = getelementptr inbounds %"class.gfx::Size", %"class.gfx::Size"* %3, i64 0, i32 1
  store i32 300, i32* %19, align 4
  call void @_ZN5views4View16SetPreferredSizeERKN3gfx4SizeE(%"class.views::View"* %16, %"class.gfx::Size"* nonnull dereferenceable(8) %3) #9
  call void @llvm.lifetime.end.p0i8(i64 8, i8* nonnull %17) #9
  %20 = bitcast %class.GURL* %4 to i8*
  call void @llvm.lifetime.start.p0i8(i64 120, i8* nonnull %20) #9
  call void @_ZN4GURLC1EN4base16BasicStringPieceIcNSt3__111char_traitsIcEEEE(%class.GURL* nonnull %4, i8* getelementptr inbounds ([36 x i8], [36 x i8]* @_ZZN21WebUIOmniboxPopupViewC1EPN7content14BrowserContextEE16kOmniboxPopupUrl, i64 0, i64 0), i64 35) #9
  call void @_ZN5views7WebView14LoadInitialURLERK4GURL(%"class.views::WebView"* %5, %class.GURL* nonnull dereferenceable(120) %4) #9
  call void @_ZN4GURLD1Ev(%class.GURL* nonnull %4) #9
  call void @llvm.lifetime.end.p0i8(i64 120, i8* nonnull %20) #9
  ret void
}

declare void @_ZN5views7WebViewC2EPN7content14BrowserContextE(%"class.views::WebView"*, %"class.content::BrowserContext"*) unnamed_addr #1

declare void @_ZN5views4View16SetPreferredSizeERKN3gfx4SizeE(%"class.views::View"*, %"class.gfx::Size"* dereferenceable(8)) local_unnamed_addr #1

; Function Attrs: argmemonly nounwind
declare void @llvm.lifetime.start.p0i8(i64 immarg, i8* nocapture) #2

; Function Attrs: argmemonly nounwind
declare void @llvm.lifetime.end.p0i8(i64 immarg, i8* nocapture) #2

declare void @_ZN5views7WebView14LoadInitialURLERK4GURL(%"class.views::WebView"*, %class.GURL* dereferenceable(120)) local_unnamed_addr #1

declare void @_ZN4GURLC1EN4base16BasicStringPieceIcNSt3__111char_traitsIcEEEE(%class.GURL*, i8*, i64) unnamed_addr #1

; Function Attrs: nounwind
declare void @_ZN4GURLD1Ev(%class.GURL*) unnamed_addr #3

; Function Attrs: nounwind ssp uwtable
define hidden %class.OmniboxPopupHandler* @_ZN21WebUIOmniboxPopupView15GetWebUIHandlerEv(%class.WebUIOmniboxPopupView*) local_unnamed_addr #0 align 2 {
  %2 = bitcast %class.WebUIOmniboxPopupView* %0 to %"class.views::WebView"*
  %3 = tail call %"class.content::WebContents"* @_ZN5views7WebView14GetWebContentsEv(%"class.views::WebView"* %2) #9
  %4 = bitcast %"class.content::WebContents"* %3 to %"class.content::WebUI"* (%"class.content::WebContents"*)***
  %5 = load %"class.content::WebUI"* (%"class.content::WebContents"*)**, %"class.content::WebUI"* (%"class.content::WebContents"*)*** %4, align 8
  %6 = getelementptr inbounds %"class.content::WebUI"* (%"class.content::WebContents"*)*, %"class.content::WebUI"* (%"class.content::WebContents"*)** %5, i64 26
  %7 = load %"class.content::WebUI"* (%"class.content::WebContents"*)*, %"class.content::WebUI"* (%"class.content::WebContents"*)** %6, align 8
  %8 = tail call %"class.content::WebUI"* %7(%"class.content::WebContents"* %3) #9
  %9 = bitcast %"class.content::WebUI"* %8 to %"class.content::WebUIController"* (%"class.content::WebUI"*)***
  %10 = load %"class.content::WebUIController"* (%"class.content::WebUI"*)**, %"class.content::WebUIController"* (%"class.content::WebUI"*)*** %9, align 8
  %11 = getelementptr inbounds %"class.content::WebUIController"* (%"class.content::WebUI"*)*, %"class.content::WebUIController"* (%"class.content::WebUI"*)** %10, i64 3
  %12 = load %"class.content::WebUIController"* (%"class.content::WebUI"*)*, %"class.content::WebUIController"* (%"class.content::WebUI"*)** %11, align 8
  %13 = tail call %"class.content::WebUIController"* %12(%"class.content::WebUI"* %8) #9
  %14 = getelementptr inbounds %"class.content::WebUIController", %"class.content::WebUIController"* %13, i64 1, i32 1
  %15 = bitcast %"class.content::WebUI"** %14 to %class.OmniboxPopupHandler**
  %16 = load %class.OmniboxPopupHandler*, %class.OmniboxPopupHandler** %15, align 8
  ret %class.OmniboxPopupHandler* %16
}

declare %"class.content::WebContents"* @_ZN5views7WebView14GetWebContentsEv(%"class.views::WebView"*) local_unnamed_addr #1

; Function Attrs: nounwind ssp uwtable
define hidden %"class.ui::metadata::ClassMetaData"* @_ZN21WebUIOmniboxPopupView8MetaDataEv() local_unnamed_addr #0 align 2 {
  %1 = load %"class.ui::metadata::ClassMetaData"*, %"class.ui::metadata::ClassMetaData"** @_ZN21WebUIOmniboxPopupView30WebUIOmniboxPopupView_MetaData10meta_data_E, align 8
  %2 = icmp eq %"class.ui::metadata::ClassMetaData"* %1, null
  br i1 %2, label %3, label %7

3:                                                ; preds = %0
  %4 = tail call i8* @_Znwm(i64 96) #10
  %5 = bitcast i8* %4 to %"class.WebUIOmniboxPopupView::WebUIOmniboxPopupView_MetaData"*
  tail call void @_ZN21WebUIOmniboxPopupView30WebUIOmniboxPopupView_MetaDataC2Ev(%"class.WebUIOmniboxPopupView::WebUIOmniboxPopupView_MetaData"* nonnull %5) #9
  %6 = bitcast i8* %4 to %"class.ui::metadata::ClassMetaData"*
  tail call void @_ZN2ui8metadata17RegisterClassInfoENSt3__110unique_ptrINS0_13ClassMetaDataENS1_14default_deleteIS3_EEEE(%"class.ui::metadata::ClassMetaData"* nonnull %6) #9
  store i8* %4, i8** bitcast (%"class.ui::metadata::ClassMetaData"** @_ZN21WebUIOmniboxPopupView30WebUIOmniboxPopupView_MetaData10meta_data_E to i8**), align 8
  br label %7

7:                                                ; preds = %0, %3
  %8 = phi %"class.ui::metadata::ClassMetaData"* [ %1, %0 ], [ %6, %3 ]
  ret %"class.ui::metadata::ClassMetaData"* %8
}

; Function Attrs: nounwind ssp uwtable
define hidden %"class.ui::metadata::ClassMetaData"* @_ZN21WebUIOmniboxPopupView16GetClassMetaDataEv(%class.WebUIOmniboxPopupView* nocapture readnone) unnamed_addr #0 align 2 {
  %2 = load %"class.ui::metadata::ClassMetaData"*, %"class.ui::metadata::ClassMetaData"** @_ZN21WebUIOmniboxPopupView30WebUIOmniboxPopupView_MetaData10meta_data_E, align 8
  %3 = icmp eq %"class.ui::metadata::ClassMetaData"* %2, null
  br i1 %3, label %4, label %8

4:                                                ; preds = %1
  %5 = tail call i8* @_Znwm(i64 96) #10
  %6 = bitcast i8* %5 to %"class.WebUIOmniboxPopupView::WebUIOmniboxPopupView_MetaData"*
  tail call void @_ZN21WebUIOmniboxPopupView30WebUIOmniboxPopupView_MetaDataC2Ev(%"class.WebUIOmniboxPopupView::WebUIOmniboxPopupView_MetaData"* nonnull %6) #9
  %7 = bitcast i8* %5 to %"class.ui::metadata::ClassMetaData"*
  tail call void @_ZN2ui8metadata17RegisterClassInfoENSt3__110unique_ptrINS0_13ClassMetaDataENS1_14default_deleteIS3_EEEE(%"class.ui::metadata::ClassMetaData"* nonnull %7) #9
  store i8* %5, i8** bitcast (%"class.ui::metadata::ClassMetaData"** @_ZN21WebUIOmniboxPopupView30WebUIOmniboxPopupView_MetaData10meta_data_E to i8**), align 8
  br label %8

8:                                                ; preds = %1, %4
  %9 = phi %"class.ui::metadata::ClassMetaData"* [ %2, %1 ], [ %7, %4 ]
  ret %"class.ui::metadata::ClassMetaData"* %9
}

; Function Attrs: nounwind ssp uwtable
define hidden %"class.ui::metadata::ClassMetaData"* @_ZThn240_N21WebUIOmniboxPopupView16GetClassMetaDataEv(%class.WebUIOmniboxPopupView* nocapture readnone) unnamed_addr #0 align 2 {
  %2 = load %"class.ui::metadata::ClassMetaData"*, %"class.ui::metadata::ClassMetaData"** @_ZN21WebUIOmniboxPopupView30WebUIOmniboxPopupView_MetaData10meta_data_E, align 8
  %3 = icmp eq %"class.ui::metadata::ClassMetaData"* %2, null
  br i1 %3, label %4, label %8

4:                                                ; preds = %1
  %5 = tail call i8* @_Znwm(i64 96) #10
  %6 = bitcast i8* %5 to %"class.WebUIOmniboxPopupView::WebUIOmniboxPopupView_MetaData"*
  tail call void @_ZN21WebUIOmniboxPopupView30WebUIOmniboxPopupView_MetaDataC2Ev(%"class.WebUIOmniboxPopupView::WebUIOmniboxPopupView_MetaData"* nonnull %6) #9
  %7 = bitcast i8* %5 to %"class.ui::metadata::ClassMetaData"*
  tail call void @_ZN2ui8metadata17RegisterClassInfoENSt3__110unique_ptrINS0_13ClassMetaDataENS1_14default_deleteIS3_EEEE(%"class.ui::metadata::ClassMetaData"* nonnull %7) #9
  store i8* %5, i8** bitcast (%"class.ui::metadata::ClassMetaData"** @_ZN21WebUIOmniboxPopupView30WebUIOmniboxPopupView_MetaData10meta_data_E to i8**), align 8
  br label %8

8:                                                ; preds = %1, %4
  %9 = phi %"class.ui::metadata::ClassMetaData"* [ %2, %1 ], [ %7, %4 ]
  ret %"class.ui::metadata::ClassMetaData"* %9
}

; Function Attrs: norecurse nounwind readnone ssp uwtable
define hidden i8* @_ZNK21WebUIOmniboxPopupView12GetClassNameEv(%class.WebUIOmniboxPopupView* nocapture readnone) unnamed_addr #4 align 2 {
  ret i8* getelementptr inbounds ([22 x i8], [22 x i8]* @_ZN21WebUIOmniboxPopupView14kViewClassNameE, i64 0, i64 0)
}

; Function Attrs: nounwind ssp uwtable
define hidden void @_ZN21WebUIOmniboxPopupView30WebUIOmniboxPopupView_MetaData13BuildMetaDataEv(%"class.WebUIOmniboxPopupView::WebUIOmniboxPopupView_MetaData"*) unnamed_addr #0 align 2 {
  %2 = alloca %"class.std::__1::basic_string", align 8
  %3 = bitcast %"class.WebUIOmniboxPopupView::WebUIOmniboxPopupView_MetaData"* %0 to %"class.ui::metadata::ClassMetaData"*
  %4 = bitcast %"class.std::__1::basic_string"* %2 to i8*
  call void @llvm.lifetime.start.p0i8(i64 24, i8* nonnull %4) #9
  %5 = bitcast %"class.std::__1::basic_string"* %2 to %"struct.std::__1::basic_string<char, std::__1::char_traits<char>, std::__1::allocator<char> >::__short"*
  %6 = getelementptr inbounds %"struct.std::__1::basic_string<char, std::__1::char_traits<char>, std::__1::allocator<char> >::__short", %"struct.std::__1::basic_string<char, std::__1::char_traits<char>, std::__1::allocator<char> >::__short"* %5, i64 0, i32 1, i32 0
  store i8 21, i8* %6, align 1
  call void @llvm.memcpy.p0i8.p0i8.i64(i8* nonnull align 8 %4, i8* align 1 getelementptr inbounds ([22 x i8], [22 x i8]* @_ZN21WebUIOmniboxPopupView14kViewClassNameE, i64 0, i64 0), i64 21, i1 false) #9
  %7 = getelementptr inbounds i8, i8* %4, i64 21
  store i8 0, i8* %7, align 1
  call void @_ZN2ui8metadata13ClassMetaData11SetTypeNameERKNSt3__112basic_stringIcNS2_11char_traitsIcEENS2_9allocatorIcEEEE(%"class.ui::metadata::ClassMetaData"* %3, %"class.std::__1::basic_string"* nonnull dereferenceable(24) %2) #9
  %8 = load i8, i8* %6, align 1
  %9 = icmp slt i8 %8, 0
  br i1 %9, label %10, label %13

10:                                               ; preds = %1
  %11 = getelementptr inbounds %"class.std::__1::basic_string", %"class.std::__1::basic_string"* %2, i64 0, i32 0, i32 0, i32 0, i32 0, i32 0, i32 0
  %12 = load i8*, i8** %11, align 8
  call void @_ZdlPv(i8* %12) #10
  br label %13

13:                                               ; preds = %1, %10
  call void @llvm.lifetime.end.p0i8(i64 24, i8* nonnull %4) #9
  %14 = call %"class.ui::metadata::ClassMetaData"* @_ZN5views7WebView8MetaDataEv() #9
  %15 = getelementptr inbounds %"class.WebUIOmniboxPopupView::WebUIOmniboxPopupView_MetaData", %"class.WebUIOmniboxPopupView::WebUIOmniboxPopupView_MetaData"* %0, i64 0, i32 0, i32 3
  store %"class.ui::metadata::ClassMetaData"* %14, %"class.ui::metadata::ClassMetaData"** %15, align 8
  ret void
}

declare void @_ZN2ui8metadata13ClassMetaData11SetTypeNameERKNSt3__112basic_stringIcNS2_11char_traitsIcEENS2_9allocatorIcEEEE(%"class.ui::metadata::ClassMetaData"*, %"class.std::__1::basic_string"* dereferenceable(24)) local_unnamed_addr #1

declare %"class.ui::metadata::ClassMetaData"* @_ZN5views7WebView8MetaDataEv() local_unnamed_addr #1

; Function Attrs: nounwind
declare void @_ZN2ui8metadata13ClassMetaDataD2Ev(%"class.ui::metadata::ClassMetaData"*) unnamed_addr #3

; Function Attrs: inlinehint nounwind ssp uwtable
define linkonce_odr hidden void @_ZN21WebUIOmniboxPopupView30WebUIOmniboxPopupView_MetaDataD0Ev(%"class.WebUIOmniboxPopupView::WebUIOmniboxPopupView_MetaData"*) unnamed_addr #5 comdat align 2 {
  %2 = bitcast %"class.WebUIOmniboxPopupView::WebUIOmniboxPopupView_MetaData"* %0 to %"class.ui::metadata::ClassMetaData"*
  tail call void @_ZN2ui8metadata13ClassMetaDataD2Ev(%"class.ui::metadata::ClassMetaData"* %2) #9
  %3 = bitcast %"class.WebUIOmniboxPopupView::WebUIOmniboxPopupView_MetaData"* %0 to i8*
  tail call void @_ZdlPv(i8* %3) #10
  ret void
}

declare void @_ZN5views4View12OnPaintLayerERKN2ui12PaintContextE(%"class.views::View"*, %"class.ui::PaintContext"* dereferenceable(40)) unnamed_addr #1

declare void @_ZN5views4View26OnDeviceScaleFactorChangedEff(%"class.views::View"*, float, float) unnamed_addr #1

declare void @_ZN2ui13LayerDelegate20OnLayerBoundsChangedERKN3gfx4RectENS_20PropertyChangeReasonE(%"class.ui::LayerDelegate"*, %"class.gfx::Rect"* dereferenceable(16), i32) unnamed_addr #1

declare void @_ZN5views4View18OnLayerTransformedERKN3gfx9TransformEN2ui20PropertyChangeReasonE(%"class.views::View"*, %"class.gfx::Transform"* dereferenceable(68), i32) unnamed_addr #1

declare void @_ZN2ui13LayerDelegate21OnLayerOpacityChangedENS_20PropertyChangeReasonE(%"class.ui::LayerDelegate"*, i32) unnamed_addr #1

declare void @_ZN2ui13LayerDelegate24OnLayerAlphaShapeChangedEv(%"class.ui::LayerDelegate"*) unnamed_addr #1

declare void @_ZN2ui13LayerDelegate33OnLayerFillsBoundsOpaquelyChangedENS_20PropertyChangeReasonE(%"class.ui::LayerDelegate"*, i32) unnamed_addr #1

declare void @_ZN2ui13LayerDelegate17UpdateVisualStateEv(%"class.ui::LayerDelegate"*) unnamed_addr #1

; Function Attrs: nounwind
declare void @_ZN5views7WebViewD2Ev(%"class.views::WebView"*) unnamed_addr #3

; Function Attrs: nounwind ssp uwtable
define linkonce_odr hidden void @_ZN21WebUIOmniboxPopupViewD0Ev(%class.WebUIOmniboxPopupView*) unnamed_addr #0 comdat align 2 {
  %2 = bitcast %class.WebUIOmniboxPopupView* %0 to %"class.views::WebView"*
  tail call void @_ZN5views7WebViewD2Ev(%"class.views::WebView"* %2) #9
  %3 = bitcast %class.WebUIOmniboxPopupView* %0 to i8*
  tail call void @_ZdlPv(i8* %3) #10
  ret void
}

declare %"class.views::Widget"* @_ZNK5views4View9GetWidgetEv(%"class.views::View"*) unnamed_addr #1

declare %"class.views::Widget"* @_ZN5views4View9GetWidgetEv(%"class.views::View"*) unnamed_addr #1

declare { i64, i64 } @_ZNK5views4View9GetInsetsEv(%"class.views::View"*) unnamed_addr #1

declare { i64, i64 } @_ZNK5views4View23GetAnchorBoundsInScreenEv(%"class.views::View"*) unnamed_addr #1

declare i32 @_ZNK5views4View11GetBaselineEv(%"class.views::View"*) unnamed_addr #1

declare i64 @_ZNK5views4View14GetMinimumSizeEv(%"class.views::View"*) unnamed_addr #1

declare i64 @_ZNK5views4View14GetMaximumSizeEv(%"class.views::View"*) unnamed_addr #1

declare i32 @_ZNK5views4View17GetHeightForWidthEi(%"class.views::View"*, i32) unnamed_addr #1

declare void @_ZNK5views4View16GetAvailableSizeEPKS0_(%"class.views::SizeBounds"* sret, %"class.views::View"*, %"class.views::View"*) unnamed_addr #1

declare void @_ZN5views4View10SetVisibleEb(%"class.views::View"*, i1 zeroext) unnamed_addr #1

declare zeroext i1 @_ZNK5views4View7IsDrawnEv(%"class.views::View"*) unnamed_addr #1

declare void @_ZN5views4View19GetChildrenInZOrderEv(%"class.std::__1::vector.35"* sret, %"class.views::View"*) unnamed_addr #1

declare void @_ZN5views4View19AddLayerBeneathViewEPN2ui5LayerE(%"class.views::View"*, %"class.ui::Layer"*) unnamed_addr #1

declare void @_ZN5views4View22RemoveLayerBeneathViewEPN2ui5LayerE(%"class.views::View"*, %"class.ui::Layer"*) unnamed_addr #1

declare void @_ZN5views4View14LayerDestroyedEPN2ui5LayerE(%"class.views::View"*, %"class.ui::Layer"*) unnamed_addr #1

declare %"class.ui::Layer"* @_ZN5views4View13RecreateLayerEv(%"class.views::View"*) unnamed_addr #1

declare void @_ZN5views4View6LayoutEv(%"class.views::View"*) unnamed_addr #1

declare zeroext i1 @_ZNK5views4View23IsGroupFocusTraversableEv(%"class.views::View"*) unnamed_addr #1

declare %"class.views::View"* @_ZN5views4View23GetSelectedViewForGroupEi(%"class.views::View"*, i32) unnamed_addr #1

declare void @_ZN5views4View9SetBorderENSt3__110unique_ptrINS_6BorderENS1_14default_deleteIS3_EEEE(%"class.views::View"*, %"class.views::Border"*) unnamed_addr #1

declare %"class.views::View"* @_ZN5views4View25GetTooltipHandlerForPointERKN3gfx5PointE(%"class.views::View"*, %"class.gfx::Point"* dereferenceable(8)) unnamed_addr #1

declare void @_ZN5views4View9GetCursorERKN2ui10MouseEventE() unnamed_addr

declare zeroext i1 @_ZNK5views4View32GetCanProcessEventsWithinSubtreeEv(%"class.views::View"*) unnamed_addr #1

declare zeroext i1 @_ZN5views7WebView14OnMousePressedERKN2ui10MouseEventE(%"class.views::WebView"*, %"class.ui::MouseEvent"* dereferenceable(216)) unnamed_addr #1

declare zeroext i1 @_ZN5views4View14OnMouseDraggedERKN2ui10MouseEventE(%"class.views::View"*, %"class.ui::MouseEvent"* dereferenceable(216)) unnamed_addr #1

declare void @_ZN5views4View15OnMouseReleasedERKN2ui10MouseEventE(%"class.views::View"*, %"class.ui::MouseEvent"* dereferenceable(216)) unnamed_addr #1

declare void @_ZN5views4View18OnMouseCaptureLostEv(%"class.views::View"*) unnamed_addr #1

declare void @_ZN5views4View12OnMouseMovedERKN2ui10MouseEventE(%"class.views::View"*, %"class.ui::MouseEvent"* dereferenceable(216)) unnamed_addr #1

declare void @_ZN5views4View14OnMouseEnteredERKN2ui10MouseEventE(%"class.views::View"*, %"class.ui::MouseEvent"* dereferenceable(216)) unnamed_addr #1

declare void @_ZN5views4View13OnMouseExitedERKN2ui10MouseEventE(%"class.views::View"*, %"class.ui::MouseEvent"* dereferenceable(216)) unnamed_addr #1

declare void @_ZN5views4View25SetMouseAndGestureHandlerEPS0_(%"class.views::View"*, %"class.views::View"*) unnamed_addr #1

declare void @_ZN5views4View15SetMouseHandlerEPS0_(%"class.views::View"*, %"class.views::View"*) unnamed_addr #1

declare zeroext i1 @_ZN5views4View12OnKeyPressedERKN2ui8KeyEventE(%"class.views::View"*, %"class.ui::KeyEvent"* dereferenceable(168)) unnamed_addr #1

declare zeroext i1 @_ZN5views4View13OnKeyReleasedERKN2ui8KeyEventE(%"class.views::View"*, %"class.ui::KeyEvent"* dereferenceable(168)) unnamed_addr #1

declare zeroext i1 @_ZN5views4View12OnMouseWheelERKN2ui15MouseWheelEventE(%"class.views::View"*, %"class.ui::MouseWheelEvent"* dereferenceable(232)) unnamed_addr #1

declare %"class.views::WordLookupClient"* @_ZN5views4View19GetWordLookupClientEv(%"class.views::View"*) unnamed_addr #1

declare zeroext i1 @_ZN5views4View14CanAcceptEventERKN2ui5EventE(%"class.views::View"*, %"class.ui::Event"* dereferenceable(144)) unnamed_addr #1

declare %"class.ui::EventTarget"* @_ZN5views4View15GetParentTargetEv(%"class.views::View"*) unnamed_addr #1

declare void @_ZNK5views4View16GetChildIteratorEv() unnamed_addr

declare %"class.ui::EventTargeter"* @_ZN5views4View16GetEventTargeterEv(%"class.views::View"*) unnamed_addr #1

declare void @_ZNK5views4View20ConvertEventToTargetEPKN2ui11EventTargetEPNS1_12LocatedEventE(%"class.views::View"*, %"class.ui::EventTarget"*, %"class.ui::LocatedEvent"*) unnamed_addr #1

declare <2 x float> @_ZNK5views4View18GetScreenLocationFERKN2ui12LocatedEventE(%"class.views::View"*, %"class.ui::LocatedEvent"* dereferenceable(160)) unnamed_addr #1

declare void @_ZN5views4View10OnKeyEventEPN2ui8KeyEventE(%"class.views::View"*, %"class.ui::KeyEvent"*) unnamed_addr #1

declare void @_ZN5views4View12OnMouseEventEPN2ui10MouseEventE(%"class.views::View"*, %"class.ui::MouseEvent"*) unnamed_addr #1

declare void @_ZN5views4View13OnScrollEventEPN2ui11ScrollEventE(%"class.views::View"*, %"class.ui::ScrollEvent"*) unnamed_addr #1

declare void @_ZN5views4View12OnTouchEventEPN2ui10TouchEventE(%"class.views::View"*, %"class.ui::TouchEvent"*) unnamed_addr #1

declare void @_ZN5views4View14OnGestureEventEPN2ui12GestureEventE(%"class.views::View"*, %"class.ui::GestureEvent"*) unnamed_addr #1

declare { i8*, i64 } @_ZNK5views4View13GetLogContextEv(%"class.views::View"*) unnamed_addr #1

declare zeroext i1 @_ZN5views4View18AcceleratorPressedERKN2ui11AcceleratorE(%"class.views::View"*, %"class.ui::Accelerator"* dereferenceable(32)) unnamed_addr #1

declare zeroext i1 @_ZNK5views4View21CanHandleAcceleratorsEv(%"class.views::View"*) unnamed_addr #1

declare zeroext i1 @_ZNK5views4View8HasFocusEv(%"class.views::View"*) unnamed_addr #1

declare i32 @_ZNK5views4View16GetFocusBehaviorEv(%"class.views::View"*) unnamed_addr #1

declare void @_ZN5views4View12RequestFocusEv(%"class.views::View"*) unnamed_addr #1

declare void @_ZN5views7WebView35AboutToRequestFocusFromTabTraversalEb(%"class.views::WebView"*, i1 zeroext) unnamed_addr #1

declare zeroext i1 @_ZN5views7WebView29SkipDefaultKeyEventProcessingERKN2ui8KeyEventE(%"class.views::WebView"*, %"class.ui::KeyEvent"* dereferenceable(168)) unnamed_addr #1

declare %"class.views::FocusTraversable"* @_ZN5views4View19GetFocusTraversableEv(%"class.views::View"*) unnamed_addr #1

declare %"class.views::FocusTraversable"* @_ZN5views4View23GetPaneFocusTraversableEv(%"class.views::View"*) unnamed_addr #1

declare void @_ZNK5views4View14GetTooltipTextERKN3gfx5PointE(%"class.std::__1::basic_string.215"* sret, %"class.views::View"*, %"class.gfx::Point"* dereferenceable(8)) unnamed_addr #1

declare void @_ZN5views4View15ShowContextMenuERKN3gfx5PointEN2ui14MenuSourceTypeE(%"class.views::View"*, %"class.gfx::Point"* dereferenceable(8), i32) unnamed_addr #1

declare i64 @_ZN5views4View30GetKeyboardContextMenuLocationEv(%"class.views::View"*) unnamed_addr #1

declare zeroext i1 @_ZN5views4View14GetDropFormatsEPiPNSt3__13setIN2ui19ClipboardFormatTypeENS2_4lessIS5_EENS2_9allocatorIS5_EEEE(%"class.views::View"*, i32*, %"class.std::__1::set.224"*) unnamed_addr #1

declare zeroext i1 @_ZN5views4View20AreDropTypesRequiredEv(%"class.views::View"*) unnamed_addr #1

declare zeroext i1 @_ZN5views4View7CanDropERKN2ui14OSExchangeDataE(%"class.views::View"*, %"class.ui::OSExchangeData"* dereferenceable(8)) unnamed_addr #1

declare void @_ZN5views4View13OnDragEnteredERKN2ui15DropTargetEventE(%"class.views::View"*, %"class.ui::DropTargetEvent"* dereferenceable(176)) unnamed_addr #1

declare i32 @_ZN5views4View13OnDragUpdatedERKN2ui15DropTargetEventE(%"class.views::View"*, %"class.ui::DropTargetEvent"* dereferenceable(176)) unnamed_addr #1

declare void @_ZN5views4View12OnDragExitedEv(%"class.views::View"*) unnamed_addr #1

declare i32 @_ZN5views4View13OnPerformDropERKN2ui15DropTargetEventE(%"class.views::View"*, %"class.ui::DropTargetEvent"* dereferenceable(176)) unnamed_addr #1

declare void @_ZN5views4View10OnDragDoneEv(%"class.views::View"*) unnamed_addr #1

declare void @_ZN5views4View15GetDropCallbackERKN2ui15DropTargetEventE() unnamed_addr

declare void @_ZN5views7WebView21GetAccessibleNodeDataEPN2ui10AXNodeDataE(%"class.views::WebView"*, %"struct.ui::AXNodeData"*) unnamed_addr #1

declare zeroext i1 @_ZN5views4View22HandleAccessibleActionERKN2ui12AXActionDataE(%"class.views::View"*, %"struct.ui::AXActionData"*) unnamed_addr #1

declare %struct._AtkObject* @_ZN5views7WebView23GetNativeViewAccessibleEv(%"class.views::WebView"*) unnamed_addr #1

declare void @_ZN5views4View20OnAccessibilityEventEN2ax5mojom5EventE(%"class.views::View"*, i32) unnamed_addr #1

declare void @_ZN5views4View19ScrollRectToVisibleERKN3gfx4RectE(%"class.views::View"*, %"class.gfx::Rect"* dereferenceable(16)) unnamed_addr #1

declare i64 @_ZNK5views4View22CalculatePreferredSizeEv(%"class.views::View"*) unnamed_addr #1

declare void @_ZN5views7WebView15OnBoundsChangedERKN3gfx4RectE(%"class.views::WebView"*, %"class.gfx::Rect"* dereferenceable(16)) unnamed_addr #1

; Function Attrs: nounwind ssp uwtable
define linkonce_odr hidden void @_ZN5views4View25ChildPreferredSizeChangedEPS0_(%"class.views::View"*, %"class.views::View"*) unnamed_addr #0 comdat align 2 {
  ret void
}

; Function Attrs: nounwind ssp uwtable
define linkonce_odr hidden void @_ZN5views4View22ChildVisibilityChangedEPS0_(%"class.views::View"*, %"class.views::View"*) unnamed_addr #0 comdat align 2 {
  ret void
}

declare void @_ZN5views4View20PreferredSizeChangedEv(%"class.views::View"*) unnamed_addr #1

declare zeroext i1 @_ZNK5views4View43GetNeedsNotificationWhenVisibleBoundsChangeEv(%"class.views::View"*) unnamed_addr #1

declare void @_ZN5views4View22OnVisibleBoundsChangedEv(%"class.views::View"*) unnamed_addr #1

declare void @_ZN5views7WebView20ViewHierarchyChangedERKNS_27ViewHierarchyChangedDetailsE(%"class.views::WebView"*, %"struct.views::ViewHierarchyChangedDetails"* dereferenceable(32)) unnamed_addr #1

declare void @_ZN5views4View17VisibilityChangedEPS0_b(%"class.views::View"*, %"class.views::View"*, i1 zeroext) unnamed_addr #1

declare void @_ZN5views4View26NativeViewHierarchyChangedEv(%"class.views::View"*) unnamed_addr #1

declare void @_ZN5views7WebView13AddedToWidgetEv(%"class.views::WebView"*) unnamed_addr #1

declare void @_ZN5views4View17RemovedFromWidgetEv(%"class.views::View"*) unnamed_addr #1

declare void @_ZN5views4View18OnDidSchedulePaintERKN3gfx4RectE(%"class.views::View"*, %"class.gfx::Rect"* dereferenceable(16)) unnamed_addr #1

declare void @_ZN5views4View13PaintChildrenERKNS_9PaintInfoE(%"class.views::View"*, %"class.views::PaintInfo"* dereferenceable(88)) unnamed_addr #1

declare void @_ZN5views4View7OnPaintEPN3gfx6CanvasE(%"class.views::View"*, %"class.gfx::Canvas"*) unnamed_addr #1

declare void @_ZN5views4View17OnPaintBackgroundEPN3gfx6CanvasE(%"class.views::View"*, %"class.gfx::Canvas"*) unnamed_addr #1

declare void @_ZN5views4View13OnPaintBorderEPN3gfx6CanvasE(%"class.views::View"*, %"class.gfx::Canvas"*) unnamed_addr #1

declare i32 @_ZNK5views4View17GetPaintScaleTypeEv(%"class.views::View"*) unnamed_addr #1

declare void @_ZN5views4View34CalculateOffsetToAncestorWithLayerEPPN2ui5LayerE(%"class.views::View::LayerOffsetData"* sret, %"class.views::View"*, %"class.ui::Layer"**) unnamed_addr #1

declare void @_ZN5views4View17UpdateParentLayerEv(%"class.views::View"*) unnamed_addr #1

declare void @_ZN5views4View18ReorderChildLayersEPN2ui5LayerE(%"class.views::View"*, %"class.ui::Layer"*) unnamed_addr #1

declare void @_ZN5views4View19OnChildLayerChangedEPS0_(%"class.views::View"*, %"class.views::View"*) unnamed_addr #1

declare %"struct.views::View::DragInfo"* @_ZN5views4View11GetDragInfoEv(%"class.views::View"*) unnamed_addr #1

declare void @_ZN5views7WebView7OnFocusEv(%"class.views::WebView"*) unnamed_addr #1

declare void @_ZN5views4View6OnBlurEv(%"class.views::View"*) unnamed_addr #1

declare void @_ZN5views4View14OnThemeChangedEv(%"class.views::View"*) unnamed_addr #1

declare i32 @_ZN5views4View17GetDragOperationsERKN3gfx5PointE(%"class.views::View"*, %"class.gfx::Point"* dereferenceable(8)) unnamed_addr #1

declare void @_ZN5views4View13WriteDragDataERKN3gfx5PointEPN2ui14OSExchangeDataE(%"class.views::View"*, %"class.gfx::Point"* dereferenceable(8), %"class.ui::OSExchangeData"*) unnamed_addr #1

declare void @_ZN5views4View19AfterPropertyChangeEPKvl(%"class.views::View"*, i8*, i64) unnamed_addr #1

declare void @_ZN5views7WebView21ResizeDueToAutoResizeEPN7content11WebContentsERKN3gfx4SizeE(%"class.views::WebView"*, %"class.content::WebContents"*, %"class.gfx::Size"* dereferenceable(8)) unnamed_addr #1

; Function Attrs: nounwind ssp uwtable
define linkonce_odr hidden void @_ZN5views7WebView21OnWebContentsAttachedEv(%"class.views::WebView"*) unnamed_addr #0 comdat align 2 {
  ret void
}

; Function Attrs: nounwind ssp uwtable
define linkonce_odr hidden void @_ZN5views7WebView21OnLetterboxingChangedEv(%"class.views::WebView"*) unnamed_addr #0 comdat align 2 {
  ret void
}

declare void @_ZN5views7WebView18RenderFrameCreatedEPN7content15RenderFrameHostE(%"class.views::WebView"*, %"class.content::RenderFrameHost"*) unnamed_addr #1

declare void @_ZN5views7WebView18RenderFrameDeletedEPN7content15RenderFrameHostE(%"class.views::WebView"*, %"class.content::RenderFrameHost"*) unnamed_addr #1

declare void @_ZN5views7WebView22RenderFrameHostChangedEPN7content15RenderFrameHostES3_(%"class.views::WebView"*, %"class.content::RenderFrameHost"*, %"class.content::RenderFrameHost"*) unnamed_addr #1

declare void @_ZN5views7WebView29DidToggleFullscreenModeForTabEbb(%"class.views::WebView"*, i1 zeroext, i1 zeroext) unnamed_addr #1

; Function Attrs: nounwind ssp uwtable
define linkonce_odr hidden void @_ZN5views7WebView18OnChannelConnectedEi(%"class.views::WebView"*, i32) unnamed_addr #0 comdat align 2 {
  ret void
}

; Function Attrs: nounwind ssp uwtable
define linkonce_odr hidden void @_ZN5views7WebView14OnChannelErrorEv(%"class.views::WebView"*) unnamed_addr #0 comdat align 2 {
  ret void
}

; Function Attrs: nounwind ssp uwtable
define linkonce_odr hidden void @_ZN5views7WebView20OnBadMessageReceivedERKN3IPC7MessageE(%"class.views::WebView"*, %"class.IPC::Message"* dereferenceable(56)) unnamed_addr #0 comdat align 2 {
  ret void
}

declare void @_ZN5views7WebView20OnWebContentsFocusedEPN7content16RenderWidgetHostE(%"class.views::WebView"*, %"class.content::RenderWidgetHost"*) unnamed_addr #1

declare void @_ZN5views7WebView30AXTreeIDForMainFrameHasChangedEv(%"class.views::WebView"*) unnamed_addr #1

declare void @_ZN5views7WebView13OnAXModeAddedEN2ui6AXModeE(%"class.views::WebView"*, i32) unnamed_addr #1

; Function Attrs: nounwind ssp uwtable
declare void @_ZThn8_N5views4View14LayerDestroyedEPN2ui5LayerE(%"class.views::View"*, %"class.ui::Layer"*) unnamed_addr #0 align 2

; Function Attrs: nounwind ssp uwtable
define linkonce_odr hidden void @_ZThn8_N21WebUIOmniboxPopupViewD1Ev(%class.WebUIOmniboxPopupView*) unnamed_addr #0 comdat align 2 {
  %2 = getelementptr inbounds %class.WebUIOmniboxPopupView, %class.WebUIOmniboxPopupView* %0, i64 -1, i32 0, i32 16, i32 1
  %3 = bitcast i32* %2 to %"class.views::WebView"*
  tail call void @_ZN5views7WebViewD2Ev(%"class.views::WebView"* %3) #9
  ret void
}

; Function Attrs: nounwind ssp uwtable
define linkonce_odr hidden void @_ZThn8_N21WebUIOmniboxPopupViewD0Ev(%class.WebUIOmniboxPopupView*) unnamed_addr #0 comdat align 2 {
  %2 = getelementptr inbounds %class.WebUIOmniboxPopupView, %class.WebUIOmniboxPopupView* %0, i64 -1, i32 0, i32 16, i32 1
  %3 = bitcast i32* %2 to %"class.views::WebView"*
  tail call void @_ZN5views7WebViewD2Ev(%"class.views::WebView"* %3) #9
  %4 = bitcast i32* %2 to i8*
  tail call void @_ZdlPv(i8* %4) #10
  ret void
}

; Function Attrs: nounwind ssp uwtable
define linkonce_odr hidden void @_ZThn16_N21WebUIOmniboxPopupViewD1Ev(%class.WebUIOmniboxPopupView*) unnamed_addr #0 comdat align 2 {
  %2 = getelementptr inbounds %class.WebUIOmniboxPopupView, %class.WebUIOmniboxPopupView* %0, i64 -1, i32 0, i32 15, i32 1
  %3 = bitcast i32* %2 to %"class.views::WebView"*
  tail call void @_ZN5views7WebViewD2Ev(%"class.views::WebView"* %3) #9
  ret void
}

; Function Attrs: nounwind ssp uwtable
define linkonce_odr hidden void @_ZThn16_N21WebUIOmniboxPopupViewD0Ev(%class.WebUIOmniboxPopupView*) unnamed_addr #0 comdat align 2 {
  %2 = getelementptr inbounds %class.WebUIOmniboxPopupView, %class.WebUIOmniboxPopupView* %0, i64 -1, i32 0, i32 15, i32 1
  %3 = bitcast i32* %2 to %"class.views::WebView"*
  tail call void @_ZN5views7WebViewD2Ev(%"class.views::WebView"* %3) #9
  %4 = bitcast i32* %2 to i8*
  tail call void @_ZdlPv(i8* %4) #10
  ret void
}

declare %"class.ui::Layer"* @_ZN2ui10LayerOwner12ReleaseLayerEv(%"class.ui::LayerOwner"*) unnamed_addr #1

; Function Attrs: nounwind ssp uwtable
declare %"class.ui::Layer"* @_ZThn16_N5views4View13RecreateLayerEv(%"class.views::View"*) unnamed_addr #0 align 2

; Function Attrs: argmemonly nounwind
declare void @llvm.memcpy.p0i8.p0i8.i64(i8* nocapture writeonly, i8* nocapture readonly, i64, i1 immarg) #2

declare void @_ZN2ui10LayerOwner8SetLayerENSt3__110unique_ptrINS_5LayerENS1_14default_deleteIS3_EEEE(%"class.ui::LayerOwner"*, %"class.ui::Layer"*) unnamed_addr #1

; Function Attrs: nounwind ssp uwtable
declare zeroext i1 @_ZThn96_N5views4View18AcceleratorPressedERKN2ui11AcceleratorE(%"class.views::View"*, %"class.ui::Accelerator"* dereferenceable(32)) unnamed_addr #0 align 2

; Function Attrs: nounwind ssp uwtable
declare zeroext i1 @_ZThn96_NK5views4View21CanHandleAcceleratorsEv(%"class.views::View"*) unnamed_addr #0 align 2

; Function Attrs: nounwind ssp uwtable
define linkonce_odr hidden void @_ZThn96_N21WebUIOmniboxPopupViewD1Ev(%class.WebUIOmniboxPopupView*) unnamed_addr #0 comdat align 2 {
  %2 = getelementptr inbounds %class.WebUIOmniboxPopupView, %class.WebUIOmniboxPopupView* %0, i64 -1, i32 0, i32 3
  %3 = bitcast %"class.content::WebContentsObserver"* %2 to %"class.views::WebView"*
  tail call void @_ZN5views7WebViewD2Ev(%"class.views::WebView"* %3) #9
  ret void
}

; Function Attrs: nounwind ssp uwtable
define linkonce_odr hidden void @_ZThn96_N21WebUIOmniboxPopupViewD0Ev(%class.WebUIOmniboxPopupView*) unnamed_addr #0 comdat align 2 {
  %2 = getelementptr inbounds %class.WebUIOmniboxPopupView, %class.WebUIOmniboxPopupView* %0, i64 -1, i32 0, i32 3
  %3 = bitcast %"class.content::WebContentsObserver"* %2 to %"class.views::WebView"*
  tail call void @_ZN5views7WebViewD2Ev(%"class.views::WebView"* %3) #9
  %4 = bitcast %"class.content::WebContentsObserver"* %2 to i8*
  tail call void @_ZdlPv(i8* %4) #10
  ret void
}

; Function Attrs: nounwind ssp uwtable
define linkonce_odr hidden void @_ZThn104_N21WebUIOmniboxPopupViewD1Ev(%class.WebUIOmniboxPopupView*) unnamed_addr #0 comdat align 2 {
  %2 = getelementptr inbounds %class.WebUIOmniboxPopupView, %class.WebUIOmniboxPopupView* %0, i64 -1, i32 0, i32 2, i32 1, i32 0, i32 2
  %3 = bitcast %"class.std::__1::__compressed_pair.135"* %2 to %"class.views::WebView"*
  tail call void @_ZN5views7WebViewD2Ev(%"class.views::WebView"* %3) #9
  ret void
}

; Function Attrs: nounwind ssp uwtable
define linkonce_odr hidden void @_ZThn104_N21WebUIOmniboxPopupViewD0Ev(%class.WebUIOmniboxPopupView*) unnamed_addr #0 comdat align 2 {
  %2 = getelementptr inbounds %class.WebUIOmniboxPopupView, %class.WebUIOmniboxPopupView* %0, i64 -1, i32 0, i32 2, i32 1, i32 0, i32 2
  %3 = bitcast %"class.std::__1::__compressed_pair.135"* %2 to %"class.views::WebView"*
  tail call void @_ZN5views7WebViewD2Ev(%"class.views::WebView"* %3) #9
  %4 = bitcast %"class.std::__1::__compressed_pair.135"* %2 to i8*
  tail call void @_ZdlPv(i8* %4) #10
  ret void
}

; Function Attrs: nounwind ssp uwtable
declare zeroext i1 @_ZThn104_N5views4View14CanAcceptEventERKN2ui5EventE(%"class.views::View"*, %"class.ui::Event"* dereferenceable(144)) unnamed_addr #0 align 2

; Function Attrs: nounwind ssp uwtable
declare %"class.ui::EventTarget"* @_ZThn104_N5views4View15GetParentTargetEv(%"class.views::View"*) unnamed_addr #0 align 2

declare void @_ZThn104_NK5views4View16GetChildIteratorEv() unnamed_addr

; Function Attrs: nounwind ssp uwtable
declare %"class.ui::EventTargeter"* @_ZThn104_N5views4View16GetEventTargeterEv(%"class.views::View"*) unnamed_addr #0 align 2

; Function Attrs: nounwind ssp uwtable
declare void @_ZThn104_NK5views4View20ConvertEventToTargetEPKN2ui11EventTargetEPNS1_12LocatedEventE(%"class.views::View"*, %"class.ui::EventTarget"*, %"class.ui::LocatedEvent"*) unnamed_addr #0 align 2

; Function Attrs: nounwind ssp uwtable
declare <2 x float> @_ZThn104_NK5views4View18GetScreenLocationFERKN2ui12LocatedEventE(%"class.views::View"*, %"class.ui::LocatedEvent"* dereferenceable(160)) unnamed_addr #6 align 2

; Function Attrs: nounwind ssp uwtable
define linkonce_odr hidden void @_ZThn168_N21WebUIOmniboxPopupViewD1Ev(%class.WebUIOmniboxPopupView*) unnamed_addr #0 comdat align 2 {
  %2 = getelementptr inbounds %class.WebUIOmniboxPopupView, %class.WebUIOmniboxPopupView* %0, i64 -1, i32 0, i32 0, i32 56, i32 1
  %3 = bitcast %"class.base::LinkedList.127"* %2 to %"class.views::WebView"*
  tail call void @_ZN5views7WebViewD2Ev(%"class.views::WebView"* %3) #9
  ret void
}

; Function Attrs: nounwind ssp uwtable
define linkonce_odr hidden void @_ZThn168_N21WebUIOmniboxPopupViewD0Ev(%class.WebUIOmniboxPopupView*) unnamed_addr #0 comdat align 2 {
  %2 = getelementptr inbounds %class.WebUIOmniboxPopupView, %class.WebUIOmniboxPopupView* %0, i64 -1, i32 0, i32 0, i32 56, i32 1
  %3 = bitcast %"class.base::LinkedList.127"* %2 to %"class.views::WebView"*
  tail call void @_ZN5views7WebViewD2Ev(%"class.views::WebView"* %3) #9
  %4 = bitcast %"class.base::LinkedList.127"* %2 to i8*
  tail call void @_ZdlPv(i8* %4) #10
  ret void
}

declare void @_ZN2ui12EventHandler7OnEventEPNS_5EventE(%"class.ui::EventHandler"*, %"class.ui::Event"*) unnamed_addr #1

; Function Attrs: nounwind ssp uwtable
declare void @_ZThn168_N5views4View10OnKeyEventEPN2ui8KeyEventE(%"class.views::View"*, %"class.ui::KeyEvent"*) unnamed_addr #0 align 2

; Function Attrs: nounwind ssp uwtable
declare void @_ZThn168_N5views4View12OnMouseEventEPN2ui10MouseEventE(%"class.views::View"*, %"class.ui::MouseEvent"*) unnamed_addr #0 align 2

; Function Attrs: nounwind ssp uwtable
declare void @_ZThn168_N5views4View13OnScrollEventEPN2ui11ScrollEventE(%"class.views::View"*, %"class.ui::ScrollEvent"*) unnamed_addr #0 align 2

; Function Attrs: nounwind ssp uwtable
declare void @_ZThn168_N5views4View12OnTouchEventEPN2ui10TouchEventE(%"class.views::View"*, %"class.ui::TouchEvent"*) unnamed_addr #0 align 2

; Function Attrs: nounwind ssp uwtable
declare void @_ZThn168_N5views4View14OnGestureEventEPN2ui12GestureEventE(%"class.views::View"*, %"class.ui::GestureEvent"*) unnamed_addr #0 align 2

declare void @_ZN2ui12EventHandler12OnCancelModeEPNS_15CancelModeEventE(%"class.ui::EventHandler"*, %"class.ui::CancelModeEvent"*) unnamed_addr #1

; Function Attrs: nounwind ssp uwtable
declare { i8*, i64 } @_ZThn168_NK5views4View13GetLogContextEv(%"class.views::View"*) unnamed_addr #0 align 2

; Function Attrs: nounwind ssp uwtable
define linkonce_odr hidden void @_ZThn208_N21WebUIOmniboxPopupViewD1Ev(%class.WebUIOmniboxPopupView*) unnamed_addr #0 comdat align 2 {
  %2 = getelementptr inbounds %class.WebUIOmniboxPopupView, %class.WebUIOmniboxPopupView* %0, i64 -1, i32 0, i32 0, i32 54
  %3 = bitcast %"class.std::__1::unique_ptr.114"* %2 to %"class.views::WebView"*
  tail call void @_ZN5views7WebViewD2Ev(%"class.views::WebView"* %3) #9
  ret void
}

; Function Attrs: nounwind ssp uwtable
define linkonce_odr hidden void @_ZThn208_N21WebUIOmniboxPopupViewD0Ev(%class.WebUIOmniboxPopupView*) unnamed_addr #0 comdat align 2 {
  %2 = getelementptr inbounds %class.WebUIOmniboxPopupView, %class.WebUIOmniboxPopupView* %0, i64 -1, i32 0, i32 0, i32 54
  %3 = bitcast %"class.std::__1::unique_ptr.114"* %2 to %"class.views::WebView"*
  tail call void @_ZN5views7WebViewD2Ev(%"class.views::WebView"* %3) #9
  %4 = bitcast %"class.std::__1::unique_ptr.114"* %2 to i8*
  tail call void @_ZdlPv(i8* %4) #10
  ret void
}

; Function Attrs: nounwind ssp uwtable
declare void @_ZThn208_N5views4View19AfterPropertyChangeEPKvl(%"class.views::View"*, i8*, i64) unnamed_addr #0 align 2

; Function Attrs: nounwind ssp uwtable
define linkonce_odr hidden void @_ZThn240_N21WebUIOmniboxPopupViewD1Ev(%class.WebUIOmniboxPopupView*) unnamed_addr #0 comdat align 2 {
  %2 = getelementptr inbounds %class.WebUIOmniboxPopupView, %class.WebUIOmniboxPopupView* %0, i64 -1, i32 0, i32 0, i32 49
  %3 = bitcast %"class.views::View"** %2 to %"class.views::WebView"*
  tail call void @_ZN5views7WebViewD2Ev(%"class.views::WebView"* %3) #9
  ret void
}

; Function Attrs: nounwind ssp uwtable
define linkonce_odr hidden void @_ZThn240_N21WebUIOmniboxPopupViewD0Ev(%class.WebUIOmniboxPopupView*) unnamed_addr #0 comdat align 2 {
  %2 = getelementptr inbounds %class.WebUIOmniboxPopupView, %class.WebUIOmniboxPopupView* %0, i64 -1, i32 0, i32 0, i32 49
  %3 = bitcast %"class.views::View"** %2 to %"class.views::WebView"*
  tail call void @_ZN5views7WebViewD2Ev(%"class.views::WebView"* %3) #9
  %4 = bitcast %"class.views::View"** %2 to i8*
  tail call void @_ZdlPv(i8* %4) #10
  ret void
}

declare %"class.content::WebContents"* @_ZN7content19WebContentsDelegate14OpenURLFromTabEPNS_11WebContentsERKNS_13OpenURLParamsE(%"class.content::WebContentsDelegate"*, %"class.content::WebContents"*, %"struct.content::OpenURLParams"* dereferenceable(720)) unnamed_addr #1

declare zeroext i1 @_ZN7content19WebContentsDelegate24ShouldTransferNavigationEb(%"class.content::WebContentsDelegate"*, i1 zeroext) unnamed_addr #1

; Function Attrs: nounwind ssp uwtable
define linkonce_odr hidden void @_ZN7content19WebContentsDelegate22NavigationStateChangedEPNS_11WebContentsENS_15InvalidateTypesE(%"class.content::WebContentsDelegate"*, %"class.content::WebContents"*, i32) unnamed_addr #0 comdat align 2 {
  ret void
}

; Function Attrs: nounwind ssp uwtable
define linkonce_odr hidden void @_ZN7content19WebContentsDelegate27VisibleSecurityStateChangedEPNS_11WebContentsE(%"class.content::WebContentsDelegate"*, %"class.content::WebContents"*) unnamed_addr #0 comdat align 2 {
  ret void
}

; Function Attrs: nounwind ssp uwtable
define linkonce_odr hidden void @_ZN7content19WebContentsDelegate14AddNewContentsEPNS_11WebContentsENSt3__110unique_ptrIS1_NS3_14default_deleteIS1_EEEERK4GURL21WindowOpenDispositionRKN3gfx4RectEbPb(%"class.content::WebContentsDelegate"*, %"class.content::WebContents"*, %"class.content::WebContents"*, %class.GURL* dereferenceable(120), i32, %"class.gfx::Rect"* dereferenceable(16), i1 zeroext, i8*) unnamed_addr #0 comdat align 2 {
  %9 = icmp eq %"class.content::WebContents"* %2, null
  br i1 %9, label %15, label %10

10:                                               ; preds = %8
  %11 = bitcast %"class.content::WebContents"* %2 to void (%"class.content::WebContents"*)***
  %12 = load void (%"class.content::WebContents"*)**, void (%"class.content::WebContents"*)*** %11, align 8
  %13 = getelementptr inbounds void (%"class.content::WebContents"*)*, void (%"class.content::WebContents"*)** %12, i64 1
  %14 = load void (%"class.content::WebContents"*)*, void (%"class.content::WebContents"*)** %13, align 8
  tail call void %14(%"class.content::WebContents"* nonnull %2) #9
  br label %15

15:                                               ; preds = %8, %10
  ret void
}

; Function Attrs: nounwind ssp uwtable
define linkonce_odr hidden void @_ZN7content19WebContentsDelegate16ActivateContentsEPNS_11WebContentsE(%"class.content::WebContentsDelegate"*, %"class.content::WebContents"*) unnamed_addr #0 comdat align 2 {
  ret void
}

; Function Attrs: nounwind ssp uwtable
define linkonce_odr hidden void @_ZN7content19WebContentsDelegate19LoadingStateChangedEPNS_11WebContentsEb(%"class.content::WebContentsDelegate"*, %"class.content::WebContents"*, i1 zeroext) unnamed_addr #0 comdat align 2 {
  ret void
}

; Function Attrs: nounwind ssp uwtable
define linkonce_odr hidden void @_ZN7content19WebContentsDelegate13CloseContentsEPNS_11WebContentsE(%"class.content::WebContentsDelegate"*, %"class.content::WebContents"*) unnamed_addr #0 comdat align 2 {
  ret void
}

; Function Attrs: nounwind ssp uwtable
define linkonce_odr hidden void @_ZN7content19WebContentsDelegate17SetContentsBoundsEPNS_11WebContentsERKN3gfx4RectE(%"class.content::WebContentsDelegate"*, %"class.content::WebContents"*, %"class.gfx::Rect"* dereferenceable(16)) unnamed_addr #0 comdat align 2 {
  ret void
}

; Function Attrs: nounwind ssp uwtable
define linkonce_odr hidden void @_ZN7content19WebContentsDelegate15UpdateTargetURLEPNS_11WebContentsERK4GURL(%"class.content::WebContentsDelegate"*, %"class.content::WebContents"*, %class.GURL* dereferenceable(120)) unnamed_addr #0 comdat align 2 {
  ret void
}

; Function Attrs: nounwind ssp uwtable
define linkonce_odr hidden void @_ZN7content19WebContentsDelegate18ContentsMouseEventEPNS_11WebContentsEbb(%"class.content::WebContentsDelegate"*, %"class.content::WebContents"*, i1 zeroext, i1 zeroext) unnamed_addr #0 comdat align 2 {
  ret void
}

; Function Attrs: nounwind ssp uwtable
define linkonce_odr hidden void @_ZN7content19WebContentsDelegate18ContentsZoomChangeEb(%"class.content::WebContentsDelegate"*, i1 zeroext) unnamed_addr #0 comdat align 2 {
  ret void
}

declare zeroext i1 @_ZN7content19WebContentsDelegate20CanOverscrollContentEv(%"class.content::WebContentsDelegate"*) unnamed_addr #1

; Function Attrs: nounwind ssp uwtable
define linkonce_odr hidden void @_ZN7content19WebContentsDelegate26WillRunBeforeUnloadConfirmEv(%"class.content::WebContentsDelegate"*) unnamed_addr #0 comdat align 2 {
  ret void
}

declare zeroext i1 @_ZN7content19WebContentsDelegate21ShouldSuppressDialogsEPNS_11WebContentsE(%"class.content::WebContentsDelegate"*, %"class.content::WebContents"*) unnamed_addr #1

declare zeroext i1 @_ZN7content19WebContentsDelegate25ShouldPreserveAbortedURLsEPNS_11WebContentsE(%"class.content::WebContentsDelegate"*, %"class.content::WebContents"*) unnamed_addr #1

declare zeroext i1 @_ZN7content19WebContentsDelegate22DidAddMessageToConsoleEPNS_11WebContentsEN5blink5mojom19ConsoleMessageLevelERKNSt3__112basic_stringIDsNS6_11char_traitsIDsEENS6_9allocatorIDsEEEEiSE_(%"class.content::WebContentsDelegate"*, %"class.content::WebContents"*, i32, %"class.std::__1::basic_string.215"* dereferenceable(24), i32, %"class.std::__1::basic_string.215"* dereferenceable(24)) unnamed_addr #1

declare void @_ZN7content19WebContentsDelegate17BeforeUnloadFiredEPNS_11WebContentsEbPb(%"class.content::WebContentsDelegate"*, %"class.content::WebContents"*, i1 zeroext, i8*) unnamed_addr #1

declare zeroext i1 @_ZN7content19WebContentsDelegate31ShouldFocusLocationBarByDefaultEPNS_11WebContentsE(%"class.content::WebContentsDelegate"*, %"class.content::WebContents"*) unnamed_addr #1

; Function Attrs: nounwind ssp uwtable
define linkonce_odr hidden void @_ZN7content19WebContentsDelegate21SetFocusToLocationBarEv(%"class.content::WebContentsDelegate"*) unnamed_addr #0 comdat align 2 {
  ret void
}

declare zeroext i1 @_ZN7content19WebContentsDelegate25ShouldFocusPageAfterCrashEv(%"class.content::WebContentsDelegate"*) unnamed_addr #1

declare zeroext i1 @_ZN7content19WebContentsDelegate36ShouldResumeRequestsForCreatedWindowEv(%"class.content::WebContentsDelegate"*) unnamed_addr #1

declare zeroext i1 @_ZN7content19WebContentsDelegate9TakeFocusEPNS_11WebContentsEb(%"class.content::WebContentsDelegate"*, %"class.content::WebContents"*, i1 zeroext) unnamed_addr #1

; Function Attrs: nounwind ssp uwtable
define linkonce_odr hidden void @_ZN7content19WebContentsDelegate11LostCaptureEv(%"class.content::WebContentsDelegate"*) unnamed_addr #0 comdat align 2 {
  ret void
}

declare void @_ZN7content19WebContentsDelegate11CanDownloadERK4GURLRKNSt3__112basic_stringIcNS4_11char_traitsIcEENS4_9allocatorIcEEEEN4base12OnceCallbackIFvbEEE() unnamed_addr

declare zeroext i1 @_ZN7content19WebContentsDelegate17HandleContextMenuEPNS_15RenderFrameHostERKNS_17ContextMenuParamsE(%"class.content::WebContentsDelegate"*, %"class.content::RenderFrameHost"*, %"struct.content::ContextMenuParams"*) unnamed_addr #1

declare i32 @_ZN7content19WebContentsDelegate22PreHandleKeyboardEventEPNS_11WebContentsERKNS_22NativeWebKeyboardEventE(%"class.content::WebContentsDelegate"*, %"class.content::WebContents"*, %"struct.content::NativeWebKeyboardEvent"*) unnamed_addr #1

declare zeroext i1 @_ZN7content19WebContentsDelegate19HandleKeyboardEventEPNS_11WebContentsERKNS_22NativeWebKeyboardEventE(%"class.content::WebContentsDelegate"*, %"class.content::WebContents"*, %"struct.content::NativeWebKeyboardEvent"*) unnamed_addr #1

declare zeroext i1 @_ZN7content19WebContentsDelegate21PreHandleGestureEventEPNS_11WebContentsERKN5blink15WebGestureEventE(%"class.content::WebContentsDelegate"*, %"class.content::WebContents"*, %"class.blink::WebGestureEvent"*) unnamed_addr #1

declare zeroext i1 @_ZN7content19WebContentsDelegate12CanDragEnterEPNS_11WebContentsERKNS_8DropDataEN5blink18DragOperationsMaskE(%"class.content::WebContentsDelegate"*, %"class.content::WebContents"*, %"struct.content::DropData"*, i32) unnamed_addr #1

; Function Attrs: nounwind ssp uwtable
define linkonce_odr hidden void @_ZN7content19WebContentsDelegate27ShowRepostFormWarningDialogEPNS_11WebContentsE(%"class.content::WebContentsDelegate"*, %"class.content::WebContents"*) unnamed_addr #0 comdat align 2 {
  ret void
}

declare zeroext i1 @_ZN7content19WebContentsDelegate17OnGoToEntryOffsetEi(%"class.content::WebContentsDelegate"*, i32) unnamed_addr #1

declare zeroext i1 @_ZN7content19WebContentsDelegate31IsWebContentsCreationOverriddenEPNS_12SiteInstanceENS_5mojom19WindowContainerTypeERK4GURLRKNSt3__112basic_stringIcNS8_11char_traitsIcEENS8_9allocatorIcEEEES7_(%"class.content::WebContentsDelegate"*, %"class.content::SiteInstance"*, i32, %class.GURL* dereferenceable(120), %"class.std::__1::basic_string"* dereferenceable(24), %class.GURL* dereferenceable(120)) unnamed_addr #1

declare %"class.content::WebContents"* @_ZN7content19WebContentsDelegate23CreateCustomWebContentsEPNS_15RenderFrameHostEPNS_12SiteInstanceEbRK4GURLRKNSt3__112basic_stringIcNS8_11char_traitsIcEENS8_9allocatorIcEEEES7_RKNS_18StoragePartitionIdEPNS_23SessionStorageNamespaceE(%"class.content::WebContentsDelegate"*, %"class.content::RenderFrameHost"*, %"class.content::SiteInstance"*, i1 zeroext, %class.GURL* dereferenceable(120), %"class.std::__1::basic_string"* dereferenceable(24), %class.GURL* dereferenceable(120), %"class.content::StoragePartitionId"* dereferenceable(80), %"class.content::SessionStorageNamespace"*) unnamed_addr #1

; Function Attrs: nounwind ssp uwtable
define linkonce_odr hidden void @_ZN7content19WebContentsDelegate18WebContentsCreatedEPNS_11WebContentsEiiRKNSt3__112basic_stringIcNS3_11char_traitsIcEENS3_9allocatorIcEEEERK4GURLS2_(%"class.content::WebContentsDelegate"*, %"class.content::WebContents"*, i32, i32, %"class.std::__1::basic_string"* dereferenceable(24), %class.GURL* dereferenceable(120), %"class.content::WebContents"*) unnamed_addr #0 comdat align 2 {
  ret void
}

; Function Attrs: nounwind ssp uwtable
define linkonce_odr hidden void @_ZN7content19WebContentsDelegate24PortalWebContentsCreatedEPNS_11WebContentsE(%"class.content::WebContentsDelegate"*, %"class.content::WebContents"*) unnamed_addr #0 comdat align 2 {
  ret void
}

; Function Attrs: nounwind ssp uwtable
define linkonce_odr hidden void @_ZN7content19WebContentsDelegate23WebContentsBecamePortalEPNS_11WebContentsE(%"class.content::WebContentsDelegate"*, %"class.content::WebContents"*) unnamed_addr #0 comdat align 2 {
  ret void
}

; Function Attrs: nounwind ssp uwtable
define linkonce_odr hidden void @_ZN7content19WebContentsDelegate20RendererUnresponsiveEPNS_11WebContentsEPNS_16RenderWidgetHostEN4base17RepeatingCallbackIFvvEEE(%"class.content::WebContentsDelegate"*, %"class.content::WebContents"*, %"class.content::RenderWidgetHost"*, %"class.base::RepeatingCallback"*) unnamed_addr #0 comdat align 2 {
  ret void
}

; Function Attrs: nounwind ssp uwtable
define linkonce_odr hidden void @_ZN7content19WebContentsDelegate18RendererResponsiveEPNS_11WebContentsEPNS_16RenderWidgetHostE(%"class.content::WebContentsDelegate"*, %"class.content::WebContents"*, %"class.content::RenderWidgetHost"*) unnamed_addr #0 comdat align 2 {
  ret void
}

; Function Attrs: nounwind ssp uwtable
define linkonce_odr hidden void @_ZN7content19WebContentsDelegate30DidNavigateMainFramePostCommitEPNS_11WebContentsE(%"class.content::WebContentsDelegate"*, %"class.content::WebContents"*) unnamed_addr #0 comdat align 2 {
  ret void
}

declare %"class.content::JavaScriptDialogManager"* @_ZN7content19WebContentsDelegate26GetJavaScriptDialogManagerEPNS_11WebContentsE(%"class.content::WebContentsDelegate"*, %"class.content::WebContents"*) unnamed_addr #1

declare %"class.content::ColorChooser"* @_ZN7content19WebContentsDelegate16OpenColorChooserEPNS_11WebContentsEjRKNSt3__16vectorIN4mojo16InlinedStructPtrIN5blink5mojom15ColorSuggestionEEENS3_9allocatorISA_EEEE(%"class.content::WebContentsDelegate"*, %"class.content::WebContents"*, i32, %"class.std::__1::vector.291"*) unnamed_addr #1

declare void @_ZN7content19WebContentsDelegate14OpenEyeDropperEPNS_15RenderFrameHostEPNS_18EyeDropperListenerE() unnamed_addr

declare void @_ZN7content19WebContentsDelegate14RunFileChooserEPNS_15RenderFrameHostE13scoped_refptrINS_18FileSelectListenerEERKN5blink5mojom17FileChooserParamsE() unnamed_addr

declare void @_ZN7content19WebContentsDelegate18EnumerateDirectoryEPNS_11WebContentsE13scoped_refptrINS_18FileSelectListenerEERKN4base8FilePathE() unnamed_addr

declare void @_ZN7content19WebContentsDelegate15CreateSmsPromptEPNS_15RenderFrameHostERKNSt3__16vectorIN3url6OriginENS3_9allocatorIS6_EEEERKNS3_12basic_stringIcNS3_11char_traitsIcEENS7_IcEEEEN4base12OnceCallbackIFvvEEESM_(%"class.content::WebContentsDelegate"*, %"class.content::RenderFrameHost"*, %"class.std::__1::vector.292"* dereferenceable(24), %"class.std::__1::basic_string"* dereferenceable(24), %"class.base::OnceCallback"*, %"class.base::OnceCallback"*) unnamed_addr #1

; Function Attrs: nounwind ssp uwtable
define linkonce_odr hidden void @_ZN7content19WebContentsDelegate25EnterFullscreenModeForTabEPNS_15RenderFrameHostERKN5blink5mojom17FullscreenOptionsE(%"class.content::WebContentsDelegate"*, %"class.content::RenderFrameHost"*, %"class.blink::mojom::FullscreenOptions"*) unnamed_addr #0 comdat align 2 {
  ret void
}

; Function Attrs: nounwind ssp uwtable
define linkonce_odr hidden void @_ZN7content19WebContentsDelegate28FullscreenStateChangedForTabEPNS_15RenderFrameHostERKN5blink5mojom17FullscreenOptionsE(%"class.content::WebContentsDelegate"*, %"class.content::RenderFrameHost"*, %"class.blink::mojom::FullscreenOptions"*) unnamed_addr #0 comdat align 2 {
  ret void
}

; Function Attrs: nounwind ssp uwtable
define linkonce_odr hidden void @_ZN7content19WebContentsDelegate24ExitFullscreenModeForTabEPNS_11WebContentsE(%"class.content::WebContentsDelegate"*, %"class.content::WebContents"*) unnamed_addr #0 comdat align 2 {
  ret void
}

declare zeroext i1 @_ZN7content19WebContentsDelegate27IsFullscreenForTabOrPendingEPKNS_11WebContentsE(%"class.content::WebContentsDelegate"*, %"class.content::WebContents"*) unnamed_addr #1

declare i32 @_ZN7content19WebContentsDelegate14GetDisplayModeEPKNS_11WebContentsE(%"class.content::WebContentsDelegate"*, %"class.content::WebContents"*) unnamed_addr #1

declare i32 @_ZN7content19WebContentsDelegate31GetProtocolHandlerSecurityLevelEPNS_15RenderFrameHostE(%"class.content::WebContentsDelegate"*, %"class.content::RenderFrameHost"*) unnamed_addr #1

; Function Attrs: nounwind ssp uwtable
define linkonce_odr hidden void @_ZN7content19WebContentsDelegate23RegisterProtocolHandlerEPNS_15RenderFrameHostERKNSt3__112basic_stringIcNS3_11char_traitsIcEENS3_9allocatorIcEEEERK4GURLb(%"class.content::WebContentsDelegate"*, %"class.content::RenderFrameHost"*, %"class.std::__1::basic_string"* dereferenceable(24), %class.GURL* dereferenceable(120), i1 zeroext) unnamed_addr #0 comdat align 2 {
  ret void
}

; Function Attrs: nounwind ssp uwtable
define linkonce_odr hidden void @_ZN7content19WebContentsDelegate25UnregisterProtocolHandlerEPNS_15RenderFrameHostERKNSt3__112basic_stringIcNS3_11char_traitsIcEENS3_9allocatorIcEEEERK4GURLb(%"class.content::WebContentsDelegate"*, %"class.content::RenderFrameHost"*, %"class.std::__1::basic_string"* dereferenceable(24), %class.GURL* dereferenceable(120), i1 zeroext) unnamed_addr #0 comdat align 2 {
  ret void
}

; Function Attrs: nounwind ssp uwtable
define linkonce_odr hidden void @_ZN7content19WebContentsDelegate9FindReplyEPNS_11WebContentsEiiRKN3gfx4RectEib(%"class.content::WebContentsDelegate"*, %"class.content::WebContents"*, i32, i32, %"class.gfx::Rect"* dereferenceable(16), i32, i1 zeroext) unnamed_addr #0 comdat align 2 {
  ret void
}

; Function Attrs: nounwind ssp uwtable
define linkonce_odr hidden void @_ZN7content19WebContentsDelegate19UpdatePreferredSizeEPNS_11WebContentsERKN3gfx4SizeE(%"class.content::WebContentsDelegate"*, %"class.content::WebContents"*, %"class.gfx::Size"* dereferenceable(8)) unnamed_addr #0 comdat align 2 {
  ret void
}

; Function Attrs: nounwind ssp uwtable
declare void @_ZThn664_N5views7WebView21ResizeDueToAutoResizeEPN7content11WebContentsERKN3gfx4SizeE(%"class.views::WebView"*, %"class.content::WebContents"*, %"class.gfx::Size"* dereferenceable(8)) unnamed_addr #0 align 2

declare void @_ZN7content19WebContentsDelegate18RequestToLockMouseEPNS_11WebContentsEbb(%"class.content::WebContentsDelegate"*, %"class.content::WebContents"*, i1 zeroext, i1 zeroext) unnamed_addr #1

; Function Attrs: nounwind ssp uwtable
define linkonce_odr hidden void @_ZN7content19WebContentsDelegate13LostMouseLockEv(%"class.content::WebContentsDelegate"*) unnamed_addr #0 comdat align 2 {
  ret void
}

declare void @_ZN7content19WebContentsDelegate19RequestKeyboardLockEPNS_11WebContentsEb(%"class.content::WebContentsDelegate"*, %"class.content::WebContents"*, i1 zeroext) unnamed_addr #1

; Function Attrs: nounwind ssp uwtable
define linkonce_odr hidden void @_ZN7content19WebContentsDelegate25CancelKeyboardLockRequestEPNS_11WebContentsE(%"class.content::WebContentsDelegate"*, %"class.content::WebContents"*) unnamed_addr #0 comdat align 2 {
  ret void
}

declare void @_ZN7content19WebContentsDelegate28RequestMediaAccessPermissionEPNS_11WebContentsERKNS_18MediaStreamRequestEN4base12OnceCallbackIFvRKNSt3__16vectorIN5blink17MediaStreamDeviceENS8_9allocatorISB_EEEENSA_5mojom24MediaStreamRequestResultENS8_10unique_ptrINS_13MediaStreamUIENS8_14default_deleteISK_EEEEEEE() unnamed_addr

declare zeroext i1 @_ZN7content19WebContentsDelegate26CheckMediaAccessPermissionEPNS_15RenderFrameHostERK4GURLN5blink5mojom15MediaStreamTypeE(%"class.content::WebContentsDelegate"*, %"class.content::RenderFrameHost"*, %class.GURL* dereferenceable(120), i32) unnamed_addr #1

declare void @_ZN7content19WebContentsDelegate23GetDefaultMediaDeviceIDEPNS_11WebContentsEN5blink5mojom15MediaStreamTypeE(%"class.std::__1::basic_string"* sret, %"class.content::WebContentsDelegate"*, %"class.content::WebContents"*, i32) unnamed_addr #1

declare i64 @_ZN7content19WebContentsDelegate23GetSizeForNewRenderViewEPNS_11WebContentsE(%"class.content::WebContentsDelegate"*, %"class.content::WebContents"*) unnamed_addr #1

declare zeroext i1 @_ZN7content19WebContentsDelegate17IsNeverCompositedEPNS_11WebContentsE(%"class.content::WebContentsDelegate"*, %"class.content::WebContents"*) unnamed_addr #1

declare zeroext i1 @_ZN7content19WebContentsDelegate14GuestSaveFrameEPNS_11WebContentsE(%"class.content::WebContentsDelegate"*, %"class.content::WebContents"*) unnamed_addr #1

declare zeroext i1 @_ZN7content19WebContentsDelegate9SaveFrameERK4GURLRKNS_8ReferrerEPNS_15RenderFrameHostE(%"class.content::WebContentsDelegate"*, %class.GURL* dereferenceable(120), %"struct.content::Referrer"* dereferenceable(128), %"class.content::RenderFrameHost"*) unnamed_addr #1

declare i32 @_ZN7content19WebContentsDelegate16GetSecurityStyleEPNS_11WebContentsEPNS_25SecurityStyleExplanationsE(%"class.content::WebContentsDelegate"*, %"class.content::WebContents"*, %"struct.content::SecurityStyleExplanations"*) unnamed_addr #1

; Function Attrs: nounwind ssp uwtable
define linkonce_odr hidden void @_ZN7content19WebContentsDelegate20OnDidBlockNavigationEPNS_11WebContentsERK4GURLS5_N5blink5mojom23NavigationBlockedReasonE(%"class.content::WebContentsDelegate"*, %"class.content::WebContents"*, %class.GURL* dereferenceable(120), %class.GURL* dereferenceable(120), i32) unnamed_addr #0 comdat align 2 {
  ret void
}

; Function Attrs: nounwind ssp uwtable
define linkonce_odr hidden void @_ZN7content19WebContentsDelegate27PassiveInsecureContentFoundERK4GURL(%"class.content::WebContentsDelegate"*, %class.GURL* dereferenceable(120)) unnamed_addr #0 comdat align 2 {
  ret void
}

declare zeroext i1 @_ZN7content19WebContentsDelegate33ShouldAllowRunningInsecureContentEPNS_11WebContentsEbRKN3url6OriginERK4GURL(%"class.content::WebContentsDelegate"*, %"class.content::WebContents"*, i1 zeroext, %"class.url::Origin"* dereferenceable(80), %class.GURL* dereferenceable(120)) unnamed_addr #1

; Function Attrs: nounwind ssp uwtable
define linkonce_odr hidden void @_ZN7content19WebContentsDelegate24SetTopControlsShownRatioEPNS_11WebContentsEf(%"class.content::WebContentsDelegate"*, %"class.content::WebContents"*, float) unnamed_addr #0 comdat align 2 {
  ret void
}

declare i32 @_ZN7content19WebContentsDelegate20GetTopControlsHeightEv(%"class.content::WebContentsDelegate"*) unnamed_addr #1

declare i32 @_ZN7content19WebContentsDelegate23GetTopControlsMinHeightEv(%"class.content::WebContentsDelegate"*) unnamed_addr #1

declare i32 @_ZN7content19WebContentsDelegate23GetBottomControlsHeightEv(%"class.content::WebContentsDelegate"*) unnamed_addr #1

declare i32 @_ZN7content19WebContentsDelegate26GetBottomControlsMinHeightEv(%"class.content::WebContentsDelegate"*) unnamed_addr #1

declare zeroext i1 @_ZN7content19WebContentsDelegate41ShouldAnimateBrowserControlsHeightChangesEv(%"class.content::WebContentsDelegate"*) unnamed_addr #1

declare zeroext i1 @_ZN7content19WebContentsDelegate35DoBrowserControlsShrinkRendererSizeEPNS_11WebContentsE(%"class.content::WebContentsDelegate"*, %"class.content::WebContents"*) unnamed_addr #1

declare zeroext i1 @_ZN7content19WebContentsDelegate30OnlyExpandTopControlsAtPageTopEv(%"class.content::WebContentsDelegate"*) unnamed_addr #1

; Function Attrs: nounwind ssp uwtable
define linkonce_odr hidden void @_ZN7content19WebContentsDelegate37SetTopControlsGestureScrollInProgressEb(%"class.content::WebContentsDelegate"*, i1 zeroext) unnamed_addr #0 comdat align 2 {
  ret void
}

; Function Attrs: nounwind ssp uwtable
define linkonce_odr hidden void @_ZN7content19WebContentsDelegate32AdjustPreviewsStateForNavigationEPNS_11WebContentsEPi(%"class.content::WebContentsDelegate"*, %"class.content::WebContents"*, i32*) unnamed_addr #0 comdat align 2 {
  ret void
}

; Function Attrs: nounwind ssp uwtable
define linkonce_odr hidden void @_ZNK7content19WebContentsDelegate25PrintCrossProcessSubframeEPNS_11WebContentsERKN3gfx4RectEiPNS_15RenderFrameHostE(%"class.content::WebContentsDelegate"*, %"class.content::WebContents"*, %"class.gfx::Rect"* dereferenceable(16), i32, %"class.content::RenderFrameHost"*) unnamed_addr #0 comdat align 2 {
  ret void
}

; Function Attrs: nounwind ssp uwtable
define linkonce_odr hidden void @_ZN7content19WebContentsDelegate29CapturePaintPreviewOfSubframeEPNS_11WebContentsERKN3gfx4RectERKN4base16UnguessableTokenEPNS_15RenderFrameHostE(%"class.content::WebContentsDelegate"*, %"class.content::WebContents"*, %"class.gfx::Rect"* dereferenceable(16), %"class.base::UnguessableToken"* dereferenceable(16), %"class.content::RenderFrameHost"*) unnamed_addr #0 comdat align 2 {
  ret void
}

declare i32 @_ZN7content19WebContentsDelegate21EnterPictureInPictureEPNS_11WebContentsERKN3viz9SurfaceIdERKN3gfx4SizeE(%"class.content::WebContentsDelegate"*, %"class.content::WebContents"*, %"class.viz::SurfaceId"*, %"class.gfx::Size"* dereferenceable(8)) unnamed_addr #1

; Function Attrs: nounwind ssp uwtable
define linkonce_odr hidden void @_ZN7content19WebContentsDelegate20ExitPictureInPictureEv(%"class.content::WebContentsDelegate"*) unnamed_addr #0 comdat align 2 {
  ret void
}

declare zeroext i1 @_ZN7content19WebContentsDelegate19ShouldAllowLazyLoadEv(%"class.content::WebContentsDelegate"*) unnamed_addr #1

declare zeroext i1 @_ZN7content19WebContentsDelegate27IsBackForwardCacheSupportedEv(%"class.content::WebContentsDelegate"*) unnamed_addr #1

declare %"class.content::WebContents"* @_ZN7content19WebContentsDelegate25ActivatePortalWebContentsEPNS_11WebContentsENSt3__110unique_ptrIS1_NS3_14default_deleteIS1_EEEE(%"class.content::WebContentsDelegate"*, %"class.content::WebContents"*, %"class.content::WebContents"*) unnamed_addr #1

declare void @_ZN7content19WebContentsDelegate37UpdateInspectedWebContentsIfNecessaryEPNS_11WebContentsES2_N4base12OnceCallbackIFvvEEE(%"class.content::WebContentsDelegate"*, %"class.content::WebContents"*, %"class.content::WebContents"*, %"class.base::OnceCallback"*) unnamed_addr #1

declare zeroext i1 @_ZN7content19WebContentsDelegate32ShouldShowStaleContentOnEvictionEPNS_11WebContentsE(%"class.content::WebContentsDelegate"*, %"class.content::WebContents"*) unnamed_addr #1

declare %"class.content::WebContents"* @_ZN7content19WebContentsDelegate25GetResponsibleWebContentsEPNS_11WebContentsE(%"class.content::WebContentsDelegate"*, %"class.content::WebContents"*) unnamed_addr #1

; Function Attrs: nounwind ssp uwtable
define linkonce_odr hidden void @_ZN7content19WebContentsDelegate21MediaWatchTimeChangedERKNS_20MediaPlayerWatchTimeE(%"class.content::WebContentsDelegate"*, %"struct.content::MediaPlayerWatchTime"*) unnamed_addr #0 comdat align 2 {
  ret void
}

declare %"class.device::mojom::GeolocationContext"* @_ZN7content19WebContentsDelegate36GetInstalledWebappGeolocationContextEv(%"class.content::WebContentsDelegate"*) unnamed_addr #1

declare void @_ZN7content19WebContentsDelegate18GetDelegateWeakPtrEv() unnamed_addr

; Function Attrs: nounwind ssp uwtable
define linkonce_odr hidden void @_ZThn664_N21WebUIOmniboxPopupViewD1Ev(%class.WebUIOmniboxPopupView*) unnamed_addr #0 comdat align 2 {
  %2 = getelementptr inbounds %class.WebUIOmniboxPopupView, %class.WebUIOmniboxPopupView* %0, i64 -1, i32 0, i32 0, i32 4, i32 1, i32 0, i32 2
  %3 = bitcast %"class.std::__1::__compressed_pair.6"* %2 to %"class.views::WebView"*
  tail call void @_ZN5views7WebViewD2Ev(%"class.views::WebView"* %3) #9
  ret void
}

; Function Attrs: nounwind ssp uwtable
define linkonce_odr hidden void @_ZThn664_N21WebUIOmniboxPopupViewD0Ev(%class.WebUIOmniboxPopupView*) unnamed_addr #0 comdat align 2 {
  %2 = getelementptr inbounds %class.WebUIOmniboxPopupView, %class.WebUIOmniboxPopupView* %0, i64 -1, i32 0, i32 0, i32 4, i32 1, i32 0, i32 2
  %3 = bitcast %"class.std::__1::__compressed_pair.6"* %2 to %"class.views::WebView"*
  tail call void @_ZN5views7WebViewD2Ev(%"class.views::WebView"* %3) #9
  %4 = bitcast %"class.std::__1::__compressed_pair.6"* %2 to i8*
  tail call void @_ZdlPv(i8* %4) #10
  ret void
}

declare zeroext i1 @_ZN7content19WebContentsObserver17OnMessageReceivedERKN3IPC7MessageE(%"class.content::WebContentsObserver"*, %"class.IPC::Message"* dereferenceable(56)) unnamed_addr #1

; Function Attrs: nounwind ssp uwtable
define linkonce_odr hidden void @_ZThn696_N5views7WebView18OnChannelConnectedEi(%"class.views::WebView"*, i32) unnamed_addr #0 comdat align 2 {
  ret void
}

; Function Attrs: nounwind ssp uwtable
define linkonce_odr hidden void @_ZThn696_N5views7WebView14OnChannelErrorEv(%"class.views::WebView"*) unnamed_addr #0 comdat align 2 {
  ret void
}

; Function Attrs: nounwind ssp uwtable
define linkonce_odr hidden void @_ZThn696_N5views7WebView20OnBadMessageReceivedERKN3IPC7MessageE(%"class.views::WebView"*, %"class.IPC::Message"* dereferenceable(56)) unnamed_addr #0 comdat align 2 {
  ret void
}

; Function Attrs: nounwind ssp uwtable
define linkonce_odr hidden void @_ZN3IPC8Listener28OnAssociatedInterfaceRequestERKNSt3__112basic_stringIcNS1_11char_traitsIcEENS1_9allocatorIcEEEEN4mojo29ScopedInterfaceEndpointHandleE(%"class.IPC::Listener"*, %"class.std::__1::basic_string"* dereferenceable(24), %"class.mojo::ScopedInterfaceEndpointHandle"*) unnamed_addr #0 comdat align 2 {
  ret void
}

; Function Attrs: nounwind ssp uwtable
define linkonce_odr hidden void @_ZN3IPC8Listener15OnChannelDeniedEv(%"class.IPC::Listener"*) unnamed_addr #0 comdat align 2 {
  ret void
}

; Function Attrs: nounwind ssp uwtable
define linkonce_odr hidden void @_ZN3IPC8Listener20OnChannelListenErrorEv(%"class.IPC::Listener"*) unnamed_addr #0 comdat align 2 {
  ret void
}

; Function Attrs: nounwind ssp uwtable
define linkonce_odr hidden void @_ZThn696_N21WebUIOmniboxPopupViewD1Ev(%class.WebUIOmniboxPopupView*) unnamed_addr #0 comdat align 2 {
  %2 = getelementptr inbounds %class.WebUIOmniboxPopupView, %class.WebUIOmniboxPopupView* %0, i64 -1, i32 0, i32 0, i32 3
  %3 = bitcast %"class.ui::AcceleratorTarget"* %2 to %"class.views::WebView"*
  tail call void @_ZN5views7WebViewD2Ev(%"class.views::WebView"* %3) #9
  ret void
}

; Function Attrs: nounwind ssp uwtable
define linkonce_odr hidden void @_ZThn696_N21WebUIOmniboxPopupViewD0Ev(%class.WebUIOmniboxPopupView*) unnamed_addr #0 comdat align 2 {
  %2 = getelementptr inbounds %class.WebUIOmniboxPopupView, %class.WebUIOmniboxPopupView* %0, i64 -1, i32 0, i32 0, i32 3
  %3 = bitcast %"class.ui::AcceleratorTarget"* %2 to %"class.views::WebView"*
  tail call void @_ZN5views7WebViewD2Ev(%"class.views::WebView"* %3) #9
  %4 = bitcast %"class.ui::AcceleratorTarget"* %2 to i8*
  tail call void @_ZdlPv(i8* %4) #10
  ret void
}

; Function Attrs: nounwind ssp uwtable
declare void @_ZThn696_N5views7WebView18RenderFrameCreatedEPN7content15RenderFrameHostE(%"class.views::WebView"*, %"class.content::RenderFrameHost"*) unnamed_addr #0 align 2

; Function Attrs: nounwind ssp uwtable
declare void @_ZThn696_N5views7WebView18RenderFrameDeletedEPN7content15RenderFrameHostE(%"class.views::WebView"*, %"class.content::RenderFrameHost"*) unnamed_addr #0 align 2

; Function Attrs: nounwind ssp uwtable
declare void @_ZThn696_N5views7WebView22RenderFrameHostChangedEPN7content15RenderFrameHostES3_(%"class.views::WebView"*, %"class.content::RenderFrameHost"*, %"class.content::RenderFrameHost"*) unnamed_addr #0 align 2

; Function Attrs: nounwind ssp uwtable
define linkonce_odr hidden void @_ZN7content19WebContentsObserver12FrameDeletedEi(%"class.content::WebContentsObserver"*, i32) unnamed_addr #0 comdat align 2 {
  ret void
}

; Function Attrs: nounwind ssp uwtable
define linkonce_odr hidden void @_ZN7content19WebContentsObserver27RenderFrameHostStateChangedEPNS_15RenderFrameHostENS1_14LifecycleStateES3_(%"class.content::WebContentsObserver"*, %"class.content::RenderFrameHost"*, i32, i32) unnamed_addr #0 comdat align 2 {
  ret void
}

; Function Attrs: nounwind ssp uwtable
define linkonce_odr hidden void @_ZN7content19WebContentsObserver20CaptureTargetChangedEv(%"class.content::WebContentsObserver"*) unnamed_addr #0 comdat align 2 {
  ret void
}

; Function Attrs: nounwind ssp uwtable
define linkonce_odr hidden void @_ZN7content19WebContentsObserver27OnCaptureHandleConfigUpdateERKN5blink5mojom19CaptureHandleConfigE(%"class.content::WebContentsObserver"*, %"class.blink::mojom::CaptureHandleConfig"*) unnamed_addr #0 comdat align 2 {
  ret void
}

; Function Attrs: nounwind ssp uwtable
define linkonce_odr hidden void @_ZN7content19WebContentsObserver15RenderViewReadyEv(%"class.content::WebContentsObserver"*) unnamed_addr #0 comdat align 2 {
  ret void
}

; Function Attrs: nounwind ssp uwtable
define linkonce_odr hidden void @_ZN7content19WebContentsObserver17RenderViewDeletedEPNS_14RenderViewHostE(%"class.content::WebContentsObserver"*, %"class.content::RenderViewHost"*) unnamed_addr #0 comdat align 2 {
  ret void
}

; Function Attrs: nounwind ssp uwtable
define linkonce_odr hidden void @_ZN7content19WebContentsObserver17RenderProcessGoneEN4base17TerminationStatusE(%"class.content::WebContentsObserver"*, i32) unnamed_addr #0 comdat align 2 {
  ret void
}

; Function Attrs: nounwind ssp uwtable
define linkonce_odr hidden void @_ZN7content19WebContentsObserver21RenderViewHostChangedEPNS_14RenderViewHostES2_(%"class.content::WebContentsObserver"*, %"class.content::RenderViewHost"*, %"class.content::RenderViewHost"*) unnamed_addr #0 comdat align 2 {
  ret void
}

; Function Attrs: nounwind ssp uwtable
define linkonce_odr hidden void @_ZN7content19WebContentsObserver22OnRendererUnresponsiveEPNS_17RenderProcessHostE(%"class.content::WebContentsObserver"*, %"class.content::RenderProcessHost"*) unnamed_addr #0 comdat align 2 {
  ret void
}

; Function Attrs: nounwind ssp uwtable
define linkonce_odr hidden void @_ZN7content19WebContentsObserver20OnRendererResponsiveEPNS_17RenderProcessHostE(%"class.content::WebContentsObserver"*, %"class.content::RenderProcessHost"*) unnamed_addr #0 comdat align 2 {
  ret void
}

; Function Attrs: nounwind ssp uwtable
define linkonce_odr hidden void @_ZN7content19WebContentsObserver18DidStartNavigationEPNS_16NavigationHandleE(%"class.content::WebContentsObserver"*, %"class.content::NavigationHandle"*) unnamed_addr #0 comdat align 2 {
  ret void
}

; Function Attrs: nounwind ssp uwtable
define linkonce_odr hidden void @_ZN7content19WebContentsObserver21DidRedirectNavigationEPNS_16NavigationHandleE(%"class.content::WebContentsObserver"*, %"class.content::NavigationHandle"*) unnamed_addr #0 comdat align 2 {
  ret void
}

; Function Attrs: nounwind ssp uwtable
define linkonce_odr hidden void @_ZN7content19WebContentsObserver23ReadyToCommitNavigationEPNS_16NavigationHandleE(%"class.content::WebContentsObserver"*, %"class.content::NavigationHandle"*) unnamed_addr #0 comdat align 2 {
  ret void
}

; Function Attrs: nounwind ssp uwtable
define linkonce_odr hidden void @_ZN7content19WebContentsObserver19DidFinishNavigationEPNS_16NavigationHandleE(%"class.content::WebContentsObserver"*, %"class.content::NavigationHandle"*) unnamed_addr #0 comdat align 2 {
  ret void
}

; Function Attrs: nounwind ssp uwtable
define linkonce_odr hidden void @_ZN7content19WebContentsObserver17DidActivatePortalEPNS_11WebContentsEN4base9TimeTicksE(%"class.content::WebContentsObserver"*, %"class.content::WebContents"*, i64) unnamed_addr #0 comdat align 2 {
  ret void
}

; Function Attrs: nounwind ssp uwtable
define linkonce_odr hidden void @_ZN7content19WebContentsObserver15DidStartLoadingEv(%"class.content::WebContentsObserver"*) unnamed_addr #0 comdat align 2 {
  ret void
}

; Function Attrs: nounwind ssp uwtable
define linkonce_odr hidden void @_ZN7content19WebContentsObserver18DidReceiveResponseEv(%"class.content::WebContentsObserver"*) unnamed_addr #0 comdat align 2 {
  ret void
}

; Function Attrs: nounwind ssp uwtable
define linkonce_odr hidden void @_ZN7content19WebContentsObserver14DidStopLoadingEv(%"class.content::WebContentsObserver"*) unnamed_addr #0 comdat align 2 {
  ret void
}

; Function Attrs: nounwind ssp uwtable
define linkonce_odr hidden void @_ZN7content19WebContentsObserver19LoadProgressChangedEd(%"class.content::WebContentsObserver"*, double) unnamed_addr #0 comdat align 2 {
  ret void
}

; Function Attrs: nounwind ssp uwtable
define linkonce_odr hidden void @_ZN7content19WebContentsObserver28DocumentAvailableInMainFrameEPNS_15RenderFrameHostE(%"class.content::WebContentsObserver"*, %"class.content::RenderFrameHost"*) unnamed_addr #0 comdat align 2 {
  ret void
}

; Function Attrs: nounwind ssp uwtable
define linkonce_odr hidden void @_ZN7content19WebContentsObserver34DocumentOnLoadCompletedInMainFrameEPNS_15RenderFrameHostE(%"class.content::WebContentsObserver"*, %"class.content::RenderFrameHost"*) unnamed_addr #0 comdat align 2 {
  ret void
}

; Function Attrs: nounwind ssp uwtable
define linkonce_odr hidden void @_ZN7content19WebContentsObserver16DOMContentLoadedEPNS_15RenderFrameHostE(%"class.content::WebContentsObserver"*, %"class.content::RenderFrameHost"*) unnamed_addr #0 comdat align 2 {
  ret void
}

; Function Attrs: nounwind ssp uwtable
define linkonce_odr hidden void @_ZN7content19WebContentsObserver13DidFinishLoadEPNS_15RenderFrameHostERK4GURL(%"class.content::WebContentsObserver"*, %"class.content::RenderFrameHost"*, %class.GURL* dereferenceable(120)) unnamed_addr #0 comdat align 2 {
  ret void
}

; Function Attrs: nounwind ssp uwtable
define linkonce_odr hidden void @_ZN7content19WebContentsObserver11DidFailLoadEPNS_15RenderFrameHostERK4GURLi(%"class.content::WebContentsObserver"*, %"class.content::RenderFrameHost"*, %class.GURL* dereferenceable(120), i32) unnamed_addr #0 comdat align 2 {
  ret void
}

; Function Attrs: nounwind ssp uwtable
define linkonce_odr hidden void @_ZN7content19WebContentsObserver29DidChangeVisibleSecurityStateEv(%"class.content::WebContentsObserver"*) unnamed_addr #0 comdat align 2 {
  ret void
}

; Function Attrs: nounwind ssp uwtable
define linkonce_odr hidden void @_ZN7content19WebContentsObserver30DidLoadResourceFromMemoryCacheEPNS_15RenderFrameHostERK4GURLRKNSt3__112basic_stringIcNS6_11char_traitsIcEENS6_9allocatorIcEEEEN7network5mojom18RequestDestinationE(%"class.content::WebContentsObserver"*, %"class.content::RenderFrameHost"*, %class.GURL* dereferenceable(120), %"class.std::__1::basic_string"* dereferenceable(24), i32) unnamed_addr #0 comdat align 2 {
  ret void
}

; Function Attrs: nounwind ssp uwtable
define linkonce_odr hidden void @_ZN7content19WebContentsObserver20ResourceLoadCompleteEPNS_15RenderFrameHostERKNS_15GlobalRequestIDERKN5blink5mojom16ResourceLoadInfoE(%"class.content::WebContentsObserver"*, %"class.content::RenderFrameHost"*, %"struct.content::GlobalRequestID"* dereferenceable(8), %"class.blink::mojom::ResourceLoadInfo"*) unnamed_addr #0 comdat align 2 {
  ret void
}

; Function Attrs: nounwind ssp uwtable
define linkonce_odr hidden void @_ZN7content19WebContentsObserver17OnCookiesAccessedEPNS_15RenderFrameHostERKNS_19CookieAccessDetailsE(%"class.content::WebContentsObserver"*, %"class.content::RenderFrameHost"*, %"struct.content::CookieAccessDetails"* dereferenceable(280)) unnamed_addr #0 comdat align 2 {
  ret void
}

; Function Attrs: nounwind ssp uwtable
define linkonce_odr hidden void @_ZN7content19WebContentsObserver17OnCookiesAccessedEPNS_16NavigationHandleERKNS_19CookieAccessDetailsE(%"class.content::WebContentsObserver"*, %"class.content::NavigationHandle"*, %"struct.content::CookieAccessDetails"* dereferenceable(280)) unnamed_addr #0 comdat align 2 {
  ret void
}

; Function Attrs: nounwind ssp uwtable
define linkonce_odr hidden void @_ZN7content19WebContentsObserver24NavigationEntryCommittedERKNS_20LoadCommittedDetailsE(%"class.content::WebContentsObserver"*, %"struct.content::LoadCommittedDetails"*) unnamed_addr #0 comdat align 2 {
  ret void
}

; Function Attrs: nounwind ssp uwtable
define linkonce_odr hidden void @_ZN7content19WebContentsObserver20NavigationListPrunedERKNS_13PrunedDetailsE(%"class.content::WebContentsObserver"*, %"struct.content::PrunedDetails"*) unnamed_addr #0 comdat align 2 {
  ret void
}

; Function Attrs: nounwind ssp uwtable
define linkonce_odr hidden void @_ZN7content19WebContentsObserver24NavigationEntriesDeletedEv(%"class.content::WebContentsObserver"*) unnamed_addr #0 comdat align 2 {
  ret void
}

; Function Attrs: nounwind ssp uwtable
define linkonce_odr hidden void @_ZN7content19WebContentsObserver22NavigationEntryChangedERKNS_19EntryChangedDetailsE(%"class.content::WebContentsObserver"*, %"struct.content::EntryChangedDetails"*) unnamed_addr #0 comdat align 2 {
  ret void
}

; Function Attrs: nounwind ssp uwtable
define linkonce_odr hidden void @_ZN7content19WebContentsObserver19DidOpenRequestedURLEPNS_11WebContentsEPNS_15RenderFrameHostERK4GURLRKNS_8ReferrerE21WindowOpenDispositionN2ui14PageTransitionEbb(%"class.content::WebContentsObserver"*, %"class.content::WebContents"*, %"class.content::RenderFrameHost"*, %class.GURL* dereferenceable(120), %"struct.content::Referrer"* dereferenceable(128), i32, i32, i1 zeroext, i1 zeroext) unnamed_addr #0 comdat align 2 {
  ret void
}

; Function Attrs: nounwind ssp uwtable
define linkonce_odr hidden void @_ZN7content19WebContentsObserver29DidFirstVisuallyNonEmptyPaintEv(%"class.content::WebContentsObserver"*) unnamed_addr #0 comdat align 2 {
  ret void
}

; Function Attrs: nounwind ssp uwtable
define linkonce_odr hidden void @_ZN7content19WebContentsObserver17NavigationStoppedEv(%"class.content::WebContentsObserver"*) unnamed_addr #0 comdat align 2 {
  ret void
}

; Function Attrs: nounwind ssp uwtable
define linkonce_odr hidden void @_ZN7content19WebContentsObserver21DidGetUserInteractionERKN5blink13WebInputEventE(%"class.content::WebContentsObserver"*, %"class.blink::WebInputEvent"* dereferenceable(40)) unnamed_addr #0 comdat align 2 {
  ret void
}

; Function Attrs: nounwind ssp uwtable
define linkonce_odr hidden void @_ZN7content19WebContentsObserver20DidGetIgnoredUIEventEv(%"class.content::WebContentsObserver"*) unnamed_addr #0 comdat align 2 {
  ret void
}

; Function Attrs: nounwind ssp uwtable
define linkonce_odr hidden void @_ZN7content19WebContentsObserver19OnVisibilityChangedENS_10VisibilityE(%"class.content::WebContentsObserver"*, i32) unnamed_addr #0 comdat align 2 {
  ret void
}

; Function Attrs: nounwind ssp uwtable
define linkonce_odr hidden void @_ZN7content19WebContentsObserver19MainFrameWasResizedEb(%"class.content::WebContentsObserver"*, i1 zeroext) unnamed_addr #0 comdat align 2 {
  ret void
}

; Function Attrs: nounwind ssp uwtable
define linkonce_odr hidden void @_ZN7content19WebContentsObserver16FrameNameChangedEPNS_15RenderFrameHostERKNSt3__112basic_stringIcNS3_11char_traitsIcEENS3_9allocatorIcEEEE(%"class.content::WebContentsObserver"*, %"class.content::RenderFrameHost"*, %"class.std::__1::basic_string"* dereferenceable(24)) unnamed_addr #0 comdat align 2 {
  ret void
}

; Function Attrs: nounwind ssp uwtable
define linkonce_odr hidden void @_ZN7content19WebContentsObserver27FrameReceivedUserActivationEPNS_15RenderFrameHostE(%"class.content::WebContentsObserver"*, %"class.content::RenderFrameHost"*) unnamed_addr #0 comdat align 2 {
  ret void
}

; Function Attrs: nounwind ssp uwtable
define linkonce_odr hidden void @_ZN7content19WebContentsObserver24FrameDisplayStateChangedEPNS_15RenderFrameHostEb(%"class.content::WebContentsObserver"*, %"class.content::RenderFrameHost"*, i1 zeroext) unnamed_addr #0 comdat align 2 {
  ret void
}

; Function Attrs: nounwind ssp uwtable
define linkonce_odr hidden void @_ZN7content19WebContentsObserver16FrameSizeChangedEPNS_15RenderFrameHostERKN3gfx4SizeE(%"class.content::WebContentsObserver"*, %"class.content::RenderFrameHost"*, %"class.gfx::Size"* dereferenceable(8)) unnamed_addr #0 comdat align 2 {
  ret void
}

; Function Attrs: nounwind ssp uwtable
define linkonce_odr hidden void @_ZN7content19WebContentsObserver11TitleWasSetEPNS_15NavigationEntryE(%"class.content::WebContentsObserver"*, %"class.content::NavigationEntry"*) unnamed_addr #0 comdat align 2 {
  ret void
}

; Function Attrs: nounwind ssp uwtable
define linkonce_odr hidden void @_ZN7content19WebContentsObserver16AppCacheAccessedERK4GURLb(%"class.content::WebContentsObserver"*, %class.GURL* dereferenceable(120), i1 zeroext) unnamed_addr #0 comdat align 2 {
  ret void
}

; Function Attrs: nounwind ssp uwtable
define linkonce_odr hidden void @_ZN7content19WebContentsObserver21PepperInstanceCreatedEv(%"class.content::WebContentsObserver"*) unnamed_addr #0 comdat align 2 {
  ret void
}

; Function Attrs: nounwind ssp uwtable
define linkonce_odr hidden void @_ZN7content19WebContentsObserver21PepperInstanceDeletedEv(%"class.content::WebContentsObserver"*) unnamed_addr #0 comdat align 2 {
  ret void
}

; Function Attrs: nounwind ssp uwtable
define linkonce_odr hidden void @_ZN7content19WebContentsObserver18ViewportFitChangedEN5blink5mojom11ViewportFitE(%"class.content::WebContentsObserver"*, i32) unnamed_addr #0 comdat align 2 {
  ret void
}

; Function Attrs: nounwind ssp uwtable
define linkonce_odr hidden void @_ZN7content19WebContentsObserver13PluginCrashedERKN4base8FilePathEi(%"class.content::WebContentsObserver"*, %"class.base::FilePath"* dereferenceable(24), i32) unnamed_addr #0 comdat align 2 {
  ret void
}

; Function Attrs: nounwind ssp uwtable
define linkonce_odr hidden void @_ZN7content19WebContentsObserver23PluginHungStatusChangedEiRKN4base8FilePathEb(%"class.content::WebContentsObserver"*, i32, %"class.base::FilePath"* dereferenceable(24), i1 zeroext) unnamed_addr #0 comdat align 2 {
  ret void
}

; Function Attrs: nounwind ssp uwtable
define linkonce_odr hidden void @_ZN7content19WebContentsObserver23InnerWebContentsCreatedEPNS_11WebContentsE(%"class.content::WebContentsObserver"*, %"class.content::WebContents"*) unnamed_addr #0 comdat align 2 {
  ret void
}

; Function Attrs: nounwind ssp uwtable
define linkonce_odr hidden void @_ZN7content19WebContentsObserver24InnerWebContentsAttachedEPNS_11WebContentsEPNS_15RenderFrameHostEb(%"class.content::WebContentsObserver"*, %"class.content::WebContents"*, %"class.content::RenderFrameHost"*, i1 zeroext) unnamed_addr #0 comdat align 2 {
  ret void
}

; Function Attrs: nounwind ssp uwtable
define linkonce_odr hidden void @_ZN7content19WebContentsObserver24InnerWebContentsDetachedEPNS_11WebContentsE(%"class.content::WebContentsObserver"*, %"class.content::WebContents"*) unnamed_addr #0 comdat align 2 {
  ret void
}

; Function Attrs: nounwind ssp uwtable
define linkonce_odr hidden void @_ZN7content19WebContentsObserver24DidCloneToNewWebContentsEPNS_11WebContentsES2_(%"class.content::WebContentsObserver"*, %"class.content::WebContents"*, %"class.content::WebContents"*) unnamed_addr #0 comdat align 2 {
  ret void
}

; Function Attrs: nounwind ssp uwtable
define linkonce_odr hidden void @_ZN7content19WebContentsObserver20WebContentsDestroyedEv(%"class.content::WebContentsObserver"*) unnamed_addr #0 comdat align 2 {
  ret void
}

; Function Attrs: nounwind ssp uwtable
define linkonce_odr hidden void @_ZN7content19WebContentsObserver20UserAgentOverrideSetERKN5blink17UserAgentOverrideE(%"class.content::WebContentsObserver"*, %"struct.blink::UserAgentOverride"* dereferenceable(184)) unnamed_addr #0 comdat align 2 {
  ret void
}

; Function Attrs: nounwind ssp uwtable
define linkonce_odr hidden void @_ZN7content19WebContentsObserver19DidUpdateFaviconURLEPNS_15RenderFrameHostERKNSt3__16vectorIN4mojo9StructPtrIN5blink5mojom10FaviconURLEEENS3_9allocatorISA_EEEE(%"class.content::WebContentsObserver"*, %"class.content::RenderFrameHost"*, %"class.std::__1::vector.319"*) unnamed_addr #0 comdat align 2 {
  ret void
}

; Function Attrs: nounwind ssp uwtable
define linkonce_odr hidden void @_ZN7content19WebContentsObserver19OnAudioStateChangedEb(%"class.content::WebContentsObserver"*, i1 zeroext) unnamed_addr #0 comdat align 2 {
  ret void
}

; Function Attrs: nounwind ssp uwtable
define linkonce_odr hidden void @_ZN7content19WebContentsObserver24OnFrameAudioStateChangedEPNS_15RenderFrameHostEb(%"class.content::WebContentsObserver"*, %"class.content::RenderFrameHost"*, i1 zeroext) unnamed_addr #0 comdat align 2 {
  ret void
}

; Function Attrs: nounwind ssp uwtable
define linkonce_odr hidden void @_ZN7content19WebContentsObserver37OnIsConnectedToBluetoothDeviceChangedEb(%"class.content::WebContentsObserver"*, i1 zeroext) unnamed_addr #0 comdat align 2 {
  ret void
}

; Function Attrs: nounwind ssp uwtable
define linkonce_odr hidden void @_ZN7content19WebContentsObserver25DidUpdateAudioMutingStateEb(%"class.content::WebContentsObserver"*, i1 zeroext) unnamed_addr #0 comdat align 2 {
  ret void
}

; Function Attrs: nounwind ssp uwtable
declare void @_ZThn696_N5views7WebView29DidToggleFullscreenModeForTabEbb(%"class.views::WebView"*, i1 zeroext, i1 zeroext) unnamed_addr #0 align 2

; Function Attrs: nounwind ssp uwtable
define linkonce_odr hidden void @_ZN7content19WebContentsObserver20DidAcquireFullscreenEPNS_15RenderFrameHostE(%"class.content::WebContentsObserver"*, %"class.content::RenderFrameHost"*) unnamed_addr #0 comdat align 2 {
  ret void
}

; Function Attrs: nounwind ssp uwtable
define linkonce_odr hidden void @_ZN7content19WebContentsObserver32DidChangeVerticalScrollDirectionEN3viz23VerticalScrollDirectionE(%"class.content::WebContentsObserver"*, i32) unnamed_addr #0 comdat align 2 {
  ret void
}

; Function Attrs: nounwind ssp uwtable
define linkonce_odr hidden void @_ZN7content19WebContentsObserver27BeforeFormRepostWarningShowEv(%"class.content::WebContentsObserver"*) unnamed_addr #0 comdat align 2 {
  ret void
}

; Function Attrs: nounwind ssp uwtable
define linkonce_odr hidden void @_ZN7content19WebContentsObserver17BeforeUnloadFiredEbRKN4base9TimeTicksE(%"class.content::WebContentsObserver"*, i1 zeroext, %"class.base::TimeTicks"* dereferenceable(8)) unnamed_addr #0 comdat align 2 {
  ret void
}

; Function Attrs: nounwind ssp uwtable
define linkonce_odr hidden void @_ZN7content19WebContentsObserver27BeforeUnloadDialogCancelledEv(%"class.content::WebContentsObserver"*) unnamed_addr #0 comdat align 2 {
  ret void
}

; Function Attrs: nounwind ssp uwtable
declare void @_ZThn696_N5views7WebView30AXTreeIDForMainFrameHasChangedEv(%"class.views::WebView"*) unnamed_addr #0 align 2

; Function Attrs: nounwind ssp uwtable
define linkonce_odr hidden void @_ZN7content19WebContentsObserver26AccessibilityEventReceivedERKNS_26AXEventNotificationDetailsE(%"class.content::WebContentsObserver"*, %"struct.content::AXEventNotificationDetails"*) unnamed_addr #0 comdat align 2 {
  ret void
}

; Function Attrs: nounwind ssp uwtable
define linkonce_odr hidden void @_ZN7content19WebContentsObserver36AccessibilityLocationChangesReceivedERKNSt3__16vectorINS_35AXLocationChangeNotificationDetailsENS1_9allocatorIS3_EEEE(%"class.content::WebContentsObserver"*, %"class.std::__1::vector.320"*) unnamed_addr #0 comdat align 2 {
  ret void
}

; Function Attrs: nounwind ssp uwtable
define linkonce_odr hidden void @_ZN7content19WebContentsObserver19DidChangeThemeColorEv(%"class.content::WebContentsObserver"*) unnamed_addr #0 comdat align 2 {
  ret void
}

; Function Attrs: nounwind ssp uwtable
define linkonce_odr hidden void @_ZN7content19WebContentsObserver24OnBackgroundColorChangedEv(%"class.content::WebContentsObserver"*) unnamed_addr #0 comdat align 2 {
  ret void
}

; Function Attrs: nounwind ssp uwtable
define linkonce_odr hidden void @_ZN7content19WebContentsObserver24OnDidAddMessageToConsoleEPNS_15RenderFrameHostEN5blink5mojom19ConsoleMessageLevelERKNSt3__112basic_stringIDsNS6_11char_traitsIDsEENS6_9allocatorIDsEEEEiSE_RKN4absl8optionalISC_EE(%"class.content::WebContentsObserver"*, %"class.content::RenderFrameHost"*, i32, %"class.std::__1::basic_string.215"* dereferenceable(24), i32, %"class.std::__1::basic_string.215"* dereferenceable(24), %"class.absl::optional.321"*) unnamed_addr #0 comdat align 2 {
  ret void
}

; Function Attrs: nounwind ssp uwtable
define linkonce_odr hidden void @_ZN7content19WebContentsObserver19MediaStartedPlayingERKNS0_15MediaPlayerInfoERKNS_13MediaPlayerIdE(%"class.content::WebContentsObserver"*, %"struct.content::WebContentsObserver::MediaPlayerInfo"* dereferenceable(2), %"struct.content::MediaPlayerId"*) unnamed_addr #0 comdat align 2 {
  ret void
}

; Function Attrs: nounwind ssp uwtable
define linkonce_odr hidden void @_ZN7content19WebContentsObserver19MediaStoppedPlayingERKNS0_15MediaPlayerInfoERKNS_13MediaPlayerIdENS0_18MediaStoppedReasonE(%"class.content::WebContentsObserver"*, %"struct.content::WebContentsObserver::MediaPlayerInfo"* dereferenceable(2), %"struct.content::MediaPlayerId"*, i32) unnamed_addr #0 comdat align 2 {
  ret void
}

; Function Attrs: nounwind ssp uwtable
define linkonce_odr hidden void @_ZN7content19WebContentsObserver12MediaResizedERKN3gfx4SizeERKNS_13MediaPlayerIdE(%"class.content::WebContentsObserver"*, %"class.gfx::Size"* dereferenceable(8), %"struct.content::MediaPlayerId"*) unnamed_addr #0 comdat align 2 {
  ret void
}

; Function Attrs: nounwind ssp uwtable
define linkonce_odr hidden void @_ZN7content19WebContentsObserver33MediaEffectivelyFullscreenChangedEb(%"class.content::WebContentsObserver"*, i1 zeroext) unnamed_addr #0 comdat align 2 {
  ret void
}

; Function Attrs: nounwind ssp uwtable
define linkonce_odr hidden void @_ZN7content19WebContentsObserver28MediaPictureInPictureChangedEb(%"class.content::WebContentsObserver"*, i1 zeroext) unnamed_addr #0 comdat align 2 {
  ret void
}

; Function Attrs: nounwind ssp uwtable
define linkonce_odr hidden void @_ZN7content19WebContentsObserver23MediaMutedStatusChangedERKNS_13MediaPlayerIdEb(%"class.content::WebContentsObserver"*, %"struct.content::MediaPlayerId"*, i1 zeroext) unnamed_addr #0 comdat align 2 {
  ret void
}

; Function Attrs: nounwind ssp uwtable
define linkonce_odr hidden void @_ZN7content19WebContentsObserver20MediaBufferUnderflowERKNS_13MediaPlayerIdE(%"class.content::WebContentsObserver"*, %"struct.content::MediaPlayerId"*) unnamed_addr #0 comdat align 2 {
  ret void
}

; Function Attrs: nounwind ssp uwtable
define linkonce_odr hidden void @_ZN7content19WebContentsObserver15MediaPlayerSeekERKNS_13MediaPlayerIdE(%"class.content::WebContentsObserver"*, %"struct.content::MediaPlayerId"*) unnamed_addr #0 comdat align 2 {
  ret void
}

; Function Attrs: nounwind ssp uwtable
define linkonce_odr hidden void @_ZN7content19WebContentsObserver14MediaDestroyedERKNS_13MediaPlayerIdE(%"class.content::WebContentsObserver"*, %"struct.content::MediaPlayerId"*) unnamed_addr #0 comdat align 2 {
  ret void
}

; Function Attrs: nounwind ssp uwtable
define linkonce_odr hidden void @_ZN7content19WebContentsObserver24OnPageScaleFactorChangedEf(%"class.content::WebContentsObserver"*, float) unnamed_addr #0 comdat align 2 {
  ret void
}

; Function Attrs: nounwind ssp uwtable
define linkonce_odr hidden void @_ZN7content19WebContentsObserver7OnPasteEv(%"class.content::WebContentsObserver"*) unnamed_addr #0 comdat align 2 {
  ret void
}

declare zeroext i1 @_ZN7content19WebContentsObserver17OnMessageReceivedERKN3IPC7MessageEPNS_15RenderFrameHostE(%"class.content::WebContentsObserver"*, %"class.IPC::Message"* dereferenceable(56), %"class.content::RenderFrameHost"*) unnamed_addr #1

; Function Attrs: nounwind ssp uwtable
declare void @_ZThn696_N5views7WebView20OnWebContentsFocusedEPN7content16RenderWidgetHostE(%"class.views::WebView"*, %"class.content::RenderWidgetHost"*) unnamed_addr #0 align 2

; Function Attrs: nounwind ssp uwtable
define linkonce_odr hidden void @_ZN7content19WebContentsObserver22OnWebContentsLostFocusEPNS_16RenderWidgetHostE(%"class.content::WebContentsObserver"*, %"class.content::RenderWidgetHost"*) unnamed_addr #0 comdat align 2 {
  ret void
}

; Function Attrs: nounwind ssp uwtable
define linkonce_odr hidden void @_ZN7content19WebContentsObserver20OnFocusChangedInPageEPNS_18FocusedNodeDetailsE(%"class.content::WebContentsObserver"*, %"struct.content::FocusedNodeDetails"*) unnamed_addr #0 comdat align 2 {
  ret void
}

; Function Attrs: nounwind ssp uwtable
define linkonce_odr hidden void @_ZN7content19WebContentsObserver23DidUpdateWebManifestURLEPNS_15RenderFrameHostERKN4absl8optionalI4GURLEE(%"class.content::WebContentsObserver"*, %"class.content::RenderFrameHost"*, %"class.absl::optional.322"* dereferenceable(128)) unnamed_addr #0 comdat align 2 {
  ret void
}

; Function Attrs: nounwind ssp uwtable
define linkonce_odr hidden void @_ZN7content19WebContentsObserver27OnInterfaceRequestFromFrameEPNS_15RenderFrameHostERKNSt3__112basic_stringIcNS3_11char_traitsIcEENS3_9allocatorIcEEEEPN4mojo16ScopedHandleBaseINSC_17MessagePipeHandleEEE(%"class.content::WebContentsObserver"*, %"class.content::RenderFrameHost"*, %"class.std::__1::basic_string"* dereferenceable(24), %"class.mojo::ScopedHandleBase"*) unnamed_addr #0 comdat align 2 {
  ret void
}

; Function Attrs: nounwind ssp uwtable
define linkonce_odr hidden void @_ZN7content19WebContentsObserver27AudioContextPlaybackStartedERKNSt3__14pairIPNS_15RenderFrameHostEiEE(%"class.content::WebContentsObserver"*, %"struct.std::__1::pair.327"*) unnamed_addr #0 comdat align 2 {
  ret void
}

; Function Attrs: nounwind ssp uwtable
define linkonce_odr hidden void @_ZN7content19WebContentsObserver27AudioContextPlaybackStoppedERKNSt3__14pairIPNS_15RenderFrameHostEiEE(%"class.content::WebContentsObserver"*, %"struct.std::__1::pair.327"*) unnamed_addr #0 comdat align 2 {
  ret void
}

; Function Attrs: nounwind ssp uwtable
define linkonce_odr hidden void @_ZN7content19WebContentsObserver23OnServiceWorkerAccessedEPNS_15RenderFrameHostERK4GURLNS_24AllowServiceWorkerResultE(%"class.content::WebContentsObserver"*, %"class.content::RenderFrameHost"*, %class.GURL* dereferenceable(120), i24) unnamed_addr #0 comdat align 2 {
  ret void
}

; Function Attrs: nounwind ssp uwtable
define linkonce_odr hidden void @_ZN7content19WebContentsObserver23OnServiceWorkerAccessedEPNS_16NavigationHandleERK4GURLNS_24AllowServiceWorkerResultE(%"class.content::WebContentsObserver"*, %"class.content::NavigationHandle"*, %class.GURL* dereferenceable(120), i24) unnamed_addr #0 comdat align 2 {
  ret void
}

; Function Attrs: nounwind ssp uwtable
define linkonce_odr hidden void @_ZThn712_N21WebUIOmniboxPopupViewD1Ev(%class.WebUIOmniboxPopupView*) unnamed_addr #0 comdat align 2 {
  %2 = getelementptr inbounds %class.WebUIOmniboxPopupView, %class.WebUIOmniboxPopupView* %0, i64 -1, i32 0, i32 0, i32 2, i32 3, i32 2
  %3 = bitcast i64* %2 to %"class.views::WebView"*
  tail call void @_ZN5views7WebViewD2Ev(%"class.views::WebView"* %3) #9
  ret void
}

; Function Attrs: nounwind ssp uwtable
define linkonce_odr hidden void @_ZThn712_N21WebUIOmniboxPopupViewD0Ev(%class.WebUIOmniboxPopupView*) unnamed_addr #0 comdat align 2 {
  %2 = getelementptr inbounds %class.WebUIOmniboxPopupView, %class.WebUIOmniboxPopupView* %0, i64 -1, i32 0, i32 0, i32 2, i32 3, i32 2
  %3 = bitcast i64* %2 to %"class.views::WebView"*
  tail call void @_ZN5views7WebViewD2Ev(%"class.views::WebView"* %3) #9
  %4 = bitcast i64* %2 to i8*
  tail call void @_ZdlPv(i8* %4) #10
  ret void
}

; Function Attrs: nounwind ssp uwtable
declare void @_ZThn712_N5views7WebView13OnAXModeAddedEN2ui6AXModeE(%"class.views::WebView"*, i32) unnamed_addr #0 align 2

; Function Attrs: nobuiltin nounwind
declare void @_ZdlPv(i8*) local_unnamed_addr #7

; Function Attrs: nobuiltin nofree
declare noalias nonnull i8* @_Znwm(i64) local_unnamed_addr #8

declare void @_ZN2ui8metadata17RegisterClassInfoENSt3__110unique_ptrINS0_13ClassMetaDataENS1_14default_deleteIS3_EEEE(%"class.ui::metadata::ClassMetaData"*) local_unnamed_addr #1

; Function Attrs: nounwind ssp uwtable
define linkonce_odr hidden void @_ZN21WebUIOmniboxPopupView30WebUIOmniboxPopupView_MetaDataC2Ev(%"class.WebUIOmniboxPopupView::WebUIOmniboxPopupView_MetaData"*) unnamed_addr #0 comdat align 2 {
  %2 = alloca %"class.std::__1::basic_string", align 8
  %3 = alloca %"class.std::__1::basic_string", align 8
  %4 = bitcast %"class.WebUIOmniboxPopupView::WebUIOmniboxPopupView_MetaData"* %0 to %"class.ui::metadata::ClassMetaData"*
  %5 = tail call i8* @_Znwm(i64 80) #10
  %6 = getelementptr inbounds %"class.std::__1::basic_string", %"class.std::__1::basic_string"* %3, i64 0, i32 0, i32 0, i32 0, i32 0, i32 0, i32 0
  store i8* %5, i8** %6, align 8
  %7 = getelementptr inbounds %"class.std::__1::basic_string", %"class.std::__1::basic_string"* %3, i64 0, i32 0, i32 0, i32 0, i32 0, i32 0, i32 1
  %8 = bitcast i64* %7 to <2 x i64>*
  store <2 x i64> <i64 64, i64 -9223372036854775728>, <2 x i64>* %8, align 8
  tail call void @llvm.memcpy.p0i8.p0i8.i64(i8* nonnull align 1 %5, i8* align 1 getelementptr inbounds ([65 x i8], [65 x i8]* @.str.5, i64 0, i64 0), i64 64, i1 false) #9
  %9 = getelementptr inbounds i8, i8* %5, i64 64
  store i8 0, i8* %9, align 1
  call void @_ZN2ui8metadata13ClassMetaDataC2ENSt3__112basic_stringIcNS2_11char_traitsIcEENS2_9allocatorIcEEEEi(%"class.ui::metadata::ClassMetaData"* %4, %"class.std::__1::basic_string"* nonnull %3, i32 17) #9
  %10 = bitcast %"class.std::__1::basic_string"* %3 to %"struct.std::__1::basic_string<char, std::__1::char_traits<char>, std::__1::allocator<char> >::__short"*
  %11 = getelementptr inbounds %"struct.std::__1::basic_string<char, std::__1::char_traits<char>, std::__1::allocator<char> >::__short", %"struct.std::__1::basic_string<char, std::__1::char_traits<char>, std::__1::allocator<char> >::__short"* %10, i64 0, i32 1, i32 0
  %12 = load i8, i8* %11, align 1
  %13 = icmp slt i8 %12, 0
  br i1 %13, label %14, label %16

14:                                               ; preds = %1
  %15 = load i8*, i8** %6, align 8
  call void @_ZdlPv(i8* %15) #10
  br label %16

16:                                               ; preds = %1, %14
  %17 = getelementptr inbounds %"class.WebUIOmniboxPopupView::WebUIOmniboxPopupView_MetaData", %"class.WebUIOmniboxPopupView::WebUIOmniboxPopupView_MetaData"* %0, i64 0, i32 0, i32 0
  store i32 (...)** bitcast (i8** getelementptr inbounds ({ [5 x i8*] }, { [5 x i8*] }* @_ZTVN21WebUIOmniboxPopupView30WebUIOmniboxPopupView_MetaDataE, i64 0, inrange i32 0, i64 2) to i32 (...)**), i32 (...)*** %17, align 8
  %18 = bitcast %"class.std::__1::basic_string"* %2 to i8*
  call void @llvm.lifetime.start.p0i8(i64 24, i8* nonnull %18) #9
  %19 = bitcast %"class.std::__1::basic_string"* %2 to %"struct.std::__1::basic_string<char, std::__1::char_traits<char>, std::__1::allocator<char> >::__short"*
  %20 = getelementptr inbounds %"struct.std::__1::basic_string<char, std::__1::char_traits<char>, std::__1::allocator<char> >::__short", %"struct.std::__1::basic_string<char, std::__1::char_traits<char>, std::__1::allocator<char> >::__short"* %19, i64 0, i32 1, i32 0
  store i8 21, i8* %20, align 1
  call void @llvm.memcpy.p0i8.p0i8.i64(i8* nonnull align 8 %18, i8* align 1 getelementptr inbounds ([22 x i8], [22 x i8]* @_ZN21WebUIOmniboxPopupView14kViewClassNameE, i64 0, i64 0), i64 21, i1 false) #9
  %21 = getelementptr inbounds i8, i8* %18, i64 21
  store i8 0, i8* %21, align 1
  call void @_ZN2ui8metadata13ClassMetaData11SetTypeNameERKNSt3__112basic_stringIcNS2_11char_traitsIcEENS2_9allocatorIcEEEE(%"class.ui::metadata::ClassMetaData"* %4, %"class.std::__1::basic_string"* nonnull dereferenceable(24) %2) #9
  %22 = load i8, i8* %20, align 1
  %23 = icmp slt i8 %22, 0
  br i1 %23, label %24, label %27

24:                                               ; preds = %16
  %25 = getelementptr inbounds %"class.std::__1::basic_string", %"class.std::__1::basic_string"* %2, i64 0, i32 0, i32 0, i32 0, i32 0, i32 0, i32 0
  %26 = load i8*, i8** %25, align 8
  call void @_ZdlPv(i8* %26) #10
  br label %27

27:                                               ; preds = %16, %24
  call void @llvm.lifetime.end.p0i8(i64 24, i8* nonnull %18) #9
  %28 = call %"class.ui::metadata::ClassMetaData"* @_ZN5views7WebView8MetaDataEv() #9
  %29 = getelementptr inbounds %"class.WebUIOmniboxPopupView::WebUIOmniboxPopupView_MetaData", %"class.WebUIOmniboxPopupView::WebUIOmniboxPopupView_MetaData"* %0, i64 0, i32 0, i32 3
  store %"class.ui::metadata::ClassMetaData"* %28, %"class.ui::metadata::ClassMetaData"** %29, align 8
  ret void
}

declare void @_ZN2ui8metadata13ClassMetaDataC2ENSt3__112basic_stringIcNS2_11char_traitsIcEENS2_9allocatorIcEEEEi(%"class.ui::metadata::ClassMetaData"*, %"class.std::__1::basic_string"*, i32) unnamed_addr #1

attributes #0 = { nounwind ssp uwtable "correctly-rounded-divide-sqrt-fp-math"="false" "disable-tail-calls"="false" "less-precise-fpmad"="false" "min-legal-vector-width"="0" "no-frame-pointer-elim"="false" "no-frame-pointer-elim-non-leaf" "no-infs-fp-math"="false" "no-jump-tables"="false" "no-nans-fp-math"="false" "no-signed-zeros-fp-math"="false" "no-trapping-math"="false" "null-pointer-is-valid"="true" "stack-protector-buffer-size"="4" "target-cpu"="x86-64" "target-features"="+cx8,+fxsr,+mmx,+sse,+sse2,+sse3,+x87" "unsafe-fp-math"="false" "use-soft-float"="false" }
attributes #1 = { "correctly-rounded-divide-sqrt-fp-math"="false" "disable-tail-calls"="false" "less-precise-fpmad"="false" "no-frame-pointer-elim"="false" "no-frame-pointer-elim-non-leaf" "no-infs-fp-math"="false" "no-nans-fp-math"="false" "no-signed-zeros-fp-math"="false" "no-trapping-math"="false" "null-pointer-is-valid"="true" "stack-protector-buffer-size"="4" "target-cpu"="x86-64" "target-features"="+cx8,+fxsr,+mmx,+sse,+sse2,+sse3,+x87" "unsafe-fp-math"="false" "use-soft-float"="false" }
attributes #2 = { argmemonly nounwind }
attributes #3 = { nounwind "correctly-rounded-divide-sqrt-fp-math"="false" "disable-tail-calls"="false" "less-precise-fpmad"="false" "no-frame-pointer-elim"="false" "no-frame-pointer-elim-non-leaf" "no-infs-fp-math"="false" "no-nans-fp-math"="false" "no-signed-zeros-fp-math"="false" "no-trapping-math"="false" "null-pointer-is-valid"="true" "stack-protector-buffer-size"="4" "target-cpu"="x86-64" "target-features"="+cx8,+fxsr,+mmx,+sse,+sse2,+sse3,+x87" "unsafe-fp-math"="false" "use-soft-float"="false" }
attributes #4 = { norecurse nounwind readnone ssp uwtable "correctly-rounded-divide-sqrt-fp-math"="false" "disable-tail-calls"="false" "less-precise-fpmad"="false" "min-legal-vector-width"="0" "no-frame-pointer-elim"="false" "no-frame-pointer-elim-non-leaf" "no-infs-fp-math"="false" "no-jump-tables"="false" "no-nans-fp-math"="false" "no-signed-zeros-fp-math"="false" "no-trapping-math"="false" "null-pointer-is-valid"="true" "stack-protector-buffer-size"="4" "target-cpu"="x86-64" "target-features"="+cx8,+fxsr,+mmx,+sse,+sse2,+sse3,+x87" "unsafe-fp-math"="false" "use-soft-float"="false" }
attributes #5 = { inlinehint nounwind ssp uwtable "correctly-rounded-divide-sqrt-fp-math"="false" "disable-tail-calls"="false" "less-precise-fpmad"="false" "min-legal-vector-width"="0" "no-frame-pointer-elim"="false" "no-frame-pointer-elim-non-leaf" "no-infs-fp-math"="false" "no-jump-tables"="false" "no-nans-fp-math"="false" "no-signed-zeros-fp-math"="false" "no-trapping-math"="false" "null-pointer-is-valid"="true" "stack-protector-buffer-size"="4" "target-cpu"="x86-64" "target-features"="+cx8,+fxsr,+mmx,+sse,+sse2,+sse3,+x87" "unsafe-fp-math"="false" "use-soft-float"="false" }
attributes #6 = { nounwind ssp uwtable "correctly-rounded-divide-sqrt-fp-math"="false" "disable-tail-calls"="false" "less-precise-fpmad"="false" "min-legal-vector-width"="64" "no-frame-pointer-elim"="false" "no-frame-pointer-elim-non-leaf" "no-infs-fp-math"="false" "no-jump-tables"="false" "no-nans-fp-math"="false" "no-signed-zeros-fp-math"="false" "no-trapping-math"="false" "null-pointer-is-valid"="true" "stack-protector-buffer-size"="4" "target-cpu"="x86-64" "target-features"="+cx8,+fxsr,+mmx,+sse,+sse2,+sse3,+x87" "unsafe-fp-math"="false" "use-soft-float"="false" }
attributes #7 = { nobuiltin nounwind "correctly-rounded-divide-sqrt-fp-math"="false" "disable-tail-calls"="false" "less-precise-fpmad"="false" "no-frame-pointer-elim"="false" "no-frame-pointer-elim-non-leaf" "no-infs-fp-math"="false" "no-nans-fp-math"="false" "no-signed-zeros-fp-math"="false" "no-trapping-math"="false" "null-pointer-is-valid"="true" "stack-protector-buffer-size"="4" "target-cpu"="x86-64" "target-features"="+cx8,+fxsr,+mmx,+sse,+sse2,+sse3,+x87" "unsafe-fp-math"="false" "use-soft-float"="false" }
attributes #8 = { nobuiltin nofree "correctly-rounded-divide-sqrt-fp-math"="false" "disable-tail-calls"="false" "less-precise-fpmad"="false" "no-frame-pointer-elim"="false" "no-frame-pointer-elim-non-leaf" "no-infs-fp-math"="false" "no-nans-fp-math"="false" "no-signed-zeros-fp-math"="false" "no-trapping-math"="false" "null-pointer-is-valid"="true" "stack-protector-buffer-size"="4" "target-cpu"="x86-64" "target-features"="+cx8,+fxsr,+mmx,+sse,+sse2,+sse3,+x87" "unsafe-fp-math"="false" "use-soft-float"="false" }
attributes #9 = { nounwind }
attributes #10 = { builtin nounwind }

!llvm.module.flags = !{!0, !1}

!0 = !{i32 1, !"wchar_size", i32 4}
!1 = !{i32 7, !"PIC Level", i32 2}
