; ModuleID = '../../extensions/common/manifest_handlers/webview_info.cc'
source_filename = "../../extensions/common/manifest_handlers/webview_info.cc"
target datalayout = "e-m:e-i64:64-f80:128-n8:16:32:64-S128"
target triple = "x86_64-unknown-linux-gnu"

module asm ".symver exp, exp@GLIBC_2.2.5"
module asm ".symver exp2, exp2@GLIBC_2.2.5"
module asm ".symver exp2f, exp2f@GLIBC_2.2.5"
module asm ".symver expf, expf@GLIBC_2.2.5"
module asm ".symver lgamma, lgamma@GLIBC_2.2.5"
module asm ".symver lgammaf, lgammaf@GLIBC_2.2.5"
module asm ".symver lgammal, lgammal@GLIBC_2.2.5"
module asm ".symver log, log@GLIBC_2.2.5"
module asm ".symver log2, log2@GLIBC_2.2.5"
module asm ".symver log2f, log2f@GLIBC_2.2.5"
module asm ".symver logf, logf@GLIBC_2.2.5"
module asm ".symver pow, pow@GLIBC_2.2.5"
module asm ".symver powf, powf@GLIBC_2.2.5"

%"class.extensions::WebviewInfo" = type { %"struct.extensions::Extension::ManifestData", %"class.std::__1::basic_string", %"class.std::__1::vector" }
%"struct.extensions::Extension::ManifestData" = type { i32 (...)** }
%"class.std::__1::basic_string" = type { %"class.std::__1::__compressed_pair" }
%"class.std::__1::__compressed_pair" = type { %"struct.std::__1::__compressed_pair_elem" }
%"struct.std::__1::__compressed_pair_elem" = type { %"struct.std::__1::basic_string<char, std::__1::char_traits<char>, std::__1::allocator<char> >::__rep" }
%"struct.std::__1::basic_string<char, std::__1::char_traits<char>, std::__1::allocator<char> >::__rep" = type { %union.anon }
%union.anon = type { %"struct.std::__1::basic_string<char, std::__1::char_traits<char>, std::__1::allocator<char> >::__long" }
%"struct.std::__1::basic_string<char, std::__1::char_traits<char>, std::__1::allocator<char> >::__long" = type { i8*, i64, i64 }
%"class.std::__1::vector" = type { %"class.std::__1::__vector_base" }
%"class.std::__1::__vector_base" = type { %"class.std::__1::unique_ptr"*, %"class.std::__1::unique_ptr"*, %"class.std::__1::__compressed_pair.12" }
%"class.std::__1::unique_ptr" = type { %"class.std::__1::__compressed_pair.1" }
%"class.std::__1::__compressed_pair.1" = type { %"struct.std::__1::__compressed_pair_elem.2" }
%"struct.std::__1::__compressed_pair_elem.2" = type { %"class.extensions::PartitionItem"* }
%"class.extensions::PartitionItem" = type { i32 (...)**, %"class.std::__1::basic_string", %"class.extensions::URLPatternSet" }
%"class.extensions::URLPatternSet" = type { %"class.std::__1::set" }
%"class.std::__1::set" = type { %"class.std::__1::__tree" }
%"class.std::__1::__tree" = type { %"class.std::__1::__tree_end_node"*, %"class.std::__1::__compressed_pair.3", %"class.std::__1::__compressed_pair.8" }
%"class.std::__1::__tree_end_node" = type { %"class.std::__1::__tree_node_base"* }
%"class.std::__1::__tree_node_base" = type <{ %"class.std::__1::__tree_end_node", %"class.std::__1::__tree_node_base"*, %"class.std::__1::__tree_end_node"*, i8, [7 x i8] }>
%"class.std::__1::__compressed_pair.3" = type { %"struct.std::__1::__compressed_pair_elem.4" }
%"struct.std::__1::__compressed_pair_elem.4" = type { %"class.std::__1::__tree_end_node" }
%"class.std::__1::__compressed_pair.8" = type { %"struct.std::__1::__compressed_pair_elem.9" }
%"struct.std::__1::__compressed_pair_elem.9" = type { i64 }
%"class.std::__1::__compressed_pair.12" = type { %"struct.std::__1::__compressed_pair_elem.13" }
%"struct.std::__1::__compressed_pair_elem.13" = type { %"class.std::__1::unique_ptr"* }
%"class.extensions::WebviewHandler" = type { %"class.extensions::ManifestHandler" }
%"class.extensions::ManifestHandler" = type { i32 (...)** }
%"struct.std::__1::basic_string<char, std::__1::char_traits<char>, std::__1::allocator<char> >::__short" = type { [23 x i8], %struct.anon }
%struct.anon = type { i8 }
%"class.extensions::Extension" = type { %"class.base::RefCountedThreadSafe", %"class.std::__1::basic_string", %"class.std::__1::basic_string", %"class.std::__1::basic_string", i32, %"class.base::FilePath", %"class.extensions::URLPatternSet", %"class.std::__1::unique_ptr.18", %"class.std::__1::unique_ptr.24", %"class.std::__1::vector.30", %class.GURL, %"class.base::Version", %"class.std::__1::basic_string", %"class.std::__1::basic_string", i8, %"class.std::__1::basic_string", %"class.std::__1::unique_ptr.50", %"class.std::__1::map", i8, %"class.base::ThreadChecker", i8, i8, i8, i32, %"class.base::GUID" }
%"class.base::RefCountedThreadSafe" = type { %"class.base::subtle::RefCountedThreadSafeBase" }
%"class.base::subtle::RefCountedThreadSafeBase" = type { %"class.base::AtomicRefCount" }
%"class.base::AtomicRefCount" = type { %"struct.std::__1::atomic" }
%"struct.std::__1::atomic" = type { %"struct.std::__1::__atomic_base" }
%"struct.std::__1::__atomic_base" = type { %"struct.std::__1::__atomic_base.17" }
%"struct.std::__1::__atomic_base.17" = type { %"struct.std::__1::__cxx_atomic_impl" }
%"struct.std::__1::__cxx_atomic_impl" = type { %"struct.std::__1::__cxx_atomic_base_impl" }
%"struct.std::__1::__cxx_atomic_base_impl" = type { i32 }
%"class.base::FilePath" = type { %"class.std::__1::basic_string" }
%"class.std::__1::unique_ptr.18" = type { %"class.std::__1::__compressed_pair.19" }
%"class.std::__1::__compressed_pair.19" = type { %"struct.std::__1::__compressed_pair_elem.20" }
%"struct.std::__1::__compressed_pair_elem.20" = type { %"class.extensions::PermissionsParser"* }
%"class.extensions::PermissionsParser" = type opaque
%"class.std::__1::unique_ptr.24" = type { %"class.std::__1::__compressed_pair.25" }
%"class.std::__1::__compressed_pair.25" = type { %"struct.std::__1::__compressed_pair_elem.26" }
%"struct.std::__1::__compressed_pair_elem.26" = type { %"class.extensions::PermissionsData"* }
%"class.extensions::PermissionsData" = type opaque
%"class.std::__1::vector.30" = type { %"class.std::__1::__vector_base.31" }
%"class.std::__1::__vector_base.31" = type { %"struct.extensions::InstallWarning"*, %"struct.extensions::InstallWarning"*, %"class.std::__1::__compressed_pair.32" }
%"struct.extensions::InstallWarning" = type { %"class.std::__1::basic_string", %"class.std::__1::basic_string", %"class.std::__1::basic_string" }
%"class.std::__1::__compressed_pair.32" = type { %"struct.std::__1::__compressed_pair_elem.33" }
%"struct.std::__1::__compressed_pair_elem.33" = type { %"struct.extensions::InstallWarning"* }
%class.GURL = type { %"class.std::__1::basic_string", i8, %"struct.url::Parsed", %"class.std::__1::unique_ptr.37" }
%"struct.url::Parsed" = type { %"struct.url::Component", %"struct.url::Component", %"struct.url::Component", %"struct.url::Component", %"struct.url::Component", %"struct.url::Component", %"struct.url::Component", %"struct.url::Component", i8, %"struct.url::Parsed"* }
%"struct.url::Component" = type { i32, i32 }
%"class.std::__1::unique_ptr.37" = type { %"class.std::__1::__compressed_pair.38" }
%"class.std::__1::__compressed_pair.38" = type { %"struct.std::__1::__compressed_pair_elem.39" }
%"struct.std::__1::__compressed_pair_elem.39" = type { %class.GURL* }
%"class.base::Version" = type { %"class.std::__1::vector.43" }
%"class.std::__1::vector.43" = type { %"class.std::__1::__vector_base.44" }
%"class.std::__1::__vector_base.44" = type { i32*, i32*, %"class.std::__1::__compressed_pair.45" }
%"class.std::__1::__compressed_pair.45" = type { %"struct.std::__1::__compressed_pair_elem.46" }
%"struct.std::__1::__compressed_pair_elem.46" = type { i32* }
%"class.std::__1::unique_ptr.50" = type { %"class.std::__1::__compressed_pair.51" }
%"class.std::__1::__compressed_pair.51" = type { %"struct.std::__1::__compressed_pair_elem.52" }
%"struct.std::__1::__compressed_pair_elem.52" = type { %"class.extensions::Manifest"* }
%"class.extensions::Manifest" = type { %"class.std::__1::basic_string", %"class.extensions::HashedExtensionId", i32, %"class.std::__1::unique_ptr.53", %"class.std::__1::unique_ptr.53", i32, i32 }
%"class.extensions::HashedExtensionId" = type { %"class.std::__1::basic_string" }
%"class.std::__1::unique_ptr.53" = type { %"class.std::__1::__compressed_pair.54" }
%"class.std::__1::__compressed_pair.54" = type { %"struct.std::__1::__compressed_pair_elem.55" }
%"struct.std::__1::__compressed_pair_elem.55" = type { %"class.base::DictionaryValue"* }
%"class.base::DictionaryValue" = type { %"class.base::Value" }
%"class.base::Value" = type { %"class.absl::variant" }
%"class.absl::variant" = type { %"class.absl::variant_internal::VariantCopyAssignBaseNontrivial" }
%"class.absl::variant_internal::VariantCopyAssignBaseNontrivial" = type { %"class.absl::variant_internal::VariantMoveAssignBaseNontrivial" }
%"class.absl::variant_internal::VariantMoveAssignBaseNontrivial" = type { %"class.absl::variant_internal::VariantCopyBaseNontrivial" }
%"class.absl::variant_internal::VariantCopyBaseNontrivial" = type { %"class.absl::variant_internal::VariantMoveBaseNontrivial" }
%"class.absl::variant_internal::VariantMoveBaseNontrivial" = type { %"class.absl::variant_internal::VariantStateBaseDestructorNontrivial" }
%"class.absl::variant_internal::VariantStateBaseDestructorNontrivial" = type { %"class.absl::variant_internal::VariantStateBase" }
%"class.absl::variant_internal::VariantStateBase" = type { %"union.absl::variant_internal::DestructibleUnionImpl", i64 }
%"union.absl::variant_internal::DestructibleUnionImpl" = type { %"union.absl::variant_internal::DestructibleUnionImpl.56" }
%"union.absl::variant_internal::DestructibleUnionImpl.56" = type { %"union.absl::variant_internal::DestructibleUnionImpl.57" }
%"union.absl::variant_internal::DestructibleUnionImpl.57" = type { %"union.absl::variant_internal::DestructibleUnionImpl.58" }
%"union.absl::variant_internal::DestructibleUnionImpl.58" = type { %"union.absl::variant_internal::DestructibleUnionImpl.59" }
%"union.absl::variant_internal::DestructibleUnionImpl.59" = type { %"class.std::__1::basic_string" }
%"class.std::__1::map" = type { %"class.std::__1::__tree.91" }
%"class.std::__1::__tree.91" = type { %"class.std::__1::__tree_end_node"*, %"class.std::__1::__compressed_pair.92", %"class.std::__1::__compressed_pair.96" }
%"class.std::__1::__compressed_pair.92" = type { %"struct.std::__1::__compressed_pair_elem.4" }
%"class.std::__1::__compressed_pair.96" = type { %"struct.std::__1::__compressed_pair_elem.9" }
%"class.base::ThreadChecker" = type { i8 }
%"class.base::GUID" = type { %"class.std::__1::basic_string" }
%"class.std::__1::__basic_string_common" = type { i8 }
%"class.std::__1::basic_string.100" = type { %"class.std::__1::__compressed_pair.101" }
%"class.std::__1::__compressed_pair.101" = type { %"struct.std::__1::__compressed_pair_elem.102" }
%"struct.std::__1::__compressed_pair_elem.102" = type { %"struct.std::__1::basic_string<char16_t, std::__1::char_traits<char16_t>, std::__1::allocator<char16_t> >::__rep" }
%"struct.std::__1::basic_string<char16_t, std::__1::char_traits<char16_t>, std::__1::allocator<char16_t> >::__rep" = type { %union.anon.103 }
%union.anon.103 = type { %"struct.std::__1::basic_string<char16_t, std::__1::char_traits<char16_t>, std::__1::allocator<char16_t> >::__long" }
%"struct.std::__1::basic_string<char16_t, std::__1::char_traits<char16_t>, std::__1::allocator<char16_t> >::__long" = type { i16*, i64, i64 }
%"class.base::CheckedContiguousIterator" = type { %"class.base::Value"*, %"class.base::Value"*, %"class.base::Value"* }
%class.URLPattern = type { i32, i8, %"class.std::__1::basic_string", %"class.std::__1::basic_string", i8, %"class.std::__1::basic_string", %"class.std::__1::basic_string", %"class.std::__1::basic_string", %"class.std::__1::basic_string" }
%"struct.std::__1::basic_string<char16_t, std::__1::char_traits<char16_t>, std::__1::allocator<char16_t> >::__short" = type { [11 x i16], %struct.anon.104 }
%struct.anon.104 = type { %"struct.std::__1::__padding.105", i8 }
%"struct.std::__1::__padding.105" = type { [1 x i8] }
%"class.std::__1::vector.77" = type { %"class.std::__1::__vector_base.78" }
%"class.std::__1::__vector_base.78" = type { %"class.base::Value"*, %"class.base::Value"*, %"class.std::__1::__compressed_pair.79" }
%"class.std::__1::__compressed_pair.79" = type { %"struct.std::__1::__compressed_pair_elem.80" }
%"struct.std::__1::__compressed_pair_elem.80" = type { %"class.base::Value"* }
%"class.extensions::ManifestPermission" = type opaque
%"class.std::__1::basic_ostream" = type { i32 (...)**, %"class.std::__1::basic_ios.base" }
%"class.std::__1::basic_ios.base" = type <{ %"class.std::__1::ios_base", %"class.std::__1::basic_ostream"*, i32 }>
%"class.std::__1::ios_base" = type { i32 (...)**, i32, i64, i64, i32, i32, i8*, i8*, void (i32, %"class.std::__1::ios_base"*, i32)**, i32*, i64, i64, i64*, i64, i64, i8**, i64, i64 }
%"class.logging::CheckError" = type { %"class.logging::LogMessage"* }
%"class.logging::LogMessage" = type { i32 (...)**, i32, %"class.std::__1::basic_ostringstream", i64, i8*, i32, %"class.base::ScopedClearLastErrorBase" }
%"class.std::__1::basic_ostringstream" = type { %"class.std::__1::basic_ostream.base", %"class.std::__1::basic_stringbuf", %"class.std::__1::basic_ios.base" }
%"class.std::__1::basic_ostream.base" = type { i32 (...)** }
%"class.std::__1::basic_stringbuf" = type <{ %"class.std::__1::basic_streambuf", %"class.std::__1::basic_string", i8*, i32, [4 x i8] }>
%"class.std::__1::basic_streambuf" = type { i32 (...)**, %"class.std::__1::locale", i8*, i8*, i8*, i8*, i8*, i8* }
%"class.std::__1::locale" = type { %"class.std::__1::locale::__imp"* }
%"class.std::__1::locale::__imp" = type opaque
%"class.base::ScopedClearLastErrorBase" = type { i32 }
%"class.logging::CheckOpResult" = type { i8* }
%"class.std::__1::__vector_base_common" = type { i8 }

$_ZNK4base25CheckedContiguousIteratorIKNS_5ValueEEdeEv = comdat any

$_ZN4base25CheckedContiguousIteratorIKNS_5ValueEEC2EPS2_S4_S4_ = comdat any

$_ZZN7logging15CheckOpValueStrIPKN4base5ValueEEENSt3__19enable_ifIXaasr4base8internal23SupportsOstreamOperatorIRKT_EE5valuentsr3std11is_functionINS5_14remove_pointerIS7_E4typeEEE5valueEPcE4typeES9_ENUlRNS5_13basic_ostreamIcNS5_11char_traitsIcEEEEPKvE_8__invokeESK_SM_ = comdat any

$_ZN4base25CheckedContiguousIteratorIKNS_5ValueEEpLEl = comdat any

$_ZNSt3__16vectorINS_10unique_ptrIN10extensions13PartitionItemENS_14default_deleteIS3_EEEENS_9allocatorIS6_EEE21__push_back_slow_pathIS6_EEvOT_ = comdat any

$_ZN10extensions13PartitionItemD2Ev = comdat any

$_ZN10extensions13PartitionItemD0Ev = comdat any

$_ZTVN10extensions13PartitionItemE = comdat any

@_ZTVN10extensions11WebviewInfoE = hidden unnamed_addr constant { [4 x i8*] } { [4 x i8*] [i8* null, i8* null, i8* bitcast (void (%"class.extensions::WebviewInfo"*)* @_ZN10extensions11WebviewInfoD2Ev to i8*), i8* bitcast (void (%"class.extensions::WebviewInfo"*)* @_ZN10extensions11WebviewInfoD0Ev to i8*)] }, align 8
@_ZN10extensions13manifest_keys27kWebviewAccessibleResourcesE = external constant [0 x i8], align 1
@_ZTVN10extensions14WebviewHandlerE = hidden unnamed_addr constant { [12 x i8*] } { [12 x i8*] [i8* null, i8* null, i8* bitcast (void (%"class.extensions::WebviewHandler"*)* @_ZN10extensions14WebviewHandlerD2Ev to i8*), i8* bitcast (void (%"class.extensions::WebviewHandler"*)* @_ZN10extensions14WebviewHandlerD0Ev to i8*), i8* bitcast (i1 (%"class.extensions::WebviewHandler"*, %"class.extensions::Extension"*, %"class.std::__1::basic_string.100"*)* @_ZN10extensions14WebviewHandler5ParseEPNS_9ExtensionEPNSt3__112basic_stringIDsNS3_11char_traitsIDsEENS3_9allocatorIDsEEEE to i8*), i8* bitcast (i1 (%"class.extensions::ManifestHandler"*, %"class.extensions::Extension"*, %"class.std::__1::basic_string"*, %"class.std::__1::vector.30"*)* @_ZNK10extensions15ManifestHandler8ValidateEPKNS_9ExtensionEPNSt3__112basic_stringIcNS4_11char_traitsIcEENS4_9allocatorIcEEEEPNS4_6vectorINS_14InstallWarningENS8_ISD_EEEE to i8*), i8* bitcast (i1 (%"class.extensions::ManifestHandler"*, i32)* @_ZNK10extensions15ManifestHandler18AlwaysParseForTypeENS_8Manifest4TypeE to i8*), i8* bitcast (i1 (%"class.extensions::ManifestHandler"*, i32)* @_ZNK10extensions15ManifestHandler21AlwaysValidateForTypeENS_8Manifest4TypeE to i8*), i8* bitcast (void ()* @_ZNK10extensions15ManifestHandler16PrerequisiteKeysEv to i8*), i8* bitcast (%"class.extensions::ManifestPermission"* (%"class.extensions::ManifestHandler"*)* @_ZN10extensions15ManifestHandler16CreatePermissionEv to i8*), i8* bitcast (%"class.extensions::ManifestPermission"* (%"class.extensions::ManifestHandler"*, %"class.extensions::Extension"*)* @_ZN10extensions15ManifestHandler31CreateInitialRequiredPermissionEPKNS_9ExtensionE to i8*), i8* bitcast ({ i64, i8** } (%"class.extensions::WebviewHandler"*)* @_ZNK10extensions14WebviewHandler4KeysEv to i8*)] }, align 8
@_ZN10extensions13manifest_keys8kWebviewE = external constant [0 x i8], align 1
@_ZN10extensions15manifest_errors15kInvalidWebviewE = external constant [0 x i8], align 1
@_ZN10extensions13manifest_keys18kWebviewPartitionsE = external constant [0 x i8], align 1
@_ZN10extensions15manifest_errors29kInvalidWebviewPartitionsListE = external constant [0 x i8], align 1
@_ZN10extensions15manifest_errors24kInvalidWebviewPartitionE = external constant [0 x i8], align 1
@_ZN10extensions13manifest_keys12kWebviewNameE = external constant [0 x i8], align 1
@_ZN10extensions15manifest_errors28kInvalidWebviewPartitionNameE = external constant [0 x i8], align 1
@_ZN10extensions15manifest_errors38kInvalidWebviewAccessibleResourcesListE = external constant [0 x i8], align 1
@_ZN10extensions15manifest_errors33kInvalidWebviewAccessibleResourceE = external constant [0 x i8], align 1
@_ZZNK10extensions14WebviewHandler4KeysEvE5kKeys = internal constant [1 x i8*] [i8* getelementptr inbounds ([0 x i8], [0 x i8]* @_ZN10extensions13manifest_keys8kWebviewE, i32 0, i32 0)], align 8
@.str.2 = private unnamed_addr constant [17 x i8] c"start <= current\00", align 1
@.str.3 = private unnamed_addr constant [42 x i8] c"../../base/containers/checked_iterators.h\00", align 1
@.str.4 = private unnamed_addr constant [15 x i8] c"current <= end\00", align 1
@.str.5 = private unnamed_addr constant [23 x i8] c"rhs <= end_ - current_\00", align 1
@.str.6 = private unnamed_addr constant [26 x i8] c"-rhs <= current_ - start_\00", align 1
@.str.7 = private unnamed_addr constant [17 x i8] c"current_ != end_\00", align 1
@_ZTVN10extensions13PartitionItemE = linkonce_odr hidden unnamed_addr constant { [4 x i8*] } { [4 x i8*] [i8* null, i8* null, i8* bitcast (void (%"class.extensions::PartitionItem"*)* @_ZN10extensions13PartitionItemD2Ev to i8*), i8* bitcast (void (%"class.extensions::PartitionItem"*)* @_ZN10extensions13PartitionItemD0Ev to i8*)] }, comdat, align 8

@_ZN10extensions11WebviewInfoC1ERKNSt3__112basic_stringIcNS1_11char_traitsIcEENS1_9allocatorIcEEEE = hidden unnamed_addr alias void (%"class.extensions::WebviewInfo"*, %"class.std::__1::basic_string"*), void (%"class.extensions::WebviewInfo"*, %"class.std::__1::basic_string"*)* @_ZN10extensions11WebviewInfoC2ERKNSt3__112basic_stringIcNS1_11char_traitsIcEENS1_9allocatorIcEEEE
@_ZN10extensions11WebviewInfoD1Ev = hidden unnamed_addr alias void (%"class.extensions::WebviewInfo"*), void (%"class.extensions::WebviewInfo"*)* @_ZN10extensions11WebviewInfoD2Ev
@_ZN10extensions14WebviewHandlerC1Ev = hidden unnamed_addr alias void (%"class.extensions::WebviewHandler"*), void (%"class.extensions::WebviewHandler"*)* @_ZN10extensions14WebviewHandlerC2Ev
@_ZN10extensions14WebviewHandlerD1Ev = hidden unnamed_addr alias void (%"class.extensions::WebviewHandler"*), void (%"class.extensions::WebviewHandler"*)* @_ZN10extensions14WebviewHandlerD2Ev

; Function Attrs: nounwind ssp uwtable
define hidden void @_ZN10extensions11WebviewInfoC2ERKNSt3__112basic_stringIcNS1_11char_traitsIcEENS1_9allocatorIcEEEE(%"class.extensions::WebviewInfo"*, %"class.std::__1::basic_string"* nocapture readonly dereferenceable(24)) unnamed_addr #0 align 2 {
  %3 = getelementptr inbounds %"class.extensions::WebviewInfo", %"class.extensions::WebviewInfo"* %0, i64 0, i32 0, i32 0
  store i32 (...)** bitcast (i8** getelementptr inbounds ({ [4 x i8*] }, { [4 x i8*] }* @_ZTVN10extensions11WebviewInfoE, i64 0, inrange i32 0, i64 2) to i32 (...)**), i32 (...)*** %3, align 8
  %4 = getelementptr inbounds %"class.extensions::WebviewInfo", %"class.extensions::WebviewInfo"* %0, i64 0, i32 1
  %5 = bitcast %"class.std::__1::basic_string"* %1 to %"struct.std::__1::basic_string<char, std::__1::char_traits<char>, std::__1::allocator<char> >::__short"*
  %6 = getelementptr inbounds %"struct.std::__1::basic_string<char, std::__1::char_traits<char>, std::__1::allocator<char> >::__short", %"struct.std::__1::basic_string<char, std::__1::char_traits<char>, std::__1::allocator<char> >::__short"* %5, i64 0, i32 1, i32 0
  %7 = load i8, i8* %6, align 1
  %8 = icmp slt i8 %7, 0
  br i1 %8, label %12, label %9

9:                                                ; preds = %2
  %10 = bitcast %"class.std::__1::basic_string"* %4 to i8*
  %11 = bitcast %"class.std::__1::basic_string"* %1 to i8*
  tail call void @llvm.memcpy.p0i8.p0i8.i64(i8* align 8 %10, i8* align 8 %11, i64 24, i1 false) #12
  br label %17

12:                                               ; preds = %2
  %13 = getelementptr inbounds %"class.std::__1::basic_string", %"class.std::__1::basic_string"* %1, i64 0, i32 0, i32 0, i32 0, i32 0, i32 0, i32 0
  %14 = load i8*, i8** %13, align 8
  %15 = getelementptr inbounds %"class.std::__1::basic_string", %"class.std::__1::basic_string"* %1, i64 0, i32 0, i32 0, i32 0, i32 0, i32 0, i32 1
  %16 = load i64, i64* %15, align 8
  tail call void @_ZNSt3__112basic_stringIcNS_11char_traitsIcEENS_9allocatorIcEEE25__init_copy_ctor_externalEPKcm(%"class.std::__1::basic_string"* %4, i8* %14, i64 %16) #12
  br label %17

17:                                               ; preds = %9, %12
  %18 = getelementptr inbounds %"class.extensions::WebviewInfo", %"class.extensions::WebviewInfo"* %0, i64 0, i32 2
  %19 = bitcast %"class.std::__1::vector"* %18 to i8*
  tail call void @llvm.memset.p0i8.i64(i8* align 8 %19, i8 0, i64 24, i1 false) #12
  ret void
}

; Function Attrs: nounwind ssp uwtable
define hidden void @_ZN10extensions11WebviewInfoD2Ev(%"class.extensions::WebviewInfo"* nocapture) unnamed_addr #0 align 2 {
  %2 = getelementptr inbounds %"class.extensions::WebviewInfo", %"class.extensions::WebviewInfo"* %0, i64 0, i32 0, i32 0
  store i32 (...)** bitcast (i8** getelementptr inbounds ({ [4 x i8*] }, { [4 x i8*] }* @_ZTVN10extensions11WebviewInfoE, i64 0, inrange i32 0, i64 2) to i32 (...)**), i32 (...)*** %2, align 8
  %3 = getelementptr inbounds %"class.extensions::WebviewInfo", %"class.extensions::WebviewInfo"* %0, i64 0, i32 2
  %4 = getelementptr inbounds %"class.std::__1::vector", %"class.std::__1::vector"* %3, i64 0, i32 0, i32 0
  %5 = load %"class.std::__1::unique_ptr"*, %"class.std::__1::unique_ptr"** %4, align 8
  %6 = icmp eq %"class.std::__1::unique_ptr"* %5, null
  br i1 %6, label %30, label %7

7:                                                ; preds = %1
  %8 = bitcast %"class.std::__1::unique_ptr"* %5 to i8*
  %9 = getelementptr inbounds %"class.extensions::WebviewInfo", %"class.extensions::WebviewInfo"* %0, i64 0, i32 2, i32 0, i32 1
  %10 = load %"class.std::__1::unique_ptr"*, %"class.std::__1::unique_ptr"** %9, align 8
  %11 = icmp eq %"class.std::__1::unique_ptr"* %10, %5
  br i1 %11, label %28, label %12

12:                                               ; preds = %7, %23
  %13 = phi %"class.std::__1::unique_ptr"* [ %14, %23 ], [ %10, %7 ]
  %14 = getelementptr inbounds %"class.std::__1::unique_ptr", %"class.std::__1::unique_ptr"* %13, i64 -1
  %15 = getelementptr inbounds %"class.std::__1::unique_ptr", %"class.std::__1::unique_ptr"* %14, i64 0, i32 0, i32 0, i32 0
  %16 = load %"class.extensions::PartitionItem"*, %"class.extensions::PartitionItem"** %15, align 8
  store %"class.extensions::PartitionItem"* null, %"class.extensions::PartitionItem"** %15, align 8
  %17 = icmp eq %"class.extensions::PartitionItem"* %16, null
  br i1 %17, label %23, label %18

18:                                               ; preds = %12
  %19 = bitcast %"class.extensions::PartitionItem"* %16 to void (%"class.extensions::PartitionItem"*)***
  %20 = load void (%"class.extensions::PartitionItem"*)**, void (%"class.extensions::PartitionItem"*)*** %19, align 8
  %21 = getelementptr inbounds void (%"class.extensions::PartitionItem"*)*, void (%"class.extensions::PartitionItem"*)** %20, i64 1
  %22 = load void (%"class.extensions::PartitionItem"*)*, void (%"class.extensions::PartitionItem"*)** %21, align 8
  tail call void %22(%"class.extensions::PartitionItem"* nonnull %16) #12
  br label %23

23:                                               ; preds = %18, %12
  %24 = icmp eq %"class.std::__1::unique_ptr"* %14, %5
  br i1 %24, label %25, label %12

25:                                               ; preds = %23
  %26 = bitcast %"class.std::__1::vector"* %3 to i8**
  %27 = load i8*, i8** %26, align 8
  br label %28

28:                                               ; preds = %25, %7
  %29 = phi i8* [ %27, %25 ], [ %8, %7 ]
  store %"class.std::__1::unique_ptr"* %5, %"class.std::__1::unique_ptr"** %9, align 8
  tail call void @_ZdlPv(i8* %29) #13
  br label %30

30:                                               ; preds = %1, %28
  %31 = getelementptr inbounds %"class.extensions::WebviewInfo", %"class.extensions::WebviewInfo"* %0, i64 0, i32 1
  %32 = bitcast %"class.std::__1::basic_string"* %31 to %"struct.std::__1::basic_string<char, std::__1::char_traits<char>, std::__1::allocator<char> >::__short"*
  %33 = getelementptr inbounds %"struct.std::__1::basic_string<char, std::__1::char_traits<char>, std::__1::allocator<char> >::__short", %"struct.std::__1::basic_string<char, std::__1::char_traits<char>, std::__1::allocator<char> >::__short"* %32, i64 0, i32 1, i32 0
  %34 = load i8, i8* %33, align 1
  %35 = icmp slt i8 %34, 0
  br i1 %35, label %36, label %39

36:                                               ; preds = %30
  %37 = getelementptr inbounds %"class.std::__1::basic_string", %"class.std::__1::basic_string"* %31, i64 0, i32 0, i32 0, i32 0, i32 0, i32 0, i32 0
  %38 = load i8*, i8** %37, align 8
  tail call void @_ZdlPv(i8* %38) #13
  br label %39

39:                                               ; preds = %30, %36
  ret void
}

; Function Attrs: nounwind ssp uwtable
define hidden void @_ZN10extensions11WebviewInfoD0Ev(%"class.extensions::WebviewInfo"*) unnamed_addr #0 align 2 {
  %2 = getelementptr inbounds %"class.extensions::WebviewInfo", %"class.extensions::WebviewInfo"* %0, i64 0, i32 0, i32 0
  store i32 (...)** bitcast (i8** getelementptr inbounds ({ [4 x i8*] }, { [4 x i8*] }* @_ZTVN10extensions11WebviewInfoE, i64 0, inrange i32 0, i64 2) to i32 (...)**), i32 (...)*** %2, align 8
  %3 = getelementptr inbounds %"class.extensions::WebviewInfo", %"class.extensions::WebviewInfo"* %0, i64 0, i32 2
  %4 = getelementptr inbounds %"class.std::__1::vector", %"class.std::__1::vector"* %3, i64 0, i32 0, i32 0
  %5 = load %"class.std::__1::unique_ptr"*, %"class.std::__1::unique_ptr"** %4, align 8
  %6 = icmp eq %"class.std::__1::unique_ptr"* %5, null
  br i1 %6, label %30, label %7

7:                                                ; preds = %1
  %8 = bitcast %"class.std::__1::unique_ptr"* %5 to i8*
  %9 = getelementptr inbounds %"class.extensions::WebviewInfo", %"class.extensions::WebviewInfo"* %0, i64 0, i32 2, i32 0, i32 1
  %10 = load %"class.std::__1::unique_ptr"*, %"class.std::__1::unique_ptr"** %9, align 8
  %11 = icmp eq %"class.std::__1::unique_ptr"* %10, %5
  br i1 %11, label %28, label %12

12:                                               ; preds = %7, %23
  %13 = phi %"class.std::__1::unique_ptr"* [ %14, %23 ], [ %10, %7 ]
  %14 = getelementptr inbounds %"class.std::__1::unique_ptr", %"class.std::__1::unique_ptr"* %13, i64 -1
  %15 = getelementptr inbounds %"class.std::__1::unique_ptr", %"class.std::__1::unique_ptr"* %14, i64 0, i32 0, i32 0, i32 0
  %16 = load %"class.extensions::PartitionItem"*, %"class.extensions::PartitionItem"** %15, align 8
  store %"class.extensions::PartitionItem"* null, %"class.extensions::PartitionItem"** %15, align 8
  %17 = icmp eq %"class.extensions::PartitionItem"* %16, null
  br i1 %17, label %23, label %18

18:                                               ; preds = %12
  %19 = bitcast %"class.extensions::PartitionItem"* %16 to void (%"class.extensions::PartitionItem"*)***
  %20 = load void (%"class.extensions::PartitionItem"*)**, void (%"class.extensions::PartitionItem"*)*** %19, align 8
  %21 = getelementptr inbounds void (%"class.extensions::PartitionItem"*)*, void (%"class.extensions::PartitionItem"*)** %20, i64 1
  %22 = load void (%"class.extensions::PartitionItem"*)*, void (%"class.extensions::PartitionItem"*)** %21, align 8
  tail call void %22(%"class.extensions::PartitionItem"* nonnull %16) #12
  br label %23

23:                                               ; preds = %18, %12
  %24 = icmp eq %"class.std::__1::unique_ptr"* %14, %5
  br i1 %24, label %25, label %12

25:                                               ; preds = %23
  %26 = bitcast %"class.std::__1::vector"* %3 to i8**
  %27 = load i8*, i8** %26, align 8
  br label %28

28:                                               ; preds = %25, %7
  %29 = phi i8* [ %27, %25 ], [ %8, %7 ]
  store %"class.std::__1::unique_ptr"* %5, %"class.std::__1::unique_ptr"** %9, align 8
  tail call void @_ZdlPv(i8* %29) #13
  br label %30

30:                                               ; preds = %28, %1
  %31 = getelementptr inbounds %"class.extensions::WebviewInfo", %"class.extensions::WebviewInfo"* %0, i64 0, i32 1
  %32 = bitcast %"class.std::__1::basic_string"* %31 to %"struct.std::__1::basic_string<char, std::__1::char_traits<char>, std::__1::allocator<char> >::__short"*
  %33 = getelementptr inbounds %"struct.std::__1::basic_string<char, std::__1::char_traits<char>, std::__1::allocator<char> >::__short", %"struct.std::__1::basic_string<char, std::__1::char_traits<char>, std::__1::allocator<char> >::__short"* %32, i64 0, i32 1, i32 0
  %34 = load i8, i8* %33, align 1
  %35 = icmp slt i8 %34, 0
  br i1 %35, label %36, label %39

36:                                               ; preds = %30
  %37 = getelementptr inbounds %"class.std::__1::basic_string", %"class.std::__1::basic_string"* %31, i64 0, i32 0, i32 0, i32 0, i32 0, i32 0, i32 0
  %38 = load i8*, i8** %37, align 8
  tail call void @_ZdlPv(i8* %38) #13
  br label %39

39:                                               ; preds = %30, %36
  %40 = bitcast %"class.extensions::WebviewInfo"* %0 to i8*
  tail call void @_ZdlPv(i8* %40) #13
  ret void
}

; Function Attrs: nobuiltin nounwind
declare void @_ZdlPv(i8*) local_unnamed_addr #1

; Function Attrs: nounwind ssp uwtable
define hidden zeroext i1 @_ZN10extensions11WebviewInfo27IsResourceWebviewAccessibleEPKNS_9ExtensionERKNSt3__112basic_stringIcNS4_11char_traitsIcEENS4_9allocatorIcEEEESC_(%"class.extensions::Extension"*, %"class.std::__1::basic_string"* dereferenceable(24), %"class.std::__1::basic_string"* dereferenceable(24)) local_unnamed_addr #0 align 2 {
  %4 = alloca %"class.std::__1::basic_string", align 8
  %5 = icmp eq %"class.extensions::Extension"* %0, null
  br i1 %5, label %90, label %6

6:                                                ; preds = %3
  %7 = bitcast %"class.std::__1::basic_string"* %4 to i8*
  call void @llvm.lifetime.start.p0i8(i64 24, i8* nonnull %7) #12
  %8 = tail call i64 @strlen(i8* getelementptr inbounds ([0 x i8], [0 x i8]* @_ZN10extensions13manifest_keys27kWebviewAccessibleResourcesE, i64 0, i64 0)) #12
  %9 = icmp ugt i64 %8, -17
  br i1 %9, label %10, label %12

10:                                               ; preds = %6
  %11 = bitcast %"class.std::__1::basic_string"* %4 to %"class.std::__1::__basic_string_common"*
  call void @_ZNKSt3__121__basic_string_commonILb1EE20__throw_length_errorEv(%"class.std::__1::__basic_string_common"* nonnull %11) #14
  unreachable

12:                                               ; preds = %6
  %13 = icmp ult i64 %8, 23
  br i1 %13, label %23, label %14

14:                                               ; preds = %12
  %15 = add nuw i64 %8, 16
  %16 = and i64 %15, -16
  %17 = tail call i8* @_Znwm(i64 %16) #13
  %18 = getelementptr inbounds %"class.std::__1::basic_string", %"class.std::__1::basic_string"* %4, i64 0, i32 0, i32 0, i32 0, i32 0, i32 0, i32 0
  store i8* %17, i8** %18, align 8
  %19 = or i64 %16, -9223372036854775808
  %20 = getelementptr inbounds %"class.std::__1::basic_string", %"class.std::__1::basic_string"* %4, i64 0, i32 0, i32 0, i32 0, i32 0, i32 0, i32 2
  store i64 %19, i64* %20, align 8
  %21 = getelementptr inbounds %"class.std::__1::basic_string", %"class.std::__1::basic_string"* %4, i64 0, i32 0, i32 0, i32 0, i32 0, i32 0, i32 1
  store i64 %8, i64* %21, align 8
  %22 = bitcast %"class.std::__1::basic_string"* %4 to %"struct.std::__1::basic_string<char, std::__1::char_traits<char>, std::__1::allocator<char> >::__short"*
  br label %28

23:                                               ; preds = %12
  %24 = trunc i64 %8 to i8
  %25 = bitcast %"class.std::__1::basic_string"* %4 to %"struct.std::__1::basic_string<char, std::__1::char_traits<char>, std::__1::allocator<char> >::__short"*
  %26 = getelementptr inbounds %"struct.std::__1::basic_string<char, std::__1::char_traits<char>, std::__1::allocator<char> >::__short", %"struct.std::__1::basic_string<char, std::__1::char_traits<char>, std::__1::allocator<char> >::__short"* %25, i64 0, i32 1, i32 0
  store i8 %24, i8* %26, align 1
  %27 = icmp eq i64 %8, 0
  br i1 %27, label %31, label %28

28:                                               ; preds = %23, %14
  %29 = phi %"struct.std::__1::basic_string<char, std::__1::char_traits<char>, std::__1::allocator<char> >::__short"* [ %25, %23 ], [ %22, %14 ]
  %30 = phi i8* [ %7, %23 ], [ %17, %14 ]
  call void @llvm.memcpy.p0i8.p0i8.i64(i8* nonnull align 1 %30, i8* align 1 getelementptr inbounds ([0 x i8], [0 x i8]* @_ZN10extensions13manifest_keys27kWebviewAccessibleResourcesE, i64 0, i64 0), i64 %8, i1 false) #12
  br label %31

31:                                               ; preds = %23, %28
  %32 = phi %"struct.std::__1::basic_string<char, std::__1::char_traits<char>, std::__1::allocator<char> >::__short"* [ %25, %23 ], [ %29, %28 ]
  %33 = phi i8* [ %7, %23 ], [ %30, %28 ]
  %34 = getelementptr inbounds i8, i8* %33, i64 %8
  store i8 0, i8* %34, align 1
  %35 = call %"struct.extensions::Extension::ManifestData"* @_ZNK10extensions9Extension15GetManifestDataERKNSt3__112basic_stringIcNS1_11char_traitsIcEENS1_9allocatorIcEEEE(%"class.extensions::Extension"* nonnull %0, %"class.std::__1::basic_string"* nonnull dereferenceable(24) %4) #12
  %36 = getelementptr inbounds %"struct.std::__1::basic_string<char, std::__1::char_traits<char>, std::__1::allocator<char> >::__short", %"struct.std::__1::basic_string<char, std::__1::char_traits<char>, std::__1::allocator<char> >::__short"* %32, i64 0, i32 1, i32 0
  %37 = load i8, i8* %36, align 1
  %38 = icmp slt i8 %37, 0
  br i1 %38, label %39, label %42

39:                                               ; preds = %31
  %40 = getelementptr inbounds %"class.std::__1::basic_string", %"class.std::__1::basic_string"* %4, i64 0, i32 0, i32 0, i32 0, i32 0, i32 0, i32 0
  %41 = load i8*, i8** %40, align 8
  call void @_ZdlPv(i8* %41) #13
  br label %42

42:                                               ; preds = %31, %39
  call void @llvm.lifetime.end.p0i8(i64 24, i8* nonnull %7) #12
  %43 = icmp eq %"struct.extensions::Extension::ManifestData"* %35, null
  br i1 %43, label %90, label %44

44:                                               ; preds = %42
  %45 = getelementptr inbounds %"struct.extensions::Extension::ManifestData", %"struct.extensions::Extension::ManifestData"* %35, i64 4
  %46 = bitcast %"struct.extensions::Extension::ManifestData"* %45 to %"class.std::__1::unique_ptr"**
  %47 = load %"class.std::__1::unique_ptr"*, %"class.std::__1::unique_ptr"** %46, align 8
  %48 = getelementptr inbounds %"struct.extensions::Extension::ManifestData", %"struct.extensions::Extension::ManifestData"* %35, i64 5
  %49 = bitcast %"struct.extensions::Extension::ManifestData"* %48 to %"class.std::__1::unique_ptr"**
  %50 = load %"class.std::__1::unique_ptr"*, %"class.std::__1::unique_ptr"** %49, align 8
  %51 = icmp eq %"class.std::__1::unique_ptr"* %47, %50
  br i1 %51, label %90, label %52

52:                                               ; preds = %44
  %53 = bitcast %"class.std::__1::basic_string"* %1 to %"struct.std::__1::basic_string<char, std::__1::char_traits<char>, std::__1::allocator<char> >::__short"*
  %54 = getelementptr inbounds %"struct.std::__1::basic_string<char, std::__1::char_traits<char>, std::__1::allocator<char> >::__short", %"struct.std::__1::basic_string<char, std::__1::char_traits<char>, std::__1::allocator<char> >::__short"* %53, i64 0, i32 1, i32 0
  %55 = getelementptr inbounds %"class.std::__1::basic_string", %"class.std::__1::basic_string"* %1, i64 0, i32 0, i32 0, i32 0, i32 0, i32 0, i32 0
  %56 = bitcast %"class.std::__1::basic_string"* %1 to i8*
  %57 = getelementptr inbounds %"class.std::__1::basic_string", %"class.std::__1::basic_string"* %1, i64 0, i32 0, i32 0, i32 0, i32 0, i32 0, i32 1
  br label %58

58:                                               ; preds = %52, %87
  %59 = phi %"class.std::__1::unique_ptr"* [ %47, %52 ], [ %88, %87 ]
  %60 = getelementptr inbounds %"class.std::__1::unique_ptr", %"class.std::__1::unique_ptr"* %59, i64 0, i32 0, i32 0, i32 0
  %61 = load %"class.extensions::PartitionItem"*, %"class.extensions::PartitionItem"** %60, align 8
  %62 = load i8, i8* %54, align 1
  %63 = icmp slt i8 %62, 0
  %64 = load i8*, i8** %55, align 8
  %65 = select i1 %63, i8* %64, i8* %56
  %66 = load i64, i64* %57, align 8
  %67 = zext i8 %62 to i64
  %68 = select i1 %63, i64 %66, i64 %67
  %69 = getelementptr inbounds %"class.extensions::PartitionItem", %"class.extensions::PartitionItem"* %61, i64 0, i32 1
  %70 = bitcast %"class.std::__1::basic_string"* %69 to %"struct.std::__1::basic_string<char, std::__1::char_traits<char>, std::__1::allocator<char> >::__short"*
  %71 = getelementptr inbounds %"struct.std::__1::basic_string<char, std::__1::char_traits<char>, std::__1::allocator<char> >::__short", %"struct.std::__1::basic_string<char, std::__1::char_traits<char>, std::__1::allocator<char> >::__short"* %70, i64 0, i32 1, i32 0
  %72 = load i8, i8* %71, align 1
  %73 = icmp slt i8 %72, 0
  %74 = getelementptr inbounds %"class.std::__1::basic_string", %"class.std::__1::basic_string"* %69, i64 0, i32 0, i32 0, i32 0, i32 0, i32 0, i32 0
  %75 = load i8*, i8** %74, align 8
  %76 = bitcast %"class.std::__1::basic_string"* %69 to i8*
  %77 = select i1 %73, i8* %75, i8* %76
  %78 = getelementptr inbounds %"class.extensions::PartitionItem", %"class.extensions::PartitionItem"* %61, i64 0, i32 1, i32 0, i32 0, i32 0, i32 0, i32 0, i32 1
  %79 = load i64, i64* %78, align 8
  %80 = zext i8 %72 to i64
  %81 = select i1 %73, i64 %79, i64 %80
  %82 = call zeroext i1 @_ZN4base12MatchPatternENS_16BasicStringPieceIcNSt3__111char_traitsIcEEEES4_(i8* %65, i64 %68, i8* %77, i64 %81) #12
  br i1 %82, label %83, label %87

83:                                               ; preds = %58
  %84 = load %"class.extensions::PartitionItem"*, %"class.extensions::PartitionItem"** %60, align 8
  %85 = getelementptr inbounds %"class.extensions::PartitionItem", %"class.extensions::PartitionItem"* %84, i64 0, i32 2
  %86 = call zeroext i1 @_ZNK10extensions9Extension15ResourceMatchesERKNS_13URLPatternSetERKNSt3__112basic_stringIcNS4_11char_traitsIcEENS4_9allocatorIcEEEE(%"class.extensions::Extension"* nonnull %0, %"class.extensions::URLPatternSet"* dereferenceable(24) %85, %"class.std::__1::basic_string"* dereferenceable(24) %2) #12
  br i1 %86, label %90, label %87

87:                                               ; preds = %58, %83
  %88 = getelementptr inbounds %"class.std::__1::unique_ptr", %"class.std::__1::unique_ptr"* %59, i64 1
  %89 = icmp eq %"class.std::__1::unique_ptr"* %88, %50
  br i1 %89, label %90, label %58

90:                                               ; preds = %83, %87, %44, %3, %42
  %91 = phi i1 [ false, %42 ], [ false, %3 ], [ false, %44 ], [ true, %83 ], [ false, %87 ]
  ret i1 %91
}

; Function Attrs: argmemonly nounwind
declare void @llvm.lifetime.start.p0i8(i64 immarg, i8* nocapture) #2

declare %"struct.extensions::Extension::ManifestData"* @_ZNK10extensions9Extension15GetManifestDataERKNSt3__112basic_stringIcNS1_11char_traitsIcEENS1_9allocatorIcEEEE(%"class.extensions::Extension"*, %"class.std::__1::basic_string"* dereferenceable(24)) local_unnamed_addr #3

; Function Attrs: argmemonly nounwind
declare void @llvm.lifetime.end.p0i8(i64 immarg, i8* nocapture) #2

declare zeroext i1 @_ZNK10extensions9Extension15ResourceMatchesERKNS_13URLPatternSetERKNSt3__112basic_stringIcNS4_11char_traitsIcEENS4_9allocatorIcEEEE(%"class.extensions::Extension"*, %"class.extensions::URLPatternSet"* dereferenceable(24), %"class.std::__1::basic_string"* dereferenceable(24)) local_unnamed_addr #3

; Function Attrs: nounwind ssp uwtable
define hidden zeroext i1 @_ZN10extensions11WebviewInfo29HasWebviewAccessibleResourcesERKNS_9ExtensionERKNSt3__112basic_stringIcNS4_11char_traitsIcEENS4_9allocatorIcEEEE(%"class.extensions::Extension"* dereferenceable(472), %"class.std::__1::basic_string"* dereferenceable(24)) local_unnamed_addr #0 align 2 {
  %3 = alloca %"class.std::__1::basic_string", align 8
  %4 = bitcast %"class.std::__1::basic_string"* %3 to i8*
  call void @llvm.lifetime.start.p0i8(i64 24, i8* nonnull %4) #12
  %5 = tail call i64 @strlen(i8* getelementptr inbounds ([0 x i8], [0 x i8]* @_ZN10extensions13manifest_keys27kWebviewAccessibleResourcesE, i64 0, i64 0)) #12
  %6 = icmp ugt i64 %5, -17
  br i1 %6, label %7, label %9

7:                                                ; preds = %2
  %8 = bitcast %"class.std::__1::basic_string"* %3 to %"class.std::__1::__basic_string_common"*
  call void @_ZNKSt3__121__basic_string_commonILb1EE20__throw_length_errorEv(%"class.std::__1::__basic_string_common"* nonnull %8) #14
  unreachable

9:                                                ; preds = %2
  %10 = icmp ult i64 %5, 23
  br i1 %10, label %20, label %11

11:                                               ; preds = %9
  %12 = add nuw i64 %5, 16
  %13 = and i64 %12, -16
  %14 = tail call i8* @_Znwm(i64 %13) #13
  %15 = getelementptr inbounds %"class.std::__1::basic_string", %"class.std::__1::basic_string"* %3, i64 0, i32 0, i32 0, i32 0, i32 0, i32 0, i32 0
  store i8* %14, i8** %15, align 8
  %16 = or i64 %13, -9223372036854775808
  %17 = getelementptr inbounds %"class.std::__1::basic_string", %"class.std::__1::basic_string"* %3, i64 0, i32 0, i32 0, i32 0, i32 0, i32 0, i32 2
  store i64 %16, i64* %17, align 8
  %18 = getelementptr inbounds %"class.std::__1::basic_string", %"class.std::__1::basic_string"* %3, i64 0, i32 0, i32 0, i32 0, i32 0, i32 0, i32 1
  store i64 %5, i64* %18, align 8
  %19 = bitcast %"class.std::__1::basic_string"* %3 to %"struct.std::__1::basic_string<char, std::__1::char_traits<char>, std::__1::allocator<char> >::__short"*
  br label %25

20:                                               ; preds = %9
  %21 = trunc i64 %5 to i8
  %22 = bitcast %"class.std::__1::basic_string"* %3 to %"struct.std::__1::basic_string<char, std::__1::char_traits<char>, std::__1::allocator<char> >::__short"*
  %23 = getelementptr inbounds %"struct.std::__1::basic_string<char, std::__1::char_traits<char>, std::__1::allocator<char> >::__short", %"struct.std::__1::basic_string<char, std::__1::char_traits<char>, std::__1::allocator<char> >::__short"* %22, i64 0, i32 1, i32 0
  store i8 %21, i8* %23, align 1
  %24 = icmp eq i64 %5, 0
  br i1 %24, label %28, label %25

25:                                               ; preds = %20, %11
  %26 = phi %"struct.std::__1::basic_string<char, std::__1::char_traits<char>, std::__1::allocator<char> >::__short"* [ %22, %20 ], [ %19, %11 ]
  %27 = phi i8* [ %4, %20 ], [ %14, %11 ]
  call void @llvm.memcpy.p0i8.p0i8.i64(i8* nonnull align 1 %27, i8* align 1 getelementptr inbounds ([0 x i8], [0 x i8]* @_ZN10extensions13manifest_keys27kWebviewAccessibleResourcesE, i64 0, i64 0), i64 %5, i1 false) #12
  br label %28

28:                                               ; preds = %20, %25
  %29 = phi %"struct.std::__1::basic_string<char, std::__1::char_traits<char>, std::__1::allocator<char> >::__short"* [ %22, %20 ], [ %26, %25 ]
  %30 = phi i8* [ %4, %20 ], [ %27, %25 ]
  %31 = getelementptr inbounds i8, i8* %30, i64 %5
  store i8 0, i8* %31, align 1
  %32 = call %"struct.extensions::Extension::ManifestData"* @_ZNK10extensions9Extension15GetManifestDataERKNSt3__112basic_stringIcNS1_11char_traitsIcEENS1_9allocatorIcEEEE(%"class.extensions::Extension"* %0, %"class.std::__1::basic_string"* nonnull dereferenceable(24) %3) #12
  %33 = getelementptr inbounds %"struct.std::__1::basic_string<char, std::__1::char_traits<char>, std::__1::allocator<char> >::__short", %"struct.std::__1::basic_string<char, std::__1::char_traits<char>, std::__1::allocator<char> >::__short"* %29, i64 0, i32 1, i32 0
  %34 = load i8, i8* %33, align 1
  %35 = icmp slt i8 %34, 0
  br i1 %35, label %36, label %39

36:                                               ; preds = %28
  %37 = getelementptr inbounds %"class.std::__1::basic_string", %"class.std::__1::basic_string"* %3, i64 0, i32 0, i32 0, i32 0, i32 0, i32 0, i32 0
  %38 = load i8*, i8** %37, align 8
  call void @_ZdlPv(i8* %38) #13
  br label %39

39:                                               ; preds = %28, %36
  call void @llvm.lifetime.end.p0i8(i64 24, i8* nonnull %4) #12
  %40 = icmp eq %"struct.extensions::Extension::ManifestData"* %32, null
  br i1 %40, label %83, label %41

41:                                               ; preds = %39
  %42 = getelementptr inbounds %"struct.extensions::Extension::ManifestData", %"struct.extensions::Extension::ManifestData"* %32, i64 4
  %43 = bitcast %"struct.extensions::Extension::ManifestData"* %42 to %"class.std::__1::unique_ptr"**
  %44 = load %"class.std::__1::unique_ptr"*, %"class.std::__1::unique_ptr"** %43, align 8
  %45 = getelementptr inbounds %"struct.extensions::Extension::ManifestData", %"struct.extensions::Extension::ManifestData"* %32, i64 5
  %46 = bitcast %"struct.extensions::Extension::ManifestData"* %45 to %"class.std::__1::unique_ptr"**
  %47 = load %"class.std::__1::unique_ptr"*, %"class.std::__1::unique_ptr"** %46, align 8
  %48 = icmp eq %"class.std::__1::unique_ptr"* %44, %47
  br i1 %48, label %83, label %49

49:                                               ; preds = %41
  %50 = bitcast %"class.std::__1::basic_string"* %1 to %"struct.std::__1::basic_string<char, std::__1::char_traits<char>, std::__1::allocator<char> >::__short"*
  %51 = getelementptr inbounds %"struct.std::__1::basic_string<char, std::__1::char_traits<char>, std::__1::allocator<char> >::__short", %"struct.std::__1::basic_string<char, std::__1::char_traits<char>, std::__1::allocator<char> >::__short"* %50, i64 0, i32 1, i32 0
  %52 = getelementptr inbounds %"class.std::__1::basic_string", %"class.std::__1::basic_string"* %1, i64 0, i32 0, i32 0, i32 0, i32 0, i32 0, i32 0
  %53 = bitcast %"class.std::__1::basic_string"* %1 to i8*
  %54 = getelementptr inbounds %"class.std::__1::basic_string", %"class.std::__1::basic_string"* %1, i64 0, i32 0, i32 0, i32 0, i32 0, i32 0, i32 1
  br label %57

55:                                               ; preds = %57
  %56 = icmp eq %"class.std::__1::unique_ptr"* %82, %47
  br i1 %56, label %83, label %57

57:                                               ; preds = %49, %55
  %58 = phi %"class.std::__1::unique_ptr"* [ %44, %49 ], [ %82, %55 ]
  %59 = getelementptr inbounds %"class.std::__1::unique_ptr", %"class.std::__1::unique_ptr"* %58, i64 0, i32 0, i32 0, i32 0
  %60 = load %"class.extensions::PartitionItem"*, %"class.extensions::PartitionItem"** %59, align 8
  %61 = load i8, i8* %51, align 1
  %62 = icmp slt i8 %61, 0
  %63 = load i8*, i8** %52, align 8
  %64 = select i1 %62, i8* %63, i8* %53
  %65 = load i64, i64* %54, align 8
  %66 = zext i8 %61 to i64
  %67 = select i1 %62, i64 %65, i64 %66
  %68 = getelementptr inbounds %"class.extensions::PartitionItem", %"class.extensions::PartitionItem"* %60, i64 0, i32 1
  %69 = bitcast %"class.std::__1::basic_string"* %68 to %"struct.std::__1::basic_string<char, std::__1::char_traits<char>, std::__1::allocator<char> >::__short"*
  %70 = getelementptr inbounds %"struct.std::__1::basic_string<char, std::__1::char_traits<char>, std::__1::allocator<char> >::__short", %"struct.std::__1::basic_string<char, std::__1::char_traits<char>, std::__1::allocator<char> >::__short"* %69, i64 0, i32 1, i32 0
  %71 = load i8, i8* %70, align 1
  %72 = icmp slt i8 %71, 0
  %73 = getelementptr inbounds %"class.std::__1::basic_string", %"class.std::__1::basic_string"* %68, i64 0, i32 0, i32 0, i32 0, i32 0, i32 0, i32 0
  %74 = load i8*, i8** %73, align 8
  %75 = bitcast %"class.std::__1::basic_string"* %68 to i8*
  %76 = select i1 %72, i8* %74, i8* %75
  %77 = getelementptr inbounds %"class.extensions::PartitionItem", %"class.extensions::PartitionItem"* %60, i64 0, i32 1, i32 0, i32 0, i32 0, i32 0, i32 0, i32 1
  %78 = load i64, i64* %77, align 8
  %79 = zext i8 %71 to i64
  %80 = select i1 %72, i64 %78, i64 %79
  %81 = call zeroext i1 @_ZN4base12MatchPatternENS_16BasicStringPieceIcNSt3__111char_traitsIcEEEES4_(i8* %64, i64 %67, i8* %76, i64 %80) #12
  %82 = getelementptr inbounds %"class.std::__1::unique_ptr", %"class.std::__1::unique_ptr"* %58, i64 1
  br i1 %81, label %83, label %55

83:                                               ; preds = %55, %57, %41, %39
  %84 = phi i1 [ false, %39 ], [ false, %41 ], [ false, %55 ], [ true, %57 ]
  ret i1 %84
}

; Function Attrs: nounwind ssp uwtable
define hidden void @_ZN10extensions11WebviewInfo16AddPartitionItemENSt3__110unique_ptrINS_13PartitionItemENS1_14default_deleteIS3_EEEE(%"class.extensions::WebviewInfo"*, %"class.extensions::PartitionItem"*) local_unnamed_addr #0 align 2 {
  %3 = alloca %"class.std::__1::unique_ptr", align 8
  %4 = getelementptr inbounds %"class.std::__1::unique_ptr", %"class.std::__1::unique_ptr"* %3, i64 0, i32 0, i32 0, i32 0
  store %"class.extensions::PartitionItem"* %1, %"class.extensions::PartitionItem"** %4, align 8
  %5 = getelementptr inbounds %"class.extensions::WebviewInfo", %"class.extensions::WebviewInfo"* %0, i64 0, i32 2, i32 0, i32 1
  %6 = load %"class.std::__1::unique_ptr"*, %"class.std::__1::unique_ptr"** %5, align 8
  %7 = getelementptr inbounds %"class.extensions::WebviewInfo", %"class.extensions::WebviewInfo"* %0, i64 0, i32 2, i32 0, i32 2, i32 0, i32 0
  %8 = load %"class.std::__1::unique_ptr"*, %"class.std::__1::unique_ptr"** %7, align 8
  %9 = icmp ult %"class.std::__1::unique_ptr"* %6, %8
  br i1 %9, label %10, label %16

10:                                               ; preds = %2
  %11 = ptrtoint %"class.extensions::PartitionItem"* %1 to i64
  store %"class.extensions::PartitionItem"* null, %"class.extensions::PartitionItem"** %4, align 8
  %12 = bitcast %"class.std::__1::unique_ptr"* %6 to i64*
  store i64 %11, i64* %12, align 8
  %13 = getelementptr inbounds %"class.std::__1::unique_ptr", %"class.std::__1::unique_ptr"* %6, i64 1
  %14 = ptrtoint %"class.std::__1::unique_ptr"* %13 to i64
  %15 = bitcast %"class.std::__1::unique_ptr"** %5 to i64*
  store i64 %14, i64* %15, align 8
  br label %18

16:                                               ; preds = %2
  %17 = getelementptr inbounds %"class.extensions::WebviewInfo", %"class.extensions::WebviewInfo"* %0, i64 0, i32 2
  call void @_ZNSt3__16vectorINS_10unique_ptrIN10extensions13PartitionItemENS_14default_deleteIS3_EEEENS_9allocatorIS6_EEE21__push_back_slow_pathIS6_EEvOT_(%"class.std::__1::vector"* %17, %"class.std::__1::unique_ptr"* nonnull dereferenceable(8) %3) #12
  br label %18

18:                                               ; preds = %10, %16
  %19 = load %"class.extensions::PartitionItem"*, %"class.extensions::PartitionItem"** %4, align 8
  store %"class.extensions::PartitionItem"* null, %"class.extensions::PartitionItem"** %4, align 8
  %20 = icmp eq %"class.extensions::PartitionItem"* %19, null
  br i1 %20, label %26, label %21

21:                                               ; preds = %18
  %22 = bitcast %"class.extensions::PartitionItem"* %19 to void (%"class.extensions::PartitionItem"*)***
  %23 = load void (%"class.extensions::PartitionItem"*)**, void (%"class.extensions::PartitionItem"*)*** %22, align 8
  %24 = getelementptr inbounds void (%"class.extensions::PartitionItem"*)*, void (%"class.extensions::PartitionItem"*)** %23, i64 1
  %25 = load void (%"class.extensions::PartitionItem"*)*, void (%"class.extensions::PartitionItem"*)** %24, align 8
  call void %25(%"class.extensions::PartitionItem"* nonnull %19) #12
  br label %26

26:                                               ; preds = %18, %21
  ret void
}

; Function Attrs: nounwind ssp uwtable
define hidden void @_ZN10extensions14WebviewHandlerC2Ev(%"class.extensions::WebviewHandler"*) unnamed_addr #0 align 2 {
  %2 = getelementptr inbounds %"class.extensions::WebviewHandler", %"class.extensions::WebviewHandler"* %0, i64 0, i32 0
  tail call void @_ZN10extensions15ManifestHandlerC2Ev(%"class.extensions::ManifestHandler"* %2) #12
  %3 = getelementptr inbounds %"class.extensions::WebviewHandler", %"class.extensions::WebviewHandler"* %0, i64 0, i32 0, i32 0
  store i32 (...)** bitcast (i8** getelementptr inbounds ({ [12 x i8*] }, { [12 x i8*] }* @_ZTVN10extensions14WebviewHandlerE, i64 0, inrange i32 0, i64 2) to i32 (...)**), i32 (...)*** %3, align 8
  ret void
}

declare void @_ZN10extensions15ManifestHandlerC2Ev(%"class.extensions::ManifestHandler"*) unnamed_addr #3

; Function Attrs: nounwind
declare void @_ZN10extensions15ManifestHandlerD2Ev(%"class.extensions::ManifestHandler"*) unnamed_addr #4

; Function Attrs: nounwind ssp uwtable
define hidden void @_ZN10extensions14WebviewHandlerD2Ev(%"class.extensions::WebviewHandler"*) unnamed_addr #0 align 2 {
  %2 = getelementptr inbounds %"class.extensions::WebviewHandler", %"class.extensions::WebviewHandler"* %0, i64 0, i32 0
  tail call void @_ZN10extensions15ManifestHandlerD2Ev(%"class.extensions::ManifestHandler"* %2) #12
  ret void
}

; Function Attrs: nounwind ssp uwtable
define hidden void @_ZN10extensions14WebviewHandlerD0Ev(%"class.extensions::WebviewHandler"*) unnamed_addr #0 align 2 {
  %2 = getelementptr inbounds %"class.extensions::WebviewHandler", %"class.extensions::WebviewHandler"* %0, i64 0, i32 0
  tail call void @_ZN10extensions15ManifestHandlerD2Ev(%"class.extensions::ManifestHandler"* %2) #12
  %3 = bitcast %"class.extensions::WebviewHandler"* %0 to i8*
  tail call void @_ZdlPv(i8* %3) #13
  ret void
}

; Function Attrs: nounwind ssp uwtable
define hidden zeroext i1 @_ZN10extensions14WebviewHandler5ParseEPNS_9ExtensionEPNSt3__112basic_stringIDsNS3_11char_traitsIDsEENS3_9allocatorIDsEEEE(%"class.extensions::WebviewHandler"* nocapture readnone, %"class.extensions::Extension"*, %"class.std::__1::basic_string.100"*) unnamed_addr #0 align 2 {
  %4 = alloca %"class.std::__1::unique_ptr", align 8
  %5 = alloca %"class.base::CheckedContiguousIterator", align 8
  %6 = alloca %"class.base::CheckedContiguousIterator", align 8
  %7 = alloca %"class.base::CheckedContiguousIterator", align 8
  %8 = alloca %"class.base::CheckedContiguousIterator", align 8
  %9 = alloca %"class.base::CheckedContiguousIterator", align 8
  %10 = alloca %"class.base::CheckedContiguousIterator", align 8
  %11 = alloca %"class.base::CheckedContiguousIterator", align 8
  %12 = alloca %"class.base::CheckedContiguousIterator", align 8
  %13 = alloca %"class.base::CheckedContiguousIterator", align 8
  %14 = alloca %"class.base::CheckedContiguousIterator", align 8
  %15 = alloca %"class.base::Value"*, align 8
  %16 = alloca %"class.std::__1::basic_string", align 8
  %17 = alloca %"class.std::__1::basic_string.100", align 8
  %18 = alloca %"class.std::__1::basic_string.100", align 8
  %19 = alloca %"class.std::__1::basic_string.100", align 8
  %20 = alloca %"class.std::__1::basic_string.100", align 8
  %21 = alloca %"class.std::__1::basic_string", align 8
  %22 = alloca %"class.std::__1::basic_string.100", align 8
  %23 = alloca %"class.std::__1::basic_string", align 8
  %24 = alloca %"class.std::__1::basic_string.100", align 8
  %25 = alloca %"class.std::__1::basic_string.100", align 8
  %26 = alloca %"class.std::__1::basic_string.100", align 8
  %27 = alloca %"class.std::__1::basic_string", align 8
  %28 = alloca %class.GURL, align 8
  %29 = alloca %"class.std::__1::basic_string", align 8
  %30 = alloca %"class.std::__1::basic_string", align 8
  %31 = alloca %"struct.extensions::InstallWarning", align 8
  %32 = alloca %"class.std::__1::basic_string", align 8
  %33 = alloca %class.URLPattern, align 8
  %34 = alloca %"class.std::__1::basic_string", align 8
  %35 = alloca %"class.std::__1::basic_string", align 8
  %36 = alloca %"struct.extensions::InstallWarning", align 8
  %37 = alloca %"class.std::__1::basic_string", align 8
  %38 = alloca %"class.std::__1::basic_string", align 8
  %39 = tail call i8* @_Znwm(i64 56) #13
  %40 = tail call dereferenceable(24) %"class.std::__1::basic_string"* @_ZNK10extensions9Extension2idEv(%"class.extensions::Extension"* %1) #12
  %41 = bitcast i8* %39 to i32 (...)***
  store i32 (...)** bitcast (i8** getelementptr inbounds ({ [4 x i8*] }, { [4 x i8*] }* @_ZTVN10extensions11WebviewInfoE, i64 0, inrange i32 0, i64 2) to i32 (...)**), i32 (...)*** %41, align 8
  %42 = getelementptr inbounds i8, i8* %39, i64 8
  %43 = bitcast %"class.std::__1::basic_string"* %40 to %"struct.std::__1::basic_string<char, std::__1::char_traits<char>, std::__1::allocator<char> >::__short"*
  %44 = getelementptr inbounds %"struct.std::__1::basic_string<char, std::__1::char_traits<char>, std::__1::allocator<char> >::__short", %"struct.std::__1::basic_string<char, std::__1::char_traits<char>, std::__1::allocator<char> >::__short"* %43, i64 0, i32 1, i32 0
  %45 = load i8, i8* %44, align 1
  %46 = icmp slt i8 %45, 0
  br i1 %46, label %49, label %47

47:                                               ; preds = %3
  %48 = bitcast %"class.std::__1::basic_string"* %40 to i8*
  tail call void @llvm.memcpy.p0i8.p0i8.i64(i8* align 8 %42, i8* align 8 %48, i64 24, i1 false) #12
  br label %55

49:                                               ; preds = %3
  %50 = bitcast i8* %42 to %"class.std::__1::basic_string"*
  %51 = getelementptr inbounds %"class.std::__1::basic_string", %"class.std::__1::basic_string"* %40, i64 0, i32 0, i32 0, i32 0, i32 0, i32 0, i32 0
  %52 = load i8*, i8** %51, align 8
  %53 = getelementptr inbounds %"class.std::__1::basic_string", %"class.std::__1::basic_string"* %40, i64 0, i32 0, i32 0, i32 0, i32 0, i32 0, i32 1
  %54 = load i64, i64* %53, align 8
  tail call void @_ZNSt3__112basic_stringIcNS_11char_traitsIcEENS_9allocatorIcEEE25__init_copy_ctor_externalEPKcm(%"class.std::__1::basic_string"* %50, i8* %52, i64 %54) #12
  br label %55

55:                                               ; preds = %47, %49
  %56 = getelementptr inbounds i8, i8* %39, i64 32
  %57 = bitcast i8* %56 to %"class.std::__1::vector"*
  tail call void @llvm.memset.p0i8.i64(i8* align 8 %56, i8 0, i64 24, i1 false) #12
  %58 = bitcast %"class.base::Value"** %15 to i8*
  call void @llvm.lifetime.start.p0i8(i64 8, i8* nonnull %58) #12
  store %"class.base::Value"* null, %"class.base::Value"** %15, align 8
  %59 = getelementptr inbounds %"class.extensions::Extension", %"class.extensions::Extension"* %1, i64 0, i32 16, i32 0, i32 0, i32 0
  %60 = load %"class.extensions::Manifest"*, %"class.extensions::Manifest"** %59, align 8
  %61 = bitcast %"class.std::__1::basic_string"* %16 to i8*
  call void @llvm.lifetime.start.p0i8(i64 24, i8* nonnull %61) #12
  %62 = tail call i64 @strlen(i8* getelementptr inbounds ([0 x i8], [0 x i8]* @_ZN10extensions13manifest_keys8kWebviewE, i64 0, i64 0)) #12
  %63 = icmp ugt i64 %62, -17
  br i1 %63, label %64, label %66

64:                                               ; preds = %55
  %65 = bitcast %"class.std::__1::basic_string"* %16 to %"class.std::__1::__basic_string_common"*
  call void @_ZNKSt3__121__basic_string_commonILb1EE20__throw_length_errorEv(%"class.std::__1::__basic_string_common"* nonnull %65) #14
  unreachable

66:                                               ; preds = %55
  %67 = icmp ult i64 %62, 23
  br i1 %67, label %77, label %68

68:                                               ; preds = %66
  %69 = add nuw i64 %62, 16
  %70 = and i64 %69, -16
  %71 = tail call i8* @_Znwm(i64 %70) #13
  %72 = getelementptr inbounds %"class.std::__1::basic_string", %"class.std::__1::basic_string"* %16, i64 0, i32 0, i32 0, i32 0, i32 0, i32 0, i32 0
  store i8* %71, i8** %72, align 8
  %73 = or i64 %70, -9223372036854775808
  %74 = getelementptr inbounds %"class.std::__1::basic_string", %"class.std::__1::basic_string"* %16, i64 0, i32 0, i32 0, i32 0, i32 0, i32 0, i32 2
  store i64 %73, i64* %74, align 8
  %75 = getelementptr inbounds %"class.std::__1::basic_string", %"class.std::__1::basic_string"* %16, i64 0, i32 0, i32 0, i32 0, i32 0, i32 0, i32 1
  store i64 %62, i64* %75, align 8
  %76 = bitcast %"class.std::__1::basic_string"* %16 to %"struct.std::__1::basic_string<char, std::__1::char_traits<char>, std::__1::allocator<char> >::__short"*
  br label %82

77:                                               ; preds = %66
  %78 = trunc i64 %62 to i8
  %79 = bitcast %"class.std::__1::basic_string"* %16 to %"struct.std::__1::basic_string<char, std::__1::char_traits<char>, std::__1::allocator<char> >::__short"*
  %80 = getelementptr inbounds %"struct.std::__1::basic_string<char, std::__1::char_traits<char>, std::__1::allocator<char> >::__short", %"struct.std::__1::basic_string<char, std::__1::char_traits<char>, std::__1::allocator<char> >::__short"* %79, i64 0, i32 1, i32 0
  store i8 %78, i8* %80, align 1
  %81 = icmp eq i64 %62, 0
  br i1 %81, label %85, label %82

82:                                               ; preds = %77, %68
  %83 = phi %"struct.std::__1::basic_string<char, std::__1::char_traits<char>, std::__1::allocator<char> >::__short"* [ %79, %77 ], [ %76, %68 ]
  %84 = phi i8* [ %61, %77 ], [ %71, %68 ]
  call void @llvm.memcpy.p0i8.p0i8.i64(i8* nonnull align 1 %84, i8* align 1 getelementptr inbounds ([0 x i8], [0 x i8]* @_ZN10extensions13manifest_keys8kWebviewE, i64 0, i64 0), i64 %62, i1 false) #12
  br label %85

85:                                               ; preds = %77, %82
  %86 = phi %"struct.std::__1::basic_string<char, std::__1::char_traits<char>, std::__1::allocator<char> >::__short"* [ %79, %77 ], [ %83, %82 ]
  %87 = phi i8* [ %61, %77 ], [ %84, %82 ]
  %88 = getelementptr inbounds i8, i8* %87, i64 %62
  store i8 0, i8* %88, align 1
  %89 = call zeroext i1 @_ZNK10extensions8Manifest13GetDictionaryERKNSt3__112basic_stringIcNS1_11char_traitsIcEENS1_9allocatorIcEEEEPPKN4base5ValueE(%"class.extensions::Manifest"* %60, %"class.std::__1::basic_string"* nonnull dereferenceable(24) %16, %"class.base::Value"** nonnull %15) #12
  %90 = getelementptr inbounds %"struct.std::__1::basic_string<char, std::__1::char_traits<char>, std::__1::allocator<char> >::__short", %"struct.std::__1::basic_string<char, std::__1::char_traits<char>, std::__1::allocator<char> >::__short"* %86, i64 0, i32 1, i32 0
  %91 = load i8, i8* %90, align 1
  %92 = icmp slt i8 %91, 0
  br i1 %92, label %93, label %96

93:                                               ; preds = %85
  %94 = getelementptr inbounds %"class.std::__1::basic_string", %"class.std::__1::basic_string"* %16, i64 0, i32 0, i32 0, i32 0, i32 0, i32 0, i32 0
  %95 = load i8*, i8** %94, align 8
  call void @_ZdlPv(i8* %95) #13
  br label %96

96:                                               ; preds = %85, %93
  call void @llvm.lifetime.end.p0i8(i64 24, i8* nonnull %61) #12
  br i1 %89, label %109, label %97

97:                                               ; preds = %96
  %98 = bitcast %"class.std::__1::basic_string.100"* %17 to i8*
  call void @llvm.lifetime.start.p0i8(i64 24, i8* nonnull %98) #12
  %99 = call i64 @strlen(i8* nonnull getelementptr inbounds ([0 x i8], [0 x i8]* @_ZN10extensions15manifest_errors15kInvalidWebviewE, i64 0, i64 0)) #12
  call void @_ZN4base12ASCIIToUTF16ENS_16BasicStringPieceIcNSt3__111char_traitsIcEEEE(%"class.std::__1::basic_string.100"* nonnull sret %17, i8* getelementptr inbounds ([0 x i8], [0 x i8]* @_ZN10extensions15manifest_errors15kInvalidWebviewE, i64 0, i64 0), i64 %99) #12
  %100 = bitcast %"class.std::__1::basic_string.100"* %2 to %"struct.std::__1::basic_string<char16_t, std::__1::char_traits<char16_t>, std::__1::allocator<char16_t> >::__short"*
  %101 = getelementptr inbounds %"struct.std::__1::basic_string<char16_t, std::__1::char_traits<char16_t>, std::__1::allocator<char16_t> >::__short", %"struct.std::__1::basic_string<char16_t, std::__1::char_traits<char16_t>, std::__1::allocator<char16_t> >::__short"* %100, i64 0, i32 1, i32 1
  %102 = load i8, i8* %101, align 1
  %103 = icmp slt i8 %102, 0
  br i1 %103, label %104, label %107

104:                                              ; preds = %97
  %105 = bitcast %"class.std::__1::basic_string.100"* %2 to i8**
  %106 = load i8*, i8** %105, align 8
  call void @_ZdlPv(i8* %106) #13
  br label %107

107:                                              ; preds = %104, %97
  %108 = bitcast %"class.std::__1::basic_string.100"* %2 to i8*
  call void @llvm.memcpy.p0i8.p0i8.i64(i8* align 8 %108, i8* nonnull align 8 %98, i64 24, i1 false) #12
  call void @llvm.lifetime.end.p0i8(i64 24, i8* nonnull %98) #12
  br label %637

109:                                              ; preds = %96
  %110 = load %"class.base::Value"*, %"class.base::Value"** %15, align 8
  %111 = call i64 @strlen(i8* nonnull getelementptr inbounds ([0 x i8], [0 x i8]* @_ZN10extensions13manifest_keys18kWebviewPartitionsE, i64 0, i64 0)) #12
  %112 = call %"class.base::Value"* @_ZNK4base5Value13FindKeyOfTypeENS_16BasicStringPieceIcNSt3__111char_traitsIcEEEENS0_4TypeE(%"class.base::Value"* %110, i8* getelementptr inbounds ([0 x i8], [0 x i8]* @_ZN10extensions13manifest_keys18kWebviewPartitionsE, i64 0, i64 0), i64 %111, i8 zeroext 7) #12
  %113 = icmp eq %"class.base::Value"* %112, null
  br i1 %113, label %114, label %126

114:                                              ; preds = %109
  %115 = bitcast %"class.std::__1::basic_string.100"* %18 to i8*
  call void @llvm.lifetime.start.p0i8(i64 24, i8* nonnull %115) #12
  %116 = call i64 @strlen(i8* nonnull getelementptr inbounds ([0 x i8], [0 x i8]* @_ZN10extensions15manifest_errors29kInvalidWebviewPartitionsListE, i64 0, i64 0)) #12
  call void @_ZN4base12ASCIIToUTF16ENS_16BasicStringPieceIcNSt3__111char_traitsIcEEEE(%"class.std::__1::basic_string.100"* nonnull sret %18, i8* getelementptr inbounds ([0 x i8], [0 x i8]* @_ZN10extensions15manifest_errors29kInvalidWebviewPartitionsListE, i64 0, i64 0), i64 %116) #12
  %117 = bitcast %"class.std::__1::basic_string.100"* %2 to %"struct.std::__1::basic_string<char16_t, std::__1::char_traits<char16_t>, std::__1::allocator<char16_t> >::__short"*
  %118 = getelementptr inbounds %"struct.std::__1::basic_string<char16_t, std::__1::char_traits<char16_t>, std::__1::allocator<char16_t> >::__short", %"struct.std::__1::basic_string<char16_t, std::__1::char_traits<char16_t>, std::__1::allocator<char16_t> >::__short"* %117, i64 0, i32 1, i32 1
  %119 = load i8, i8* %118, align 1
  %120 = icmp slt i8 %119, 0
  br i1 %120, label %121, label %124

121:                                              ; preds = %114
  %122 = bitcast %"class.std::__1::basic_string.100"* %2 to i8**
  %123 = load i8*, i8** %122, align 8
  call void @_ZdlPv(i8* %123) #13
  br label %124

124:                                              ; preds = %121, %114
  %125 = bitcast %"class.std::__1::basic_string.100"* %2 to i8*
  call void @llvm.memcpy.p0i8.p0i8.i64(i8* align 8 %125, i8* nonnull align 8 %115, i64 24, i1 false) #12
  call void @llvm.lifetime.end.p0i8(i64 24, i8* nonnull %115) #12
  br label %637

126:                                              ; preds = %109
  %127 = call %"class.std::__1::vector.77"* @_ZNK4base5Value7GetListEv(%"class.base::Value"* nonnull %112) #12
  %128 = icmp eq %"class.std::__1::vector.77"* %127, null
  br i1 %128, label %199, label %129

129:                                              ; preds = %126
  %130 = getelementptr inbounds %"class.std::__1::vector.77", %"class.std::__1::vector.77"* %127, i64 0, i32 0, i32 0
  %131 = load %"class.base::Value"*, %"class.base::Value"** %130, align 8
  %132 = getelementptr inbounds %"class.std::__1::vector.77", %"class.std::__1::vector.77"* %127, i64 0, i32 0, i32 1
  %133 = load %"class.base::Value"*, %"class.base::Value"** %132, align 8
  %134 = icmp eq %"class.base::Value"* %131, %133
  br i1 %134, label %199, label %135

135:                                              ; preds = %129
  %136 = bitcast %"class.base::Value"** %132 to i64*
  %137 = bitcast %"class.std::__1::vector.77"* %127 to i64*
  %138 = bitcast %"class.base::CheckedContiguousIterator"* %13 to i8*
  %139 = bitcast %"class.base::CheckedContiguousIterator"* %14 to i8*
  %140 = bitcast %"class.base::CheckedContiguousIterator"* %11 to i8*
  %141 = bitcast %"class.base::CheckedContiguousIterator"* %12 to i8*
  %142 = bitcast %"class.base::CheckedContiguousIterator"* %9 to i8*
  %143 = bitcast %"class.base::CheckedContiguousIterator"* %10 to i8*
  %144 = bitcast %"class.base::CheckedContiguousIterator"* %7 to i8*
  %145 = bitcast %"class.base::CheckedContiguousIterator"* %8 to i8*
  %146 = bitcast %class.GURL* %28 to i8*
  %147 = getelementptr inbounds %"class.extensions::Extension", %"class.extensions::Extension"* %1, i64 0, i32 10
  %148 = bitcast %"class.base::CheckedContiguousIterator"* %5 to i8*
  %149 = bitcast %"class.base::CheckedContiguousIterator"* %6 to i8*
  %150 = getelementptr inbounds %class.GURL, %class.GURL* %28, i64 0, i32 2, i32 3, i32 1
  %151 = getelementptr inbounds %class.GURL, %class.GURL* %28, i64 0, i32 2, i32 3, i32 0
  %152 = bitcast %class.GURL* %28 to %"struct.std::__1::basic_string<char, std::__1::char_traits<char>, std::__1::allocator<char> >::__short"*
  %153 = getelementptr inbounds %"struct.std::__1::basic_string<char, std::__1::char_traits<char>, std::__1::allocator<char> >::__short", %"struct.std::__1::basic_string<char, std::__1::char_traits<char>, std::__1::allocator<char> >::__short"* %152, i64 0, i32 1, i32 0
  %154 = getelementptr inbounds %class.GURL, %class.GURL* %28, i64 0, i32 0, i32 0, i32 0, i32 0, i32 0, i32 0, i32 0
  %155 = bitcast %"class.std::__1::basic_string"* %29 to i8*
  %156 = getelementptr inbounds %"class.std::__1::basic_string", %"class.std::__1::basic_string"* %29, i64 0, i32 0, i32 0, i32 0, i32 0, i32 0, i32 0
  %157 = bitcast %"class.std::__1::basic_string"* %30 to i8*
  %158 = bitcast %"class.std::__1::basic_string"* %30 to %"struct.std::__1::basic_string<char, std::__1::char_traits<char>, std::__1::allocator<char> >::__short"*
  %159 = getelementptr inbounds %"struct.std::__1::basic_string<char, std::__1::char_traits<char>, std::__1::allocator<char> >::__short", %"struct.std::__1::basic_string<char, std::__1::char_traits<char>, std::__1::allocator<char> >::__short"* %158, i64 0, i32 1, i32 0
  %160 = getelementptr inbounds %"class.std::__1::basic_string", %"class.std::__1::basic_string"* %30, i64 0, i32 0, i32 0, i32 0, i32 0, i32 0, i32 0
  %161 = getelementptr inbounds %"class.std::__1::basic_string", %"class.std::__1::basic_string"* %30, i64 0, i32 0, i32 0, i32 0, i32 0, i32 0, i32 1
  %162 = bitcast %"class.std::__1::basic_string"* %32 to i8*
  %163 = getelementptr inbounds %"class.std::__1::basic_string", %"class.std::__1::basic_string"* %32, i64 0, i32 0, i32 0, i32 0, i32 0, i32 0, i32 0
  %164 = getelementptr inbounds %"class.std::__1::basic_string", %"class.std::__1::basic_string"* %32, i64 0, i32 0, i32 0, i32 0, i32 0, i32 0, i32 2
  %165 = getelementptr inbounds %"class.std::__1::basic_string", %"class.std::__1::basic_string"* %32, i64 0, i32 0, i32 0, i32 0, i32 0, i32 0, i32 1
  %166 = bitcast %"class.std::__1::basic_string"* %32 to %"struct.std::__1::basic_string<char, std::__1::char_traits<char>, std::__1::allocator<char> >::__short"*
  %167 = getelementptr inbounds %"struct.std::__1::basic_string<char, std::__1::char_traits<char>, std::__1::allocator<char> >::__short", %"struct.std::__1::basic_string<char, std::__1::char_traits<char>, std::__1::allocator<char> >::__short"* %166, i64 0, i32 1, i32 0
  %168 = bitcast %"class.std::__1::basic_string"* %29 to %"struct.std::__1::basic_string<char, std::__1::char_traits<char>, std::__1::allocator<char> >::__short"*
  %169 = getelementptr inbounds %"struct.std::__1::basic_string<char, std::__1::char_traits<char>, std::__1::allocator<char> >::__short", %"struct.std::__1::basic_string<char, std::__1::char_traits<char>, std::__1::allocator<char> >::__short"* %168, i64 0, i32 1, i32 0
  %170 = bitcast %class.URLPattern* %33 to i8*
  %171 = bitcast %"class.std::__1::basic_string"* %34 to i8*
  %172 = getelementptr inbounds %"class.std::__1::basic_string", %"class.std::__1::basic_string"* %34, i64 0, i32 0, i32 0, i32 0, i32 0, i32 0, i32 0
  %173 = bitcast %"class.std::__1::basic_string"* %35 to i8*
  %174 = bitcast %"class.std::__1::basic_string"* %35 to %"struct.std::__1::basic_string<char, std::__1::char_traits<char>, std::__1::allocator<char> >::__short"*
  %175 = getelementptr inbounds %"struct.std::__1::basic_string<char, std::__1::char_traits<char>, std::__1::allocator<char> >::__short", %"struct.std::__1::basic_string<char, std::__1::char_traits<char>, std::__1::allocator<char> >::__short"* %174, i64 0, i32 1, i32 0
  %176 = getelementptr inbounds %"class.std::__1::basic_string", %"class.std::__1::basic_string"* %35, i64 0, i32 0, i32 0, i32 0, i32 0, i32 0, i32 0
  %177 = getelementptr inbounds %"class.std::__1::basic_string", %"class.std::__1::basic_string"* %35, i64 0, i32 0, i32 0, i32 0, i32 0, i32 0, i32 1
  %178 = bitcast %"class.std::__1::basic_string"* %37 to i8*
  %179 = getelementptr inbounds %"class.std::__1::basic_string", %"class.std::__1::basic_string"* %37, i64 0, i32 0, i32 0, i32 0, i32 0, i32 0, i32 0
  %180 = getelementptr inbounds %"class.std::__1::basic_string", %"class.std::__1::basic_string"* %37, i64 0, i32 0, i32 0, i32 0, i32 0, i32 0, i32 2
  %181 = getelementptr inbounds %"class.std::__1::basic_string", %"class.std::__1::basic_string"* %37, i64 0, i32 0, i32 0, i32 0, i32 0, i32 0, i32 1
  %182 = bitcast %"class.std::__1::basic_string"* %37 to %"struct.std::__1::basic_string<char, std::__1::char_traits<char>, std::__1::allocator<char> >::__short"*
  %183 = getelementptr inbounds %"struct.std::__1::basic_string<char, std::__1::char_traits<char>, std::__1::allocator<char> >::__short", %"struct.std::__1::basic_string<char, std::__1::char_traits<char>, std::__1::allocator<char> >::__short"* %182, i64 0, i32 1, i32 0
  %184 = bitcast %"class.std::__1::basic_string"* %34 to %"struct.std::__1::basic_string<char, std::__1::char_traits<char>, std::__1::allocator<char> >::__short"*
  %185 = getelementptr inbounds %"struct.std::__1::basic_string<char, std::__1::char_traits<char>, std::__1::allocator<char> >::__short", %"struct.std::__1::basic_string<char, std::__1::char_traits<char>, std::__1::allocator<char> >::__short"* %184, i64 0, i32 1, i32 0
  %186 = bitcast %"class.std::__1::unique_ptr"* %4 to i8*
  %187 = getelementptr inbounds %"class.std::__1::unique_ptr", %"class.std::__1::unique_ptr"* %4, i64 0, i32 0, i32 0, i32 0
  %188 = bitcast %"class.std::__1::unique_ptr"* %4 to i8**
  %189 = getelementptr inbounds i8, i8* %39, i64 40
  %190 = bitcast i8* %189 to %"class.std::__1::unique_ptr"**
  %191 = getelementptr inbounds i8, i8* %39, i64 48
  %192 = bitcast i8* %191 to %"class.std::__1::unique_ptr"**
  %193 = bitcast i8* %189 to i64*
  %194 = bitcast %"class.std::__1::basic_string"* %29 to i8*
  %195 = bitcast %"class.std::__1::basic_string"* %34 to i8*
  %196 = load i64, i64* %136, align 8
  %197 = load i64, i64* %137, align 8
  %198 = icmp eq i64 %196, %197
  br i1 %198, label %600, label %211

199:                                              ; preds = %126, %129
  %200 = bitcast %"class.std::__1::basic_string.100"* %19 to i8*
  call void @llvm.lifetime.start.p0i8(i64 24, i8* nonnull %200) #12
  %201 = call i64 @strlen(i8* nonnull getelementptr inbounds ([0 x i8], [0 x i8]* @_ZN10extensions15manifest_errors29kInvalidWebviewPartitionsListE, i64 0, i64 0)) #12
  call void @_ZN4base12ASCIIToUTF16ENS_16BasicStringPieceIcNSt3__111char_traitsIcEEEE(%"class.std::__1::basic_string.100"* nonnull sret %19, i8* getelementptr inbounds ([0 x i8], [0 x i8]* @_ZN10extensions15manifest_errors29kInvalidWebviewPartitionsListE, i64 0, i64 0), i64 %201) #12
  %202 = bitcast %"class.std::__1::basic_string.100"* %2 to %"struct.std::__1::basic_string<char16_t, std::__1::char_traits<char16_t>, std::__1::allocator<char16_t> >::__short"*
  %203 = getelementptr inbounds %"struct.std::__1::basic_string<char16_t, std::__1::char_traits<char16_t>, std::__1::allocator<char16_t> >::__short", %"struct.std::__1::basic_string<char16_t, std::__1::char_traits<char16_t>, std::__1::allocator<char16_t> >::__short"* %202, i64 0, i32 1, i32 1
  %204 = load i8, i8* %203, align 1
  %205 = icmp slt i8 %204, 0
  br i1 %205, label %206, label %209

206:                                              ; preds = %199
  %207 = bitcast %"class.std::__1::basic_string.100"* %2 to i8**
  %208 = load i8*, i8** %207, align 8
  call void @_ZdlPv(i8* %208) #13
  br label %209

209:                                              ; preds = %206, %199
  %210 = bitcast %"class.std::__1::basic_string.100"* %2 to i8*
  call void @llvm.memcpy.p0i8.p0i8.i64(i8* align 8 %210, i8* nonnull align 8 %200, i64 24, i1 false) #12
  call void @llvm.lifetime.end.p0i8(i64 24, i8* nonnull %200) #12
  br label %637

211:                                              ; preds = %135, %593
  %212 = phi i64 [ %594, %593 ], [ 0, %135 ]
  call void @llvm.lifetime.start.p0i8(i64 24, i8* nonnull %138) #12
  call void @llvm.lifetime.start.p0i8(i64 24, i8* nonnull %139) #12
  %213 = load %"class.base::Value"*, %"class.base::Value"** %130, align 8
  %214 = load i64, i64* %136, align 8
  %215 = ptrtoint %"class.base::Value"* %213 to i64
  %216 = sub i64 %214, %215
  %217 = ashr exact i64 %216, 5
  %218 = getelementptr inbounds %"class.base::Value", %"class.base::Value"* %213, i64 %217
  call void @_ZN4base25CheckedContiguousIteratorIKNS_5ValueEEC2EPS2_S4_S4_(%"class.base::CheckedContiguousIterator"* nonnull %14, %"class.base::Value"* %213, %"class.base::Value"* %213, %"class.base::Value"* %218) #12
  call void @llvm.memcpy.p0i8.p0i8.i64(i8* nonnull align 8 %138, i8* nonnull align 8 %139, i64 24, i1 false) #12
  %219 = call dereferenceable(24) %"class.base::CheckedContiguousIterator"* @_ZN4base25CheckedContiguousIteratorIKNS_5ValueEEpLEl(%"class.base::CheckedContiguousIterator"* nonnull %13, i64 %212) #12
  %220 = call dereferenceable(32) %"class.base::Value"* @_ZNK4base25CheckedContiguousIteratorIKNS_5ValueEEdeEv(%"class.base::CheckedContiguousIterator"* nonnull %13) #12
  call void @llvm.lifetime.end.p0i8(i64 24, i8* nonnull %139) #12
  call void @llvm.lifetime.end.p0i8(i64 24, i8* nonnull %138) #12
  %221 = getelementptr inbounds %"class.base::Value", %"class.base::Value"* %220, i64 0, i32 0, i32 0, i32 0, i32 0, i32 0, i32 0, i32 0, i32 1
  %222 = load i64, i64* %221, align 8
  %223 = trunc i64 %222 to i8
  %224 = icmp eq i8 %223, 6
  br i1 %224, label %257, label %225

225:                                              ; preds = %211
  %226 = bitcast %"class.std::__1::basic_string.100"* %20 to i8*
  call void @llvm.lifetime.start.p0i8(i64 24, i8* nonnull %226) #12
  %227 = call i64 @strlen(i8* nonnull getelementptr inbounds ([0 x i8], [0 x i8]* @_ZN10extensions15manifest_errors24kInvalidWebviewPartitionE, i64 0, i64 0)) #12
  %228 = bitcast %"class.std::__1::basic_string"* %21 to i8*
  call void @llvm.lifetime.start.p0i8(i64 24, i8* nonnull %228) #12
  call void @_ZN4base14NumberToStringEm(%"class.std::__1::basic_string"* nonnull sret %21, i64 %212) #12
  %229 = bitcast %"class.std::__1::basic_string"* %21 to %"struct.std::__1::basic_string<char, std::__1::char_traits<char>, std::__1::allocator<char> >::__short"*
  %230 = getelementptr inbounds %"struct.std::__1::basic_string<char, std::__1::char_traits<char>, std::__1::allocator<char> >::__short", %"struct.std::__1::basic_string<char, std::__1::char_traits<char>, std::__1::allocator<char> >::__short"* %229, i64 0, i32 1, i32 0
  %231 = load i8, i8* %230, align 1
  %232 = icmp slt i8 %231, 0
  %233 = getelementptr inbounds %"class.std::__1::basic_string", %"class.std::__1::basic_string"* %21, i64 0, i32 0, i32 0, i32 0, i32 0, i32 0, i32 0
  %234 = load i8*, i8** %233, align 8
  %235 = select i1 %232, i8* %234, i8* %228
  %236 = getelementptr inbounds %"class.std::__1::basic_string", %"class.std::__1::basic_string"* %21, i64 0, i32 0, i32 0, i32 0, i32 0, i32 0, i32 1
  %237 = load i64, i64* %236, align 8
  %238 = zext i8 %231 to i64
  %239 = select i1 %232, i64 %237, i64 %238
  call void @_ZN10extensions10ErrorUtils23FormatErrorMessageUTF16EN4base16BasicStringPieceIcNSt3__111char_traitsIcEEEES6_(%"class.std::__1::basic_string.100"* nonnull sret %20, i8* getelementptr inbounds ([0 x i8], [0 x i8]* @_ZN10extensions15manifest_errors24kInvalidWebviewPartitionE, i64 0, i64 0), i64 %227, i8* %235, i64 %239) #12
  %240 = bitcast %"class.std::__1::basic_string.100"* %2 to %"struct.std::__1::basic_string<char16_t, std::__1::char_traits<char16_t>, std::__1::allocator<char16_t> >::__short"*
  %241 = getelementptr inbounds %"struct.std::__1::basic_string<char16_t, std::__1::char_traits<char16_t>, std::__1::allocator<char16_t> >::__short", %"struct.std::__1::basic_string<char16_t, std::__1::char_traits<char16_t>, std::__1::allocator<char16_t> >::__short"* %240, i64 0, i32 1, i32 1
  %242 = load i8, i8* %241, align 1
  %243 = icmp slt i8 %242, 0
  br i1 %243, label %244, label %247

244:                                              ; preds = %225
  %245 = bitcast %"class.std::__1::basic_string.100"* %2 to i8**
  %246 = load i8*, i8** %245, align 8
  call void @_ZdlPv(i8* %246) #13
  br label %247

247:                                              ; preds = %244, %225
  %248 = bitcast %"class.std::__1::basic_string.100"* %2 to i8*
  call void @llvm.memcpy.p0i8.p0i8.i64(i8* align 8 %248, i8* nonnull align 8 %226, i64 24, i1 false) #12
  %249 = bitcast %"class.std::__1::basic_string.100"* %20 to %"struct.std::__1::basic_string<char16_t, std::__1::char_traits<char16_t>, std::__1::allocator<char16_t> >::__short"*
  %250 = getelementptr inbounds %"struct.std::__1::basic_string<char16_t, std::__1::char_traits<char16_t>, std::__1::allocator<char16_t> >::__short", %"struct.std::__1::basic_string<char16_t, std::__1::char_traits<char16_t>, std::__1::allocator<char16_t> >::__short"* %249, i64 0, i32 1, i32 1
  store i8 0, i8* %250, align 1
  %251 = bitcast %"class.std::__1::basic_string.100"* %20 to i16*
  store i16 0, i16* %251, align 8
  %252 = load i8, i8* %230, align 1
  %253 = icmp slt i8 %252, 0
  br i1 %253, label %254, label %256

254:                                              ; preds = %247
  %255 = load i8*, i8** %233, align 8
  call void @_ZdlPv(i8* %255) #13
  br label %256

256:                                              ; preds = %247, %254
  call void @llvm.lifetime.end.p0i8(i64 24, i8* nonnull %228) #12
  call void @llvm.lifetime.end.p0i8(i64 24, i8* nonnull %226) #12
  br label %637

257:                                              ; preds = %211
  call void @llvm.lifetime.start.p0i8(i64 24, i8* nonnull %140) #12
  call void @llvm.lifetime.start.p0i8(i64 24, i8* nonnull %141) #12
  %258 = load %"class.base::Value"*, %"class.base::Value"** %130, align 8
  %259 = load i64, i64* %136, align 8
  %260 = ptrtoint %"class.base::Value"* %258 to i64
  %261 = sub i64 %259, %260
  %262 = ashr exact i64 %261, 5
  %263 = getelementptr inbounds %"class.base::Value", %"class.base::Value"* %258, i64 %262
  call void @_ZN4base25CheckedContiguousIteratorIKNS_5ValueEEC2EPS2_S4_S4_(%"class.base::CheckedContiguousIterator"* nonnull %12, %"class.base::Value"* %258, %"class.base::Value"* %258, %"class.base::Value"* %263) #12
  call void @llvm.memcpy.p0i8.p0i8.i64(i8* nonnull align 8 %140, i8* nonnull align 8 %141, i64 24, i1 false) #12
  %264 = call dereferenceable(24) %"class.base::CheckedContiguousIterator"* @_ZN4base25CheckedContiguousIteratorIKNS_5ValueEEpLEl(%"class.base::CheckedContiguousIterator"* nonnull %11, i64 %212) #12
  %265 = call dereferenceable(32) %"class.base::Value"* @_ZNK4base25CheckedContiguousIteratorIKNS_5ValueEEdeEv(%"class.base::CheckedContiguousIterator"* nonnull %11) #12
  call void @llvm.lifetime.end.p0i8(i64 24, i8* nonnull %141) #12
  call void @llvm.lifetime.end.p0i8(i64 24, i8* nonnull %140) #12
  %266 = call i64 @strlen(i8* nonnull getelementptr inbounds ([0 x i8], [0 x i8]* @_ZN10extensions13manifest_keys12kWebviewNameE, i64 0, i64 0)) #12
  %267 = call %"class.base::Value"* @_ZNK4base5Value13FindKeyOfTypeENS_16BasicStringPieceIcNSt3__111char_traitsIcEEEENS0_4TypeE(%"class.base::Value"* %265, i8* getelementptr inbounds ([0 x i8], [0 x i8]* @_ZN10extensions13manifest_keys12kWebviewNameE, i64 0, i64 0), i64 %266, i8 zeroext 4) #12
  %268 = icmp eq %"class.base::Value"* %267, null
  br i1 %268, label %269, label %301

269:                                              ; preds = %257
  %270 = bitcast %"class.std::__1::basic_string.100"* %22 to i8*
  call void @llvm.lifetime.start.p0i8(i64 24, i8* nonnull %270) #12
  %271 = call i64 @strlen(i8* nonnull getelementptr inbounds ([0 x i8], [0 x i8]* @_ZN10extensions15manifest_errors28kInvalidWebviewPartitionNameE, i64 0, i64 0)) #12
  %272 = bitcast %"class.std::__1::basic_string"* %23 to i8*
  call void @llvm.lifetime.start.p0i8(i64 24, i8* nonnull %272) #12
  call void @_ZN4base14NumberToStringEm(%"class.std::__1::basic_string"* nonnull sret %23, i64 %212) #12
  %273 = bitcast %"class.std::__1::basic_string"* %23 to %"struct.std::__1::basic_string<char, std::__1::char_traits<char>, std::__1::allocator<char> >::__short"*
  %274 = getelementptr inbounds %"struct.std::__1::basic_string<char, std::__1::char_traits<char>, std::__1::allocator<char> >::__short", %"struct.std::__1::basic_string<char, std::__1::char_traits<char>, std::__1::allocator<char> >::__short"* %273, i64 0, i32 1, i32 0
  %275 = load i8, i8* %274, align 1
  %276 = icmp slt i8 %275, 0
  %277 = getelementptr inbounds %"class.std::__1::basic_string", %"class.std::__1::basic_string"* %23, i64 0, i32 0, i32 0, i32 0, i32 0, i32 0, i32 0
  %278 = load i8*, i8** %277, align 8
  %279 = select i1 %276, i8* %278, i8* %272
  %280 = getelementptr inbounds %"class.std::__1::basic_string", %"class.std::__1::basic_string"* %23, i64 0, i32 0, i32 0, i32 0, i32 0, i32 0, i32 1
  %281 = load i64, i64* %280, align 8
  %282 = zext i8 %275 to i64
  %283 = select i1 %276, i64 %281, i64 %282
  call void @_ZN10extensions10ErrorUtils23FormatErrorMessageUTF16EN4base16BasicStringPieceIcNSt3__111char_traitsIcEEEES6_(%"class.std::__1::basic_string.100"* nonnull sret %22, i8* getelementptr inbounds ([0 x i8], [0 x i8]* @_ZN10extensions15manifest_errors28kInvalidWebviewPartitionNameE, i64 0, i64 0), i64 %271, i8* %279, i64 %283) #12
  %284 = bitcast %"class.std::__1::basic_string.100"* %2 to %"struct.std::__1::basic_string<char16_t, std::__1::char_traits<char16_t>, std::__1::allocator<char16_t> >::__short"*
  %285 = getelementptr inbounds %"struct.std::__1::basic_string<char16_t, std::__1::char_traits<char16_t>, std::__1::allocator<char16_t> >::__short", %"struct.std::__1::basic_string<char16_t, std::__1::char_traits<char16_t>, std::__1::allocator<char16_t> >::__short"* %284, i64 0, i32 1, i32 1
  %286 = load i8, i8* %285, align 1
  %287 = icmp slt i8 %286, 0
  br i1 %287, label %288, label %291

288:                                              ; preds = %269
  %289 = bitcast %"class.std::__1::basic_string.100"* %2 to i8**
  %290 = load i8*, i8** %289, align 8
  call void @_ZdlPv(i8* %290) #13
  br label %291

291:                                              ; preds = %288, %269
  %292 = bitcast %"class.std::__1::basic_string.100"* %2 to i8*
  call void @llvm.memcpy.p0i8.p0i8.i64(i8* align 8 %292, i8* nonnull align 8 %270, i64 24, i1 false) #12
  %293 = bitcast %"class.std::__1::basic_string.100"* %22 to %"struct.std::__1::basic_string<char16_t, std::__1::char_traits<char16_t>, std::__1::allocator<char16_t> >::__short"*
  %294 = getelementptr inbounds %"struct.std::__1::basic_string<char16_t, std::__1::char_traits<char16_t>, std::__1::allocator<char16_t> >::__short", %"struct.std::__1::basic_string<char16_t, std::__1::char_traits<char16_t>, std::__1::allocator<char16_t> >::__short"* %293, i64 0, i32 1, i32 1
  store i8 0, i8* %294, align 1
  %295 = bitcast %"class.std::__1::basic_string.100"* %22 to i16*
  store i16 0, i16* %295, align 8
  %296 = load i8, i8* %274, align 1
  %297 = icmp slt i8 %296, 0
  br i1 %297, label %298, label %300

298:                                              ; preds = %291
  %299 = load i8*, i8** %277, align 8
  call void @_ZdlPv(i8* %299) #13
  br label %300

300:                                              ; preds = %291, %298
  call void @llvm.lifetime.end.p0i8(i64 24, i8* nonnull %272) #12
  call void @llvm.lifetime.end.p0i8(i64 24, i8* nonnull %270) #12
  br label %637

301:                                              ; preds = %257
  %302 = call dereferenceable(24) %"class.std::__1::basic_string"* @_ZNK4base5Value9GetStringEv(%"class.base::Value"* nonnull %267) #12
  call void @llvm.lifetime.start.p0i8(i64 24, i8* nonnull %142) #12
  call void @llvm.lifetime.start.p0i8(i64 24, i8* nonnull %143) #12
  %303 = load %"class.base::Value"*, %"class.base::Value"** %130, align 8
  %304 = load i64, i64* %136, align 8
  %305 = ptrtoint %"class.base::Value"* %303 to i64
  %306 = sub i64 %304, %305
  %307 = ashr exact i64 %306, 5
  %308 = getelementptr inbounds %"class.base::Value", %"class.base::Value"* %303, i64 %307
  call void @_ZN4base25CheckedContiguousIteratorIKNS_5ValueEEC2EPS2_S4_S4_(%"class.base::CheckedContiguousIterator"* nonnull %10, %"class.base::Value"* %303, %"class.base::Value"* %303, %"class.base::Value"* %308) #12
  call void @llvm.memcpy.p0i8.p0i8.i64(i8* nonnull align 8 %142, i8* nonnull align 8 %143, i64 24, i1 false) #12
  %309 = call dereferenceable(24) %"class.base::CheckedContiguousIterator"* @_ZN4base25CheckedContiguousIteratorIKNS_5ValueEEpLEl(%"class.base::CheckedContiguousIterator"* nonnull %9, i64 %212) #12
  %310 = call dereferenceable(32) %"class.base::Value"* @_ZNK4base25CheckedContiguousIteratorIKNS_5ValueEEdeEv(%"class.base::CheckedContiguousIterator"* nonnull %9) #12
  call void @llvm.lifetime.end.p0i8(i64 24, i8* nonnull %143) #12
  call void @llvm.lifetime.end.p0i8(i64 24, i8* nonnull %142) #12
  %311 = call i64 @strlen(i8* nonnull getelementptr inbounds ([0 x i8], [0 x i8]* @_ZN10extensions13manifest_keys27kWebviewAccessibleResourcesE, i64 0, i64 0)) #12
  %312 = call %"class.base::Value"* @_ZNK4base5Value13FindKeyOfTypeENS_16BasicStringPieceIcNSt3__111char_traitsIcEEEENS0_4TypeE(%"class.base::Value"* %310, i8* getelementptr inbounds ([0 x i8], [0 x i8]* @_ZN10extensions13manifest_keys27kWebviewAccessibleResourcesE, i64 0, i64 0), i64 %311, i8 zeroext 7) #12
  %313 = icmp eq %"class.base::Value"* %312, null
  br i1 %313, label %314, label %326

314:                                              ; preds = %301
  %315 = bitcast %"class.std::__1::basic_string.100"* %24 to i8*
  call void @llvm.lifetime.start.p0i8(i64 24, i8* nonnull %315) #12
  %316 = call i64 @strlen(i8* nonnull getelementptr inbounds ([0 x i8], [0 x i8]* @_ZN10extensions15manifest_errors38kInvalidWebviewAccessibleResourcesListE, i64 0, i64 0)) #12
  call void @_ZN4base12ASCIIToUTF16ENS_16BasicStringPieceIcNSt3__111char_traitsIcEEEE(%"class.std::__1::basic_string.100"* nonnull sret %24, i8* getelementptr inbounds ([0 x i8], [0 x i8]* @_ZN10extensions15manifest_errors38kInvalidWebviewAccessibleResourcesListE, i64 0, i64 0), i64 %316) #12
  %317 = bitcast %"class.std::__1::basic_string.100"* %2 to %"struct.std::__1::basic_string<char16_t, std::__1::char_traits<char16_t>, std::__1::allocator<char16_t> >::__short"*
  %318 = getelementptr inbounds %"struct.std::__1::basic_string<char16_t, std::__1::char_traits<char16_t>, std::__1::allocator<char16_t> >::__short", %"struct.std::__1::basic_string<char16_t, std::__1::char_traits<char16_t>, std::__1::allocator<char16_t> >::__short"* %317, i64 0, i32 1, i32 1
  %319 = load i8, i8* %318, align 1
  %320 = icmp slt i8 %319, 0
  br i1 %320, label %321, label %324

321:                                              ; preds = %314
  %322 = bitcast %"class.std::__1::basic_string.100"* %2 to i8**
  %323 = load i8*, i8** %322, align 8
  call void @_ZdlPv(i8* %323) #13
  br label %324

324:                                              ; preds = %321, %314
  %325 = bitcast %"class.std::__1::basic_string.100"* %2 to i8*
  call void @llvm.memcpy.p0i8.p0i8.i64(i8* align 8 %325, i8* nonnull align 8 %315, i64 24, i1 false) #12
  call void @llvm.lifetime.end.p0i8(i64 24, i8* nonnull %315) #12
  br label %637

326:                                              ; preds = %301
  %327 = call %"class.std::__1::vector.77"* @_ZNK4base5Value7GetListEv(%"class.base::Value"* nonnull %312) #12
  %328 = icmp eq %"class.std::__1::vector.77"* %327, null
  br i1 %328, label %335, label %329

329:                                              ; preds = %326
  %330 = getelementptr inbounds %"class.std::__1::vector.77", %"class.std::__1::vector.77"* %327, i64 0, i32 0, i32 0
  %331 = load %"class.base::Value"*, %"class.base::Value"** %330, align 8
  %332 = getelementptr inbounds %"class.std::__1::vector.77", %"class.std::__1::vector.77"* %327, i64 0, i32 0, i32 1
  %333 = load %"class.base::Value"*, %"class.base::Value"** %332, align 8
  %334 = icmp eq %"class.base::Value"* %331, %333
  br i1 %334, label %335, label %347

335:                                              ; preds = %326, %329
  %336 = bitcast %"class.std::__1::basic_string.100"* %25 to i8*
  call void @llvm.lifetime.start.p0i8(i64 24, i8* nonnull %336) #12
  %337 = call i64 @strlen(i8* nonnull getelementptr inbounds ([0 x i8], [0 x i8]* @_ZN10extensions15manifest_errors38kInvalidWebviewAccessibleResourcesListE, i64 0, i64 0)) #12
  call void @_ZN4base12ASCIIToUTF16ENS_16BasicStringPieceIcNSt3__111char_traitsIcEEEE(%"class.std::__1::basic_string.100"* nonnull sret %25, i8* getelementptr inbounds ([0 x i8], [0 x i8]* @_ZN10extensions15manifest_errors38kInvalidWebviewAccessibleResourcesListE, i64 0, i64 0), i64 %337) #12
  %338 = bitcast %"class.std::__1::basic_string.100"* %2 to %"struct.std::__1::basic_string<char16_t, std::__1::char_traits<char16_t>, std::__1::allocator<char16_t> >::__short"*
  %339 = getelementptr inbounds %"struct.std::__1::basic_string<char16_t, std::__1::char_traits<char16_t>, std::__1::allocator<char16_t> >::__short", %"struct.std::__1::basic_string<char16_t, std::__1::char_traits<char16_t>, std::__1::allocator<char16_t> >::__short"* %338, i64 0, i32 1, i32 1
  %340 = load i8, i8* %339, align 1
  %341 = icmp slt i8 %340, 0
  br i1 %341, label %342, label %345

342:                                              ; preds = %335
  %343 = bitcast %"class.std::__1::basic_string.100"* %2 to i8**
  %344 = load i8*, i8** %343, align 8
  call void @_ZdlPv(i8* %344) #13
  br label %345

345:                                              ; preds = %342, %335
  %346 = bitcast %"class.std::__1::basic_string.100"* %2 to i8*
  call void @llvm.memcpy.p0i8.p0i8.i64(i8* align 8 %346, i8* nonnull align 8 %336, i64 24, i1 false) #12
  call void @llvm.lifetime.end.p0i8(i64 24, i8* nonnull %336) #12
  br label %637

347:                                              ; preds = %329
  %348 = call i8* @_Znwm(i64 56) #13
  %349 = bitcast i8* %348 to i32 (...)***
  store i32 (...)** bitcast (i8** getelementptr inbounds ({ [4 x i8*] }, { [4 x i8*] }* @_ZTVN10extensions13PartitionItemE, i64 0, inrange i32 0, i64 2) to i32 (...)**), i32 (...)*** %349, align 8
  %350 = getelementptr inbounds i8, i8* %348, i64 8
  %351 = bitcast %"class.std::__1::basic_string"* %302 to %"struct.std::__1::basic_string<char, std::__1::char_traits<char>, std::__1::allocator<char> >::__short"*
  %352 = getelementptr inbounds %"struct.std::__1::basic_string<char, std::__1::char_traits<char>, std::__1::allocator<char> >::__short", %"struct.std::__1::basic_string<char, std::__1::char_traits<char>, std::__1::allocator<char> >::__short"* %351, i64 0, i32 1, i32 0
  %353 = load i8, i8* %352, align 1
  %354 = icmp slt i8 %353, 0
  br i1 %354, label %357, label %355

355:                                              ; preds = %347
  %356 = bitcast %"class.std::__1::basic_string"* %302 to i8*
  call void @llvm.memcpy.p0i8.p0i8.i64(i8* align 8 %350, i8* align 8 %356, i64 24, i1 false) #12
  br label %363

357:                                              ; preds = %347
  %358 = bitcast i8* %350 to %"class.std::__1::basic_string"*
  %359 = getelementptr inbounds %"class.std::__1::basic_string", %"class.std::__1::basic_string"* %302, i64 0, i32 0, i32 0, i32 0, i32 0, i32 0, i32 0
  %360 = load i8*, i8** %359, align 8
  %361 = getelementptr inbounds %"class.std::__1::basic_string", %"class.std::__1::basic_string"* %302, i64 0, i32 0, i32 0, i32 0, i32 0, i32 0, i32 1
  %362 = load i64, i64* %361, align 8
  call void @_ZNSt3__112basic_stringIcNS_11char_traitsIcEENS_9allocatorIcEEE25__init_copy_ctor_externalEPKcm(%"class.std::__1::basic_string"* %358, i8* %360, i64 %362) #12
  br label %363

363:                                              ; preds = %355, %357
  %364 = getelementptr inbounds i8, i8* %348, i64 32
  %365 = bitcast i8* %364 to %"class.extensions::URLPatternSet"*
  call void @_ZN10extensions13URLPatternSetC1Ev(%"class.extensions::URLPatternSet"* %365) #12
  %366 = ptrtoint i8* %348 to i64
  %367 = bitcast %"class.base::Value"** %332 to i64*
  %368 = bitcast %"class.std::__1::vector.77"* %327 to i64*
  %369 = load i64, i64* %367, align 8
  %370 = load i64, i64* %368, align 8
  %371 = icmp eq i64 %369, %370
  br i1 %371, label %570, label %372

372:                                              ; preds = %363, %563
  %373 = phi i64 [ %564, %563 ], [ 0, %363 ]
  call void @llvm.lifetime.start.p0i8(i64 24, i8* nonnull %144) #12
  call void @llvm.lifetime.start.p0i8(i64 24, i8* nonnull %145) #12
  %374 = load %"class.base::Value"*, %"class.base::Value"** %330, align 8
  %375 = load i64, i64* %367, align 8
  %376 = ptrtoint %"class.base::Value"* %374 to i64
  %377 = sub i64 %375, %376
  %378 = ashr exact i64 %377, 5
  %379 = getelementptr inbounds %"class.base::Value", %"class.base::Value"* %374, i64 %378
  call void @_ZN4base25CheckedContiguousIteratorIKNS_5ValueEEC2EPS2_S4_S4_(%"class.base::CheckedContiguousIterator"* nonnull %8, %"class.base::Value"* %374, %"class.base::Value"* %374, %"class.base::Value"* %379) #12
  call void @llvm.memcpy.p0i8.p0i8.i64(i8* nonnull align 8 %144, i8* nonnull align 8 %145, i64 24, i1 false) #12
  %380 = call dereferenceable(24) %"class.base::CheckedContiguousIterator"* @_ZN4base25CheckedContiguousIteratorIKNS_5ValueEEpLEl(%"class.base::CheckedContiguousIterator"* nonnull %7, i64 %373) #12
  %381 = call dereferenceable(32) %"class.base::Value"* @_ZNK4base25CheckedContiguousIteratorIKNS_5ValueEEdeEv(%"class.base::CheckedContiguousIterator"* nonnull %7) #12
  call void @llvm.lifetime.end.p0i8(i64 24, i8* nonnull %145) #12
  call void @llvm.lifetime.end.p0i8(i64 24, i8* nonnull %144) #12
  %382 = getelementptr inbounds %"class.base::Value", %"class.base::Value"* %381, i64 0, i32 0, i32 0, i32 0, i32 0, i32 0, i32 0, i32 0, i32 1
  %383 = load i64, i64* %382, align 8
  %384 = trunc i64 %383 to i8
  %385 = icmp eq i8 %384, 4
  br i1 %385, label %417, label %386

386:                                              ; preds = %372
  %387 = bitcast %"class.std::__1::basic_string.100"* %26 to i8*
  call void @llvm.lifetime.start.p0i8(i64 24, i8* nonnull %387) #12
  %388 = call i64 @strlen(i8* nonnull getelementptr inbounds ([0 x i8], [0 x i8]* @_ZN10extensions15manifest_errors33kInvalidWebviewAccessibleResourceE, i64 0, i64 0)) #12
  %389 = bitcast %"class.std::__1::basic_string"* %27 to i8*
  call void @llvm.lifetime.start.p0i8(i64 24, i8* nonnull %389) #12
  call void @_ZN4base14NumberToStringEm(%"class.std::__1::basic_string"* nonnull sret %27, i64 %373) #12
  %390 = bitcast %"class.std::__1::basic_string"* %27 to %"struct.std::__1::basic_string<char, std::__1::char_traits<char>, std::__1::allocator<char> >::__short"*
  %391 = getelementptr inbounds %"struct.std::__1::basic_string<char, std::__1::char_traits<char>, std::__1::allocator<char> >::__short", %"struct.std::__1::basic_string<char, std::__1::char_traits<char>, std::__1::allocator<char> >::__short"* %390, i64 0, i32 1, i32 0
  %392 = load i8, i8* %391, align 1
  %393 = icmp slt i8 %392, 0
  %394 = getelementptr inbounds %"class.std::__1::basic_string", %"class.std::__1::basic_string"* %27, i64 0, i32 0, i32 0, i32 0, i32 0, i32 0, i32 0
  %395 = load i8*, i8** %394, align 8
  %396 = select i1 %393, i8* %395, i8* %389
  %397 = getelementptr inbounds %"class.std::__1::basic_string", %"class.std::__1::basic_string"* %27, i64 0, i32 0, i32 0, i32 0, i32 0, i32 0, i32 1
  %398 = load i64, i64* %397, align 8
  %399 = zext i8 %392 to i64
  %400 = select i1 %393, i64 %398, i64 %399
  call void @_ZN10extensions10ErrorUtils23FormatErrorMessageUTF16EN4base16BasicStringPieceIcNSt3__111char_traitsIcEEEES6_(%"class.std::__1::basic_string.100"* nonnull sret %26, i8* getelementptr inbounds ([0 x i8], [0 x i8]* @_ZN10extensions15manifest_errors33kInvalidWebviewAccessibleResourceE, i64 0, i64 0), i64 %388, i8* %396, i64 %400) #12
  %401 = bitcast %"class.std::__1::basic_string.100"* %2 to %"struct.std::__1::basic_string<char16_t, std::__1::char_traits<char16_t>, std::__1::allocator<char16_t> >::__short"*
  %402 = getelementptr inbounds %"struct.std::__1::basic_string<char16_t, std::__1::char_traits<char16_t>, std::__1::allocator<char16_t> >::__short", %"struct.std::__1::basic_string<char16_t, std::__1::char_traits<char16_t>, std::__1::allocator<char16_t> >::__short"* %401, i64 0, i32 1, i32 1
  %403 = load i8, i8* %402, align 1
  %404 = icmp slt i8 %403, 0
  br i1 %404, label %405, label %408

405:                                              ; preds = %386
  %406 = bitcast %"class.std::__1::basic_string.100"* %2 to i8**
  %407 = load i8*, i8** %406, align 8
  call void @_ZdlPv(i8* %407) #13
  br label %408

408:                                              ; preds = %405, %386
  %409 = bitcast %"class.std::__1::basic_string.100"* %2 to i8*
  call void @llvm.memcpy.p0i8.p0i8.i64(i8* align 8 %409, i8* nonnull align 8 %387, i64 24, i1 false) #12
  %410 = bitcast %"class.std::__1::basic_string.100"* %26 to %"struct.std::__1::basic_string<char16_t, std::__1::char_traits<char16_t>, std::__1::allocator<char16_t> >::__short"*
  %411 = getelementptr inbounds %"struct.std::__1::basic_string<char16_t, std::__1::char_traits<char16_t>, std::__1::allocator<char16_t> >::__short", %"struct.std::__1::basic_string<char16_t, std::__1::char_traits<char16_t>, std::__1::allocator<char16_t> >::__short"* %410, i64 0, i32 1, i32 1
  store i8 0, i8* %411, align 1
  %412 = bitcast %"class.std::__1::basic_string.100"* %26 to i16*
  store i16 0, i16* %412, align 8
  %413 = load i8, i8* %391, align 1
  %414 = icmp slt i8 %413, 0
  br i1 %414, label %415, label %587

415:                                              ; preds = %408
  %416 = load i8*, i8** %394, align 8
  call void @_ZdlPv(i8* %416) #13
  br label %587

417:                                              ; preds = %372
  call void @llvm.lifetime.start.p0i8(i64 120, i8* nonnull %146) #12
  call void @llvm.memset.p0i8.i64(i8* nonnull align 8 %146, i8 -86, i64 120, i1 false)
  call void @llvm.lifetime.start.p0i8(i64 24, i8* nonnull %148) #12
  call void @llvm.lifetime.start.p0i8(i64 24, i8* nonnull %149) #12
  %418 = load %"class.base::Value"*, %"class.base::Value"** %330, align 8
  %419 = load i64, i64* %367, align 8
  %420 = ptrtoint %"class.base::Value"* %418 to i64
  %421 = sub i64 %419, %420
  %422 = ashr exact i64 %421, 5
  %423 = getelementptr inbounds %"class.base::Value", %"class.base::Value"* %418, i64 %422
  call void @_ZN4base25CheckedContiguousIteratorIKNS_5ValueEEC2EPS2_S4_S4_(%"class.base::CheckedContiguousIterator"* nonnull %6, %"class.base::Value"* %418, %"class.base::Value"* %418, %"class.base::Value"* %423) #12
  call void @llvm.memcpy.p0i8.p0i8.i64(i8* nonnull align 8 %148, i8* nonnull align 8 %149, i64 24, i1 false) #12
  %424 = call dereferenceable(24) %"class.base::CheckedContiguousIterator"* @_ZN4base25CheckedContiguousIteratorIKNS_5ValueEEpLEl(%"class.base::CheckedContiguousIterator"* nonnull %5, i64 %373) #12
  %425 = call dereferenceable(32) %"class.base::Value"* @_ZNK4base25CheckedContiguousIteratorIKNS_5ValueEEdeEv(%"class.base::CheckedContiguousIterator"* nonnull %5) #12
  call void @llvm.lifetime.end.p0i8(i64 24, i8* nonnull %149) #12
  call void @llvm.lifetime.end.p0i8(i64 24, i8* nonnull %148) #12
  %426 = call dereferenceable(24) %"class.std::__1::basic_string"* @_ZNK4base5Value9GetStringEv(%"class.base::Value"* %425) #12
  call void @_ZN10extensions9Extension14GetResourceURLERK4GURLRKNSt3__112basic_stringIcNS4_11char_traitsIcEENS4_9allocatorIcEEEE(%class.GURL* nonnull sret %28, %class.GURL* dereferenceable(120) %147, %"class.std::__1::basic_string"* dereferenceable(24) %426) #12
  %427 = load i32, i32* %150, align 4
  %428 = icmp slt i32 %427, 1
  br i1 %428, label %438, label %429

429:                                              ; preds = %417
  %430 = load i32, i32* %151, align 8
  %431 = sext i32 %430 to i64
  %432 = load i8, i8* %153, align 1
  %433 = icmp slt i8 %432, 0
  %434 = load i8*, i8** %154, align 8
  %435 = select i1 %433, i8* %434, i8* %146
  %436 = getelementptr inbounds i8, i8* %435, i64 %431
  %437 = sext i32 %427 to i64
  br label %438

438:                                              ; preds = %417, %429
  %439 = phi i8* [ %436, %429 ], [ null, %417 ]
  %440 = phi i64 [ %437, %429 ], [ 0, %417 ]
  %441 = call dereferenceable(24) %"class.std::__1::basic_string"* @_ZNK10extensions9Extension2idEv(%"class.extensions::Extension"* %1) #12
  %442 = bitcast %"class.std::__1::basic_string"* %441 to %"struct.std::__1::basic_string<char, std::__1::char_traits<char>, std::__1::allocator<char> >::__short"*
  %443 = getelementptr inbounds %"struct.std::__1::basic_string<char, std::__1::char_traits<char>, std::__1::allocator<char> >::__short", %"struct.std::__1::basic_string<char, std::__1::char_traits<char>, std::__1::allocator<char> >::__short"* %442, i64 0, i32 1, i32 0
  %444 = load i8, i8* %443, align 1
  %445 = icmp slt i8 %444, 0
  %446 = getelementptr inbounds %"class.std::__1::basic_string", %"class.std::__1::basic_string"* %441, i64 0, i32 0, i32 0, i32 0, i32 0, i32 0, i32 1
  %447 = load i64, i64* %446, align 8
  %448 = zext i8 %444 to i64
  %449 = select i1 %445, i64 %447, i64 %448
  %450 = icmp eq i64 %440, %449
  br i1 %450, label %451, label %458

451:                                              ; preds = %438
  %452 = getelementptr inbounds %"class.std::__1::basic_string", %"class.std::__1::basic_string"* %441, i64 0, i32 0, i32 0, i32 0, i32 0, i32 0, i32 0
  %453 = load i8*, i8** %452, align 8
  %454 = bitcast %"class.std::__1::basic_string"* %441 to i8*
  %455 = select i1 %445, i8* %453, i8* %454
  %456 = call i32 @bcmp(i8* %439, i8* %455, i64 %440) #12
  %457 = icmp eq i32 %456, 0
  br i1 %457, label %501, label %458

458:                                              ; preds = %451, %438
  call void @llvm.lifetime.start.p0i8(i64 24, i8* nonnull %155) #12
  call void @llvm.memset.p0i8.i64(i8* nonnull align 8 %194, i8 -86, i64 24, i1 false)
  %459 = call i64 @strlen(i8* nonnull getelementptr inbounds ([0 x i8], [0 x i8]* @_ZN10extensions15manifest_errors33kInvalidWebviewAccessibleResourceE, i64 0, i64 0)) #12
  call void @llvm.lifetime.start.p0i8(i64 24, i8* nonnull %157) #12
  call void @_ZN4base14NumberToStringEm(%"class.std::__1::basic_string"* nonnull sret %30, i64 %373) #12
  %460 = load i8, i8* %159, align 1
  %461 = icmp slt i8 %460, 0
  %462 = load i8*, i8** %160, align 8
  %463 = select i1 %461, i8* %462, i8* %157
  %464 = load i64, i64* %161, align 8
  %465 = zext i8 %460 to i64
  %466 = select i1 %461, i64 %464, i64 %465
  call void @_ZN10extensions10ErrorUtils18FormatErrorMessageEN4base16BasicStringPieceIcNSt3__111char_traitsIcEEEES6_(%"class.std::__1::basic_string"* nonnull sret %29, i8* getelementptr inbounds ([0 x i8], [0 x i8]* @_ZN10extensions15manifest_errors33kInvalidWebviewAccessibleResourceE, i64 0, i64 0), i64 %459, i8* %463, i64 %466) #12
  %467 = load i8, i8* %159, align 1
  %468 = icmp slt i8 %467, 0
  br i1 %468, label %469, label %471

469:                                              ; preds = %458
  %470 = load i8*, i8** %160, align 8
  call void @_ZdlPv(i8* %470) #13
  br label %471

471:                                              ; preds = %458, %469
  call void @llvm.lifetime.end.p0i8(i64 24, i8* nonnull %157) #12
  call void @llvm.lifetime.start.p0i8(i64 24, i8* nonnull %162) #12
  %472 = call i64 @strlen(i8* getelementptr inbounds ([0 x i8], [0 x i8]* @_ZN10extensions13manifest_keys8kWebviewE, i64 0, i64 0)) #12
  %473 = icmp ugt i64 %472, -17
  br i1 %473, label %474, label %476

474:                                              ; preds = %471
  %475 = bitcast %"class.std::__1::basic_string"* %32 to %"class.std::__1::__basic_string_common"*
  call void @_ZNKSt3__121__basic_string_commonILb1EE20__throw_length_errorEv(%"class.std::__1::__basic_string_common"* nonnull %475) #14
  unreachable

476:                                              ; preds = %471
  %477 = icmp ult i64 %472, 23
  br i1 %477, label %483, label %478

478:                                              ; preds = %476
  %479 = add nuw i64 %472, 16
  %480 = and i64 %479, -16
  %481 = call i8* @_Znwm(i64 %480) #13
  store i8* %481, i8** %163, align 8
  %482 = or i64 %480, -9223372036854775808
  store i64 %482, i64* %164, align 8
  store i64 %472, i64* %165, align 8
  br label %486

483:                                              ; preds = %476
  %484 = trunc i64 %472 to i8
  store i8 %484, i8* %167, align 1
  %485 = icmp eq i64 %472, 0
  br i1 %485, label %488, label %486

486:                                              ; preds = %483, %478
  %487 = phi i8* [ %481, %478 ], [ %162, %483 ]
  call void @llvm.memcpy.p0i8.p0i8.i64(i8* nonnull align 1 %487, i8* align 1 getelementptr inbounds ([0 x i8], [0 x i8]* @_ZN10extensions13manifest_keys8kWebviewE, i64 0, i64 0), i64 %472, i1 false) #12
  br label %488

488:                                              ; preds = %483, %486
  %489 = phi i8* [ %162, %483 ], [ %487, %486 ]
  %490 = getelementptr inbounds i8, i8* %489, i64 %472
  store i8 0, i8* %490, align 1
  call void @_ZN10extensions14InstallWarningC1ERKNSt3__112basic_stringIcNS1_11char_traitsIcEENS1_9allocatorIcEEEES9_(%"struct.extensions::InstallWarning"* nonnull %31, %"class.std::__1::basic_string"* nonnull dereferenceable(24) %29, %"class.std::__1::basic_string"* nonnull dereferenceable(24) %32) #12
  call void @_ZN10extensions9Extension17AddInstallWarningENS_14InstallWarningE(%"class.extensions::Extension"* %1, %"struct.extensions::InstallWarning"* nonnull %31) #12
  call void @_ZN10extensions14InstallWarningD1Ev(%"struct.extensions::InstallWarning"* nonnull %31) #12
  %491 = load i8, i8* %167, align 1
  %492 = icmp slt i8 %491, 0
  br i1 %492, label %493, label %495

493:                                              ; preds = %488
  %494 = load i8*, i8** %163, align 8
  call void @_ZdlPv(i8* %494) #13
  br label %495

495:                                              ; preds = %488, %493
  call void @llvm.lifetime.end.p0i8(i64 24, i8* nonnull %162) #12
  %496 = load i8, i8* %169, align 1
  %497 = icmp slt i8 %496, 0
  br i1 %497, label %498, label %500

498:                                              ; preds = %495
  %499 = load i8*, i8** %156, align 8
  call void @_ZdlPv(i8* %499) #13
  br label %500

500:                                              ; preds = %495, %498
  call void @llvm.lifetime.end.p0i8(i64 24, i8* nonnull %155) #12
  br label %563

501:                                              ; preds = %451
  call void @llvm.lifetime.start.p0i8(i64 160, i8* nonnull %170) #12
  call void @llvm.memset.p0i8.i64(i8* nonnull align 8 %170, i8 -86, i64 160, i1 false)
  call void @_ZN10URLPatternC1Ei(%class.URLPattern* nonnull %33, i32 32) #12
  %502 = call dereferenceable(24) %"class.std::__1::basic_string"* @_ZNK4GURL4specEv(%class.GURL* nonnull %28) #12
  %503 = bitcast %"class.std::__1::basic_string"* %502 to %"struct.std::__1::basic_string<char, std::__1::char_traits<char>, std::__1::allocator<char> >::__short"*
  %504 = getelementptr inbounds %"struct.std::__1::basic_string<char, std::__1::char_traits<char>, std::__1::allocator<char> >::__short", %"struct.std::__1::basic_string<char, std::__1::char_traits<char>, std::__1::allocator<char> >::__short"* %503, i64 0, i32 1, i32 0
  %505 = load i8, i8* %504, align 1
  %506 = icmp slt i8 %505, 0
  %507 = getelementptr inbounds %"class.std::__1::basic_string", %"class.std::__1::basic_string"* %502, i64 0, i32 0, i32 0, i32 0, i32 0, i32 0, i32 0
  %508 = load i8*, i8** %507, align 8
  %509 = bitcast %"class.std::__1::basic_string"* %502 to i8*
  %510 = select i1 %506, i8* %508, i8* %509
  %511 = getelementptr inbounds %"class.std::__1::basic_string", %"class.std::__1::basic_string"* %502, i64 0, i32 0, i32 0, i32 0, i32 0, i32 0, i32 1
  %512 = load i64, i64* %511, align 8
  %513 = zext i8 %505 to i64
  %514 = select i1 %506, i64 %512, i64 %513
  %515 = call i32 @_ZN10URLPattern5ParseEN4base16BasicStringPieceIcNSt3__111char_traitsIcEEEE(%class.URLPattern* nonnull %33, i8* %510, i64 %514) #12
  %516 = icmp eq i32 %515, 0
  br i1 %516, label %560, label %517

517:                                              ; preds = %501
  call void @llvm.lifetime.start.p0i8(i64 24, i8* nonnull %171) #12
  call void @llvm.memset.p0i8.i64(i8* nonnull align 8 %195, i8 -86, i64 24, i1 false)
  %518 = call i64 @strlen(i8* nonnull getelementptr inbounds ([0 x i8], [0 x i8]* @_ZN10extensions15manifest_errors33kInvalidWebviewAccessibleResourceE, i64 0, i64 0)) #12
  call void @llvm.lifetime.start.p0i8(i64 24, i8* nonnull %173) #12
  call void @_ZN4base14NumberToStringEm(%"class.std::__1::basic_string"* nonnull sret %35, i64 %373) #12
  %519 = load i8, i8* %175, align 1
  %520 = icmp slt i8 %519, 0
  %521 = load i8*, i8** %176, align 8
  %522 = select i1 %520, i8* %521, i8* %173
  %523 = load i64, i64* %177, align 8
  %524 = zext i8 %519 to i64
  %525 = select i1 %520, i64 %523, i64 %524
  call void @_ZN10extensions10ErrorUtils18FormatErrorMessageEN4base16BasicStringPieceIcNSt3__111char_traitsIcEEEES6_(%"class.std::__1::basic_string"* nonnull sret %34, i8* getelementptr inbounds ([0 x i8], [0 x i8]* @_ZN10extensions15manifest_errors33kInvalidWebviewAccessibleResourceE, i64 0, i64 0), i64 %518, i8* %522, i64 %525) #12
  %526 = load i8, i8* %175, align 1
  %527 = icmp slt i8 %526, 0
  br i1 %527, label %528, label %530

528:                                              ; preds = %517
  %529 = load i8*, i8** %176, align 8
  call void @_ZdlPv(i8* %529) #13
  br label %530

530:                                              ; preds = %517, %528
  call void @llvm.lifetime.end.p0i8(i64 24, i8* nonnull %173) #12
  call void @llvm.lifetime.start.p0i8(i64 24, i8* nonnull %178) #12
  %531 = call i64 @strlen(i8* getelementptr inbounds ([0 x i8], [0 x i8]* @_ZN10extensions13manifest_keys8kWebviewE, i64 0, i64 0)) #12
  %532 = icmp ugt i64 %531, -17
  br i1 %532, label %533, label %535

533:                                              ; preds = %530
  %534 = bitcast %"class.std::__1::basic_string"* %37 to %"class.std::__1::__basic_string_common"*
  call void @_ZNKSt3__121__basic_string_commonILb1EE20__throw_length_errorEv(%"class.std::__1::__basic_string_common"* nonnull %534) #14
  unreachable

535:                                              ; preds = %530
  %536 = icmp ult i64 %531, 23
  br i1 %536, label %542, label %537

537:                                              ; preds = %535
  %538 = add nuw i64 %531, 16
  %539 = and i64 %538, -16
  %540 = call i8* @_Znwm(i64 %539) #13
  store i8* %540, i8** %179, align 8
  %541 = or i64 %539, -9223372036854775808
  store i64 %541, i64* %180, align 8
  store i64 %531, i64* %181, align 8
  br label %545

542:                                              ; preds = %535
  %543 = trunc i64 %531 to i8
  store i8 %543, i8* %183, align 1
  %544 = icmp eq i64 %531, 0
  br i1 %544, label %547, label %545

545:                                              ; preds = %542, %537
  %546 = phi i8* [ %540, %537 ], [ %178, %542 ]
  call void @llvm.memcpy.p0i8.p0i8.i64(i8* nonnull align 1 %546, i8* align 1 getelementptr inbounds ([0 x i8], [0 x i8]* @_ZN10extensions13manifest_keys8kWebviewE, i64 0, i64 0), i64 %531, i1 false) #12
  br label %547

547:                                              ; preds = %542, %545
  %548 = phi i8* [ %178, %542 ], [ %546, %545 ]
  %549 = getelementptr inbounds i8, i8* %548, i64 %531
  store i8 0, i8* %549, align 1
  call void @_ZN10extensions14InstallWarningC1ERKNSt3__112basic_stringIcNS1_11char_traitsIcEENS1_9allocatorIcEEEES9_(%"struct.extensions::InstallWarning"* nonnull %36, %"class.std::__1::basic_string"* nonnull dereferenceable(24) %34, %"class.std::__1::basic_string"* nonnull dereferenceable(24) %37) #12
  call void @_ZN10extensions9Extension17AddInstallWarningENS_14InstallWarningE(%"class.extensions::Extension"* %1, %"struct.extensions::InstallWarning"* nonnull %36) #12
  call void @_ZN10extensions14InstallWarningD1Ev(%"struct.extensions::InstallWarning"* nonnull %36) #12
  %550 = load i8, i8* %183, align 1
  %551 = icmp slt i8 %550, 0
  br i1 %551, label %552, label %554

552:                                              ; preds = %547
  %553 = load i8*, i8** %179, align 8
  call void @_ZdlPv(i8* %553) #13
  br label %554

554:                                              ; preds = %547, %552
  call void @llvm.lifetime.end.p0i8(i64 24, i8* nonnull %178) #12
  %555 = load i8, i8* %185, align 1
  %556 = icmp slt i8 %555, 0
  br i1 %556, label %557, label %559

557:                                              ; preds = %554
  %558 = load i8*, i8** %172, align 8
  call void @_ZdlPv(i8* %558) #13
  br label %559

559:                                              ; preds = %554, %557
  call void @llvm.lifetime.end.p0i8(i64 24, i8* nonnull %171) #12
  br label %562

560:                                              ; preds = %501
  %561 = call zeroext i1 @_ZN10extensions13URLPatternSet10AddPatternERK10URLPattern(%"class.extensions::URLPatternSet"* %365, %class.URLPattern* nonnull dereferenceable(160) %33) #12
  br label %562

562:                                              ; preds = %560, %559
  call void @_ZN10URLPatternD1Ev(%class.URLPattern* nonnull %33) #12
  call void @llvm.lifetime.end.p0i8(i64 160, i8* nonnull %170) #12
  br label %563

563:                                              ; preds = %562, %500
  call void @_ZN4GURLD1Ev(%class.GURL* nonnull %28) #12
  call void @llvm.lifetime.end.p0i8(i64 120, i8* nonnull %146) #12
  %564 = add nuw i64 %373, 1
  %565 = load i64, i64* %367, align 8
  %566 = load i64, i64* %368, align 8
  %567 = sub i64 %565, %566
  %568 = ashr exact i64 %567, 5
  %569 = icmp ult i64 %564, %568
  br i1 %569, label %372, label %570

570:                                              ; preds = %563, %363
  call void @llvm.lifetime.start.p0i8(i64 8, i8* nonnull %186)
  store i8* %348, i8** %188, align 8
  %571 = load %"class.std::__1::unique_ptr"*, %"class.std::__1::unique_ptr"** %190, align 8
  %572 = load %"class.std::__1::unique_ptr"*, %"class.std::__1::unique_ptr"** %192, align 8
  %573 = icmp ult %"class.std::__1::unique_ptr"* %571, %572
  br i1 %573, label %574, label %578

574:                                              ; preds = %570
  store %"class.extensions::PartitionItem"* null, %"class.extensions::PartitionItem"** %187, align 8
  %575 = bitcast %"class.std::__1::unique_ptr"* %571 to i64*
  store i64 %366, i64* %575, align 8
  %576 = getelementptr inbounds %"class.std::__1::unique_ptr", %"class.std::__1::unique_ptr"* %571, i64 1
  %577 = ptrtoint %"class.std::__1::unique_ptr"* %576 to i64
  store i64 %577, i64* %193, align 8
  br label %579

578:                                              ; preds = %570
  call void @_ZNSt3__16vectorINS_10unique_ptrIN10extensions13PartitionItemENS_14default_deleteIS3_EEEENS_9allocatorIS6_EEE21__push_back_slow_pathIS6_EEvOT_(%"class.std::__1::vector"* %57, %"class.std::__1::unique_ptr"* nonnull dereferenceable(8) %4) #12
  br label %579

579:                                              ; preds = %578, %574
  %580 = load %"class.extensions::PartitionItem"*, %"class.extensions::PartitionItem"** %187, align 8
  store %"class.extensions::PartitionItem"* null, %"class.extensions::PartitionItem"** %187, align 8
  %581 = icmp eq %"class.extensions::PartitionItem"* %580, null
  br i1 %581, label %593, label %582

582:                                              ; preds = %579
  %583 = bitcast %"class.extensions::PartitionItem"* %580 to void (%"class.extensions::PartitionItem"*)***
  %584 = load void (%"class.extensions::PartitionItem"*)**, void (%"class.extensions::PartitionItem"*)*** %583, align 8
  %585 = getelementptr inbounds void (%"class.extensions::PartitionItem"*)*, void (%"class.extensions::PartitionItem"*)** %584, i64 1
  %586 = load void (%"class.extensions::PartitionItem"*)*, void (%"class.extensions::PartitionItem"*)** %585, align 8
  call void %586(%"class.extensions::PartitionItem"* nonnull %580) #12
  br label %593

587:                                              ; preds = %415, %408
  call void @llvm.lifetime.end.p0i8(i64 24, i8* nonnull %389) #12
  call void @llvm.lifetime.end.p0i8(i64 24, i8* nonnull %387) #12
  %588 = bitcast i8* %348 to %"class.extensions::PartitionItem"*
  %589 = bitcast i8* %348 to void (%"class.extensions::PartitionItem"*)***
  %590 = load void (%"class.extensions::PartitionItem"*)**, void (%"class.extensions::PartitionItem"*)*** %589, align 8
  %591 = getelementptr inbounds void (%"class.extensions::PartitionItem"*)*, void (%"class.extensions::PartitionItem"*)** %590, i64 1
  %592 = load void (%"class.extensions::PartitionItem"*)*, void (%"class.extensions::PartitionItem"*)** %591, align 8
  call void %592(%"class.extensions::PartitionItem"* nonnull %588) #12
  br label %637

593:                                              ; preds = %579, %582
  call void @llvm.lifetime.end.p0i8(i64 8, i8* nonnull %186)
  %594 = add i64 %212, 1
  %595 = load i64, i64* %136, align 8
  %596 = load i64, i64* %137, align 8
  %597 = sub i64 %595, %596
  %598 = ashr exact i64 %597, 5
  %599 = icmp ult i64 %594, %598
  br i1 %599, label %211, label %600

600:                                              ; preds = %593, %135
  %601 = bitcast %"class.std::__1::basic_string"* %38 to i8*
  call void @llvm.lifetime.start.p0i8(i64 24, i8* nonnull %601) #12
  %602 = call i64 @strlen(i8* getelementptr inbounds ([0 x i8], [0 x i8]* @_ZN10extensions13manifest_keys27kWebviewAccessibleResourcesE, i64 0, i64 0)) #12
  %603 = icmp ugt i64 %602, -17
  br i1 %603, label %604, label %606

604:                                              ; preds = %600
  %605 = bitcast %"class.std::__1::basic_string"* %38 to %"class.std::__1::__basic_string_common"*
  call void @_ZNKSt3__121__basic_string_commonILb1EE20__throw_length_errorEv(%"class.std::__1::__basic_string_common"* nonnull %605) #14
  unreachable

606:                                              ; preds = %600
  %607 = icmp ult i64 %602, 23
  br i1 %607, label %617, label %608

608:                                              ; preds = %606
  %609 = add nuw i64 %602, 16
  %610 = and i64 %609, -16
  %611 = call i8* @_Znwm(i64 %610) #13
  %612 = getelementptr inbounds %"class.std::__1::basic_string", %"class.std::__1::basic_string"* %38, i64 0, i32 0, i32 0, i32 0, i32 0, i32 0, i32 0
  store i8* %611, i8** %612, align 8
  %613 = or i64 %610, -9223372036854775808
  %614 = getelementptr inbounds %"class.std::__1::basic_string", %"class.std::__1::basic_string"* %38, i64 0, i32 0, i32 0, i32 0, i32 0, i32 0, i32 2
  store i64 %613, i64* %614, align 8
  %615 = getelementptr inbounds %"class.std::__1::basic_string", %"class.std::__1::basic_string"* %38, i64 0, i32 0, i32 0, i32 0, i32 0, i32 0, i32 1
  store i64 %602, i64* %615, align 8
  %616 = bitcast %"class.std::__1::basic_string"* %38 to %"struct.std::__1::basic_string<char, std::__1::char_traits<char>, std::__1::allocator<char> >::__short"*
  br label %622

617:                                              ; preds = %606
  %618 = trunc i64 %602 to i8
  %619 = bitcast %"class.std::__1::basic_string"* %38 to %"struct.std::__1::basic_string<char, std::__1::char_traits<char>, std::__1::allocator<char> >::__short"*
  %620 = getelementptr inbounds %"struct.std::__1::basic_string<char, std::__1::char_traits<char>, std::__1::allocator<char> >::__short", %"struct.std::__1::basic_string<char, std::__1::char_traits<char>, std::__1::allocator<char> >::__short"* %619, i64 0, i32 1, i32 0
  store i8 %618, i8* %620, align 1
  %621 = icmp eq i64 %602, 0
  br i1 %621, label %625, label %622

622:                                              ; preds = %617, %608
  %623 = phi %"struct.std::__1::basic_string<char, std::__1::char_traits<char>, std::__1::allocator<char> >::__short"* [ %619, %617 ], [ %616, %608 ]
  %624 = phi i8* [ %601, %617 ], [ %611, %608 ]
  call void @llvm.memcpy.p0i8.p0i8.i64(i8* nonnull align 1 %624, i8* align 1 getelementptr inbounds ([0 x i8], [0 x i8]* @_ZN10extensions13manifest_keys27kWebviewAccessibleResourcesE, i64 0, i64 0), i64 %602, i1 false) #12
  br label %625

625:                                              ; preds = %617, %622
  %626 = phi %"struct.std::__1::basic_string<char, std::__1::char_traits<char>, std::__1::allocator<char> >::__short"* [ %619, %617 ], [ %623, %622 ]
  %627 = phi i8* [ %601, %617 ], [ %624, %622 ]
  %628 = getelementptr inbounds i8, i8* %627, i64 %602
  store i8 0, i8* %628, align 1
  %629 = bitcast i8* %39 to %"struct.extensions::Extension::ManifestData"*
  call void @_ZN10extensions9Extension15SetManifestDataERKNSt3__112basic_stringIcNS1_11char_traitsIcEENS1_9allocatorIcEEEENS1_10unique_ptrINS0_12ManifestDataENS1_14default_deleteISB_EEEE(%"class.extensions::Extension"* %1, %"class.std::__1::basic_string"* nonnull dereferenceable(24) %38, %"struct.extensions::Extension::ManifestData"* nonnull %629) #12
  %630 = getelementptr inbounds %"struct.std::__1::basic_string<char, std::__1::char_traits<char>, std::__1::allocator<char> >::__short", %"struct.std::__1::basic_string<char, std::__1::char_traits<char>, std::__1::allocator<char> >::__short"* %626, i64 0, i32 1, i32 0
  %631 = load i8, i8* %630, align 1
  %632 = icmp slt i8 %631, 0
  br i1 %632, label %633, label %636

633:                                              ; preds = %625
  %634 = getelementptr inbounds %"class.std::__1::basic_string", %"class.std::__1::basic_string"* %38, i64 0, i32 0, i32 0, i32 0, i32 0, i32 0, i32 0
  %635 = load i8*, i8** %634, align 8
  call void @_ZdlPv(i8* %635) #13
  br label %636

636:                                              ; preds = %633, %625
  call void @llvm.lifetime.end.p0i8(i64 24, i8* nonnull %601) #12
  call void @llvm.lifetime.end.p0i8(i64 8, i8* nonnull %58) #12
  br label %643

637:                                              ; preds = %587, %345, %324, %300, %256, %209, %124, %107
  call void @llvm.lifetime.end.p0i8(i64 8, i8* nonnull %58) #12
  %638 = bitcast i8* %39 to %"class.extensions::WebviewInfo"*
  %639 = bitcast i8* %39 to void (%"class.extensions::WebviewInfo"*)***
  %640 = load void (%"class.extensions::WebviewInfo"*)**, void (%"class.extensions::WebviewInfo"*)*** %639, align 8
  %641 = getelementptr inbounds void (%"class.extensions::WebviewInfo"*)*, void (%"class.extensions::WebviewInfo"*)** %640, i64 1
  %642 = load void (%"class.extensions::WebviewInfo"*)*, void (%"class.extensions::WebviewInfo"*)** %641, align 8
  call void %642(%"class.extensions::WebviewInfo"* nonnull %638) #12
  br label %643

643:                                              ; preds = %636, %637
  %644 = phi i1 [ true, %636 ], [ false, %637 ]
  ret i1 %644
}

; Function Attrs: nobuiltin nofree
declare noalias nonnull i8* @_Znwm(i64) local_unnamed_addr #5

declare dereferenceable(24) %"class.std::__1::basic_string"* @_ZNK10extensions9Extension2idEv(%"class.extensions::Extension"*) local_unnamed_addr #3

declare zeroext i1 @_ZNK10extensions8Manifest13GetDictionaryERKNSt3__112basic_stringIcNS1_11char_traitsIcEENS1_9allocatorIcEEEEPPKN4base5ValueE(%"class.extensions::Manifest"*, %"class.std::__1::basic_string"* dereferenceable(24), %"class.base::Value"**) local_unnamed_addr #3

declare void @_ZN4base12ASCIIToUTF16ENS_16BasicStringPieceIcNSt3__111char_traitsIcEEEE(%"class.std::__1::basic_string.100"* sret, i8*, i64) local_unnamed_addr #3

declare %"class.base::Value"* @_ZNK4base5Value13FindKeyOfTypeENS_16BasicStringPieceIcNSt3__111char_traitsIcEEEENS0_4TypeE(%"class.base::Value"*, i8*, i64, i8 zeroext) local_unnamed_addr #3

declare %"class.std::__1::vector.77"* @_ZNK4base5Value7GetListEv(%"class.base::Value"*) local_unnamed_addr #3

declare void @_ZN10extensions10ErrorUtils23FormatErrorMessageUTF16EN4base16BasicStringPieceIcNSt3__111char_traitsIcEEEES6_(%"class.std::__1::basic_string.100"* sret, i8*, i64, i8*, i64) local_unnamed_addr #3

declare void @_ZN4base14NumberToStringEm(%"class.std::__1::basic_string"* sret, i64) local_unnamed_addr #3

declare dereferenceable(24) %"class.std::__1::basic_string"* @_ZNK4base5Value9GetStringEv(%"class.base::Value"*) local_unnamed_addr #3

; Function Attrs: argmemonly nounwind
declare void @llvm.memset.p0i8.i64(i8* nocapture writeonly, i8, i64, i1 immarg) #2

declare void @_ZN10extensions9Extension14GetResourceURLERK4GURLRKNSt3__112basic_stringIcNS4_11char_traitsIcEENS4_9allocatorIcEEEE(%class.GURL* sret, %class.GURL* dereferenceable(120), %"class.std::__1::basic_string"* dereferenceable(24)) local_unnamed_addr #3

declare void @_ZN10extensions10ErrorUtils18FormatErrorMessageEN4base16BasicStringPieceIcNSt3__111char_traitsIcEEEES6_(%"class.std::__1::basic_string"* sret, i8*, i64, i8*, i64) local_unnamed_addr #3

declare void @_ZN10extensions9Extension17AddInstallWarningENS_14InstallWarningE(%"class.extensions::Extension"*, %"struct.extensions::InstallWarning"*) local_unnamed_addr #3

declare void @_ZN10extensions14InstallWarningC1ERKNSt3__112basic_stringIcNS1_11char_traitsIcEENS1_9allocatorIcEEEES9_(%"struct.extensions::InstallWarning"*, %"class.std::__1::basic_string"* dereferenceable(24), %"class.std::__1::basic_string"* dereferenceable(24)) unnamed_addr #3

; Function Attrs: nounwind
declare void @_ZN10extensions14InstallWarningD1Ev(%"struct.extensions::InstallWarning"*) unnamed_addr #4

declare void @_ZN10URLPatternC1Ei(%class.URLPattern*, i32) unnamed_addr #3

declare i32 @_ZN10URLPattern5ParseEN4base16BasicStringPieceIcNSt3__111char_traitsIcEEEE(%class.URLPattern*, i8*, i64) local_unnamed_addr #3

declare dereferenceable(24) %"class.std::__1::basic_string"* @_ZNK4GURL4specEv(%class.GURL*) local_unnamed_addr #3

; Function Attrs: nounwind
declare void @_ZN10URLPatternD1Ev(%class.URLPattern*) unnamed_addr #4

; Function Attrs: nounwind
declare void @_ZN4GURLD1Ev(%class.GURL*) unnamed_addr #4

declare void @_ZN10extensions9Extension15SetManifestDataERKNSt3__112basic_stringIcNS1_11char_traitsIcEENS1_9allocatorIcEEEENS1_10unique_ptrINS0_12ManifestDataENS1_14default_deleteISB_EEEE(%"class.extensions::Extension"*, %"class.std::__1::basic_string"* dereferenceable(24), %"struct.extensions::Extension::ManifestData"*) local_unnamed_addr #3

; Function Attrs: norecurse nounwind readnone ssp uwtable
define hidden { i64, i8** } @_ZNK10extensions14WebviewHandler4KeysEv(%"class.extensions::WebviewHandler"* nocapture readnone) unnamed_addr #6 align 2 {
  ret { i64, i8** } { i64 1, i8** getelementptr inbounds ([1 x i8*], [1 x i8*]* @_ZZNK10extensions14WebviewHandler4KeysEvE5kKeys, i64 0, i64 0) }
}

declare zeroext i1 @_ZNK10extensions15ManifestHandler8ValidateEPKNS_9ExtensionEPNSt3__112basic_stringIcNS4_11char_traitsIcEENS4_9allocatorIcEEEEPNS4_6vectorINS_14InstallWarningENS8_ISD_EEEE(%"class.extensions::ManifestHandler"*, %"class.extensions::Extension"*, %"class.std::__1::basic_string"*, %"class.std::__1::vector.30"*) unnamed_addr #3

declare zeroext i1 @_ZNK10extensions15ManifestHandler18AlwaysParseForTypeENS_8Manifest4TypeE(%"class.extensions::ManifestHandler"*, i32) unnamed_addr #3

declare zeroext i1 @_ZNK10extensions15ManifestHandler21AlwaysValidateForTypeENS_8Manifest4TypeE(%"class.extensions::ManifestHandler"*, i32) unnamed_addr #3

declare void @_ZNK10extensions15ManifestHandler16PrerequisiteKeysEv() unnamed_addr

declare %"class.extensions::ManifestPermission"* @_ZN10extensions15ManifestHandler16CreatePermissionEv(%"class.extensions::ManifestHandler"*) unnamed_addr #3

declare %"class.extensions::ManifestPermission"* @_ZN10extensions15ManifestHandler31CreateInitialRequiredPermissionEPKNS_9ExtensionE(%"class.extensions::ManifestHandler"*, %"class.extensions::Extension"*) unnamed_addr #3

declare zeroext i1 @_ZN4base12MatchPatternENS_16BasicStringPieceIcNSt3__111char_traitsIcEEEES4_(i8*, i64, i8*, i64) local_unnamed_addr #3

declare dereferenceable(160) %"class.std::__1::basic_ostream"* @_ZN7logging10CheckError6streamEv(%"class.logging::CheckError"*) local_unnamed_addr #3

; Function Attrs: nounwind
declare void @_ZN7logging10CheckErrorD1Ev(%"class.logging::CheckError"*) unnamed_addr #4

; Function Attrs: argmemonly nofree nounwind readonly
declare i64 @strlen(i8* nocapture) local_unnamed_addr #7

; Function Attrs: nounwind ssp uwtable
define linkonce_odr hidden dereferenceable(32) %"class.base::Value"* @_ZNK4base25CheckedContiguousIteratorIKNS_5ValueEEdeEv(%"class.base::CheckedContiguousIterator"*) local_unnamed_addr #0 comdat align 2 {
  %2 = alloca %"class.logging::CheckOpResult", align 8
  %3 = alloca %"class.logging::CheckOpResult", align 8
  %4 = alloca %"class.logging::CheckError", align 8
  %5 = bitcast %"class.logging::CheckOpResult"* %3 to i8*
  call void @llvm.lifetime.start.p0i8(i64 8, i8* nonnull %5) #12
  %6 = getelementptr inbounds %"class.logging::CheckOpResult", %"class.logging::CheckOpResult"* %3, i64 0, i32 0
  store i8* inttoptr (i64 -6148914691236517206 to i8*), i8** %6, align 8
  %7 = getelementptr inbounds %"class.base::CheckedContiguousIterator", %"class.base::CheckedContiguousIterator"* %0, i64 0, i32 1
  %8 = getelementptr inbounds %"class.base::CheckedContiguousIterator", %"class.base::CheckedContiguousIterator"* %0, i64 0, i32 2
  %9 = bitcast %"class.logging::CheckOpResult"* %2 to i8*
  call void @llvm.lifetime.start.p0i8(i64 8, i8* nonnull %9)
  %10 = load %"class.base::Value"*, %"class.base::Value"** %7, align 8
  %11 = load %"class.base::Value"*, %"class.base::Value"** %8, align 8
  %12 = icmp eq %"class.base::Value"* %10, %11
  br i1 %12, label %14, label %13

13:                                               ; preds = %1
  call void @llvm.lifetime.end.p0i8(i64 8, i8* nonnull %9)
  store i8* null, i8** %6, align 8
  br label %25

14:                                               ; preds = %1
  %15 = bitcast %"class.base::Value"** %7 to i8*
  %16 = tail call i8* @_ZN7logging14StreamValToStrEPKvPFvRNSt3__113basic_ostreamIcNS2_11char_traitsIcEEEES1_E(i8* %15, void (%"class.std::__1::basic_ostream"*, i8*)* nonnull @_ZZN7logging15CheckOpValueStrIPKN4base5ValueEEENSt3__19enable_ifIXaasr4base8internal23SupportsOstreamOperatorIRKT_EE5valuentsr3std11is_functionINS5_14remove_pointerIS7_E4typeEEE5valueEPcE4typeES9_ENUlRNS5_13basic_ostreamIcNS5_11char_traitsIcEEEEPKvE_8__invokeESK_SM_) #12
  %17 = bitcast %"class.base::Value"** %8 to i8*
  %18 = tail call i8* @_ZN7logging14StreamValToStrEPKvPFvRNSt3__113basic_ostreamIcNS2_11char_traitsIcEEEES1_E(i8* %17, void (%"class.std::__1::basic_ostream"*, i8*)* nonnull @_ZZN7logging15CheckOpValueStrIPKN4base5ValueEEENSt3__19enable_ifIXaasr4base8internal23SupportsOstreamOperatorIRKT_EE5valuentsr3std11is_functionINS5_14remove_pointerIS7_E4typeEEE5valueEPcE4typeES9_ENUlRNS5_13basic_ostreamIcNS5_11char_traitsIcEEEEPKvE_8__invokeESK_SM_) #12
  call void @_ZN7logging13CheckOpResultC1EPKcPcS3_(%"class.logging::CheckOpResult"* nonnull %2, i8* getelementptr inbounds ([17 x i8], [17 x i8]* @.str.7, i64 0, i64 0), i8* %16, i8* %18) #12
  %19 = getelementptr inbounds %"class.logging::CheckOpResult", %"class.logging::CheckOpResult"* %2, i64 0, i32 0
  %20 = load i8*, i8** %19, align 8
  call void @llvm.lifetime.end.p0i8(i64 8, i8* nonnull %9)
  store i8* %20, i8** %6, align 8
  %21 = icmp eq i8* %20, null
  br i1 %21, label %25, label %22

22:                                               ; preds = %14
  %23 = bitcast %"class.logging::CheckError"* %4 to i8*
  call void @llvm.lifetime.start.p0i8(i64 8, i8* nonnull %23) #12
  call void @_ZN7logging10CheckError7CheckOpEPKciPNS_13CheckOpResultE(%"class.logging::CheckError"* nonnull sret %4, i8* getelementptr inbounds ([42 x i8], [42 x i8]* @.str.3, i64 0, i64 0), i32 173, %"class.logging::CheckOpResult"* nonnull %3) #12
  %24 = call dereferenceable(160) %"class.std::__1::basic_ostream"* @_ZN7logging10CheckError6streamEv(%"class.logging::CheckError"* nonnull %4) #12
  call void @_ZN7logging10CheckErrorD1Ev(%"class.logging::CheckError"* nonnull %4) #12
  call void @llvm.lifetime.end.p0i8(i64 8, i8* nonnull %23) #12
  br label %25

25:                                               ; preds = %13, %14, %22
  call void @llvm.lifetime.end.p0i8(i64 8, i8* nonnull %5) #12
  %26 = load %"class.base::Value"*, %"class.base::Value"** %7, align 8
  ret %"class.base::Value"* %26
}

; Function Attrs: nounwind ssp uwtable
define linkonce_odr hidden void @_ZN4base25CheckedContiguousIteratorIKNS_5ValueEEC2EPS2_S4_S4_(%"class.base::CheckedContiguousIterator"*, %"class.base::Value"*, %"class.base::Value"*, %"class.base::Value"*) unnamed_addr #0 comdat align 2 {
  %5 = alloca %"class.logging::CheckOpResult", align 8
  %6 = alloca %"class.logging::CheckOpResult", align 8
  %7 = alloca %"class.base::Value"*, align 8
  %8 = alloca %"class.base::Value"*, align 8
  %9 = alloca %"class.base::Value"*, align 8
  %10 = alloca %"class.logging::CheckOpResult", align 8
  %11 = alloca %"class.logging::CheckError", align 8
  %12 = alloca %"class.logging::CheckOpResult", align 8
  %13 = alloca %"class.logging::CheckError", align 8
  store %"class.base::Value"* %1, %"class.base::Value"** %7, align 8
  store %"class.base::Value"* %2, %"class.base::Value"** %8, align 8
  store %"class.base::Value"* %3, %"class.base::Value"** %9, align 8
  %14 = ptrtoint %"class.base::Value"* %1 to i64
  %15 = bitcast %"class.base::CheckedContiguousIterator"* %0 to i64*
  store i64 %14, i64* %15, align 8
  %16 = getelementptr inbounds %"class.base::CheckedContiguousIterator", %"class.base::CheckedContiguousIterator"* %0, i64 0, i32 1
  %17 = ptrtoint %"class.base::Value"* %2 to i64
  %18 = bitcast %"class.base::Value"** %16 to i64*
  store i64 %17, i64* %18, align 8
  %19 = getelementptr inbounds %"class.base::CheckedContiguousIterator", %"class.base::CheckedContiguousIterator"* %0, i64 0, i32 2
  %20 = ptrtoint %"class.base::Value"* %3 to i64
  %21 = bitcast %"class.base::Value"** %19 to i64*
  store i64 %20, i64* %21, align 8
  %22 = bitcast %"class.logging::CheckOpResult"* %10 to i8*
  call void @llvm.lifetime.start.p0i8(i64 8, i8* nonnull %22) #12
  %23 = getelementptr inbounds %"class.logging::CheckOpResult", %"class.logging::CheckOpResult"* %10, i64 0, i32 0
  store i8* inttoptr (i64 -6148914691236517206 to i8*), i8** %23, align 8
  %24 = bitcast %"class.logging::CheckOpResult"* %6 to i8*
  call void @llvm.lifetime.start.p0i8(i64 8, i8* nonnull %24)
  %25 = icmp ugt %"class.base::Value"* %1, %2
  br i1 %25, label %27, label %26

26:                                               ; preds = %4
  call void @llvm.lifetime.end.p0i8(i64 8, i8* nonnull %24)
  store i8* null, i8** %23, align 8
  br label %38

27:                                               ; preds = %4
  %28 = bitcast %"class.base::Value"** %7 to i8*
  %29 = call i8* @_ZN7logging14StreamValToStrEPKvPFvRNSt3__113basic_ostreamIcNS2_11char_traitsIcEEEES1_E(i8* nonnull %28, void (%"class.std::__1::basic_ostream"*, i8*)* nonnull @_ZZN7logging15CheckOpValueStrIPKN4base5ValueEEENSt3__19enable_ifIXaasr4base8internal23SupportsOstreamOperatorIRKT_EE5valuentsr3std11is_functionINS5_14remove_pointerIS7_E4typeEEE5valueEPcE4typeES9_ENUlRNS5_13basic_ostreamIcNS5_11char_traitsIcEEEEPKvE_8__invokeESK_SM_) #12
  %30 = bitcast %"class.base::Value"** %8 to i8*
  %31 = call i8* @_ZN7logging14StreamValToStrEPKvPFvRNSt3__113basic_ostreamIcNS2_11char_traitsIcEEEES1_E(i8* nonnull %30, void (%"class.std::__1::basic_ostream"*, i8*)* nonnull @_ZZN7logging15CheckOpValueStrIPKN4base5ValueEEENSt3__19enable_ifIXaasr4base8internal23SupportsOstreamOperatorIRKT_EE5valuentsr3std11is_functionINS5_14remove_pointerIS7_E4typeEEE5valueEPcE4typeES9_ENUlRNS5_13basic_ostreamIcNS5_11char_traitsIcEEEEPKvE_8__invokeESK_SM_) #12
  call void @_ZN7logging13CheckOpResultC1EPKcPcS3_(%"class.logging::CheckOpResult"* nonnull %6, i8* getelementptr inbounds ([17 x i8], [17 x i8]* @.str.2, i64 0, i64 0), i8* %29, i8* %31) #12
  %32 = getelementptr inbounds %"class.logging::CheckOpResult", %"class.logging::CheckOpResult"* %6, i64 0, i32 0
  %33 = load i8*, i8** %32, align 8
  call void @llvm.lifetime.end.p0i8(i64 8, i8* nonnull %24)
  store i8* %33, i8** %23, align 8
  %34 = icmp eq i8* %33, null
  br i1 %34, label %38, label %35

35:                                               ; preds = %27
  %36 = bitcast %"class.logging::CheckError"* %11 to i8*
  call void @llvm.lifetime.start.p0i8(i64 8, i8* nonnull %36) #12
  call void @_ZN7logging10CheckError7CheckOpEPKciPNS_13CheckOpResultE(%"class.logging::CheckError"* nonnull sret %11, i8* getelementptr inbounds ([42 x i8], [42 x i8]* @.str.3, i64 0, i64 0), i32 45, %"class.logging::CheckOpResult"* nonnull %10) #12
  %37 = call dereferenceable(160) %"class.std::__1::basic_ostream"* @_ZN7logging10CheckError6streamEv(%"class.logging::CheckError"* nonnull %11) #12
  call void @_ZN7logging10CheckErrorD1Ev(%"class.logging::CheckError"* nonnull %11) #12
  call void @llvm.lifetime.end.p0i8(i64 8, i8* nonnull %36) #12
  br label %38

38:                                               ; preds = %26, %27, %35
  call void @llvm.lifetime.end.p0i8(i64 8, i8* nonnull %22) #12
  %39 = bitcast %"class.logging::CheckOpResult"* %12 to i8*
  call void @llvm.lifetime.start.p0i8(i64 8, i8* nonnull %39) #12
  %40 = getelementptr inbounds %"class.logging::CheckOpResult", %"class.logging::CheckOpResult"* %12, i64 0, i32 0
  store i8* inttoptr (i64 -6148914691236517206 to i8*), i8** %40, align 8
  %41 = bitcast %"class.logging::CheckOpResult"* %5 to i8*
  call void @llvm.lifetime.start.p0i8(i64 8, i8* nonnull %41)
  %42 = load %"class.base::Value"*, %"class.base::Value"** %8, align 8
  %43 = load %"class.base::Value"*, %"class.base::Value"** %9, align 8
  %44 = icmp ugt %"class.base::Value"* %42, %43
  br i1 %44, label %46, label %45

45:                                               ; preds = %38
  call void @llvm.lifetime.end.p0i8(i64 8, i8* nonnull %41)
  store i8* null, i8** %40, align 8
  br label %57

46:                                               ; preds = %38
  %47 = bitcast %"class.base::Value"** %8 to i8*
  %48 = call i8* @_ZN7logging14StreamValToStrEPKvPFvRNSt3__113basic_ostreamIcNS2_11char_traitsIcEEEES1_E(i8* nonnull %47, void (%"class.std::__1::basic_ostream"*, i8*)* nonnull @_ZZN7logging15CheckOpValueStrIPKN4base5ValueEEENSt3__19enable_ifIXaasr4base8internal23SupportsOstreamOperatorIRKT_EE5valuentsr3std11is_functionINS5_14remove_pointerIS7_E4typeEEE5valueEPcE4typeES9_ENUlRNS5_13basic_ostreamIcNS5_11char_traitsIcEEEEPKvE_8__invokeESK_SM_) #12
  %49 = bitcast %"class.base::Value"** %9 to i8*
  %50 = call i8* @_ZN7logging14StreamValToStrEPKvPFvRNSt3__113basic_ostreamIcNS2_11char_traitsIcEEEES1_E(i8* nonnull %49, void (%"class.std::__1::basic_ostream"*, i8*)* nonnull @_ZZN7logging15CheckOpValueStrIPKN4base5ValueEEENSt3__19enable_ifIXaasr4base8internal23SupportsOstreamOperatorIRKT_EE5valuentsr3std11is_functionINS5_14remove_pointerIS7_E4typeEEE5valueEPcE4typeES9_ENUlRNS5_13basic_ostreamIcNS5_11char_traitsIcEEEEPKvE_8__invokeESK_SM_) #12
  call void @_ZN7logging13CheckOpResultC1EPKcPcS3_(%"class.logging::CheckOpResult"* nonnull %5, i8* getelementptr inbounds ([15 x i8], [15 x i8]* @.str.4, i64 0, i64 0), i8* %48, i8* %50) #12
  %51 = getelementptr inbounds %"class.logging::CheckOpResult", %"class.logging::CheckOpResult"* %5, i64 0, i32 0
  %52 = load i8*, i8** %51, align 8
  call void @llvm.lifetime.end.p0i8(i64 8, i8* nonnull %41)
  store i8* %52, i8** %40, align 8
  %53 = icmp eq i8* %52, null
  br i1 %53, label %57, label %54

54:                                               ; preds = %46
  %55 = bitcast %"class.logging::CheckError"* %13 to i8*
  call void @llvm.lifetime.start.p0i8(i64 8, i8* nonnull %55) #12
  call void @_ZN7logging10CheckError7CheckOpEPKciPNS_13CheckOpResultE(%"class.logging::CheckError"* nonnull sret %13, i8* getelementptr inbounds ([42 x i8], [42 x i8]* @.str.3, i64 0, i64 0), i32 46, %"class.logging::CheckOpResult"* nonnull %12) #12
  %56 = call dereferenceable(160) %"class.std::__1::basic_ostream"* @_ZN7logging10CheckError6streamEv(%"class.logging::CheckError"* nonnull %13) #12
  call void @_ZN7logging10CheckErrorD1Ev(%"class.logging::CheckError"* nonnull %13) #12
  call void @llvm.lifetime.end.p0i8(i64 8, i8* nonnull %55) #12
  br label %57

57:                                               ; preds = %45, %46, %54
  call void @llvm.lifetime.end.p0i8(i64 8, i8* nonnull %39) #12
  ret void
}

declare void @_ZN7logging10CheckError7CheckOpEPKciPNS_13CheckOpResultE(%"class.logging::CheckError"* sret, i8*, i32, %"class.logging::CheckOpResult"*) local_unnamed_addr #3

declare void @_ZN7logging13CheckOpResultC1EPKcPcS3_(%"class.logging::CheckOpResult"*, i8*, i8*, i8*) unnamed_addr #3

declare i8* @_ZN7logging14StreamValToStrEPKvPFvRNSt3__113basic_ostreamIcNS2_11char_traitsIcEEEES1_E(i8*, void (%"class.std::__1::basic_ostream"*, i8*)*) local_unnamed_addr #3

; Function Attrs: inlinehint nounwind ssp uwtable
define linkonce_odr hidden void @_ZZN7logging15CheckOpValueStrIPKN4base5ValueEEENSt3__19enable_ifIXaasr4base8internal23SupportsOstreamOperatorIRKT_EE5valuentsr3std11is_functionINS5_14remove_pointerIS7_E4typeEEE5valueEPcE4typeES9_ENUlRNS5_13basic_ostreamIcNS5_11char_traitsIcEEEEPKvE_8__invokeESK_SM_(%"class.std::__1::basic_ostream"* dereferenceable(160), i8*) #8 comdat align 2 {
  %3 = bitcast i8* %1 to i8**
  %4 = load i8*, i8** %3, align 8
  %5 = tail call dereferenceable(160) %"class.std::__1::basic_ostream"* @_ZNSt3__113basic_ostreamIcNS_11char_traitsIcEEElsEPKv(%"class.std::__1::basic_ostream"* %0, i8* %4) #12
  ret void
}

declare dereferenceable(160) %"class.std::__1::basic_ostream"* @_ZNSt3__113basic_ostreamIcNS_11char_traitsIcEEElsEPKv(%"class.std::__1::basic_ostream"*, i8*) local_unnamed_addr #3

; Function Attrs: argmemonly nounwind
declare void @llvm.memcpy.p0i8.p0i8.i64(i8* nocapture writeonly, i8* nocapture readonly, i64, i1 immarg) #2

; Function Attrs: nounwind ssp uwtable
define linkonce_odr hidden dereferenceable(24) %"class.base::CheckedContiguousIterator"* @_ZN4base25CheckedContiguousIteratorIKNS_5ValueEEpLEl(%"class.base::CheckedContiguousIterator"*, i64) local_unnamed_addr #0 comdat align 2 {
  %3 = alloca %"class.logging::CheckOpResult", align 8
  %4 = alloca %"class.logging::CheckOpResult", align 8
  %5 = alloca %"class.logging::CheckOpResult", align 8
  %6 = alloca %"class.logging::CheckError", align 8
  %7 = alloca %"class.logging::CheckOpResult", align 8
  %8 = alloca %"class.logging::CheckError", align 8
  %9 = icmp sgt i64 %1, 0
  br i1 %9, label %10, label %33

10:                                               ; preds = %2
  %11 = bitcast %"class.logging::CheckOpResult"* %5 to i8*
  call void @llvm.lifetime.start.p0i8(i64 8, i8* nonnull %11) #12
  %12 = getelementptr inbounds %"class.logging::CheckOpResult", %"class.logging::CheckOpResult"* %5, i64 0, i32 0
  store i8* inttoptr (i64 -6148914691236517206 to i8*), i8** %12, align 8
  %13 = getelementptr inbounds %"class.base::CheckedContiguousIterator", %"class.base::CheckedContiguousIterator"* %0, i64 0, i32 2
  %14 = bitcast %"class.base::Value"** %13 to i64*
  %15 = load i64, i64* %14, align 8
  %16 = getelementptr inbounds %"class.base::CheckedContiguousIterator", %"class.base::CheckedContiguousIterator"* %0, i64 0, i32 1
  %17 = bitcast %"class.base::Value"** %16 to i64*
  %18 = load i64, i64* %17, align 8
  %19 = sub i64 %15, %18
  %20 = ashr exact i64 %19, 5
  %21 = bitcast %"class.logging::CheckOpResult"* %4 to i8*
  call void @llvm.lifetime.start.p0i8(i64 8, i8* nonnull %21)
  %22 = icmp slt i64 %20, %1
  br i1 %22, label %24, label %23

23:                                               ; preds = %10
  call void @llvm.lifetime.end.p0i8(i64 8, i8* nonnull %21)
  store i8* null, i8** %12, align 8
  br label %56

24:                                               ; preds = %10
  %25 = tail call i8* @_ZN7logging15CheckOpValueStrEl(i64 %1) #12
  %26 = tail call i8* @_ZN7logging15CheckOpValueStrEl(i64 %20) #12
  call void @_ZN7logging13CheckOpResultC1EPKcPcS3_(%"class.logging::CheckOpResult"* nonnull %4, i8* getelementptr inbounds ([23 x i8], [23 x i8]* @.str.5, i64 0, i64 0), i8* %25, i8* %26) #12
  %27 = getelementptr inbounds %"class.logging::CheckOpResult", %"class.logging::CheckOpResult"* %4, i64 0, i32 0
  %28 = load i8*, i8** %27, align 8
  call void @llvm.lifetime.end.p0i8(i64 8, i8* nonnull %21)
  store i8* %28, i8** %12, align 8
  %29 = icmp eq i8* %28, null
  br i1 %29, label %56, label %30

30:                                               ; preds = %24
  %31 = bitcast %"class.logging::CheckError"* %6 to i8*
  call void @llvm.lifetime.start.p0i8(i64 8, i8* nonnull %31) #12
  call void @_ZN7logging10CheckError7CheckOpEPKciPNS_13CheckOpResultE(%"class.logging::CheckError"* nonnull sret %6, i8* getelementptr inbounds ([42 x i8], [42 x i8]* @.str.3, i64 0, i64 0), i32 135, %"class.logging::CheckOpResult"* nonnull %5) #12
  %32 = call dereferenceable(160) %"class.std::__1::basic_ostream"* @_ZN7logging10CheckError6streamEv(%"class.logging::CheckError"* nonnull %6) #12
  call void @_ZN7logging10CheckErrorD1Ev(%"class.logging::CheckError"* nonnull %6) #12
  call void @llvm.lifetime.end.p0i8(i64 8, i8* nonnull %31) #12
  br label %56

33:                                               ; preds = %2
  %34 = bitcast %"class.logging::CheckOpResult"* %7 to i8*
  call void @llvm.lifetime.start.p0i8(i64 8, i8* nonnull %34) #12
  %35 = getelementptr inbounds %"class.logging::CheckOpResult", %"class.logging::CheckOpResult"* %7, i64 0, i32 0
  store i8* inttoptr (i64 -6148914691236517206 to i8*), i8** %35, align 8
  %36 = sub nsw i64 0, %1
  %37 = getelementptr inbounds %"class.base::CheckedContiguousIterator", %"class.base::CheckedContiguousIterator"* %0, i64 0, i32 1
  %38 = bitcast %"class.base::Value"** %37 to i64*
  %39 = load i64, i64* %38, align 8
  %40 = bitcast %"class.base::CheckedContiguousIterator"* %0 to i64*
  %41 = load i64, i64* %40, align 8
  %42 = sub i64 %39, %41
  %43 = ashr exact i64 %42, 5
  %44 = bitcast %"class.logging::CheckOpResult"* %3 to i8*
  call void @llvm.lifetime.start.p0i8(i64 8, i8* nonnull %44)
  %45 = icmp slt i64 %43, %36
  br i1 %45, label %47, label %46

46:                                               ; preds = %33
  call void @llvm.lifetime.end.p0i8(i64 8, i8* nonnull %44)
  store i8* null, i8** %35, align 8
  br label %56

47:                                               ; preds = %33
  %48 = tail call i8* @_ZN7logging15CheckOpValueStrEl(i64 %36) #12
  %49 = tail call i8* @_ZN7logging15CheckOpValueStrEl(i64 %43) #12
  call void @_ZN7logging13CheckOpResultC1EPKcPcS3_(%"class.logging::CheckOpResult"* nonnull %3, i8* getelementptr inbounds ([26 x i8], [26 x i8]* @.str.6, i64 0, i64 0), i8* %48, i8* %49) #12
  %50 = getelementptr inbounds %"class.logging::CheckOpResult", %"class.logging::CheckOpResult"* %3, i64 0, i32 0
  %51 = load i8*, i8** %50, align 8
  call void @llvm.lifetime.end.p0i8(i64 8, i8* nonnull %44)
  store i8* %51, i8** %35, align 8
  %52 = icmp eq i8* %51, null
  br i1 %52, label %56, label %53

53:                                               ; preds = %47
  %54 = bitcast %"class.logging::CheckError"* %8 to i8*
  call void @llvm.lifetime.start.p0i8(i64 8, i8* nonnull %54) #12
  call void @_ZN7logging10CheckError7CheckOpEPKciPNS_13CheckOpResultE(%"class.logging::CheckError"* nonnull sret %8, i8* getelementptr inbounds ([42 x i8], [42 x i8]* @.str.3, i64 0, i64 0), i32 137, %"class.logging::CheckOpResult"* nonnull %7) #12
  %55 = call dereferenceable(160) %"class.std::__1::basic_ostream"* @_ZN7logging10CheckError6streamEv(%"class.logging::CheckError"* nonnull %8) #12
  call void @_ZN7logging10CheckErrorD1Ev(%"class.logging::CheckError"* nonnull %8) #12
  call void @llvm.lifetime.end.p0i8(i64 8, i8* nonnull %54) #12
  br label %56

56:                                               ; preds = %53, %47, %46, %30, %24, %23
  %57 = phi i8* [ %11, %23 ], [ %11, %24 ], [ %11, %30 ], [ %34, %46 ], [ %34, %47 ], [ %34, %53 ]
  call void @llvm.lifetime.end.p0i8(i64 8, i8* nonnull %57) #12
  %58 = getelementptr inbounds %"class.base::CheckedContiguousIterator", %"class.base::CheckedContiguousIterator"* %0, i64 0, i32 1
  %59 = load %"class.base::Value"*, %"class.base::Value"** %58, align 8
  %60 = getelementptr inbounds %"class.base::Value", %"class.base::Value"* %59, i64 %1
  store %"class.base::Value"* %60, %"class.base::Value"** %58, align 8
  ret %"class.base::CheckedContiguousIterator"* %0
}

declare i8* @_ZN7logging15CheckOpValueStrEl(i64) local_unnamed_addr #3

declare zeroext i1 @_ZN10extensions13URLPatternSet10AddPatternERK10URLPattern(%"class.extensions::URLPatternSet"*, %class.URLPattern* dereferenceable(160)) local_unnamed_addr #3

declare void @_ZNSt3__112basic_stringIcNS_11char_traitsIcEENS_9allocatorIcEEE25__init_copy_ctor_externalEPKcm(%"class.std::__1::basic_string"*, i8*, i64) local_unnamed_addr #3

; Function Attrs: noreturn
declare void @_ZNKSt3__121__basic_string_commonILb1EE20__throw_length_errorEv(%"class.std::__1::__basic_string_common"*) local_unnamed_addr #9

; Function Attrs: noreturn nounwind
declare void @abort() local_unnamed_addr #10

; Function Attrs: inlinehint nounwind ssp uwtable
define linkonce_odr hidden void @_ZNSt3__16vectorINS_10unique_ptrIN10extensions13PartitionItemENS_14default_deleteIS3_EEEENS_9allocatorIS6_EEE21__push_back_slow_pathIS6_EEvOT_(%"class.std::__1::vector"*, %"class.std::__1::unique_ptr"* dereferenceable(8)) local_unnamed_addr #8 comdat align 2 {
  %3 = getelementptr inbounds %"class.std::__1::vector", %"class.std::__1::vector"* %0, i64 0, i32 0, i32 1
  %4 = bitcast %"class.std::__1::unique_ptr"** %3 to i64*
  %5 = load i64, i64* %4, align 8
  %6 = bitcast %"class.std::__1::vector"* %0 to i64*
  %7 = load i64, i64* %6, align 8
  %8 = sub i64 %5, %7
  %9 = ashr exact i64 %8, 3
  %10 = add nsw i64 %9, 1
  %11 = icmp ugt i64 %10, 2305843009213693951
  br i1 %11, label %12, label %14

12:                                               ; preds = %2
  %13 = bitcast %"class.std::__1::vector"* %0 to %"class.std::__1::__vector_base_common"*
  tail call void @_ZNKSt3__120__vector_base_commonILb1EE20__throw_length_errorEv(%"class.std::__1::__vector_base_common"* %13) #14
  unreachable

14:                                               ; preds = %2
  %15 = getelementptr inbounds %"class.std::__1::vector", %"class.std::__1::vector"* %0, i64 0, i32 0, i32 2, i32 0, i32 0
  %16 = bitcast %"class.std::__1::unique_ptr"** %15 to i64*
  %17 = load i64, i64* %16, align 8
  %18 = sub i64 %17, %7
  %19 = ashr exact i64 %18, 3
  %20 = icmp ult i64 %19, 1152921504606846975
  br i1 %20, label %21, label %29

21:                                               ; preds = %14
  %22 = ashr exact i64 %18, 2
  %23 = icmp ult i64 %22, %10
  %24 = select i1 %23, i64 %10, i64 %22
  %25 = icmp eq i64 %24, 0
  br i1 %25, label %34, label %26

26:                                               ; preds = %21
  %27 = icmp ugt i64 %24, 2305843009213693951
  br i1 %27, label %28, label %29

28:                                               ; preds = %26
  tail call void @abort() #14
  unreachable

29:                                               ; preds = %14, %26
  %30 = phi i64 [ %24, %26 ], [ 2305843009213693951, %14 ]
  %31 = shl i64 %30, 3
  %32 = tail call i8* @_Znwm(i64 %31) #13
  %33 = bitcast i8* %32 to %"class.std::__1::unique_ptr"*
  br label %34

34:                                               ; preds = %21, %29
  %35 = phi i64 [ %30, %29 ], [ 0, %21 ]
  %36 = phi %"class.std::__1::unique_ptr"* [ %33, %29 ], [ null, %21 ]
  %37 = getelementptr inbounds %"class.std::__1::unique_ptr", %"class.std::__1::unique_ptr"* %36, i64 %9
  %38 = getelementptr inbounds %"class.std::__1::unique_ptr", %"class.std::__1::unique_ptr"* %36, i64 %35
  %39 = ptrtoint %"class.std::__1::unique_ptr"* %38 to i64
  %40 = getelementptr inbounds %"class.std::__1::unique_ptr", %"class.std::__1::unique_ptr"* %1, i64 0, i32 0, i32 0, i32 0
  %41 = bitcast %"class.std::__1::unique_ptr"* %1 to i64*
  %42 = load i64, i64* %41, align 8
  store %"class.extensions::PartitionItem"* null, %"class.extensions::PartitionItem"** %40, align 8
  %43 = bitcast %"class.std::__1::unique_ptr"* %37 to i64*
  store i64 %42, i64* %43, align 8
  %44 = getelementptr inbounds %"class.std::__1::unique_ptr", %"class.std::__1::unique_ptr"* %37, i64 1
  %45 = ptrtoint %"class.std::__1::unique_ptr"* %44 to i64
  %46 = getelementptr inbounds %"class.std::__1::vector", %"class.std::__1::vector"* %0, i64 0, i32 0, i32 0
  %47 = load %"class.std::__1::unique_ptr"*, %"class.std::__1::unique_ptr"** %46, align 8
  %48 = ptrtoint %"class.std::__1::unique_ptr"* %47 to i64
  %49 = load %"class.std::__1::unique_ptr"*, %"class.std::__1::unique_ptr"** %3, align 8
  %50 = icmp eq %"class.std::__1::unique_ptr"* %49, %47
  br i1 %50, label %132, label %51

51:                                               ; preds = %34
  %52 = getelementptr %"class.std::__1::unique_ptr", %"class.std::__1::unique_ptr"* %49, i64 -1, i32 0, i32 0, i32 0
  %53 = ptrtoint %"class.extensions::PartitionItem"** %52 to i64
  %54 = sub i64 %53, %48
  %55 = lshr i64 %54, 3
  %56 = add nuw nsw i64 %55, 1
  %57 = and i64 %56, 7
  %58 = icmp eq i64 %57, 0
  br i1 %58, label %71, label %59

59:                                               ; preds = %51, %59
  %60 = phi %"class.std::__1::unique_ptr"* [ %63, %59 ], [ %37, %51 ]
  %61 = phi %"class.std::__1::unique_ptr"* [ %64, %59 ], [ %49, %51 ]
  %62 = phi i64 [ %69, %59 ], [ %57, %51 ]
  %63 = getelementptr inbounds %"class.std::__1::unique_ptr", %"class.std::__1::unique_ptr"* %60, i64 -1
  %64 = getelementptr inbounds %"class.std::__1::unique_ptr", %"class.std::__1::unique_ptr"* %61, i64 -1
  %65 = getelementptr inbounds %"class.std::__1::unique_ptr", %"class.std::__1::unique_ptr"* %64, i64 0, i32 0, i32 0, i32 0
  %66 = bitcast %"class.std::__1::unique_ptr"* %64 to i64*
  %67 = load i64, i64* %66, align 8
  store %"class.extensions::PartitionItem"* null, %"class.extensions::PartitionItem"** %65, align 8
  %68 = bitcast %"class.std::__1::unique_ptr"* %63 to i64*
  store i64 %67, i64* %68, align 8
  %69 = add i64 %62, -1
  %70 = icmp eq i64 %69, 0
  br i1 %70, label %71, label %59, !llvm.loop !2

71:                                               ; preds = %59, %51
  %72 = phi %"class.std::__1::unique_ptr"* [ undef, %51 ], [ %63, %59 ]
  %73 = phi %"class.std::__1::unique_ptr"* [ %37, %51 ], [ %63, %59 ]
  %74 = phi %"class.std::__1::unique_ptr"* [ %49, %51 ], [ %64, %59 ]
  %75 = icmp ult i64 %54, 56
  br i1 %75, label %128, label %76

76:                                               ; preds = %71, %76
  %77 = phi %"class.std::__1::unique_ptr"* [ %121, %76 ], [ %73, %71 ]
  %78 = phi %"class.std::__1::unique_ptr"* [ %122, %76 ], [ %74, %71 ]
  %79 = getelementptr inbounds %"class.std::__1::unique_ptr", %"class.std::__1::unique_ptr"* %77, i64 -1
  %80 = getelementptr inbounds %"class.std::__1::unique_ptr", %"class.std::__1::unique_ptr"* %78, i64 -1
  %81 = getelementptr inbounds %"class.std::__1::unique_ptr", %"class.std::__1::unique_ptr"* %80, i64 0, i32 0, i32 0, i32 0
  %82 = bitcast %"class.std::__1::unique_ptr"* %80 to i64*
  %83 = load i64, i64* %82, align 8
  store %"class.extensions::PartitionItem"* null, %"class.extensions::PartitionItem"** %81, align 8
  %84 = bitcast %"class.std::__1::unique_ptr"* %79 to i64*
  store i64 %83, i64* %84, align 8
  %85 = getelementptr inbounds %"class.std::__1::unique_ptr", %"class.std::__1::unique_ptr"* %77, i64 -2
  %86 = getelementptr inbounds %"class.std::__1::unique_ptr", %"class.std::__1::unique_ptr"* %78, i64 -2
  %87 = getelementptr inbounds %"class.std::__1::unique_ptr", %"class.std::__1::unique_ptr"* %86, i64 0, i32 0, i32 0, i32 0
  %88 = bitcast %"class.std::__1::unique_ptr"* %86 to i64*
  %89 = load i64, i64* %88, align 8
  store %"class.extensions::PartitionItem"* null, %"class.extensions::PartitionItem"** %87, align 8
  %90 = bitcast %"class.std::__1::unique_ptr"* %85 to i64*
  store i64 %89, i64* %90, align 8
  %91 = getelementptr inbounds %"class.std::__1::unique_ptr", %"class.std::__1::unique_ptr"* %77, i64 -3
  %92 = getelementptr inbounds %"class.std::__1::unique_ptr", %"class.std::__1::unique_ptr"* %78, i64 -3
  %93 = getelementptr inbounds %"class.std::__1::unique_ptr", %"class.std::__1::unique_ptr"* %92, i64 0, i32 0, i32 0, i32 0
  %94 = bitcast %"class.std::__1::unique_ptr"* %92 to i64*
  %95 = load i64, i64* %94, align 8
  store %"class.extensions::PartitionItem"* null, %"class.extensions::PartitionItem"** %93, align 8
  %96 = bitcast %"class.std::__1::unique_ptr"* %91 to i64*
  store i64 %95, i64* %96, align 8
  %97 = getelementptr inbounds %"class.std::__1::unique_ptr", %"class.std::__1::unique_ptr"* %77, i64 -4
  %98 = getelementptr inbounds %"class.std::__1::unique_ptr", %"class.std::__1::unique_ptr"* %78, i64 -4
  %99 = getelementptr inbounds %"class.std::__1::unique_ptr", %"class.std::__1::unique_ptr"* %98, i64 0, i32 0, i32 0, i32 0
  %100 = bitcast %"class.std::__1::unique_ptr"* %98 to i64*
  %101 = load i64, i64* %100, align 8
  store %"class.extensions::PartitionItem"* null, %"class.extensions::PartitionItem"** %99, align 8
  %102 = bitcast %"class.std::__1::unique_ptr"* %97 to i64*
  store i64 %101, i64* %102, align 8
  %103 = getelementptr inbounds %"class.std::__1::unique_ptr", %"class.std::__1::unique_ptr"* %77, i64 -5
  %104 = getelementptr inbounds %"class.std::__1::unique_ptr", %"class.std::__1::unique_ptr"* %78, i64 -5
  %105 = getelementptr inbounds %"class.std::__1::unique_ptr", %"class.std::__1::unique_ptr"* %104, i64 0, i32 0, i32 0, i32 0
  %106 = bitcast %"class.std::__1::unique_ptr"* %104 to i64*
  %107 = load i64, i64* %106, align 8
  store %"class.extensions::PartitionItem"* null, %"class.extensions::PartitionItem"** %105, align 8
  %108 = bitcast %"class.std::__1::unique_ptr"* %103 to i64*
  store i64 %107, i64* %108, align 8
  %109 = getelementptr inbounds %"class.std::__1::unique_ptr", %"class.std::__1::unique_ptr"* %77, i64 -6
  %110 = getelementptr inbounds %"class.std::__1::unique_ptr", %"class.std::__1::unique_ptr"* %78, i64 -6
  %111 = getelementptr inbounds %"class.std::__1::unique_ptr", %"class.std::__1::unique_ptr"* %110, i64 0, i32 0, i32 0, i32 0
  %112 = bitcast %"class.std::__1::unique_ptr"* %110 to i64*
  %113 = load i64, i64* %112, align 8
  store %"class.extensions::PartitionItem"* null, %"class.extensions::PartitionItem"** %111, align 8
  %114 = bitcast %"class.std::__1::unique_ptr"* %109 to i64*
  store i64 %113, i64* %114, align 8
  %115 = getelementptr inbounds %"class.std::__1::unique_ptr", %"class.std::__1::unique_ptr"* %77, i64 -7
  %116 = getelementptr inbounds %"class.std::__1::unique_ptr", %"class.std::__1::unique_ptr"* %78, i64 -7
  %117 = getelementptr inbounds %"class.std::__1::unique_ptr", %"class.std::__1::unique_ptr"* %116, i64 0, i32 0, i32 0, i32 0
  %118 = bitcast %"class.std::__1::unique_ptr"* %116 to i64*
  %119 = load i64, i64* %118, align 8
  store %"class.extensions::PartitionItem"* null, %"class.extensions::PartitionItem"** %117, align 8
  %120 = bitcast %"class.std::__1::unique_ptr"* %115 to i64*
  store i64 %119, i64* %120, align 8
  %121 = getelementptr inbounds %"class.std::__1::unique_ptr", %"class.std::__1::unique_ptr"* %77, i64 -8
  %122 = getelementptr inbounds %"class.std::__1::unique_ptr", %"class.std::__1::unique_ptr"* %78, i64 -8
  %123 = getelementptr inbounds %"class.std::__1::unique_ptr", %"class.std::__1::unique_ptr"* %122, i64 0, i32 0, i32 0, i32 0
  %124 = bitcast %"class.std::__1::unique_ptr"* %122 to i64*
  %125 = load i64, i64* %124, align 8
  store %"class.extensions::PartitionItem"* null, %"class.extensions::PartitionItem"** %123, align 8
  %126 = bitcast %"class.std::__1::unique_ptr"* %121 to i64*
  store i64 %125, i64* %126, align 8
  %127 = icmp eq %"class.std::__1::unique_ptr"* %122, %47
  br i1 %127, label %128, label %76

128:                                              ; preds = %76, %71
  %129 = phi %"class.std::__1::unique_ptr"* [ %72, %71 ], [ %121, %76 ]
  %130 = load i64, i64* %6, align 8
  %131 = load %"class.std::__1::unique_ptr"*, %"class.std::__1::unique_ptr"** %3, align 8
  br label %132

132:                                              ; preds = %34, %128
  %133 = phi %"class.std::__1::unique_ptr"* [ %131, %128 ], [ %47, %34 ]
  %134 = phi %"class.std::__1::unique_ptr"* [ %129, %128 ], [ %37, %34 ]
  %135 = phi i64 [ %130, %128 ], [ %48, %34 ]
  %136 = ptrtoint %"class.std::__1::unique_ptr"* %134 to i64
  store i64 %136, i64* %6, align 8
  store i64 %45, i64* %4, align 8
  store i64 %39, i64* %16, align 8
  %137 = inttoptr i64 %135 to %"class.std::__1::unique_ptr"*
  %138 = icmp eq %"class.std::__1::unique_ptr"* %133, %137
  br i1 %138, label %152, label %139

139:                                              ; preds = %132, %150
  %140 = phi %"class.std::__1::unique_ptr"* [ %141, %150 ], [ %133, %132 ]
  %141 = getelementptr inbounds %"class.std::__1::unique_ptr", %"class.std::__1::unique_ptr"* %140, i64 -1
  %142 = getelementptr inbounds %"class.std::__1::unique_ptr", %"class.std::__1::unique_ptr"* %141, i64 0, i32 0, i32 0, i32 0
  %143 = load %"class.extensions::PartitionItem"*, %"class.extensions::PartitionItem"** %142, align 8
  store %"class.extensions::PartitionItem"* null, %"class.extensions::PartitionItem"** %142, align 8
  %144 = icmp eq %"class.extensions::PartitionItem"* %143, null
  br i1 %144, label %150, label %145

145:                                              ; preds = %139
  %146 = bitcast %"class.extensions::PartitionItem"* %143 to void (%"class.extensions::PartitionItem"*)***
  %147 = load void (%"class.extensions::PartitionItem"*)**, void (%"class.extensions::PartitionItem"*)*** %146, align 8
  %148 = getelementptr inbounds void (%"class.extensions::PartitionItem"*)*, void (%"class.extensions::PartitionItem"*)** %147, i64 1
  %149 = load void (%"class.extensions::PartitionItem"*)*, void (%"class.extensions::PartitionItem"*)** %148, align 8
  tail call void %149(%"class.extensions::PartitionItem"* nonnull %143) #12
  br label %150

150:                                              ; preds = %145, %139
  %151 = icmp eq %"class.std::__1::unique_ptr"* %141, %137
  br i1 %151, label %152, label %139

152:                                              ; preds = %150, %132
  %153 = icmp eq i64 %135, 0
  br i1 %153, label %156, label %154

154:                                              ; preds = %152
  %155 = inttoptr i64 %135 to i8*
  tail call void @_ZdlPv(i8* %155) #13
  br label %156

156:                                              ; preds = %152, %154
  ret void
}

; Function Attrs: noreturn
declare void @_ZNKSt3__120__vector_base_commonILb1EE20__throw_length_errorEv(%"class.std::__1::__vector_base_common"*) local_unnamed_addr #9

declare void @_ZN10extensions13URLPatternSetC1Ev(%"class.extensions::URLPatternSet"*) unnamed_addr #3

; Function Attrs: nounwind ssp uwtable
define linkonce_odr hidden void @_ZN10extensions13PartitionItemD2Ev(%"class.extensions::PartitionItem"*) unnamed_addr #0 comdat align 2 {
  %2 = getelementptr inbounds %"class.extensions::PartitionItem", %"class.extensions::PartitionItem"* %0, i64 0, i32 0
  store i32 (...)** bitcast (i8** getelementptr inbounds ({ [4 x i8*] }, { [4 x i8*] }* @_ZTVN10extensions13PartitionItemE, i64 0, inrange i32 0, i64 2) to i32 (...)**), i32 (...)*** %2, align 8
  %3 = getelementptr inbounds %"class.extensions::PartitionItem", %"class.extensions::PartitionItem"* %0, i64 0, i32 2
  tail call void @_ZN10extensions13URLPatternSetD1Ev(%"class.extensions::URLPatternSet"* %3) #12
  %4 = getelementptr inbounds %"class.extensions::PartitionItem", %"class.extensions::PartitionItem"* %0, i64 0, i32 1
  %5 = bitcast %"class.std::__1::basic_string"* %4 to %"struct.std::__1::basic_string<char, std::__1::char_traits<char>, std::__1::allocator<char> >::__short"*
  %6 = getelementptr inbounds %"struct.std::__1::basic_string<char, std::__1::char_traits<char>, std::__1::allocator<char> >::__short", %"struct.std::__1::basic_string<char, std::__1::char_traits<char>, std::__1::allocator<char> >::__short"* %5, i64 0, i32 1, i32 0
  %7 = load i8, i8* %6, align 1
  %8 = icmp slt i8 %7, 0
  br i1 %8, label %9, label %12

9:                                                ; preds = %1
  %10 = getelementptr inbounds %"class.std::__1::basic_string", %"class.std::__1::basic_string"* %4, i64 0, i32 0, i32 0, i32 0, i32 0, i32 0, i32 0
  %11 = load i8*, i8** %10, align 8
  tail call void @_ZdlPv(i8* %11) #13
  br label %12

12:                                               ; preds = %1, %9
  ret void
}

; Function Attrs: nounwind ssp uwtable
define linkonce_odr hidden void @_ZN10extensions13PartitionItemD0Ev(%"class.extensions::PartitionItem"*) unnamed_addr #0 comdat align 2 {
  %2 = getelementptr inbounds %"class.extensions::PartitionItem", %"class.extensions::PartitionItem"* %0, i64 0, i32 0
  store i32 (...)** bitcast (i8** getelementptr inbounds ({ [4 x i8*] }, { [4 x i8*] }* @_ZTVN10extensions13PartitionItemE, i64 0, inrange i32 0, i64 2) to i32 (...)**), i32 (...)*** %2, align 8
  %3 = getelementptr inbounds %"class.extensions::PartitionItem", %"class.extensions::PartitionItem"* %0, i64 0, i32 2
  tail call void @_ZN10extensions13URLPatternSetD1Ev(%"class.extensions::URLPatternSet"* %3) #12
  %4 = getelementptr inbounds %"class.extensions::PartitionItem", %"class.extensions::PartitionItem"* %0, i64 0, i32 1
  %5 = bitcast %"class.std::__1::basic_string"* %4 to %"struct.std::__1::basic_string<char, std::__1::char_traits<char>, std::__1::allocator<char> >::__short"*
  %6 = getelementptr inbounds %"struct.std::__1::basic_string<char, std::__1::char_traits<char>, std::__1::allocator<char> >::__short", %"struct.std::__1::basic_string<char, std::__1::char_traits<char>, std::__1::allocator<char> >::__short"* %5, i64 0, i32 1, i32 0
  %7 = load i8, i8* %6, align 1
  %8 = icmp slt i8 %7, 0
  br i1 %8, label %9, label %12

9:                                                ; preds = %1
  %10 = getelementptr inbounds %"class.std::__1::basic_string", %"class.std::__1::basic_string"* %4, i64 0, i32 0, i32 0, i32 0, i32 0, i32 0, i32 0
  %11 = load i8*, i8** %10, align 8
  tail call void @_ZdlPv(i8* %11) #13
  br label %12

12:                                               ; preds = %1, %9
  %13 = bitcast %"class.extensions::PartitionItem"* %0 to i8*
  tail call void @_ZdlPv(i8* %13) #13
  ret void
}

; Function Attrs: nounwind
declare void @_ZN10extensions13URLPatternSetD1Ev(%"class.extensions::URLPatternSet"*) unnamed_addr #4

; Function Attrs: nofree nounwind readonly
declare i32 @bcmp(i8* nocapture, i8* nocapture, i64) local_unnamed_addr #11

attributes #0 = { nounwind ssp uwtable "correctly-rounded-divide-sqrt-fp-math"="false" "disable-tail-calls"="false" "less-precise-fpmad"="false" "min-legal-vector-width"="0" "no-frame-pointer-elim"="false" "no-frame-pointer-elim-non-leaf" "no-infs-fp-math"="false" "no-jump-tables"="false" "no-nans-fp-math"="false" "no-signed-zeros-fp-math"="false" "no-trapping-math"="false" "null-pointer-is-valid"="true" "stack-protector-buffer-size"="4" "target-cpu"="x86-64" "target-features"="+cx8,+fxsr,+mmx,+sse,+sse2,+sse3,+x87" "unsafe-fp-math"="false" "use-soft-float"="false" }
attributes #1 = { nobuiltin nounwind "correctly-rounded-divide-sqrt-fp-math"="false" "disable-tail-calls"="false" "less-precise-fpmad"="false" "no-frame-pointer-elim"="false" "no-frame-pointer-elim-non-leaf" "no-infs-fp-math"="false" "no-nans-fp-math"="false" "no-signed-zeros-fp-math"="false" "no-trapping-math"="false" "null-pointer-is-valid"="true" "stack-protector-buffer-size"="4" "target-cpu"="x86-64" "target-features"="+cx8,+fxsr,+mmx,+sse,+sse2,+sse3,+x87" "unsafe-fp-math"="false" "use-soft-float"="false" }
attributes #2 = { argmemonly nounwind }
attributes #3 = { "correctly-rounded-divide-sqrt-fp-math"="false" "disable-tail-calls"="false" "less-precise-fpmad"="false" "no-frame-pointer-elim"="false" "no-frame-pointer-elim-non-leaf" "no-infs-fp-math"="false" "no-nans-fp-math"="false" "no-signed-zeros-fp-math"="false" "no-trapping-math"="false" "null-pointer-is-valid"="true" "stack-protector-buffer-size"="4" "target-cpu"="x86-64" "target-features"="+cx8,+fxsr,+mmx,+sse,+sse2,+sse3,+x87" "unsafe-fp-math"="false" "use-soft-float"="false" }
attributes #4 = { nounwind "correctly-rounded-divide-sqrt-fp-math"="false" "disable-tail-calls"="false" "less-precise-fpmad"="false" "no-frame-pointer-elim"="false" "no-frame-pointer-elim-non-leaf" "no-infs-fp-math"="false" "no-nans-fp-math"="false" "no-signed-zeros-fp-math"="false" "no-trapping-math"="false" "null-pointer-is-valid"="true" "stack-protector-buffer-size"="4" "target-cpu"="x86-64" "target-features"="+cx8,+fxsr,+mmx,+sse,+sse2,+sse3,+x87" "unsafe-fp-math"="false" "use-soft-float"="false" }
attributes #5 = { nobuiltin nofree "correctly-rounded-divide-sqrt-fp-math"="false" "disable-tail-calls"="false" "less-precise-fpmad"="false" "no-frame-pointer-elim"="false" "no-frame-pointer-elim-non-leaf" "no-infs-fp-math"="false" "no-nans-fp-math"="false" "no-signed-zeros-fp-math"="false" "no-trapping-math"="false" "null-pointer-is-valid"="true" "stack-protector-buffer-size"="4" "target-cpu"="x86-64" "target-features"="+cx8,+fxsr,+mmx,+sse,+sse2,+sse3,+x87" "unsafe-fp-math"="false" "use-soft-float"="false" }
attributes #6 = { norecurse nounwind readnone ssp uwtable "correctly-rounded-divide-sqrt-fp-math"="false" "disable-tail-calls"="false" "less-precise-fpmad"="false" "min-legal-vector-width"="0" "no-frame-pointer-elim"="false" "no-frame-pointer-elim-non-leaf" "no-infs-fp-math"="false" "no-jump-tables"="false" "no-nans-fp-math"="false" "no-signed-zeros-fp-math"="false" "no-trapping-math"="false" "null-pointer-is-valid"="true" "stack-protector-buffer-size"="4" "target-cpu"="x86-64" "target-features"="+cx8,+fxsr,+mmx,+sse,+sse2,+sse3,+x87" "unsafe-fp-math"="false" "use-soft-float"="false" }
attributes #7 = { argmemonly nofree nounwind readonly "correctly-rounded-divide-sqrt-fp-math"="false" "disable-tail-calls"="false" "less-precise-fpmad"="false" "no-frame-pointer-elim"="false" "no-frame-pointer-elim-non-leaf" "no-infs-fp-math"="false" "no-nans-fp-math"="false" "no-signed-zeros-fp-math"="false" "no-trapping-math"="false" "null-pointer-is-valid"="true" "stack-protector-buffer-size"="4" "target-cpu"="x86-64" "target-features"="+cx8,+fxsr,+mmx,+sse,+sse2,+sse3,+x87" "unsafe-fp-math"="false" "use-soft-float"="false" }
attributes #8 = { inlinehint nounwind ssp uwtable "correctly-rounded-divide-sqrt-fp-math"="false" "disable-tail-calls"="false" "less-precise-fpmad"="false" "min-legal-vector-width"="0" "no-frame-pointer-elim"="false" "no-frame-pointer-elim-non-leaf" "no-infs-fp-math"="false" "no-jump-tables"="false" "no-nans-fp-math"="false" "no-signed-zeros-fp-math"="false" "no-trapping-math"="false" "null-pointer-is-valid"="true" "stack-protector-buffer-size"="4" "target-cpu"="x86-64" "target-features"="+cx8,+fxsr,+mmx,+sse,+sse2,+sse3,+x87" "unsafe-fp-math"="false" "use-soft-float"="false" }
attributes #9 = { noreturn "correctly-rounded-divide-sqrt-fp-math"="false" "disable-tail-calls"="false" "less-precise-fpmad"="false" "no-frame-pointer-elim"="false" "no-frame-pointer-elim-non-leaf" "no-infs-fp-math"="false" "no-nans-fp-math"="false" "no-signed-zeros-fp-math"="false" "no-trapping-math"="false" "null-pointer-is-valid"="true" "stack-protector-buffer-size"="4" "target-cpu"="x86-64" "target-features"="+cx8,+fxsr,+mmx,+sse,+sse2,+sse3,+x87" "unsafe-fp-math"="false" "use-soft-float"="false" }
attributes #10 = { noreturn nounwind "correctly-rounded-divide-sqrt-fp-math"="false" "disable-tail-calls"="false" "less-precise-fpmad"="false" "no-frame-pointer-elim"="false" "no-frame-pointer-elim-non-leaf" "no-infs-fp-math"="false" "no-nans-fp-math"="false" "no-signed-zeros-fp-math"="false" "no-trapping-math"="false" "null-pointer-is-valid"="true" "stack-protector-buffer-size"="4" "target-cpu"="x86-64" "target-features"="+cx8,+fxsr,+mmx,+sse,+sse2,+sse3,+x87" "unsafe-fp-math"="false" "use-soft-float"="false" }
attributes #11 = { nofree nounwind readonly }
attributes #12 = { nounwind }
attributes #13 = { builtin nounwind }
attributes #14 = { noreturn nounwind }

!llvm.module.flags = !{!0, !1}

!0 = !{i32 1, !"wchar_size", i32 4}
!1 = !{i32 7, !"PIC Level", i32 2}
!2 = distinct !{!2, !3}
!3 = !{!"llvm.loop.unroll.disable"}
