; ModuleID = '../../ui/views/animation/widget_fade_animator.cc'
source_filename = "../../ui/views/animation/widget_fade_animator.cc"
target datalayout = "e-m:e-i64:64-f80:128-n8:16:32:64-S128"
target triple = "x86_64-unknown-linux-gnu"

module asm ".symver exp, exp@GLIBC_2.2.5"
module asm ".symver exp2, exp2@GLIBC_2.2.5"
module asm ".symver exp2f, exp2f@GLIBC_2.2.5"
module asm ".symver expf, expf@GLIBC_2.2.5"
module asm ".symver lgamma, lgamma@GLIBC_2.2.5"
module asm ".symver lgammaf, lgammaf@GLIBC_2.2.5"
module asm ".symver lgammal, lgammal@GLIBC_2.2.5"
module asm ".symver log, log@GLIBC_2.2.5"
module asm ".symver log2, log2@GLIBC_2.2.5"
module asm ".symver log2f, log2f@GLIBC_2.2.5"
module asm ".symver logf, logf@GLIBC_2.2.5"
module asm ".symver pow, pow@GLIBC_2.2.5"
module asm ".symver powf, powf@GLIBC_2.2.5"

%"class.views::WidgetFadeAnimator" = type { %"class.views::AnimationDelegateViews", %"class.views::WidgetObserver", %"class.views::Widget"*, %"class.base::ScopedObservation.236", %"class.gfx::LinearAnimation", i32, %"class.base::TimeDelta", %"class.base::TimeDelta", i32, i8, %"class.base::RepeatingCallbackList.238" }
%"class.views::AnimationDelegateViews" = type { %"class.gfx::AnimationDelegate", %"class.views::ViewObserver", %"class.gfx::AnimationContainerObserver", %"class.views::View"*, %"class.gfx::AnimationContainer"*, %"class.views::CompositorAnimationRunner"*, %"class.base::ScopedObservation.234" }
%"class.gfx::AnimationDelegate" = type { i32 (...)** }
%"class.views::ViewObserver" = type { i32 (...)** }
%"class.gfx::AnimationContainerObserver" = type { i32 (...)** }
%"class.views::View" = type <{ %"class.ui::LayerDelegate", %"class.ui::LayerObserver", %"class.ui::LayerOwner", %"class.ui::AcceleratorTarget", %"class.ui::EventTarget", %"class.ui::EventHandler", %"class.ui::PropertyHandler", %"class.ui::metadata::MetaDataProvider", i8, [3 x i8], i32, i32, [4 x i8], %"class.views::View"*, %"class.std::__1::vector.49", i8, [3 x i8], %"class.absl::optional", %"class.gfx::Rect", i8, i8, i8, i8, [4 x i8], %"class.std::__1::unique_ptr.56", %class.SkPath, i8, [7 x i8], %"class.std::__1::unique_ptr.75", %"class.absl::optional.81", i8, [7 x i8], %"class.std::__1::unique_ptr.86", %"class.std::__1::unique_ptr.92", %"class.ui::PaintCache", i8, [7 x i8], %"class.ui::NativeTheme"*, i8, %"class.absl::optional.118", i8, i8, [3 x i8], %"class.std::__1::vector.123", %"class.std::__1::unique_ptr.130", %"class.views::FocusManager"*, %"class.std::__1::unique_ptr.205", i64, %"class.views::View"*, %"class.views::View"*, i32, [4 x i8], %"class.views::ContextMenuController"*, %"class.views::DragController"*, %"class.std::__1::unique_ptr.218", %"class.std::__1::unique_ptr.224", %"class.base::ObserverList.230", i32, [4 x i8] }>
%"class.ui::LayerDelegate" = type { i32 (...)** }
%"class.ui::LayerObserver" = type { i32 (...)** }
%"class.ui::LayerOwner" = type { i32 (...)**, %"class.std::__1::unique_ptr", %"class.ui::Layer"*, %"class.base::ObserverList" }
%"class.std::__1::unique_ptr" = type { %"class.std::__1::__compressed_pair" }
%"class.std::__1::__compressed_pair" = type { %"struct.std::__1::__compressed_pair_elem" }
%"struct.std::__1::__compressed_pair_elem" = type { %"class.ui::Layer"* }
%"class.ui::Layer" = type opaque
%"class.base::ObserverList" = type <{ %"class.std::__1::vector", %"class.base::LinkedList", i64, i32, [4 x i8] }>
%"class.std::__1::vector" = type { %"class.std::__1::__vector_base" }
%"class.std::__1::__vector_base" = type { %"class.base::internal::UncheckedObserverAdapter"*, %"class.base::internal::UncheckedObserverAdapter"*, %"class.std::__1::__compressed_pair.1" }
%"class.base::internal::UncheckedObserverAdapter" = type { i8* }
%"class.std::__1::__compressed_pair.1" = type { %"struct.std::__1::__compressed_pair_elem.2" }
%"struct.std::__1::__compressed_pair_elem.2" = type { %"class.base::internal::UncheckedObserverAdapter"* }
%"class.base::LinkedList" = type { %"class.base::LinkNode" }
%"class.base::LinkNode" = type { %"class.base::internal::LinkNodeBase" }
%"class.base::internal::LinkNodeBase" = type { %"class.base::internal::LinkNodeBase"*, %"class.base::internal::LinkNodeBase"* }
%"class.ui::AcceleratorTarget" = type { i32 (...)** }
%"class.ui::EventTarget" = type { i32 (...)**, %"class.std::__1::vector.4", %"class.std::__1::vector.20", %"class.ui::EventHandler"* }
%"class.std::__1::vector.4" = type { %"class.std::__1::__vector_base.5" }
%"class.std::__1::__vector_base.5" = type { %"struct.ui::EventTarget::PrioritizedHandler"*, %"struct.ui::EventTarget::PrioritizedHandler"*, %"class.std::__1::__compressed_pair.27" }
%"struct.ui::EventTarget::PrioritizedHandler" = type <{ %"class.ui::EventHandler"*, i32, [4 x i8] }>
%"class.std::__1::__compressed_pair.27" = type { %"struct.std::__1::__compressed_pair_elem.28" }
%"struct.std::__1::__compressed_pair_elem.28" = type { %"struct.ui::EventTarget::PrioritizedHandler"* }
%"class.std::__1::vector.20" = type { %"class.std::__1::__vector_base.21" }
%"class.std::__1::__vector_base.21" = type { %"class.ui::EventHandler"**, %"class.ui::EventHandler"**, %"class.std::__1::__compressed_pair.22" }
%"class.std::__1::__compressed_pair.22" = type { %"struct.std::__1::__compressed_pair_elem.23" }
%"struct.std::__1::__compressed_pair_elem.23" = type { %"class.ui::EventHandler"** }
%"class.ui::EventHandler" = type { i32 (...)**, %"class.std::__1::stack" }
%"class.std::__1::stack" = type { %"class.base::circular_deque" }
%"class.base::circular_deque" = type { %"class.base::internal::VectorBuffer", i64, i64 }
%"class.base::internal::VectorBuffer" = type { %"class.ui::EventDispatcher"**, i64 }
%"class.ui::EventDispatcher" = type { i32 (...)**, %"class.ui::EventDispatcherDelegate"*, %"class.ui::Event"*, %"class.std::__1::vector.20" }
%"class.ui::EventDispatcherDelegate" = type { i32 (...)**, %"class.ui::EventDispatcher"* }
%"class.ui::Event" = type { i32 (...)**, i32, %"class.base::TimeTicks", %"class.ui::LatencyInfo", i32, %"class.ui::Event"*, i8, i8, %"class.ui::EventTarget"*, i32, i32, i32, %"class.std::__1::unique_ptr.13" }
%"class.base::TimeTicks" = type { %"class.base::time_internal::TimeBase" }
%"class.base::time_internal::TimeBase" = type { i64 }
%"class.ui::LatencyInfo" = type { %"class.base::flat_map", i64, i64, i8, i8, i8, i32, float, float, i64 }
%"class.base::flat_map" = type { %"class.base::internal::flat_tree" }
%"class.base::internal::flat_tree" = type { %"class.std::__1::vector.6" }
%"class.std::__1::vector.6" = type { %"class.std::__1::__vector_base.7" }
%"class.std::__1::__vector_base.7" = type { %"struct.std::__1::pair"*, %"struct.std::__1::pair"*, %"class.std::__1::__compressed_pair.8" }
%"struct.std::__1::pair" = type opaque
%"class.std::__1::__compressed_pair.8" = type { %"struct.std::__1::__compressed_pair_elem.9" }
%"struct.std::__1::__compressed_pair_elem.9" = type { %"struct.std::__1::pair"* }
%"class.std::__1::unique_ptr.13" = type { %"class.std::__1::__compressed_pair.14" }
%"class.std::__1::__compressed_pair.14" = type { %"struct.std::__1::__compressed_pair_elem.15" }
%"struct.std::__1::__compressed_pair_elem.15" = type { %"class.base::flat_map.16"* }
%"class.base::flat_map.16" = type opaque
%"class.ui::PropertyHandler" = type { i32 (...)**, %"class.std::__1::map" }
%"class.std::__1::map" = type { %"class.std::__1::__tree" }
%"class.std::__1::__tree" = type { %"class.std::__1::__tree_end_node"*, %"class.std::__1::__compressed_pair.32", %"class.std::__1::__compressed_pair.37" }
%"class.std::__1::__tree_end_node" = type { %"class.std::__1::__tree_node_base"* }
%"class.std::__1::__tree_node_base" = type opaque
%"class.std::__1::__compressed_pair.32" = type { %"struct.std::__1::__compressed_pair_elem.33" }
%"struct.std::__1::__compressed_pair_elem.33" = type { %"class.std::__1::__tree_end_node" }
%"class.std::__1::__compressed_pair.37" = type { %"struct.std::__1::__compressed_pair_elem.38" }
%"struct.std::__1::__compressed_pair_elem.38" = type { i64 }
%"class.ui::metadata::MetaDataProvider" = type { i32 (...)**, %"class.std::__1::map.40" }
%"class.std::__1::map.40" = type { %"class.std::__1::__tree.41" }
%"class.std::__1::__tree.41" = type { %"class.std::__1::__tree_end_node"*, %"class.std::__1::__compressed_pair.42", %"class.std::__1::__compressed_pair.46" }
%"class.std::__1::__compressed_pair.42" = type { %"struct.std::__1::__compressed_pair_elem.33" }
%"class.std::__1::__compressed_pair.46" = type { %"struct.std::__1::__compressed_pair_elem.38" }
%"class.std::__1::vector.49" = type { %"class.std::__1::__vector_base.50" }
%"class.std::__1::__vector_base.50" = type { %"class.views::View"**, %"class.views::View"**, %"class.std::__1::__compressed_pair.51" }
%"class.std::__1::__compressed_pair.51" = type { %"struct.std::__1::__compressed_pair_elem.52" }
%"struct.std::__1::__compressed_pair_elem.52" = type { %"class.views::View"** }
%"class.absl::optional" = type { %"class.absl::optional_internal::optional_data" }
%"class.absl::optional_internal::optional_data" = type { %"class.absl::optional_internal::optional_data_base" }
%"class.absl::optional_internal::optional_data_base" = type { %"class.absl::optional_internal::optional_data_dtor_base" }
%"class.absl::optional_internal::optional_data_dtor_base" = type { i8, %union.anon }
%union.anon = type { %"class.gfx::Size" }
%"class.gfx::Size" = type { i32, i32 }
%"class.gfx::Rect" = type { %"class.gfx::Point", %"class.gfx::Size" }
%"class.gfx::Point" = type { i32, i32 }
%"class.std::__1::unique_ptr.56" = type { %"class.std::__1::__compressed_pair.57" }
%"class.std::__1::__compressed_pair.57" = type { %"struct.std::__1::__compressed_pair_elem.58" }
%"struct.std::__1::__compressed_pair_elem.58" = type { %"class.std::__1::vector.49"* }
%class.SkPath = type <{ %class.sk_sp, i32, %"struct.std::__1::atomic.65", %"struct.std::__1::atomic.65", i8, i8 }>
%class.sk_sp = type { %class.SkPathRef* }
%class.SkPathRef = type <{ %class.SkNVRefCnt, %struct.SkRect, [4 x i8], %class.SkTDArray, %class.SkTDArray.63, %class.SkTDArray.64, i32, [4 x i8], %"class.SkIDChangeListener::List", i8, i8, i8, i8, i8, i8, i8, i8 }>
%class.SkNVRefCnt = type { %"struct.std::__1::atomic" }
%"struct.std::__1::atomic" = type { %"struct.std::__1::__atomic_base" }
%"struct.std::__1::__atomic_base" = type { %"struct.std::__1::__atomic_base.62" }
%"struct.std::__1::__atomic_base.62" = type { %"struct.std::__1::__cxx_atomic_impl" }
%"struct.std::__1::__cxx_atomic_impl" = type { %"struct.std::__1::__cxx_atomic_base_impl" }
%"struct.std::__1::__cxx_atomic_base_impl" = type { i32 }
%struct.SkRect = type { float, float, float, float }
%class.SkTDArray = type { %struct.SkPoint*, i32, i32 }
%struct.SkPoint = type { float, float }
%class.SkTDArray.63 = type { i8*, i32, i32 }
%class.SkTDArray.64 = type { float*, i32, i32 }
%"class.SkIDChangeListener::List" = type { %class.SkMutex, %class.SkTDArray.70 }
%class.SkMutex = type { %class.SkSemaphore }
%class.SkSemaphore = type { %"struct.std::__1::atomic", %class.SkOnce, %"struct.SkSemaphore::OSSemaphore"* }
%class.SkOnce = type { %"struct.std::__1::atomic.65" }
%"struct.SkSemaphore::OSSemaphore" = type opaque
%class.SkTDArray.70 = type { %class.SkIDChangeListener**, i32, i32 }
%class.SkIDChangeListener = type { %class.SkRefCnt.base, %"struct.std::__1::atomic.71", [3 x i8] }
%class.SkRefCnt.base = type { %class.SkRefCntBase.base }
%class.SkRefCntBase.base = type <{ i32 (...)**, %"struct.std::__1::atomic" }>
%"struct.std::__1::atomic.71" = type { %"struct.std::__1::__atomic_base.72" }
%"struct.std::__1::__atomic_base.72" = type { %"struct.std::__1::__cxx_atomic_impl.73" }
%"struct.std::__1::__cxx_atomic_impl.73" = type { %"struct.std::__1::__cxx_atomic_base_impl.74" }
%"struct.std::__1::__cxx_atomic_base_impl.74" = type { i8 }
%"struct.std::__1::atomic.65" = type { %"struct.std::__1::__atomic_base.66" }
%"struct.std::__1::__atomic_base.66" = type { %"struct.std::__1::__atomic_base.67" }
%"struct.std::__1::__atomic_base.67" = type { %"struct.std::__1::__cxx_atomic_impl.68" }
%"struct.std::__1::__cxx_atomic_impl.68" = type { %"struct.std::__1::__cxx_atomic_base_impl.69" }
%"struct.std::__1::__cxx_atomic_base_impl.69" = type { i8 }
%"class.std::__1::unique_ptr.75" = type { %"class.std::__1::__compressed_pair.76" }
%"class.std::__1::__compressed_pair.76" = type { %"struct.std::__1::__compressed_pair_elem.77" }
%"struct.std::__1::__compressed_pair_elem.77" = type { %"class.views::LayoutManager"* }
%"class.views::LayoutManager" = type { i32 (...)**, %"class.views::View"* }
%"class.absl::optional.81" = type { %"class.absl::optional_internal::optional_data.82" }
%"class.absl::optional_internal::optional_data.82" = type { %"class.absl::optional_internal::optional_data_base.83" }
%"class.absl::optional_internal::optional_data_base.83" = type { %"class.absl::optional_internal::optional_data_dtor_base.84" }
%"class.absl::optional_internal::optional_data_dtor_base.84" = type { i8, %union.anon.85 }
%union.anon.85 = type { %"class.views::View::DefaultFillLayout" }
%"class.views::View::DefaultFillLayout" = type { %"class.views::LayoutManager" }
%"class.std::__1::unique_ptr.86" = type { %"class.std::__1::__compressed_pair.87" }
%"class.std::__1::__compressed_pair.87" = type { %"struct.std::__1::__compressed_pair_elem.88" }
%"struct.std::__1::__compressed_pair_elem.88" = type { %"class.views::Background"* }
%"class.views::Background" = type opaque
%"class.std::__1::unique_ptr.92" = type { %"class.std::__1::__compressed_pair.93" }
%"class.std::__1::__compressed_pair.93" = type { %"struct.std::__1::__compressed_pair_elem.94" }
%"struct.std::__1::__compressed_pair_elem.94" = type { %"class.views::Border"* }
%"class.views::Border" = type opaque
%"class.ui::PaintCache" = type <{ %class.sk_sp.98, float, [4 x i8] }>
%class.sk_sp.98 = type { %"class.cc::PaintOpBuffer"* }
%"class.cc::PaintOpBuffer" = type <{ %class.SkRefCnt.base, [4 x i8], %"class.std::__1::unique_ptr.99", i64, i64, i64, i64, i64, i32, i8, [3 x i8] }>
%"class.std::__1::unique_ptr.99" = type { %"class.std::__1::__compressed_pair.100" }
%"class.std::__1::__compressed_pair.100" = type { %"struct.std::__1::__compressed_pair_elem.101" }
%"struct.std::__1::__compressed_pair_elem.101" = type { i8* }
%"class.ui::NativeTheme" = type <{ i32 (...)**, %"class.std::__1::map.103", %"class.base::ObserverList.114", i8, i8, [2 x i8], i32, i32, [4 x i8] }>
%"class.std::__1::map.103" = type { %"class.std::__1::__tree.104" }
%"class.std::__1::__tree.104" = type { %"class.std::__1::__tree_end_node"*, %"class.std::__1::__compressed_pair.105", %"class.std::__1::__compressed_pair.109" }
%"class.std::__1::__compressed_pair.105" = type { %"struct.std::__1::__compressed_pair_elem.33" }
%"class.std::__1::__compressed_pair.109" = type { %"struct.std::__1::__compressed_pair_elem.38" }
%"class.base::ObserverList.114" = type <{ %"class.std::__1::vector", %"class.base::LinkedList.115", i64, i32, [4 x i8] }>
%"class.base::LinkedList.115" = type { %"class.base::LinkNode.116" }
%"class.base::LinkNode.116" = type { %"class.base::internal::LinkNodeBase" }
%"class.absl::optional.118" = type { %"class.absl::optional_internal::optional_data.119" }
%"class.absl::optional_internal::optional_data.119" = type { %"class.absl::optional_internal::optional_data_base.120" }
%"class.absl::optional_internal::optional_data_base.120" = type { %"class.absl::optional_internal::optional_data_dtor_base.121" }
%"class.absl::optional_internal::optional_data_dtor_base.121" = type { i8, %union.anon.122 }
%union.anon.122 = type { i8 }
%"class.std::__1::vector.123" = type { %"class.std::__1::__vector_base.124" }
%"class.std::__1::__vector_base.124" = type { %"class.ui::Layer"**, %"class.ui::Layer"**, %"class.std::__1::__compressed_pair.125" }
%"class.std::__1::__compressed_pair.125" = type { %"struct.std::__1::__compressed_pair_elem.126" }
%"struct.std::__1::__compressed_pair_elem.126" = type { %"class.ui::Layer"** }
%"class.std::__1::unique_ptr.130" = type { %"class.std::__1::__compressed_pair.131" }
%"class.std::__1::__compressed_pair.131" = type { %"struct.std::__1::__compressed_pair_elem.132" }
%"struct.std::__1::__compressed_pair_elem.132" = type { %"class.views::ViewMaskLayer"* }
%"class.views::ViewMaskLayer" = type opaque
%"class.views::FocusManager" = type { %"class.views::ViewObserver", %"class.views::Widget"*, %"class.std::__1::unique_ptr.178", %"class.views::View"*, %"class.ui::AcceleratorManager", i8, %"class.std::__1::unique_ptr.195", i32, [4 x i8], %"class.base::ObserverList.201", i8, i8, i32 }
%"class.std::__1::unique_ptr.178" = type { %"class.std::__1::__compressed_pair.179" }
%"class.std::__1::__compressed_pair.179" = type { %"struct.std::__1::__compressed_pair_elem.180" }
%"struct.std::__1::__compressed_pair_elem.180" = type { %"class.views::FocusManagerDelegate"* }
%"class.views::FocusManagerDelegate" = type opaque
%"class.ui::AcceleratorManager" = type { %"class.ui::AcceleratorMap" }
%"class.ui::AcceleratorMap" = type { %"class.std::__1::map.184" }
%"class.std::__1::map.184" = type { %"class.std::__1::__tree.185" }
%"class.std::__1::__tree.185" = type { %"class.std::__1::__tree_end_node"*, %"class.std::__1::__compressed_pair.186", %"class.std::__1::__compressed_pair.190" }
%"class.std::__1::__compressed_pair.186" = type { %"struct.std::__1::__compressed_pair_elem.33" }
%"class.std::__1::__compressed_pair.190" = type { %"struct.std::__1::__compressed_pair_elem.38" }
%"class.std::__1::unique_ptr.195" = type { %"class.std::__1::__compressed_pair.196" }
%"class.std::__1::__compressed_pair.196" = type { %"struct.std::__1::__compressed_pair_elem.197" }
%"struct.std::__1::__compressed_pair_elem.197" = type { %"class.views::ViewTracker"* }
%"class.views::ViewTracker" = type opaque
%"class.base::ObserverList.201" = type <{ %"class.std::__1::vector", %"class.base::LinkedList.202", i64, i32, [4 x i8] }>
%"class.base::LinkedList.202" = type { %"class.base::LinkNode.203" }
%"class.base::LinkNode.203" = type { %"class.base::internal::LinkNodeBase" }
%"class.std::__1::unique_ptr.205" = type { %"class.std::__1::__compressed_pair.206" }
%"class.std::__1::__compressed_pair.206" = type { %"struct.std::__1::__compressed_pair_elem.207" }
%"struct.std::__1::__compressed_pair_elem.207" = type { %"class.std::__1::vector.208"* }
%"class.std::__1::vector.208" = type { %"class.std::__1::__vector_base.209" }
%"class.std::__1::__vector_base.209" = type { %"class.ui::Accelerator"*, %"class.ui::Accelerator"*, %"class.std::__1::__compressed_pair.210" }
%"class.ui::Accelerator" = type { i32, i32, i32, %"class.base::TimeTicks", i8, i32 }
%"class.std::__1::__compressed_pair.210" = type { %"struct.std::__1::__compressed_pair_elem.211" }
%"struct.std::__1::__compressed_pair_elem.211" = type { %"class.ui::Accelerator"* }
%"class.views::ContextMenuController" = type opaque
%"class.views::DragController" = type opaque
%"class.std::__1::unique_ptr.218" = type { %"class.std::__1::__compressed_pair.219" }
%"class.std::__1::__compressed_pair.219" = type { %"struct.std::__1::__compressed_pair_elem.220" }
%"struct.std::__1::__compressed_pair_elem.220" = type { %"class.views::ViewTargeter"* }
%"class.views::ViewTargeter" = type { %"class.ui::EventTargeter", %"class.views::ViewTargeterDelegate"* }
%"class.ui::EventTargeter" = type { i32 (...)** }
%"class.views::ViewTargeterDelegate" = type { i32 (...)** }
%"class.std::__1::unique_ptr.224" = type { %"class.std::__1::__compressed_pair.225" }
%"class.std::__1::__compressed_pair.225" = type { %"struct.std::__1::__compressed_pair_elem.226" }
%"struct.std::__1::__compressed_pair_elem.226" = type { %"class.views::ViewAccessibility"* }
%"class.views::ViewAccessibility" = type opaque
%"class.base::ObserverList.230" = type <{ %"class.std::__1::vector", %"class.base::LinkedList.231", i64, i32, [4 x i8] }>
%"class.base::LinkedList.231" = type { %"class.base::LinkNode.232" }
%"class.base::LinkNode.232" = type { %"class.base::internal::LinkNodeBase" }
%"class.gfx::AnimationContainer" = type opaque
%"class.views::CompositorAnimationRunner" = type opaque
%"class.base::ScopedObservation.234" = type { %"class.views::ViewObserver"*, %"class.views::View"* }
%"class.views::WidgetObserver" = type { %"class.base::CheckedObserver" }
%"class.base::CheckedObserver" = type { i32 (...)**, %"class.base::WeakPtrFactory.235" }
%"class.base::WeakPtrFactory.235" = type { %"class.base::internal::WeakPtrFactoryBase" }
%"class.base::internal::WeakPtrFactoryBase" = type { %"class.base::internal::WeakReferenceOwner", i64 }
%"class.base::internal::WeakReferenceOwner" = type { %class.scoped_refptr.164 }
%class.scoped_refptr.164 = type { %"class.base::internal::WeakReference::Flag"* }
%"class.base::internal::WeakReference::Flag" = type <{ %"class.base::RefCountedThreadSafe", %"class.base::AtomicFlag", [3 x i8] }>
%"class.base::RefCountedThreadSafe" = type { %"class.base::subtle::RefCountedThreadSafeBase" }
%"class.base::subtle::RefCountedThreadSafeBase" = type { %"class.base::AtomicRefCount" }
%"class.base::AtomicRefCount" = type { %"struct.std::__1::atomic" }
%"class.base::AtomicFlag" = type { %"struct.std::__1::atomic.65" }
%"class.base::ScopedObservation.236" = type { %"class.views::WidgetObserver"*, %"class.views::Widget"* }
%"class.gfx::LinearAnimation" = type <{ %"class.gfx::Animation", %"class.base::TimeDelta", double, i8, [7 x i8] }>
%"class.gfx::Animation" = type { %"class.gfx::AnimationContainerElement", %"class.base::TimeDelta", i8, %"class.gfx::AnimationDelegate"*, %class.scoped_refptr.237, %"class.base::TimeTicks" }
%"class.gfx::AnimationContainerElement" = type { i32 (...)** }
%class.scoped_refptr.237 = type { %"class.gfx::AnimationContainer"* }
%"class.base::TimeDelta" = type { i64 }
%"class.base::RepeatingCallbackList.238" = type { %"class.base::internal::CallbackListBase.239" }
%"class.base::internal::CallbackListBase.239" = type { %"class.std::__1::list.240", i8, %"class.base::RepeatingCallback", %"class.base::WeakPtrFactory.247" }
%"class.std::__1::list.240" = type { %"class.std::__1::__list_imp.241" }
%"class.std::__1::__list_imp.241" = type { %"struct.std::__1::__list_node_base.242", %"class.std::__1::__compressed_pair.243" }
%"struct.std::__1::__list_node_base.242" = type { %"struct.std::__1::__list_node_base.242"*, %"struct.std::__1::__list_node_base.242"* }
%"class.std::__1::__compressed_pair.243" = type { %"struct.std::__1::__compressed_pair_elem.38" }
%"class.base::RepeatingCallback" = type { %"class.base::internal::CallbackBaseCopyable" }
%"class.base::internal::CallbackBaseCopyable" = type { %"class.base::internal::CallbackBase" }
%"class.base::internal::CallbackBase" = type { %class.scoped_refptr.162 }
%class.scoped_refptr.162 = type { %"class.base::internal::BindStateBase"* }
%"class.base::internal::BindStateBase" = type { %"class.base::RefCountedThreadSafe.163", void ()*, void (%"class.base::internal::BindStateBase"*)*, i1 (%"class.base::internal::BindStateBase"*, i32)* }
%"class.base::RefCountedThreadSafe.163" = type { %"class.base::subtle::RefCountedThreadSafeBase" }
%"class.base::WeakPtrFactory.247" = type { %"class.base::internal::WeakPtrFactoryBase" }
%"class.views::Widget" = type { %"class.views::internal::NativeWidgetDelegate", %"class.ui::EventSource", %"class.views::FocusTraversable", %"class.ui::NativeThemeObserver", %"class.ui::metadata::MetaDataProvider", %"class.views::internal::NativeWidgetPrivate"*, %"class.base::ObserverList.140", %"class.base::ObserverList.151", %"class.base::RepeatingCallbackList", %"class.views::WidgetDelegate"*, %"class.views::Widget"*, %"class.std::__1::unique_ptr.165", %"class.views::NonClientView"*, %"class.std::__1::unique_ptr.171", %"class.views::View"*, i32, i8, i32, i8, i64, i8, i32, i32, %"class.gfx::Rect", i8, i8, i8, i8, i8, i8, i8, %"class.gfx::Point", i8, %"class.std::__1::vector.49", i8, i8, i8, %"class.ui::NativeTheme"*, %"class.base::ScopedObservation", %"class.base::WeakPtrFactory.177" }
%"class.views::internal::NativeWidgetDelegate" = type { i32 (...)** }
%"class.ui::EventSource" = type { i32 (...)**, %"class.std::__1::list" }
%"class.std::__1::list" = type { %"class.std::__1::__list_imp" }
%"class.std::__1::__list_imp" = type { %"struct.std::__1::__list_node_base", %"class.std::__1::__compressed_pair.136" }
%"struct.std::__1::__list_node_base" = type { %"struct.std::__1::__list_node_base"*, %"struct.std::__1::__list_node_base"* }
%"class.std::__1::__compressed_pair.136" = type { %"struct.std::__1::__compressed_pair_elem.38" }
%"class.views::FocusTraversable" = type { i32 (...)** }
%"class.ui::NativeThemeObserver" = type { i32 (...)** }
%"class.views::internal::NativeWidgetPrivate" = type opaque
%"class.base::ObserverList.140" = type <{ %"class.std::__1::vector.141", %"class.base::LinkedList.148", i64, i32, [4 x i8] }>
%"class.std::__1::vector.141" = type { %"class.std::__1::__vector_base.142" }
%"class.std::__1::__vector_base.142" = type { %"class.base::internal::CheckedObserverAdapter"*, %"class.base::internal::CheckedObserverAdapter"*, %"class.std::__1::__compressed_pair.143" }
%"class.base::internal::CheckedObserverAdapter" = type { %"class.base::WeakPtr" }
%"class.base::WeakPtr" = type { %"class.base::internal::WeakPtrBase" }
%"class.base::internal::WeakPtrBase" = type { %"class.base::internal::WeakReference", i64 }
%"class.base::internal::WeakReference" = type { %class.scoped_refptr }
%class.scoped_refptr = type { %"class.base::internal::WeakReference::Flag"* }
%"class.std::__1::__compressed_pair.143" = type { %"struct.std::__1::__compressed_pair_elem.144" }
%"struct.std::__1::__compressed_pair_elem.144" = type { %"class.base::internal::CheckedObserverAdapter"* }
%"class.base::LinkedList.148" = type { %"class.base::LinkNode.149" }
%"class.base::LinkNode.149" = type { %"class.base::internal::LinkNodeBase" }
%"class.base::ObserverList.151" = type <{ %"class.std::__1::vector", %"class.base::LinkedList.152", i64, i32, [4 x i8] }>
%"class.base::LinkedList.152" = type { %"class.base::LinkNode.153" }
%"class.base::LinkNode.153" = type { %"class.base::internal::LinkNodeBase" }
%"class.base::RepeatingCallbackList" = type { %"class.base::internal::CallbackListBase" }
%"class.base::internal::CallbackListBase" = type { %"class.std::__1::list.155", i8, %"class.base::RepeatingCallback", %"class.base::WeakPtrFactory" }
%"class.std::__1::list.155" = type { %"class.std::__1::__list_imp.156" }
%"class.std::__1::__list_imp.156" = type { %"struct.std::__1::__list_node_base.157", %"class.std::__1::__compressed_pair.158" }
%"struct.std::__1::__list_node_base.157" = type { %"struct.std::__1::__list_node_base.157"*, %"struct.std::__1::__list_node_base.157"* }
%"class.std::__1::__compressed_pair.158" = type { %"struct.std::__1::__compressed_pair_elem.38" }
%"class.base::WeakPtrFactory" = type { %"class.base::internal::WeakPtrFactoryBase" }
%"class.views::WidgetDelegate" = type opaque
%"class.std::__1::unique_ptr.165" = type { %"class.std::__1::__compressed_pair.166" }
%"class.std::__1::__compressed_pair.166" = type { %"struct.std::__1::__compressed_pair_elem.167" }
%"struct.std::__1::__compressed_pair_elem.167" = type { %"class.views::internal::RootView"* }
%"class.views::internal::RootView" = type opaque
%"class.views::NonClientView" = type { %"class.views::View.base", %"class.views::ViewTargeterDelegate", %"class.views::ClientView"*, %"class.std::__1::unique_ptr.248", %"class.views::View"*, %"class.std::__1::basic_string" }
%"class.views::View.base" = type <{ %"class.ui::LayerDelegate", %"class.ui::LayerObserver", %"class.ui::LayerOwner", %"class.ui::AcceleratorTarget", %"class.ui::EventTarget", %"class.ui::EventHandler", %"class.ui::PropertyHandler", %"class.ui::metadata::MetaDataProvider", i8, [3 x i8], i32, i32, [4 x i8], %"class.views::View"*, %"class.std::__1::vector.49", i8, [3 x i8], %"class.absl::optional", %"class.gfx::Rect", i8, i8, i8, i8, [4 x i8], %"class.std::__1::unique_ptr.56", %class.SkPath, i8, [7 x i8], %"class.std::__1::unique_ptr.75", %"class.absl::optional.81", i8, [7 x i8], %"class.std::__1::unique_ptr.86", %"class.std::__1::unique_ptr.92", %"class.ui::PaintCache", i8, [7 x i8], %"class.ui::NativeTheme"*, i8, %"class.absl::optional.118", i8, i8, [3 x i8], %"class.std::__1::vector.123", %"class.std::__1::unique_ptr.130", %"class.views::FocusManager"*, %"class.std::__1::unique_ptr.205", i64, %"class.views::View"*, %"class.views::View"*, i32, [4 x i8], %"class.views::ContextMenuController"*, %"class.views::DragController"*, %"class.std::__1::unique_ptr.218", %"class.std::__1::unique_ptr.224", %"class.base::ObserverList.230", i32 }>
%"class.views::ClientView" = type { %"class.views::View.base", %"class.views::View"* }
%"class.std::__1::unique_ptr.248" = type { %"class.std::__1::__compressed_pair.249" }
%"class.std::__1::__compressed_pair.249" = type { %"struct.std::__1::__compressed_pair_elem.250" }
%"struct.std::__1::__compressed_pair_elem.250" = type { %"class.views::NonClientFrameView"* }
%"class.views::NonClientFrameView" = type { %"class.views::View.base", %"class.views::ViewTargeterDelegate" }
%"class.std::__1::basic_string" = type { %"class.std::__1::__compressed_pair.254" }
%"class.std::__1::__compressed_pair.254" = type { %"struct.std::__1::__compressed_pair_elem.255" }
%"struct.std::__1::__compressed_pair_elem.255" = type { %"struct.std::__1::basic_string<char16_t, std::__1::char_traits<char16_t>, std::__1::allocator<char16_t> >::__rep" }
%"struct.std::__1::basic_string<char16_t, std::__1::char_traits<char16_t>, std::__1::allocator<char16_t> >::__rep" = type { %union.anon.256 }
%union.anon.256 = type { %"struct.std::__1::basic_string<char16_t, std::__1::char_traits<char16_t>, std::__1::allocator<char16_t> >::__long" }
%"struct.std::__1::basic_string<char16_t, std::__1::char_traits<char16_t>, std::__1::allocator<char16_t> >::__long" = type { i16*, i64, i64 }
%"class.std::__1::unique_ptr.171" = type { %"class.std::__1::__compressed_pair.172" }
%"class.std::__1::__compressed_pair.172" = type { %"struct.std::__1::__compressed_pair_elem.173" }
%"struct.std::__1::__compressed_pair_elem.173" = type { %"class.views::FocusManager"* }
%"class.base::ScopedObservation" = type { %"class.ui::NativeThemeObserver"*, %"class.ui::NativeTheme"* }
%"class.base::WeakPtrFactory.177" = type { %"class.base::internal::WeakPtrFactoryBase" }
%"class.logging::CheckOpResult" = type { i8* }
%"class.logging::CheckError" = type { %"class.logging::LogMessage"* }
%"class.logging::LogMessage" = type opaque
%"class.std::__1::basic_ostream" = type { i32 (...)**, %"class.std::__1::basic_ios.base" }
%"class.std::__1::basic_ios.base" = type <{ %"class.std::__1::ios_base", %"class.std::__1::basic_ostream"*, i32 }>
%"class.std::__1::ios_base" = type { i32 (...)**, i32, i64, i64, i32, i32, i8*, i8*, void (i32, %"class.std::__1::ios_base"*, i32)**, i32*, i64, i64, i64*, i64, i64, i8**, i64, i64 }
%"struct.std::__1::__list_node" = type { %"struct.std::__1::__list_node_base.242", %"class.base::RepeatingCallback.260" }
%"class.base::RepeatingCallback.260" = type { %"class.base::internal::CallbackBaseCopyable" }
%"class.base::CallbackListSubscription" = type { %"class.base::OnceCallback" }
%"class.base::OnceCallback" = type { %"class.base::internal::CallbackBase" }
%"class.base::WeakPtr.272" = type { %"class.base::internal::WeakPtrBase" }
%"struct.views::ViewHierarchyChangedDetails" = type { i8, %"class.views::View"*, %"class.views::View"*, %"class.views::View"* }
%"class.std::__1::__list_iterator" = type { %"struct.std::__1::__list_node_base.242"* }

$_ZN4base17ScopedObservationIN5views6WidgetENS1_14WidgetObserverEXadL_ZNS2_11AddObserverEPS3_EEXadL_ZNS2_14RemoveObserverES4_EEE7ObserveEPS2_ = comdat any

$_ZN4base8internal16CallbackListBaseINS_21RepeatingCallbackListIFvPN5views18WidgetFadeAnimatorENS4_8FadeTypeEEEEED2Ev = comdat any

$_ZN4base8internal16CallbackListBaseINS_21RepeatingCallbackListIFvPN5views18WidgetFadeAnimatorENS4_8FadeTypeEEEEE6NotifyIJS5_S6_EEEvDpOT_ = comdat any

$_ZN4base8internal16CallbackListBaseINS_21RepeatingCallbackListIFvPN5views18WidgetFadeAnimatorENS4_8FadeTypeEEEEE3AddENS_17RepeatingCallbackIS7_EE = comdat any

$_ZN4base8internal16CallbackListBaseINS_21RepeatingCallbackListIFvPN5views18WidgetFadeAnimatorENS4_8FadeTypeEEEEE6NotifyIJS5_RKS6_EEEvDpOT_ = comdat any

$_ZN3gfx17AnimationDelegate17AnimationCanceledEPKNS_9AnimationE = comdat any

$_ZN5views22AnimationDelegateViews28AnimationContainerProgressedEPN3gfx18AnimationContainerE = comdat any

$_ZN5views22AnimationDelegateViews23AnimationContainerEmptyEPN3gfx18AnimationContainerE = comdat any

$_ZN5views12ViewObserver16OnChildViewAddedEPNS_4ViewES2_ = comdat any

$_ZN5views12ViewObserver18OnChildViewRemovedEPNS_4ViewES2_ = comdat any

$_ZN5views12ViewObserver23OnViewVisibilityChangedEPNS_4ViewES2_ = comdat any

$_ZN5views12ViewObserver26OnViewPreferredSizeChangedEPNS_4ViewE = comdat any

$_ZN5views12ViewObserver19OnViewBoundsChangedEPNS_4ViewE = comdat any

$_ZN5views12ViewObserver26OnLayerTargetBoundsChangedEPNS_4ViewE = comdat any

$_ZN5views12ViewObserver22OnViewLayerTransformedEPNS_4ViewE = comdat any

$_ZN5views12ViewObserver22OnViewHierarchyChangedEPNS_4ViewERKNS_27ViewHierarchyChangedDetailsE = comdat any

$_ZN5views12ViewObserver20OnChildViewReorderedEPNS_4ViewES2_ = comdat any

$_ZN5views12ViewObserver18OnViewThemeChangedEPNS_4ViewE = comdat any

$_ZN5views12ViewObserver13OnViewFocusedEPNS_4ViewE = comdat any

$_ZN5views12ViewObserver13OnViewBlurredEPNS_4ViewE = comdat any

$_ZThn16_N5views22AnimationDelegateViews28AnimationContainerProgressedEPN3gfx18AnimationContainerE = comdat any

$_ZThn16_N5views22AnimationDelegateViews23AnimationContainerEmptyEPN3gfx18AnimationContainerE = comdat any

$_ZN5views14WidgetObserver15OnWidgetCreatedEPNS_6WidgetE = comdat any

$_ZN5views14WidgetObserver18OnWidgetDestroyingEPNS_6WidgetE = comdat any

$_ZN5views14WidgetObserver17OnWidgetDestroyedEPNS_6WidgetE = comdat any

$_ZN5views14WidgetObserver21OnWidgetDragWillStartEPNS_6WidgetE = comdat any

$_ZN5views14WidgetObserver20OnWidgetDragCompleteEPNS_6WidgetE = comdat any

$_ZN5views14WidgetObserver26OnWidgetVisibilityChangingEPNS_6WidgetEb = comdat any

$_ZN5views14WidgetObserver25OnWidgetVisibilityChangedEPNS_6WidgetEb = comdat any

$_ZN5views14WidgetObserver25OnWidgetActivationChangedEPNS_6WidgetEb = comdat any

$_ZN5views14WidgetObserver21OnWidgetBoundsChangedEPNS_6WidgetERKN3gfx4RectE = comdat any

$_ZN5views14WidgetObserver20OnWidgetThemeChangedEPNS_6WidgetE = comdat any

$_ZZN7logging15CheckOpValueStrIPN5views6WidgetEEENSt3__19enable_ifIXaasr4base8internal23SupportsOstreamOperatorIRKT_EE5valuentsr3std11is_functionINS4_14remove_pointerIS6_E4typeEEE5valueEPcE4typeES8_ENUlRNS4_13basic_ostreamIcNS4_11char_traitsIcEEEEPKvE_8__invokeESJ_SL_ = comdat any

$_ZNSt3__14listIN4base17RepeatingCallbackIFvPN5views18WidgetFadeAnimatorENS4_8FadeTypeEEEENS_9allocatorIS8_EEE9remove_ifIZNS1_8internal16CallbackListBaseINS1_21RepeatingCallbackListIS7_EEE6NotifyIJS5_S6_EEEvDpOT_EUlTyRKT_E_EEvSM_ = comdat any

$_ZN4base8internal16CallbackListBaseINS_21RepeatingCallbackListIFvPN5views18WidgetFadeAnimatorENS4_8FadeTypeEEEEE14CancelCallbackERKNSt3__115__list_iteratorINS_17RepeatingCallbackIS7_EEPvEE = comdat any

$_ZN4base8internal7InvokerINS0_9BindStateIMNS0_16CallbackListBaseINS_21RepeatingCallbackListIFvPN5views18WidgetFadeAnimatorENS6_8FadeTypeEEEEEEFvRKNSt3__115__list_iteratorINS_17RepeatingCallbackIS9_EEPvEEEJNS_7WeakPtrISB_EESH_EEEFvvEE7RunOnceEPNS0_13BindStateBaseE = comdat any

$_ZN4base8internal9BindStateIMNS0_16CallbackListBaseINS_21RepeatingCallbackListIFvPN5views18WidgetFadeAnimatorENS5_8FadeTypeEEEEEEFvRKNSt3__115__list_iteratorINS_17RepeatingCallbackIS8_EEPvEEEJNS_7WeakPtrISA_EESG_EE7DestroyEPKNS0_13BindStateBaseE = comdat any

$_ZN4base8internal23QueryCancellationTraitsINS0_9BindStateIMNS0_16CallbackListBaseINS_21RepeatingCallbackListIFvPN5views18WidgetFadeAnimatorENS6_8FadeTypeEEEEEEFvRKNSt3__115__list_iteratorINS_17RepeatingCallbackIS9_EEPvEEEJNS_7WeakPtrISB_EESH_EEEEEbPKNS0_13BindStateBaseENSP_21CancellationQueryModeE = comdat any

$_ZNSt3__14listIN4base17RepeatingCallbackIFvPN5views18WidgetFadeAnimatorENS4_8FadeTypeEEEENS_9allocatorIS8_EEE9remove_ifIZNS1_8internal16CallbackListBaseINS1_21RepeatingCallbackListIS7_EEE6NotifyIJS5_RKS6_EEEvDpOT_EUlTyRKT_E_EEvSO_ = comdat any

@_ZTVN5views18WidgetFadeAnimatorE = hidden unnamed_addr constant { [16 x i8*], [19 x i8*], [7 x i8*], [15 x i8*] } { [16 x i8*] [i8* null, i8* null, i8* bitcast (void (%"class.views::WidgetFadeAnimator"*)* @_ZN5views18WidgetFadeAnimatorD2Ev to i8*), i8* bitcast (void (%"class.views::WidgetFadeAnimator"*)* @_ZN5views18WidgetFadeAnimatorD0Ev to i8*), i8* bitcast (void (%"class.views::WidgetFadeAnimator"*, %"class.gfx::Animation"*)* @_ZN5views18WidgetFadeAnimator14AnimationEndedEPKN3gfx9AnimationE to i8*), i8* bitcast (void (%"class.views::WidgetFadeAnimator"*, %"class.gfx::Animation"*)* @_ZN5views18WidgetFadeAnimator19AnimationProgressedEPKN3gfx9AnimationE to i8*), i8* bitcast (void (%"class.gfx::AnimationDelegate"*, %"class.gfx::Animation"*)* @_ZN3gfx17AnimationDelegate17AnimationCanceledEPKNS_9AnimationE to i8*), i8* bitcast (void (%"class.views::AnimationDelegateViews"*, %"class.gfx::AnimationContainer"*)* @_ZN5views22AnimationDelegateViews24AnimationContainerWasSetEPN3gfx18AnimationContainerE to i8*), i8* bitcast (void (%"class.views::AnimationDelegateViews"*, %"class.views::View"*)* @_ZN5views22AnimationDelegateViews19OnViewAddedToWidgetEPNS_4ViewE to i8*), i8* bitcast (void (%"class.views::AnimationDelegateViews"*, %"class.views::View"*)* @_ZN5views22AnimationDelegateViews23OnViewRemovedFromWidgetEPNS_4ViewE to i8*), i8* bitcast (void (%"class.views::AnimationDelegateViews"*, %"class.views::View"*)* @_ZN5views22AnimationDelegateViews16OnViewIsDeletingEPNS_4ViewE to i8*), i8* bitcast (void (%"class.views::AnimationDelegateViews"*, %"class.gfx::AnimationContainer"*)* @_ZN5views22AnimationDelegateViews28AnimationContainerProgressedEPN3gfx18AnimationContainerE to i8*), i8* bitcast (void (%"class.views::AnimationDelegateViews"*, %"class.gfx::AnimationContainer"*)* @_ZN5views22AnimationDelegateViews23AnimationContainerEmptyEPN3gfx18AnimationContainerE to i8*), i8* bitcast (void (%"class.views::AnimationDelegateViews"*, %"class.gfx::AnimationContainer"*)* @_ZN5views22AnimationDelegateViews30AnimationContainerShuttingDownEPN3gfx18AnimationContainerE to i8*), i8* bitcast (i64 (%"class.views::AnimationDelegateViews"*)* @_ZNK5views22AnimationDelegateViews32GetAnimationDurationForReportingEv to i8*), i8* bitcast (void (%"class.views::WidgetFadeAnimator"*, %"class.views::Widget"*)* @_ZN5views18WidgetFadeAnimator15OnWidgetClosingEPNS_6WidgetE to i8*)], [19 x i8*] [i8* inttoptr (i64 -8 to i8*), i8* null, i8* bitcast (void (%"class.views::ViewObserver"*, %"class.views::View"*, %"class.views::View"*)* @_ZN5views12ViewObserver16OnChildViewAddedEPNS_4ViewES2_ to i8*), i8* bitcast (void (%"class.views::ViewObserver"*, %"class.views::View"*, %"class.views::View"*)* @_ZN5views12ViewObserver18OnChildViewRemovedEPNS_4ViewES2_ to i8*), i8* bitcast (void (%"class.views::ViewObserver"*, %"class.views::View"*, %"class.views::View"*)* @_ZN5views12ViewObserver23OnViewVisibilityChangedEPNS_4ViewES2_ to i8*), i8* bitcast (void (%"class.views::ViewObserver"*, %"class.views::View"*)* @_ZN5views12ViewObserver26OnViewPreferredSizeChangedEPNS_4ViewE to i8*), i8* bitcast (void (%"class.views::ViewObserver"*, %"class.views::View"*)* @_ZN5views12ViewObserver19OnViewBoundsChangedEPNS_4ViewE to i8*), i8* bitcast (void (%"class.views::ViewObserver"*, %"class.views::View"*)* @_ZN5views12ViewObserver26OnLayerTargetBoundsChangedEPNS_4ViewE to i8*), i8* bitcast (void (%"class.views::ViewObserver"*, %"class.views::View"*)* @_ZN5views12ViewObserver22OnViewLayerTransformedEPNS_4ViewE to i8*), i8* bitcast (void (%"class.views::ViewObserver"*, %"class.views::View"*, %"struct.views::ViewHierarchyChangedDetails"*)* @_ZN5views12ViewObserver22OnViewHierarchyChangedEPNS_4ViewERKNS_27ViewHierarchyChangedDetailsE to i8*), i8* bitcast (void (%"class.views::AnimationDelegateViews"*, %"class.views::View"*)* @_ZThn8_N5views22AnimationDelegateViews19OnViewAddedToWidgetEPNS_4ViewE to i8*), i8* bitcast (void (%"class.views::AnimationDelegateViews"*, %"class.views::View"*)* @_ZThn8_N5views22AnimationDelegateViews23OnViewRemovedFromWidgetEPNS_4ViewE to i8*), i8* bitcast (void (%"class.views::ViewObserver"*, %"class.views::View"*, %"class.views::View"*)* @_ZN5views12ViewObserver20OnChildViewReorderedEPNS_4ViewES2_ to i8*), i8* bitcast (void (%"class.views::ViewObserver"*, %"class.views::View"*)* @_ZN5views12ViewObserver18OnViewThemeChangedEPNS_4ViewE to i8*), i8* bitcast (void (%"class.views::AnimationDelegateViews"*, %"class.views::View"*)* @_ZThn8_N5views22AnimationDelegateViews16OnViewIsDeletingEPNS_4ViewE to i8*), i8* bitcast (void (%"class.views::ViewObserver"*, %"class.views::View"*)* @_ZN5views12ViewObserver13OnViewFocusedEPNS_4ViewE to i8*), i8* bitcast (void (%"class.views::ViewObserver"*, %"class.views::View"*)* @_ZN5views12ViewObserver13OnViewBlurredEPNS_4ViewE to i8*), i8* bitcast (void (%"class.views::WidgetFadeAnimator"*)* @_ZThn8_N5views18WidgetFadeAnimatorD1Ev to i8*), i8* bitcast (void (%"class.views::WidgetFadeAnimator"*)* @_ZThn8_N5views18WidgetFadeAnimatorD0Ev to i8*)], [7 x i8*] [i8* inttoptr (i64 -16 to i8*), i8* null, i8* bitcast (void (%"class.views::AnimationDelegateViews"*, %"class.gfx::AnimationContainer"*)* @_ZThn16_N5views22AnimationDelegateViews28AnimationContainerProgressedEPN3gfx18AnimationContainerE to i8*), i8* bitcast (void (%"class.views::AnimationDelegateViews"*, %"class.gfx::AnimationContainer"*)* @_ZThn16_N5views22AnimationDelegateViews23AnimationContainerEmptyEPN3gfx18AnimationContainerE to i8*), i8* bitcast (void (%"class.views::AnimationDelegateViews"*, %"class.gfx::AnimationContainer"*)* @_ZThn16_N5views22AnimationDelegateViews30AnimationContainerShuttingDownEPN3gfx18AnimationContainerE to i8*), i8* bitcast (void (%"class.views::WidgetFadeAnimator"*)* @_ZThn16_N5views18WidgetFadeAnimatorD1Ev to i8*), i8* bitcast (void (%"class.views::WidgetFadeAnimator"*)* @_ZThn16_N5views18WidgetFadeAnimatorD0Ev to i8*)], [15 x i8*] [i8* inttoptr (i64 -64 to i8*), i8* null, i8* bitcast (void (%"class.views::WidgetFadeAnimator"*)* @_ZThn64_N5views18WidgetFadeAnimatorD1Ev to i8*), i8* bitcast (void (%"class.views::WidgetFadeAnimator"*)* @_ZThn64_N5views18WidgetFadeAnimatorD0Ev to i8*), i8* bitcast (void (%"class.views::WidgetFadeAnimator"*, %"class.views::Widget"*)* @_ZThn64_N5views18WidgetFadeAnimator15OnWidgetClosingEPNS_6WidgetE to i8*), i8* bitcast (void (%"class.views::WidgetObserver"*, %"class.views::Widget"*)* @_ZN5views14WidgetObserver15OnWidgetCreatedEPNS_6WidgetE to i8*), i8* bitcast (void (%"class.views::WidgetObserver"*, %"class.views::Widget"*)* @_ZN5views14WidgetObserver18OnWidgetDestroyingEPNS_6WidgetE to i8*), i8* bitcast (void (%"class.views::WidgetObserver"*, %"class.views::Widget"*)* @_ZN5views14WidgetObserver17OnWidgetDestroyedEPNS_6WidgetE to i8*), i8* bitcast (void (%"class.views::WidgetObserver"*, %"class.views::Widget"*)* @_ZN5views14WidgetObserver21OnWidgetDragWillStartEPNS_6WidgetE to i8*), i8* bitcast (void (%"class.views::WidgetObserver"*, %"class.views::Widget"*)* @_ZN5views14WidgetObserver20OnWidgetDragCompleteEPNS_6WidgetE to i8*), i8* bitcast (void (%"class.views::WidgetObserver"*, %"class.views::Widget"*, i1)* @_ZN5views14WidgetObserver26OnWidgetVisibilityChangingEPNS_6WidgetEb to i8*), i8* bitcast (void (%"class.views::WidgetObserver"*, %"class.views::Widget"*, i1)* @_ZN5views14WidgetObserver25OnWidgetVisibilityChangedEPNS_6WidgetEb to i8*), i8* bitcast (void (%"class.views::WidgetObserver"*, %"class.views::Widget"*, i1)* @_ZN5views14WidgetObserver25OnWidgetActivationChangedEPNS_6WidgetEb to i8*), i8* bitcast (void (%"class.views::WidgetObserver"*, %"class.views::Widget"*, %"class.gfx::Rect"*)* @_ZN5views14WidgetObserver21OnWidgetBoundsChangedEPNS_6WidgetERKN3gfx4RectE to i8*), i8* bitcast (void (%"class.views::WidgetObserver"*, %"class.views::Widget"*)* @_ZN5views14WidgetObserver20OnWidgetThemeChangedEPNS_6WidgetE to i8*)] }, align 8
@_ZN3gfx15LinearAnimation17kDefaultFrameRateE = external local_unnamed_addr constant i32, align 4
@.str = private unnamed_addr constant [27 x i8] c"../../base/callback_list.h\00", align 1
@.str.1 = private unnamed_addr constant [12 x i8] c"!iterating_\00", align 1
@.str.2 = private unnamed_addr constant [19 x i8] c"source_ == nullptr\00", align 1
@.str.3 = private unnamed_addr constant [32 x i8] c"../../base/scoped_observation.h\00", align 1
@.str.4 = private unnamed_addr constant [29 x i8] c"../../base/memory/weak_ptr.h\00", align 1
@.str.5 = private unnamed_addr constant [15 x i8] c"ref_.IsValid()\00", align 1

@_ZN5views18WidgetFadeAnimatorC1EPNS_6WidgetE = hidden unnamed_addr alias void (%"class.views::WidgetFadeAnimator"*, %"class.views::Widget"*), void (%"class.views::WidgetFadeAnimator"*, %"class.views::Widget"*)* @_ZN5views18WidgetFadeAnimatorC2EPNS_6WidgetE
@_ZN5views18WidgetFadeAnimatorD1Ev = hidden unnamed_addr alias void (%"class.views::WidgetFadeAnimator"*), void (%"class.views::WidgetFadeAnimator"*)* @_ZN5views18WidgetFadeAnimatorD2Ev

; Function Attrs: nounwind ssp uwtable
define hidden void @_ZN5views18WidgetFadeAnimatorC2EPNS_6WidgetE(%"class.views::WidgetFadeAnimator"*, %"class.views::Widget"*) unnamed_addr #0 align 2 {
  %3 = getelementptr inbounds %"class.views::WidgetFadeAnimator", %"class.views::WidgetFadeAnimator"* %0, i64 0, i32 0
  %4 = tail call %"class.views::View"* @_ZN5views6Widget11GetRootViewEv(%"class.views::Widget"* %1) #7
  tail call void @_ZN5views22AnimationDelegateViewsC2EPNS_4ViewE(%"class.views::AnimationDelegateViews"* %3, %"class.views::View"* %4) #7
  %5 = getelementptr inbounds %"class.views::WidgetFadeAnimator", %"class.views::WidgetFadeAnimator"* %0, i64 0, i32 1
  %6 = getelementptr inbounds %"class.views::WidgetObserver", %"class.views::WidgetObserver"* %5, i64 0, i32 0
  tail call void @_ZN4base15CheckedObserverC2Ev(%"class.base::CheckedObserver"* %6) #7
  %7 = getelementptr inbounds %"class.views::WidgetObserver", %"class.views::WidgetObserver"* %5, i64 0, i32 0, i32 0
  %8 = bitcast %"class.views::WidgetFadeAnimator"* %0 to <2 x i32 (...)**>*
  store <2 x i32 (...)**> <i32 (...)** bitcast (i8** getelementptr inbounds ({ [16 x i8*], [19 x i8*], [7 x i8*], [15 x i8*] }, { [16 x i8*], [19 x i8*], [7 x i8*], [15 x i8*] }* @_ZTVN5views18WidgetFadeAnimatorE, i64 0, inrange i32 0, i64 2) to i32 (...)**), i32 (...)** bitcast (i8** getelementptr inbounds ({ [16 x i8*], [19 x i8*], [7 x i8*], [15 x i8*] }, { [16 x i8*], [19 x i8*], [7 x i8*], [15 x i8*] }* @_ZTVN5views18WidgetFadeAnimatorE, i64 0, inrange i32 1, i64 2) to i32 (...)**)>, <2 x i32 (...)**>* %8, align 8
  %9 = getelementptr inbounds %"class.views::WidgetFadeAnimator", %"class.views::WidgetFadeAnimator"* %0, i64 0, i32 0, i32 2, i32 0
  store i32 (...)** bitcast (i8** getelementptr inbounds ({ [16 x i8*], [19 x i8*], [7 x i8*], [15 x i8*] }, { [16 x i8*], [19 x i8*], [7 x i8*], [15 x i8*] }* @_ZTVN5views18WidgetFadeAnimatorE, i64 0, inrange i32 2, i64 2) to i32 (...)**), i32 (...)*** %9, align 8
  store i32 (...)** bitcast (i8** getelementptr inbounds ({ [16 x i8*], [19 x i8*], [7 x i8*], [15 x i8*] }, { [16 x i8*], [19 x i8*], [7 x i8*], [15 x i8*] }* @_ZTVN5views18WidgetFadeAnimatorE, i64 0, inrange i32 3, i64 2) to i32 (...)**), i32 (...)*** %7, align 8
  %10 = getelementptr inbounds %"class.views::WidgetFadeAnimator", %"class.views::WidgetFadeAnimator"* %0, i64 0, i32 2
  store %"class.views::Widget"* %1, %"class.views::Widget"** %10, align 8
  %11 = getelementptr inbounds %"class.views::WidgetFadeAnimator", %"class.views::WidgetFadeAnimator"* %0, i64 0, i32 3
  %12 = getelementptr inbounds %"class.base::ScopedObservation.236", %"class.base::ScopedObservation.236"* %11, i64 0, i32 0
  store %"class.views::WidgetObserver"* %5, %"class.views::WidgetObserver"** %12, align 8
  %13 = getelementptr inbounds %"class.views::WidgetFadeAnimator", %"class.views::WidgetFadeAnimator"* %0, i64 0, i32 3, i32 1
  store %"class.views::Widget"* null, %"class.views::Widget"** %13, align 8
  %14 = getelementptr inbounds %"class.views::WidgetFadeAnimator", %"class.views::WidgetFadeAnimator"* %0, i64 0, i32 4
  %15 = getelementptr inbounds %"class.views::WidgetFadeAnimator", %"class.views::WidgetFadeAnimator"* %0, i64 0, i32 0, i32 0
  %16 = load i32, i32* @_ZN3gfx15LinearAnimation17kDefaultFrameRateE, align 4
  tail call void @_ZN3gfx15LinearAnimationC1EPNS_17AnimationDelegateEi(%"class.gfx::LinearAnimation"* %14, %"class.gfx::AnimationDelegate"* %15, i32 %16) #7
  %17 = getelementptr inbounds %"class.views::WidgetFadeAnimator", %"class.views::WidgetFadeAnimator"* %0, i64 0, i32 5
  store i32 0, i32* %17, align 8
  %18 = getelementptr inbounds %"class.views::WidgetFadeAnimator", %"class.views::WidgetFadeAnimator"* %0, i64 0, i32 6, i32 0
  %19 = bitcast i64* %18 to <2 x i64>*
  store <2 x i64> <i64 200000, i64 150000>, <2 x i64>* %19, align 8
  %20 = getelementptr inbounds %"class.views::WidgetFadeAnimator", %"class.views::WidgetFadeAnimator"* %0, i64 0, i32 8
  store i32 10, i32* %20, align 8
  %21 = getelementptr inbounds %"class.views::WidgetFadeAnimator", %"class.views::WidgetFadeAnimator"* %0, i64 0, i32 9
  store i8 0, i8* %21, align 4
  %22 = getelementptr inbounds %"class.views::WidgetFadeAnimator", %"class.views::WidgetFadeAnimator"* %0, i64 0, i32 10
  %23 = getelementptr inbounds %"class.base::RepeatingCallbackList.238", %"class.base::RepeatingCallbackList.238"* %22, i64 0, i32 0, i32 0, i32 0, i32 0
  %24 = getelementptr inbounds %"class.base::RepeatingCallbackList.238", %"class.base::RepeatingCallbackList.238"* %22, i64 0, i32 0, i32 0, i32 0, i32 0, i32 0
  store %"struct.std::__1::__list_node_base.242"* %23, %"struct.std::__1::__list_node_base.242"** %24, align 8
  %25 = getelementptr inbounds %"class.views::WidgetFadeAnimator", %"class.views::WidgetFadeAnimator"* %0, i64 0, i32 10, i32 0, i32 0, i32 0, i32 0, i32 1
  store %"struct.std::__1::__list_node_base.242"* %23, %"struct.std::__1::__list_node_base.242"** %25, align 8
  %26 = getelementptr inbounds %"class.views::WidgetFadeAnimator", %"class.views::WidgetFadeAnimator"* %0, i64 0, i32 10, i32 0, i32 0, i32 0, i32 1, i32 0, i32 0
  store i64 0, i64* %26, align 8
  %27 = getelementptr inbounds %"class.views::WidgetFadeAnimator", %"class.views::WidgetFadeAnimator"* %0, i64 0, i32 10, i32 0, i32 1
  store i8 0, i8* %27, align 8
  %28 = getelementptr inbounds %"class.views::WidgetFadeAnimator", %"class.views::WidgetFadeAnimator"* %0, i64 0, i32 10, i32 0, i32 2, i32 0, i32 0, i32 0, i32 0
  store %"class.base::internal::BindStateBase"* null, %"class.base::internal::BindStateBase"** %28, align 8
  %29 = getelementptr inbounds %"class.views::WidgetFadeAnimator", %"class.views::WidgetFadeAnimator"* %0, i64 0, i32 10, i32 0, i32 3, i32 0
  %30 = ptrtoint %"class.base::RepeatingCallbackList.238"* %22 to i64
  tail call void @_ZN4base8internal18WeakPtrFactoryBaseC2Em(%"class.base::internal::WeakPtrFactoryBase"* %29, i64 %30) #7
  tail call void @_ZN4base17ScopedObservationIN5views6WidgetENS1_14WidgetObserverEXadL_ZNS2_11AddObserverEPS3_EEXadL_ZNS2_14RemoveObserverES4_EEE7ObserveEPS2_(%"class.base::ScopedObservation.236"* %11, %"class.views::Widget"* %1)
  ret void
}

declare %"class.views::View"* @_ZN5views6Widget11GetRootViewEv(%"class.views::Widget"*) local_unnamed_addr #1

declare void @_ZN5views22AnimationDelegateViewsC2EPNS_4ViewE(%"class.views::AnimationDelegateViews"*, %"class.views::View"*) unnamed_addr #1

declare void @_ZN3gfx15LinearAnimationC1EPNS_17AnimationDelegateEi(%"class.gfx::LinearAnimation"*, %"class.gfx::AnimationDelegate"*, i32) unnamed_addr #1

; Function Attrs: nounwind ssp uwtable
define linkonce_odr hidden void @_ZN4base17ScopedObservationIN5views6WidgetENS1_14WidgetObserverEXadL_ZNS2_11AddObserverEPS3_EEXadL_ZNS2_14RemoveObserverES4_EEE7ObserveEPS2_(%"class.base::ScopedObservation.236"*, %"class.views::Widget"*) local_unnamed_addr #0 comdat align 2 {
  %3 = alloca %"class.logging::CheckOpResult", align 8
  %4 = alloca %"class.logging::CheckOpResult", align 8
  %5 = alloca %"class.logging::CheckError", align 8
  %6 = bitcast %"class.logging::CheckOpResult"* %4 to i8*
  call void @llvm.lifetime.start.p0i8(i64 8, i8* nonnull %6) #7
  %7 = getelementptr inbounds %"class.logging::CheckOpResult", %"class.logging::CheckOpResult"* %4, i64 0, i32 0
  store i8* inttoptr (i64 -6148914691236517206 to i8*), i8** %7, align 8
  %8 = getelementptr inbounds %"class.base::ScopedObservation.236", %"class.base::ScopedObservation.236"* %0, i64 0, i32 1
  %9 = bitcast %"class.logging::CheckOpResult"* %3 to i8*
  call void @llvm.lifetime.start.p0i8(i64 8, i8* nonnull %9)
  %10 = load %"class.views::Widget"*, %"class.views::Widget"** %8, align 8
  %11 = icmp eq %"class.views::Widget"* %10, null
  br i1 %11, label %12, label %13

12:                                               ; preds = %2
  call void @llvm.lifetime.end.p0i8(i64 8, i8* nonnull %9)
  store i8* null, i8** %7, align 8
  br label %23

13:                                               ; preds = %2
  %14 = bitcast %"class.views::Widget"** %8 to i8*
  %15 = tail call i8* @_ZN7logging14StreamValToStrEPKvPFvRNSt3__113basic_ostreamIcNS2_11char_traitsIcEEEES1_E(i8* %14, void (%"class.std::__1::basic_ostream"*, i8*)* nonnull @_ZZN7logging15CheckOpValueStrIPN5views6WidgetEEENSt3__19enable_ifIXaasr4base8internal23SupportsOstreamOperatorIRKT_EE5valuentsr3std11is_functionINS4_14remove_pointerIS6_E4typeEEE5valueEPcE4typeES8_ENUlRNS4_13basic_ostreamIcNS4_11char_traitsIcEEEEPKvE_8__invokeESJ_SL_) #7
  %16 = tail call i8* @_ZN7logging15CheckOpValueStrEDn(i8* null) #7
  call void @_ZN7logging13CheckOpResultC1EPKcPcS3_(%"class.logging::CheckOpResult"* nonnull %3, i8* getelementptr inbounds ([19 x i8], [19 x i8]* @.str.2, i64 0, i64 0), i8* %15, i8* %16) #7
  %17 = getelementptr inbounds %"class.logging::CheckOpResult", %"class.logging::CheckOpResult"* %3, i64 0, i32 0
  %18 = load i8*, i8** %17, align 8
  call void @llvm.lifetime.end.p0i8(i64 8, i8* nonnull %9)
  store i8* %18, i8** %7, align 8
  %19 = icmp eq i8* %18, null
  br i1 %19, label %23, label %20

20:                                               ; preds = %13
  %21 = bitcast %"class.logging::CheckError"* %5 to i8*
  call void @llvm.lifetime.start.p0i8(i64 8, i8* nonnull %21) #7
  call void @_ZN7logging10CheckError7CheckOpEPKciPNS_13CheckOpResultE(%"class.logging::CheckError"* nonnull sret %5, i8* getelementptr inbounds ([32 x i8], [32 x i8]* @.str.3, i64 0, i64 0), i32 61, %"class.logging::CheckOpResult"* nonnull %4) #7
  %22 = call dereferenceable(160) %"class.std::__1::basic_ostream"* @_ZN7logging10CheckError6streamEv(%"class.logging::CheckError"* nonnull %5) #7
  call void @_ZN7logging10CheckErrorD1Ev(%"class.logging::CheckError"* nonnull %5) #7
  call void @llvm.lifetime.end.p0i8(i64 8, i8* nonnull %21) #7
  br label %23

23:                                               ; preds = %12, %13, %20
  call void @llvm.lifetime.end.p0i8(i64 8, i8* nonnull %6) #7
  store %"class.views::Widget"* %1, %"class.views::Widget"** %8, align 8
  %24 = getelementptr inbounds %"class.base::ScopedObservation.236", %"class.base::ScopedObservation.236"* %0, i64 0, i32 0
  %25 = load %"class.views::WidgetObserver"*, %"class.views::WidgetObserver"** %24, align 8
  call void @_ZN5views6Widget11AddObserverEPNS_14WidgetObserverE(%"class.views::Widget"* %1, %"class.views::WidgetObserver"* %25) #7
  ret void
}

; Function Attrs: nounwind ssp uwtable
define hidden void @_ZN5views18WidgetFadeAnimatorD2Ev(%"class.views::WidgetFadeAnimator"*) unnamed_addr #0 align 2 {
  %2 = bitcast %"class.views::WidgetFadeAnimator"* %0 to <2 x i32 (...)**>*
  store <2 x i32 (...)**> <i32 (...)** bitcast (i8** getelementptr inbounds ({ [16 x i8*], [19 x i8*], [7 x i8*], [15 x i8*] }, { [16 x i8*], [19 x i8*], [7 x i8*], [15 x i8*] }* @_ZTVN5views18WidgetFadeAnimatorE, i64 0, inrange i32 0, i64 2) to i32 (...)**), i32 (...)** bitcast (i8** getelementptr inbounds ({ [16 x i8*], [19 x i8*], [7 x i8*], [15 x i8*] }, { [16 x i8*], [19 x i8*], [7 x i8*], [15 x i8*] }* @_ZTVN5views18WidgetFadeAnimatorE, i64 0, inrange i32 1, i64 2) to i32 (...)**)>, <2 x i32 (...)**>* %2, align 8
  %3 = getelementptr inbounds %"class.views::WidgetFadeAnimator", %"class.views::WidgetFadeAnimator"* %0, i64 0, i32 0, i32 2, i32 0
  store i32 (...)** bitcast (i8** getelementptr inbounds ({ [16 x i8*], [19 x i8*], [7 x i8*], [15 x i8*] }, { [16 x i8*], [19 x i8*], [7 x i8*], [15 x i8*] }* @_ZTVN5views18WidgetFadeAnimatorE, i64 0, inrange i32 2, i64 2) to i32 (...)**), i32 (...)*** %3, align 8
  %4 = getelementptr inbounds %"class.views::WidgetFadeAnimator", %"class.views::WidgetFadeAnimator"* %0, i64 0, i32 1
  %5 = getelementptr inbounds %"class.views::WidgetObserver", %"class.views::WidgetObserver"* %4, i64 0, i32 0, i32 0
  store i32 (...)** bitcast (i8** getelementptr inbounds ({ [16 x i8*], [19 x i8*], [7 x i8*], [15 x i8*] }, { [16 x i8*], [19 x i8*], [7 x i8*], [15 x i8*] }* @_ZTVN5views18WidgetFadeAnimatorE, i64 0, inrange i32 3, i64 2) to i32 (...)**), i32 (...)*** %5, align 8
  %6 = getelementptr inbounds %"class.views::WidgetFadeAnimator", %"class.views::WidgetFadeAnimator"* %0, i64 0, i32 10, i32 0
  tail call void @_ZN4base8internal16CallbackListBaseINS_21RepeatingCallbackListIFvPN5views18WidgetFadeAnimatorENS4_8FadeTypeEEEEED2Ev(%"class.base::internal::CallbackListBase.239"* %6) #7
  %7 = getelementptr inbounds %"class.views::WidgetFadeAnimator", %"class.views::WidgetFadeAnimator"* %0, i64 0, i32 4, i32 0
  tail call void @_ZN3gfx9AnimationD2Ev(%"class.gfx::Animation"* %7) #7
  %8 = getelementptr inbounds %"class.views::WidgetFadeAnimator", %"class.views::WidgetFadeAnimator"* %0, i64 0, i32 3, i32 1
  %9 = load %"class.views::Widget"*, %"class.views::Widget"** %8, align 8
  %10 = icmp eq %"class.views::Widget"* %9, null
  br i1 %10, label %14, label %11

11:                                               ; preds = %1
  %12 = getelementptr inbounds %"class.views::WidgetFadeAnimator", %"class.views::WidgetFadeAnimator"* %0, i64 0, i32 3, i32 0
  %13 = load %"class.views::WidgetObserver"*, %"class.views::WidgetObserver"** %12, align 8
  tail call void @_ZN5views6Widget14RemoveObserverEPNS_14WidgetObserverE(%"class.views::Widget"* nonnull %9, %"class.views::WidgetObserver"* %13) #7
  store %"class.views::Widget"* null, %"class.views::Widget"** %8, align 8
  br label %14

14:                                               ; preds = %1, %11
  %15 = getelementptr inbounds %"class.views::WidgetObserver", %"class.views::WidgetObserver"* %4, i64 0, i32 0
  tail call void @_ZN4base15CheckedObserverD2Ev(%"class.base::CheckedObserver"* %15) #7
  %16 = getelementptr inbounds %"class.views::WidgetFadeAnimator", %"class.views::WidgetFadeAnimator"* %0, i64 0, i32 0
  tail call void @_ZN5views22AnimationDelegateViewsD2Ev(%"class.views::AnimationDelegateViews"* %16) #7
  ret void
}

; Function Attrs: nounwind ssp uwtable
define linkonce_odr hidden void @_ZN4base8internal16CallbackListBaseINS_21RepeatingCallbackListIFvPN5views18WidgetFadeAnimatorENS4_8FadeTypeEEEEED2Ev(%"class.base::internal::CallbackListBase.239"*) unnamed_addr #0 comdat align 2 {
  %2 = alloca %"class.logging::CheckError", align 8
  %3 = getelementptr inbounds %"class.base::internal::CallbackListBase.239", %"class.base::internal::CallbackListBase.239"* %0, i64 0, i32 1
  %4 = load i8, i8* %3, align 8, !range !2
  %5 = icmp eq i8 %4, 0
  br i1 %5, label %9, label %6

6:                                                ; preds = %1
  %7 = bitcast %"class.logging::CheckError"* %2 to i8*
  call void @llvm.lifetime.start.p0i8(i64 8, i8* nonnull %7) #7
  call void @_ZN7logging10CheckError5CheckEPKciS2_(%"class.logging::CheckError"* nonnull sret %2, i8* getelementptr inbounds ([27 x i8], [27 x i8]* @.str, i64 0, i64 0), i32 148, i8* getelementptr inbounds ([12 x i8], [12 x i8]* @.str.1, i64 0, i64 0)) #7
  %8 = call dereferenceable(160) %"class.std::__1::basic_ostream"* @_ZN7logging10CheckError6streamEv(%"class.logging::CheckError"* nonnull %2) #7
  call void @_ZN7logging10CheckErrorD1Ev(%"class.logging::CheckError"* nonnull %2) #7
  call void @llvm.lifetime.end.p0i8(i64 8, i8* nonnull %7) #7
  br label %9

9:                                                ; preds = %1, %6
  %10 = getelementptr inbounds %"class.base::internal::CallbackListBase.239", %"class.base::internal::CallbackListBase.239"* %0, i64 0, i32 3, i32 0
  call void @_ZN4base8internal18WeakPtrFactoryBaseD2Ev(%"class.base::internal::WeakPtrFactoryBase"* %10) #7
  %11 = getelementptr inbounds %"class.base::internal::CallbackListBase.239", %"class.base::internal::CallbackListBase.239"* %0, i64 0, i32 2, i32 0, i32 0
  call void @_ZN4base8internal12CallbackBaseD2Ev(%"class.base::internal::CallbackBase"* %11) #7
  %12 = getelementptr inbounds %"class.base::internal::CallbackListBase.239", %"class.base::internal::CallbackListBase.239"* %0, i64 0, i32 0, i32 0, i32 1, i32 0, i32 0
  %13 = load i64, i64* %12, align 8
  %14 = icmp eq i64 %13, 0
  br i1 %14, label %41, label %15

15:                                               ; preds = %9
  %16 = getelementptr inbounds %"class.base::internal::CallbackListBase.239", %"class.base::internal::CallbackListBase.239"* %0, i64 0, i32 0, i32 0, i32 0, i32 1
  %17 = load %"struct.std::__1::__list_node_base.242"*, %"struct.std::__1::__list_node_base.242"** %16, align 8
  %18 = getelementptr inbounds %"class.base::internal::CallbackListBase.239", %"class.base::internal::CallbackListBase.239"* %0, i64 0, i32 0, i32 0, i32 0
  %19 = getelementptr inbounds %"class.base::internal::CallbackListBase.239", %"class.base::internal::CallbackListBase.239"* %0, i64 0, i32 0, i32 0, i32 0, i32 0
  %20 = load %"struct.std::__1::__list_node_base.242"*, %"struct.std::__1::__list_node_base.242"** %19, align 8
  %21 = getelementptr inbounds %"struct.std::__1::__list_node_base.242", %"struct.std::__1::__list_node_base.242"* %20, i64 0, i32 1
  %22 = bitcast %"struct.std::__1::__list_node_base.242"** %21 to i64*
  %23 = load i64, i64* %22, align 8
  %24 = getelementptr inbounds %"struct.std::__1::__list_node_base.242", %"struct.std::__1::__list_node_base.242"* %17, i64 0, i32 0
  %25 = load %"struct.std::__1::__list_node_base.242"*, %"struct.std::__1::__list_node_base.242"** %24, align 8
  %26 = getelementptr inbounds %"struct.std::__1::__list_node_base.242", %"struct.std::__1::__list_node_base.242"* %25, i64 0, i32 1
  %27 = bitcast %"struct.std::__1::__list_node_base.242"** %26 to i64*
  store i64 %23, i64* %27, align 8
  %28 = bitcast %"struct.std::__1::__list_node_base.242"* %17 to i64*
  %29 = load i64, i64* %28, align 8
  %30 = bitcast %"struct.std::__1::__list_node_base.242"** %21 to i64**
  %31 = load i64*, i64** %30, align 8
  store i64 %29, i64* %31, align 8
  store i64 0, i64* %12, align 8
  %32 = icmp eq %"struct.std::__1::__list_node_base.242"* %17, %18
  br i1 %32, label %41, label %33

33:                                               ; preds = %15, %33
  %34 = phi %"struct.std::__1::__list_node_base.242"* [ %36, %33 ], [ %17, %15 ]
  %35 = getelementptr inbounds %"struct.std::__1::__list_node_base.242", %"struct.std::__1::__list_node_base.242"* %34, i64 0, i32 1
  %36 = load %"struct.std::__1::__list_node_base.242"*, %"struct.std::__1::__list_node_base.242"** %35, align 8
  %37 = getelementptr inbounds %"struct.std::__1::__list_node_base.242", %"struct.std::__1::__list_node_base.242"* %34, i64 1
  %38 = bitcast %"struct.std::__1::__list_node_base.242"* %37 to %"class.base::internal::CallbackBase"*
  call void @_ZN4base8internal12CallbackBaseD2Ev(%"class.base::internal::CallbackBase"* %38) #7
  %39 = bitcast %"struct.std::__1::__list_node_base.242"* %34 to i8*
  call void @_ZdlPv(i8* %39) #8
  %40 = icmp eq %"struct.std::__1::__list_node_base.242"* %36, %18
  br i1 %40, label %41, label %33

41:                                               ; preds = %33, %9, %15
  ret void
}

; Function Attrs: nounwind
declare void @_ZN3gfx9AnimationD2Ev(%"class.gfx::Animation"*) unnamed_addr #2

; Function Attrs: nounwind
declare void @_ZN5views22AnimationDelegateViewsD2Ev(%"class.views::AnimationDelegateViews"*) unnamed_addr #2

; Function Attrs: nounwind ssp uwtable
define hidden void @_ZThn8_N5views18WidgetFadeAnimatorD1Ev(%"class.views::WidgetFadeAnimator"*) unnamed_addr #0 align 2 {
  %2 = getelementptr inbounds %"class.views::WidgetFadeAnimator", %"class.views::WidgetFadeAnimator"* %0, i64 -1, i32 10, i32 0, i32 3, i32 0, i32 1
  %3 = bitcast i64* %2 to <2 x i32 (...)**>*
  store <2 x i32 (...)**> <i32 (...)** bitcast (i8** getelementptr inbounds ({ [16 x i8*], [19 x i8*], [7 x i8*], [15 x i8*] }, { [16 x i8*], [19 x i8*], [7 x i8*], [15 x i8*] }* @_ZTVN5views18WidgetFadeAnimatorE, i64 0, inrange i32 0, i64 2) to i32 (...)**), i32 (...)** bitcast (i8** getelementptr inbounds ({ [16 x i8*], [19 x i8*], [7 x i8*], [15 x i8*] }, { [16 x i8*], [19 x i8*], [7 x i8*], [15 x i8*] }* @_ZTVN5views18WidgetFadeAnimatorE, i64 0, inrange i32 1, i64 2) to i32 (...)**)>, <2 x i32 (...)**>* %3, align 8
  %4 = getelementptr inbounds i64, i64* %2, i64 2
  %5 = bitcast i64* %4 to i32 (...)***
  store i32 (...)** bitcast (i8** getelementptr inbounds ({ [16 x i8*], [19 x i8*], [7 x i8*], [15 x i8*] }, { [16 x i8*], [19 x i8*], [7 x i8*], [15 x i8*] }* @_ZTVN5views18WidgetFadeAnimatorE, i64 0, inrange i32 2, i64 2) to i32 (...)**), i32 (...)*** %5, align 8
  %6 = getelementptr inbounds i64, i64* %2, i64 8
  %7 = bitcast i64* %6 to i32 (...)***
  store i32 (...)** bitcast (i8** getelementptr inbounds ({ [16 x i8*], [19 x i8*], [7 x i8*], [15 x i8*] }, { [16 x i8*], [19 x i8*], [7 x i8*], [15 x i8*] }* @_ZTVN5views18WidgetFadeAnimatorE, i64 0, inrange i32 3, i64 2) to i32 (...)**), i32 (...)*** %7, align 8
  %8 = getelementptr inbounds i64, i64* %2, i64 27
  %9 = bitcast i64* %8 to %"class.base::internal::CallbackListBase.239"*
  tail call void @_ZN4base8internal16CallbackListBaseINS_21RepeatingCallbackListIFvPN5views18WidgetFadeAnimatorENS4_8FadeTypeEEEEED2Ev(%"class.base::internal::CallbackListBase.239"* %9) #7
  %10 = getelementptr inbounds i64, i64* %2, i64 14
  %11 = bitcast i64* %10 to %"class.gfx::Animation"*
  tail call void @_ZN3gfx9AnimationD2Ev(%"class.gfx::Animation"* %11) #7
  %12 = getelementptr inbounds i64, i64* %2, i64 13
  %13 = bitcast i64* %12 to %"class.views::Widget"**
  %14 = load %"class.views::Widget"*, %"class.views::Widget"** %13, align 8
  %15 = icmp eq %"class.views::Widget"* %14, null
  br i1 %15, label %20, label %16

16:                                               ; preds = %1
  %17 = getelementptr inbounds i64, i64* %2, i64 12
  %18 = bitcast i64* %17 to %"class.views::WidgetObserver"**
  %19 = load %"class.views::WidgetObserver"*, %"class.views::WidgetObserver"** %18, align 8
  tail call void @_ZN5views6Widget14RemoveObserverEPNS_14WidgetObserverE(%"class.views::Widget"* nonnull %14, %"class.views::WidgetObserver"* %19) #7
  store %"class.views::Widget"* null, %"class.views::Widget"** %13, align 8
  br label %20

20:                                               ; preds = %1, %16
  %21 = bitcast i64* %6 to %"class.base::CheckedObserver"*
  tail call void @_ZN4base15CheckedObserverD2Ev(%"class.base::CheckedObserver"* %21) #7
  %22 = bitcast i64* %2 to %"class.views::AnimationDelegateViews"*
  tail call void @_ZN5views22AnimationDelegateViewsD2Ev(%"class.views::AnimationDelegateViews"* %22) #7
  ret void
}

; Function Attrs: nounwind ssp uwtable
define hidden void @_ZThn16_N5views18WidgetFadeAnimatorD1Ev(%"class.views::WidgetFadeAnimator"*) unnamed_addr #0 align 2 {
  %2 = getelementptr inbounds %"class.views::WidgetFadeAnimator", %"class.views::WidgetFadeAnimator"* %0, i64 -1, i32 10, i32 0, i32 3
  %3 = bitcast %"class.base::WeakPtrFactory.247"* %2 to <2 x i32 (...)**>*
  store <2 x i32 (...)**> <i32 (...)** bitcast (i8** getelementptr inbounds ({ [16 x i8*], [19 x i8*], [7 x i8*], [15 x i8*] }, { [16 x i8*], [19 x i8*], [7 x i8*], [15 x i8*] }* @_ZTVN5views18WidgetFadeAnimatorE, i64 0, inrange i32 0, i64 2) to i32 (...)**), i32 (...)** bitcast (i8** getelementptr inbounds ({ [16 x i8*], [19 x i8*], [7 x i8*], [15 x i8*] }, { [16 x i8*], [19 x i8*], [7 x i8*], [15 x i8*] }* @_ZTVN5views18WidgetFadeAnimatorE, i64 0, inrange i32 1, i64 2) to i32 (...)**)>, <2 x i32 (...)**>* %3, align 8
  %4 = getelementptr inbounds %"class.base::WeakPtrFactory.247", %"class.base::WeakPtrFactory.247"* %2, i64 1
  %5 = bitcast %"class.base::WeakPtrFactory.247"* %4 to i32 (...)***
  store i32 (...)** bitcast (i8** getelementptr inbounds ({ [16 x i8*], [19 x i8*], [7 x i8*], [15 x i8*] }, { [16 x i8*], [19 x i8*], [7 x i8*], [15 x i8*] }* @_ZTVN5views18WidgetFadeAnimatorE, i64 0, inrange i32 2, i64 2) to i32 (...)**), i32 (...)*** %5, align 8
  %6 = getelementptr inbounds %"class.base::WeakPtrFactory.247", %"class.base::WeakPtrFactory.247"* %2, i64 4
  %7 = bitcast %"class.base::WeakPtrFactory.247"* %6 to i32 (...)***
  store i32 (...)** bitcast (i8** getelementptr inbounds ({ [16 x i8*], [19 x i8*], [7 x i8*], [15 x i8*] }, { [16 x i8*], [19 x i8*], [7 x i8*], [15 x i8*] }* @_ZTVN5views18WidgetFadeAnimatorE, i64 0, inrange i32 3, i64 2) to i32 (...)**), i32 (...)*** %7, align 8
  %8 = getelementptr inbounds %"class.base::WeakPtrFactory.247", %"class.base::WeakPtrFactory.247"* %2, i64 13, i32 0, i32 1
  %9 = bitcast i64* %8 to %"class.base::internal::CallbackListBase.239"*
  tail call void @_ZN4base8internal16CallbackListBaseINS_21RepeatingCallbackListIFvPN5views18WidgetFadeAnimatorENS4_8FadeTypeEEEEED2Ev(%"class.base::internal::CallbackListBase.239"* %9) #7
  %10 = getelementptr inbounds %"class.base::WeakPtrFactory.247", %"class.base::WeakPtrFactory.247"* %2, i64 7
  %11 = bitcast %"class.base::WeakPtrFactory.247"* %10 to %"class.gfx::Animation"*
  tail call void @_ZN3gfx9AnimationD2Ev(%"class.gfx::Animation"* %11) #7
  %12 = getelementptr inbounds %"class.base::WeakPtrFactory.247", %"class.base::WeakPtrFactory.247"* %2, i64 6, i32 0, i32 1
  %13 = bitcast i64* %12 to %"class.views::Widget"**
  %14 = load %"class.views::Widget"*, %"class.views::Widget"** %13, align 8
  %15 = icmp eq %"class.views::Widget"* %14, null
  br i1 %15, label %20, label %16

16:                                               ; preds = %1
  %17 = getelementptr inbounds %"class.base::WeakPtrFactory.247", %"class.base::WeakPtrFactory.247"* %2, i64 6
  %18 = bitcast %"class.base::WeakPtrFactory.247"* %17 to %"class.views::WidgetObserver"**
  %19 = load %"class.views::WidgetObserver"*, %"class.views::WidgetObserver"** %18, align 8
  tail call void @_ZN5views6Widget14RemoveObserverEPNS_14WidgetObserverE(%"class.views::Widget"* nonnull %14, %"class.views::WidgetObserver"* %19) #7
  store %"class.views::Widget"* null, %"class.views::Widget"** %13, align 8
  br label %20

20:                                               ; preds = %1, %16
  %21 = bitcast %"class.base::WeakPtrFactory.247"* %6 to %"class.base::CheckedObserver"*
  tail call void @_ZN4base15CheckedObserverD2Ev(%"class.base::CheckedObserver"* %21) #7
  %22 = bitcast %"class.base::WeakPtrFactory.247"* %2 to %"class.views::AnimationDelegateViews"*
  tail call void @_ZN5views22AnimationDelegateViewsD2Ev(%"class.views::AnimationDelegateViews"* %22) #7
  ret void
}

; Function Attrs: nounwind ssp uwtable
define hidden void @_ZThn64_N5views18WidgetFadeAnimatorD1Ev(%"class.views::WidgetFadeAnimator"*) unnamed_addr #0 align 2 {
  %2 = getelementptr inbounds %"class.views::WidgetFadeAnimator", %"class.views::WidgetFadeAnimator"* %0, i64 -1, i32 8
  %3 = bitcast i32* %2 to <2 x i32 (...)**>*
  store <2 x i32 (...)**> <i32 (...)** bitcast (i8** getelementptr inbounds ({ [16 x i8*], [19 x i8*], [7 x i8*], [15 x i8*] }, { [16 x i8*], [19 x i8*], [7 x i8*], [15 x i8*] }* @_ZTVN5views18WidgetFadeAnimatorE, i64 0, inrange i32 0, i64 2) to i32 (...)**), i32 (...)** bitcast (i8** getelementptr inbounds ({ [16 x i8*], [19 x i8*], [7 x i8*], [15 x i8*] }, { [16 x i8*], [19 x i8*], [7 x i8*], [15 x i8*] }* @_ZTVN5views18WidgetFadeAnimatorE, i64 0, inrange i32 1, i64 2) to i32 (...)**)>, <2 x i32 (...)**>* %3, align 8
  %4 = getelementptr inbounds i32, i32* %2, i64 4
  %5 = bitcast i32* %4 to i32 (...)***
  store i32 (...)** bitcast (i8** getelementptr inbounds ({ [16 x i8*], [19 x i8*], [7 x i8*], [15 x i8*] }, { [16 x i8*], [19 x i8*], [7 x i8*], [15 x i8*] }* @_ZTVN5views18WidgetFadeAnimatorE, i64 0, inrange i32 2, i64 2) to i32 (...)**), i32 (...)*** %5, align 8
  %6 = getelementptr inbounds i32, i32* %2, i64 16
  %7 = bitcast i32* %6 to i32 (...)***
  store i32 (...)** bitcast (i8** getelementptr inbounds ({ [16 x i8*], [19 x i8*], [7 x i8*], [15 x i8*] }, { [16 x i8*], [19 x i8*], [7 x i8*], [15 x i8*] }* @_ZTVN5views18WidgetFadeAnimatorE, i64 0, inrange i32 3, i64 2) to i32 (...)**), i32 (...)*** %7, align 8
  %8 = getelementptr inbounds i32, i32* %2, i64 54
  %9 = bitcast i32* %8 to %"class.base::internal::CallbackListBase.239"*
  tail call void @_ZN4base8internal16CallbackListBaseINS_21RepeatingCallbackListIFvPN5views18WidgetFadeAnimatorENS4_8FadeTypeEEEEED2Ev(%"class.base::internal::CallbackListBase.239"* %9) #7
  %10 = getelementptr inbounds i32, i32* %2, i64 28
  %11 = bitcast i32* %10 to %"class.gfx::Animation"*
  tail call void @_ZN3gfx9AnimationD2Ev(%"class.gfx::Animation"* %11) #7
  %12 = getelementptr inbounds i32, i32* %2, i64 26
  %13 = bitcast i32* %12 to %"class.views::Widget"**
  %14 = load %"class.views::Widget"*, %"class.views::Widget"** %13, align 8
  %15 = icmp eq %"class.views::Widget"* %14, null
  br i1 %15, label %20, label %16

16:                                               ; preds = %1
  %17 = getelementptr inbounds i32, i32* %2, i64 24
  %18 = bitcast i32* %17 to %"class.views::WidgetObserver"**
  %19 = load %"class.views::WidgetObserver"*, %"class.views::WidgetObserver"** %18, align 8
  tail call void @_ZN5views6Widget14RemoveObserverEPNS_14WidgetObserverE(%"class.views::Widget"* nonnull %14, %"class.views::WidgetObserver"* %19) #7
  store %"class.views::Widget"* null, %"class.views::Widget"** %13, align 8
  br label %20

20:                                               ; preds = %1, %16
  %21 = bitcast i32* %6 to %"class.base::CheckedObserver"*
  tail call void @_ZN4base15CheckedObserverD2Ev(%"class.base::CheckedObserver"* %21) #7
  %22 = bitcast i32* %2 to %"class.views::AnimationDelegateViews"*
  tail call void @_ZN5views22AnimationDelegateViewsD2Ev(%"class.views::AnimationDelegateViews"* %22) #7
  ret void
}

; Function Attrs: nounwind ssp uwtable
define hidden void @_ZN5views18WidgetFadeAnimatorD0Ev(%"class.views::WidgetFadeAnimator"*) unnamed_addr #0 align 2 {
  %2 = bitcast %"class.views::WidgetFadeAnimator"* %0 to <2 x i32 (...)**>*
  store <2 x i32 (...)**> <i32 (...)** bitcast (i8** getelementptr inbounds ({ [16 x i8*], [19 x i8*], [7 x i8*], [15 x i8*] }, { [16 x i8*], [19 x i8*], [7 x i8*], [15 x i8*] }* @_ZTVN5views18WidgetFadeAnimatorE, i64 0, inrange i32 0, i64 2) to i32 (...)**), i32 (...)** bitcast (i8** getelementptr inbounds ({ [16 x i8*], [19 x i8*], [7 x i8*], [15 x i8*] }, { [16 x i8*], [19 x i8*], [7 x i8*], [15 x i8*] }* @_ZTVN5views18WidgetFadeAnimatorE, i64 0, inrange i32 1, i64 2) to i32 (...)**)>, <2 x i32 (...)**>* %2, align 8
  %3 = getelementptr inbounds %"class.views::WidgetFadeAnimator", %"class.views::WidgetFadeAnimator"* %0, i64 0, i32 0, i32 2, i32 0
  store i32 (...)** bitcast (i8** getelementptr inbounds ({ [16 x i8*], [19 x i8*], [7 x i8*], [15 x i8*] }, { [16 x i8*], [19 x i8*], [7 x i8*], [15 x i8*] }* @_ZTVN5views18WidgetFadeAnimatorE, i64 0, inrange i32 2, i64 2) to i32 (...)**), i32 (...)*** %3, align 8
  %4 = getelementptr inbounds %"class.views::WidgetFadeAnimator", %"class.views::WidgetFadeAnimator"* %0, i64 0, i32 1
  %5 = getelementptr inbounds %"class.views::WidgetObserver", %"class.views::WidgetObserver"* %4, i64 0, i32 0, i32 0
  store i32 (...)** bitcast (i8** getelementptr inbounds ({ [16 x i8*], [19 x i8*], [7 x i8*], [15 x i8*] }, { [16 x i8*], [19 x i8*], [7 x i8*], [15 x i8*] }* @_ZTVN5views18WidgetFadeAnimatorE, i64 0, inrange i32 3, i64 2) to i32 (...)**), i32 (...)*** %5, align 8
  %6 = getelementptr inbounds %"class.views::WidgetFadeAnimator", %"class.views::WidgetFadeAnimator"* %0, i64 0, i32 10, i32 0
  tail call void @_ZN4base8internal16CallbackListBaseINS_21RepeatingCallbackListIFvPN5views18WidgetFadeAnimatorENS4_8FadeTypeEEEEED2Ev(%"class.base::internal::CallbackListBase.239"* %6) #7
  %7 = getelementptr inbounds %"class.views::WidgetFadeAnimator", %"class.views::WidgetFadeAnimator"* %0, i64 0, i32 4, i32 0
  tail call void @_ZN3gfx9AnimationD2Ev(%"class.gfx::Animation"* %7) #7
  %8 = getelementptr inbounds %"class.views::WidgetFadeAnimator", %"class.views::WidgetFadeAnimator"* %0, i64 0, i32 3, i32 1
  %9 = load %"class.views::Widget"*, %"class.views::Widget"** %8, align 8
  %10 = icmp eq %"class.views::Widget"* %9, null
  br i1 %10, label %14, label %11

11:                                               ; preds = %1
  %12 = getelementptr inbounds %"class.views::WidgetFadeAnimator", %"class.views::WidgetFadeAnimator"* %0, i64 0, i32 3, i32 0
  %13 = load %"class.views::WidgetObserver"*, %"class.views::WidgetObserver"** %12, align 8
  tail call void @_ZN5views6Widget14RemoveObserverEPNS_14WidgetObserverE(%"class.views::Widget"* nonnull %9, %"class.views::WidgetObserver"* %13) #7
  store %"class.views::Widget"* null, %"class.views::Widget"** %8, align 8
  br label %14

14:                                               ; preds = %1, %11
  %15 = getelementptr inbounds %"class.views::WidgetObserver", %"class.views::WidgetObserver"* %4, i64 0, i32 0
  tail call void @_ZN4base15CheckedObserverD2Ev(%"class.base::CheckedObserver"* %15) #7
  %16 = getelementptr inbounds %"class.views::WidgetFadeAnimator", %"class.views::WidgetFadeAnimator"* %0, i64 0, i32 0
  tail call void @_ZN5views22AnimationDelegateViewsD2Ev(%"class.views::AnimationDelegateViews"* %16) #7
  %17 = bitcast %"class.views::WidgetFadeAnimator"* %0 to i8*
  tail call void @_ZdlPv(i8* %17) #8
  ret void
}

; Function Attrs: nobuiltin nounwind
declare void @_ZdlPv(i8*) local_unnamed_addr #3

; Function Attrs: nounwind ssp uwtable
define hidden void @_ZThn8_N5views18WidgetFadeAnimatorD0Ev(%"class.views::WidgetFadeAnimator"*) unnamed_addr #0 align 2 {
  %2 = getelementptr inbounds %"class.views::WidgetFadeAnimator", %"class.views::WidgetFadeAnimator"* %0, i64 -1, i32 10, i32 0, i32 3, i32 0, i32 1
  %3 = bitcast i64* %2 to %"class.views::WidgetFadeAnimator"*
  tail call void @_ZN5views18WidgetFadeAnimatorD0Ev(%"class.views::WidgetFadeAnimator"* %3) #7
  ret void
}

; Function Attrs: nounwind ssp uwtable
define hidden void @_ZThn16_N5views18WidgetFadeAnimatorD0Ev(%"class.views::WidgetFadeAnimator"*) unnamed_addr #0 align 2 {
  %2 = getelementptr inbounds %"class.views::WidgetFadeAnimator", %"class.views::WidgetFadeAnimator"* %0, i64 -1, i32 10, i32 0, i32 3
  %3 = bitcast %"class.base::WeakPtrFactory.247"* %2 to %"class.views::WidgetFadeAnimator"*
  tail call void @_ZN5views18WidgetFadeAnimatorD0Ev(%"class.views::WidgetFadeAnimator"* %3) #7
  ret void
}

; Function Attrs: nounwind ssp uwtable
define hidden void @_ZThn64_N5views18WidgetFadeAnimatorD0Ev(%"class.views::WidgetFadeAnimator"*) unnamed_addr #0 align 2 {
  %2 = getelementptr inbounds %"class.views::WidgetFadeAnimator", %"class.views::WidgetFadeAnimator"* %0, i64 -1, i32 8
  %3 = bitcast i32* %2 to %"class.views::WidgetFadeAnimator"*
  tail call void @_ZN5views18WidgetFadeAnimatorD0Ev(%"class.views::WidgetFadeAnimator"* %3) #7
  ret void
}

; Function Attrs: nounwind ssp uwtable
define hidden void @_ZN5views18WidgetFadeAnimator6FadeInEv(%"class.views::WidgetFadeAnimator"*) local_unnamed_addr #0 align 2 {
  %2 = getelementptr inbounds %"class.views::WidgetFadeAnimator", %"class.views::WidgetFadeAnimator"* %0, i64 0, i32 5
  %3 = load i32, i32* %2, align 8
  %4 = icmp eq i32 %3, 1
  br i1 %4, label %13, label %5

5:                                                ; preds = %1
  store i32 1, i32* %2, align 8
  %6 = getelementptr inbounds %"class.views::WidgetFadeAnimator", %"class.views::WidgetFadeAnimator"* %0, i64 0, i32 4
  %7 = getelementptr inbounds %"class.views::WidgetFadeAnimator", %"class.views::WidgetFadeAnimator"* %0, i64 0, i32 6, i32 0
  %8 = load i64, i64* %7, align 8
  tail call void @_ZN3gfx15LinearAnimation11SetDurationEN4base9TimeDeltaE(%"class.gfx::LinearAnimation"* %6, i64 %8) #7
  %9 = getelementptr inbounds %"class.views::WidgetFadeAnimator", %"class.views::WidgetFadeAnimator"* %0, i64 0, i32 2
  %10 = load %"class.views::Widget"*, %"class.views::Widget"** %9, align 8
  tail call void @_ZN5views6Widget10SetOpacityEf(%"class.views::Widget"* %10, float 0x3F847AE140000000) #7
  %11 = load %"class.views::Widget"*, %"class.views::Widget"** %9, align 8
  tail call void @_ZN5views6Widget4ShowEv(%"class.views::Widget"* %11) #7
  %12 = getelementptr inbounds %"class.gfx::LinearAnimation", %"class.gfx::LinearAnimation"* %6, i64 0, i32 0
  tail call void @_ZN3gfx9Animation5StartEv(%"class.gfx::Animation"* %12) #7
  br label %13

13:                                               ; preds = %1, %5
  ret void
}

declare void @_ZN3gfx15LinearAnimation11SetDurationEN4base9TimeDeltaE(%"class.gfx::LinearAnimation"*, i64) local_unnamed_addr #1

declare void @_ZN5views6Widget10SetOpacityEf(%"class.views::Widget"*, float) local_unnamed_addr #1

declare void @_ZN5views6Widget4ShowEv(%"class.views::Widget"*) local_unnamed_addr #1

declare void @_ZN3gfx9Animation5StartEv(%"class.gfx::Animation"*) local_unnamed_addr #1

; Function Attrs: nounwind ssp uwtable
define hidden void @_ZN5views18WidgetFadeAnimator7FadeOutEv(%"class.views::WidgetFadeAnimator"*) local_unnamed_addr #0 align 2 {
  %2 = alloca %"class.views::WidgetFadeAnimator"*, align 8
  %3 = alloca i32, align 4
  %4 = getelementptr inbounds %"class.views::WidgetFadeAnimator", %"class.views::WidgetFadeAnimator"* %0, i64 0, i32 5
  %5 = load i32, i32* %4, align 8
  %6 = icmp eq i32 %5, 2
  br i1 %6, label %30, label %7

7:                                                ; preds = %1
  %8 = getelementptr inbounds %"class.views::WidgetFadeAnimator", %"class.views::WidgetFadeAnimator"* %0, i64 0, i32 2
  %9 = load %"class.views::Widget"*, %"class.views::Widget"** %8, align 8
  %10 = bitcast %"class.views::Widget"* %9 to i1 (%"class.views::Widget"*)***
  %11 = load i1 (%"class.views::Widget"*)**, i1 (%"class.views::Widget"*)*** %10, align 8
  %12 = getelementptr inbounds i1 (%"class.views::Widget"*)*, i1 (%"class.views::Widget"*)** %11, i64 45
  %13 = load i1 (%"class.views::Widget"*)*, i1 (%"class.views::Widget"*)** %12, align 8
  %14 = tail call zeroext i1 %13(%"class.views::Widget"* %9) #7
  br i1 %14, label %25, label %15

15:                                               ; preds = %7
  %16 = getelementptr inbounds %"class.views::WidgetFadeAnimator", %"class.views::WidgetFadeAnimator"* %0, i64 0, i32 9
  %17 = load i8, i8* %16, align 4, !range !2
  %18 = icmp eq i8 %17, 0
  br i1 %18, label %21, label %19

19:                                               ; preds = %15
  %20 = load %"class.views::Widget"*, %"class.views::Widget"** %8, align 8
  tail call void @_ZN5views6Widget5CloseEv(%"class.views::Widget"* %20) #7
  br label %21

21:                                               ; preds = %15, %19
  %22 = getelementptr inbounds %"class.views::WidgetFadeAnimator", %"class.views::WidgetFadeAnimator"* %0, i64 0, i32 10, i32 0
  %23 = bitcast %"class.views::WidgetFadeAnimator"** %2 to i8*
  call void @llvm.lifetime.start.p0i8(i64 8, i8* nonnull %23) #7
  store %"class.views::WidgetFadeAnimator"* %0, %"class.views::WidgetFadeAnimator"** %2, align 8
  %24 = bitcast i32* %3 to i8*
  call void @llvm.lifetime.start.p0i8(i64 4, i8* nonnull %24) #7
  store i32 2, i32* %3, align 4
  call void @_ZN4base8internal16CallbackListBaseINS_21RepeatingCallbackListIFvPN5views18WidgetFadeAnimatorENS4_8FadeTypeEEEEE6NotifyIJS5_S6_EEEvDpOT_(%"class.base::internal::CallbackListBase.239"* %22, %"class.views::WidgetFadeAnimator"** nonnull dereferenceable(8) %2, i32* nonnull dereferenceable(4) %3)
  call void @llvm.lifetime.end.p0i8(i64 4, i8* nonnull %24) #7
  call void @llvm.lifetime.end.p0i8(i64 8, i8* nonnull %23) #7
  br label %30

25:                                               ; preds = %7
  store i32 2, i32* %4, align 8
  %26 = getelementptr inbounds %"class.views::WidgetFadeAnimator", %"class.views::WidgetFadeAnimator"* %0, i64 0, i32 4
  %27 = getelementptr inbounds %"class.views::WidgetFadeAnimator", %"class.views::WidgetFadeAnimator"* %0, i64 0, i32 7, i32 0
  %28 = load i64, i64* %27, align 8
  tail call void @_ZN3gfx15LinearAnimation11SetDurationEN4base9TimeDeltaE(%"class.gfx::LinearAnimation"* %26, i64 %28) #7
  %29 = getelementptr inbounds %"class.gfx::LinearAnimation", %"class.gfx::LinearAnimation"* %26, i64 0, i32 0
  tail call void @_ZN3gfx9Animation5StartEv(%"class.gfx::Animation"* %29) #7
  br label %30

30:                                               ; preds = %1, %25, %21
  ret void
}

declare void @_ZN5views6Widget5CloseEv(%"class.views::Widget"*) local_unnamed_addr #1

; Function Attrs: nounwind ssp uwtable
define linkonce_odr hidden void @_ZN4base8internal16CallbackListBaseINS_21RepeatingCallbackListIFvPN5views18WidgetFadeAnimatorENS4_8FadeTypeEEEEE6NotifyIJS5_S6_EEEvDpOT_(%"class.base::internal::CallbackListBase.239"*, %"class.views::WidgetFadeAnimator"** dereferenceable(8), i32* dereferenceable(4)) local_unnamed_addr #0 comdat align 2 {
  %4 = getelementptr inbounds %"class.base::internal::CallbackListBase.239", %"class.base::internal::CallbackListBase.239"* %0, i64 0, i32 0, i32 0, i32 0, i32 1
  %5 = load %"struct.std::__1::__list_node_base.242"*, %"struct.std::__1::__list_node_base.242"** %4, align 8
  %6 = getelementptr inbounds %"class.base::internal::CallbackListBase.239", %"class.base::internal::CallbackListBase.239"* %0, i64 0, i32 0, i32 0, i32 0
  %7 = icmp eq %"struct.std::__1::__list_node_base.242"* %5, %6
  br i1 %7, label %93, label %8

8:                                                ; preds = %3
  %9 = ptrtoint %"struct.std::__1::__list_node_base.242"* %5 to i64
  br label %10

10:                                               ; preds = %17, %8
  %11 = phi %"struct.std::__1::__list_node_base.242"* [ %21, %17 ], [ %5, %8 ]
  %12 = phi i64 [ %20, %17 ], [ %9, %8 ]
  %13 = inttoptr i64 %12 to %"struct.std::__1::__list_node"*
  %14 = getelementptr inbounds %"struct.std::__1::__list_node", %"struct.std::__1::__list_node"* %13, i64 0, i32 1, i32 0, i32 0, i32 0, i32 0
  %15 = load %"class.base::internal::BindStateBase"*, %"class.base::internal::BindStateBase"** %14, align 8
  %16 = icmp eq %"class.base::internal::BindStateBase"* %15, null
  br i1 %16, label %17, label %23

17:                                               ; preds = %10
  %18 = getelementptr inbounds %"struct.std::__1::__list_node_base.242", %"struct.std::__1::__list_node_base.242"* %11, i64 0, i32 1
  %19 = bitcast %"struct.std::__1::__list_node_base.242"** %18 to i64*
  %20 = load i64, i64* %19, align 8
  %21 = inttoptr i64 %20 to %"struct.std::__1::__list_node_base.242"*
  %22 = icmp eq %"struct.std::__1::__list_node_base.242"* %6, %21
  br i1 %22, label %93, label %10

23:                                               ; preds = %10
  %24 = getelementptr inbounds %"class.base::internal::CallbackListBase.239", %"class.base::internal::CallbackListBase.239"* %0, i64 0, i32 1
  %25 = load i8, i8* %24, align 1, !range !2
  store i8 1, i8* %24, align 1
  %26 = getelementptr inbounds %"class.base::internal::CallbackListBase.239", %"class.base::internal::CallbackListBase.239"* %0, i64 0, i32 0
  br label %27

27:                                               ; preds = %34, %23
  %28 = phi %"struct.std::__1::__list_node_base.242"* [ %38, %34 ], [ %5, %23 ]
  %29 = phi i64 [ %37, %34 ], [ %9, %23 ]
  %30 = inttoptr i64 %29 to %"struct.std::__1::__list_node"*
  %31 = getelementptr inbounds %"struct.std::__1::__list_node", %"struct.std::__1::__list_node"* %30, i64 0, i32 1, i32 0, i32 0, i32 0, i32 0
  %32 = load %"class.base::internal::BindStateBase"*, %"class.base::internal::BindStateBase"** %31, align 8
  %33 = icmp eq %"class.base::internal::BindStateBase"* %32, null
  br i1 %33, label %34, label %40

34:                                               ; preds = %27
  %35 = getelementptr inbounds %"struct.std::__1::__list_node_base.242", %"struct.std::__1::__list_node_base.242"* %28, i64 0, i32 1
  %36 = bitcast %"struct.std::__1::__list_node_base.242"** %35 to i64*
  %37 = load i64, i64* %36, align 8
  %38 = inttoptr i64 %37 to %"struct.std::__1::__list_node_base.242"*
  %39 = icmp eq %"struct.std::__1::__list_node_base.242"* %6, %38
  br i1 %39, label %42, label %27

40:                                               ; preds = %27
  %41 = icmp eq %"struct.std::__1::__list_node_base.242"* %28, %6
  br i1 %41, label %42, label %50

42:                                               ; preds = %34, %50, %78, %72, %40
  %43 = icmp eq i8* %24, null
  br i1 %43, label %45, label %44

44:                                               ; preds = %42
  store i8 %25, i8* %24, align 1
  br label %47

45:                                               ; preds = %42
  %46 = load i8, i8* null, align 536870912
  br label %47

47:                                               ; preds = %45, %44
  %48 = phi i8 [ %46, %45 ], [ %25, %44 ]
  %49 = icmp eq i8 %48, 0
  br i1 %49, label %80, label %93

50:                                               ; preds = %40, %78
  %51 = phi %"struct.std::__1::__list_node_base.242"* [ %66, %78 ], [ %28, %40 ]
  %52 = getelementptr inbounds %"struct.std::__1::__list_node_base.242", %"struct.std::__1::__list_node_base.242"* %51, i64 0, i32 1
  %53 = bitcast %"struct.std::__1::__list_node_base.242"** %52 to i64*
  %54 = load i64, i64* %53, align 8
  %55 = getelementptr inbounds %"struct.std::__1::__list_node_base.242", %"struct.std::__1::__list_node_base.242"* %51, i64 1
  %56 = load %"class.views::WidgetFadeAnimator"*, %"class.views::WidgetFadeAnimator"** %1, align 8
  %57 = load i32, i32* %2, align 4
  %58 = bitcast %"struct.std::__1::__list_node_base.242"* %55 to %"class.base::internal::BindStateBase"**
  %59 = load %"class.base::internal::BindStateBase"*, %"class.base::internal::BindStateBase"** %58, align 8
  %60 = getelementptr inbounds %"class.base::internal::BindStateBase", %"class.base::internal::BindStateBase"* %59, i64 0, i32 1
  %61 = bitcast void ()** %60 to void (%"class.base::internal::BindStateBase"*, %"class.views::WidgetFadeAnimator"*, i32)**
  %62 = load void (%"class.base::internal::BindStateBase"*, %"class.views::WidgetFadeAnimator"*, i32)*, void (%"class.base::internal::BindStateBase"*, %"class.views::WidgetFadeAnimator"*, i32)** %61, align 8
  tail call void %62(%"class.base::internal::BindStateBase"* %59, %"class.views::WidgetFadeAnimator"* %56, i32 %57) #7
  %63 = inttoptr i64 %54 to %"struct.std::__1::__list_node_base.242"*
  %64 = icmp eq %"struct.std::__1::__list_node_base.242"* %6, %63
  br i1 %64, label %42, label %65

65:                                               ; preds = %50, %72
  %66 = phi %"struct.std::__1::__list_node_base.242"* [ %76, %72 ], [ %63, %50 ]
  %67 = phi i64 [ %75, %72 ], [ %54, %50 ]
  %68 = inttoptr i64 %67 to %"struct.std::__1::__list_node"*
  %69 = getelementptr inbounds %"struct.std::__1::__list_node", %"struct.std::__1::__list_node"* %68, i64 0, i32 1, i32 0, i32 0, i32 0, i32 0
  %70 = load %"class.base::internal::BindStateBase"*, %"class.base::internal::BindStateBase"** %69, align 8
  %71 = icmp eq %"class.base::internal::BindStateBase"* %70, null
  br i1 %71, label %72, label %78

72:                                               ; preds = %65
  %73 = getelementptr inbounds %"struct.std::__1::__list_node_base.242", %"struct.std::__1::__list_node_base.242"* %66, i64 0, i32 1
  %74 = bitcast %"struct.std::__1::__list_node_base.242"** %73 to i64*
  %75 = load i64, i64* %74, align 8
  %76 = inttoptr i64 %75 to %"struct.std::__1::__list_node_base.242"*
  %77 = icmp eq %"struct.std::__1::__list_node_base.242"* %6, %76
  br i1 %77, label %42, label %65

78:                                               ; preds = %65
  %79 = icmp eq %"struct.std::__1::__list_node_base.242"* %66, %6
  br i1 %79, label %42, label %50

80:                                               ; preds = %47
  %81 = getelementptr inbounds %"class.base::internal::CallbackListBase.239", %"class.base::internal::CallbackListBase.239"* %0, i64 0, i32 0, i32 0, i32 1, i32 0, i32 0
  %82 = load i64, i64* %81, align 8
  tail call void @_ZNSt3__14listIN4base17RepeatingCallbackIFvPN5views18WidgetFadeAnimatorENS4_8FadeTypeEEEENS_9allocatorIS8_EEE9remove_ifIZNS1_8internal16CallbackListBaseINS1_21RepeatingCallbackListIS7_EEE6NotifyIJS5_S6_EEEvDpOT_EUlTyRKT_E_EEvSM_(%"class.std::__1::list.240"* %26) #7
  %83 = load i64, i64* %81, align 8
  %84 = getelementptr inbounds %"class.base::internal::CallbackListBase.239", %"class.base::internal::CallbackListBase.239"* %0, i64 0, i32 2, i32 0, i32 0, i32 0, i32 0
  %85 = load %"class.base::internal::BindStateBase"*, %"class.base::internal::BindStateBase"** %84, align 8
  %86 = icmp ne %"class.base::internal::BindStateBase"* %85, null
  %87 = icmp ne i64 %82, %83
  %88 = and i1 %87, %86
  br i1 %88, label %89, label %93

89:                                               ; preds = %80
  %90 = getelementptr inbounds %"class.base::internal::BindStateBase", %"class.base::internal::BindStateBase"* %85, i64 0, i32 1
  %91 = bitcast void ()** %90 to void (%"class.base::internal::BindStateBase"*)**
  %92 = load void (%"class.base::internal::BindStateBase"*)*, void (%"class.base::internal::BindStateBase"*)** %91, align 8
  tail call void %92(%"class.base::internal::BindStateBase"* nonnull %85) #7
  br label %93

93:                                               ; preds = %17, %3, %80, %89, %47
  ret void
}

; Function Attrs: argmemonly nounwind
declare void @llvm.lifetime.start.p0i8(i64 immarg, i8* nocapture) #4

; Function Attrs: argmemonly nounwind
declare void @llvm.lifetime.end.p0i8(i64 immarg, i8* nocapture) #4

; Function Attrs: nounwind ssp uwtable
define hidden void @_ZN5views18WidgetFadeAnimator13CancelFadeOutEv(%"class.views::WidgetFadeAnimator"*) local_unnamed_addr #0 align 2 {
  %2 = getelementptr inbounds %"class.views::WidgetFadeAnimator", %"class.views::WidgetFadeAnimator"* %0, i64 0, i32 5
  %3 = load i32, i32* %2, align 8
  %4 = icmp eq i32 %3, 2
  br i1 %4, label %5, label %9

5:                                                ; preds = %1
  %6 = getelementptr inbounds %"class.views::WidgetFadeAnimator", %"class.views::WidgetFadeAnimator"* %0, i64 0, i32 4, i32 0
  tail call void @_ZN3gfx9Animation4StopEv(%"class.gfx::Animation"* %6) #7
  store i32 0, i32* %2, align 8
  %7 = getelementptr inbounds %"class.views::WidgetFadeAnimator", %"class.views::WidgetFadeAnimator"* %0, i64 0, i32 2
  %8 = load %"class.views::Widget"*, %"class.views::Widget"** %7, align 8
  tail call void @_ZN5views6Widget10SetOpacityEf(%"class.views::Widget"* %8, float 1.000000e+00) #7
  br label %9

9:                                                ; preds = %1, %5
  ret void
}

declare void @_ZN3gfx9Animation4StopEv(%"class.gfx::Animation"*) local_unnamed_addr #1

; Function Attrs: nounwind ssp uwtable
define hidden void @_ZN5views18WidgetFadeAnimator23AddFadeCompleteCallbackEN4base17RepeatingCallbackIFvPS0_NS0_8FadeTypeEEEE(%"class.base::CallbackListSubscription"* noalias sret, %"class.views::WidgetFadeAnimator"*, %"class.base::RepeatingCallback.260"*) local_unnamed_addr #0 align 2 {
  %4 = alloca %"class.base::RepeatingCallback.260", align 8
  %5 = getelementptr inbounds %"class.views::WidgetFadeAnimator", %"class.views::WidgetFadeAnimator"* %1, i64 0, i32 10, i32 0
  %6 = getelementptr inbounds %"class.base::RepeatingCallback.260", %"class.base::RepeatingCallback.260"* %4, i64 0, i32 0
  %7 = getelementptr inbounds %"class.base::RepeatingCallback.260", %"class.base::RepeatingCallback.260"* %2, i64 0, i32 0
  call void @_ZN4base8internal20CallbackBaseCopyableC2ERKS1_(%"class.base::internal::CallbackBaseCopyable"* nonnull %6, %"class.base::internal::CallbackBaseCopyable"* dereferenceable(8) %7) #7
  call void @_ZN4base8internal16CallbackListBaseINS_21RepeatingCallbackListIFvPN5views18WidgetFadeAnimatorENS4_8FadeTypeEEEEE3AddENS_17RepeatingCallbackIS7_EE(%"class.base::CallbackListSubscription"* sret %0, %"class.base::internal::CallbackListBase.239"* %5, %"class.base::RepeatingCallback.260"* nonnull %4)
  %8 = getelementptr inbounds %"class.base::RepeatingCallback.260", %"class.base::RepeatingCallback.260"* %4, i64 0, i32 0, i32 0
  call void @_ZN4base8internal12CallbackBaseD2Ev(%"class.base::internal::CallbackBase"* nonnull %8) #7
  ret void
}

; Function Attrs: nounwind ssp uwtable
define linkonce_odr hidden void @_ZN4base8internal16CallbackListBaseINS_21RepeatingCallbackListIFvPN5views18WidgetFadeAnimatorENS4_8FadeTypeEEEEE3AddENS_17RepeatingCallbackIS7_EE(%"class.base::CallbackListSubscription"* noalias sret, %"class.base::internal::CallbackListBase.239"*, %"class.base::RepeatingCallback.260"*) local_unnamed_addr #0 comdat align 2 {
  %4 = alloca %"class.base::internal::WeakReference", align 8
  %5 = alloca %"class.base::OnceCallback", align 8
  %6 = alloca %"class.base::WeakPtr.272", align 8
  %7 = bitcast %"class.base::WeakPtr.272"* %6 to i8*
  call void @llvm.lifetime.start.p0i8(i64 16, i8* nonnull %7) #7
  %8 = bitcast %"class.base::internal::WeakReference"* %4 to i8*
  call void @llvm.lifetime.start.p0i8(i64 8, i8* nonnull %8) #7, !noalias !3
  %9 = getelementptr inbounds %"class.base::internal::CallbackListBase.239", %"class.base::internal::CallbackListBase.239"* %1, i64 0, i32 3, i32 0, i32 0
  call void @_ZNK4base8internal18WeakReferenceOwner6GetRefEv(%"class.base::internal::WeakReference"* nonnull sret %4, %"class.base::internal::WeakReferenceOwner"* %9) #7, !noalias !3
  %10 = getelementptr inbounds %"class.base::internal::CallbackListBase.239", %"class.base::internal::CallbackListBase.239"* %1, i64 0, i32 3, i32 0, i32 1
  %11 = load i64, i64* %10, align 8, !noalias !3
  %12 = getelementptr inbounds %"class.base::WeakPtr.272", %"class.base::WeakPtr.272"* %6, i64 0, i32 0
  call void @_ZN4base8internal11WeakPtrBaseC2ERKNS0_13WeakReferenceEm(%"class.base::internal::WeakPtrBase"* nonnull %12, %"class.base::internal::WeakReference"* nonnull dereferenceable(8) %4, i64 %11) #7
  call void @_ZN4base8internal13WeakReferenceD1Ev(%"class.base::internal::WeakReference"* nonnull %4) #7
  call void @llvm.lifetime.end.p0i8(i64 8, i8* nonnull %8) #7, !noalias !3
  %13 = getelementptr inbounds %"class.base::internal::CallbackListBase.239", %"class.base::internal::CallbackListBase.239"* %1, i64 0, i32 0, i32 0, i32 0
  %14 = call i8* @_Znwm(i64 24) #8, !noalias !6
  %15 = getelementptr inbounds i8, i8* %14, i64 16
  %16 = getelementptr inbounds %"class.base::RepeatingCallback.260", %"class.base::RepeatingCallback.260"* %2, i64 0, i32 0, i32 0, i32 0, i32 0
  %17 = bitcast %"class.base::RepeatingCallback.260"* %2 to i64*
  %18 = load i64, i64* %17, align 8
  %19 = bitcast i8* %15 to i64*
  store i64 %18, i64* %19, align 8
  store %"class.base::internal::BindStateBase"* null, %"class.base::internal::BindStateBase"** %16, align 8
  %20 = getelementptr inbounds %"class.base::internal::CallbackListBase.239", %"class.base::internal::CallbackListBase.239"* %1, i64 0, i32 0, i32 0, i32 0, i32 0
  %21 = load %"struct.std::__1::__list_node_base.242"*, %"struct.std::__1::__list_node_base.242"** %20, align 8
  %22 = getelementptr inbounds %"struct.std::__1::__list_node_base.242", %"struct.std::__1::__list_node_base.242"* %21, i64 0, i32 1
  %23 = bitcast %"struct.std::__1::__list_node_base.242"** %22 to i8**
  store i8* %14, i8** %23, align 8
  %24 = bitcast %"class.base::internal::CallbackListBase.239"* %1 to i64*
  %25 = load i64, i64* %24, align 8
  %26 = bitcast i8* %14 to i64*
  store i64 %25, i64* %26, align 8
  %27 = bitcast %"class.base::internal::CallbackListBase.239"* %1 to i8**
  store i8* %14, i8** %27, align 8
  %28 = getelementptr inbounds i8, i8* %14, i64 8
  %29 = bitcast i8* %28 to %"struct.std::__1::__list_node_base.242"**
  store %"struct.std::__1::__list_node_base.242"* %13, %"struct.std::__1::__list_node_base.242"** %29, align 8
  %30 = getelementptr inbounds %"class.base::internal::CallbackListBase.239", %"class.base::internal::CallbackListBase.239"* %1, i64 0, i32 0, i32 0, i32 1, i32 0, i32 0
  %31 = load i64, i64* %30, align 8
  %32 = add i64 %31, 1
  store i64 %32, i64* %30, align 8
  %33 = ptrtoint i8* %14 to i64
  %34 = call i8* @_Znwm(i64 72) #8, !noalias !9
  %35 = bitcast i8* %34 to %"class.base::internal::BindStateBase"*
  call void @_ZN4base8internal13BindStateBaseC2EPFvvEPFvPKS1_EPFbS5_NS1_21CancellationQueryModeEE(%"class.base::internal::BindStateBase"* nonnull %35, void ()* bitcast (void (%"class.base::internal::BindStateBase"*)* @_ZN4base8internal7InvokerINS0_9BindStateIMNS0_16CallbackListBaseINS_21RepeatingCallbackListIFvPN5views18WidgetFadeAnimatorENS6_8FadeTypeEEEEEEFvRKNSt3__115__list_iteratorINS_17RepeatingCallbackIS9_EEPvEEEJNS_7WeakPtrISB_EESH_EEEFvvEE7RunOnceEPNS0_13BindStateBaseE to void ()*), void (%"class.base::internal::BindStateBase"*)* nonnull @_ZN4base8internal9BindStateIMNS0_16CallbackListBaseINS_21RepeatingCallbackListIFvPN5views18WidgetFadeAnimatorENS5_8FadeTypeEEEEEEFvRKNSt3__115__list_iteratorINS_17RepeatingCallbackIS8_EEPvEEEJNS_7WeakPtrISA_EESG_EE7DestroyEPKNS0_13BindStateBaseE, i1 (%"class.base::internal::BindStateBase"*, i32)* nonnull @_ZN4base8internal23QueryCancellationTraitsINS0_9BindStateIMNS0_16CallbackListBaseINS_21RepeatingCallbackListIFvPN5views18WidgetFadeAnimatorENS6_8FadeTypeEEEEEEFvRKNSt3__115__list_iteratorINS_17RepeatingCallbackIS9_EEPvEEEJNS_7WeakPtrISB_EESH_EEEEEbPKNS0_13BindStateBaseENSP_21CancellationQueryModeE) #7, !noalias !9
  %36 = getelementptr inbounds i8, i8* %34, i64 32
  %37 = bitcast i8* %36 to <2 x i64>*
  store <2 x i64> <i64 ptrtoint (void (%"class.base::internal::CallbackListBase.239"*, %"class.std::__1::__list_iterator"*)* @_ZN4base8internal16CallbackListBaseINS_21RepeatingCallbackListIFvPN5views18WidgetFadeAnimatorENS4_8FadeTypeEEEEE14CancelCallbackERKNSt3__115__list_iteratorINS_17RepeatingCallbackIS7_EEPvEE to i64), i64 0>, <2 x i64>* %37, align 8, !noalias !9
  %38 = getelementptr inbounds i8, i8* %34, i64 48
  %39 = bitcast i8* %38 to %"class.base::internal::WeakReference"*
  %40 = getelementptr inbounds %"class.base::WeakPtr.272", %"class.base::WeakPtr.272"* %6, i64 0, i32 0, i32 0
  call void @_ZN4base8internal13WeakReferenceC1EOS1_(%"class.base::internal::WeakReference"* %39, %"class.base::internal::WeakReference"* nonnull dereferenceable(8) %40) #7, !noalias !9
  %41 = getelementptr inbounds i8, i8* %34, i64 56
  %42 = bitcast i8* %41 to i64*
  %43 = getelementptr inbounds %"class.base::WeakPtr.272", %"class.base::WeakPtr.272"* %6, i64 0, i32 0, i32 1
  %44 = load i64, i64* %43, align 8, !noalias !9
  store i64 %44, i64* %42, align 8, !noalias !9
  %45 = getelementptr inbounds i8, i8* %34, i64 64
  %46 = bitcast i8* %45 to i64*
  store i64 %33, i64* %46, align 8, !noalias !9
  %47 = bitcast %"class.base::OnceCallback"* %5 to i8**
  store i8* %34, i8** %47, align 8, !alias.scope !9
  call void @_ZN4base24CallbackListSubscriptionC1ENS_12OnceCallbackIFvvEEE(%"class.base::CallbackListSubscription"* %0, %"class.base::OnceCallback"* nonnull %5) #7
  %48 = getelementptr inbounds %"class.base::OnceCallback", %"class.base::OnceCallback"* %5, i64 0, i32 0
  call void @_ZN4base8internal12CallbackBaseD2Ev(%"class.base::internal::CallbackBase"* nonnull %48) #7
  call void @_ZN4base8internal11WeakPtrBaseD2Ev(%"class.base::internal::WeakPtrBase"* nonnull %12) #7
  call void @llvm.lifetime.end.p0i8(i64 16, i8* nonnull %7) #7
  ret void
}

; Function Attrs: nounwind ssp uwtable
define hidden void @_ZN5views18WidgetFadeAnimator19AnimationProgressedEPKN3gfx9AnimationE(%"class.views::WidgetFadeAnimator"* nocapture readonly, %"class.gfx::Animation"*) unnamed_addr #0 align 2 {
  %3 = getelementptr inbounds %"class.views::WidgetFadeAnimator", %"class.views::WidgetFadeAnimator"* %0, i64 0, i32 8
  %4 = load i32, i32* %3, align 8
  %5 = bitcast %"class.gfx::Animation"* %1 to double (%"class.gfx::Animation"*)***
  %6 = load double (%"class.gfx::Animation"*)**, double (%"class.gfx::Animation"*)*** %5, align 8
  %7 = getelementptr inbounds double (%"class.gfx::Animation"*)*, double (%"class.gfx::Animation"*)** %6, i64 5
  %8 = load double (%"class.gfx::Animation"*)*, double (%"class.gfx::Animation"*)** %7, align 8
  %9 = tail call double %8(%"class.gfx::Animation"* %1) #7
  %10 = tail call double @_ZN3gfx5Tween14CalculateValueENS0_4TypeEd(i32 %4, double %9) #7
  %11 = getelementptr inbounds %"class.views::WidgetFadeAnimator", %"class.views::WidgetFadeAnimator"* %0, i64 0, i32 5
  %12 = load i32, i32* %11, align 8
  switch i32 %12, label %17 [
    i32 2, label %13
    i32 1, label %15
  ]

13:                                               ; preds = %2
  %14 = tail call float @_ZN3gfx5Tween17FloatValueBetweenEdff(double %10, float 1.000000e+00, float 0.000000e+00) #7
  br label %17

15:                                               ; preds = %2
  %16 = tail call float @_ZN3gfx5Tween17FloatValueBetweenEdff(double %10, float 0.000000e+00, float 1.000000e+00) #7
  br label %17

17:                                               ; preds = %2, %15, %13
  %18 = phi float [ %14, %13 ], [ %16, %15 ], [ 0.000000e+00, %2 ]
  %19 = load i32, i32* %11, align 8
  %20 = icmp eq i32 %19, 2
  %21 = fcmp oeq float %18, 0.000000e+00
  %22 = and i1 %21, %20
  br i1 %22, label %23, label %31

23:                                               ; preds = %17
  %24 = getelementptr inbounds %"class.views::WidgetFadeAnimator", %"class.views::WidgetFadeAnimator"* %0, i64 0, i32 9
  %25 = load i8, i8* %24, align 4, !range !2
  %26 = icmp eq i8 %25, 0
  %27 = getelementptr inbounds %"class.views::WidgetFadeAnimator", %"class.views::WidgetFadeAnimator"* %0, i64 0, i32 2
  %28 = load %"class.views::Widget"*, %"class.views::Widget"** %27, align 8
  br i1 %26, label %30, label %29

29:                                               ; preds = %23
  tail call void @_ZN5views6Widget5CloseEv(%"class.views::Widget"* %28) #7
  br label %34

30:                                               ; preds = %23
  tail call void @_ZN5views6Widget4HideEv(%"class.views::Widget"* %28) #7
  br label %34

31:                                               ; preds = %17
  %32 = getelementptr inbounds %"class.views::WidgetFadeAnimator", %"class.views::WidgetFadeAnimator"* %0, i64 0, i32 2
  %33 = load %"class.views::Widget"*, %"class.views::Widget"** %32, align 8
  tail call void @_ZN5views6Widget10SetOpacityEf(%"class.views::Widget"* %33, float %18) #7
  br label %34

34:                                               ; preds = %29, %30, %31
  ret void
}

declare double @_ZN3gfx5Tween14CalculateValueENS0_4TypeEd(i32, double) local_unnamed_addr #1

declare float @_ZN3gfx5Tween17FloatValueBetweenEdff(double, float, float) local_unnamed_addr #1

declare void @_ZN5views6Widget4HideEv(%"class.views::Widget"*) local_unnamed_addr #1

; Function Attrs: nounwind ssp uwtable
define hidden void @_ZN5views18WidgetFadeAnimator14AnimationEndedEPKN3gfx9AnimationE(%"class.views::WidgetFadeAnimator"*, %"class.gfx::Animation"*) unnamed_addr #0 align 2 {
  %3 = alloca i32, align 4
  %4 = alloca %"class.views::WidgetFadeAnimator"*, align 8
  %5 = bitcast i32* %3 to i8*
  call void @llvm.lifetime.start.p0i8(i64 4, i8* nonnull %5) #7
  %6 = getelementptr inbounds %"class.views::WidgetFadeAnimator", %"class.views::WidgetFadeAnimator"* %0, i64 0, i32 5
  %7 = load i32, i32* %6, align 8
  store i32 %7, i32* %3, align 4
  %8 = bitcast %"class.views::WidgetFadeAnimator"* %0 to void (%"class.views::WidgetFadeAnimator"*, %"class.gfx::Animation"*)***
  %9 = load void (%"class.views::WidgetFadeAnimator"*, %"class.gfx::Animation"*)**, void (%"class.views::WidgetFadeAnimator"*, %"class.gfx::Animation"*)*** %8, align 8
  %10 = getelementptr inbounds void (%"class.views::WidgetFadeAnimator"*, %"class.gfx::Animation"*)*, void (%"class.views::WidgetFadeAnimator"*, %"class.gfx::Animation"*)** %9, i64 3
  %11 = load void (%"class.views::WidgetFadeAnimator"*, %"class.gfx::Animation"*)*, void (%"class.views::WidgetFadeAnimator"*, %"class.gfx::Animation"*)** %10, align 8
  tail call void %11(%"class.views::WidgetFadeAnimator"* %0, %"class.gfx::Animation"* %1) #7
  store i32 0, i32* %6, align 8
  %12 = getelementptr inbounds %"class.views::WidgetFadeAnimator", %"class.views::WidgetFadeAnimator"* %0, i64 0, i32 10, i32 0
  %13 = bitcast %"class.views::WidgetFadeAnimator"** %4 to i8*
  call void @llvm.lifetime.start.p0i8(i64 8, i8* nonnull %13) #7
  store %"class.views::WidgetFadeAnimator"* %0, %"class.views::WidgetFadeAnimator"** %4, align 8
  call void @_ZN4base8internal16CallbackListBaseINS_21RepeatingCallbackListIFvPN5views18WidgetFadeAnimatorENS4_8FadeTypeEEEEE6NotifyIJS5_RKS6_EEEvDpOT_(%"class.base::internal::CallbackListBase.239"* %12, %"class.views::WidgetFadeAnimator"** nonnull dereferenceable(8) %4, i32* nonnull dereferenceable(4) %3)
  call void @llvm.lifetime.end.p0i8(i64 8, i8* nonnull %13) #7
  call void @llvm.lifetime.end.p0i8(i64 4, i8* nonnull %5) #7
  ret void
}

; Function Attrs: nounwind ssp uwtable
define linkonce_odr hidden void @_ZN4base8internal16CallbackListBaseINS_21RepeatingCallbackListIFvPN5views18WidgetFadeAnimatorENS4_8FadeTypeEEEEE6NotifyIJS5_RKS6_EEEvDpOT_(%"class.base::internal::CallbackListBase.239"*, %"class.views::WidgetFadeAnimator"** dereferenceable(8), i32* dereferenceable(4)) local_unnamed_addr #0 comdat align 2 {
  %4 = getelementptr inbounds %"class.base::internal::CallbackListBase.239", %"class.base::internal::CallbackListBase.239"* %0, i64 0, i32 0, i32 0, i32 0, i32 1
  %5 = load %"struct.std::__1::__list_node_base.242"*, %"struct.std::__1::__list_node_base.242"** %4, align 8
  %6 = getelementptr inbounds %"class.base::internal::CallbackListBase.239", %"class.base::internal::CallbackListBase.239"* %0, i64 0, i32 0, i32 0, i32 0
  %7 = icmp eq %"struct.std::__1::__list_node_base.242"* %5, %6
  br i1 %7, label %93, label %8

8:                                                ; preds = %3
  %9 = ptrtoint %"struct.std::__1::__list_node_base.242"* %5 to i64
  br label %10

10:                                               ; preds = %17, %8
  %11 = phi %"struct.std::__1::__list_node_base.242"* [ %21, %17 ], [ %5, %8 ]
  %12 = phi i64 [ %20, %17 ], [ %9, %8 ]
  %13 = inttoptr i64 %12 to %"struct.std::__1::__list_node"*
  %14 = getelementptr inbounds %"struct.std::__1::__list_node", %"struct.std::__1::__list_node"* %13, i64 0, i32 1, i32 0, i32 0, i32 0, i32 0
  %15 = load %"class.base::internal::BindStateBase"*, %"class.base::internal::BindStateBase"** %14, align 8
  %16 = icmp eq %"class.base::internal::BindStateBase"* %15, null
  br i1 %16, label %17, label %23

17:                                               ; preds = %10
  %18 = getelementptr inbounds %"struct.std::__1::__list_node_base.242", %"struct.std::__1::__list_node_base.242"* %11, i64 0, i32 1
  %19 = bitcast %"struct.std::__1::__list_node_base.242"** %18 to i64*
  %20 = load i64, i64* %19, align 8
  %21 = inttoptr i64 %20 to %"struct.std::__1::__list_node_base.242"*
  %22 = icmp eq %"struct.std::__1::__list_node_base.242"* %6, %21
  br i1 %22, label %93, label %10

23:                                               ; preds = %10
  %24 = getelementptr inbounds %"class.base::internal::CallbackListBase.239", %"class.base::internal::CallbackListBase.239"* %0, i64 0, i32 1
  %25 = load i8, i8* %24, align 1, !range !2
  store i8 1, i8* %24, align 1
  %26 = getelementptr inbounds %"class.base::internal::CallbackListBase.239", %"class.base::internal::CallbackListBase.239"* %0, i64 0, i32 0
  br label %27

27:                                               ; preds = %34, %23
  %28 = phi %"struct.std::__1::__list_node_base.242"* [ %38, %34 ], [ %5, %23 ]
  %29 = phi i64 [ %37, %34 ], [ %9, %23 ]
  %30 = inttoptr i64 %29 to %"struct.std::__1::__list_node"*
  %31 = getelementptr inbounds %"struct.std::__1::__list_node", %"struct.std::__1::__list_node"* %30, i64 0, i32 1, i32 0, i32 0, i32 0, i32 0
  %32 = load %"class.base::internal::BindStateBase"*, %"class.base::internal::BindStateBase"** %31, align 8
  %33 = icmp eq %"class.base::internal::BindStateBase"* %32, null
  br i1 %33, label %34, label %40

34:                                               ; preds = %27
  %35 = getelementptr inbounds %"struct.std::__1::__list_node_base.242", %"struct.std::__1::__list_node_base.242"* %28, i64 0, i32 1
  %36 = bitcast %"struct.std::__1::__list_node_base.242"** %35 to i64*
  %37 = load i64, i64* %36, align 8
  %38 = inttoptr i64 %37 to %"struct.std::__1::__list_node_base.242"*
  %39 = icmp eq %"struct.std::__1::__list_node_base.242"* %6, %38
  br i1 %39, label %42, label %27

40:                                               ; preds = %27
  %41 = icmp eq %"struct.std::__1::__list_node_base.242"* %28, %6
  br i1 %41, label %42, label %50

42:                                               ; preds = %34, %50, %78, %72, %40
  %43 = icmp eq i8* %24, null
  br i1 %43, label %45, label %44

44:                                               ; preds = %42
  store i8 %25, i8* %24, align 1
  br label %47

45:                                               ; preds = %42
  %46 = load i8, i8* null, align 536870912
  br label %47

47:                                               ; preds = %45, %44
  %48 = phi i8 [ %46, %45 ], [ %25, %44 ]
  %49 = icmp eq i8 %48, 0
  br i1 %49, label %80, label %93

50:                                               ; preds = %40, %78
  %51 = phi %"struct.std::__1::__list_node_base.242"* [ %66, %78 ], [ %28, %40 ]
  %52 = getelementptr inbounds %"struct.std::__1::__list_node_base.242", %"struct.std::__1::__list_node_base.242"* %51, i64 0, i32 1
  %53 = bitcast %"struct.std::__1::__list_node_base.242"** %52 to i64*
  %54 = load i64, i64* %53, align 8
  %55 = getelementptr inbounds %"struct.std::__1::__list_node_base.242", %"struct.std::__1::__list_node_base.242"* %51, i64 1
  %56 = load %"class.views::WidgetFadeAnimator"*, %"class.views::WidgetFadeAnimator"** %1, align 8
  %57 = load i32, i32* %2, align 4
  %58 = bitcast %"struct.std::__1::__list_node_base.242"* %55 to %"class.base::internal::BindStateBase"**
  %59 = load %"class.base::internal::BindStateBase"*, %"class.base::internal::BindStateBase"** %58, align 8
  %60 = getelementptr inbounds %"class.base::internal::BindStateBase", %"class.base::internal::BindStateBase"* %59, i64 0, i32 1
  %61 = bitcast void ()** %60 to void (%"class.base::internal::BindStateBase"*, %"class.views::WidgetFadeAnimator"*, i32)**
  %62 = load void (%"class.base::internal::BindStateBase"*, %"class.views::WidgetFadeAnimator"*, i32)*, void (%"class.base::internal::BindStateBase"*, %"class.views::WidgetFadeAnimator"*, i32)** %61, align 8
  tail call void %62(%"class.base::internal::BindStateBase"* %59, %"class.views::WidgetFadeAnimator"* %56, i32 %57) #7
  %63 = inttoptr i64 %54 to %"struct.std::__1::__list_node_base.242"*
  %64 = icmp eq %"struct.std::__1::__list_node_base.242"* %6, %63
  br i1 %64, label %42, label %65

65:                                               ; preds = %50, %72
  %66 = phi %"struct.std::__1::__list_node_base.242"* [ %76, %72 ], [ %63, %50 ]
  %67 = phi i64 [ %75, %72 ], [ %54, %50 ]
  %68 = inttoptr i64 %67 to %"struct.std::__1::__list_node"*
  %69 = getelementptr inbounds %"struct.std::__1::__list_node", %"struct.std::__1::__list_node"* %68, i64 0, i32 1, i32 0, i32 0, i32 0, i32 0
  %70 = load %"class.base::internal::BindStateBase"*, %"class.base::internal::BindStateBase"** %69, align 8
  %71 = icmp eq %"class.base::internal::BindStateBase"* %70, null
  br i1 %71, label %72, label %78

72:                                               ; preds = %65
  %73 = getelementptr inbounds %"struct.std::__1::__list_node_base.242", %"struct.std::__1::__list_node_base.242"* %66, i64 0, i32 1
  %74 = bitcast %"struct.std::__1::__list_node_base.242"** %73 to i64*
  %75 = load i64, i64* %74, align 8
  %76 = inttoptr i64 %75 to %"struct.std::__1::__list_node_base.242"*
  %77 = icmp eq %"struct.std::__1::__list_node_base.242"* %6, %76
  br i1 %77, label %42, label %65

78:                                               ; preds = %65
  %79 = icmp eq %"struct.std::__1::__list_node_base.242"* %66, %6
  br i1 %79, label %42, label %50

80:                                               ; preds = %47
  %81 = getelementptr inbounds %"class.base::internal::CallbackListBase.239", %"class.base::internal::CallbackListBase.239"* %0, i64 0, i32 0, i32 0, i32 1, i32 0, i32 0
  %82 = load i64, i64* %81, align 8
  tail call void @_ZNSt3__14listIN4base17RepeatingCallbackIFvPN5views18WidgetFadeAnimatorENS4_8FadeTypeEEEENS_9allocatorIS8_EEE9remove_ifIZNS1_8internal16CallbackListBaseINS1_21RepeatingCallbackListIS7_EEE6NotifyIJS5_RKS6_EEEvDpOT_EUlTyRKT_E_EEvSO_(%"class.std::__1::list.240"* %26) #7
  %83 = load i64, i64* %81, align 8
  %84 = getelementptr inbounds %"class.base::internal::CallbackListBase.239", %"class.base::internal::CallbackListBase.239"* %0, i64 0, i32 2, i32 0, i32 0, i32 0, i32 0
  %85 = load %"class.base::internal::BindStateBase"*, %"class.base::internal::BindStateBase"** %84, align 8
  %86 = icmp ne %"class.base::internal::BindStateBase"* %85, null
  %87 = icmp ne i64 %82, %83
  %88 = and i1 %87, %86
  br i1 %88, label %89, label %93

89:                                               ; preds = %80
  %90 = getelementptr inbounds %"class.base::internal::BindStateBase", %"class.base::internal::BindStateBase"* %85, i64 0, i32 1
  %91 = bitcast void ()** %90 to void (%"class.base::internal::BindStateBase"*)**
  %92 = load void (%"class.base::internal::BindStateBase"*)*, void (%"class.base::internal::BindStateBase"*)** %91, align 8
  tail call void %92(%"class.base::internal::BindStateBase"* nonnull %85) #7
  br label %93

93:                                               ; preds = %17, %3, %80, %89, %47
  ret void
}

; Function Attrs: nounwind ssp uwtable
define hidden void @_ZN5views18WidgetFadeAnimator15OnWidgetClosingEPNS_6WidgetE(%"class.views::WidgetFadeAnimator"*, %"class.views::Widget"* nocapture readnone) unnamed_addr #0 align 2 {
  %3 = getelementptr inbounds %"class.views::WidgetFadeAnimator", %"class.views::WidgetFadeAnimator"* %0, i64 0, i32 3, i32 1
  %4 = load %"class.views::Widget"*, %"class.views::Widget"** %3, align 8
  %5 = icmp eq %"class.views::Widget"* %4, null
  br i1 %5, label %9, label %6

6:                                                ; preds = %2
  %7 = getelementptr inbounds %"class.views::WidgetFadeAnimator", %"class.views::WidgetFadeAnimator"* %0, i64 0, i32 3, i32 0
  %8 = load %"class.views::WidgetObserver"*, %"class.views::WidgetObserver"** %7, align 8
  tail call void @_ZN5views6Widget14RemoveObserverEPNS_14WidgetObserverE(%"class.views::Widget"* nonnull %4, %"class.views::WidgetObserver"* %8) #7
  store %"class.views::Widget"* null, %"class.views::Widget"** %3, align 8
  br label %9

9:                                                ; preds = %2, %6
  %10 = getelementptr inbounds %"class.views::WidgetFadeAnimator", %"class.views::WidgetFadeAnimator"* %0, i64 0, i32 4
  tail call void @_ZN3gfx15LinearAnimation3EndEv(%"class.gfx::LinearAnimation"* %10) #7
  %11 = getelementptr inbounds %"class.views::WidgetFadeAnimator", %"class.views::WidgetFadeAnimator"* %0, i64 0, i32 5
  store i32 0, i32* %11, align 8
  %12 = getelementptr inbounds %"class.views::WidgetFadeAnimator", %"class.views::WidgetFadeAnimator"* %0, i64 0, i32 2
  store %"class.views::Widget"* null, %"class.views::Widget"** %12, align 8
  ret void
}

declare void @_ZN3gfx15LinearAnimation3EndEv(%"class.gfx::LinearAnimation"*) local_unnamed_addr #1

; Function Attrs: nounwind ssp uwtable
define hidden void @_ZThn64_N5views18WidgetFadeAnimator15OnWidgetClosingEPNS_6WidgetE(%"class.views::WidgetFadeAnimator"*, %"class.views::Widget"* nocapture readnone) unnamed_addr #0 align 2 {
  %3 = getelementptr inbounds %"class.views::WidgetFadeAnimator", %"class.views::WidgetFadeAnimator"* %0, i64 -1, i32 8
  %4 = getelementptr inbounds i32, i32* %3, i64 26
  %5 = bitcast i32* %4 to %"class.views::Widget"**
  %6 = load %"class.views::Widget"*, %"class.views::Widget"** %5, align 8
  %7 = icmp eq %"class.views::Widget"* %6, null
  br i1 %7, label %12, label %8

8:                                                ; preds = %2
  %9 = getelementptr inbounds i32, i32* %3, i64 24
  %10 = bitcast i32* %9 to %"class.views::WidgetObserver"**
  %11 = load %"class.views::WidgetObserver"*, %"class.views::WidgetObserver"** %10, align 8
  tail call void @_ZN5views6Widget14RemoveObserverEPNS_14WidgetObserverE(%"class.views::Widget"* nonnull %6, %"class.views::WidgetObserver"* %11) #7
  store %"class.views::Widget"* null, %"class.views::Widget"** %5, align 8
  br label %12

12:                                               ; preds = %2, %8
  %13 = getelementptr inbounds i32, i32* %3, i64 28
  %14 = bitcast i32* %13 to %"class.gfx::LinearAnimation"*
  tail call void @_ZN3gfx15LinearAnimation3EndEv(%"class.gfx::LinearAnimation"* %14) #7
  %15 = getelementptr inbounds i32, i32* %3, i64 46
  store i32 0, i32* %15, align 8
  %16 = getelementptr inbounds i32, i32* %3, i64 22
  %17 = bitcast i32* %16 to %"class.views::Widget"**
  store %"class.views::Widget"* null, %"class.views::Widget"** %17, align 8
  ret void
}

; Function Attrs: nounwind ssp uwtable
define linkonce_odr hidden void @_ZN3gfx17AnimationDelegate17AnimationCanceledEPKNS_9AnimationE(%"class.gfx::AnimationDelegate"*, %"class.gfx::Animation"*) unnamed_addr #0 comdat align 2 {
  ret void
}

declare void @_ZN5views22AnimationDelegateViews24AnimationContainerWasSetEPN3gfx18AnimationContainerE(%"class.views::AnimationDelegateViews"*, %"class.gfx::AnimationContainer"*) unnamed_addr #1

declare void @_ZN5views22AnimationDelegateViews19OnViewAddedToWidgetEPNS_4ViewE(%"class.views::AnimationDelegateViews"*, %"class.views::View"*) unnamed_addr #1

declare void @_ZN5views22AnimationDelegateViews23OnViewRemovedFromWidgetEPNS_4ViewE(%"class.views::AnimationDelegateViews"*, %"class.views::View"*) unnamed_addr #1

declare void @_ZN5views22AnimationDelegateViews16OnViewIsDeletingEPNS_4ViewE(%"class.views::AnimationDelegateViews"*, %"class.views::View"*) unnamed_addr #1

; Function Attrs: nounwind ssp uwtable
define linkonce_odr hidden void @_ZN5views22AnimationDelegateViews28AnimationContainerProgressedEPN3gfx18AnimationContainerE(%"class.views::AnimationDelegateViews"*, %"class.gfx::AnimationContainer"*) unnamed_addr #0 comdat align 2 {
  ret void
}

; Function Attrs: nounwind ssp uwtable
define linkonce_odr hidden void @_ZN5views22AnimationDelegateViews23AnimationContainerEmptyEPN3gfx18AnimationContainerE(%"class.views::AnimationDelegateViews"*, %"class.gfx::AnimationContainer"*) unnamed_addr #0 comdat align 2 {
  ret void
}

declare void @_ZN5views22AnimationDelegateViews30AnimationContainerShuttingDownEPN3gfx18AnimationContainerE(%"class.views::AnimationDelegateViews"*, %"class.gfx::AnimationContainer"*) unnamed_addr #1

declare i64 @_ZNK5views22AnimationDelegateViews32GetAnimationDurationForReportingEv(%"class.views::AnimationDelegateViews"*) unnamed_addr #1

; Function Attrs: nounwind ssp uwtable
define linkonce_odr hidden void @_ZN5views12ViewObserver16OnChildViewAddedEPNS_4ViewES2_(%"class.views::ViewObserver"*, %"class.views::View"*, %"class.views::View"*) unnamed_addr #0 comdat align 2 {
  ret void
}

; Function Attrs: nounwind ssp uwtable
define linkonce_odr hidden void @_ZN5views12ViewObserver18OnChildViewRemovedEPNS_4ViewES2_(%"class.views::ViewObserver"*, %"class.views::View"*, %"class.views::View"*) unnamed_addr #0 comdat align 2 {
  ret void
}

; Function Attrs: nounwind ssp uwtable
define linkonce_odr hidden void @_ZN5views12ViewObserver23OnViewVisibilityChangedEPNS_4ViewES2_(%"class.views::ViewObserver"*, %"class.views::View"*, %"class.views::View"*) unnamed_addr #0 comdat align 2 {
  ret void
}

; Function Attrs: nounwind ssp uwtable
define linkonce_odr hidden void @_ZN5views12ViewObserver26OnViewPreferredSizeChangedEPNS_4ViewE(%"class.views::ViewObserver"*, %"class.views::View"*) unnamed_addr #0 comdat align 2 {
  ret void
}

; Function Attrs: nounwind ssp uwtable
define linkonce_odr hidden void @_ZN5views12ViewObserver19OnViewBoundsChangedEPNS_4ViewE(%"class.views::ViewObserver"*, %"class.views::View"*) unnamed_addr #0 comdat align 2 {
  ret void
}

; Function Attrs: nounwind ssp uwtable
define linkonce_odr hidden void @_ZN5views12ViewObserver26OnLayerTargetBoundsChangedEPNS_4ViewE(%"class.views::ViewObserver"*, %"class.views::View"*) unnamed_addr #0 comdat align 2 {
  ret void
}

; Function Attrs: nounwind ssp uwtable
define linkonce_odr hidden void @_ZN5views12ViewObserver22OnViewLayerTransformedEPNS_4ViewE(%"class.views::ViewObserver"*, %"class.views::View"*) unnamed_addr #0 comdat align 2 {
  ret void
}

; Function Attrs: nounwind ssp uwtable
define linkonce_odr hidden void @_ZN5views12ViewObserver22OnViewHierarchyChangedEPNS_4ViewERKNS_27ViewHierarchyChangedDetailsE(%"class.views::ViewObserver"*, %"class.views::View"*, %"struct.views::ViewHierarchyChangedDetails"* dereferenceable(32)) unnamed_addr #0 comdat align 2 {
  ret void
}

; Function Attrs: nounwind ssp uwtable
declare void @_ZThn8_N5views22AnimationDelegateViews19OnViewAddedToWidgetEPNS_4ViewE(%"class.views::AnimationDelegateViews"*, %"class.views::View"*) unnamed_addr #0 align 2

; Function Attrs: nounwind ssp uwtable
declare void @_ZThn8_N5views22AnimationDelegateViews23OnViewRemovedFromWidgetEPNS_4ViewE(%"class.views::AnimationDelegateViews"*, %"class.views::View"*) unnamed_addr #0 align 2

; Function Attrs: nounwind ssp uwtable
define linkonce_odr hidden void @_ZN5views12ViewObserver20OnChildViewReorderedEPNS_4ViewES2_(%"class.views::ViewObserver"*, %"class.views::View"*, %"class.views::View"*) unnamed_addr #0 comdat align 2 {
  ret void
}

; Function Attrs: nounwind ssp uwtable
define linkonce_odr hidden void @_ZN5views12ViewObserver18OnViewThemeChangedEPNS_4ViewE(%"class.views::ViewObserver"*, %"class.views::View"*) unnamed_addr #0 comdat align 2 {
  ret void
}

; Function Attrs: nounwind ssp uwtable
declare void @_ZThn8_N5views22AnimationDelegateViews16OnViewIsDeletingEPNS_4ViewE(%"class.views::AnimationDelegateViews"*, %"class.views::View"*) unnamed_addr #0 align 2

; Function Attrs: nounwind ssp uwtable
define linkonce_odr hidden void @_ZN5views12ViewObserver13OnViewFocusedEPNS_4ViewE(%"class.views::ViewObserver"*, %"class.views::View"*) unnamed_addr #0 comdat align 2 {
  ret void
}

; Function Attrs: nounwind ssp uwtable
define linkonce_odr hidden void @_ZN5views12ViewObserver13OnViewBlurredEPNS_4ViewE(%"class.views::ViewObserver"*, %"class.views::View"*) unnamed_addr #0 comdat align 2 {
  ret void
}

; Function Attrs: nounwind ssp uwtable
define linkonce_odr hidden void @_ZThn16_N5views22AnimationDelegateViews28AnimationContainerProgressedEPN3gfx18AnimationContainerE(%"class.views::AnimationDelegateViews"*, %"class.gfx::AnimationContainer"*) unnamed_addr #0 comdat align 2 {
  ret void
}

; Function Attrs: nounwind ssp uwtable
define linkonce_odr hidden void @_ZThn16_N5views22AnimationDelegateViews23AnimationContainerEmptyEPN3gfx18AnimationContainerE(%"class.views::AnimationDelegateViews"*, %"class.gfx::AnimationContainer"*) unnamed_addr #0 comdat align 2 {
  ret void
}

; Function Attrs: nounwind ssp uwtable
declare void @_ZThn16_N5views22AnimationDelegateViews30AnimationContainerShuttingDownEPN3gfx18AnimationContainerE(%"class.views::AnimationDelegateViews"*, %"class.gfx::AnimationContainer"*) unnamed_addr #0 align 2

; Function Attrs: nounwind ssp uwtable
define linkonce_odr hidden void @_ZN5views14WidgetObserver15OnWidgetCreatedEPNS_6WidgetE(%"class.views::WidgetObserver"*, %"class.views::Widget"*) unnamed_addr #0 comdat align 2 {
  ret void
}

; Function Attrs: nounwind ssp uwtable
define linkonce_odr hidden void @_ZN5views14WidgetObserver18OnWidgetDestroyingEPNS_6WidgetE(%"class.views::WidgetObserver"*, %"class.views::Widget"*) unnamed_addr #0 comdat align 2 {
  ret void
}

; Function Attrs: nounwind ssp uwtable
define linkonce_odr hidden void @_ZN5views14WidgetObserver17OnWidgetDestroyedEPNS_6WidgetE(%"class.views::WidgetObserver"*, %"class.views::Widget"*) unnamed_addr #0 comdat align 2 {
  ret void
}

; Function Attrs: nounwind ssp uwtable
define linkonce_odr hidden void @_ZN5views14WidgetObserver21OnWidgetDragWillStartEPNS_6WidgetE(%"class.views::WidgetObserver"*, %"class.views::Widget"*) unnamed_addr #0 comdat align 2 {
  ret void
}

; Function Attrs: nounwind ssp uwtable
define linkonce_odr hidden void @_ZN5views14WidgetObserver20OnWidgetDragCompleteEPNS_6WidgetE(%"class.views::WidgetObserver"*, %"class.views::Widget"*) unnamed_addr #0 comdat align 2 {
  ret void
}

; Function Attrs: nounwind ssp uwtable
define linkonce_odr hidden void @_ZN5views14WidgetObserver26OnWidgetVisibilityChangingEPNS_6WidgetEb(%"class.views::WidgetObserver"*, %"class.views::Widget"*, i1 zeroext) unnamed_addr #0 comdat align 2 {
  ret void
}

; Function Attrs: nounwind ssp uwtable
define linkonce_odr hidden void @_ZN5views14WidgetObserver25OnWidgetVisibilityChangedEPNS_6WidgetEb(%"class.views::WidgetObserver"*, %"class.views::Widget"*, i1 zeroext) unnamed_addr #0 comdat align 2 {
  ret void
}

; Function Attrs: nounwind ssp uwtable
define linkonce_odr hidden void @_ZN5views14WidgetObserver25OnWidgetActivationChangedEPNS_6WidgetEb(%"class.views::WidgetObserver"*, %"class.views::Widget"*, i1 zeroext) unnamed_addr #0 comdat align 2 {
  ret void
}

; Function Attrs: nounwind ssp uwtable
define linkonce_odr hidden void @_ZN5views14WidgetObserver21OnWidgetBoundsChangedEPNS_6WidgetERKN3gfx4RectE(%"class.views::WidgetObserver"*, %"class.views::Widget"*, %"class.gfx::Rect"* dereferenceable(16)) unnamed_addr #0 comdat align 2 {
  ret void
}

; Function Attrs: nounwind ssp uwtable
define linkonce_odr hidden void @_ZN5views14WidgetObserver20OnWidgetThemeChangedEPNS_6WidgetE(%"class.views::WidgetObserver"*, %"class.views::Widget"*) unnamed_addr #0 comdat align 2 {
  ret void
}

declare void @_ZN4base15CheckedObserverC2Ev(%"class.base::CheckedObserver"*) unnamed_addr #1

; Function Attrs: nounwind
declare void @_ZN4base15CheckedObserverD2Ev(%"class.base::CheckedObserver"*) unnamed_addr #2

declare void @_ZN4base8internal18WeakPtrFactoryBaseC2Em(%"class.base::internal::WeakPtrFactoryBase"*, i64) unnamed_addr #1

declare void @_ZN7logging10CheckError5CheckEPKciS2_(%"class.logging::CheckError"* sret, i8*, i32, i8*) local_unnamed_addr #1

declare dereferenceable(160) %"class.std::__1::basic_ostream"* @_ZN7logging10CheckError6streamEv(%"class.logging::CheckError"*) local_unnamed_addr #1

; Function Attrs: nounwind
declare void @_ZN7logging10CheckErrorD1Ev(%"class.logging::CheckError"*) unnamed_addr #2

; Function Attrs: nounwind
declare void @_ZN4base8internal18WeakPtrFactoryBaseD2Ev(%"class.base::internal::WeakPtrFactoryBase"*) unnamed_addr #2

; Function Attrs: nounwind
declare void @_ZN4base8internal12CallbackBaseD2Ev(%"class.base::internal::CallbackBase"*) unnamed_addr #2

declare void @_ZN4base8internal20CallbackBaseCopyableC2ERKS1_(%"class.base::internal::CallbackBaseCopyable"*, %"class.base::internal::CallbackBaseCopyable"* dereferenceable(8)) unnamed_addr #1

declare void @_ZN7logging10CheckError7CheckOpEPKciPNS_13CheckOpResultE(%"class.logging::CheckError"* sret, i8*, i32, %"class.logging::CheckOpResult"*) local_unnamed_addr #1

declare void @_ZN5views6Widget11AddObserverEPNS_14WidgetObserverE(%"class.views::Widget"*, %"class.views::WidgetObserver"*) local_unnamed_addr #1

declare i8* @_ZN7logging15CheckOpValueStrEDn(i8*) local_unnamed_addr #1

declare void @_ZN7logging13CheckOpResultC1EPKcPcS3_(%"class.logging::CheckOpResult"*, i8*, i8*, i8*) unnamed_addr #1

declare i8* @_ZN7logging14StreamValToStrEPKvPFvRNSt3__113basic_ostreamIcNS2_11char_traitsIcEEEES1_E(i8*, void (%"class.std::__1::basic_ostream"*, i8*)*) local_unnamed_addr #1

; Function Attrs: inlinehint nounwind ssp uwtable
define linkonce_odr hidden void @_ZZN7logging15CheckOpValueStrIPN5views6WidgetEEENSt3__19enable_ifIXaasr4base8internal23SupportsOstreamOperatorIRKT_EE5valuentsr3std11is_functionINS4_14remove_pointerIS6_E4typeEEE5valueEPcE4typeES8_ENUlRNS4_13basic_ostreamIcNS4_11char_traitsIcEEEEPKvE_8__invokeESJ_SL_(%"class.std::__1::basic_ostream"* dereferenceable(160), i8*) #5 comdat align 2 {
  %3 = bitcast i8* %1 to i8**
  %4 = load i8*, i8** %3, align 8
  %5 = tail call dereferenceable(160) %"class.std::__1::basic_ostream"* @_ZNSt3__113basic_ostreamIcNS_11char_traitsIcEEElsEPKv(%"class.std::__1::basic_ostream"* %0, i8* %4) #7
  ret void
}

declare dereferenceable(160) %"class.std::__1::basic_ostream"* @_ZNSt3__113basic_ostreamIcNS_11char_traitsIcEEElsEPKv(%"class.std::__1::basic_ostream"*, i8*) local_unnamed_addr #1

; Function Attrs: nounwind ssp uwtable
define linkonce_odr hidden void @_ZNSt3__14listIN4base17RepeatingCallbackIFvPN5views18WidgetFadeAnimatorENS4_8FadeTypeEEEENS_9allocatorIS8_EEE9remove_ifIZNS1_8internal16CallbackListBaseINS1_21RepeatingCallbackListIS7_EEE6NotifyIJS5_S6_EEEvDpOT_EUlTyRKT_E_EEvSM_(%"class.std::__1::list.240"*) local_unnamed_addr #0 comdat align 2 {
  %2 = alloca %"class.std::__1::list.240", align 8
  %3 = bitcast %"class.std::__1::list.240"* %2 to i8*
  call void @llvm.lifetime.start.p0i8(i64 24, i8* nonnull %3) #7
  %4 = getelementptr inbounds %"class.std::__1::list.240", %"class.std::__1::list.240"* %2, i64 0, i32 0, i32 0, i32 0
  %5 = getelementptr inbounds %"class.std::__1::list.240", %"class.std::__1::list.240"* %2, i64 0, i32 0, i32 0, i32 1
  %6 = getelementptr inbounds %"class.std::__1::list.240", %"class.std::__1::list.240"* %2, i64 0, i32 0, i32 1, i32 0, i32 0
  %7 = getelementptr inbounds %"class.std::__1::list.240", %"class.std::__1::list.240"* %2, i64 0, i32 0, i32 0
  store %"struct.std::__1::__list_node_base.242"* %7, %"struct.std::__1::__list_node_base.242"** %4, align 8
  store %"struct.std::__1::__list_node_base.242"* %7, %"struct.std::__1::__list_node_base.242"** %5, align 8
  store i64 0, i64* %6, align 8
  %8 = getelementptr inbounds %"class.std::__1::list.240", %"class.std::__1::list.240"* %0, i64 0, i32 0, i32 0, i32 1
  %9 = bitcast %"struct.std::__1::__list_node_base.242"** %8 to i64*
  %10 = load i64, i64* %9, align 8
  %11 = getelementptr inbounds %"class.std::__1::list.240", %"class.std::__1::list.240"* %0, i64 0, i32 0, i32 0
  %12 = inttoptr i64 %10 to %"struct.std::__1::__list_node_base.242"*
  %13 = icmp eq %"struct.std::__1::__list_node_base.242"* %11, %12
  br i1 %13, label %42, label %14

14:                                               ; preds = %1
  %15 = icmp eq %"class.std::__1::list.240"* %2, %0
  %16 = getelementptr inbounds %"class.std::__1::list.240", %"class.std::__1::list.240"* %0, i64 0, i32 0, i32 1, i32 0, i32 0
  br label %43

17:                                               ; preds = %119
  %18 = load i64, i64* %6, align 8
  %19 = icmp eq i64 %18, 0
  br i1 %19, label %42, label %20

20:                                               ; preds = %17
  %21 = load %"struct.std::__1::__list_node_base.242"*, %"struct.std::__1::__list_node_base.242"** %5, align 8
  %22 = getelementptr inbounds %"struct.std::__1::__list_node_base.242", %"struct.std::__1::__list_node_base.242"* %120, i64 0, i32 1
  %23 = bitcast %"struct.std::__1::__list_node_base.242"** %22 to i64*
  %24 = load i64, i64* %23, align 8
  %25 = getelementptr inbounds %"struct.std::__1::__list_node_base.242", %"struct.std::__1::__list_node_base.242"* %21, i64 0, i32 0
  %26 = load %"struct.std::__1::__list_node_base.242"*, %"struct.std::__1::__list_node_base.242"** %25, align 8
  %27 = getelementptr inbounds %"struct.std::__1::__list_node_base.242", %"struct.std::__1::__list_node_base.242"* %26, i64 0, i32 1
  %28 = bitcast %"struct.std::__1::__list_node_base.242"** %27 to i64*
  store i64 %24, i64* %28, align 8
  %29 = bitcast %"struct.std::__1::__list_node_base.242"* %21 to i64*
  %30 = load i64, i64* %29, align 8
  %31 = bitcast %"struct.std::__1::__list_node_base.242"** %22 to i64**
  %32 = load i64*, i64** %31, align 8
  store i64 %30, i64* %32, align 8
  store i64 0, i64* %6, align 8
  %33 = icmp eq %"struct.std::__1::__list_node_base.242"* %21, %7
  br i1 %33, label %42, label %34

34:                                               ; preds = %20, %34
  %35 = phi %"struct.std::__1::__list_node_base.242"* [ %37, %34 ], [ %21, %20 ]
  %36 = getelementptr inbounds %"struct.std::__1::__list_node_base.242", %"struct.std::__1::__list_node_base.242"* %35, i64 0, i32 1
  %37 = load %"struct.std::__1::__list_node_base.242"*, %"struct.std::__1::__list_node_base.242"** %36, align 8
  %38 = getelementptr inbounds %"struct.std::__1::__list_node_base.242", %"struct.std::__1::__list_node_base.242"* %35, i64 1
  %39 = bitcast %"struct.std::__1::__list_node_base.242"* %38 to %"class.base::internal::CallbackBase"*
  call void @_ZN4base8internal12CallbackBaseD2Ev(%"class.base::internal::CallbackBase"* %39) #7
  %40 = bitcast %"struct.std::__1::__list_node_base.242"* %35 to i8*
  call void @_ZdlPv(i8* %40) #8
  %41 = icmp eq %"struct.std::__1::__list_node_base.242"* %37, %7
  br i1 %41, label %42, label %34

42:                                               ; preds = %34, %1, %17, %20
  call void @llvm.lifetime.end.p0i8(i64 24, i8* nonnull %3) #7
  ret void

43:                                               ; preds = %14, %119
  %44 = phi %"struct.std::__1::__list_node_base.242"* [ %7, %14 ], [ %120, %119 ]
  %45 = phi %"struct.std::__1::__list_node_base.242"* [ %12, %14 ], [ %122, %119 ]
  %46 = phi i64 [ %10, %14 ], [ %121, %119 ]
  %47 = inttoptr i64 %46 to %"struct.std::__1::__list_node"*
  %48 = getelementptr inbounds %"struct.std::__1::__list_node", %"struct.std::__1::__list_node"* %47, i64 0, i32 1, i32 0, i32 0, i32 0, i32 0
  %49 = load %"class.base::internal::BindStateBase"*, %"class.base::internal::BindStateBase"** %48, align 8
  %50 = icmp eq %"class.base::internal::BindStateBase"* %49, null
  %51 = getelementptr inbounds %"struct.std::__1::__list_node_base.242", %"struct.std::__1::__list_node_base.242"* %45, i64 0, i32 1
  %52 = bitcast %"struct.std::__1::__list_node_base.242"** %51 to i64*
  %53 = load i64, i64* %52, align 8
  br i1 %50, label %54, label %119

54:                                               ; preds = %43
  %55 = inttoptr i64 %53 to %"struct.std::__1::__list_node_base.242"*
  %56 = icmp eq %"struct.std::__1::__list_node_base.242"* %11, %55
  br i1 %56, label %70, label %57

57:                                               ; preds = %54, %64
  %58 = phi %"struct.std::__1::__list_node_base.242"* [ %68, %64 ], [ %55, %54 ]
  %59 = phi i64 [ %67, %64 ], [ %53, %54 ]
  %60 = inttoptr i64 %59 to %"struct.std::__1::__list_node"*
  %61 = getelementptr inbounds %"struct.std::__1::__list_node", %"struct.std::__1::__list_node"* %60, i64 0, i32 1, i32 0, i32 0, i32 0, i32 0
  %62 = load %"class.base::internal::BindStateBase"*, %"class.base::internal::BindStateBase"** %61, align 8
  %63 = icmp eq %"class.base::internal::BindStateBase"* %62, null
  br i1 %63, label %64, label %70

64:                                               ; preds = %57
  %65 = getelementptr inbounds %"struct.std::__1::__list_node_base.242", %"struct.std::__1::__list_node_base.242"* %58, i64 0, i32 1
  %66 = bitcast %"struct.std::__1::__list_node_base.242"** %65 to i64*
  %67 = load i64, i64* %66, align 8
  %68 = inttoptr i64 %67 to %"struct.std::__1::__list_node_base.242"*
  %69 = icmp eq %"struct.std::__1::__list_node_base.242"* %11, %68
  br i1 %69, label %70, label %57

70:                                               ; preds = %57, %64, %54
  %71 = phi i64 [ %53, %54 ], [ %59, %57 ], [ %67, %64 ]
  %72 = phi %"struct.std::__1::__list_node_base.242"* [ %11, %54 ], [ %58, %57 ], [ %11, %64 ]
  %73 = phi i1 [ false, %54 ], [ true, %57 ], [ false, %64 ]
  %74 = icmp eq %"struct.std::__1::__list_node_base.242"* %45, %72
  br i1 %74, label %113, label %75

75:                                               ; preds = %70
  %76 = getelementptr inbounds %"struct.std::__1::__list_node_base.242", %"struct.std::__1::__list_node_base.242"* %72, i64 0, i32 0
  %77 = load %"struct.std::__1::__list_node_base.242"*, %"struct.std::__1::__list_node_base.242"** %76, align 8
  br i1 %15, label %98, label %78

78:                                               ; preds = %75
  %79 = icmp eq %"struct.std::__1::__list_node_base.242"* %77, %45
  br i1 %79, label %92, label %80

80:                                               ; preds = %78
  %81 = icmp eq %"struct.std::__1::__list_node_base.242"* %77, %55
  br i1 %81, label %89, label %82

82:                                               ; preds = %80, %82
  %83 = phi i64 [ %85, %82 ], [ 0, %80 ]
  %84 = phi %"struct.std::__1::__list_node_base.242"* [ %87, %82 ], [ %55, %80 ]
  %85 = add nuw nsw i64 %83, 1
  %86 = getelementptr inbounds %"struct.std::__1::__list_node_base.242", %"struct.std::__1::__list_node_base.242"* %84, i64 0, i32 1
  %87 = load %"struct.std::__1::__list_node_base.242"*, %"struct.std::__1::__list_node_base.242"** %86, align 8
  %88 = icmp eq %"struct.std::__1::__list_node_base.242"* %87, %77
  br i1 %88, label %89, label %82

89:                                               ; preds = %82, %80
  %90 = phi i64 [ 0, %80 ], [ %85, %82 ]
  %91 = add nuw i64 %90, 2
  br label %92

92:                                               ; preds = %89, %78
  %93 = phi i64 [ 1, %78 ], [ %91, %89 ]
  %94 = load i64, i64* %16, align 8
  %95 = sub i64 %94, %93
  store i64 %95, i64* %16, align 8
  %96 = load i64, i64* %6, align 8
  %97 = add i64 %96, %93
  store i64 %97, i64* %6, align 8
  br label %98

98:                                               ; preds = %92, %75
  %99 = getelementptr inbounds %"struct.std::__1::__list_node_base.242", %"struct.std::__1::__list_node_base.242"* %77, i64 0, i32 1
  %100 = bitcast %"struct.std::__1::__list_node_base.242"** %99 to i64*
  %101 = load i64, i64* %100, align 8
  %102 = getelementptr inbounds %"struct.std::__1::__list_node_base.242", %"struct.std::__1::__list_node_base.242"* %45, i64 0, i32 0
  %103 = load %"struct.std::__1::__list_node_base.242"*, %"struct.std::__1::__list_node_base.242"** %102, align 8
  %104 = getelementptr inbounds %"struct.std::__1::__list_node_base.242", %"struct.std::__1::__list_node_base.242"* %103, i64 0, i32 1
  %105 = bitcast %"struct.std::__1::__list_node_base.242"** %104 to i64*
  store i64 %101, i64* %105, align 8
  %106 = inttoptr i64 %46 to i64*
  %107 = load i64, i64* %106, align 8
  %108 = bitcast %"struct.std::__1::__list_node_base.242"** %99 to i64**
  %109 = load i64*, i64** %108, align 8
  store i64 %107, i64* %109, align 8
  %110 = load %"struct.std::__1::__list_node_base.242"*, %"struct.std::__1::__list_node_base.242"** %4, align 8
  %111 = getelementptr inbounds %"struct.std::__1::__list_node_base.242", %"struct.std::__1::__list_node_base.242"* %110, i64 0, i32 1
  store %"struct.std::__1::__list_node_base.242"* %45, %"struct.std::__1::__list_node_base.242"** %111, align 8
  %112 = ptrtoint %"struct.std::__1::__list_node_base.242"* %110 to i64
  store i64 %112, i64* %106, align 8
  store %"struct.std::__1::__list_node_base.242"* %77, %"struct.std::__1::__list_node_base.242"** %4, align 8
  store %"struct.std::__1::__list_node_base.242"* %7, %"struct.std::__1::__list_node_base.242"** %99, align 8
  br label %113

113:                                              ; preds = %70, %98
  %114 = phi %"struct.std::__1::__list_node_base.242"* [ %44, %70 ], [ %77, %98 ]
  br i1 %73, label %115, label %119

115:                                              ; preds = %113
  %116 = getelementptr inbounds %"struct.std::__1::__list_node_base.242", %"struct.std::__1::__list_node_base.242"* %72, i64 0, i32 1
  %117 = bitcast %"struct.std::__1::__list_node_base.242"** %116 to i64*
  %118 = load i64, i64* %117, align 8
  br label %119

119:                                              ; preds = %43, %113, %115
  %120 = phi %"struct.std::__1::__list_node_base.242"* [ %114, %115 ], [ %114, %113 ], [ %44, %43 ]
  %121 = phi i64 [ %118, %115 ], [ %71, %113 ], [ %53, %43 ]
  %122 = inttoptr i64 %121 to %"struct.std::__1::__list_node_base.242"*
  %123 = icmp eq %"struct.std::__1::__list_node_base.242"* %11, %122
  br i1 %123, label %17, label %43
}

; Function Attrs: nounwind ssp uwtable
define linkonce_odr hidden void @_ZN4base8internal16CallbackListBaseINS_21RepeatingCallbackListIFvPN5views18WidgetFadeAnimatorENS4_8FadeTypeEEEEE14CancelCallbackERKNSt3__115__list_iteratorINS_17RepeatingCallbackIS7_EEPvEE(%"class.base::internal::CallbackListBase.239"*, %"class.std::__1::__list_iterator"* dereferenceable(8)) #0 comdat align 2 {
  %3 = getelementptr inbounds %"class.base::internal::CallbackListBase.239", %"class.base::internal::CallbackListBase.239"* %0, i64 0, i32 1
  %4 = load i8, i8* %3, align 8, !range !2
  %5 = icmp eq i8 %4, 0
  br i1 %5, label %10, label %6

6:                                                ; preds = %2
  %7 = bitcast %"class.std::__1::__list_iterator"* %1 to %"struct.std::__1::__list_node"**
  %8 = load %"struct.std::__1::__list_node"*, %"struct.std::__1::__list_node"** %7, align 8
  %9 = getelementptr inbounds %"struct.std::__1::__list_node", %"struct.std::__1::__list_node"* %8, i64 0, i32 1, i32 0, i32 0
  tail call void @_ZN4base8internal12CallbackBase5ResetEv(%"class.base::internal::CallbackBase"* %9) #7
  br label %37

10:                                               ; preds = %2
  %11 = getelementptr inbounds %"class.std::__1::__list_iterator", %"class.std::__1::__list_iterator"* %1, i64 0, i32 0
  %12 = load %"struct.std::__1::__list_node_base.242"*, %"struct.std::__1::__list_node_base.242"** %11, align 8
  %13 = getelementptr inbounds %"struct.std::__1::__list_node_base.242", %"struct.std::__1::__list_node_base.242"* %12, i64 0, i32 1
  %14 = bitcast %"struct.std::__1::__list_node_base.242"** %13 to i64*
  %15 = load i64, i64* %14, align 8
  %16 = getelementptr inbounds %"struct.std::__1::__list_node_base.242", %"struct.std::__1::__list_node_base.242"* %12, i64 0, i32 0
  %17 = load %"struct.std::__1::__list_node_base.242"*, %"struct.std::__1::__list_node_base.242"** %16, align 8
  %18 = getelementptr inbounds %"struct.std::__1::__list_node_base.242", %"struct.std::__1::__list_node_base.242"* %17, i64 0, i32 1
  %19 = bitcast %"struct.std::__1::__list_node_base.242"** %18 to i64*
  store i64 %15, i64* %19, align 8
  %20 = bitcast %"struct.std::__1::__list_node_base.242"* %12 to i64*
  %21 = load i64, i64* %20, align 8
  %22 = bitcast %"struct.std::__1::__list_node_base.242"** %13 to i64**
  %23 = load i64*, i64** %22, align 8
  store i64 %21, i64* %23, align 8
  %24 = getelementptr inbounds %"class.base::internal::CallbackListBase.239", %"class.base::internal::CallbackListBase.239"* %0, i64 0, i32 0, i32 0, i32 1, i32 0, i32 0
  %25 = load i64, i64* %24, align 8
  %26 = add i64 %25, -1
  store i64 %26, i64* %24, align 8
  %27 = getelementptr inbounds %"struct.std::__1::__list_node_base.242", %"struct.std::__1::__list_node_base.242"* %12, i64 1
  %28 = bitcast %"struct.std::__1::__list_node_base.242"* %27 to %"class.base::internal::CallbackBase"*
  tail call void @_ZN4base8internal12CallbackBaseD2Ev(%"class.base::internal::CallbackBase"* %28) #7
  %29 = bitcast %"struct.std::__1::__list_node_base.242"* %12 to i8*
  tail call void @_ZdlPv(i8* %29) #8
  %30 = getelementptr inbounds %"class.base::internal::CallbackListBase.239", %"class.base::internal::CallbackListBase.239"* %0, i64 0, i32 2, i32 0, i32 0, i32 0, i32 0
  %31 = load %"class.base::internal::BindStateBase"*, %"class.base::internal::BindStateBase"** %30, align 8
  %32 = icmp eq %"class.base::internal::BindStateBase"* %31, null
  br i1 %32, label %37, label %33

33:                                               ; preds = %10
  %34 = getelementptr inbounds %"class.base::internal::BindStateBase", %"class.base::internal::BindStateBase"* %31, i64 0, i32 1
  %35 = bitcast void ()** %34 to void (%"class.base::internal::BindStateBase"*)**
  %36 = load void (%"class.base::internal::BindStateBase"*)*, void (%"class.base::internal::BindStateBase"*)** %35, align 8
  tail call void %36(%"class.base::internal::BindStateBase"* nonnull %31) #7
  br label %37

37:                                               ; preds = %10, %33, %6
  ret void
}

declare void @_ZN4base24CallbackListSubscriptionC1ENS_12OnceCallbackIFvvEEE(%"class.base::CallbackListSubscription"*, %"class.base::OnceCallback"*) unnamed_addr #1

; Function Attrs: nounwind
declare void @_ZN4base8internal11WeakPtrBaseD2Ev(%"class.base::internal::WeakPtrBase"*) unnamed_addr #2

; Function Attrs: nounwind ssp uwtable
define linkonce_odr hidden void @_ZN4base8internal7InvokerINS0_9BindStateIMNS0_16CallbackListBaseINS_21RepeatingCallbackListIFvPN5views18WidgetFadeAnimatorENS6_8FadeTypeEEEEEEFvRKNSt3__115__list_iteratorINS_17RepeatingCallbackIS9_EEPvEEEJNS_7WeakPtrISB_EESH_EEEFvvEE7RunOnceEPNS0_13BindStateBaseE(%"class.base::internal::BindStateBase"*) #0 comdat align 2 {
  %2 = alloca %"class.logging::CheckError", align 8
  %3 = getelementptr inbounds %"class.base::internal::BindStateBase", %"class.base::internal::BindStateBase"* %0, i64 1
  %4 = getelementptr inbounds %"class.base::internal::BindStateBase", %"class.base::internal::BindStateBase"* %0, i64 1, i32 2
  %5 = getelementptr inbounds void (%"class.base::internal::BindStateBase"*)*, void (%"class.base::internal::BindStateBase"*)** %4, i64 2
  %6 = bitcast void (%"class.base::internal::BindStateBase"*)** %5 to %"class.std::__1::__list_iterator"*
  %7 = bitcast void (%"class.base::internal::BindStateBase"*)** %4 to %"class.base::internal::WeakReference"*
  %8 = tail call zeroext i1 @_ZNK4base8internal13WeakReference7IsValidEv(%"class.base::internal::WeakReference"* %7) #7
  br i1 %8, label %9, label %44

9:                                                ; preds = %1
  %10 = getelementptr inbounds void (%"class.base::internal::BindStateBase"*)*, void (%"class.base::internal::BindStateBase"*)** %4, i64 1
  %11 = bitcast void (%"class.base::internal::BindStateBase"*)** %10 to %"class.base::internal::CallbackListBase.239"**
  %12 = load %"class.base::internal::CallbackListBase.239"*, %"class.base::internal::CallbackListBase.239"** %11, align 8
  %13 = icmp eq %"class.base::internal::CallbackListBase.239"* %12, null
  br i1 %13, label %44, label %14

14:                                               ; preds = %9
  %15 = bitcast %"class.base::internal::BindStateBase"* %3 to i64*
  %16 = load i64, i64* %15, align 8
  %17 = getelementptr inbounds %"class.base::internal::BindStateBase", %"class.base::internal::BindStateBase"* %0, i64 1, i32 1
  %18 = bitcast void ()** %17 to i64*
  %19 = load i64, i64* %18, align 8
  %20 = tail call zeroext i1 @_ZNK4base8internal13WeakReference7IsValidEv(%"class.base::internal::WeakReference"* %7) #7
  br i1 %20, label %24, label %21

21:                                               ; preds = %14
  %22 = bitcast %"class.logging::CheckError"* %2 to i8*
  call void @llvm.lifetime.start.p0i8(i64 8, i8* nonnull %22) #7
  call void @_ZN7logging10CheckError5CheckEPKciS2_(%"class.logging::CheckError"* nonnull sret %2, i8* getelementptr inbounds ([29 x i8], [29 x i8]* @.str.4, i64 0, i64 0), i32 251, i8* getelementptr inbounds ([15 x i8], [15 x i8]* @.str.5, i64 0, i64 0)) #7
  %23 = call dereferenceable(160) %"class.std::__1::basic_ostream"* @_ZN7logging10CheckError6streamEv(%"class.logging::CheckError"* nonnull %2) #7
  call void @_ZN7logging10CheckErrorD1Ev(%"class.logging::CheckError"* nonnull %2) #7
  call void @llvm.lifetime.end.p0i8(i64 8, i8* nonnull %22) #7
  br label %24

24:                                               ; preds = %21, %14
  %25 = call zeroext i1 @_ZNK4base8internal13WeakReference7IsValidEv(%"class.base::internal::WeakReference"* %7) #7
  %26 = bitcast void (%"class.base::internal::BindStateBase"*)** %10 to i8**
  %27 = load i8*, i8** %26, align 8
  %28 = select i1 %25, i8* %27, i8* null
  %29 = getelementptr inbounds i8, i8* %28, i64 %19
  %30 = bitcast i8* %29 to %"class.base::internal::CallbackListBase.239"*
  %31 = and i64 %16, 1
  %32 = icmp eq i64 %31, 0
  br i1 %32, label %40, label %33

33:                                               ; preds = %24
  %34 = bitcast i8* %29 to i8**
  %35 = load i8*, i8** %34, align 8
  %36 = add i64 %16, -1
  %37 = getelementptr i8, i8* %35, i64 %36
  %38 = bitcast i8* %37 to void (%"class.base::internal::CallbackListBase.239"*, %"class.std::__1::__list_iterator"*)**
  %39 = load void (%"class.base::internal::CallbackListBase.239"*, %"class.std::__1::__list_iterator"*)*, void (%"class.base::internal::CallbackListBase.239"*, %"class.std::__1::__list_iterator"*)** %38, align 8
  br label %42

40:                                               ; preds = %24
  %41 = inttoptr i64 %16 to void (%"class.base::internal::CallbackListBase.239"*, %"class.std::__1::__list_iterator"*)*
  br label %42

42:                                               ; preds = %40, %33
  %43 = phi void (%"class.base::internal::CallbackListBase.239"*, %"class.std::__1::__list_iterator"*)* [ %39, %33 ], [ %41, %40 ]
  call void %43(%"class.base::internal::CallbackListBase.239"* %30, %"class.std::__1::__list_iterator"* dereferenceable(8) %6) #7
  br label %44

44:                                               ; preds = %1, %9, %42
  ret void
}

declare zeroext i1 @_ZNK4base8internal13WeakReference7IsValidEv(%"class.base::internal::WeakReference"*) local_unnamed_addr #1

; Function Attrs: nobuiltin nofree
declare noalias nonnull i8* @_Znwm(i64) local_unnamed_addr #6

; Function Attrs: nounwind ssp uwtable
define linkonce_odr hidden void @_ZN4base8internal9BindStateIMNS0_16CallbackListBaseINS_21RepeatingCallbackListIFvPN5views18WidgetFadeAnimatorENS5_8FadeTypeEEEEEEFvRKNSt3__115__list_iteratorINS_17RepeatingCallbackIS8_EEPvEEEJNS_7WeakPtrISA_EESG_EE7DestroyEPKNS0_13BindStateBaseE(%"class.base::internal::BindStateBase"*) #0 comdat align 2 {
  %2 = icmp eq %"class.base::internal::BindStateBase"* %0, null
  br i1 %2, label %7, label %3

3:                                                ; preds = %1
  %4 = getelementptr inbounds %"class.base::internal::BindStateBase", %"class.base::internal::BindStateBase"* %0, i64 1, i32 2
  %5 = bitcast void (%"class.base::internal::BindStateBase"*)** %4 to %"class.base::internal::WeakPtrBase"*
  tail call void @_ZN4base8internal11WeakPtrBaseD2Ev(%"class.base::internal::WeakPtrBase"* %5) #7
  %6 = bitcast %"class.base::internal::BindStateBase"* %0 to i8*
  tail call void @_ZdlPv(i8* %6) #8
  br label %7

7:                                                ; preds = %3, %1
  ret void
}

; Function Attrs: nounwind ssp uwtable
define linkonce_odr hidden zeroext i1 @_ZN4base8internal23QueryCancellationTraitsINS0_9BindStateIMNS0_16CallbackListBaseINS_21RepeatingCallbackListIFvPN5views18WidgetFadeAnimatorENS6_8FadeTypeEEEEEEFvRKNSt3__115__list_iteratorINS_17RepeatingCallbackIS9_EEPvEEEJNS_7WeakPtrISB_EESH_EEEEEbPKNS0_13BindStateBaseENSP_21CancellationQueryModeE(%"class.base::internal::BindStateBase"*, i32) #0 comdat {
  %3 = getelementptr inbounds %"class.base::internal::BindStateBase", %"class.base::internal::BindStateBase"* %0, i64 1, i32 2
  switch i32 %1, label %16 [
    i32 0, label %4
    i32 1, label %13
  ]

4:                                                ; preds = %2
  %5 = bitcast void (%"class.base::internal::BindStateBase"*)** %3 to %"class.base::internal::WeakReference"*
  %6 = tail call zeroext i1 @_ZNK4base8internal13WeakReference7IsValidEv(%"class.base::internal::WeakReference"* %5) #7
  %7 = getelementptr inbounds void (%"class.base::internal::BindStateBase"*)*, void (%"class.base::internal::BindStateBase"*)** %3, i64 1
  %8 = bitcast void (%"class.base::internal::BindStateBase"*)** %7 to %"class.base::internal::CallbackListBase.239"**
  %9 = load %"class.base::internal::CallbackListBase.239"*, %"class.base::internal::CallbackListBase.239"** %8, align 8
  %10 = icmp ne %"class.base::internal::CallbackListBase.239"* %9, null
  %11 = and i1 %6, %10
  %12 = xor i1 %11, true
  br label %16

13:                                               ; preds = %2
  %14 = bitcast void (%"class.base::internal::BindStateBase"*)** %3 to %"class.base::internal::WeakReference"*
  %15 = tail call zeroext i1 @_ZNK4base8internal13WeakReference10MaybeValidEv(%"class.base::internal::WeakReference"* %14) #7
  br label %16

16:                                               ; preds = %2, %4, %13
  %17 = phi i1 [ %15, %13 ], [ %12, %4 ], [ false, %2 ]
  ret i1 %17
}

declare void @_ZN4base8internal13BindStateBaseC2EPFvvEPFvPKS1_EPFbS5_NS1_21CancellationQueryModeEE(%"class.base::internal::BindStateBase"*, void ()*, void (%"class.base::internal::BindStateBase"*)*, i1 (%"class.base::internal::BindStateBase"*, i32)*) unnamed_addr #1

declare zeroext i1 @_ZNK4base8internal13WeakReference10MaybeValidEv(%"class.base::internal::WeakReference"*) local_unnamed_addr #1

; Function Attrs: nounwind
declare void @_ZN4base8internal13WeakReferenceC1EOS1_(%"class.base::internal::WeakReference"*, %"class.base::internal::WeakReference"* dereferenceable(8)) unnamed_addr #2

declare void @_ZN4base8internal12CallbackBase5ResetEv(%"class.base::internal::CallbackBase"*) local_unnamed_addr #1

declare void @_ZNK4base8internal18WeakReferenceOwner6GetRefEv(%"class.base::internal::WeakReference"* sret, %"class.base::internal::WeakReferenceOwner"*) local_unnamed_addr #1

; Function Attrs: nounwind
declare void @_ZN4base8internal13WeakReferenceD1Ev(%"class.base::internal::WeakReference"*) unnamed_addr #2

declare void @_ZN4base8internal11WeakPtrBaseC2ERKNS0_13WeakReferenceEm(%"class.base::internal::WeakPtrBase"*, %"class.base::internal::WeakReference"* dereferenceable(8), i64) unnamed_addr #1

; Function Attrs: nounwind ssp uwtable
define linkonce_odr hidden void @_ZNSt3__14listIN4base17RepeatingCallbackIFvPN5views18WidgetFadeAnimatorENS4_8FadeTypeEEEENS_9allocatorIS8_EEE9remove_ifIZNS1_8internal16CallbackListBaseINS1_21RepeatingCallbackListIS7_EEE6NotifyIJS5_RKS6_EEEvDpOT_EUlTyRKT_E_EEvSO_(%"class.std::__1::list.240"*) local_unnamed_addr #0 comdat align 2 {
  %2 = alloca %"class.std::__1::list.240", align 8
  %3 = bitcast %"class.std::__1::list.240"* %2 to i8*
  call void @llvm.lifetime.start.p0i8(i64 24, i8* nonnull %3) #7
  %4 = getelementptr inbounds %"class.std::__1::list.240", %"class.std::__1::list.240"* %2, i64 0, i32 0, i32 0, i32 0
  %5 = getelementptr inbounds %"class.std::__1::list.240", %"class.std::__1::list.240"* %2, i64 0, i32 0, i32 0, i32 1
  %6 = getelementptr inbounds %"class.std::__1::list.240", %"class.std::__1::list.240"* %2, i64 0, i32 0, i32 1, i32 0, i32 0
  %7 = getelementptr inbounds %"class.std::__1::list.240", %"class.std::__1::list.240"* %2, i64 0, i32 0, i32 0
  store %"struct.std::__1::__list_node_base.242"* %7, %"struct.std::__1::__list_node_base.242"** %4, align 8
  store %"struct.std::__1::__list_node_base.242"* %7, %"struct.std::__1::__list_node_base.242"** %5, align 8
  store i64 0, i64* %6, align 8
  %8 = getelementptr inbounds %"class.std::__1::list.240", %"class.std::__1::list.240"* %0, i64 0, i32 0, i32 0, i32 1
  %9 = bitcast %"struct.std::__1::__list_node_base.242"** %8 to i64*
  %10 = load i64, i64* %9, align 8
  %11 = getelementptr inbounds %"class.std::__1::list.240", %"class.std::__1::list.240"* %0, i64 0, i32 0, i32 0
  %12 = inttoptr i64 %10 to %"struct.std::__1::__list_node_base.242"*
  %13 = icmp eq %"struct.std::__1::__list_node_base.242"* %11, %12
  br i1 %13, label %42, label %14

14:                                               ; preds = %1
  %15 = icmp eq %"class.std::__1::list.240"* %2, %0
  %16 = getelementptr inbounds %"class.std::__1::list.240", %"class.std::__1::list.240"* %0, i64 0, i32 0, i32 1, i32 0, i32 0
  br label %43

17:                                               ; preds = %119
  %18 = load i64, i64* %6, align 8
  %19 = icmp eq i64 %18, 0
  br i1 %19, label %42, label %20

20:                                               ; preds = %17
  %21 = load %"struct.std::__1::__list_node_base.242"*, %"struct.std::__1::__list_node_base.242"** %5, align 8
  %22 = getelementptr inbounds %"struct.std::__1::__list_node_base.242", %"struct.std::__1::__list_node_base.242"* %120, i64 0, i32 1
  %23 = bitcast %"struct.std::__1::__list_node_base.242"** %22 to i64*
  %24 = load i64, i64* %23, align 8
  %25 = getelementptr inbounds %"struct.std::__1::__list_node_base.242", %"struct.std::__1::__list_node_base.242"* %21, i64 0, i32 0
  %26 = load %"struct.std::__1::__list_node_base.242"*, %"struct.std::__1::__list_node_base.242"** %25, align 8
  %27 = getelementptr inbounds %"struct.std::__1::__list_node_base.242", %"struct.std::__1::__list_node_base.242"* %26, i64 0, i32 1
  %28 = bitcast %"struct.std::__1::__list_node_base.242"** %27 to i64*
  store i64 %24, i64* %28, align 8
  %29 = bitcast %"struct.std::__1::__list_node_base.242"* %21 to i64*
  %30 = load i64, i64* %29, align 8
  %31 = bitcast %"struct.std::__1::__list_node_base.242"** %22 to i64**
  %32 = load i64*, i64** %31, align 8
  store i64 %30, i64* %32, align 8
  store i64 0, i64* %6, align 8
  %33 = icmp eq %"struct.std::__1::__list_node_base.242"* %21, %7
  br i1 %33, label %42, label %34

34:                                               ; preds = %20, %34
  %35 = phi %"struct.std::__1::__list_node_base.242"* [ %37, %34 ], [ %21, %20 ]
  %36 = getelementptr inbounds %"struct.std::__1::__list_node_base.242", %"struct.std::__1::__list_node_base.242"* %35, i64 0, i32 1
  %37 = load %"struct.std::__1::__list_node_base.242"*, %"struct.std::__1::__list_node_base.242"** %36, align 8
  %38 = getelementptr inbounds %"struct.std::__1::__list_node_base.242", %"struct.std::__1::__list_node_base.242"* %35, i64 1
  %39 = bitcast %"struct.std::__1::__list_node_base.242"* %38 to %"class.base::internal::CallbackBase"*
  call void @_ZN4base8internal12CallbackBaseD2Ev(%"class.base::internal::CallbackBase"* %39) #7
  %40 = bitcast %"struct.std::__1::__list_node_base.242"* %35 to i8*
  call void @_ZdlPv(i8* %40) #8
  %41 = icmp eq %"struct.std::__1::__list_node_base.242"* %37, %7
  br i1 %41, label %42, label %34

42:                                               ; preds = %34, %1, %17, %20
  call void @llvm.lifetime.end.p0i8(i64 24, i8* nonnull %3) #7
  ret void

43:                                               ; preds = %14, %119
  %44 = phi %"struct.std::__1::__list_node_base.242"* [ %7, %14 ], [ %120, %119 ]
  %45 = phi %"struct.std::__1::__list_node_base.242"* [ %12, %14 ], [ %122, %119 ]
  %46 = phi i64 [ %10, %14 ], [ %121, %119 ]
  %47 = inttoptr i64 %46 to %"struct.std::__1::__list_node"*
  %48 = getelementptr inbounds %"struct.std::__1::__list_node", %"struct.std::__1::__list_node"* %47, i64 0, i32 1, i32 0, i32 0, i32 0, i32 0
  %49 = load %"class.base::internal::BindStateBase"*, %"class.base::internal::BindStateBase"** %48, align 8
  %50 = icmp eq %"class.base::internal::BindStateBase"* %49, null
  %51 = getelementptr inbounds %"struct.std::__1::__list_node_base.242", %"struct.std::__1::__list_node_base.242"* %45, i64 0, i32 1
  %52 = bitcast %"struct.std::__1::__list_node_base.242"** %51 to i64*
  %53 = load i64, i64* %52, align 8
  br i1 %50, label %54, label %119

54:                                               ; preds = %43
  %55 = inttoptr i64 %53 to %"struct.std::__1::__list_node_base.242"*
  %56 = icmp eq %"struct.std::__1::__list_node_base.242"* %11, %55
  br i1 %56, label %70, label %57

57:                                               ; preds = %54, %64
  %58 = phi %"struct.std::__1::__list_node_base.242"* [ %68, %64 ], [ %55, %54 ]
  %59 = phi i64 [ %67, %64 ], [ %53, %54 ]
  %60 = inttoptr i64 %59 to %"struct.std::__1::__list_node"*
  %61 = getelementptr inbounds %"struct.std::__1::__list_node", %"struct.std::__1::__list_node"* %60, i64 0, i32 1, i32 0, i32 0, i32 0, i32 0
  %62 = load %"class.base::internal::BindStateBase"*, %"class.base::internal::BindStateBase"** %61, align 8
  %63 = icmp eq %"class.base::internal::BindStateBase"* %62, null
  br i1 %63, label %64, label %70

64:                                               ; preds = %57
  %65 = getelementptr inbounds %"struct.std::__1::__list_node_base.242", %"struct.std::__1::__list_node_base.242"* %58, i64 0, i32 1
  %66 = bitcast %"struct.std::__1::__list_node_base.242"** %65 to i64*
  %67 = load i64, i64* %66, align 8
  %68 = inttoptr i64 %67 to %"struct.std::__1::__list_node_base.242"*
  %69 = icmp eq %"struct.std::__1::__list_node_base.242"* %11, %68
  br i1 %69, label %70, label %57

70:                                               ; preds = %57, %64, %54
  %71 = phi i64 [ %53, %54 ], [ %59, %57 ], [ %67, %64 ]
  %72 = phi %"struct.std::__1::__list_node_base.242"* [ %11, %54 ], [ %58, %57 ], [ %11, %64 ]
  %73 = phi i1 [ false, %54 ], [ true, %57 ], [ false, %64 ]
  %74 = icmp eq %"struct.std::__1::__list_node_base.242"* %45, %72
  br i1 %74, label %113, label %75

75:                                               ; preds = %70
  %76 = getelementptr inbounds %"struct.std::__1::__list_node_base.242", %"struct.std::__1::__list_node_base.242"* %72, i64 0, i32 0
  %77 = load %"struct.std::__1::__list_node_base.242"*, %"struct.std::__1::__list_node_base.242"** %76, align 8
  br i1 %15, label %98, label %78

78:                                               ; preds = %75
  %79 = icmp eq %"struct.std::__1::__list_node_base.242"* %77, %45
  br i1 %79, label %92, label %80

80:                                               ; preds = %78
  %81 = icmp eq %"struct.std::__1::__list_node_base.242"* %77, %55
  br i1 %81, label %89, label %82

82:                                               ; preds = %80, %82
  %83 = phi i64 [ %85, %82 ], [ 0, %80 ]
  %84 = phi %"struct.std::__1::__list_node_base.242"* [ %87, %82 ], [ %55, %80 ]
  %85 = add nuw nsw i64 %83, 1
  %86 = getelementptr inbounds %"struct.std::__1::__list_node_base.242", %"struct.std::__1::__list_node_base.242"* %84, i64 0, i32 1
  %87 = load %"struct.std::__1::__list_node_base.242"*, %"struct.std::__1::__list_node_base.242"** %86, align 8
  %88 = icmp eq %"struct.std::__1::__list_node_base.242"* %87, %77
  br i1 %88, label %89, label %82

89:                                               ; preds = %82, %80
  %90 = phi i64 [ 0, %80 ], [ %85, %82 ]
  %91 = add nuw i64 %90, 2
  br label %92

92:                                               ; preds = %89, %78
  %93 = phi i64 [ 1, %78 ], [ %91, %89 ]
  %94 = load i64, i64* %16, align 8
  %95 = sub i64 %94, %93
  store i64 %95, i64* %16, align 8
  %96 = load i64, i64* %6, align 8
  %97 = add i64 %96, %93
  store i64 %97, i64* %6, align 8
  br label %98

98:                                               ; preds = %92, %75
  %99 = getelementptr inbounds %"struct.std::__1::__list_node_base.242", %"struct.std::__1::__list_node_base.242"* %77, i64 0, i32 1
  %100 = bitcast %"struct.std::__1::__list_node_base.242"** %99 to i64*
  %101 = load i64, i64* %100, align 8
  %102 = getelementptr inbounds %"struct.std::__1::__list_node_base.242", %"struct.std::__1::__list_node_base.242"* %45, i64 0, i32 0
  %103 = load %"struct.std::__1::__list_node_base.242"*, %"struct.std::__1::__list_node_base.242"** %102, align 8
  %104 = getelementptr inbounds %"struct.std::__1::__list_node_base.242", %"struct.std::__1::__list_node_base.242"* %103, i64 0, i32 1
  %105 = bitcast %"struct.std::__1::__list_node_base.242"** %104 to i64*
  store i64 %101, i64* %105, align 8
  %106 = inttoptr i64 %46 to i64*
  %107 = load i64, i64* %106, align 8
  %108 = bitcast %"struct.std::__1::__list_node_base.242"** %99 to i64**
  %109 = load i64*, i64** %108, align 8
  store i64 %107, i64* %109, align 8
  %110 = load %"struct.std::__1::__list_node_base.242"*, %"struct.std::__1::__list_node_base.242"** %4, align 8
  %111 = getelementptr inbounds %"struct.std::__1::__list_node_base.242", %"struct.std::__1::__list_node_base.242"* %110, i64 0, i32 1
  store %"struct.std::__1::__list_node_base.242"* %45, %"struct.std::__1::__list_node_base.242"** %111, align 8
  %112 = ptrtoint %"struct.std::__1::__list_node_base.242"* %110 to i64
  store i64 %112, i64* %106, align 8
  store %"struct.std::__1::__list_node_base.242"* %77, %"struct.std::__1::__list_node_base.242"** %4, align 8
  store %"struct.std::__1::__list_node_base.242"* %7, %"struct.std::__1::__list_node_base.242"** %99, align 8
  br label %113

113:                                              ; preds = %70, %98
  %114 = phi %"struct.std::__1::__list_node_base.242"* [ %44, %70 ], [ %77, %98 ]
  br i1 %73, label %115, label %119

115:                                              ; preds = %113
  %116 = getelementptr inbounds %"struct.std::__1::__list_node_base.242", %"struct.std::__1::__list_node_base.242"* %72, i64 0, i32 1
  %117 = bitcast %"struct.std::__1::__list_node_base.242"** %116 to i64*
  %118 = load i64, i64* %117, align 8
  br label %119

119:                                              ; preds = %43, %113, %115
  %120 = phi %"struct.std::__1::__list_node_base.242"* [ %114, %115 ], [ %114, %113 ], [ %44, %43 ]
  %121 = phi i64 [ %118, %115 ], [ %71, %113 ], [ %53, %43 ]
  %122 = inttoptr i64 %121 to %"struct.std::__1::__list_node_base.242"*
  %123 = icmp eq %"struct.std::__1::__list_node_base.242"* %11, %122
  br i1 %123, label %17, label %43
}

declare void @_ZN5views6Widget14RemoveObserverEPNS_14WidgetObserverE(%"class.views::Widget"*, %"class.views::WidgetObserver"*) local_unnamed_addr #1

attributes #0 = { nounwind ssp uwtable "correctly-rounded-divide-sqrt-fp-math"="false" "disable-tail-calls"="false" "less-precise-fpmad"="false" "min-legal-vector-width"="0" "no-frame-pointer-elim"="false" "no-frame-pointer-elim-non-leaf" "no-infs-fp-math"="false" "no-jump-tables"="false" "no-nans-fp-math"="false" "no-signed-zeros-fp-math"="false" "no-trapping-math"="false" "null-pointer-is-valid"="true" "stack-protector-buffer-size"="4" "target-cpu"="x86-64" "target-features"="+cx8,+fxsr,+mmx,+sse,+sse2,+sse3,+x87" "unsafe-fp-math"="false" "use-soft-float"="false" }
attributes #1 = { "correctly-rounded-divide-sqrt-fp-math"="false" "disable-tail-calls"="false" "less-precise-fpmad"="false" "no-frame-pointer-elim"="false" "no-frame-pointer-elim-non-leaf" "no-infs-fp-math"="false" "no-nans-fp-math"="false" "no-signed-zeros-fp-math"="false" "no-trapping-math"="false" "null-pointer-is-valid"="true" "stack-protector-buffer-size"="4" "target-cpu"="x86-64" "target-features"="+cx8,+fxsr,+mmx,+sse,+sse2,+sse3,+x87" "unsafe-fp-math"="false" "use-soft-float"="false" }
attributes #2 = { nounwind "correctly-rounded-divide-sqrt-fp-math"="false" "disable-tail-calls"="false" "less-precise-fpmad"="false" "no-frame-pointer-elim"="false" "no-frame-pointer-elim-non-leaf" "no-infs-fp-math"="false" "no-nans-fp-math"="false" "no-signed-zeros-fp-math"="false" "no-trapping-math"="false" "null-pointer-is-valid"="true" "stack-protector-buffer-size"="4" "target-cpu"="x86-64" "target-features"="+cx8,+fxsr,+mmx,+sse,+sse2,+sse3,+x87" "unsafe-fp-math"="false" "use-soft-float"="false" }
attributes #3 = { nobuiltin nounwind "correctly-rounded-divide-sqrt-fp-math"="false" "disable-tail-calls"="false" "less-precise-fpmad"="false" "no-frame-pointer-elim"="false" "no-frame-pointer-elim-non-leaf" "no-infs-fp-math"="false" "no-nans-fp-math"="false" "no-signed-zeros-fp-math"="false" "no-trapping-math"="false" "null-pointer-is-valid"="true" "stack-protector-buffer-size"="4" "target-cpu"="x86-64" "target-features"="+cx8,+fxsr,+mmx,+sse,+sse2,+sse3,+x87" "unsafe-fp-math"="false" "use-soft-float"="false" }
attributes #4 = { argmemonly nounwind }
attributes #5 = { inlinehint nounwind ssp uwtable "correctly-rounded-divide-sqrt-fp-math"="false" "disable-tail-calls"="false" "less-precise-fpmad"="false" "min-legal-vector-width"="0" "no-frame-pointer-elim"="false" "no-frame-pointer-elim-non-leaf" "no-infs-fp-math"="false" "no-jump-tables"="false" "no-nans-fp-math"="false" "no-signed-zeros-fp-math"="false" "no-trapping-math"="false" "null-pointer-is-valid"="true" "stack-protector-buffer-size"="4" "target-cpu"="x86-64" "target-features"="+cx8,+fxsr,+mmx,+sse,+sse2,+sse3,+x87" "unsafe-fp-math"="false" "use-soft-float"="false" }
attributes #6 = { nobuiltin nofree "correctly-rounded-divide-sqrt-fp-math"="false" "disable-tail-calls"="false" "less-precise-fpmad"="false" "no-frame-pointer-elim"="false" "no-frame-pointer-elim-non-leaf" "no-infs-fp-math"="false" "no-nans-fp-math"="false" "no-signed-zeros-fp-math"="false" "no-trapping-math"="false" "null-pointer-is-valid"="true" "stack-protector-buffer-size"="4" "target-cpu"="x86-64" "target-features"="+cx8,+fxsr,+mmx,+sse,+sse2,+sse3,+x87" "unsafe-fp-math"="false" "use-soft-float"="false" }
attributes #7 = { nounwind }
attributes #8 = { builtin nounwind }

!llvm.module.flags = !{!0, !1}

!0 = !{i32 1, !"wchar_size", i32 4}
!1 = !{i32 7, !"PIC Level", i32 2}
!2 = !{i8 0, i8 2}
!3 = !{!4}
!4 = distinct !{!4, !5, !"_ZNK4base14WeakPtrFactoryINS_8internal16CallbackListBaseINS_21RepeatingCallbackListIFvPN5views18WidgetFadeAnimatorENS5_8FadeTypeEEEEEEE10GetWeakPtrEv: argument 0"}
!5 = distinct !{!5, !"_ZNK4base14WeakPtrFactoryINS_8internal16CallbackListBaseINS_21RepeatingCallbackListIFvPN5views18WidgetFadeAnimatorENS5_8FadeTypeEEEEEEE10GetWeakPtrEv"}
!6 = !{!7}
!7 = distinct !{!7, !8, !"_ZNSt3__14listIN4base17RepeatingCallbackIFvPN5views18WidgetFadeAnimatorENS4_8FadeTypeEEEENS_9allocatorIS8_EEE15__allocate_nodeERNS9_INS_11__list_nodeIS8_PvEEEE: argument 0"}
!8 = distinct !{!8, !"_ZNSt3__14listIN4base17RepeatingCallbackIFvPN5views18WidgetFadeAnimatorENS4_8FadeTypeEEEENS_9allocatorIS8_EEE15__allocate_nodeERNS9_INS_11__list_nodeIS8_PvEEEE"}
!9 = !{!10, !12}
!10 = distinct !{!10, !11, !"_ZN4base8internal8BindImplINS_12OnceCallbackEMNS0_16CallbackListBaseINS_21RepeatingCallbackListIFvPN5views18WidgetFadeAnimatorENS6_8FadeTypeEEEEEEFvRKNSt3__115__list_iteratorINS_17RepeatingCallbackIS9_EEPvEEEJNS_7WeakPtrISB_EESH_EEEDcOT0_DpOT1_: argument 0"}
!11 = distinct !{!11, !"_ZN4base8internal8BindImplINS_12OnceCallbackEMNS0_16CallbackListBaseINS_21RepeatingCallbackListIFvPN5views18WidgetFadeAnimatorENS6_8FadeTypeEEEEEEFvRKNSt3__115__list_iteratorINS_17RepeatingCallbackIS9_EEPvEEEJNS_7WeakPtrISB_EESH_EEEDcOT0_DpOT1_"}
!12 = distinct !{!12, !13, !"_ZN4base8BindOnceIMNS_8internal16CallbackListBaseINS_21RepeatingCallbackListIFvPN5views18WidgetFadeAnimatorENS5_8FadeTypeEEEEEEFvRKNSt3__115__list_iteratorINS_17RepeatingCallbackIS8_EEPvEEEJNS_7WeakPtrISA_EESG_EEENS_12OnceCallbackINS1_14BindTypeHelperIT_JDpT0_EE14UnboundRunTypeEEEOSP_DpOSQ_: argument 0"}
!13 = distinct !{!13, !"_ZN4base8BindOnceIMNS_8internal16CallbackListBaseINS_21RepeatingCallbackListIFvPN5views18WidgetFadeAnimatorENS5_8FadeTypeEEEEEEFvRKNSt3__115__list_iteratorINS_17RepeatingCallbackIS8_EEPvEEEJNS_7WeakPtrISA_EESG_EEENS_12OnceCallbackINS1_14BindTypeHelperIT_JDpT0_EE14UnboundRunTypeEEEOSP_DpOSQ_"}
