; ModuleID = '../../third_party/blink/renderer/core/html/window_name_collection.cc'
source_filename = "../../third_party/blink/renderer/core/html/window_name_collection.cc"
target datalayout = "e-m:e-i64:64-f80:128-n8:16:32:64-S128"
target triple = "x86_64-unknown-linux-gnu"

module asm ".symver exp, exp@GLIBC_2.2.5"
module asm ".symver exp2, exp2@GLIBC_2.2.5"
module asm ".symver exp2f, exp2f@GLIBC_2.2.5"
module asm ".symver expf, expf@GLIBC_2.2.5"
module asm ".symver lgamma, lgamma@GLIBC_2.2.5"
module asm ".symver lgammaf, lgammaf@GLIBC_2.2.5"
module asm ".symver lgammal, lgammal@GLIBC_2.2.5"
module asm ".symver log, log@GLIBC_2.2.5"
module asm ".symver log2, log2@GLIBC_2.2.5"
module asm ".symver log2f, log2f@GLIBC_2.2.5"
module asm ".symver logf, logf@GLIBC_2.2.5"
module asm ".symver pow, pow@GLIBC_2.2.5"
module asm ".symver powf, powf@GLIBC_2.2.5"

%"class.blink::QualifiedName" = type { %class.scoped_refptr }
%class.scoped_refptr = type { %"class.blink::QualifiedName::QualifiedNameImpl"* }
%"class.blink::QualifiedName::QualifiedNameImpl" = type { %"class.WTF::RefCounted", i32, %"class.WTF::AtomicString", %"class.WTF::AtomicString", %"class.WTF::AtomicString", %"class.WTF::AtomicString" }
%"class.WTF::RefCounted" = type { %"class.base::RefCounted" }
%"class.base::RefCounted" = type { %"class.base::subtle::RefCountedBase" }
%"class.base::subtle::RefCountedBase" = type { i32 }
%"class.WTF::AtomicString" = type { %"class.WTF::String" }
%"class.WTF::String" = type { %class.scoped_refptr.21 }
%class.scoped_refptr.21 = type { %"class.WTF::StringImpl"* }
%"class.WTF::StringImpl" = type { i32, i32, %"struct.std::__1::atomic" }
%"struct.std::__1::atomic" = type { %"struct.std::__1::__atomic_base" }
%"struct.std::__1::__atomic_base" = type { %"struct.std::__1::__atomic_base.14" }
%"struct.std::__1::__atomic_base.14" = type { %"struct.std::__1::__cxx_atomic_impl" }
%"struct.std::__1::__cxx_atomic_impl" = type { %"struct.std::__1::__cxx_atomic_base_impl" }
%"struct.std::__1::__cxx_atomic_base_impl" = type { i32 }
%"class.blink::HTMLQualifiedName" = type { %"class.blink::QualifiedName" }
%"struct.blink::WrapperTypeInfo" = type { i16, void (%"class.v8::Isolate"*, %"class.blink::DOMWrapperWorld"*, %"class.v8::Template"*)*, void (%"class.v8::Context"*, %"class.blink::DOMWrapperWorld"*, %"class.v8::Object"*, %"class.v8::Object"*, %"class.v8::Object"*, %"class.v8::Template"*, i64)*, i8*, %"struct.blink::WrapperTypeInfo"*, i8 }
%"class.v8::Isolate" = type { i8 }
%"class.blink::DOMWrapperWorld" = type { %"class.WTF::RefCounted.121", i32, i32, %"class.blink::Persistent" }
%"class.WTF::RefCounted.121" = type { %"class.base::RefCounted.122" }
%"class.base::RefCounted.122" = type { %"class.base::subtle::RefCountedBase" }
%"class.blink::Persistent" = type { %"class.blink::PersistentBase" }
%"class.blink::PersistentBase" = type { %"class.blink::DOMDataStore"*, %"class.blink::PersistentNodePtr" }
%"class.blink::DOMDataStore" = type { i32 (...)**, i8, [7 x i8], %"class.blink::HeapHashMap.125" }
%"class.blink::HeapHashMap.125" = type { %"class.WTF::HashMap.128" }
%"class.WTF::HashMap.128" = type { %"class.WTF::HashTable.129" }
%"class.WTF::HashTable.129" = type <{ %"struct.WTF::KeyValuePair.131"*, i32, i32, i32, [4 x i8] }>
%"struct.WTF::KeyValuePair.131" = type { %"class.blink::WeakMember", %"class.blink::TraceWrapperV8Reference" }
%"class.blink::WeakMember" = type { %"class.blink::MemberBase.132" }
%"class.blink::MemberBase.132" = type { %"class.blink::ScriptWrappable"* }
%"class.blink::ScriptWrappable" = type { %"class.blink::NameClient", %"class.blink::TraceWrapperV8Reference" }
%"class.blink::NameClient" = type { i32 (...)** }
%"class.blink::TraceWrapperV8Reference" = type { %"class.v8::TracedReference" }
%"class.v8::TracedReference" = type { %"class.v8::BasicTracedReference" }
%"class.v8::BasicTracedReference" = type { %"class.v8::TracedReferenceBase" }
%"class.v8::TracedReferenceBase" = type { i64* }
%"class.blink::PersistentNodePtr" = type { %"class.blink::PersistentNode"* }
%"class.blink::PersistentNode" = type { i8*, void (%"class.blink::Visitor"*, i8*)* }
%"class.blink::Visitor" = type { i32 (...)**, %"class.blink::ThreadState"* }
%"class.blink::ThreadState" = type <{ %"class.std::__1::unique_ptr.133", i32, [4 x i8], %"class.std::__1::unique_ptr.269", %"class.std::__1::unique_ptr.269", i8**, i8, i8, i8, i8, i8, i8, [2 x i8], i64, i64, i32, i32, i32, [4 x i8], %"class.WTF::Deque", %"class.v8::Isolate"*, void (%"class.v8::Isolate"*, %"class.v8::EmbedderGraph"*, i8*)*, %"class.std::__1::unique_ptr.279", %"class.std::__1::unique_ptr.285", %"struct.blink::ThreadState::GCData", %"class.std::__1::unique_ptr.297", %"class.std::__1::unique_ptr.303", %"class.base::JobHandle", %"class.base::JobHandle", %"struct.std::__1::atomic.310", [7 x i8], i64, i8, [7 x i8], i64, %"class.base::TimeTicks", i8, i8, [6 x i8] }>
%"class.std::__1::unique_ptr.133" = type { %"class.std::__1::__compressed_pair.134" }
%"class.std::__1::__compressed_pair.134" = type { %"struct.std::__1::__compressed_pair_elem.135" }
%"struct.std::__1::__compressed_pair_elem.135" = type { %"class.blink::ThreadHeap"* }
%"class.blink::ThreadHeap" = type { %"class.blink::ThreadState"*, %"class.std::__1::unique_ptr.136", %"class.std::__1::unique_ptr.142", %"class.std::__1::unique_ptr.148", %"class.std::__1::unique_ptr.154", %"class.std::__1::unique_ptr.160", %"class.std::__1::unique_ptr.166", %"class.std::__1::unique_ptr.177", %"class.std::__1::unique_ptr.184", %"class.std::__1::unique_ptr.184", %"class.std::__1::unique_ptr.191", %"class.std::__1::unique_ptr.198", %"class.std::__1::unique_ptr.205", %"class.std::__1::unique_ptr.205", %"class.std::__1::unique_ptr.212", %"class.std::__1::unique_ptr.219", %"class.std::__1::unique_ptr.226", %"class.std::__1::unique_ptr.249", %"struct.blink::ThreadHeap::LastAllocatedRegion", [9 x %"class.blink::BaseArena"*], i64, i64 }
%"class.std::__1::unique_ptr.136" = type { %"class.std::__1::__compressed_pair.137" }
%"class.std::__1::__compressed_pair.137" = type { %"struct.std::__1::__compressed_pair_elem.138" }
%"struct.std::__1::__compressed_pair_elem.138" = type { %"class.blink::ThreadHeapStatsCollector"* }
%"class.blink::ThreadHeapStatsCollector" = type opaque
%"class.std::__1::unique_ptr.142" = type { %"class.std::__1::__compressed_pair.143" }
%"class.std::__1::__compressed_pair.143" = type { %"struct.std::__1::__compressed_pair_elem.144" }
%"struct.std::__1::__compressed_pair_elem.144" = type { %"class.blink::RegionTree"* }
%"class.blink::RegionTree" = type opaque
%"class.std::__1::unique_ptr.148" = type { %"class.std::__1::__compressed_pair.149" }
%"class.std::__1::__compressed_pair.149" = type { %"struct.std::__1::__compressed_pair_elem.150" }
%"struct.std::__1::__compressed_pair_elem.150" = type { %"class.blink::PageBloomFilter"* }
%"class.blink::PageBloomFilter" = type opaque
%"class.std::__1::unique_ptr.154" = type { %"class.std::__1::__compressed_pair.155" }
%"class.std::__1::__compressed_pair.155" = type { %"struct.std::__1::__compressed_pair_elem.156" }
%"struct.std::__1::__compressed_pair_elem.156" = type { %"class.blink::PagePool"* }
%"class.blink::PagePool" = type opaque
%"class.std::__1::unique_ptr.160" = type { %"class.std::__1::__compressed_pair.161" }
%"class.std::__1::__compressed_pair.161" = type { %"struct.std::__1::__compressed_pair_elem.162" }
%"struct.std::__1::__compressed_pair_elem.162" = type { %"class.blink::ProcessHeapReporter"* }
%"class.blink::ProcessHeapReporter" = type opaque
%"class.std::__1::unique_ptr.166" = type { %"class.std::__1::__compressed_pair.167" }
%"class.std::__1::__compressed_pair.167" = type { %"struct.std::__1::__compressed_pair_elem.168" }
%"struct.std::__1::__compressed_pair_elem.168" = type { %"class.blink::Worklist"* }
%"class.blink::Worklist" = type { [4 x %"struct.blink::Worklist<blink::TraceDescriptor, 512, 4>::PrivateSegmentHolder"], %"class.blink::Worklist<blink::TraceDescriptor, 512, 4>::GlobalPool" }
%"struct.blink::Worklist<blink::TraceDescriptor, 512, 4>::PrivateSegmentHolder" = type { %"class.blink::Worklist<blink::TraceDescriptor, 512, 4>::Segment"*, %"class.blink::Worklist<blink::TraceDescriptor, 512, 4>::Segment"*, [64 x i8] }
%"class.blink::Worklist<blink::TraceDescriptor, 512, 4>::Segment" = type { %"class.blink::Worklist<blink::TraceDescriptor, 512, 4>::Segment"*, i64, [512 x %"struct.blink::TraceDescriptor"] }
%"struct.blink::TraceDescriptor" = type { i8*, void (%"class.blink::Visitor"*, i8*)* }
%"class.blink::Worklist<blink::TraceDescriptor, 512, 4>::GlobalPool" = type { %"class.base::Lock", %"class.blink::Worklist<blink::TraceDescriptor, 512, 4>::Segment"*, %"struct.std::__1::atomic.169" }
%"class.base::Lock" = type { %"class.base::internal::LockImpl" }
%"class.base::internal::LockImpl" = type { %union.pthread_mutex_t }
%union.pthread_mutex_t = type { %struct.__pthread_mutex_s }
%struct.__pthread_mutex_s = type { i32, i32, i32, i32, i32, i16, i16, %struct.__pthread_internal_list }
%struct.__pthread_internal_list = type { %struct.__pthread_internal_list*, %struct.__pthread_internal_list* }
%"struct.std::__1::atomic.169" = type { %"struct.std::__1::__atomic_base.170" }
%"struct.std::__1::__atomic_base.170" = type { %"struct.std::__1::__atomic_base.171" }
%"struct.std::__1::__atomic_base.171" = type { %"struct.std::__1::__cxx_atomic_impl.172" }
%"struct.std::__1::__cxx_atomic_impl.172" = type { %"struct.std::__1::__cxx_atomic_base_impl.173" }
%"struct.std::__1::__cxx_atomic_base_impl.173" = type { i64 }
%"class.std::__1::unique_ptr.177" = type { %"class.std::__1::__compressed_pair.178" }
%"class.std::__1::__compressed_pair.178" = type { %"struct.std::__1::__compressed_pair_elem.179" }
%"struct.std::__1::__compressed_pair_elem.179" = type { %"class.blink::Worklist.180"* }
%"class.blink::Worklist.180" = type { [4 x %"struct.blink::Worklist<blink::HeapObjectHeader *, 64, 4>::PrivateSegmentHolder"], %"class.blink::Worklist<blink::HeapObjectHeader *, 64, 4>::GlobalPool" }
%"struct.blink::Worklist<blink::HeapObjectHeader *, 64, 4>::PrivateSegmentHolder" = type { %"class.blink::Worklist<blink::HeapObjectHeader *, 64, 4>::Segment"*, %"class.blink::Worklist<blink::HeapObjectHeader *, 64, 4>::Segment"*, [64 x i8] }
%"class.blink::Worklist<blink::HeapObjectHeader *, 64, 4>::Segment" = type opaque
%"class.blink::Worklist<blink::HeapObjectHeader *, 64, 4>::GlobalPool" = type { %"class.base::Lock", %"class.blink::Worklist<blink::HeapObjectHeader *, 64, 4>::Segment"*, %"struct.std::__1::atomic.169" }
%"class.std::__1::unique_ptr.184" = type { %"class.std::__1::__compressed_pair.185" }
%"class.std::__1::__compressed_pair.185" = type { %"struct.std::__1::__compressed_pair_elem.186" }
%"struct.std::__1::__compressed_pair_elem.186" = type { %"class.blink::Worklist.187"* }
%"class.blink::Worklist.187" = type { [4 x %"struct.blink::Worklist<const void *, 16, 4>::PrivateSegmentHolder"], %"class.blink::Worklist<const void *, 16, 4>::GlobalPool" }
%"struct.blink::Worklist<const void *, 16, 4>::PrivateSegmentHolder" = type { %"class.blink::Worklist<const void *, 16, 4>::Segment"*, %"class.blink::Worklist<const void *, 16, 4>::Segment"*, [64 x i8] }
%"class.blink::Worklist<const void *, 16, 4>::Segment" = type { %"class.blink::Worklist<const void *, 16, 4>::Segment"*, i64, [16 x i8*] }
%"class.blink::Worklist<const void *, 16, 4>::GlobalPool" = type { %"class.base::Lock", %"class.blink::Worklist<const void *, 16, 4>::Segment"*, %"struct.std::__1::atomic.169" }
%"class.std::__1::unique_ptr.191" = type { %"class.std::__1::__compressed_pair.192" }
%"class.std::__1::__compressed_pair.192" = type { %"struct.std::__1::__compressed_pair_elem.193" }
%"struct.std::__1::__compressed_pair_elem.193" = type { %"class.blink::Worklist.194"* }
%"class.blink::Worklist.194" = type { [4 x %"struct.blink::Worklist<blink::CustomCallbackItem, 64, 4>::PrivateSegmentHolder"], %"class.blink::Worklist<blink::CustomCallbackItem, 64, 4>::GlobalPool" }
%"struct.blink::Worklist<blink::CustomCallbackItem, 64, 4>::PrivateSegmentHolder" = type { %"class.blink::Worklist<blink::CustomCallbackItem, 64, 4>::Segment"*, %"class.blink::Worklist<blink::CustomCallbackItem, 64, 4>::Segment"*, [64 x i8] }
%"class.blink::Worklist<blink::CustomCallbackItem, 64, 4>::Segment" = type opaque
%"class.blink::Worklist<blink::CustomCallbackItem, 64, 4>::GlobalPool" = type { %"class.base::Lock", %"class.blink::Worklist<blink::CustomCallbackItem, 64, 4>::Segment"*, %"struct.std::__1::atomic.169" }
%"class.std::__1::unique_ptr.198" = type { %"class.std::__1::__compressed_pair.199" }
%"class.std::__1::__compressed_pair.199" = type { %"struct.std::__1::__compressed_pair_elem.200" }
%"struct.std::__1::__compressed_pair_elem.200" = type { %"class.blink::Worklist.201"* }
%"class.blink::Worklist.201" = type { [4 x %"struct.blink::Worklist<const void *const *, 256, 4>::PrivateSegmentHolder"], %"class.blink::Worklist<const void *const *, 256, 4>::GlobalPool" }
%"struct.blink::Worklist<const void *const *, 256, 4>::PrivateSegmentHolder" = type { %"class.blink::Worklist<const void *const *, 256, 4>::Segment"*, %"class.blink::Worklist<const void *const *, 256, 4>::Segment"*, [64 x i8] }
%"class.blink::Worklist<const void *const *, 256, 4>::Segment" = type opaque
%"class.blink::Worklist<const void *const *, 256, 4>::GlobalPool" = type { %"class.base::Lock", %"class.blink::Worklist<const void *const *, 256, 4>::Segment"*, %"struct.std::__1::atomic.169" }
%"class.std::__1::unique_ptr.205" = type { %"class.std::__1::__compressed_pair.206" }
%"class.std::__1::__compressed_pair.206" = type { %"struct.std::__1::__compressed_pair_elem.207" }
%"struct.std::__1::__compressed_pair_elem.207" = type { %"class.blink::Worklist.208"* }
%"class.blink::Worklist.208" = type { [4 x %"struct.blink::Worklist<blink::EphemeronPairItem, 64, 4>::PrivateSegmentHolder"], %"class.blink::Worklist<blink::EphemeronPairItem, 64, 4>::GlobalPool" }
%"struct.blink::Worklist<blink::EphemeronPairItem, 64, 4>::PrivateSegmentHolder" = type { %"class.blink::Worklist<blink::EphemeronPairItem, 64, 4>::Segment"*, %"class.blink::Worklist<blink::EphemeronPairItem, 64, 4>::Segment"*, [64 x i8] }
%"class.blink::Worklist<blink::EphemeronPairItem, 64, 4>::Segment" = type opaque
%"class.blink::Worklist<blink::EphemeronPairItem, 64, 4>::GlobalPool" = type { %"class.base::Lock", %"class.blink::Worklist<blink::EphemeronPairItem, 64, 4>::Segment"*, %"struct.std::__1::atomic.169" }
%"class.std::__1::unique_ptr.212" = type { %"class.std::__1::__compressed_pair.213" }
%"class.std::__1::__compressed_pair.213" = type { %"struct.std::__1::__compressed_pair_elem.214" }
%"struct.std::__1::__compressed_pair_elem.214" = type { %"class.blink::Worklist.215"* }
%"class.blink::Worklist.215" = type { [4 x %"struct.blink::Worklist<const blink::TraceWrapperV8Reference<v8::Value> *, 16, 4>::PrivateSegmentHolder"], %"class.blink::Worklist<const blink::TraceWrapperV8Reference<v8::Value> *, 16, 4>::GlobalPool" }
%"struct.blink::Worklist<const blink::TraceWrapperV8Reference<v8::Value> *, 16, 4>::PrivateSegmentHolder" = type { %"class.blink::Worklist<const blink::TraceWrapperV8Reference<v8::Value> *, 16, 4>::Segment"*, %"class.blink::Worklist<const blink::TraceWrapperV8Reference<v8::Value> *, 16, 4>::Segment"*, [64 x i8] }
%"class.blink::Worklist<const blink::TraceWrapperV8Reference<v8::Value> *, 16, 4>::Segment" = type opaque
%"class.blink::Worklist<const blink::TraceWrapperV8Reference<v8::Value> *, 16, 4>::GlobalPool" = type { %"class.base::Lock", %"class.blink::Worklist<const blink::TraceWrapperV8Reference<v8::Value> *, 16, 4>::Segment"*, %"struct.std::__1::atomic.169" }
%"class.std::__1::unique_ptr.219" = type { %"class.std::__1::__compressed_pair.220" }
%"class.std::__1::__compressed_pair.220" = type { %"struct.std::__1::__compressed_pair_elem.221" }
%"struct.std::__1::__compressed_pair_elem.221" = type { %"class.blink::Worklist.222"* }
%"class.blink::Worklist.222" = type { [4 x %"struct.blink::Worklist<blink::NotSafeToConcurrentlyTraceItem, 64, 4>::PrivateSegmentHolder"], %"class.blink::Worklist<blink::NotSafeToConcurrentlyTraceItem, 64, 4>::GlobalPool" }
%"struct.blink::Worklist<blink::NotSafeToConcurrentlyTraceItem, 64, 4>::PrivateSegmentHolder" = type { %"class.blink::Worklist<blink::NotSafeToConcurrentlyTraceItem, 64, 4>::Segment"*, %"class.blink::Worklist<blink::NotSafeToConcurrentlyTraceItem, 64, 4>::Segment"*, [64 x i8] }
%"class.blink::Worklist<blink::NotSafeToConcurrentlyTraceItem, 64, 4>::Segment" = type { %"class.blink::Worklist<blink::NotSafeToConcurrentlyTraceItem, 64, 4>::Segment"*, i64, [64 x %"struct.blink::NotSafeToConcurrentlyTraceItem"] }
%"struct.blink::NotSafeToConcurrentlyTraceItem" = type { %"struct.blink::TraceDescriptor", i64 }
%"class.blink::Worklist<blink::NotSafeToConcurrentlyTraceItem, 64, 4>::GlobalPool" = type { %"class.base::Lock", %"class.blink::Worklist<blink::NotSafeToConcurrentlyTraceItem, 64, 4>::Segment"*, %"struct.std::__1::atomic.169" }
%"class.std::__1::unique_ptr.226" = type { %"class.std::__1::__compressed_pair.227" }
%"class.std::__1::__compressed_pair.227" = type { %"struct.std::__1::__compressed_pair_elem.228" }
%"struct.std::__1::__compressed_pair_elem.228" = type { %"class.blink::WeakContainersWorklist"* }
%"class.blink::WeakContainersWorklist" = type { %"class.WTF::Mutex", %"class.std::__1::unordered_set" }
%"class.WTF::Mutex" = type { %"class.WTF::MutexBase" }
%"class.WTF::MutexBase" = type { %"struct.WTF::PlatformMutex" }
%"struct.WTF::PlatformMutex" = type { %union.pthread_mutex_t }
%"class.std::__1::unordered_set" = type { %"class.std::__1::__hash_table" }
%"class.std::__1::__hash_table" = type <{ %"class.std::__1::unique_ptr.229", %"class.std::__1::__compressed_pair.236", %"class.std::__1::__compressed_pair.241", %"class.std::__1::__compressed_pair.243", [4 x i8] }>
%"class.std::__1::unique_ptr.229" = type { %"class.std::__1::__compressed_pair.230" }
%"class.std::__1::__compressed_pair.230" = type { %"struct.std::__1::__compressed_pair_elem.231", %"struct.std::__1::__compressed_pair_elem.232" }
%"struct.std::__1::__compressed_pair_elem.231" = type { %"struct.std::__1::__hash_node_base"** }
%"struct.std::__1::__hash_node_base" = type { %"struct.std::__1::__hash_node_base"* }
%"struct.std::__1::__compressed_pair_elem.232" = type { %"class.std::__1::__bucket_list_deallocator" }
%"class.std::__1::__bucket_list_deallocator" = type { %"class.std::__1::__compressed_pair.233" }
%"class.std::__1::__compressed_pair.233" = type { %"struct.std::__1::__compressed_pair_elem.234" }
%"struct.std::__1::__compressed_pair_elem.234" = type { i64 }
%"class.std::__1::__compressed_pair.236" = type { %"struct.std::__1::__compressed_pair_elem.237" }
%"struct.std::__1::__compressed_pair_elem.237" = type { %"struct.std::__1::__hash_node_base" }
%"class.std::__1::__compressed_pair.241" = type { %"struct.std::__1::__compressed_pair_elem.234" }
%"class.std::__1::__compressed_pair.243" = type { %"struct.std::__1::__compressed_pair_elem.244" }
%"struct.std::__1::__compressed_pair_elem.244" = type { float }
%"class.std::__1::unique_ptr.249" = type { %"class.std::__1::__compressed_pair.250" }
%"class.std::__1::__compressed_pair.250" = type { %"struct.std::__1::__compressed_pair_elem.251" }
%"struct.std::__1::__compressed_pair_elem.251" = type { %"class.blink::HeapCompact"* }
%"class.blink::HeapCompact" = type <{ %"class.blink::ThreadHeap"*, %"class.std::__1::unique_ptr.252", i8, [7 x i8], i64, i64, i32, [4 x i8], i64, i8, [7 x i8] }>
%"class.std::__1::unique_ptr.252" = type { %"class.std::__1::__compressed_pair.253" }
%"class.std::__1::__compressed_pair.253" = type { %"struct.std::__1::__compressed_pair_elem.254" }
%"struct.std::__1::__compressed_pair_elem.254" = type { %"class.blink::HeapCompact::MovableObjectFixups"* }
%"class.blink::HeapCompact::MovableObjectFixups" = type opaque
%"struct.blink::ThreadHeap::LastAllocatedRegion" = type { i8*, i64 }
%"class.blink::BaseArena" = type <{ i32 (...)**, %"class.blink::PageStackThreadSafe", %"class.blink::PageStackThreadSafe", %"class.blink::PageStackThreadSafe", %"class.blink::PageStackThreadSafe", %"class.blink::ThreadState"*, i32, [4 x i8] }>
%"class.blink::PageStackThreadSafe" = type { %"class.blink::PageStack", %"class.WTF::Mutex" }
%"class.blink::PageStack" = type { %"class.WTF::Vector.261" }
%"class.WTF::Vector.261" = type { %"class.WTF::VectorBuffer.262" }
%"class.WTF::VectorBuffer.262" = type { %"class.WTF::VectorBufferBase.263" }
%"class.WTF::VectorBufferBase.263" = type { %"class.blink::BasePage"**, i32, i32 }
%"class.blink::BasePage" = type <{ i32 (...)**, %"class.blink::PageMemory"*, %"class.blink::BaseArena"*, %"class.blink::ThreadState"*, i64, i8, i8, i8, [5 x i8] }>
%"class.blink::PageMemory" = type opaque
%"class.std::__1::unique_ptr.269" = type { %"class.std::__1::__compressed_pair.270" }
%"class.std::__1::__compressed_pair.270" = type { %"struct.std::__1::__compressed_pair_elem.271" }
%"struct.std::__1::__compressed_pair_elem.271" = type { %"class.blink::PersistentRegion"* }
%"class.blink::PersistentRegion" = type { %"class.blink::PersistentRegionBase" }
%"class.blink::PersistentRegionBase" = type { %"class.blink::PersistentNode"*, %"struct.blink::PersistentNodeSlots"* }
%"struct.blink::PersistentNodeSlots" = type { %"struct.blink::PersistentNodeSlots"*, [256 x %"class.blink::PersistentNode"] }
%"class.WTF::Deque" = type { %"class.WTF::Deque<std::__1::pair<void *, bool (*)(const blink::LivenessBroker &, void *)>, 0, WTF::PartitionAllocator>::BackingBuffer", i32, i32 }
%"class.WTF::Deque<std::__1::pair<void *, bool (*)(const blink::LivenessBroker &, void *)>, 0, WTF::PartitionAllocator>::BackingBuffer" = type { %"class.WTF::VectorBuffer.277" }
%"class.WTF::VectorBuffer.277" = type { %"class.WTF::VectorBufferBase.278" }
%"class.WTF::VectorBufferBase.278" = type { %"struct.std::__1::pair"*, i32, i32 }
%"struct.std::__1::pair" = type { i8*, i1 (%"class.blink::LivenessBroker"*, i8*)* }
%"class.blink::LivenessBroker" = type { i8 }
%"class.v8::EmbedderGraph" = type opaque
%"class.std::__1::unique_ptr.279" = type { %"class.std::__1::__compressed_pair.280" }
%"class.std::__1::__compressed_pair.280" = type { %"struct.std::__1::__compressed_pair_elem.281" }
%"struct.std::__1::__compressed_pair_elem.281" = type { %"class.blink::UnifiedHeapController"* }
%"class.blink::UnifiedHeapController" = type opaque
%"class.std::__1::unique_ptr.285" = type { %"class.std::__1::__compressed_pair.286" }
%"class.std::__1::__compressed_pair.286" = type { %"struct.std::__1::__compressed_pair_elem.287" }
%"struct.std::__1::__compressed_pair_elem.287" = type { %"class.v8::EmbedderRootsHandler"* }
%"class.v8::EmbedderRootsHandler" = type { i32 (...)** }
%"struct.blink::ThreadState::GCData" = type { i32, i32, i32, i32, %"class.std::__1::unique_ptr.291" }
%"class.std::__1::unique_ptr.291" = type { %"class.std::__1::__compressed_pair.292" }
%"class.std::__1::__compressed_pair.292" = type { %"struct.std::__1::__compressed_pair_elem.293" }
%"struct.std::__1::__compressed_pair_elem.293" = type { %"class.blink::MarkingVisitor"* }
%"class.blink::MarkingVisitor" = type { %"class.blink::MarkingVisitorBase", %"class.blink::MarkingVisitor::RecentlyRetracedWeakContainers" }
%"class.blink::MarkingVisitorBase" = type { %"class.blink::Visitor", %"class.blink::Worklist<blink::TraceDescriptor, 512, 4>::View", %"class.blink::Worklist<blink::HeapObjectHeader *, 64, 4>::View", %"class.blink::Worklist<const void *, 16, 4>::View", %"class.blink::Worklist<blink::CustomCallbackItem, 64, 4>::View", %"class.blink::Worklist<const void *const *, 256, 4>::View", %"class.blink::Worklist<blink::EphemeronPairItem, 64, 4>::View", %"class.blink::Worklist<blink::EphemeronPairItem, 64, 4>::View", %"class.blink::WeakContainersWorklist"*, i64, i32, i32 }
%"class.blink::Worklist<blink::TraceDescriptor, 512, 4>::View" = type <{ %"class.blink::Worklist"*, i32, [4 x i8] }>
%"class.blink::Worklist<blink::HeapObjectHeader *, 64, 4>::View" = type <{ %"class.blink::Worklist.180"*, i32, [4 x i8] }>
%"class.blink::Worklist<const void *, 16, 4>::View" = type <{ %"class.blink::Worklist.187"*, i32, [4 x i8] }>
%"class.blink::Worklist<blink::CustomCallbackItem, 64, 4>::View" = type <{ %"class.blink::Worklist.194"*, i32, [4 x i8] }>
%"class.blink::Worklist<const void *const *, 256, 4>::View" = type <{ %"class.blink::Worklist.201"*, i32, [4 x i8] }>
%"class.blink::Worklist<blink::EphemeronPairItem, 64, 4>::View" = type <{ %"class.blink::Worklist.208"*, i32, [4 x i8] }>
%"class.blink::MarkingVisitor::RecentlyRetracedWeakContainers" = type { %"class.std::__1::vector", i64 }
%"class.std::__1::vector" = type { %"class.std::__1::__vector_base" }
%"class.std::__1::__vector_base" = type { %"class.blink::HeapObjectHeader"**, %"class.blink::HeapObjectHeader"**, %"class.std::__1::__compressed_pair.545" }
%"class.blink::HeapObjectHeader" = type { i32, i16, i16 }
%"class.std::__1::__compressed_pair.545" = type { %"struct.std::__1::__compressed_pair_elem.546" }
%"struct.std::__1::__compressed_pair_elem.546" = type { %"class.blink::HeapObjectHeader"** }
%"class.std::__1::unique_ptr.297" = type { %"class.std::__1::__compressed_pair.298" }
%"class.std::__1::__compressed_pair.298" = type { %"struct.std::__1::__compressed_pair_elem.299" }
%"struct.std::__1::__compressed_pair_elem.299" = type { %"class.blink::ThreadState::IncrementalMarkingScheduler"* }
%"class.blink::ThreadState::IncrementalMarkingScheduler" = type opaque
%"class.std::__1::unique_ptr.303" = type { %"class.std::__1::__compressed_pair.304" }
%"class.std::__1::__compressed_pair.304" = type { %"struct.std::__1::__compressed_pair_elem.305" }
%"struct.std::__1::__compressed_pair_elem.305" = type { %"class.blink::MarkingSchedulingOracle"* }
%"class.blink::MarkingSchedulingOracle" = type opaque
%"class.base::JobHandle" = type { %class.scoped_refptr.309 }
%class.scoped_refptr.309 = type { %"class.base::internal::JobTaskSource"* }
%"class.base::internal::JobTaskSource" = type opaque
%"struct.std::__1::atomic.310" = type { %"struct.std::__1::__atomic_base.311" }
%"struct.std::__1::__atomic_base.311" = type { %"struct.std::__1::__cxx_atomic_impl.312" }
%"struct.std::__1::__cxx_atomic_impl.312" = type { %"struct.std::__1::__cxx_atomic_base_impl.313" }
%"struct.std::__1::__cxx_atomic_base_impl.313" = type { i8 }
%"class.base::TimeTicks" = type { %"class.base::time_internal::TimeBase" }
%"class.base::time_internal::TimeBase" = type { i64 }
%"class.v8::Template" = type { i8 }
%"class.v8::Context" = type { i8 }
%"class.v8::Object" = type { i8 }
%"class.blink::WindowNameCollection" = type { %"class.blink::HTMLNameCollection" }
%"class.blink::HTMLNameCollection" = type { %"class.blink::HTMLCollection", %"class.WTF::AtomicString" }
%"class.blink::HTMLCollection" = type { %"class.blink::ScriptWrappable", %"class.blink::LiveNodeListBase.base", i8, %"class.blink::Member.8", %"class.blink::CollectionItemsCache" }
%"class.blink::LiveNodeListBase.base" = type <{ %"class.blink::GarbageCollectedMixin", %"class.blink::Member", i16 }>
%"class.blink::GarbageCollectedMixin" = type { i32 (...)** }
%"class.blink::Member" = type { %"class.blink::MemberBase" }
%"class.blink::MemberBase" = type { %"class.blink::ContainerNode"* }
%"class.blink::Member.8" = type { %"class.blink::MemberBase.9" }
%"class.blink::MemberBase.9" = type { %"class.blink::HTMLCollection::NamedItemCache"* }
%"class.blink::HTMLCollection::NamedItemCache" = type { %"class.blink::HeapHashMap", %"class.blink::HeapHashMap" }
%"class.blink::HeapHashMap" = type { %"class.WTF::HashMap" }
%"class.WTF::HashMap" = type { %"class.WTF::HashTable" }
%"class.WTF::HashTable" = type <{ %"struct.WTF::KeyValuePair"*, i32, i32, i32, [4 x i8] }>
%"struct.WTF::KeyValuePair" = type { %"class.WTF::StringImpl"*, %"class.blink::Member.15" }
%"class.blink::Member.15" = type { %"class.blink::MemberBase.16" }
%"class.blink::MemberBase.16" = type { %"class.blink::HeapVector"* }
%"class.blink::HeapVector" = type { %"class.WTF::Vector" }
%"class.WTF::Vector" = type { %"class.WTF::VectorBuffer" }
%"class.WTF::VectorBuffer" = type { %"class.WTF::VectorBufferBase" }
%"class.WTF::VectorBufferBase" = type { %"class.blink::Member.19"*, i32, i32 }
%"class.blink::Member.19" = type { %"class.blink::MemberBase.20" }
%"class.blink::MemberBase.20" = type { %"class.blink::Element"* }
%"class.blink::Element" = type { %"class.blink::ContainerNode", %"class.blink::Animatable", %"class.blink::QualifiedName", %"class.blink::Member.22" }
%"class.blink::ContainerNode" = type { %"class.blink::Node", %"class.blink::Member.0", %"class.blink::Member.0" }
%"class.blink::Node" = type { %"class.blink::EventTarget", i32, %"class.blink::Member.0", %"class.blink::Member.2", %"class.blink::Member.0", %"class.blink::Member.0", %"class.blink::Member.4" }
%"class.blink::EventTarget" = type { %"class.blink::ScriptWrappable" }
%"class.blink::Member.2" = type { %"class.blink::MemberBase.3" }
%"class.blink::MemberBase.3" = type { %"class.blink::TreeScope"* }
%"class.blink::TreeScope" = type { %"class.blink::GarbageCollectedMixin", %"class.blink::Member", %"class.blink::Member.38", %"class.blink::Member.2", %"class.blink::Member.40", %"class.blink::Member.40", %"class.blink::Member.55", %"class.blink::Member.57", %"class.blink::Member.59", %"class.blink::RadioButtonGroupScope", %"class.blink::Member.64", %"class.blink::HeapVector.66" }
%"class.blink::Member.38" = type { %"class.blink::MemberBase.39" }
%"class.blink::MemberBase.39" = type { %"class.blink::Document"* }
%"class.blink::Document" = type { %"class.blink::ContainerNode", %"class.blink::TreeScope", %"class.blink::UseCounter", %"class.blink::Supplementable", i32, %"class.blink::DocumentLifecycle", i8, i8, %"class.WTF::Vector.82", %"class.WTF::Vector.82", i8, i32, %"class.blink::Member.93", %"class.blink::Member.95", %"class.blink::Member.97", %"class.blink::Member.99", %"class.blink::Member.101", %"class.blink::Member.103", i8, %"class.blink::KURL", %"class.blink::KURL", %"class.blink::KURL", %"class.blink::KURL", %"class.blink::KURL", %"class.std::__1::unique_ptr.106", %"class.blink::KURL", %"class.WTF::AtomicString", %"class.WTF::AtomicString", %"class.blink::Member.112", %"class.blink::Member.114", %"class.blink::Member.72", i32, i32, i32, i8, %"class.blink::TaskHandle", %"class.blink::TaskHandle", %"class.WTF::Vector.117", i8, i32, i8, %"class.blink::HeapTaskRunnerTimer", %"class.blink::HeapVector", %"class.blink::Member.19", %"class.blink::Member.326", %"class.blink::Member.19", %"class.blink::Member.19", %"class.blink::Member.19", %"class.blink::UserActionElementSet", %"class.blink::Member.335", double, double, i64, i64, %"class.blink::HeapHashSet", %"class.blink::HeapHashSet.342", i16, i8, %"class.blink::Member.349", %"class.blink::Member.351", %"class.blink::Member.353", %"class.blink::Member.355", %"class.blink::TextLinkColors", %"class.blink::Member.357", i8, [7 x i8], %"class.blink::HeapHashMap.359", i32, i32, i8, i8, i8, i32, i32, i32, i8, %"class.WTF::String", %"class.WTF::String", %"class.blink::Member.19", %"class.WTF::Vector.366", %"class.blink::Member.371", %"class.blink::Member.373", i8, %"class.blink::Member.19", i8, i32, i8, %"class.base::ElapsedTimer", %"class.blink::Member.375", %"class.blink::HeapVector.377", %"class.std::__1::unique_ptr.385", %"class.WTF::String", %"class.WTF::String", i8, %"class.WTF::AtomicString", %"class.blink::DocumentEncodingData", i8, i8, [6 x i8], %"class.blink::HeapHashSet.391", %"class.blink::LiveNodeListRegistry", %"class.blink::Member.404", %"class.WTF::Vector.406", i8, i8, %"class.std::__1::unique_ptr.411", %"class.blink::NthIndexCache"*, i8, i8, i8, i8, i8, i8, %"class.blink::LayoutView"*, %"class.blink::HeapVector", %"class.blink::HeapVector.417", i32, i8, %"class.blink::HeapTaskRunnerTimer", %"class.blink::HeapTaskRunnerTimer", %"class.blink::DocumentTiming", %"class.blink::Member.425", i8, i32, %"class.blink::Member.427", %"class.blink::Member.429", %"class.blink::Member.431", %"class.blink::HeapTaskRunnerTimer", %"class.blink::Member.433", %"class.WTF::HashMap.435", %"class.blink::Member.440", %"class.blink::Member.442", %"class.blink::Member.444", %"class.blink::Member.446", %"class.blink::Member.38", %"class.blink::Member.38", %"class.blink::HeapTaskRunnerTimer", %"class.blink::HeapHashSet.448", i8, i32, %"class.blink::Member.455", %"class.blink::Member.457", i32, %"class.blink::Member.459", %"class.blink::Member.461", %"class.blink::Member.463", %"class.std::__1::unique_ptr.465", i64, %"class.std::__1::unique_ptr.471", i32, i32, %"class.blink::Member.477", %"class.blink::Member.479", %"class.blink::Member.481", i8, i32, i32, i32, i32, i32, i32, i32, i8, i8, %"class.blink::Member.483", %"class.WTF::Vector.489", %"class.WTF::AtomicString", %"class.blink::HeapHashMap.494", %"class.blink::Member.501", %"class.std::__1::unique_ptr.503", %"class.blink::Member.509", i8, i8, %"class.WTF::String", %"class.blink::Member.511", i8, [7 x i8], %"class.blink::HeapHashMap.513", %"class.blink::HeapObserverSet", %"class.blink::Member.527", i8, i8, i8, i8, i8, i8, i8, %"class.blink::Member.529", i32, i8, i8, %"class.blink::WeakMember.531", %"class.blink::Member.532" }
%"class.blink::UseCounter" = type { %"class.blink::GarbageCollectedMixin" }
%"class.blink::Supplementable" = type { %"class.blink::GarbageCollectedMixin", %"class.blink::HeapHashMap.75" }
%"class.blink::HeapHashMap.75" = type { %"class.WTF::HashMap.78" }
%"class.WTF::HashMap.78" = type { %"class.WTF::HashTable.79" }
%"class.WTF::HashTable.79" = type <{ %"struct.WTF::KeyValuePair.81"*, i32, i32, i32, [4 x i8] }>
%"struct.WTF::KeyValuePair.81" = type opaque
%"class.blink::DocumentLifecycle" = type <{ i32, i32, i32, i8, i8, [2 x i8] }>
%"class.WTF::Vector.82" = type { %"class.WTF::VectorBuffer.83" }
%"class.WTF::VectorBuffer.83" = type { %"class.WTF::VectorBufferBase.84" }
%"class.WTF::VectorBufferBase.84" = type { %"class.base::OnceCallback"*, i32, i32 }
%"class.base::OnceCallback" = type { %"class.base::internal::CallbackBase" }
%"class.base::internal::CallbackBase" = type { %class.scoped_refptr.85 }
%class.scoped_refptr.85 = type { %"class.base::internal::BindStateBase"* }
%"class.base::internal::BindStateBase" = type { %"class.base::RefCountedThreadSafe", void ()*, void (%"class.base::internal::BindStateBase"*)*, i1 (%"class.base::internal::BindStateBase"*, i32)* }
%"class.base::RefCountedThreadSafe" = type { %"class.base::subtle::RefCountedThreadSafeBase" }
%"class.base::subtle::RefCountedThreadSafeBase" = type { %"class.base::AtomicRefCount" }
%"class.base::AtomicRefCount" = type { %"struct.std::__1::atomic.86" }
%"struct.std::__1::atomic.86" = type { %"struct.std::__1::__atomic_base.87" }
%"struct.std::__1::__atomic_base.87" = type { %"struct.std::__1::__atomic_base.88" }
%"struct.std::__1::__atomic_base.88" = type { %"struct.std::__1::__cxx_atomic_impl.89" }
%"struct.std::__1::__cxx_atomic_impl.89" = type { %"struct.std::__1::__cxx_atomic_base_impl.90" }
%"struct.std::__1::__cxx_atomic_base_impl.90" = type { i32 }
%"class.blink::Member.93" = type { %"class.blink::MemberBase.94" }
%"class.blink::MemberBase.94" = type { %"class.blink::LocalDOMWindow"* }
%"class.blink::LocalDOMWindow" = type opaque
%"class.blink::Member.95" = type { %"class.blink::MemberBase.96" }
%"class.blink::MemberBase.96" = type { %"class.blink::ExecutionContext"* }
%"class.blink::ExecutionContext" = type <{ %"class.blink::Supplementable.550", %"class.blink::MojoBindingContext", %"class.blink::ConsoleLogger", %"class.blink::UseCounter", %"class.blink::FeatureContext", %"class.v8::Isolate"*, %"class.blink::SecurityContext", %"class.blink::Member.594", i32, i8, [3 x i8], %"class.blink::HeapVector.596", i32, i8, i8, i8, i8, i8, i8, [6 x i8], %"class.blink::Member.604", %"class.blink::Member.606", %"class.blink::DOMTimerCoordinator", i32, [4 x i8], %"class.std::__1::unique_ptr.615", %"class.blink::Member.621", %"class.blink::Member.623", i8, [7 x i8] }>
%"class.blink::Supplementable.550" = type { %"class.blink::GarbageCollectedMixin", %"class.blink::HeapHashMap.551" }
%"class.blink::HeapHashMap.551" = type { %"class.WTF::HashMap.554" }
%"class.WTF::HashMap.554" = type { %"class.WTF::HashTable.555" }
%"class.WTF::HashTable.555" = type <{ %"struct.WTF::KeyValuePair.557"*, i32, i32, i32, [4 x i8] }>
%"struct.WTF::KeyValuePair.557" = type opaque
%"class.blink::MojoBindingContext" = type { %"class.blink::ContextLifecycleNotifier", %"class.blink::Supplementable.566" }
%"class.blink::ContextLifecycleNotifier" = type { %"class.blink::GarbageCollectedMixin", %"class.blink::HeapObserverSet.558" }
%"class.blink::HeapObserverSet.558" = type { i32, [4 x i8], %"class.blink::HeapHashSet.559" }
%"class.blink::HeapHashSet.559" = type { %"class.WTF::HashSet.562" }
%"class.WTF::HashSet.562" = type { %"class.WTF::HashTable.563" }
%"class.WTF::HashTable.563" = type <{ %"class.blink::WeakMember.565"*, i32, i32, i32, [4 x i8] }>
%"class.blink::WeakMember.565" = type opaque
%"class.blink::Supplementable.566" = type { %"class.blink::GarbageCollectedMixin", %"class.blink::HeapHashMap.567" }
%"class.blink::HeapHashMap.567" = type { %"class.WTF::HashMap.570" }
%"class.WTF::HashMap.570" = type { %"class.WTF::HashTable.571" }
%"class.WTF::HashTable.571" = type <{ %"struct.WTF::KeyValuePair.573"*, i32, i32, i32, [4 x i8] }>
%"struct.WTF::KeyValuePair.573" = type { i8*, %"class.blink::Member.625" }
%"class.blink::Member.625" = type { %"class.blink::MemberBase.626" }
%"class.blink::MemberBase.626" = type { %"class.blink::Supplement"* }
%"class.blink::Supplement" = type { %"class.blink::GarbageCollectedMixin", %"class.blink::Member.627" }
%"class.blink::Member.627" = type { %"class.blink::MemberBase.628" }
%"class.blink::MemberBase.628" = type { %"class.blink::MojoBindingContext"* }
%"class.blink::ConsoleLogger" = type { %"class.blink::GarbageCollectedMixin" }
%"class.blink::FeatureContext" = type { i32 (...)** }
%"class.blink::SecurityContext" = type { i32 (...)**, i32, %class.scoped_refptr.574, %"class.std::__1::unique_ptr.578", %"class.std::__1::unique_ptr.578", %"class.std::__1::unique_ptr.584", %"class.std::__1::unique_ptr.584", %"class.blink::Member.95", i32, [4 x i8], %"class.WTF::HashSet.590", i32, i32 }
%class.scoped_refptr.574 = type { %"class.blink::SecurityOrigin"* }
%"class.blink::SecurityOrigin" = type { %"class.WTF::RefCounted.575", %"class.WTF::String", %"class.WTF::String", %"class.WTF::String", i16, %"class.absl::optional", i8, i8, i8, i8, i8, i8, %"class.base::UnguessableToken", %class.scoped_refptr.577 }
%"class.WTF::RefCounted.575" = type { %"class.base::RefCounted.576" }
%"class.base::RefCounted.576" = type { %"class.base::subtle::RefCountedBase" }
%"class.absl::optional" = type { %"class.absl::optional_internal::optional_data" }
%"class.absl::optional_internal::optional_data" = type { %"class.absl::optional_internal::optional_data_base" }
%"class.absl::optional_internal::optional_data_base" = type { %"class.absl::optional_internal::optional_data_dtor_base" }
%"class.absl::optional_internal::optional_data_dtor_base" = type { i8, %union.anon }
%union.anon = type { %"class.url::Origin::Nonce" }
%"class.url::Origin::Nonce" = type { %"class.base::UnguessableToken" }
%"class.base::UnguessableToken" = type { %"class.base::Token" }
%"class.base::Token" = type { i64, i64 }
%class.scoped_refptr.577 = type { %"class.blink::SecurityOrigin"* }
%"class.std::__1::unique_ptr.578" = type { %"class.std::__1::__compressed_pair.579" }
%"class.std::__1::__compressed_pair.579" = type { %"struct.std::__1::__compressed_pair_elem.580" }
%"struct.std::__1::__compressed_pair_elem.580" = type { %"class.blink::PermissionsPolicy"* }
%"class.blink::PermissionsPolicy" = type opaque
%"class.std::__1::unique_ptr.584" = type { %"class.std::__1::__compressed_pair.585" }
%"class.std::__1::__compressed_pair.585" = type { %"struct.std::__1::__compressed_pair_elem.586" }
%"struct.std::__1::__compressed_pair_elem.586" = type { %"class.blink::DocumentPolicy"* }
%"class.blink::DocumentPolicy" = type opaque
%"class.WTF::HashSet.590" = type { %"class.WTF::HashTable.591" }
%"class.WTF::HashTable.591" = type <{ i32*, i32, i32, i32, [4 x i8] }>
%"class.blink::Member.594" = type { %"class.blink::MemberBase.595" }
%"class.blink::MemberBase.595" = type { %"class.blink::Agent"* }
%"class.blink::Agent" = type opaque
%"class.blink::HeapVector.596" = type { %"class.WTF::Vector.599" }
%"class.WTF::Vector.599" = type { %"class.WTF::VectorBuffer.600" }
%"class.WTF::VectorBuffer.600" = type { %"class.WTF::VectorBufferBase.601" }
%"class.WTF::VectorBufferBase.601" = type { %"class.blink::Member.602"*, i32, i32 }
%"class.blink::Member.602" = type opaque
%"class.blink::Member.604" = type { %"class.blink::MemberBase.605" }
%"class.blink::MemberBase.605" = type { %"class.blink::PublicURLManager"* }
%"class.blink::PublicURLManager" = type opaque
%"class.blink::Member.606" = type { %"class.blink::MemberBase.607" }
%"class.blink::MemberBase.607" = type { %"class.blink::ContentSecurityPolicyDelegate"* }
%"class.blink::ContentSecurityPolicyDelegate" = type opaque
%"class.blink::DOMTimerCoordinator" = type { %"class.blink::HeapHashMap.608", i32, i32 }
%"class.blink::HeapHashMap.608" = type { %"class.WTF::HashMap.611" }
%"class.WTF::HashMap.611" = type { %"class.WTF::HashTable.612" }
%"class.WTF::HashTable.612" = type <{ %"struct.WTF::KeyValuePair.614"*, i32, i32, i32, [4 x i8] }>
%"struct.WTF::KeyValuePair.614" = type opaque
%"class.std::__1::unique_ptr.615" = type { %"class.std::__1::__compressed_pair.616" }
%"class.std::__1::__compressed_pair.616" = type { %"struct.std::__1::__compressed_pair_elem.617" }
%"struct.std::__1::__compressed_pair_elem.617" = type { %"class.blink::PolicyContainer"* }
%"class.blink::PolicyContainer" = type opaque
%"class.blink::Member.621" = type { %"class.blink::MemberBase.622" }
%"class.blink::MemberBase.622" = type { %"class.blink::OriginTrialContext"* }
%"class.blink::OriginTrialContext" = type opaque
%"class.blink::Member.623" = type { %"class.blink::MemberBase.624" }
%"class.blink::MemberBase.624" = type { %"class.blink::ContentSecurityPolicy"* }
%"class.blink::ContentSecurityPolicy" = type opaque
%"class.blink::Member.97" = type { %"class.blink::MemberBase.98" }
%"class.blink::MemberBase.98" = type { %"class.blink::ResourceFetcher"* }
%"class.blink::ResourceFetcher" = type opaque
%"class.blink::Member.99" = type { %"class.blink::MemberBase.100" }
%"class.blink::MemberBase.100" = type { %"class.blink::DocumentParser"* }
%"class.blink::DocumentParser" = type opaque
%"class.blink::Member.101" = type { %"class.blink::MemberBase.102" }
%"class.blink::MemberBase.102" = type { %"class.blink::ContextFeatures"* }
%"class.blink::ContextFeatures" = type opaque
%"class.blink::Member.103" = type { %"class.blink::MemberBase.104" }
%"class.blink::MemberBase.104" = type { %"class.blink::HttpRefreshScheduler"* }
%"class.blink::HttpRefreshScheduler" = type opaque
%"class.std::__1::unique_ptr.106" = type { %"class.std::__1::__compressed_pair.107" }
%"class.std::__1::__compressed_pair.107" = type { %"struct.std::__1::__compressed_pair_elem.108" }
%"struct.std::__1::__compressed_pair_elem.108" = type { %"class.blink::OriginAccessEntry"* }
%"class.blink::OriginAccessEntry" = type opaque
%"class.blink::KURL" = type { i8, i8, %"class.WTF::String", %"struct.url::Parsed", %"class.WTF::String", %"class.std::__1::unique_ptr" }
%"struct.url::Parsed" = type { %"struct.url::Component", %"struct.url::Component", %"struct.url::Component", %"struct.url::Component", %"struct.url::Component", %"struct.url::Component", %"struct.url::Component", %"struct.url::Component", i8, %"struct.url::Parsed"* }
%"struct.url::Component" = type { i32, i32 }
%"class.std::__1::unique_ptr" = type { %"class.std::__1::__compressed_pair" }
%"class.std::__1::__compressed_pair" = type { %"struct.std::__1::__compressed_pair_elem" }
%"struct.std::__1::__compressed_pair_elem" = type { %"class.blink::KURL"* }
%"class.blink::Member.112" = type { %"class.blink::MemberBase.113" }
%"class.blink::MemberBase.113" = type { %"class.blink::DocumentType"* }
%"class.blink::DocumentType" = type opaque
%"class.blink::Member.114" = type { %"class.blink::MemberBase.115" }
%"class.blink::MemberBase.115" = type { %"class.blink::DOMImplementation"* }
%"class.blink::DOMImplementation" = type opaque
%"class.blink::Member.72" = type { %"class.blink::MemberBase.73" }
%"class.blink::MemberBase.73" = type { %"class.blink::CSSStyleSheet"* }
%"class.blink::CSSStyleSheet" = type opaque
%"class.blink::TaskHandle" = type { %class.scoped_refptr.116 }
%class.scoped_refptr.116 = type { %"class.blink::TaskHandle::Runner"* }
%"class.blink::TaskHandle::Runner" = type opaque
%"class.WTF::Vector.117" = type { %"class.WTF::VectorBuffer.118" }
%"class.WTF::VectorBuffer.118" = type { %"class.WTF::VectorBufferBase.119" }
%"class.WTF::VectorBufferBase.119" = type { %"struct.blink::Document::PendingJavascriptUrl"*, i32, i32 }
%"struct.blink::Document::PendingJavascriptUrl" = type { %"class.blink::KURL", %class.scoped_refptr.120 }
%class.scoped_refptr.120 = type { %"class.blink::DOMWrapperWorld"* }
%"class.blink::Member.326" = type { %"class.blink::MemberBase.327" }
%"class.blink::MemberBase.327" = type { %"class.blink::Range"* }
%"class.blink::Range" = type opaque
%"class.blink::UserActionElementSet" = type { %"class.blink::HeapHashMap.328" }
%"class.blink::HeapHashMap.328" = type { %"class.WTF::HashMap.331" }
%"class.WTF::HashMap.331" = type { %"class.WTF::HashTable.332" }
%"class.WTF::HashTable.332" = type <{ %"struct.WTF::KeyValuePair.334"*, i32, i32, i32, [4 x i8] }>
%"struct.WTF::KeyValuePair.334" = type opaque
%"class.blink::Member.335" = type { %"class.blink::MemberBase.336" }
%"class.blink::MemberBase.336" = type { %"class.blink::RootScrollerController"* }
%"class.blink::RootScrollerController" = type opaque
%"class.blink::HeapHashSet" = type { %"class.WTF::HashSet" }
%"class.WTF::HashSet" = type { %"class.WTF::HashTable.339" }
%"class.WTF::HashTable.339" = type <{ %"class.blink::WeakMember.341"*, i32, i32, i32, [4 x i8] }>
%"class.blink::WeakMember.341" = type opaque
%"class.blink::HeapHashSet.342" = type { %"class.WTF::HashSet.345" }
%"class.WTF::HashSet.345" = type { %"class.WTF::HashTable.346" }
%"class.WTF::HashTable.346" = type <{ %"class.blink::WeakMember.348"*, i32, i32, i32, [4 x i8] }>
%"class.blink::WeakMember.348" = type opaque
%"class.blink::Member.349" = type { %"class.blink::MemberBase.350" }
%"class.blink::MemberBase.350" = type { %"class.blink::ElementIntersectionObserverData"* }
%"class.blink::ElementIntersectionObserverData" = type opaque
%"class.blink::Member.351" = type { %"class.blink::MemberBase.352" }
%"class.blink::MemberBase.352" = type { %"class.blink::StyleEngine"* }
%"class.blink::StyleEngine" = type opaque
%"class.blink::Member.353" = type { %"class.blink::MemberBase.354" }
%"class.blink::MemberBase.354" = type { %"class.blink::StyleSheetList"* }
%"class.blink::StyleSheetList" = type opaque
%"class.blink::Member.355" = type { %"class.blink::MemberBase.356" }
%"class.blink::MemberBase.356" = type { %"class.blink::FormController"* }
%"class.blink::FormController" = type opaque
%"class.blink::TextLinkColors" = type { %"class.blink::Color", %"class.blink::Color", %"class.blink::Color", %"class.blink::Color", i8, i8, i8, i8 }
%"class.blink::Color" = type { i32 }
%"class.blink::Member.357" = type { %"class.blink::MemberBase.358" }
%"class.blink::MemberBase.358" = type { %"class.blink::VisitedLinkState"* }
%"class.blink::VisitedLinkState" = type opaque
%"class.blink::HeapHashMap.359" = type { %"class.WTF::HashMap.362" }
%"class.WTF::HashMap.362" = type { %"class.WTF::HashTable.363" }
%"class.WTF::HashTable.363" = type <{ %"struct.WTF::KeyValuePair.365"*, i32, i32, i32, [4 x i8] }>
%"struct.WTF::KeyValuePair.365" = type opaque
%"class.WTF::Vector.366" = type { %"class.WTF::VectorBuffer.367" }
%"class.WTF::VectorBuffer.367" = type { %"class.WTF::VectorBufferBase.368" }
%"class.WTF::VectorBufferBase.368" = type { %"class.blink::AXContext"**, i32, i32 }
%"class.blink::AXContext" = type opaque
%"class.blink::Member.371" = type { %"class.blink::MemberBase.372" }
%"class.blink::MemberBase.372" = type { %"class.blink::AXObjectCache"* }
%"class.blink::AXObjectCache" = type opaque
%"class.blink::Member.373" = type { %"class.blink::MemberBase.374" }
%"class.blink::MemberBase.374" = type { %"class.blink::DocumentMarkerController"* }
%"class.blink::DocumentMarkerController" = type opaque
%"class.base::ElapsedTimer" = type { %"class.base::TimeTicks" }
%"class.blink::Member.375" = type { %"class.blink::MemberBase.376" }
%"class.blink::MemberBase.376" = type { %"class.blink::ScriptRunner"* }
%"class.blink::ScriptRunner" = type opaque
%"class.blink::HeapVector.377" = type { %"class.WTF::Vector.380" }
%"class.WTF::Vector.380" = type { %"class.WTF::VectorBuffer.381" }
%"class.WTF::VectorBuffer.381" = type { %"class.WTF::VectorBufferBase.382" }
%"class.WTF::VectorBufferBase.382" = type { %"class.blink::Member.383"*, i32, i32 }
%"class.blink::Member.383" = type opaque
%"class.std::__1::unique_ptr.385" = type { %"class.std::__1::__compressed_pair.386" }
%"class.std::__1::__compressed_pair.386" = type { %"struct.std::__1::__compressed_pair_elem.387" }
%"struct.std::__1::__compressed_pair_elem.387" = type { %"class.blink::TransformSource"* }
%"class.blink::TransformSource" = type opaque
%"class.blink::DocumentEncodingData" = type <{ %"class.WTF::TextEncoding", i8, i8, [6 x i8] }>
%"class.WTF::TextEncoding" = type { i8* }
%"class.blink::HeapHashSet.391" = type { %"class.WTF::HashSet.394" }
%"class.WTF::HashSet.394" = type { %"class.WTF::HashTable.395" }
%"class.WTF::HashTable.395" = type <{ %"class.blink::WeakMember.397"*, i32, i32, i32, [4 x i8] }>
%"class.blink::WeakMember.397" = type opaque
%"class.blink::LiveNodeListRegistry" = type <{ %"class.WTF::Vector.398", i32, [4 x i8] }>
%"class.WTF::Vector.398" = type { %"class.WTF::VectorBuffer.399" }
%"class.WTF::VectorBuffer.399" = type { %"class.WTF::VectorBufferBase.400" }
%"class.WTF::VectorBufferBase.400" = type { %"struct.std::__1::pair.401"*, i32, i32 }
%"struct.std::__1::pair.401" = type opaque
%"class.blink::Member.404" = type { %"class.blink::MemberBase.405" }
%"class.blink::MemberBase.405" = type { %"class.blink::SVGDocumentExtensions"* }
%"class.blink::SVGDocumentExtensions" = type opaque
%"class.WTF::Vector.406" = type { %"class.WTF::VectorBuffer.407" }
%"class.WTF::VectorBuffer.407" = type { %"class.WTF::VectorBufferBase.408" }
%"class.WTF::VectorBufferBase.408" = type { %"struct.blink::AnnotatedRegionValue"*, i32, i32 }
%"struct.blink::AnnotatedRegionValue" = type opaque
%"class.std::__1::unique_ptr.411" = type { %"class.std::__1::__compressed_pair.412" }
%"class.std::__1::__compressed_pair.412" = type { %"struct.std::__1::__compressed_pair_elem.413" }
%"struct.std::__1::__compressed_pair_elem.413" = type { %"class.blink::SelectorQueryCache"* }
%"class.blink::SelectorQueryCache" = type opaque
%"class.blink::NthIndexCache" = type opaque
%"class.blink::LayoutView" = type opaque
%"class.blink::HeapVector.417" = type { %"class.WTF::Vector.420" }
%"class.WTF::Vector.420" = type { %"class.WTF::VectorBuffer.421" }
%"class.WTF::VectorBuffer.421" = type { %"class.WTF::VectorBufferBase.422" }
%"class.WTF::VectorBufferBase.422" = type { %"class.blink::Member.423"*, i32, i32 }
%"class.blink::Member.423" = type opaque
%"class.blink::DocumentTiming" = type { %"class.base::TimeTicks", %"class.base::TimeTicks", %"class.base::TimeTicks", %"class.base::TimeTicks", %"class.base::TimeTicks", %"class.blink::Member.38" }
%"class.blink::Member.425" = type { %"class.blink::MemberBase.426" }
%"class.blink::MemberBase.426" = type { %"class.blink::MediaQueryMatcher"* }
%"class.blink::MediaQueryMatcher" = type opaque
%"class.blink::Member.427" = type { %"class.blink::MemberBase.428" }
%"class.blink::MemberBase.428" = type { %"class.blink::ScriptedAnimationController"* }
%"class.blink::ScriptedAnimationController" = type opaque
%"class.blink::Member.429" = type { %"class.blink::MemberBase.430" }
%"class.blink::MemberBase.430" = type { %"class.blink::ScriptedIdleTaskController"* }
%"class.blink::ScriptedIdleTaskController" = type opaque
%"class.blink::Member.431" = type { %"class.blink::MemberBase.432" }
%"class.blink::MemberBase.432" = type { %"class.blink::TextAutosizer"* }
%"class.blink::TextAutosizer" = type opaque
%"class.blink::Member.433" = type { %"class.blink::MemberBase.434" }
%"class.blink::MemberBase.434" = type { %"class.blink::ElementDataCache"* }
%"class.blink::ElementDataCache" = type opaque
%"class.WTF::HashMap.435" = type { %"class.WTF::HashTable.436" }
%"class.WTF::HashTable.436" = type <{ %"struct.WTF::KeyValuePair.439"*, i32, i32, i32, [4 x i8] }>
%"struct.WTF::KeyValuePair.439" = type opaque
%"class.blink::Member.440" = type { %"class.blink::MemberBase.441" }
%"class.blink::MemberBase.441" = type { %"class.blink::DocumentAnimations"* }
%"class.blink::DocumentAnimations" = type opaque
%"class.blink::Member.442" = type { %"class.blink::MemberBase.443" }
%"class.blink::MemberBase.443" = type { %"class.blink::DocumentTimeline"* }
%"class.blink::DocumentTimeline" = type opaque
%"class.blink::Member.444" = type { %"class.blink::MemberBase.445" }
%"class.blink::MemberBase.445" = type { %"class.blink::PendingAnimations"* }
%"class.blink::PendingAnimations" = type opaque
%"class.blink::Member.446" = type { %"class.blink::MemberBase.447" }
%"class.blink::MemberBase.447" = type { %"class.blink::WorkletAnimationController"* }
%"class.blink::WorkletAnimationController" = type opaque
%"class.blink::HeapTaskRunnerTimer" = type { %"class.blink::TimerBase", %"class.blink::WeakMember.325", { i64, i64 } }
%"class.blink::TimerBase" = type { i32 (...)**, %"class.base::TimeTicks", %"class.base::TimeDelta", %"class.base::Location", %class.scoped_refptr.316, %"class.base::WeakPtrFactory" }
%"class.base::TimeDelta" = type { i64 }
%"class.base::Location" = type { i8*, i8*, i32, i8* }
%class.scoped_refptr.316 = type { %"class.base::SingleThreadTaskRunner"* }
%"class.base::SingleThreadTaskRunner" = type { %"class.base::SequencedTaskRunner.base", [4 x i8] }
%"class.base::SequencedTaskRunner.base" = type { %"class.base::TaskRunner.base" }
%"class.base::TaskRunner.base" = type <{ i32 (...)**, %"class.base::RefCountedThreadSafe.317" }>
%"class.base::RefCountedThreadSafe.317" = type { %"class.base::subtle::RefCountedThreadSafeBase" }
%"class.base::WeakPtrFactory" = type { %"class.base::internal::WeakPtrFactoryBase" }
%"class.base::internal::WeakPtrFactoryBase" = type { %"class.base::internal::WeakReferenceOwner", i64 }
%"class.base::internal::WeakReferenceOwner" = type { %class.scoped_refptr.318 }
%class.scoped_refptr.318 = type { %"class.base::internal::WeakReference::Flag"* }
%"class.base::internal::WeakReference::Flag" = type <{ %"class.base::RefCountedThreadSafe.319", %"class.base::AtomicFlag", [3 x i8] }>
%"class.base::RefCountedThreadSafe.319" = type { %"class.base::subtle::RefCountedThreadSafeBase" }
%"class.base::AtomicFlag" = type { %"struct.std::__1::atomic.320" }
%"struct.std::__1::atomic.320" = type { %"struct.std::__1::__atomic_base.321" }
%"struct.std::__1::__atomic_base.321" = type { %"struct.std::__1::__atomic_base.322" }
%"struct.std::__1::__atomic_base.322" = type { %"struct.std::__1::__cxx_atomic_impl.323" }
%"struct.std::__1::__cxx_atomic_impl.323" = type { %"struct.std::__1::__cxx_atomic_base_impl.324" }
%"struct.std::__1::__cxx_atomic_base_impl.324" = type { i8 }
%"class.blink::WeakMember.325" = type { %"class.blink::MemberBase.39" }
%"class.blink::HeapHashSet.448" = type { %"class.WTF::HashSet.451" }
%"class.WTF::HashSet.451" = type { %"class.WTF::HashTable.452" }
%"class.WTF::HashTable.452" = type <{ %"class.blink::Member.454"*, i32, i32, i32, [4 x i8] }>
%"class.blink::Member.454" = type opaque
%"class.blink::Member.455" = type { %"class.blink::MemberBase.456" }
%"class.blink::MemberBase.456" = type { %"class.blink::CanvasFontCache"* }
%"class.blink::CanvasFontCache" = type opaque
%"class.blink::Member.457" = type { %"class.blink::MemberBase.458" }
%"class.blink::MemberBase.458" = type { %"class.blink::IntersectionObserverController"* }
%"class.blink::IntersectionObserverController" = type opaque
%"class.blink::Member.459" = type { %"class.blink::MemberBase.460" }
%"class.blink::MemberBase.460" = type { %"class.blink::SnapCoordinator"* }
%"class.blink::SnapCoordinator" = type opaque
%"class.blink::Member.461" = type { %"class.blink::MemberBase.462" }
%"class.blink::MemberBase.462" = type { %"class.blink::PropertyRegistry"* }
%"class.blink::PropertyRegistry" = type opaque
%"class.blink::Member.463" = type { %"class.blink::MemberBase.464" }
%"class.blink::MemberBase.464" = type { %"class.blink::Document::NetworkStateObserver"* }
%"class.blink::Document::NetworkStateObserver" = type opaque
%"class.std::__1::unique_ptr.465" = type { %"class.std::__1::__compressed_pair.466" }
%"class.std::__1::__compressed_pair.466" = type { %"struct.std::__1::__compressed_pair_elem.467" }
%"struct.std::__1::__compressed_pair_elem.467" = type { %"class.ukm::UkmRecorder"* }
%"class.ukm::UkmRecorder" = type opaque
%"class.std::__1::unique_ptr.471" = type { %"class.std::__1::__compressed_pair.472" }
%"class.std::__1::__compressed_pair.472" = type { %"struct.std::__1::__compressed_pair_elem.473" }
%"struct.std::__1::__compressed_pair_elem.473" = type { %"class.blink::FontMatchingMetrics"* }
%"class.blink::FontMatchingMetrics" = type opaque
%"class.blink::Member.477" = type { %"class.blink::MemberBase.478" }
%"class.blink::MemberBase.478" = type { %"class.blink::DOMFeaturePolicy"* }
%"class.blink::DOMFeaturePolicy" = type opaque
%"class.blink::Member.479" = type { %"class.blink::MemberBase.480" }
%"class.blink::MemberBase.480" = type { %"class.blink::SlotAssignmentEngine"* }
%"class.blink::SlotAssignmentEngine" = type opaque
%"class.blink::Member.481" = type { %"class.blink::MemberBase.482" }
%"class.blink::MemberBase.482" = type { %"class.blink::ViewportData"* }
%"class.blink::ViewportData" = type opaque
%"class.blink::Member.483" = type { %"class.blink::MemberBase.484" }
%"class.blink::MemberBase.484" = type { %"class.blink::LazyLoadImageObserver"* }
%"class.blink::LazyLoadImageObserver" = type <{ %"class.blink::Member.487", %"class.blink::Member.487", i32, i8, [3 x i8] }>
%"class.blink::Member.487" = type { %"class.blink::MemberBase.488" }
%"class.blink::MemberBase.488" = type { %"class.blink::IntersectionObserver"* }
%"class.blink::IntersectionObserver" = type opaque
%"class.WTF::Vector.489" = type { %"class.WTF::VectorBuffer.490" }
%"class.WTF::VectorBuffer.490" = type { %"class.WTF::VectorBufferBase.491" }
%"class.WTF::VectorBufferBase.491" = type { i8*, i32, i32 }
%"class.blink::HeapHashMap.494" = type { %"class.WTF::HashMap.497" }
%"class.WTF::HashMap.497" = type { %"class.WTF::HashTable.498" }
%"class.WTF::HashTable.498" = type <{ %"struct.WTF::KeyValuePair.500"*, i32, i32, i32, [4 x i8] }>
%"struct.WTF::KeyValuePair.500" = type opaque
%"class.blink::Member.501" = type { %"class.blink::MemberBase.502" }
%"class.blink::MemberBase.502" = type { %"class.blink::BeforeUnloadEventListener"* }
%"class.blink::BeforeUnloadEventListener" = type opaque
%"class.std::__1::unique_ptr.503" = type { %"class.std::__1::__compressed_pair.504" }
%"class.std::__1::__compressed_pair.504" = type { %"struct.std::__1::__compressed_pair_elem.505" }
%"struct.std::__1::__compressed_pair_elem.505" = type { %"class.blink::DocumentResourceCoordinator"* }
%"class.blink::DocumentResourceCoordinator" = type opaque
%"class.blink::Member.509" = type { %"class.blink::MemberBase.510" }
%"class.blink::MemberBase.510" = type { %"class.blink::CookieJar"* }
%"class.blink::CookieJar" = type opaque
%"class.blink::Member.511" = type { %"class.blink::MemberBase.512" }
%"class.blink::MemberBase.512" = type { %"class.blink::FragmentDirective"* }
%"class.blink::FragmentDirective" = type { %"class.blink::ScriptWrappable" }
%"class.blink::HeapHashMap.513" = type { %"class.WTF::HashMap.516" }
%"class.WTF::HashMap.516" = type { %"class.WTF::HashTable.517" }
%"class.WTF::HashTable.517" = type <{ %"struct.WTF::KeyValuePair.519"*, i32, i32, i32, [4 x i8] }>
%"struct.WTF::KeyValuePair.519" = type opaque
%"class.blink::HeapObserverSet" = type { i32, [4 x i8], %"class.blink::HeapHashSet.520" }
%"class.blink::HeapHashSet.520" = type { %"class.WTF::HashSet.523" }
%"class.WTF::HashSet.523" = type { %"class.WTF::HashTable.524" }
%"class.WTF::HashTable.524" = type <{ %"class.blink::WeakMember.526"*, i32, i32, i32, [4 x i8] }>
%"class.blink::WeakMember.526" = type opaque
%"class.blink::Member.527" = type { %"class.blink::MemberBase.528" }
%"class.blink::MemberBase.528" = type { %"class.blink::DisplayLockDocumentState"* }
%"class.blink::DisplayLockDocumentState" = type opaque
%"class.blink::Member.529" = type { %"class.blink::MemberBase.530" }
%"class.blink::MemberBase.530" = type { %"class.blink::FontPreloadManager"* }
%"class.blink::FontPreloadManager" = type <{ %"class.blink::Member.38", %"class.blink::HeapHashSet.536", i32, [4 x i8], %"class.blink::HeapTaskRunnerTimer.543", %"class.base::TimeDelta", i32, [4 x i8] }>
%"class.blink::HeapHashSet.536" = type { %"class.WTF::HashSet.539" }
%"class.WTF::HashSet.539" = type { %"class.WTF::HashTable.540" }
%"class.WTF::HashTable.540" = type <{ %"class.blink::Member.542"*, i32, i32, i32, [4 x i8] }>
%"class.blink::Member.542" = type opaque
%"class.blink::HeapTaskRunnerTimer.543" = type { %"class.blink::TimerBase", %"class.blink::WeakMember.544", { i64, i64 } }
%"class.blink::WeakMember.544" = type { %"class.blink::MemberBase.530" }
%"class.blink::WeakMember.531" = type { %"class.blink::MemberBase.1" }
%"class.blink::MemberBase.1" = type { %"class.blink::Node"* }
%"class.blink::Member.532" = type { %"class.blink::MemberBase.533" }
%"class.blink::MemberBase.533" = type { %"class.blink::DocumentData"* }
%"class.blink::DocumentData" = type opaque
%"class.blink::Member.40" = type { %"class.blink::MemberBase.41" }
%"class.blink::MemberBase.41" = type { %"class.blink::TreeOrderedMap"* }
%"class.blink::TreeOrderedMap" = type { %"class.blink::HeapHashMap.44" }
%"class.blink::HeapHashMap.44" = type { %"class.WTF::HashMap.47" }
%"class.WTF::HashMap.47" = type { %"class.WTF::HashTable.48" }
%"class.WTF::HashTable.48" = type <{ %"struct.WTF::KeyValuePair.50"*, i32, i32, i32, [4 x i8] }>
%"struct.WTF::KeyValuePair.50" = type { %"class.WTF::AtomicString", %"class.blink::Member.51" }
%"class.blink::Member.51" = type { %"class.blink::MemberBase.52" }
%"class.blink::MemberBase.52" = type { %"class.blink::TreeOrderedMap::MapEntry"* }
%"class.blink::TreeOrderedMap::MapEntry" = type { %"class.blink::Member.19", i32, %"class.blink::HeapVector" }
%"class.blink::Member.55" = type { %"class.blink::MemberBase.56" }
%"class.blink::MemberBase.56" = type { %"class.blink::IdTargetObserverRegistry"* }
%"class.blink::IdTargetObserverRegistry" = type opaque
%"class.blink::Member.57" = type { %"class.blink::MemberBase.58" }
%"class.blink::MemberBase.58" = type { %"class.blink::ScopedStyleResolver"* }
%"class.blink::ScopedStyleResolver" = type opaque
%"class.blink::Member.59" = type { %"class.blink::MemberBase.60" }
%"class.blink::MemberBase.60" = type { %"class.blink::DOMSelection"* }
%"class.blink::DOMSelection" = type opaque
%"class.blink::RadioButtonGroupScope" = type { %"class.blink::Member.61" }
%"class.blink::Member.61" = type { %"class.blink::MemberBase.62" }
%"class.blink::MemberBase.62" = type { %"class.blink::HeapHashMap.63"* }
%"class.blink::HeapHashMap.63" = type opaque
%"class.blink::Member.64" = type { %"class.blink::MemberBase.65" }
%"class.blink::MemberBase.65" = type { %"class.blink::SVGTreeScopeResources"* }
%"class.blink::SVGTreeScopeResources" = type opaque
%"class.blink::HeapVector.66" = type { %"class.WTF::Vector.69" }
%"class.WTF::Vector.69" = type { %"class.WTF::VectorBuffer.70" }
%"class.WTF::VectorBuffer.70" = type { %"class.WTF::VectorBufferBase.71" }
%"class.WTF::VectorBufferBase.71" = type { %"class.blink::Member.72"*, i32, i32 }
%"class.blink::Member.4" = type { %"class.blink::MemberBase.5" }
%"class.blink::MemberBase.5" = type { %"class.blink::NodeData"* }
%"class.blink::NodeData" = type { i16, %"class.WTF::ConcurrentlyReadBitField" }
%"class.WTF::ConcurrentlyReadBitField" = type { %"class.WTF::SingleThreadedBitField" }
%"class.WTF::SingleThreadedBitField" = type { i16 }
%"class.blink::Member.0" = type { %"class.blink::MemberBase.1" }
%"class.blink::Animatable" = type { i32 (...)** }
%"class.blink::Member.22" = type { %"class.blink::MemberBase.23" }
%"class.blink::MemberBase.23" = type { %"class.blink::ElementData"* }
%"class.blink::ElementData" = type { %"class.WTF::ConcurrentlyReadBitField.26", %"class.blink::Member.28", %"class.blink::SpaceSplitString", %"class.WTF::AtomicString" }
%"class.WTF::ConcurrentlyReadBitField.26" = type { %"class.WTF::SingleThreadedBitField.27" }
%"class.WTF::SingleThreadedBitField.27" = type { i32 }
%"class.blink::Member.28" = type { %"class.blink::MemberBase.29" }
%"class.blink::MemberBase.29" = type { %"class.blink::CSSPropertyValueSet"* }
%"class.blink::CSSPropertyValueSet" = type opaque
%"class.blink::SpaceSplitString" = type { %class.scoped_refptr.30 }
%class.scoped_refptr.30 = type { %"class.blink::SpaceSplitString::Data"* }
%"class.blink::SpaceSplitString::Data" = type { %"class.WTF::RefCounted.31", %"class.WTF::AtomicString", %"class.WTF::Vector.33" }
%"class.WTF::RefCounted.31" = type { %"class.base::RefCounted.32" }
%"class.base::RefCounted.32" = type { %"class.base::subtle::RefCountedBase" }
%"class.WTF::Vector.33" = type { %"class.WTF::VectorBuffer.34" }
%"class.WTF::VectorBuffer.34" = type { %"class.WTF::VectorBufferBase.35", [32 x i8] }
%"class.WTF::VectorBufferBase.35" = type { %"class.WTF::AtomicString"*, i32, i32 }
%"class.blink::CollectionItemsCache" = type { %"class.blink::CollectionIndexCache", i8, %"class.blink::HeapVector" }
%"class.blink::CollectionIndexCache" = type { i32 (...)**, %"class.blink::Member.19", i32, i32 }
%"class.blink::UniqueElementData" = type { %"class.blink::ElementData", %"class.blink::Member.28", %"class.WTF::Vector.643" }
%"class.WTF::Vector.643" = type { %"class.WTF::VectorBuffer.644" }
%"class.WTF::VectorBuffer.644" = type { %"class.WTF::VectorBufferBase.645", [64 x i8] }
%"class.WTF::VectorBufferBase.645" = type { %"class.blink::Attribute"*, i32, i32 }
%"class.blink::Attribute" = type { %"class.blink::QualifiedName", %"class.WTF::AtomicString" }
%"class.v8::Value" = type { i8 }
%"class.blink::ScriptState" = type { %"class.v8::Isolate"*, %"class.blink::ScopedPersistent", %class.scoped_refptr.633, %"class.blink::Member.634", %"class.blink::SelfKeepAlive", %"class.util::TokenType" }
%"class.blink::ScopedPersistent" = type { %"class.v8::Persistent" }
%"class.v8::Persistent" = type { %"class.v8::PersistentBase" }
%"class.v8::PersistentBase" = type { %"class.v8::Context"* }
%class.scoped_refptr.633 = type { %"class.blink::DOMWrapperWorld"* }
%"class.blink::Member.634" = type { %"class.blink::MemberBase.635" }
%"class.blink::MemberBase.635" = type { %"class.blink::V8PerContextData"* }
%"class.blink::V8PerContextData" = type opaque
%"class.blink::SelfKeepAlive" = type { %"class.blink::Persistent.636" }
%"class.blink::Persistent.636" = type { %"class.blink::PersistentBase.637" }
%"class.blink::PersistentBase.637" = type { %"class.blink::ScriptState"*, %"class.blink::PersistentNodePtr" }
%"class.util::TokenType" = type { %"class.base::StrongAlias" }
%"class.base::StrongAlias" = type { %"class.base::UnguessableToken" }
%"class.WTF::Vector.638" = type { %"class.WTF::VectorBuffer.639" }
%"class.WTF::VectorBuffer.639" = type { %"class.WTF::VectorBufferBase.640" }
%"class.WTF::VectorBufferBase.640" = type { %"class.WTF::String"*, i32, i32 }

$_ZN5blink20WindowNameCollectionD0Ev = comdat any

$_ZNK5blink15ScriptWrappable18HasPendingActivityEv = comdat any

$_ZNK5blink15ScriptWrappable17HasEventListenersEv = comdat any

$_ZNK5blink14HTMLCollection18GetWrapperTypeInfoEv = comdat any

$_ZThn16_N5blink20WindowNameCollectionD1Ev = comdat any

$_ZThn16_N5blink20WindowNameCollectionD0Ev = comdat any

$_ZTVN5blink20WindowNameCollectionE = comdat any

@_ZTVN5blink20WindowNameCollectionE = linkonce_odr hidden unnamed_addr constant { [16 x i8*], [6 x i8*] } { [16 x i8*] [i8* null, i8* null, i8* bitcast (i8* (%"class.blink::ScriptWrappable"*)* @_ZNK5blink15ScriptWrappable18NameInHeapSnapshotEv to i8*), i8* bitcast (void (%"class.blink::HTMLNameCollection"*)* @_ZN5blink18HTMLNameCollectionD2Ev to i8*), i8* bitcast (void (%"class.blink::WindowNameCollection"*)* @_ZN5blink20WindowNameCollectionD0Ev to i8*), i8* bitcast (i1 (%"class.blink::ScriptWrappable"*)* @_ZNK5blink15ScriptWrappable18HasPendingActivityEv to i8*), i8* bitcast (i1 (%"class.blink::ScriptWrappable"*)* @_ZNK5blink15ScriptWrappable17HasEventListenersEv to i8*), i8* bitcast (void (%"class.blink::HTMLCollection"*, %"class.blink::Visitor"*)* @_ZNK5blink14HTMLCollection5TraceEPNS_7VisitorE to i8*), i8* bitcast (%"struct.blink::WrapperTypeInfo"* (%"class.blink::HTMLCollection"*)* @_ZNK5blink14HTMLCollection18GetWrapperTypeInfoEv to i8*), i8* bitcast (%"class.v8::Value"* (%"class.blink::ScriptWrappable"*, %"class.blink::ScriptState"*)* @_ZN5blink15ScriptWrappable4WrapEPNS_11ScriptStateE to i8*), i8* bitcast (%"class.v8::Object"* (%"class.blink::ScriptWrappable"*, %"class.v8::Isolate"*, %"struct.blink::WrapperTypeInfo"*, %"class.v8::Object"*)* @_ZN5blink15ScriptWrappable20AssociateWithWrapperEPN2v87IsolateEPKNS_15WrapperTypeInfoENS1_5LocalINS1_6ObjectEEE to i8*), i8* bitcast (void (%"class.blink::HTMLCollection"*, %"class.blink::Document"*)* @_ZNK5blink14HTMLCollection15InvalidateCacheEPNS_8DocumentE to i8*), i8* bitcast (%"class.blink::Element"* (%"class.blink::HTMLCollection"*, %"class.WTF::AtomicString"*)* @_ZNK5blink14HTMLCollection9namedItemERKN3WTF12AtomicStringE to i8*), i8* bitcast (%"class.blink::Element"* (%"class.blink::HTMLCollection"*, %"class.blink::Element"*)* @_ZNK5blink14HTMLCollection16VirtualItemAfterEPNS_7ElementE to i8*), i8* bitcast (void (%"class.blink::HTMLCollection"*, %"class.WTF::Vector.638"*)* @_ZN5blink14HTMLCollection22SupportedPropertyNamesERN3WTF6VectorINS1_6StringELj0ENS1_18PartitionAllocatorEEE to i8*), i8* bitcast (void (%"class.blink::HTMLCollection"*)* @_ZNK5blink14HTMLCollection17UpdateIdNameCacheEv to i8*)], [6 x i8*] [i8* inttoptr (i64 -16 to i8*), i8* null, i8* bitcast (void (%"class.blink::HTMLCollection"*, %"class.blink::Visitor"*)* @_ZThn16_NK5blink14HTMLCollection5TraceEPNS_7VisitorE to i8*), i8* bitcast (void (%"class.blink::WindowNameCollection"*)* @_ZThn16_N5blink20WindowNameCollectionD1Ev to i8*), i8* bitcast (void (%"class.blink::WindowNameCollection"*)* @_ZThn16_N5blink20WindowNameCollectionD0Ev to i8*), i8* bitcast (void (%"class.blink::HTMLCollection"*, %"class.blink::Document"*)* @_ZThn16_NK5blink14HTMLCollection15InvalidateCacheEPNS_8DocumentE to i8*)] }, comdat, align 8
@_ZN5blink10html_names9kNameAttrE = external local_unnamed_addr constant %"class.blink::QualifiedName"*, align 8
@_ZN3WTF11g_null_atomE = external local_unnamed_addr constant %"class.WTF::AtomicString"*, align 8
@_ZN5blink10html_names7kIdAttrE = external local_unnamed_addr constant %"class.blink::QualifiedName"*, align 8
@_ZN5blink10html_names7kImgTagE = external local_unnamed_addr constant %"class.blink::HTMLQualifiedName"*, align 8
@_ZN5blink10html_names8kFormTagE = external local_unnamed_addr constant %"class.blink::HTMLQualifiedName"*, align 8
@_ZN5blink10html_names9kEmbedTagE = external local_unnamed_addr constant %"class.blink::HTMLQualifiedName"*, align 8
@_ZN5blink10html_names10kObjectTagE = external local_unnamed_addr constant %"class.blink::HTMLQualifiedName"*, align 8
@_ZN5blink14HTMLCollection18wrapper_type_info_E = external local_unnamed_addr constant %"struct.blink::WrapperTypeInfo"*, align 8

@_ZN5blink20WindowNameCollectionC1ERNS_13ContainerNodeERKN3WTF12AtomicStringE = hidden unnamed_addr alias void (%"class.blink::WindowNameCollection"*, %"class.blink::ContainerNode"*, %"class.WTF::AtomicString"*), void (%"class.blink::WindowNameCollection"*, %"class.blink::ContainerNode"*, %"class.WTF::AtomicString"*)* @_ZN5blink20WindowNameCollectionC2ERNS_13ContainerNodeERKN3WTF12AtomicStringE
@_ZN5blink20WindowNameCollectionC1ERNS_13ContainerNodeENS_14CollectionTypeERKN3WTF12AtomicStringE = hidden unnamed_addr alias void (%"class.blink::WindowNameCollection"*, %"class.blink::ContainerNode"*, i32, %"class.WTF::AtomicString"*), void (%"class.blink::WindowNameCollection"*, %"class.blink::ContainerNode"*, i32, %"class.WTF::AtomicString"*)* @_ZN5blink20WindowNameCollectionC2ERNS_13ContainerNodeENS_14CollectionTypeERKN3WTF12AtomicStringE

; Function Attrs: nounwind ssp uwtable
define hidden void @_ZN5blink20WindowNameCollectionC2ERNS_13ContainerNodeERKN3WTF12AtomicStringE(%"class.blink::WindowNameCollection"*, %"class.blink::ContainerNode"* dereferenceable(80), %"class.WTF::AtomicString"* dereferenceable(8)) unnamed_addr #0 align 2 {
  %4 = getelementptr inbounds %"class.blink::WindowNameCollection", %"class.blink::WindowNameCollection"* %0, i64 0, i32 0
  tail call void @_ZN5blink18HTMLNameCollectionC2ERNS_13ContainerNodeENS_14CollectionTypeERKN3WTF12AtomicStringE(%"class.blink::HTMLNameCollection"* %4, %"class.blink::ContainerNode"* dereferenceable(80) %1, i32 18, %"class.WTF::AtomicString"* dereferenceable(8) %2) #5
  %5 = getelementptr inbounds %"class.blink::WindowNameCollection", %"class.blink::WindowNameCollection"* %0, i64 0, i32 0, i32 0, i32 0, i32 0, i32 0
  store i32 (...)** bitcast (i8** getelementptr inbounds ({ [16 x i8*], [6 x i8*] }, { [16 x i8*], [6 x i8*] }* @_ZTVN5blink20WindowNameCollectionE, i64 0, inrange i32 0, i64 2) to i32 (...)**), i32 (...)*** %5, align 8
  %6 = getelementptr inbounds %"class.blink::WindowNameCollection", %"class.blink::WindowNameCollection"* %0, i64 0, i32 0, i32 0, i32 1, i32 0, i32 0
  store i32 (...)** bitcast (i8** getelementptr inbounds ({ [16 x i8*], [6 x i8*] }, { [16 x i8*], [6 x i8*] }* @_ZTVN5blink20WindowNameCollectionE, i64 0, inrange i32 1, i64 2) to i32 (...)**), i32 (...)*** %6, align 8
  ret void
}

declare void @_ZN5blink18HTMLNameCollectionC2ERNS_13ContainerNodeENS_14CollectionTypeERKN3WTF12AtomicStringE(%"class.blink::HTMLNameCollection"*, %"class.blink::ContainerNode"* dereferenceable(80), i32, %"class.WTF::AtomicString"* dereferenceable(8)) unnamed_addr #1

; Function Attrs: nounwind ssp uwtable
define hidden void @_ZN5blink20WindowNameCollectionC2ERNS_13ContainerNodeENS_14CollectionTypeERKN3WTF12AtomicStringE(%"class.blink::WindowNameCollection"*, %"class.blink::ContainerNode"* dereferenceable(80), i32, %"class.WTF::AtomicString"* dereferenceable(8)) unnamed_addr #0 align 2 {
  %5 = getelementptr inbounds %"class.blink::WindowNameCollection", %"class.blink::WindowNameCollection"* %0, i64 0, i32 0
  tail call void @_ZN5blink18HTMLNameCollectionC2ERNS_13ContainerNodeENS_14CollectionTypeERKN3WTF12AtomicStringE(%"class.blink::HTMLNameCollection"* %5, %"class.blink::ContainerNode"* dereferenceable(80) %1, i32 18, %"class.WTF::AtomicString"* dereferenceable(8) %3) #5
  %6 = getelementptr inbounds %"class.blink::WindowNameCollection", %"class.blink::WindowNameCollection"* %0, i64 0, i32 0, i32 0, i32 0, i32 0, i32 0
  store i32 (...)** bitcast (i8** getelementptr inbounds ({ [16 x i8*], [6 x i8*] }, { [16 x i8*], [6 x i8*] }* @_ZTVN5blink20WindowNameCollectionE, i64 0, inrange i32 0, i64 2) to i32 (...)**), i32 (...)*** %6, align 8
  %7 = getelementptr inbounds %"class.blink::WindowNameCollection", %"class.blink::WindowNameCollection"* %0, i64 0, i32 0, i32 0, i32 1, i32 0, i32 0
  store i32 (...)** bitcast (i8** getelementptr inbounds ({ [16 x i8*], [6 x i8*] }, { [16 x i8*], [6 x i8*] }* @_ZTVN5blink20WindowNameCollectionE, i64 0, inrange i32 1, i64 2) to i32 (...)**), i32 (...)*** %7, align 8
  ret void
}

; Function Attrs: norecurse nounwind readonly ssp uwtable
define hidden zeroext i1 @_ZNK5blink20WindowNameCollection14ElementMatchesERKNS_7ElementE(%"class.blink::WindowNameCollection"* nocapture readonly, %"class.blink::Element"* readonly dereferenceable(104)) local_unnamed_addr #2 align 2 {
  %3 = load %"class.blink::HTMLQualifiedName"*, %"class.blink::HTMLQualifiedName"** @_ZN5blink10html_names7kImgTagE, align 8
  %4 = getelementptr inbounds %"class.blink::Element", %"class.blink::Element"* %1, i64 0, i32 0, i32 0
  %5 = icmp eq %"class.blink::Element"* %1, null
  br i1 %5, label %127, label %6

6:                                                ; preds = %2
  %7 = getelementptr inbounds %"class.blink::Element", %"class.blink::Element"* %1, i64 0, i32 0, i32 0, i32 1
  %8 = load i32, i32* %7, align 8
  %9 = and i32 %8, 48
  %10 = icmp eq i32 %9, 0
  br i1 %10, label %11, label %127

11:                                               ; preds = %6
  %12 = getelementptr inbounds %"class.blink::HTMLQualifiedName", %"class.blink::HTMLQualifiedName"* %3, i64 0, i32 0, i32 0, i32 0
  %13 = load %"class.blink::QualifiedName::QualifiedNameImpl"*, %"class.blink::QualifiedName::QualifiedNameImpl"** %12, align 8
  %14 = getelementptr inbounds %"class.blink::Node", %"class.blink::Node"* %4, i64 1, i32 2
  %15 = bitcast %"class.blink::Member.0"* %14 to %"class.blink::QualifiedName::QualifiedNameImpl"**
  %16 = load %"class.blink::QualifiedName::QualifiedNameImpl"*, %"class.blink::QualifiedName::QualifiedNameImpl"** %15, align 8
  %17 = getelementptr inbounds %"class.blink::QualifiedName::QualifiedNameImpl", %"class.blink::QualifiedName::QualifiedNameImpl"* %16, i64 0, i32 3, i32 0, i32 0, i32 0
  %18 = load %"class.WTF::StringImpl"*, %"class.WTF::StringImpl"** %17, align 8
  %19 = getelementptr inbounds %"class.blink::QualifiedName::QualifiedNameImpl", %"class.blink::QualifiedName::QualifiedNameImpl"* %13, i64 0, i32 3, i32 0, i32 0, i32 0
  %20 = load %"class.WTF::StringImpl"*, %"class.WTF::StringImpl"** %19, align 8
  %21 = icmp eq %"class.WTF::StringImpl"* %18, %20
  br i1 %21, label %58, label %22

22:                                               ; preds = %11
  %23 = load %"class.blink::HTMLQualifiedName"*, %"class.blink::HTMLQualifiedName"** @_ZN5blink10html_names8kFormTagE, align 8
  %24 = getelementptr inbounds %"class.blink::HTMLQualifiedName", %"class.blink::HTMLQualifiedName"* %23, i64 0, i32 0, i32 0, i32 0
  %25 = load %"class.blink::QualifiedName::QualifiedNameImpl"*, %"class.blink::QualifiedName::QualifiedNameImpl"** %24, align 8
  %26 = getelementptr inbounds %"class.blink::Node", %"class.blink::Node"* %4, i64 1, i32 2
  %27 = bitcast %"class.blink::Member.0"* %26 to %"class.blink::QualifiedName::QualifiedNameImpl"**
  %28 = load %"class.blink::QualifiedName::QualifiedNameImpl"*, %"class.blink::QualifiedName::QualifiedNameImpl"** %27, align 8
  %29 = getelementptr inbounds %"class.blink::QualifiedName::QualifiedNameImpl", %"class.blink::QualifiedName::QualifiedNameImpl"* %28, i64 0, i32 3, i32 0, i32 0, i32 0
  %30 = load %"class.WTF::StringImpl"*, %"class.WTF::StringImpl"** %29, align 8
  %31 = getelementptr inbounds %"class.blink::QualifiedName::QualifiedNameImpl", %"class.blink::QualifiedName::QualifiedNameImpl"* %25, i64 0, i32 3, i32 0, i32 0, i32 0
  %32 = load %"class.WTF::StringImpl"*, %"class.WTF::StringImpl"** %31, align 8
  %33 = icmp eq %"class.WTF::StringImpl"* %30, %32
  br i1 %33, label %58, label %34

34:                                               ; preds = %22
  %35 = load %"class.blink::HTMLQualifiedName"*, %"class.blink::HTMLQualifiedName"** @_ZN5blink10html_names9kEmbedTagE, align 8
  %36 = getelementptr inbounds %"class.blink::HTMLQualifiedName", %"class.blink::HTMLQualifiedName"* %35, i64 0, i32 0, i32 0, i32 0
  %37 = load %"class.blink::QualifiedName::QualifiedNameImpl"*, %"class.blink::QualifiedName::QualifiedNameImpl"** %36, align 8
  %38 = getelementptr inbounds %"class.blink::Node", %"class.blink::Node"* %4, i64 1, i32 2
  %39 = bitcast %"class.blink::Member.0"* %38 to %"class.blink::QualifiedName::QualifiedNameImpl"**
  %40 = load %"class.blink::QualifiedName::QualifiedNameImpl"*, %"class.blink::QualifiedName::QualifiedNameImpl"** %39, align 8
  %41 = getelementptr inbounds %"class.blink::QualifiedName::QualifiedNameImpl", %"class.blink::QualifiedName::QualifiedNameImpl"* %40, i64 0, i32 3, i32 0, i32 0, i32 0
  %42 = load %"class.WTF::StringImpl"*, %"class.WTF::StringImpl"** %41, align 8
  %43 = getelementptr inbounds %"class.blink::QualifiedName::QualifiedNameImpl", %"class.blink::QualifiedName::QualifiedNameImpl"* %37, i64 0, i32 3, i32 0, i32 0, i32 0
  %44 = load %"class.WTF::StringImpl"*, %"class.WTF::StringImpl"** %43, align 8
  %45 = icmp eq %"class.WTF::StringImpl"* %42, %44
  br i1 %45, label %58, label %46

46:                                               ; preds = %34
  %47 = load %"class.blink::HTMLQualifiedName"*, %"class.blink::HTMLQualifiedName"** @_ZN5blink10html_names10kObjectTagE, align 8
  %48 = getelementptr inbounds %"class.blink::HTMLQualifiedName", %"class.blink::HTMLQualifiedName"* %47, i64 0, i32 0, i32 0, i32 0
  %49 = load %"class.blink::QualifiedName::QualifiedNameImpl"*, %"class.blink::QualifiedName::QualifiedNameImpl"** %48, align 8
  %50 = getelementptr inbounds %"class.blink::Node", %"class.blink::Node"* %4, i64 1, i32 2
  %51 = bitcast %"class.blink::Member.0"* %50 to %"class.blink::QualifiedName::QualifiedNameImpl"**
  %52 = load %"class.blink::QualifiedName::QualifiedNameImpl"*, %"class.blink::QualifiedName::QualifiedNameImpl"** %51, align 8
  %53 = getelementptr inbounds %"class.blink::QualifiedName::QualifiedNameImpl", %"class.blink::QualifiedName::QualifiedNameImpl"* %52, i64 0, i32 3, i32 0, i32 0, i32 0
  %54 = load %"class.WTF::StringImpl"*, %"class.WTF::StringImpl"** %53, align 8
  %55 = getelementptr inbounds %"class.blink::QualifiedName::QualifiedNameImpl", %"class.blink::QualifiedName::QualifiedNameImpl"* %49, i64 0, i32 3, i32 0, i32 0, i32 0
  %56 = load %"class.WTF::StringImpl"*, %"class.WTF::StringImpl"** %55, align 8
  %57 = icmp eq %"class.WTF::StringImpl"* %54, %56
  br i1 %57, label %58, label %127

58:                                               ; preds = %46, %34, %22, %11
  %59 = and i32 %8, 1048576
  %60 = icmp eq i32 %59, 0
  br i1 %60, label %118, label %61

61:                                               ; preds = %58
  %62 = load %"class.blink::QualifiedName"*, %"class.blink::QualifiedName"** @_ZN5blink10html_names9kNameAttrE, align 8
  %63 = getelementptr inbounds %"class.blink::Element", %"class.blink::Element"* %1, i64 0, i32 3, i32 0, i32 0
  %64 = load %"class.blink::ElementData"*, %"class.blink::ElementData"** %63, align 8
  %65 = icmp eq %"class.blink::ElementData"* %64, null
  br i1 %65, label %116, label %66

66:                                               ; preds = %61
  %67 = getelementptr inbounds %"class.blink::ElementData", %"class.blink::ElementData"* %64, i64 0, i32 0, i32 0, i32 0
  %68 = load i32, i32* %67, align 4
  %69 = and i32 %68, 1
  %70 = icmp eq i32 %69, 0
  br i1 %70, label %78, label %71

71:                                               ; preds = %66
  %72 = bitcast %"class.blink::ElementData"* %64 to %"class.blink::UniqueElementData"*
  %73 = getelementptr inbounds %"class.blink::ElementData", %"class.blink::ElementData"* %64, i64 1, i32 1
  %74 = bitcast %"class.blink::Member.28"* %73 to %"class.blink::Attribute"**
  %75 = load %"class.blink::Attribute"*, %"class.blink::Attribute"** %74, align 8
  %76 = getelementptr inbounds %"class.blink::UniqueElementData", %"class.blink::UniqueElementData"* %72, i64 0, i32 2, i32 0, i32 0, i32 2
  %77 = load i32, i32* %76, align 4
  br label %83

78:                                               ; preds = %66
  %79 = getelementptr inbounds %"class.blink::ElementData", %"class.blink::ElementData"* %64, i64 1
  %80 = bitcast %"class.blink::ElementData"* %79 to %"class.blink::Attribute"*
  %81 = lshr i32 %68, 1
  %82 = and i32 %81, 268435455
  br label %83

83:                                               ; preds = %78, %71
  %84 = phi %"class.blink::Attribute"* [ %80, %78 ], [ %75, %71 ]
  %85 = phi i32 [ %82, %78 ], [ %77, %71 ]
  %86 = zext i32 %85 to i64
  %87 = getelementptr inbounds %"class.blink::Attribute", %"class.blink::Attribute"* %84, i64 %86
  %88 = icmp eq i32 %85, 0
  br i1 %88, label %116, label %89

89:                                               ; preds = %83
  %90 = getelementptr inbounds %"class.blink::QualifiedName", %"class.blink::QualifiedName"* %62, i64 0, i32 0, i32 0
  %91 = load %"class.blink::QualifiedName::QualifiedNameImpl"*, %"class.blink::QualifiedName::QualifiedNameImpl"** %90, align 8
  %92 = getelementptr inbounds %"class.blink::QualifiedName::QualifiedNameImpl", %"class.blink::QualifiedName::QualifiedNameImpl"* %91, i64 0, i32 3, i32 0, i32 0, i32 0
  %93 = getelementptr inbounds %"class.blink::QualifiedName::QualifiedNameImpl", %"class.blink::QualifiedName::QualifiedNameImpl"* %91, i64 0, i32 4, i32 0, i32 0, i32 0
  br label %94

94:                                               ; preds = %109, %89
  %95 = phi %"class.blink::Attribute"* [ %84, %89 ], [ %110, %109 ]
  %96 = getelementptr inbounds %"class.blink::Attribute", %"class.blink::Attribute"* %95, i64 0, i32 0, i32 0, i32 0
  %97 = load %"class.blink::QualifiedName::QualifiedNameImpl"*, %"class.blink::QualifiedName::QualifiedNameImpl"** %96, align 8
  %98 = icmp eq %"class.blink::QualifiedName::QualifiedNameImpl"* %97, %91
  br i1 %98, label %112, label %99

99:                                               ; preds = %94
  %100 = getelementptr inbounds %"class.blink::QualifiedName::QualifiedNameImpl", %"class.blink::QualifiedName::QualifiedNameImpl"* %97, i64 0, i32 3, i32 0, i32 0, i32 0
  %101 = load %"class.WTF::StringImpl"*, %"class.WTF::StringImpl"** %100, align 8
  %102 = load %"class.WTF::StringImpl"*, %"class.WTF::StringImpl"** %92, align 8
  %103 = icmp eq %"class.WTF::StringImpl"* %101, %102
  br i1 %103, label %104, label %109

104:                                              ; preds = %99
  %105 = getelementptr inbounds %"class.blink::QualifiedName::QualifiedNameImpl", %"class.blink::QualifiedName::QualifiedNameImpl"* %97, i64 0, i32 4, i32 0, i32 0, i32 0
  %106 = load %"class.WTF::StringImpl"*, %"class.WTF::StringImpl"** %105, align 8
  %107 = load %"class.WTF::StringImpl"*, %"class.WTF::StringImpl"** %93, align 8
  %108 = icmp eq %"class.WTF::StringImpl"* %106, %107
  br i1 %108, label %112, label %109

109:                                              ; preds = %104, %99
  %110 = getelementptr inbounds %"class.blink::Attribute", %"class.blink::Attribute"* %95, i64 1
  %111 = icmp eq %"class.blink::Attribute"* %110, %87
  br i1 %111, label %116, label %94

112:                                              ; preds = %104, %94
  %113 = icmp eq %"class.blink::Attribute"* %95, null
  br i1 %113, label %116, label %114

114:                                              ; preds = %112
  %115 = getelementptr inbounds %"class.blink::Attribute", %"class.blink::Attribute"* %95, i64 0, i32 1
  br label %120

116:                                              ; preds = %109, %112, %83, %61
  %117 = load %"class.WTF::AtomicString"*, %"class.WTF::AtomicString"** @_ZN3WTF11g_null_atomE, align 8
  br label %120

118:                                              ; preds = %58
  %119 = load %"class.WTF::AtomicString"*, %"class.WTF::AtomicString"** @_ZN3WTF11g_null_atomE, align 8
  br label %120

120:                                              ; preds = %114, %116, %118
  %121 = phi %"class.WTF::AtomicString"* [ %119, %118 ], [ %117, %116 ], [ %115, %114 ]
  %122 = getelementptr inbounds %"class.WTF::AtomicString", %"class.WTF::AtomicString"* %121, i64 0, i32 0, i32 0, i32 0
  %123 = load %"class.WTF::StringImpl"*, %"class.WTF::StringImpl"** %122, align 8
  %124 = getelementptr inbounds %"class.blink::WindowNameCollection", %"class.blink::WindowNameCollection"* %0, i64 0, i32 0, i32 1, i32 0, i32 0, i32 0
  %125 = load %"class.WTF::StringImpl"*, %"class.WTF::StringImpl"** %124, align 8
  %126 = icmp eq %"class.WTF::StringImpl"* %123, %125
  br i1 %126, label %197, label %127

127:                                              ; preds = %6, %2, %120, %46
  %128 = getelementptr inbounds %"class.blink::Element", %"class.blink::Element"* %1, i64 0, i32 3, i32 0, i32 0
  %129 = load %"class.blink::ElementData"*, %"class.blink::ElementData"** %128, align 8
  %130 = icmp eq %"class.blink::ElementData"* %129, null
  br i1 %130, label %188, label %131

131:                                              ; preds = %127
  %132 = getelementptr inbounds %"class.blink::ElementData", %"class.blink::ElementData"* %129, i64 0, i32 3, i32 0, i32 0, i32 0
  %133 = load %"class.WTF::StringImpl"*, %"class.WTF::StringImpl"** %132, align 8
  %134 = icmp eq %"class.WTF::StringImpl"* %133, null
  br i1 %134, label %188, label %135

135:                                              ; preds = %131
  %136 = load %"class.blink::QualifiedName"*, %"class.blink::QualifiedName"** @_ZN5blink10html_names7kIdAttrE, align 8
  %137 = getelementptr inbounds %"class.blink::ElementData", %"class.blink::ElementData"* %129, i64 0, i32 0, i32 0, i32 0
  %138 = load i32, i32* %137, align 4
  %139 = and i32 %138, 1
  %140 = icmp eq i32 %139, 0
  br i1 %140, label %148, label %141

141:                                              ; preds = %135
  %142 = bitcast %"class.blink::ElementData"* %129 to %"class.blink::UniqueElementData"*
  %143 = getelementptr inbounds %"class.blink::ElementData", %"class.blink::ElementData"* %129, i64 1, i32 1
  %144 = bitcast %"class.blink::Member.28"* %143 to %"class.blink::Attribute"**
  %145 = load %"class.blink::Attribute"*, %"class.blink::Attribute"** %144, align 8
  %146 = getelementptr inbounds %"class.blink::UniqueElementData", %"class.blink::UniqueElementData"* %142, i64 0, i32 2, i32 0, i32 0, i32 2
  %147 = load i32, i32* %146, align 4
  br label %153

148:                                              ; preds = %135
  %149 = getelementptr inbounds %"class.blink::ElementData", %"class.blink::ElementData"* %129, i64 1
  %150 = bitcast %"class.blink::ElementData"* %149 to %"class.blink::Attribute"*
  %151 = lshr i32 %138, 1
  %152 = and i32 %151, 268435455
  br label %153

153:                                              ; preds = %148, %141
  %154 = phi %"class.blink::Attribute"* [ %150, %148 ], [ %145, %141 ]
  %155 = phi i32 [ %152, %148 ], [ %147, %141 ]
  %156 = zext i32 %155 to i64
  %157 = getelementptr inbounds %"class.blink::Attribute", %"class.blink::Attribute"* %154, i64 %156
  %158 = icmp eq i32 %155, 0
  br i1 %158, label %186, label %159

159:                                              ; preds = %153
  %160 = getelementptr inbounds %"class.blink::QualifiedName", %"class.blink::QualifiedName"* %136, i64 0, i32 0, i32 0
  %161 = load %"class.blink::QualifiedName::QualifiedNameImpl"*, %"class.blink::QualifiedName::QualifiedNameImpl"** %160, align 8
  %162 = getelementptr inbounds %"class.blink::QualifiedName::QualifiedNameImpl", %"class.blink::QualifiedName::QualifiedNameImpl"* %161, i64 0, i32 3, i32 0, i32 0, i32 0
  %163 = getelementptr inbounds %"class.blink::QualifiedName::QualifiedNameImpl", %"class.blink::QualifiedName::QualifiedNameImpl"* %161, i64 0, i32 4, i32 0, i32 0, i32 0
  br label %164

164:                                              ; preds = %179, %159
  %165 = phi %"class.blink::Attribute"* [ %154, %159 ], [ %180, %179 ]
  %166 = getelementptr inbounds %"class.blink::Attribute", %"class.blink::Attribute"* %165, i64 0, i32 0, i32 0, i32 0
  %167 = load %"class.blink::QualifiedName::QualifiedNameImpl"*, %"class.blink::QualifiedName::QualifiedNameImpl"** %166, align 8
  %168 = icmp eq %"class.blink::QualifiedName::QualifiedNameImpl"* %167, %161
  br i1 %168, label %182, label %169

169:                                              ; preds = %164
  %170 = getelementptr inbounds %"class.blink::QualifiedName::QualifiedNameImpl", %"class.blink::QualifiedName::QualifiedNameImpl"* %167, i64 0, i32 3, i32 0, i32 0, i32 0
  %171 = load %"class.WTF::StringImpl"*, %"class.WTF::StringImpl"** %170, align 8
  %172 = load %"class.WTF::StringImpl"*, %"class.WTF::StringImpl"** %162, align 8
  %173 = icmp eq %"class.WTF::StringImpl"* %171, %172
  br i1 %173, label %174, label %179

174:                                              ; preds = %169
  %175 = getelementptr inbounds %"class.blink::QualifiedName::QualifiedNameImpl", %"class.blink::QualifiedName::QualifiedNameImpl"* %167, i64 0, i32 4, i32 0, i32 0, i32 0
  %176 = load %"class.WTF::StringImpl"*, %"class.WTF::StringImpl"** %175, align 8
  %177 = load %"class.WTF::StringImpl"*, %"class.WTF::StringImpl"** %163, align 8
  %178 = icmp eq %"class.WTF::StringImpl"* %176, %177
  br i1 %178, label %182, label %179

179:                                              ; preds = %174, %169
  %180 = getelementptr inbounds %"class.blink::Attribute", %"class.blink::Attribute"* %165, i64 1
  %181 = icmp eq %"class.blink::Attribute"* %180, %157
  br i1 %181, label %186, label %164

182:                                              ; preds = %174, %164
  %183 = icmp eq %"class.blink::Attribute"* %165, null
  br i1 %183, label %186, label %184

184:                                              ; preds = %182
  %185 = getelementptr inbounds %"class.blink::Attribute", %"class.blink::Attribute"* %165, i64 0, i32 1
  br label %190

186:                                              ; preds = %179, %182, %153
  %187 = load %"class.WTF::AtomicString"*, %"class.WTF::AtomicString"** @_ZN3WTF11g_null_atomE, align 8
  br label %190

188:                                              ; preds = %131, %127
  %189 = load %"class.WTF::AtomicString"*, %"class.WTF::AtomicString"** @_ZN3WTF11g_null_atomE, align 8
  br label %190

190:                                              ; preds = %184, %186, %188
  %191 = phi %"class.WTF::AtomicString"* [ %189, %188 ], [ %187, %186 ], [ %185, %184 ]
  %192 = getelementptr inbounds %"class.WTF::AtomicString", %"class.WTF::AtomicString"* %191, i64 0, i32 0, i32 0, i32 0
  %193 = load %"class.WTF::StringImpl"*, %"class.WTF::StringImpl"** %192, align 8
  %194 = getelementptr inbounds %"class.blink::WindowNameCollection", %"class.blink::WindowNameCollection"* %0, i64 0, i32 0, i32 1, i32 0, i32 0, i32 0
  %195 = load %"class.WTF::StringImpl"*, %"class.WTF::StringImpl"** %194, align 8
  %196 = icmp eq %"class.WTF::StringImpl"* %193, %195
  br label %197

197:                                              ; preds = %120, %190
  %198 = phi i1 [ %196, %190 ], [ true, %120 ]
  ret i1 %198
}

declare i8* @_ZNK5blink15ScriptWrappable18NameInHeapSnapshotEv(%"class.blink::ScriptWrappable"*) unnamed_addr #1

; Function Attrs: nounwind
declare void @_ZN5blink18HTMLNameCollectionD2Ev(%"class.blink::HTMLNameCollection"*) unnamed_addr #3

; Function Attrs: inlinehint nounwind ssp uwtable
define linkonce_odr hidden void @_ZN5blink20WindowNameCollectionD0Ev(%"class.blink::WindowNameCollection"*) unnamed_addr #4 comdat align 2 {
  %2 = getelementptr inbounds %"class.blink::WindowNameCollection", %"class.blink::WindowNameCollection"* %0, i64 0, i32 0
  tail call void @_ZN5blink18HTMLNameCollectionD2Ev(%"class.blink::HTMLNameCollection"* %2) #5
  ret void
}

; Function Attrs: nounwind ssp uwtable
define linkonce_odr hidden zeroext i1 @_ZNK5blink15ScriptWrappable18HasPendingActivityEv(%"class.blink::ScriptWrappable"*) unnamed_addr #0 comdat align 2 {
  ret i1 false
}

; Function Attrs: nounwind ssp uwtable
define linkonce_odr hidden zeroext i1 @_ZNK5blink15ScriptWrappable17HasEventListenersEv(%"class.blink::ScriptWrappable"*) unnamed_addr #0 comdat align 2 {
  ret i1 false
}

declare void @_ZNK5blink14HTMLCollection5TraceEPNS_7VisitorE(%"class.blink::HTMLCollection"*, %"class.blink::Visitor"*) unnamed_addr #1

; Function Attrs: nounwind ssp uwtable
define linkonce_odr hidden %"struct.blink::WrapperTypeInfo"* @_ZNK5blink14HTMLCollection18GetWrapperTypeInfoEv(%"class.blink::HTMLCollection"*) unnamed_addr #0 comdat align 2 {
  %2 = load %"struct.blink::WrapperTypeInfo"*, %"struct.blink::WrapperTypeInfo"** @_ZN5blink14HTMLCollection18wrapper_type_info_E, align 8
  ret %"struct.blink::WrapperTypeInfo"* %2
}

declare %"class.v8::Value"* @_ZN5blink15ScriptWrappable4WrapEPNS_11ScriptStateE(%"class.blink::ScriptWrappable"*, %"class.blink::ScriptState"*) unnamed_addr #1

declare %"class.v8::Object"* @_ZN5blink15ScriptWrappable20AssociateWithWrapperEPN2v87IsolateEPKNS_15WrapperTypeInfoENS1_5LocalINS1_6ObjectEEE(%"class.blink::ScriptWrappable"*, %"class.v8::Isolate"*, %"struct.blink::WrapperTypeInfo"*, %"class.v8::Object"*) unnamed_addr #1

declare void @_ZNK5blink14HTMLCollection15InvalidateCacheEPNS_8DocumentE(%"class.blink::HTMLCollection"*, %"class.blink::Document"*) unnamed_addr #1

declare %"class.blink::Element"* @_ZNK5blink14HTMLCollection9namedItemERKN3WTF12AtomicStringE(%"class.blink::HTMLCollection"*, %"class.WTF::AtomicString"* dereferenceable(8)) unnamed_addr #1

declare %"class.blink::Element"* @_ZNK5blink14HTMLCollection16VirtualItemAfterEPNS_7ElementE(%"class.blink::HTMLCollection"*, %"class.blink::Element"*) unnamed_addr #1

declare void @_ZN5blink14HTMLCollection22SupportedPropertyNamesERN3WTF6VectorINS1_6StringELj0ENS1_18PartitionAllocatorEEE(%"class.blink::HTMLCollection"*, %"class.WTF::Vector.638"* dereferenceable(16)) unnamed_addr #1

declare void @_ZNK5blink14HTMLCollection17UpdateIdNameCacheEv(%"class.blink::HTMLCollection"*) unnamed_addr #1

; Function Attrs: nounwind ssp uwtable
declare void @_ZThn16_NK5blink14HTMLCollection5TraceEPNS_7VisitorE(%"class.blink::HTMLCollection"*, %"class.blink::Visitor"*) unnamed_addr #0 align 2

; Function Attrs: inlinehint nounwind ssp uwtable
define linkonce_odr hidden void @_ZThn16_N5blink20WindowNameCollectionD1Ev(%"class.blink::WindowNameCollection"*) unnamed_addr #4 comdat align 2 {
  %2 = getelementptr inbounds %"class.blink::WindowNameCollection", %"class.blink::WindowNameCollection"* %0, i64 -1, i32 0, i32 0, i32 4, i32 2, i32 0, i32 0, i32 0, i32 1
  %3 = bitcast i32* %2 to %"class.blink::HTMLNameCollection"*
  tail call void @_ZN5blink18HTMLNameCollectionD2Ev(%"class.blink::HTMLNameCollection"* %3) #5
  ret void
}

; Function Attrs: inlinehint nounwind ssp uwtable
define linkonce_odr hidden void @_ZThn16_N5blink20WindowNameCollectionD0Ev(%"class.blink::WindowNameCollection"*) unnamed_addr #4 comdat align 2 {
  %2 = getelementptr inbounds %"class.blink::WindowNameCollection", %"class.blink::WindowNameCollection"* %0, i64 -1, i32 0, i32 0, i32 4, i32 2, i32 0, i32 0, i32 0, i32 1
  %3 = bitcast i32* %2 to %"class.blink::HTMLNameCollection"*
  tail call void @_ZN5blink18HTMLNameCollectionD2Ev(%"class.blink::HTMLNameCollection"* %3) #5
  ret void
}

; Function Attrs: nounwind ssp uwtable
declare void @_ZThn16_NK5blink14HTMLCollection15InvalidateCacheEPNS_8DocumentE(%"class.blink::HTMLCollection"*, %"class.blink::Document"*) unnamed_addr #0 align 2

attributes #0 = { nounwind ssp uwtable "correctly-rounded-divide-sqrt-fp-math"="false" "disable-tail-calls"="false" "less-precise-fpmad"="false" "min-legal-vector-width"="0" "no-frame-pointer-elim"="false" "no-frame-pointer-elim-non-leaf" "no-infs-fp-math"="false" "no-jump-tables"="false" "no-nans-fp-math"="false" "no-signed-zeros-fp-math"="false" "no-trapping-math"="false" "null-pointer-is-valid"="true" "stack-protector-buffer-size"="4" "target-cpu"="x86-64" "target-features"="+cx8,+fxsr,+mmx,+sse,+sse2,+sse3,+x87" "unsafe-fp-math"="false" "use-soft-float"="false" }
attributes #1 = { "correctly-rounded-divide-sqrt-fp-math"="false" "disable-tail-calls"="false" "less-precise-fpmad"="false" "no-frame-pointer-elim"="false" "no-frame-pointer-elim-non-leaf" "no-infs-fp-math"="false" "no-nans-fp-math"="false" "no-signed-zeros-fp-math"="false" "no-trapping-math"="false" "null-pointer-is-valid"="true" "stack-protector-buffer-size"="4" "target-cpu"="x86-64" "target-features"="+cx8,+fxsr,+mmx,+sse,+sse2,+sse3,+x87" "unsafe-fp-math"="false" "use-soft-float"="false" }
attributes #2 = { norecurse nounwind readonly ssp uwtable "correctly-rounded-divide-sqrt-fp-math"="false" "disable-tail-calls"="false" "less-precise-fpmad"="false" "min-legal-vector-width"="0" "no-frame-pointer-elim"="false" "no-frame-pointer-elim-non-leaf" "no-infs-fp-math"="false" "no-jump-tables"="false" "no-nans-fp-math"="false" "no-signed-zeros-fp-math"="false" "no-trapping-math"="false" "null-pointer-is-valid"="true" "stack-protector-buffer-size"="4" "target-cpu"="x86-64" "target-features"="+cx8,+fxsr,+mmx,+sse,+sse2,+sse3,+x87" "unsafe-fp-math"="false" "use-soft-float"="false" }
attributes #3 = { nounwind "correctly-rounded-divide-sqrt-fp-math"="false" "disable-tail-calls"="false" "less-precise-fpmad"="false" "no-frame-pointer-elim"="false" "no-frame-pointer-elim-non-leaf" "no-infs-fp-math"="false" "no-nans-fp-math"="false" "no-signed-zeros-fp-math"="false" "no-trapping-math"="false" "null-pointer-is-valid"="true" "stack-protector-buffer-size"="4" "target-cpu"="x86-64" "target-features"="+cx8,+fxsr,+mmx,+sse,+sse2,+sse3,+x87" "unsafe-fp-math"="false" "use-soft-float"="false" }
attributes #4 = { inlinehint nounwind ssp uwtable "correctly-rounded-divide-sqrt-fp-math"="false" "disable-tail-calls"="false" "less-precise-fpmad"="false" "min-legal-vector-width"="0" "no-frame-pointer-elim"="false" "no-frame-pointer-elim-non-leaf" "no-infs-fp-math"="false" "no-jump-tables"="false" "no-nans-fp-math"="false" "no-signed-zeros-fp-math"="false" "no-trapping-math"="false" "null-pointer-is-valid"="true" "stack-protector-buffer-size"="4" "target-cpu"="x86-64" "target-features"="+cx8,+fxsr,+mmx,+sse,+sse2,+sse3,+x87" "unsafe-fp-math"="false" "use-soft-float"="false" }
attributes #5 = { nounwind }

!llvm.module.flags = !{!0, !1}

!0 = !{i32 1, !"wchar_size", i32 4}
!1 = !{i32 7, !"PIC Level", i32 2}
