; ModuleID = '../../third_party/cld_3/src/src/workspace.cc'
source_filename = "../../third_party/cld_3/src/src/workspace.cc"
target datalayout = "e-m:e-i64:64-f80:128-n8:16:32:64-S128"
target triple = "x86_64-unknown-linux-gnu"

module asm ".symver exp, exp@GLIBC_2.2.5"
module asm ".symver exp2, exp2@GLIBC_2.2.5"
module asm ".symver exp2f, exp2f@GLIBC_2.2.5"
module asm ".symver expf, expf@GLIBC_2.2.5"
module asm ".symver lgamma, lgamma@GLIBC_2.2.5"
module asm ".symver lgammaf, lgammaf@GLIBC_2.2.5"
module asm ".symver lgammal, lgammal@GLIBC_2.2.5"
module asm ".symver log, log@GLIBC_2.2.5"
module asm ".symver log2, log2@GLIBC_2.2.5"
module asm ".symver log2f, log2f@GLIBC_2.2.5"
module asm ".symver logf, logf@GLIBC_2.2.5"
module asm ".symver pow, pow@GLIBC_2.2.5"
module asm ".symver powf, powf@GLIBC_2.2.5"

%"struct.std::__1::piecewise_construct_t" = type { i8 }
%"class.chrome_lang_id::WorkspaceSet" = type { %"class.std::__1::unordered_map" }
%"class.std::__1::unordered_map" = type { %"class.std::__1::__hash_table" }
%"class.std::__1::__hash_table" = type <{ %"class.std::__1::unique_ptr", %"class.std::__1::__compressed_pair.4", %"class.std::__1::__compressed_pair.9", %"class.std::__1::__compressed_pair.11", [4 x i8] }>
%"class.std::__1::unique_ptr" = type { %"class.std::__1::__compressed_pair" }
%"class.std::__1::__compressed_pair" = type { %"struct.std::__1::__compressed_pair_elem", %"struct.std::__1::__compressed_pair_elem.0" }
%"struct.std::__1::__compressed_pair_elem" = type { %"struct.std::__1::__hash_node_base"** }
%"struct.std::__1::__hash_node_base" = type { %"struct.std::__1::__hash_node_base"* }
%"struct.std::__1::__compressed_pair_elem.0" = type { %"class.std::__1::__bucket_list_deallocator" }
%"class.std::__1::__bucket_list_deallocator" = type { %"class.std::__1::__compressed_pair.1" }
%"class.std::__1::__compressed_pair.1" = type { %"struct.std::__1::__compressed_pair_elem.2" }
%"struct.std::__1::__compressed_pair_elem.2" = type { i64 }
%"class.std::__1::__compressed_pair.4" = type { %"struct.std::__1::__compressed_pair_elem.5" }
%"struct.std::__1::__compressed_pair_elem.5" = type { %"struct.std::__1::__hash_node_base" }
%"class.std::__1::__compressed_pair.9" = type { %"struct.std::__1::__compressed_pair_elem.2" }
%"class.std::__1::__compressed_pair.11" = type { %"struct.std::__1::__compressed_pair_elem.12" }
%"struct.std::__1::__compressed_pair_elem.12" = type { float }
%"class.chrome_lang_id::WorkspaceRegistry" = type { %"class.std::__1::unordered_map.14", %"class.std::__1::unordered_map.38" }
%"class.std::__1::unordered_map.14" = type { %"class.std::__1::__hash_table.15" }
%"class.std::__1::__hash_table.15" = type <{ %"class.std::__1::unique_ptr.16", %"class.std::__1::__compressed_pair.26", %"class.std::__1::__compressed_pair.31", %"class.std::__1::__compressed_pair.34", [4 x i8] }>
%"class.std::__1::unique_ptr.16" = type { %"class.std::__1::__compressed_pair.17" }
%"class.std::__1::__compressed_pair.17" = type { %"struct.std::__1::__compressed_pair_elem.18", %"struct.std::__1::__compressed_pair_elem.20" }
%"struct.std::__1::__compressed_pair_elem.18" = type { %"struct.std::__1::__hash_node_base.19"** }
%"struct.std::__1::__hash_node_base.19" = type { %"struct.std::__1::__hash_node_base.19"* }
%"struct.std::__1::__compressed_pair_elem.20" = type { %"class.std::__1::__bucket_list_deallocator.21" }
%"class.std::__1::__bucket_list_deallocator.21" = type { %"class.std::__1::__compressed_pair.22" }
%"class.std::__1::__compressed_pair.22" = type { %"struct.std::__1::__compressed_pair_elem.2" }
%"class.std::__1::__compressed_pair.26" = type { %"struct.std::__1::__compressed_pair_elem.27" }
%"struct.std::__1::__compressed_pair_elem.27" = type { %"struct.std::__1::__hash_node_base.19" }
%"class.std::__1::__compressed_pair.31" = type { %"struct.std::__1::__compressed_pair_elem.2" }
%"class.std::__1::__compressed_pair.34" = type { %"struct.std::__1::__compressed_pair_elem.12" }
%"class.std::__1::unordered_map.38" = type { %"class.std::__1::__hash_table.39" }
%"class.std::__1::__hash_table.39" = type <{ %"class.std::__1::unique_ptr.40", %"class.std::__1::__compressed_pair.50", %"class.std::__1::__compressed_pair.55", %"class.std::__1::__compressed_pair.58", [4 x i8] }>
%"class.std::__1::unique_ptr.40" = type { %"class.std::__1::__compressed_pair.41" }
%"class.std::__1::__compressed_pair.41" = type { %"struct.std::__1::__compressed_pair_elem.42", %"struct.std::__1::__compressed_pair_elem.44" }
%"struct.std::__1::__compressed_pair_elem.42" = type { %"struct.std::__1::__hash_node_base.43"** }
%"struct.std::__1::__hash_node_base.43" = type { %"struct.std::__1::__hash_node_base.43"* }
%"struct.std::__1::__compressed_pair_elem.44" = type { %"class.std::__1::__bucket_list_deallocator.45" }
%"class.std::__1::__bucket_list_deallocator.45" = type { %"class.std::__1::__compressed_pair.46" }
%"class.std::__1::__compressed_pair.46" = type { %"struct.std::__1::__compressed_pair_elem.2" }
%"class.std::__1::__compressed_pair.50" = type { %"struct.std::__1::__compressed_pair_elem.51" }
%"struct.std::__1::__compressed_pair_elem.51" = type { %"struct.std::__1::__hash_node_base.43" }
%"class.std::__1::__compressed_pair.55" = type { %"struct.std::__1::__compressed_pair_elem.2" }
%"class.std::__1::__compressed_pair.58" = type { %"struct.std::__1::__compressed_pair_elem.12" }
%"class.chrome_lang_id::VectorIntWorkspace" = type { %"class.chrome_lang_id::Workspace", %"class.std::__1::vector.72" }
%"class.chrome_lang_id::Workspace" = type { i32 (...)** }
%"class.std::__1::vector.72" = type { %"class.std::__1::__vector_base.73" }
%"class.std::__1::__vector_base.73" = type { i32*, i32*, %"class.std::__1::__compressed_pair.74" }
%"class.std::__1::__compressed_pair.74" = type { %"struct.std::__1::__compressed_pair_elem.75" }
%"struct.std::__1::__compressed_pair_elem.75" = type { i32* }
%"class.chrome_lang_id::VectorVectorIntWorkspace" = type { %"class.chrome_lang_id::Workspace", %"class.std::__1::vector.79" }
%"class.std::__1::vector.79" = type { %"class.std::__1::__vector_base.80" }
%"class.std::__1::__vector_base.80" = type { %"class.std::__1::vector.72"*, %"class.std::__1::vector.72"*, %"class.std::__1::__compressed_pair.81" }
%"class.std::__1::__compressed_pair.81" = type { %"struct.std::__1::__compressed_pair_elem.82" }
%"struct.std::__1::__compressed_pair_elem.82" = type { %"class.std::__1::vector.72"* }
%"class.std::__1::basic_string" = type { %"class.std::__1::__compressed_pair.62" }
%"class.std::__1::__compressed_pair.62" = type { %"struct.std::__1::__compressed_pair_elem.63" }
%"struct.std::__1::__compressed_pair_elem.63" = type { %"struct.std::__1::basic_string<char, std::__1::char_traits<char>, std::__1::allocator<char> >::__rep" }
%"struct.std::__1::basic_string<char, std::__1::char_traits<char>, std::__1::allocator<char> >::__rep" = type { %union.anon }
%union.anon = type { %"struct.std::__1::basic_string<char, std::__1::char_traits<char>, std::__1::allocator<char> >::__long" }
%"struct.std::__1::basic_string<char, std::__1::char_traits<char>, std::__1::allocator<char> >::__long" = type { i8*, i64, i64 }
%"struct.std::__1::basic_string<char, std::__1::char_traits<char>, std::__1::allocator<char> >::__short" = type { [23 x i8], %struct.anon }
%struct.anon = type { i8 }
%"class.std::__1::tuple" = type { %"struct.std::__1::__tuple_impl" }
%"struct.std::__1::__tuple_impl" = type { %"class.std::__1::__tuple_leaf" }
%"class.std::__1::__tuple_leaf" = type { %"class.std::__1::type_index"* }
%"class.std::__1::type_index" = type { %"class.std::type_info"* }
%"class.std::type_info" = type { i32 (...)**, i8* }
%"class.std::__1::tuple.95" = type { i8 }
%"struct.std::__1::__hash_node" = type { %"struct.std::__1::__hash_node_base", i64, %"struct.std::__1::__hash_value_type" }
%"struct.std::__1::__hash_value_type" = type { %"struct.std::__1::pair.86" }
%"struct.std::__1::pair.86" = type { %"class.std::__1::type_index", %"class.std::__1::vector.87" }
%"class.std::__1::vector.87" = type { %"class.std::__1::__vector_base.88" }
%"class.std::__1::__vector_base.88" = type { %"class.chrome_lang_id::Workspace"**, %"class.chrome_lang_id::Workspace"**, %"class.std::__1::__compressed_pair.89" }
%"class.std::__1::__compressed_pair.89" = type { %"struct.std::__1::__compressed_pair_elem.90" }
%"struct.std::__1::__compressed_pair_elem.90" = type { %"class.chrome_lang_id::Workspace"** }
%"struct.std::__1::__hash_node.105" = type { %"struct.std::__1::__hash_node_base.43", i64, %"struct.std::__1::__hash_value_type.104" }
%"struct.std::__1::__hash_value_type.104" = type { %"struct.std::__1::pair" }
%"struct.std::__1::pair" = type { %"class.std::__1::type_index", %"class.std::__1::vector" }
%"class.std::__1::vector" = type { %"class.std::__1::__vector_base" }
%"class.std::__1::__vector_base" = type { %"class.std::__1::basic_string"*, %"class.std::__1::basic_string"*, %"class.std::__1::__compressed_pair.67" }
%"class.std::__1::__compressed_pair.67" = type { %"struct.std::__1::__compressed_pair_elem.68" }
%"struct.std::__1::__compressed_pair_elem.68" = type { %"class.std::__1::basic_string"* }
%"class.std::__1::__vector_base_common" = type { i8 }

$_ZN14chrome_lang_id12WorkspaceSet5ResetERKNS_17WorkspaceRegistryE = comdat any

$_ZNSt3__112__hash_tableINS_17__hash_value_typeINS_10type_indexENS_6vectorIPN14chrome_lang_id9WorkspaceENS_9allocatorIS6_EEEEEENS_22__unordered_map_hasherIS2_SA_NS_4hashIS2_EENS_8equal_toIS2_EELb1EEENS_21__unordered_map_equalIS2_SA_SF_SD_Lb1EEENS7_ISA_EEE25__emplace_unique_key_argsIS2_JRKNS_21piecewise_construct_tENS_5tupleIJRKS2_EEENSP_IJEEEEEENS_4pairINS_15__hash_iteratorIPNS_11__hash_nodeISA_PvEEEEbEERKT_DpOT0_ = comdat any

$_ZNSt3__112__hash_tableINS_17__hash_value_typeINS_10type_indexENS_6vectorIPN14chrome_lang_id9WorkspaceENS_9allocatorIS6_EEEEEENS_22__unordered_map_hasherIS2_SA_NS_4hashIS2_EENS_8equal_toIS2_EELb1EEENS_21__unordered_map_equalIS2_SA_SF_SD_Lb1EEENS7_ISA_EEE6rehashEm = comdat any

$_ZNSt3__112__hash_tableINS_17__hash_value_typeINS_10type_indexENS_6vectorIPN14chrome_lang_id9WorkspaceENS_9allocatorIS6_EEEEEENS_22__unordered_map_hasherIS2_SA_NS_4hashIS2_EENS_8equal_toIS2_EELb1EEENS_21__unordered_map_equalIS2_SA_SF_SD_Lb1EEENS7_ISA_EEE8__rehashEm = comdat any

$_ZNSt3__16vectorIPN14chrome_lang_id9WorkspaceENS_9allocatorIS3_EEE8__appendEm = comdat any

$_ZNSt3__112__hash_tableINS_17__hash_value_typeINS_10type_indexENS_6vectorINS_12basic_stringIcNS_11char_traitsIcEENS_9allocatorIcEEEENS7_IS9_EEEEEENS_22__unordered_map_hasherIS2_SC_NS_4hashIS2_EENS_8equal_toIS2_EELb1EEENS_21__unordered_map_equalIS2_SC_SH_SF_Lb1EEENS7_ISC_EEED2Ev = comdat any

@.str = private unnamed_addr constant [4 x i8] c"\0A  \00", align 1
@.str.1 = private unnamed_addr constant [5 x i8] c" :: \00", align 1
@_ZTVN14chrome_lang_id18VectorIntWorkspaceE = hidden unnamed_addr constant { [4 x i8*] } { [4 x i8*] [i8* null, i8* null, i8* bitcast (void (%"class.chrome_lang_id::VectorIntWorkspace"*)* @_ZN14chrome_lang_id18VectorIntWorkspaceD2Ev to i8*), i8* bitcast (void (%"class.chrome_lang_id::VectorIntWorkspace"*)* @_ZN14chrome_lang_id18VectorIntWorkspaceD0Ev to i8*)] }, align 8
@.str.2 = private unnamed_addr constant [7 x i8] c"Vector\00", align 1
@_ZTVN14chrome_lang_id24VectorVectorIntWorkspaceE = hidden unnamed_addr constant { [4 x i8*] } { [4 x i8*] [i8* null, i8* null, i8* bitcast (void (%"class.chrome_lang_id::VectorVectorIntWorkspace"*)* @_ZN14chrome_lang_id24VectorVectorIntWorkspaceD2Ev to i8*), i8* bitcast (void (%"class.chrome_lang_id::VectorVectorIntWorkspace"*)* @_ZN14chrome_lang_id24VectorVectorIntWorkspaceD0Ev to i8*)] }, align 8
@.str.3 = private unnamed_addr constant [13 x i8] c"VectorVector\00", align 1
@_ZNSt3__1L19piecewise_constructE = internal constant %"struct.std::__1::piecewise_construct_t" undef, align 1

@_ZN14chrome_lang_id12WorkspaceSetC1Ev = hidden unnamed_addr alias void (%"class.chrome_lang_id::WorkspaceSet"*), void (%"class.chrome_lang_id::WorkspaceSet"*)* @_ZN14chrome_lang_id12WorkspaceSetC2Ev
@_ZN14chrome_lang_id12WorkspaceSetD1Ev = hidden unnamed_addr alias void (%"class.chrome_lang_id::WorkspaceSet"*), void (%"class.chrome_lang_id::WorkspaceSet"*)* @_ZN14chrome_lang_id12WorkspaceSetD2Ev
@_ZN14chrome_lang_id17WorkspaceRegistryC1Ev = hidden unnamed_addr alias void (%"class.chrome_lang_id::WorkspaceRegistry"*), void (%"class.chrome_lang_id::WorkspaceRegistry"*)* @_ZN14chrome_lang_id17WorkspaceRegistryC2Ev
@_ZN14chrome_lang_id17WorkspaceRegistryD1Ev = hidden unnamed_addr alias void (%"class.chrome_lang_id::WorkspaceRegistry"*), void (%"class.chrome_lang_id::WorkspaceRegistry"*)* @_ZN14chrome_lang_id17WorkspaceRegistryD2Ev
@_ZN14chrome_lang_id18VectorIntWorkspaceD1Ev = hidden unnamed_addr alias void (%"class.chrome_lang_id::VectorIntWorkspace"*), void (%"class.chrome_lang_id::VectorIntWorkspace"*)* @_ZN14chrome_lang_id18VectorIntWorkspaceD2Ev
@_ZN14chrome_lang_id18VectorIntWorkspaceC1Ei = hidden unnamed_addr alias void (%"class.chrome_lang_id::VectorIntWorkspace"*, i32), void (%"class.chrome_lang_id::VectorIntWorkspace"*, i32)* @_ZN14chrome_lang_id18VectorIntWorkspaceC2Ei
@_ZN14chrome_lang_id18VectorIntWorkspaceC1Eii = hidden unnamed_addr alias void (%"class.chrome_lang_id::VectorIntWorkspace"*, i32, i32), void (%"class.chrome_lang_id::VectorIntWorkspace"*, i32, i32)* @_ZN14chrome_lang_id18VectorIntWorkspaceC2Eii
@_ZN14chrome_lang_id18VectorIntWorkspaceC1ERKNSt3__16vectorIiNS1_9allocatorIiEEEE = hidden unnamed_addr alias void (%"class.chrome_lang_id::VectorIntWorkspace"*, %"class.std::__1::vector.72"*), void (%"class.chrome_lang_id::VectorIntWorkspace"*, %"class.std::__1::vector.72"*)* @_ZN14chrome_lang_id18VectorIntWorkspaceC2ERKNSt3__16vectorIiNS1_9allocatorIiEEEE
@_ZN14chrome_lang_id24VectorVectorIntWorkspaceD1Ev = hidden unnamed_addr alias void (%"class.chrome_lang_id::VectorVectorIntWorkspace"*), void (%"class.chrome_lang_id::VectorVectorIntWorkspace"*)* @_ZN14chrome_lang_id24VectorVectorIntWorkspaceD2Ev
@_ZN14chrome_lang_id24VectorVectorIntWorkspaceC1Ei = hidden unnamed_addr alias void (%"class.chrome_lang_id::VectorVectorIntWorkspace"*, i32), void (%"class.chrome_lang_id::VectorVectorIntWorkspace"*, i32)* @_ZN14chrome_lang_id24VectorVectorIntWorkspaceC2Ei

; Function Attrs: nounwind ssp uwtable
define hidden void @_ZN14chrome_lang_id12WorkspaceSetC2Ev(%"class.chrome_lang_id::WorkspaceSet"* nocapture) unnamed_addr #0 align 2 {
  %2 = getelementptr inbounds %"class.chrome_lang_id::WorkspaceSet", %"class.chrome_lang_id::WorkspaceSet"* %0, i64 0, i32 0, i32 0, i32 3
  %3 = bitcast %"class.std::__1::__compressed_pair.11"* %2 to i32*
  %4 = bitcast %"class.chrome_lang_id::WorkspaceSet"* %0 to i8*
  tail call void @llvm.memset.p0i8.i64(i8* align 8 %4, i8 0, i64 32, i1 false) #8
  store i32 1065353216, i32* %3, align 4
  ret void
}

; Function Attrs: nounwind ssp uwtable
define hidden void @_ZN14chrome_lang_id12WorkspaceSetD2Ev(%"class.chrome_lang_id::WorkspaceSet"*) unnamed_addr #0 align 2 {
  %2 = alloca %"class.chrome_lang_id::WorkspaceRegistry", align 8
  %3 = bitcast %"class.chrome_lang_id::WorkspaceRegistry"* %2 to i8*
  call void @llvm.lifetime.start.p0i8(i64 80, i8* nonnull %3) #8
  %4 = getelementptr inbounds %"class.chrome_lang_id::WorkspaceRegistry", %"class.chrome_lang_id::WorkspaceRegistry"* %2, i64 0, i32 0, i32 0, i32 3
  %5 = bitcast %"class.std::__1::__compressed_pair.34"* %4 to i32*
  call void @llvm.memset.p0i8.i64(i8* nonnull align 8 %3, i8 0, i64 32, i1 false) #8
  store i32 1065353216, i32* %5, align 8
  %6 = getelementptr inbounds %"class.chrome_lang_id::WorkspaceRegistry", %"class.chrome_lang_id::WorkspaceRegistry"* %2, i64 0, i32 1
  %7 = getelementptr inbounds %"class.chrome_lang_id::WorkspaceRegistry", %"class.chrome_lang_id::WorkspaceRegistry"* %2, i64 0, i32 1, i32 0, i32 3
  %8 = bitcast %"class.std::__1::__compressed_pair.58"* %7 to i32*
  %9 = bitcast %"class.std::__1::unordered_map.38"* %6 to i8*
  call void @llvm.memset.p0i8.i64(i8* align 8 %9, i8 0, i64 32, i1 false) #8
  store i32 1065353216, i32* %8, align 8
  call void @_ZN14chrome_lang_id12WorkspaceSet5ResetERKNS_17WorkspaceRegistryE(%"class.chrome_lang_id::WorkspaceSet"* %0, %"class.chrome_lang_id::WorkspaceRegistry"* nonnull dereferenceable(80) %2)
  %10 = getelementptr inbounds %"class.chrome_lang_id::WorkspaceRegistry", %"class.chrome_lang_id::WorkspaceRegistry"* %2, i64 0, i32 1, i32 0, i32 1, i32 0, i32 0, i32 0
  %11 = load %"struct.std::__1::__hash_node_base.43"*, %"struct.std::__1::__hash_node_base.43"** %10, align 8
  %12 = icmp eq %"struct.std::__1::__hash_node_base.43"* %11, null
  br i1 %12, label %47, label %13

13:                                               ; preds = %1, %44
  %14 = phi %"struct.std::__1::__hash_node_base.43"* [ %16, %44 ], [ %11, %1 ]
  %15 = getelementptr inbounds %"struct.std::__1::__hash_node_base.43", %"struct.std::__1::__hash_node_base.43"* %14, i64 0, i32 0
  %16 = load %"struct.std::__1::__hash_node_base.43"*, %"struct.std::__1::__hash_node_base.43"** %15, align 8
  %17 = getelementptr inbounds %"struct.std::__1::__hash_node_base.43", %"struct.std::__1::__hash_node_base.43"* %14, i64 3
  %18 = bitcast %"struct.std::__1::__hash_node_base.43"* %17 to %"class.std::__1::basic_string"**
  %19 = load %"class.std::__1::basic_string"*, %"class.std::__1::basic_string"** %18, align 8
  %20 = icmp eq %"class.std::__1::basic_string"* %19, null
  br i1 %20, label %44, label %21

21:                                               ; preds = %13
  %22 = bitcast %"class.std::__1::basic_string"* %19 to i8*
  %23 = getelementptr inbounds %"struct.std::__1::__hash_node_base.43", %"struct.std::__1::__hash_node_base.43"* %14, i64 4
  %24 = bitcast %"struct.std::__1::__hash_node_base.43"* %23 to %"class.std::__1::basic_string"**
  %25 = load %"class.std::__1::basic_string"*, %"class.std::__1::basic_string"** %24, align 8
  %26 = icmp eq %"class.std::__1::basic_string"* %25, %19
  br i1 %26, label %42, label %27

27:                                               ; preds = %21, %37
  %28 = phi %"class.std::__1::basic_string"* [ %29, %37 ], [ %25, %21 ]
  %29 = getelementptr inbounds %"class.std::__1::basic_string", %"class.std::__1::basic_string"* %28, i64 -1
  %30 = bitcast %"class.std::__1::basic_string"* %29 to %"struct.std::__1::basic_string<char, std::__1::char_traits<char>, std::__1::allocator<char> >::__short"*
  %31 = getelementptr inbounds %"struct.std::__1::basic_string<char, std::__1::char_traits<char>, std::__1::allocator<char> >::__short", %"struct.std::__1::basic_string<char, std::__1::char_traits<char>, std::__1::allocator<char> >::__short"* %30, i64 0, i32 1, i32 0
  %32 = load i8, i8* %31, align 1
  %33 = icmp slt i8 %32, 0
  br i1 %33, label %34, label %37

34:                                               ; preds = %27
  %35 = getelementptr inbounds %"class.std::__1::basic_string", %"class.std::__1::basic_string"* %29, i64 0, i32 0, i32 0, i32 0, i32 0, i32 0, i32 0
  %36 = load i8*, i8** %35, align 8
  call void @_ZdlPv(i8* %36) #9
  br label %37

37:                                               ; preds = %34, %27
  %38 = icmp eq %"class.std::__1::basic_string"* %29, %19
  br i1 %38, label %39, label %27

39:                                               ; preds = %37
  %40 = bitcast %"struct.std::__1::__hash_node_base.43"* %17 to i8**
  %41 = load i8*, i8** %40, align 8
  br label %42

42:                                               ; preds = %39, %21
  %43 = phi i8* [ %41, %39 ], [ %22, %21 ]
  store %"class.std::__1::basic_string"* %19, %"class.std::__1::basic_string"** %24, align 8
  call void @_ZdlPv(i8* %43) #9
  br label %44

44:                                               ; preds = %42, %13
  %45 = bitcast %"struct.std::__1::__hash_node_base.43"* %14 to i8*
  call void @_ZdlPv(i8* %45) #9
  %46 = icmp eq %"struct.std::__1::__hash_node_base.43"* %16, null
  br i1 %46, label %47, label %13

47:                                               ; preds = %44, %1
  %48 = getelementptr inbounds %"class.chrome_lang_id::WorkspaceRegistry", %"class.chrome_lang_id::WorkspaceRegistry"* %2, i64 0, i32 1, i32 0, i32 0, i32 0, i32 0, i32 0
  %49 = load %"struct.std::__1::__hash_node_base.43"**, %"struct.std::__1::__hash_node_base.43"*** %48, align 8
  store %"struct.std::__1::__hash_node_base.43"** null, %"struct.std::__1::__hash_node_base.43"*** %48, align 8
  %50 = icmp eq %"struct.std::__1::__hash_node_base.43"** %49, null
  br i1 %50, label %53, label %51

51:                                               ; preds = %47
  %52 = bitcast %"struct.std::__1::__hash_node_base.43"** %49 to i8*
  call void @_ZdlPv(i8* %52) #9
  br label %53

53:                                               ; preds = %47, %51
  %54 = getelementptr inbounds %"class.chrome_lang_id::WorkspaceRegistry", %"class.chrome_lang_id::WorkspaceRegistry"* %2, i64 0, i32 0, i32 0, i32 1, i32 0, i32 0, i32 0
  %55 = load %"struct.std::__1::__hash_node_base.19"*, %"struct.std::__1::__hash_node_base.19"** %54, align 8
  %56 = icmp eq %"struct.std::__1::__hash_node_base.19"* %55, null
  br i1 %56, label %72, label %57

57:                                               ; preds = %53, %69
  %58 = phi %"struct.std::__1::__hash_node_base.19"* [ %60, %69 ], [ %55, %53 ]
  %59 = getelementptr inbounds %"struct.std::__1::__hash_node_base.19", %"struct.std::__1::__hash_node_base.19"* %58, i64 0, i32 0
  %60 = load %"struct.std::__1::__hash_node_base.19"*, %"struct.std::__1::__hash_node_base.19"** %59, align 8
  %61 = getelementptr inbounds %"struct.std::__1::__hash_node_base.19", %"struct.std::__1::__hash_node_base.19"* %58, i64 3
  %62 = bitcast %"struct.std::__1::__hash_node_base.19"* %61 to %"struct.std::__1::basic_string<char, std::__1::char_traits<char>, std::__1::allocator<char> >::__short"*
  %63 = getelementptr inbounds %"struct.std::__1::basic_string<char, std::__1::char_traits<char>, std::__1::allocator<char> >::__short", %"struct.std::__1::basic_string<char, std::__1::char_traits<char>, std::__1::allocator<char> >::__short"* %62, i64 0, i32 1, i32 0
  %64 = load i8, i8* %63, align 1
  %65 = icmp slt i8 %64, 0
  br i1 %65, label %66, label %69

66:                                               ; preds = %57
  %67 = bitcast %"struct.std::__1::__hash_node_base.19"* %61 to i8**
  %68 = load i8*, i8** %67, align 8
  call void @_ZdlPv(i8* %68) #9
  br label %69

69:                                               ; preds = %66, %57
  %70 = bitcast %"struct.std::__1::__hash_node_base.19"* %58 to i8*
  call void @_ZdlPv(i8* %70) #9
  %71 = icmp eq %"struct.std::__1::__hash_node_base.19"* %60, null
  br i1 %71, label %72, label %57

72:                                               ; preds = %69, %53
  %73 = getelementptr inbounds %"class.chrome_lang_id::WorkspaceRegistry", %"class.chrome_lang_id::WorkspaceRegistry"* %2, i64 0, i32 0, i32 0, i32 0, i32 0, i32 0, i32 0
  %74 = load %"struct.std::__1::__hash_node_base.19"**, %"struct.std::__1::__hash_node_base.19"*** %73, align 8
  store %"struct.std::__1::__hash_node_base.19"** null, %"struct.std::__1::__hash_node_base.19"*** %73, align 8
  %75 = icmp eq %"struct.std::__1::__hash_node_base.19"** %74, null
  br i1 %75, label %78, label %76

76:                                               ; preds = %72
  %77 = bitcast %"struct.std::__1::__hash_node_base.19"** %74 to i8*
  call void @_ZdlPv(i8* %77) #9
  br label %78

78:                                               ; preds = %72, %76
  call void @llvm.lifetime.end.p0i8(i64 80, i8* nonnull %3) #8
  %79 = getelementptr inbounds %"class.chrome_lang_id::WorkspaceSet", %"class.chrome_lang_id::WorkspaceSet"* %0, i64 0, i32 0, i32 0, i32 1, i32 0, i32 0, i32 0
  %80 = load %"struct.std::__1::__hash_node_base"*, %"struct.std::__1::__hash_node_base"** %79, align 8
  %81 = icmp eq %"struct.std::__1::__hash_node_base"* %80, null
  br i1 %81, label %98, label %82

82:                                               ; preds = %78, %95
  %83 = phi %"struct.std::__1::__hash_node_base"* [ %85, %95 ], [ %80, %78 ]
  %84 = getelementptr inbounds %"struct.std::__1::__hash_node_base", %"struct.std::__1::__hash_node_base"* %83, i64 0, i32 0
  %85 = load %"struct.std::__1::__hash_node_base"*, %"struct.std::__1::__hash_node_base"** %84, align 8
  %86 = getelementptr inbounds %"struct.std::__1::__hash_node_base", %"struct.std::__1::__hash_node_base"* %83, i64 3
  %87 = bitcast %"struct.std::__1::__hash_node_base"* %86 to %"class.chrome_lang_id::Workspace"***
  %88 = load %"class.chrome_lang_id::Workspace"**, %"class.chrome_lang_id::Workspace"*** %87, align 8
  %89 = icmp eq %"class.chrome_lang_id::Workspace"** %88, null
  br i1 %89, label %95, label %90

90:                                               ; preds = %82
  %91 = ptrtoint %"class.chrome_lang_id::Workspace"** %88 to i64
  %92 = getelementptr inbounds %"struct.std::__1::__hash_node_base", %"struct.std::__1::__hash_node_base"* %83, i64 4
  %93 = bitcast %"struct.std::__1::__hash_node_base"* %92 to i64*
  store i64 %91, i64* %93, align 8
  %94 = bitcast %"class.chrome_lang_id::Workspace"** %88 to i8*
  call void @_ZdlPv(i8* %94) #9
  br label %95

95:                                               ; preds = %90, %82
  %96 = bitcast %"struct.std::__1::__hash_node_base"* %83 to i8*
  call void @_ZdlPv(i8* %96) #9
  %97 = icmp eq %"struct.std::__1::__hash_node_base"* %85, null
  br i1 %97, label %98, label %82

98:                                               ; preds = %95, %78
  %99 = getelementptr inbounds %"class.chrome_lang_id::WorkspaceSet", %"class.chrome_lang_id::WorkspaceSet"* %0, i64 0, i32 0, i32 0, i32 0, i32 0, i32 0, i32 0
  %100 = load %"struct.std::__1::__hash_node_base"**, %"struct.std::__1::__hash_node_base"*** %99, align 8
  store %"struct.std::__1::__hash_node_base"** null, %"struct.std::__1::__hash_node_base"*** %99, align 8
  %101 = icmp eq %"struct.std::__1::__hash_node_base"** %100, null
  br i1 %101, label %104, label %102

102:                                              ; preds = %98
  %103 = bitcast %"struct.std::__1::__hash_node_base"** %100 to i8*
  call void @_ZdlPv(i8* %103) #9
  br label %104

104:                                              ; preds = %98, %102
  ret void
}

; Function Attrs: nounwind ssp uwtable
define linkonce_odr hidden void @_ZN14chrome_lang_id12WorkspaceSet5ResetERKNS_17WorkspaceRegistryE(%"class.chrome_lang_id::WorkspaceSet"*, %"class.chrome_lang_id::WorkspaceRegistry"* dereferenceable(80)) local_unnamed_addr #0 comdat align 2 {
  %3 = alloca %"class.std::__1::tuple", align 8
  %4 = alloca %"class.std::__1::tuple.95", align 1
  %5 = getelementptr inbounds %"class.chrome_lang_id::WorkspaceSet", %"class.chrome_lang_id::WorkspaceSet"* %0, i64 0, i32 0, i32 0, i32 1, i32 0, i32 0, i32 0
  %6 = bitcast %"struct.std::__1::__hash_node_base"** %5 to i64*
  %7 = load i64, i64* %6, align 8
  %8 = icmp eq i64 %7, 0
  br i1 %8, label %9, label %82

9:                                                ; preds = %92, %2
  %10 = getelementptr inbounds %"class.chrome_lang_id::WorkspaceSet", %"class.chrome_lang_id::WorkspaceSet"* %0, i64 0, i32 0, i32 0, i32 2, i32 0, i32 0
  %11 = load i64, i64* %10, align 8
  %12 = icmp eq i64 %11, 0
  br i1 %12, label %72, label %13

13:                                               ; preds = %9
  %14 = load %"struct.std::__1::__hash_node_base"*, %"struct.std::__1::__hash_node_base"** %5, align 8
  %15 = icmp eq %"struct.std::__1::__hash_node_base"* %14, null
  br i1 %15, label %32, label %16

16:                                               ; preds = %13, %29
  %17 = phi %"struct.std::__1::__hash_node_base"* [ %19, %29 ], [ %14, %13 ]
  %18 = getelementptr inbounds %"struct.std::__1::__hash_node_base", %"struct.std::__1::__hash_node_base"* %17, i64 0, i32 0
  %19 = load %"struct.std::__1::__hash_node_base"*, %"struct.std::__1::__hash_node_base"** %18, align 8
  %20 = getelementptr inbounds %"struct.std::__1::__hash_node_base", %"struct.std::__1::__hash_node_base"* %17, i64 3
  %21 = bitcast %"struct.std::__1::__hash_node_base"* %20 to %"class.chrome_lang_id::Workspace"***
  %22 = load %"class.chrome_lang_id::Workspace"**, %"class.chrome_lang_id::Workspace"*** %21, align 8
  %23 = icmp eq %"class.chrome_lang_id::Workspace"** %22, null
  br i1 %23, label %29, label %24

24:                                               ; preds = %16
  %25 = ptrtoint %"class.chrome_lang_id::Workspace"** %22 to i64
  %26 = getelementptr inbounds %"struct.std::__1::__hash_node_base", %"struct.std::__1::__hash_node_base"* %17, i64 4
  %27 = bitcast %"struct.std::__1::__hash_node_base"* %26 to i64*
  store i64 %25, i64* %27, align 8
  %28 = bitcast %"class.chrome_lang_id::Workspace"** %22 to i8*
  tail call void @_ZdlPv(i8* %28) #9
  br label %29

29:                                               ; preds = %24, %16
  %30 = bitcast %"struct.std::__1::__hash_node_base"* %17 to i8*
  tail call void @_ZdlPv(i8* %30) #9
  %31 = icmp eq %"struct.std::__1::__hash_node_base"* %19, null
  br i1 %31, label %32, label %16

32:                                               ; preds = %29, %13
  store %"struct.std::__1::__hash_node_base"* null, %"struct.std::__1::__hash_node_base"** %5, align 8
  %33 = getelementptr inbounds %"class.chrome_lang_id::WorkspaceSet", %"class.chrome_lang_id::WorkspaceSet"* %0, i64 0, i32 0, i32 0, i32 0, i32 0, i32 1, i32 0, i32 0, i32 0, i32 0
  %34 = load i64, i64* %33, align 8
  %35 = icmp eq i64 %34, 0
  br i1 %35, label %54, label %36

36:                                               ; preds = %32
  %37 = getelementptr inbounds %"class.chrome_lang_id::WorkspaceSet", %"class.chrome_lang_id::WorkspaceSet"* %0, i64 0, i32 0, i32 0, i32 0, i32 0, i32 0, i32 0
  %38 = add i64 %34, -1
  %39 = and i64 %34, 3
  %40 = icmp ult i64 %38, 3
  br i1 %40, label %43, label %41

41:                                               ; preds = %36
  %42 = sub i64 %34, %39
  br label %55

43:                                               ; preds = %55, %36
  %44 = phi i64 [ 0, %36 ], [ %69, %55 ]
  %45 = icmp eq i64 %39, 0
  br i1 %45, label %54, label %46

46:                                               ; preds = %43, %46
  %47 = phi i64 [ %51, %46 ], [ %44, %43 ]
  %48 = phi i64 [ %52, %46 ], [ %39, %43 ]
  %49 = load %"struct.std::__1::__hash_node_base"**, %"struct.std::__1::__hash_node_base"*** %37, align 8
  %50 = getelementptr inbounds %"struct.std::__1::__hash_node_base"*, %"struct.std::__1::__hash_node_base"** %49, i64 %47
  store %"struct.std::__1::__hash_node_base"* null, %"struct.std::__1::__hash_node_base"** %50, align 8
  %51 = add nuw i64 %47, 1
  %52 = add i64 %48, -1
  %53 = icmp eq i64 %52, 0
  br i1 %53, label %54, label %46, !llvm.loop !2

54:                                               ; preds = %43, %46, %32
  store i64 0, i64* %10, align 8
  br label %72

55:                                               ; preds = %55, %41
  %56 = phi i64 [ 0, %41 ], [ %69, %55 ]
  %57 = phi i64 [ %42, %41 ], [ %70, %55 ]
  %58 = load %"struct.std::__1::__hash_node_base"**, %"struct.std::__1::__hash_node_base"*** %37, align 8
  %59 = getelementptr inbounds %"struct.std::__1::__hash_node_base"*, %"struct.std::__1::__hash_node_base"** %58, i64 %56
  store %"struct.std::__1::__hash_node_base"* null, %"struct.std::__1::__hash_node_base"** %59, align 8
  %60 = or i64 %56, 1
  %61 = load %"struct.std::__1::__hash_node_base"**, %"struct.std::__1::__hash_node_base"*** %37, align 8
  %62 = getelementptr inbounds %"struct.std::__1::__hash_node_base"*, %"struct.std::__1::__hash_node_base"** %61, i64 %60
  store %"struct.std::__1::__hash_node_base"* null, %"struct.std::__1::__hash_node_base"** %62, align 8
  %63 = or i64 %56, 2
  %64 = load %"struct.std::__1::__hash_node_base"**, %"struct.std::__1::__hash_node_base"*** %37, align 8
  %65 = getelementptr inbounds %"struct.std::__1::__hash_node_base"*, %"struct.std::__1::__hash_node_base"** %64, i64 %63
  store %"struct.std::__1::__hash_node_base"* null, %"struct.std::__1::__hash_node_base"** %65, align 8
  %66 = or i64 %56, 3
  %67 = load %"struct.std::__1::__hash_node_base"**, %"struct.std::__1::__hash_node_base"*** %37, align 8
  %68 = getelementptr inbounds %"struct.std::__1::__hash_node_base"*, %"struct.std::__1::__hash_node_base"** %67, i64 %66
  store %"struct.std::__1::__hash_node_base"* null, %"struct.std::__1::__hash_node_base"** %68, align 8
  %69 = add nuw i64 %56, 4
  %70 = add i64 %57, -4
  %71 = icmp eq i64 %70, 0
  br i1 %71, label %43, label %55

72:                                               ; preds = %9, %54
  %73 = getelementptr inbounds %"class.chrome_lang_id::WorkspaceRegistry", %"class.chrome_lang_id::WorkspaceRegistry"* %1, i64 0, i32 1, i32 0, i32 1, i32 0, i32 0, i32 0
  %74 = bitcast %"struct.std::__1::__hash_node_base.43"** %73 to i64*
  %75 = load i64, i64* %74, align 8
  %76 = icmp eq i64 %75, 0
  br i1 %76, label %118, label %77

77:                                               ; preds = %72
  %78 = getelementptr inbounds %"class.chrome_lang_id::WorkspaceSet", %"class.chrome_lang_id::WorkspaceSet"* %0, i64 0, i32 0, i32 0
  %79 = bitcast %"class.std::__1::tuple"* %3 to i8*
  %80 = getelementptr inbounds %"class.std::__1::tuple", %"class.std::__1::tuple"* %3, i64 0, i32 0, i32 0, i32 0
  %81 = getelementptr inbounds %"class.std::__1::tuple.95", %"class.std::__1::tuple.95"* %4, i64 0, i32 0
  br label %119

82:                                               ; preds = %2, %92
  %83 = phi i64 [ %94, %92 ], [ %7, %2 ]
  %84 = inttoptr i64 %83 to %"struct.std::__1::__hash_node"*
  %85 = getelementptr inbounds %"struct.std::__1::__hash_node", %"struct.std::__1::__hash_node"* %84, i64 0, i32 2, i32 0, i32 1
  %86 = getelementptr inbounds %"struct.std::__1::__hash_node", %"struct.std::__1::__hash_node"* %84, i64 0, i32 2, i32 0, i32 1, i32 0, i32 1
  %87 = bitcast %"class.chrome_lang_id::Workspace"*** %86 to i64*
  %88 = load i64, i64* %87, align 8
  %89 = bitcast %"class.std::__1::vector.87"* %85 to i64*
  %90 = load i64, i64* %89, align 8
  %91 = icmp eq i64 %88, %90
  br i1 %91, label %92, label %96

92:                                               ; preds = %111, %82
  %93 = inttoptr i64 %83 to i64*
  %94 = load i64, i64* %93, align 8
  %95 = icmp eq i64 %94, 0
  br i1 %95, label %9, label %82

96:                                               ; preds = %82, %111
  %97 = phi i64 [ %112, %111 ], [ %90, %82 ]
  %98 = phi i64 [ %113, %111 ], [ %88, %82 ]
  %99 = phi i64 [ %114, %111 ], [ 0, %82 ]
  %100 = inttoptr i64 %97 to %"class.chrome_lang_id::Workspace"**
  %101 = getelementptr inbounds %"class.chrome_lang_id::Workspace"*, %"class.chrome_lang_id::Workspace"** %100, i64 %99
  %102 = load %"class.chrome_lang_id::Workspace"*, %"class.chrome_lang_id::Workspace"** %101, align 8
  %103 = icmp eq %"class.chrome_lang_id::Workspace"* %102, null
  br i1 %103, label %111, label %104

104:                                              ; preds = %96
  %105 = bitcast %"class.chrome_lang_id::Workspace"* %102 to void (%"class.chrome_lang_id::Workspace"*)***
  %106 = load void (%"class.chrome_lang_id::Workspace"*)**, void (%"class.chrome_lang_id::Workspace"*)*** %105, align 8
  %107 = getelementptr inbounds void (%"class.chrome_lang_id::Workspace"*)*, void (%"class.chrome_lang_id::Workspace"*)** %106, i64 1
  %108 = load void (%"class.chrome_lang_id::Workspace"*)*, void (%"class.chrome_lang_id::Workspace"*)** %107, align 8
  tail call void %108(%"class.chrome_lang_id::Workspace"* nonnull %102) #8
  %109 = load i64, i64* %87, align 8
  %110 = load i64, i64* %89, align 8
  br label %111

111:                                              ; preds = %96, %104
  %112 = phi i64 [ %97, %96 ], [ %110, %104 ]
  %113 = phi i64 [ %98, %96 ], [ %109, %104 ]
  %114 = add nuw i64 %99, 1
  %115 = sub i64 %113, %112
  %116 = ashr exact i64 %115, 3
  %117 = icmp ult i64 %114, %116
  br i1 %117, label %96, label %92

118:                                              ; preds = %151, %72
  ret void

119:                                              ; preds = %77, %151
  %120 = phi i64 [ %75, %77 ], [ %153, %151 ]
  %121 = inttoptr i64 %120 to %"struct.std::__1::__hash_node.105"*
  %122 = getelementptr inbounds %"struct.std::__1::__hash_node.105", %"struct.std::__1::__hash_node.105"* %121, i64 0, i32 2, i32 0, i32 0
  call void @llvm.lifetime.start.p0i8(i64 8, i8* nonnull %79) #8
  store %"class.std::__1::type_index"* %122, %"class.std::__1::type_index"** %80, align 8
  call void @llvm.lifetime.start.p0i8(i64 1, i8* nonnull %81) #8
  %123 = call { %"struct.std::__1::__hash_node_base"*, i8 } @_ZNSt3__112__hash_tableINS_17__hash_value_typeINS_10type_indexENS_6vectorIPN14chrome_lang_id9WorkspaceENS_9allocatorIS6_EEEEEENS_22__unordered_map_hasherIS2_SA_NS_4hashIS2_EENS_8equal_toIS2_EELb1EEENS_21__unordered_map_equalIS2_SA_SF_SD_Lb1EEENS7_ISA_EEE25__emplace_unique_key_argsIS2_JRKNS_21piecewise_construct_tENS_5tupleIJRKS2_EEENSP_IJEEEEEENS_4pairINS_15__hash_iteratorIPNS_11__hash_nodeISA_PvEEEEbEERKT_DpOT0_(%"class.std::__1::__hash_table"* %78, %"class.std::__1::type_index"* dereferenceable(8) %122, %"struct.std::__1::piecewise_construct_t"* nonnull dereferenceable(1) @_ZNSt3__1L19piecewise_constructE, %"class.std::__1::tuple"* nonnull dereferenceable(8) %3, %"class.std::__1::tuple.95"* nonnull dereferenceable(1) %4) #8
  %124 = extractvalue { %"struct.std::__1::__hash_node_base"*, i8 } %123, 0
  %125 = getelementptr inbounds %"struct.std::__1::__hash_node_base", %"struct.std::__1::__hash_node_base"* %124, i64 3
  call void @llvm.lifetime.end.p0i8(i64 1, i8* nonnull %81) #8
  call void @llvm.lifetime.end.p0i8(i64 8, i8* nonnull %79) #8
  %126 = getelementptr inbounds %"struct.std::__1::__hash_node.105", %"struct.std::__1::__hash_node.105"* %121, i64 0, i32 2, i32 0, i32 1
  %127 = getelementptr inbounds %"struct.std::__1::__hash_node.105", %"struct.std::__1::__hash_node.105"* %121, i64 0, i32 2, i32 0, i32 1, i32 0, i32 1
  %128 = bitcast %"class.std::__1::basic_string"** %127 to i64*
  %129 = load i64, i64* %128, align 8
  %130 = bitcast %"class.std::__1::vector"* %126 to i64*
  %131 = load i64, i64* %130, align 8
  %132 = sub i64 %129, %131
  %133 = sdiv exact i64 %132, 24
  %134 = getelementptr inbounds %"struct.std::__1::__hash_node_base", %"struct.std::__1::__hash_node_base"* %124, i64 4
  %135 = bitcast %"struct.std::__1::__hash_node_base"* %134 to %"class.chrome_lang_id::Workspace"***
  %136 = bitcast %"struct.std::__1::__hash_node_base"* %134 to i64*
  %137 = load i64, i64* %136, align 8
  %138 = bitcast %"struct.std::__1::__hash_node_base"* %125 to i64*
  %139 = load i64, i64* %138, align 8
  %140 = sub i64 %137, %139
  %141 = ashr exact i64 %140, 3
  %142 = icmp ugt i64 %133, %141
  %143 = inttoptr i64 %139 to %"class.chrome_lang_id::Workspace"**
  br i1 %142, label %144, label %147

144:                                              ; preds = %119
  %145 = bitcast %"struct.std::__1::__hash_node_base"* %125 to %"class.std::__1::vector.87"*
  %146 = sub nsw i64 %133, %141
  call void @_ZNSt3__16vectorIPN14chrome_lang_id9WorkspaceENS_9allocatorIS3_EEE8__appendEm(%"class.std::__1::vector.87"* %145, i64 %146) #8
  br label %151

147:                                              ; preds = %119
  %148 = icmp ult i64 %133, %141
  br i1 %148, label %149, label %151

149:                                              ; preds = %147
  %150 = getelementptr inbounds %"class.chrome_lang_id::Workspace"*, %"class.chrome_lang_id::Workspace"** %143, i64 %133
  store %"class.chrome_lang_id::Workspace"** %150, %"class.chrome_lang_id::Workspace"*** %135, align 8
  br label %151

151:                                              ; preds = %144, %147, %149
  %152 = inttoptr i64 %120 to i64*
  %153 = load i64, i64* %152, align 8
  %154 = icmp eq i64 %153, 0
  br i1 %154, label %118, label %119
}

; Function Attrs: argmemonly nounwind
declare void @llvm.lifetime.start.p0i8(i64 immarg, i8* nocapture) #1

; Function Attrs: argmemonly nounwind
declare void @llvm.lifetime.end.p0i8(i64 immarg, i8* nocapture) #1

; Function Attrs: nounwind ssp uwtable
define hidden void @_ZN14chrome_lang_id17WorkspaceRegistryC2Ev(%"class.chrome_lang_id::WorkspaceRegistry"* nocapture) unnamed_addr #0 align 2 {
  %2 = getelementptr inbounds %"class.chrome_lang_id::WorkspaceRegistry", %"class.chrome_lang_id::WorkspaceRegistry"* %0, i64 0, i32 0, i32 0, i32 3
  %3 = bitcast %"class.std::__1::__compressed_pair.34"* %2 to i32*
  %4 = bitcast %"class.chrome_lang_id::WorkspaceRegistry"* %0 to i8*
  tail call void @llvm.memset.p0i8.i64(i8* align 8 %4, i8 0, i64 32, i1 false) #8
  store i32 1065353216, i32* %3, align 4
  %5 = getelementptr inbounds %"class.chrome_lang_id::WorkspaceRegistry", %"class.chrome_lang_id::WorkspaceRegistry"* %0, i64 0, i32 1
  %6 = getelementptr inbounds %"class.chrome_lang_id::WorkspaceRegistry", %"class.chrome_lang_id::WorkspaceRegistry"* %0, i64 0, i32 1, i32 0, i32 3
  %7 = bitcast %"class.std::__1::__compressed_pair.58"* %6 to i32*
  %8 = bitcast %"class.std::__1::unordered_map.38"* %5 to i8*
  tail call void @llvm.memset.p0i8.i64(i8* align 8 %8, i8 0, i64 32, i1 false) #8
  store i32 1065353216, i32* %7, align 4
  ret void
}

; Function Attrs: nounwind ssp uwtable
define hidden void @_ZN14chrome_lang_id17WorkspaceRegistryD2Ev(%"class.chrome_lang_id::WorkspaceRegistry"*) unnamed_addr #0 align 2 {
  %2 = getelementptr inbounds %"class.chrome_lang_id::WorkspaceRegistry", %"class.chrome_lang_id::WorkspaceRegistry"* %0, i64 0, i32 1, i32 0
  tail call void @_ZNSt3__112__hash_tableINS_17__hash_value_typeINS_10type_indexENS_6vectorINS_12basic_stringIcNS_11char_traitsIcEENS_9allocatorIcEEEENS7_IS9_EEEEEENS_22__unordered_map_hasherIS2_SC_NS_4hashIS2_EENS_8equal_toIS2_EELb1EEENS_21__unordered_map_equalIS2_SC_SH_SF_Lb1EEENS7_ISC_EEED2Ev(%"class.std::__1::__hash_table.39"* %2) #8
  %3 = getelementptr inbounds %"class.chrome_lang_id::WorkspaceRegistry", %"class.chrome_lang_id::WorkspaceRegistry"* %0, i64 0, i32 0, i32 0, i32 1, i32 0, i32 0, i32 0
  %4 = load %"struct.std::__1::__hash_node_base.19"*, %"struct.std::__1::__hash_node_base.19"** %3, align 8
  %5 = icmp eq %"struct.std::__1::__hash_node_base.19"* %4, null
  br i1 %5, label %21, label %6

6:                                                ; preds = %1, %18
  %7 = phi %"struct.std::__1::__hash_node_base.19"* [ %9, %18 ], [ %4, %1 ]
  %8 = getelementptr inbounds %"struct.std::__1::__hash_node_base.19", %"struct.std::__1::__hash_node_base.19"* %7, i64 0, i32 0
  %9 = load %"struct.std::__1::__hash_node_base.19"*, %"struct.std::__1::__hash_node_base.19"** %8, align 8
  %10 = getelementptr inbounds %"struct.std::__1::__hash_node_base.19", %"struct.std::__1::__hash_node_base.19"* %7, i64 3
  %11 = bitcast %"struct.std::__1::__hash_node_base.19"* %10 to %"struct.std::__1::basic_string<char, std::__1::char_traits<char>, std::__1::allocator<char> >::__short"*
  %12 = getelementptr inbounds %"struct.std::__1::basic_string<char, std::__1::char_traits<char>, std::__1::allocator<char> >::__short", %"struct.std::__1::basic_string<char, std::__1::char_traits<char>, std::__1::allocator<char> >::__short"* %11, i64 0, i32 1, i32 0
  %13 = load i8, i8* %12, align 1
  %14 = icmp slt i8 %13, 0
  br i1 %14, label %15, label %18

15:                                               ; preds = %6
  %16 = bitcast %"struct.std::__1::__hash_node_base.19"* %10 to i8**
  %17 = load i8*, i8** %16, align 8
  tail call void @_ZdlPv(i8* %17) #9
  br label %18

18:                                               ; preds = %15, %6
  %19 = bitcast %"struct.std::__1::__hash_node_base.19"* %7 to i8*
  tail call void @_ZdlPv(i8* %19) #9
  %20 = icmp eq %"struct.std::__1::__hash_node_base.19"* %9, null
  br i1 %20, label %21, label %6

21:                                               ; preds = %18, %1
  %22 = getelementptr inbounds %"class.chrome_lang_id::WorkspaceRegistry", %"class.chrome_lang_id::WorkspaceRegistry"* %0, i64 0, i32 0, i32 0, i32 0, i32 0, i32 0, i32 0
  %23 = load %"struct.std::__1::__hash_node_base.19"**, %"struct.std::__1::__hash_node_base.19"*** %22, align 8
  store %"struct.std::__1::__hash_node_base.19"** null, %"struct.std::__1::__hash_node_base.19"*** %22, align 8
  %24 = icmp eq %"struct.std::__1::__hash_node_base.19"** %23, null
  br i1 %24, label %27, label %25

25:                                               ; preds = %21
  %26 = bitcast %"struct.std::__1::__hash_node_base.19"** %23 to i8*
  tail call void @_ZdlPv(i8* %26) #9
  br label %27

27:                                               ; preds = %21, %25
  ret void
}

; Function Attrs: nounwind ssp uwtable
define hidden void @_ZNK14chrome_lang_id17WorkspaceRegistry11DebugStringEv(%"class.std::__1::basic_string"* noalias sret, %"class.chrome_lang_id::WorkspaceRegistry"* nocapture readonly) local_unnamed_addr #0 align 2 {
  %3 = bitcast %"class.std::__1::basic_string"* %0 to i8*
  tail call void @llvm.memset.p0i8.i64(i8* align 8 %3, i8 0, i64 24, i1 false) #8
  %4 = getelementptr inbounds %"class.chrome_lang_id::WorkspaceRegistry", %"class.chrome_lang_id::WorkspaceRegistry"* %1, i64 0, i32 1, i32 0, i32 1, i32 0, i32 0, i32 0
  %5 = bitcast %"struct.std::__1::__hash_node_base.43"** %4 to i64*
  %6 = load i64, i64* %5, align 8
  %7 = icmp eq i64 %6, 0
  br i1 %7, label %11, label %8

8:                                                ; preds = %2
  %9 = getelementptr inbounds %"class.chrome_lang_id::WorkspaceRegistry", %"class.chrome_lang_id::WorkspaceRegistry"* %1, i64 0, i32 0, i32 0, i32 0, i32 0, i32 1, i32 0, i32 0, i32 0, i32 0
  %10 = getelementptr inbounds %"class.chrome_lang_id::WorkspaceRegistry", %"class.chrome_lang_id::WorkspaceRegistry"* %1, i64 0, i32 0, i32 0, i32 0, i32 0, i32 0, i32 0
  br label %12

11:                                               ; preds = %89, %2
  ret void

12:                                               ; preds = %8, %89
  %13 = phi i64 [ %6, %8 ], [ %91, %89 ]
  %14 = inttoptr i64 %13 to %"struct.std::__1::__hash_node.105"*
  %15 = getelementptr inbounds %"struct.std::__1::__hash_node.105", %"struct.std::__1::__hash_node.105"* %14, i64 0, i32 2, i32 0, i32 0, i32 0
  %16 = load %"class.std::type_info"*, %"class.std::type_info"** %15, align 8
  %17 = getelementptr inbounds %"class.std::type_info", %"class.std::type_info"* %16, i64 0, i32 1
  %18 = bitcast i8** %17 to i64*
  %19 = load i64, i64* %18, align 8
  %20 = load i64, i64* %9, align 8
  %21 = icmp eq i64 %20, 0
  %22 = inttoptr i64 %19 to i8*
  br i1 %21, label %72, label %23

23:                                               ; preds = %12
  %24 = tail call i64 @llvm.ctpop.i64(i64 %20) #8, !range !4
  %25 = icmp ugt i64 %24, 1
  br i1 %25, label %29, label %26

26:                                               ; preds = %23
  %27 = add i64 %20, -1
  %28 = and i64 %27, %19
  br label %33

29:                                               ; preds = %23
  %30 = icmp ult i64 %19, %20
  br i1 %30, label %33, label %31

31:                                               ; preds = %29
  %32 = urem i64 %19, %20
  br label %33

33:                                               ; preds = %31, %29, %26
  %34 = phi i64 [ %28, %26 ], [ %32, %31 ], [ %19, %29 ]
  %35 = load %"struct.std::__1::__hash_node_base.19"**, %"struct.std::__1::__hash_node_base.19"*** %10, align 8
  %36 = getelementptr inbounds %"struct.std::__1::__hash_node_base.19"*, %"struct.std::__1::__hash_node_base.19"** %35, i64 %34
  %37 = load %"struct.std::__1::__hash_node_base.19"*, %"struct.std::__1::__hash_node_base.19"** %36, align 8
  %38 = icmp eq %"struct.std::__1::__hash_node_base.19"* %37, null
  br i1 %38, label %72, label %39

39:                                               ; preds = %33
  %40 = getelementptr inbounds %"struct.std::__1::__hash_node_base.19", %"struct.std::__1::__hash_node_base.19"* %37, i64 0, i32 0
  %41 = load %"struct.std::__1::__hash_node_base.19"*, %"struct.std::__1::__hash_node_base.19"** %40, align 8
  %42 = icmp eq %"struct.std::__1::__hash_node_base.19"* %41, null
  br i1 %42, label %72, label %43

43:                                               ; preds = %39
  %44 = add i64 %20, -1
  br label %45

45:                                               ; preds = %68, %43
  %46 = phi %"struct.std::__1::__hash_node_base.19"* [ %41, %43 ], [ %70, %68 ]
  %47 = getelementptr inbounds %"struct.std::__1::__hash_node_base.19", %"struct.std::__1::__hash_node_base.19"* %46, i64 1
  %48 = bitcast %"struct.std::__1::__hash_node_base.19"* %47 to i64*
  %49 = load i64, i64* %48, align 8
  %50 = icmp eq i64 %19, %49
  br i1 %50, label %61, label %51

51:                                               ; preds = %45
  br i1 %25, label %54, label %52

52:                                               ; preds = %51
  %53 = and i64 %49, %44
  br label %58

54:                                               ; preds = %51
  %55 = icmp ult i64 %49, %20
  br i1 %55, label %58, label %56

56:                                               ; preds = %54
  %57 = urem i64 %49, %20
  br label %58

58:                                               ; preds = %56, %54, %52
  %59 = phi i64 [ %53, %52 ], [ %57, %56 ], [ %49, %54 ]
  %60 = icmp eq i64 %59, %34
  br i1 %60, label %68, label %72

61:                                               ; preds = %45
  %62 = getelementptr inbounds %"struct.std::__1::__hash_node_base.19", %"struct.std::__1::__hash_node_base.19"* %46, i64 2
  %63 = bitcast %"struct.std::__1::__hash_node_base.19"* %62 to %"class.std::type_info"**
  %64 = load %"class.std::type_info"*, %"class.std::type_info"** %63, align 8
  %65 = getelementptr inbounds %"class.std::type_info", %"class.std::type_info"* %64, i64 0, i32 1
  %66 = load i8*, i8** %65, align 8
  %67 = icmp eq i8* %66, %22
  br i1 %67, label %73, label %68

68:                                               ; preds = %61, %58
  %69 = getelementptr inbounds %"struct.std::__1::__hash_node_base.19", %"struct.std::__1::__hash_node_base.19"* %46, i64 0, i32 0
  %70 = load %"struct.std::__1::__hash_node_base.19"*, %"struct.std::__1::__hash_node_base.19"** %69, align 8
  %71 = icmp eq %"struct.std::__1::__hash_node_base.19"* %70, null
  br i1 %71, label %72, label %45

72:                                               ; preds = %39, %33, %12, %68, %58
  tail call void @abort() #10
  unreachable

73:                                               ; preds = %61
  %74 = getelementptr inbounds %"struct.std::__1::__hash_node_base.19", %"struct.std::__1::__hash_node_base.19"* %46, i64 3
  %75 = getelementptr inbounds %"struct.std::__1::__hash_node.105", %"struct.std::__1::__hash_node.105"* %14, i64 0, i32 2, i32 0, i32 1
  %76 = getelementptr inbounds %"struct.std::__1::__hash_node.105", %"struct.std::__1::__hash_node.105"* %14, i64 0, i32 2, i32 0, i32 1, i32 0, i32 1
  %77 = bitcast %"class.std::__1::basic_string"** %76 to i64*
  %78 = load i64, i64* %77, align 8
  %79 = bitcast %"class.std::__1::vector"* %75 to i64*
  %80 = load i64, i64* %79, align 8
  %81 = icmp eq i64 %78, %80
  br i1 %81, label %89, label %82

82:                                               ; preds = %73
  %83 = bitcast %"struct.std::__1::__hash_node_base.19"* %74 to %"struct.std::__1::basic_string<char, std::__1::char_traits<char>, std::__1::allocator<char> >::__short"*
  %84 = getelementptr inbounds %"struct.std::__1::basic_string<char, std::__1::char_traits<char>, std::__1::allocator<char> >::__short", %"struct.std::__1::basic_string<char, std::__1::char_traits<char>, std::__1::allocator<char> >::__short"* %83, i64 0, i32 1, i32 0
  %85 = bitcast %"struct.std::__1::__hash_node_base.19"* %74 to i8**
  %86 = getelementptr inbounds %"struct.std::__1::__hash_node_base.19", %"struct.std::__1::__hash_node_base.19"* %46, i64 4
  %87 = bitcast %"struct.std::__1::__hash_node_base.19"* %86 to i64*
  %88 = bitcast %"struct.std::__1::__hash_node_base.19"* %74 to i8*
  br label %93

89:                                               ; preds = %93, %73
  %90 = inttoptr i64 %13 to i64*
  %91 = load i64, i64* %90, align 8
  %92 = icmp eq i64 %91, 0
  br i1 %92, label %11, label %12

93:                                               ; preds = %82, %93
  %94 = phi i64 [ %80, %82 ], [ %123, %93 ]
  %95 = phi i64 [ 0, %82 ], [ %121, %93 ]
  %96 = inttoptr i64 %94 to %"class.std::__1::basic_string"*
  %97 = getelementptr inbounds %"class.std::__1::basic_string", %"class.std::__1::basic_string"* %96, i64 %95
  %98 = tail call dereferenceable(24) %"class.std::__1::basic_string"* @_ZNSt3__112basic_stringIcNS_11char_traitsIcEENS_9allocatorIcEEE6appendEPKc(%"class.std::__1::basic_string"* %0, i8* getelementptr inbounds ([4 x i8], [4 x i8]* @.str, i64 0, i64 0)) #8
  %99 = load i8, i8* %84, align 1
  %100 = icmp slt i8 %99, 0
  %101 = load i8*, i8** %85, align 8
  %102 = load i64, i64* %87, align 8
  %103 = zext i8 %99 to i64
  %104 = select i1 %100, i8* %101, i8* %88
  %105 = select i1 %100, i64 %102, i64 %103
  %106 = tail call dereferenceable(24) %"class.std::__1::basic_string"* @_ZNSt3__112basic_stringIcNS_11char_traitsIcEENS_9allocatorIcEEE6appendEPKcm(%"class.std::__1::basic_string"* %0, i8* %104, i64 %105) #8
  %107 = tail call dereferenceable(24) %"class.std::__1::basic_string"* @_ZNSt3__112basic_stringIcNS_11char_traitsIcEENS_9allocatorIcEEE6appendEPKc(%"class.std::__1::basic_string"* %0, i8* getelementptr inbounds ([5 x i8], [5 x i8]* @.str.1, i64 0, i64 0)) #8
  %108 = bitcast %"class.std::__1::basic_string"* %97 to %"struct.std::__1::basic_string<char, std::__1::char_traits<char>, std::__1::allocator<char> >::__short"*
  %109 = getelementptr inbounds %"struct.std::__1::basic_string<char, std::__1::char_traits<char>, std::__1::allocator<char> >::__short", %"struct.std::__1::basic_string<char, std::__1::char_traits<char>, std::__1::allocator<char> >::__short"* %108, i64 0, i32 1, i32 0
  %110 = load i8, i8* %109, align 1
  %111 = icmp slt i8 %110, 0
  %112 = getelementptr inbounds %"class.std::__1::basic_string", %"class.std::__1::basic_string"* %97, i64 0, i32 0, i32 0, i32 0, i32 0, i32 0, i32 0
  %113 = load i8*, i8** %112, align 8
  %114 = getelementptr inbounds %"class.std::__1::basic_string", %"class.std::__1::basic_string"* %96, i64 %95, i32 0, i32 0, i32 0, i32 0, i32 0, i32 1
  %115 = load i64, i64* %114, align 8
  %116 = bitcast %"class.std::__1::basic_string"* %97 to i8*
  %117 = zext i8 %110 to i64
  %118 = select i1 %111, i8* %113, i8* %116
  %119 = select i1 %111, i64 %115, i64 %117
  %120 = tail call dereferenceable(24) %"class.std::__1::basic_string"* @_ZNSt3__112basic_stringIcNS_11char_traitsIcEENS_9allocatorIcEEE6appendEPKcm(%"class.std::__1::basic_string"* %0, i8* %118, i64 %119) #8
  %121 = add nuw i64 %95, 1
  %122 = load i64, i64* %77, align 8
  %123 = load i64, i64* %79, align 8
  %124 = sub i64 %122, %123
  %125 = sdiv exact i64 %124, 24
  %126 = icmp ult i64 %121, %125
  br i1 %126, label %93, label %89
}

; Function Attrs: nounwind ssp uwtable
define hidden void @_ZN14chrome_lang_id18VectorIntWorkspaceD2Ev(%"class.chrome_lang_id::VectorIntWorkspace"* nocapture) unnamed_addr #0 align 2 {
  %2 = getelementptr inbounds %"class.chrome_lang_id::VectorIntWorkspace", %"class.chrome_lang_id::VectorIntWorkspace"* %0, i64 0, i32 0, i32 0
  store i32 (...)** bitcast (i8** getelementptr inbounds ({ [4 x i8*] }, { [4 x i8*] }* @_ZTVN14chrome_lang_id18VectorIntWorkspaceE, i64 0, inrange i32 0, i64 2) to i32 (...)**), i32 (...)*** %2, align 8
  %3 = getelementptr inbounds %"class.chrome_lang_id::VectorIntWorkspace", %"class.chrome_lang_id::VectorIntWorkspace"* %0, i64 0, i32 1, i32 0, i32 0
  %4 = load i32*, i32** %3, align 8
  %5 = icmp eq i32* %4, null
  br i1 %5, label %11, label %6

6:                                                ; preds = %1
  %7 = ptrtoint i32* %4 to i64
  %8 = getelementptr inbounds %"class.chrome_lang_id::VectorIntWorkspace", %"class.chrome_lang_id::VectorIntWorkspace"* %0, i64 0, i32 1, i32 0, i32 1
  %9 = bitcast i32** %8 to i64*
  store i64 %7, i64* %9, align 8
  %10 = bitcast i32* %4 to i8*
  tail call void @_ZdlPv(i8* %10) #9
  br label %11

11:                                               ; preds = %1, %6
  ret void
}

; Function Attrs: nounwind ssp uwtable
define hidden void @_ZN14chrome_lang_id18VectorIntWorkspaceD0Ev(%"class.chrome_lang_id::VectorIntWorkspace"*) unnamed_addr #0 align 2 {
  %2 = getelementptr inbounds %"class.chrome_lang_id::VectorIntWorkspace", %"class.chrome_lang_id::VectorIntWorkspace"* %0, i64 0, i32 0, i32 0
  store i32 (...)** bitcast (i8** getelementptr inbounds ({ [4 x i8*] }, { [4 x i8*] }* @_ZTVN14chrome_lang_id18VectorIntWorkspaceE, i64 0, inrange i32 0, i64 2) to i32 (...)**), i32 (...)*** %2, align 8
  %3 = getelementptr inbounds %"class.chrome_lang_id::VectorIntWorkspace", %"class.chrome_lang_id::VectorIntWorkspace"* %0, i64 0, i32 1, i32 0, i32 0
  %4 = load i32*, i32** %3, align 8
  %5 = icmp eq i32* %4, null
  br i1 %5, label %11, label %6

6:                                                ; preds = %1
  %7 = ptrtoint i32* %4 to i64
  %8 = getelementptr inbounds %"class.chrome_lang_id::VectorIntWorkspace", %"class.chrome_lang_id::VectorIntWorkspace"* %0, i64 0, i32 1, i32 0, i32 1
  %9 = bitcast i32** %8 to i64*
  store i64 %7, i64* %9, align 8
  %10 = bitcast i32* %4 to i8*
  tail call void @_ZdlPv(i8* %10) #9
  br label %11

11:                                               ; preds = %1, %6
  %12 = bitcast %"class.chrome_lang_id::VectorIntWorkspace"* %0 to i8*
  tail call void @_ZdlPv(i8* %12) #9
  ret void
}

; Function Attrs: nobuiltin nounwind
declare void @_ZdlPv(i8*) local_unnamed_addr #2

; Function Attrs: nounwind ssp uwtable
define hidden void @_ZN14chrome_lang_id18VectorIntWorkspaceC2Ei(%"class.chrome_lang_id::VectorIntWorkspace"*, i32) unnamed_addr #0 align 2 {
  %3 = getelementptr inbounds %"class.chrome_lang_id::VectorIntWorkspace", %"class.chrome_lang_id::VectorIntWorkspace"* %0, i64 0, i32 0, i32 0
  store i32 (...)** bitcast (i8** getelementptr inbounds ({ [4 x i8*] }, { [4 x i8*] }* @_ZTVN14chrome_lang_id18VectorIntWorkspaceE, i64 0, inrange i32 0, i64 2) to i32 (...)**), i32 (...)*** %3, align 8
  %4 = getelementptr inbounds %"class.chrome_lang_id::VectorIntWorkspace", %"class.chrome_lang_id::VectorIntWorkspace"* %0, i64 0, i32 1
  %5 = sext i32 %1 to i64
  %6 = bitcast %"class.std::__1::vector.72"* %4 to i8*
  tail call void @llvm.memset.p0i8.i64(i8* align 8 %6, i8 0, i64 24, i1 false) #8
  %7 = icmp eq i32 %1, 0
  br i1 %7, label %29, label %8

8:                                                ; preds = %2
  %9 = icmp slt i32 %1, 0
  br i1 %9, label %10, label %12

10:                                               ; preds = %8
  %11 = bitcast %"class.std::__1::vector.72"* %4 to %"class.std::__1::__vector_base_common"*
  tail call void @_ZNKSt3__120__vector_base_commonILb1EE20__throw_length_errorEv(%"class.std::__1::__vector_base_common"* %11) #10
  unreachable

12:                                               ; preds = %8
  %13 = shl nsw i64 %5, 2
  %14 = tail call i8* @_Znwm(i64 %13) #9
  %15 = bitcast i8* %14 to i32*
  %16 = getelementptr inbounds %"class.chrome_lang_id::VectorIntWorkspace", %"class.chrome_lang_id::VectorIntWorkspace"* %0, i64 0, i32 1, i32 0, i32 1
  %17 = bitcast %"class.std::__1::vector.72"* %4 to i8**
  store i8* %14, i8** %17, align 8
  %18 = getelementptr inbounds i32, i32* %15, i64 %5
  %19 = getelementptr inbounds %"class.chrome_lang_id::VectorIntWorkspace", %"class.chrome_lang_id::VectorIntWorkspace"* %0, i64 0, i32 1, i32 0, i32 2, i32 0, i32 0
  store i32* %18, i32** %19, align 8
  %20 = bitcast i32** %16 to i64*
  %21 = ptrtoint i8* %14 to i64
  %22 = add nsw i64 %5, -1
  %23 = getelementptr i32, i32* %15, i64 %22
  %24 = ptrtoint i32* %23 to i64
  %25 = sub i64 4, %21
  %26 = add i64 %25, %24
  %27 = and i64 %26, -4
  tail call void @llvm.memset.p0i8.i64(i8* nonnull align 4 %14, i8 0, i64 %27, i1 false) #8
  %28 = ptrtoint i32* %18 to i64
  store i64 %28, i64* %20, align 8
  br label %29

29:                                               ; preds = %2, %12
  ret void
}

; Function Attrs: nounwind ssp uwtable
define hidden void @_ZN14chrome_lang_id18VectorIntWorkspaceC2Eii(%"class.chrome_lang_id::VectorIntWorkspace"*, i32, i32) unnamed_addr #0 align 2 {
  %4 = getelementptr inbounds %"class.chrome_lang_id::VectorIntWorkspace", %"class.chrome_lang_id::VectorIntWorkspace"* %0, i64 0, i32 0, i32 0
  store i32 (...)** bitcast (i8** getelementptr inbounds ({ [4 x i8*] }, { [4 x i8*] }* @_ZTVN14chrome_lang_id18VectorIntWorkspaceE, i64 0, inrange i32 0, i64 2) to i32 (...)**), i32 (...)*** %4, align 8
  %5 = getelementptr inbounds %"class.chrome_lang_id::VectorIntWorkspace", %"class.chrome_lang_id::VectorIntWorkspace"* %0, i64 0, i32 1
  %6 = sext i32 %1 to i64
  %7 = bitcast %"class.std::__1::vector.72"* %5 to i8*
  tail call void @llvm.memset.p0i8.i64(i8* align 8 %7, i8 0, i64 24, i1 false) #8
  %8 = icmp eq i32 %1, 0
  br i1 %8, label %110, label %9

9:                                                ; preds = %3
  %10 = icmp slt i32 %1, 0
  br i1 %10, label %11, label %13

11:                                               ; preds = %9
  %12 = bitcast %"class.std::__1::vector.72"* %5 to %"class.std::__1::__vector_base_common"*
  tail call void @_ZNKSt3__120__vector_base_commonILb1EE20__throw_length_errorEv(%"class.std::__1::__vector_base_common"* %12) #10
  unreachable

13:                                               ; preds = %9
  %14 = shl nsw i64 %6, 2
  %15 = tail call i8* @_Znwm(i64 %14) #9
  %16 = bitcast i8* %15 to i32*
  %17 = getelementptr inbounds %"class.chrome_lang_id::VectorIntWorkspace", %"class.chrome_lang_id::VectorIntWorkspace"* %0, i64 0, i32 1, i32 0, i32 1
  %18 = bitcast i32** %17 to i8**
  store i8* %15, i8** %18, align 8
  %19 = bitcast %"class.std::__1::vector.72"* %5 to i8**
  store i8* %15, i8** %19, align 8
  %20 = getelementptr inbounds i32, i32* %16, i64 %6
  %21 = getelementptr inbounds %"class.chrome_lang_id::VectorIntWorkspace", %"class.chrome_lang_id::VectorIntWorkspace"* %0, i64 0, i32 1, i32 0, i32 2, i32 0, i32 0
  store i32* %20, i32** %21, align 8
  %22 = shl nsw i64 %6, 2
  %23 = add nsw i64 %22, -4
  %24 = lshr exact i64 %23, 2
  %25 = add nuw nsw i64 %24, 1
  %26 = icmp ult i64 %25, 8
  br i1 %26, label %101, label %27

27:                                               ; preds = %13
  %28 = and i64 %25, 9223372036854775800
  %29 = getelementptr i32, i32* %16, i64 %28
  %30 = insertelement <4 x i32> undef, i32 %2, i32 0
  %31 = shufflevector <4 x i32> %30, <4 x i32> undef, <4 x i32> zeroinitializer
  %32 = insertelement <4 x i32> undef, i32 %2, i32 0
  %33 = shufflevector <4 x i32> %32, <4 x i32> undef, <4 x i32> zeroinitializer
  %34 = add nsw i64 %28, -8
  %35 = lshr exact i64 %34, 3
  %36 = add nuw nsw i64 %35, 1
  %37 = and i64 %36, 7
  %38 = icmp ult i64 %34, 56
  br i1 %38, label %86, label %39

39:                                               ; preds = %27
  %40 = sub nsw i64 %36, %37
  br label %41

41:                                               ; preds = %41, %39
  %42 = phi i64 [ 0, %39 ], [ %83, %41 ]
  %43 = phi i64 [ %40, %39 ], [ %84, %41 ]
  %44 = getelementptr i32, i32* %16, i64 %42
  %45 = bitcast i32* %44 to <4 x i32>*
  store <4 x i32> %31, <4 x i32>* %45, align 4
  %46 = getelementptr i32, i32* %44, i64 4
  %47 = bitcast i32* %46 to <4 x i32>*
  store <4 x i32> %33, <4 x i32>* %47, align 4
  %48 = or i64 %42, 8
  %49 = getelementptr i32, i32* %16, i64 %48
  %50 = bitcast i32* %49 to <4 x i32>*
  store <4 x i32> %31, <4 x i32>* %50, align 4
  %51 = getelementptr i32, i32* %49, i64 4
  %52 = bitcast i32* %51 to <4 x i32>*
  store <4 x i32> %33, <4 x i32>* %52, align 4
  %53 = or i64 %42, 16
  %54 = getelementptr i32, i32* %16, i64 %53
  %55 = bitcast i32* %54 to <4 x i32>*
  store <4 x i32> %31, <4 x i32>* %55, align 4
  %56 = getelementptr i32, i32* %54, i64 4
  %57 = bitcast i32* %56 to <4 x i32>*
  store <4 x i32> %33, <4 x i32>* %57, align 4
  %58 = or i64 %42, 24
  %59 = getelementptr i32, i32* %16, i64 %58
  %60 = bitcast i32* %59 to <4 x i32>*
  store <4 x i32> %31, <4 x i32>* %60, align 4
  %61 = getelementptr i32, i32* %59, i64 4
  %62 = bitcast i32* %61 to <4 x i32>*
  store <4 x i32> %33, <4 x i32>* %62, align 4
  %63 = or i64 %42, 32
  %64 = getelementptr i32, i32* %16, i64 %63
  %65 = bitcast i32* %64 to <4 x i32>*
  store <4 x i32> %31, <4 x i32>* %65, align 4
  %66 = getelementptr i32, i32* %64, i64 4
  %67 = bitcast i32* %66 to <4 x i32>*
  store <4 x i32> %33, <4 x i32>* %67, align 4
  %68 = or i64 %42, 40
  %69 = getelementptr i32, i32* %16, i64 %68
  %70 = bitcast i32* %69 to <4 x i32>*
  store <4 x i32> %31, <4 x i32>* %70, align 4
  %71 = getelementptr i32, i32* %69, i64 4
  %72 = bitcast i32* %71 to <4 x i32>*
  store <4 x i32> %33, <4 x i32>* %72, align 4
  %73 = or i64 %42, 48
  %74 = getelementptr i32, i32* %16, i64 %73
  %75 = bitcast i32* %74 to <4 x i32>*
  store <4 x i32> %31, <4 x i32>* %75, align 4
  %76 = getelementptr i32, i32* %74, i64 4
  %77 = bitcast i32* %76 to <4 x i32>*
  store <4 x i32> %33, <4 x i32>* %77, align 4
  %78 = or i64 %42, 56
  %79 = getelementptr i32, i32* %16, i64 %78
  %80 = bitcast i32* %79 to <4 x i32>*
  store <4 x i32> %31, <4 x i32>* %80, align 4
  %81 = getelementptr i32, i32* %79, i64 4
  %82 = bitcast i32* %81 to <4 x i32>*
  store <4 x i32> %33, <4 x i32>* %82, align 4
  %83 = add i64 %42, 64
  %84 = add i64 %43, -8
  %85 = icmp eq i64 %84, 0
  br i1 %85, label %86, label %41, !llvm.loop !5

86:                                               ; preds = %41, %27
  %87 = phi i64 [ 0, %27 ], [ %83, %41 ]
  %88 = icmp eq i64 %37, 0
  br i1 %88, label %99, label %89

89:                                               ; preds = %86, %89
  %90 = phi i64 [ %96, %89 ], [ %87, %86 ]
  %91 = phi i64 [ %97, %89 ], [ %37, %86 ]
  %92 = getelementptr i32, i32* %16, i64 %90
  %93 = bitcast i32* %92 to <4 x i32>*
  store <4 x i32> %31, <4 x i32>* %93, align 4
  %94 = getelementptr i32, i32* %92, i64 4
  %95 = bitcast i32* %94 to <4 x i32>*
  store <4 x i32> %33, <4 x i32>* %95, align 4
  %96 = add i64 %90, 8
  %97 = add i64 %91, -1
  %98 = icmp eq i64 %97, 0
  br i1 %98, label %99, label %89, !llvm.loop !7

99:                                               ; preds = %89, %86
  %100 = icmp eq i64 %25, %28
  br i1 %100, label %107, label %101

101:                                              ; preds = %99, %13
  %102 = phi i32* [ %16, %13 ], [ %29, %99 ]
  br label %103

103:                                              ; preds = %101, %103
  %104 = phi i32* [ %105, %103 ], [ %102, %101 ]
  store i32 %2, i32* %104, align 4
  %105 = getelementptr inbounds i32, i32* %104, i64 1
  %106 = icmp eq i32* %105, %20
  br i1 %106, label %107, label %103, !llvm.loop !8

107:                                              ; preds = %103, %99
  %108 = bitcast i32** %17 to i64*
  %109 = ptrtoint i32* %20 to i64
  store i64 %109, i64* %108, align 8
  br label %110

110:                                              ; preds = %3, %107
  ret void
}

; Function Attrs: nounwind ssp uwtable
define hidden void @_ZN14chrome_lang_id18VectorIntWorkspaceC2ERKNSt3__16vectorIiNS1_9allocatorIiEEEE(%"class.chrome_lang_id::VectorIntWorkspace"*, %"class.std::__1::vector.72"* nocapture readonly dereferenceable(24)) unnamed_addr #0 align 2 {
  %3 = getelementptr inbounds %"class.chrome_lang_id::VectorIntWorkspace", %"class.chrome_lang_id::VectorIntWorkspace"* %0, i64 0, i32 0, i32 0
  store i32 (...)** bitcast (i8** getelementptr inbounds ({ [4 x i8*] }, { [4 x i8*] }* @_ZTVN14chrome_lang_id18VectorIntWorkspaceE, i64 0, inrange i32 0, i64 2) to i32 (...)**), i32 (...)*** %3, align 8
  %4 = getelementptr inbounds %"class.chrome_lang_id::VectorIntWorkspace", %"class.chrome_lang_id::VectorIntWorkspace"* %0, i64 0, i32 1
  %5 = bitcast %"class.std::__1::vector.72"* %4 to i8*
  tail call void @llvm.memset.p0i8.i64(i8* align 8 %5, i8 0, i64 24, i1 false) #8
  %6 = getelementptr inbounds %"class.std::__1::vector.72", %"class.std::__1::vector.72"* %1, i64 0, i32 0, i32 1
  %7 = bitcast i32** %6 to i64*
  %8 = load i64, i64* %7, align 8
  %9 = bitcast %"class.std::__1::vector.72"* %1 to i64*
  %10 = load i64, i64* %9, align 8
  %11 = sub i64 %8, %10
  %12 = ashr exact i64 %11, 2
  %13 = icmp eq i64 %11, 0
  br i1 %13, label %41, label %14

14:                                               ; preds = %2
  %15 = icmp ugt i64 %12, 4611686018427387903
  br i1 %15, label %16, label %18

16:                                               ; preds = %14
  %17 = bitcast %"class.std::__1::vector.72"* %4 to %"class.std::__1::__vector_base_common"*
  tail call void @_ZNKSt3__120__vector_base_commonILb1EE20__throw_length_errorEv(%"class.std::__1::__vector_base_common"* %17) #10
  unreachable

18:                                               ; preds = %14
  %19 = tail call i8* @_Znwm(i64 %11) #9
  %20 = bitcast i8* %19 to i32*
  %21 = getelementptr inbounds %"class.chrome_lang_id::VectorIntWorkspace", %"class.chrome_lang_id::VectorIntWorkspace"* %0, i64 0, i32 1, i32 0, i32 1
  %22 = bitcast i32** %21 to i8**
  store i8* %19, i8** %22, align 8
  %23 = bitcast %"class.std::__1::vector.72"* %4 to i8**
  store i8* %19, i8** %23, align 8
  %24 = getelementptr inbounds i32, i32* %20, i64 %12
  %25 = getelementptr inbounds %"class.chrome_lang_id::VectorIntWorkspace", %"class.chrome_lang_id::VectorIntWorkspace"* %0, i64 0, i32 1, i32 0, i32 2, i32 0, i32 0
  store i32* %24, i32** %25, align 8
  %26 = getelementptr inbounds %"class.std::__1::vector.72", %"class.std::__1::vector.72"* %1, i64 0, i32 0, i32 0
  %27 = load i32*, i32** %26, align 8
  %28 = load i64, i64* %7, align 8
  %29 = bitcast i32** %21 to i64*
  %30 = ptrtoint i8* %19 to i64
  %31 = ptrtoint i32* %27 to i64
  %32 = sub i64 %28, %31
  %33 = icmp sgt i64 %32, 0
  br i1 %33, label %34, label %39

34:                                               ; preds = %18
  %35 = lshr exact i64 %32, 2
  %36 = bitcast i32* %27 to i8*
  tail call void @llvm.memcpy.p0i8.p0i8.i64(i8* nonnull align 4 %19, i8* align 4 %36, i64 %32, i1 false) #8
  %37 = getelementptr inbounds i32, i32* %20, i64 %35
  %38 = ptrtoint i32* %37 to i64
  br label %39

39:                                               ; preds = %34, %18
  %40 = phi i64 [ %38, %34 ], [ %30, %18 ]
  store i64 %40, i64* %29, align 8
  br label %41

41:                                               ; preds = %2, %39
  ret void
}

; Function Attrs: nounwind ssp uwtable
define hidden void @_ZN14chrome_lang_id18VectorIntWorkspace8TypeNameEv(%"class.std::__1::basic_string"* noalias sret) local_unnamed_addr #0 align 2 {
  %2 = bitcast %"class.std::__1::basic_string"* %0 to %"struct.std::__1::basic_string<char, std::__1::char_traits<char>, std::__1::allocator<char> >::__short"*
  %3 = getelementptr inbounds %"struct.std::__1::basic_string<char, std::__1::char_traits<char>, std::__1::allocator<char> >::__short", %"struct.std::__1::basic_string<char, std::__1::char_traits<char>, std::__1::allocator<char> >::__short"* %2, i64 0, i32 1, i32 0
  store i8 6, i8* %3, align 1
  %4 = bitcast %"class.std::__1::basic_string"* %0 to i8*
  tail call void @llvm.memcpy.p0i8.p0i8.i64(i8* align 8 %4, i8* align 1 getelementptr inbounds ([7 x i8], [7 x i8]* @.str.2, i64 0, i64 0), i64 6, i1 false) #8
  %5 = getelementptr inbounds i8, i8* %4, i64 6
  store i8 0, i8* %5, align 2
  ret void
}

; Function Attrs: nounwind ssp uwtable
define hidden void @_ZN14chrome_lang_id24VectorVectorIntWorkspaceD2Ev(%"class.chrome_lang_id::VectorVectorIntWorkspace"* nocapture) unnamed_addr #0 align 2 {
  %2 = getelementptr inbounds %"class.chrome_lang_id::VectorVectorIntWorkspace", %"class.chrome_lang_id::VectorVectorIntWorkspace"* %0, i64 0, i32 0, i32 0
  store i32 (...)** bitcast (i8** getelementptr inbounds ({ [4 x i8*] }, { [4 x i8*] }* @_ZTVN14chrome_lang_id24VectorVectorIntWorkspaceE, i64 0, inrange i32 0, i64 2) to i32 (...)**), i32 (...)*** %2, align 8
  %3 = getelementptr inbounds %"class.chrome_lang_id::VectorVectorIntWorkspace", %"class.chrome_lang_id::VectorVectorIntWorkspace"* %0, i64 0, i32 1
  %4 = getelementptr inbounds %"class.std::__1::vector.79", %"class.std::__1::vector.79"* %3, i64 0, i32 0, i32 0
  %5 = load %"class.std::__1::vector.72"*, %"class.std::__1::vector.72"** %4, align 8
  %6 = icmp eq %"class.std::__1::vector.72"* %5, null
  br i1 %6, label %30, label %7

7:                                                ; preds = %1
  %8 = bitcast %"class.std::__1::vector.72"* %5 to i8*
  %9 = getelementptr inbounds %"class.chrome_lang_id::VectorVectorIntWorkspace", %"class.chrome_lang_id::VectorVectorIntWorkspace"* %0, i64 0, i32 1, i32 0, i32 1
  %10 = load %"class.std::__1::vector.72"*, %"class.std::__1::vector.72"** %9, align 8
  %11 = icmp eq %"class.std::__1::vector.72"* %10, %5
  br i1 %11, label %28, label %12

12:                                               ; preds = %7, %23
  %13 = phi %"class.std::__1::vector.72"* [ %14, %23 ], [ %10, %7 ]
  %14 = getelementptr inbounds %"class.std::__1::vector.72", %"class.std::__1::vector.72"* %13, i64 -1
  %15 = getelementptr inbounds %"class.std::__1::vector.72", %"class.std::__1::vector.72"* %14, i64 0, i32 0, i32 0
  %16 = load i32*, i32** %15, align 8
  %17 = icmp eq i32* %16, null
  br i1 %17, label %23, label %18

18:                                               ; preds = %12
  %19 = ptrtoint i32* %16 to i64
  %20 = getelementptr inbounds %"class.std::__1::vector.72", %"class.std::__1::vector.72"* %13, i64 -1, i32 0, i32 1
  %21 = bitcast i32** %20 to i64*
  store i64 %19, i64* %21, align 8
  %22 = bitcast i32* %16 to i8*
  tail call void @_ZdlPv(i8* %22) #9
  br label %23

23:                                               ; preds = %18, %12
  %24 = icmp eq %"class.std::__1::vector.72"* %14, %5
  br i1 %24, label %25, label %12

25:                                               ; preds = %23
  %26 = bitcast %"class.std::__1::vector.79"* %3 to i8**
  %27 = load i8*, i8** %26, align 8
  br label %28

28:                                               ; preds = %25, %7
  %29 = phi i8* [ %27, %25 ], [ %8, %7 ]
  store %"class.std::__1::vector.72"* %5, %"class.std::__1::vector.72"** %9, align 8
  tail call void @_ZdlPv(i8* %29) #9
  br label %30

30:                                               ; preds = %1, %28
  ret void
}

; Function Attrs: nounwind ssp uwtable
define hidden void @_ZN14chrome_lang_id24VectorVectorIntWorkspaceD0Ev(%"class.chrome_lang_id::VectorVectorIntWorkspace"*) unnamed_addr #0 align 2 {
  %2 = getelementptr inbounds %"class.chrome_lang_id::VectorVectorIntWorkspace", %"class.chrome_lang_id::VectorVectorIntWorkspace"* %0, i64 0, i32 0, i32 0
  store i32 (...)** bitcast (i8** getelementptr inbounds ({ [4 x i8*] }, { [4 x i8*] }* @_ZTVN14chrome_lang_id24VectorVectorIntWorkspaceE, i64 0, inrange i32 0, i64 2) to i32 (...)**), i32 (...)*** %2, align 8
  %3 = getelementptr inbounds %"class.chrome_lang_id::VectorVectorIntWorkspace", %"class.chrome_lang_id::VectorVectorIntWorkspace"* %0, i64 0, i32 1
  %4 = getelementptr inbounds %"class.std::__1::vector.79", %"class.std::__1::vector.79"* %3, i64 0, i32 0, i32 0
  %5 = load %"class.std::__1::vector.72"*, %"class.std::__1::vector.72"** %4, align 8
  %6 = icmp eq %"class.std::__1::vector.72"* %5, null
  br i1 %6, label %30, label %7

7:                                                ; preds = %1
  %8 = bitcast %"class.std::__1::vector.72"* %5 to i8*
  %9 = getelementptr inbounds %"class.chrome_lang_id::VectorVectorIntWorkspace", %"class.chrome_lang_id::VectorVectorIntWorkspace"* %0, i64 0, i32 1, i32 0, i32 1
  %10 = load %"class.std::__1::vector.72"*, %"class.std::__1::vector.72"** %9, align 8
  %11 = icmp eq %"class.std::__1::vector.72"* %10, %5
  br i1 %11, label %28, label %12

12:                                               ; preds = %7, %23
  %13 = phi %"class.std::__1::vector.72"* [ %14, %23 ], [ %10, %7 ]
  %14 = getelementptr inbounds %"class.std::__1::vector.72", %"class.std::__1::vector.72"* %13, i64 -1
  %15 = getelementptr inbounds %"class.std::__1::vector.72", %"class.std::__1::vector.72"* %14, i64 0, i32 0, i32 0
  %16 = load i32*, i32** %15, align 8
  %17 = icmp eq i32* %16, null
  br i1 %17, label %23, label %18

18:                                               ; preds = %12
  %19 = ptrtoint i32* %16 to i64
  %20 = getelementptr inbounds %"class.std::__1::vector.72", %"class.std::__1::vector.72"* %13, i64 -1, i32 0, i32 1
  %21 = bitcast i32** %20 to i64*
  store i64 %19, i64* %21, align 8
  %22 = bitcast i32* %16 to i8*
  tail call void @_ZdlPv(i8* %22) #9
  br label %23

23:                                               ; preds = %18, %12
  %24 = icmp eq %"class.std::__1::vector.72"* %14, %5
  br i1 %24, label %25, label %12

25:                                               ; preds = %23
  %26 = bitcast %"class.std::__1::vector.79"* %3 to i8**
  %27 = load i8*, i8** %26, align 8
  br label %28

28:                                               ; preds = %25, %7
  %29 = phi i8* [ %27, %25 ], [ %8, %7 ]
  store %"class.std::__1::vector.72"* %5, %"class.std::__1::vector.72"** %9, align 8
  tail call void @_ZdlPv(i8* %29) #9
  br label %30

30:                                               ; preds = %1, %28
  %31 = bitcast %"class.chrome_lang_id::VectorVectorIntWorkspace"* %0 to i8*
  tail call void @_ZdlPv(i8* %31) #9
  ret void
}

; Function Attrs: nounwind ssp uwtable
define hidden void @_ZN14chrome_lang_id24VectorVectorIntWorkspaceC2Ei(%"class.chrome_lang_id::VectorVectorIntWorkspace"*, i32) unnamed_addr #0 align 2 {
  %3 = getelementptr inbounds %"class.chrome_lang_id::VectorVectorIntWorkspace", %"class.chrome_lang_id::VectorVectorIntWorkspace"* %0, i64 0, i32 0, i32 0
  store i32 (...)** bitcast (i8** getelementptr inbounds ({ [4 x i8*] }, { [4 x i8*] }* @_ZTVN14chrome_lang_id24VectorVectorIntWorkspaceE, i64 0, inrange i32 0, i64 2) to i32 (...)**), i32 (...)*** %3, align 8
  %4 = getelementptr inbounds %"class.chrome_lang_id::VectorVectorIntWorkspace", %"class.chrome_lang_id::VectorVectorIntWorkspace"* %0, i64 0, i32 1
  %5 = sext i32 %1 to i64
  %6 = bitcast %"class.std::__1::vector.79"* %4 to i8*
  tail call void @llvm.memset.p0i8.i64(i8* align 8 %6, i8 0, i64 24, i1 false) #8
  %7 = icmp eq i32 %1, 0
  br i1 %7, label %30, label %8

8:                                                ; preds = %2
  %9 = icmp slt i32 %1, 0
  br i1 %9, label %10, label %12

10:                                               ; preds = %8
  %11 = bitcast %"class.std::__1::vector.79"* %4 to %"class.std::__1::__vector_base_common"*
  tail call void @_ZNKSt3__120__vector_base_commonILb1EE20__throw_length_errorEv(%"class.std::__1::__vector_base_common"* %11) #10
  unreachable

12:                                               ; preds = %8
  %13 = mul nsw i64 %5, 24
  %14 = tail call i8* @_Znwm(i64 %13) #9
  %15 = bitcast i8* %14 to %"class.std::__1::vector.72"*
  %16 = getelementptr inbounds %"class.chrome_lang_id::VectorVectorIntWorkspace", %"class.chrome_lang_id::VectorVectorIntWorkspace"* %0, i64 0, i32 1, i32 0, i32 1
  %17 = bitcast %"class.std::__1::vector.79"* %4 to i8**
  store i8* %14, i8** %17, align 8
  %18 = getelementptr inbounds %"class.std::__1::vector.72", %"class.std::__1::vector.72"* %15, i64 %5
  %19 = getelementptr inbounds %"class.chrome_lang_id::VectorVectorIntWorkspace", %"class.chrome_lang_id::VectorVectorIntWorkspace"* %0, i64 0, i32 1, i32 0, i32 2, i32 0, i32 0
  store %"class.std::__1::vector.72"* %18, %"class.std::__1::vector.72"** %19, align 8
  %20 = bitcast %"class.std::__1::vector.72"** %16 to i64*
  %21 = ptrtoint i8* %14 to i64
  %22 = add nsw i64 %5, -1
  %23 = getelementptr %"class.std::__1::vector.72", %"class.std::__1::vector.72"* %15, i64 %22, i32 0, i32 0
  %24 = ptrtoint i32** %23 to i64
  %25 = sub i64 %24, %21
  %26 = urem i64 %25, 24
  %27 = add i64 %25, 24
  %28 = sub i64 %27, %26
  tail call void @llvm.memset.p0i8.i64(i8* nonnull align 8 %14, i8 0, i64 %28, i1 false) #8
  %29 = ptrtoint %"class.std::__1::vector.72"* %18 to i64
  store i64 %29, i64* %20, align 8
  br label %30

30:                                               ; preds = %2, %12
  ret void
}

; Function Attrs: nounwind ssp uwtable
define hidden void @_ZN14chrome_lang_id24VectorVectorIntWorkspace8TypeNameEv(%"class.std::__1::basic_string"* noalias sret) local_unnamed_addr #0 align 2 {
  %2 = bitcast %"class.std::__1::basic_string"* %0 to %"struct.std::__1::basic_string<char, std::__1::char_traits<char>, std::__1::allocator<char> >::__short"*
  %3 = getelementptr inbounds %"struct.std::__1::basic_string<char, std::__1::char_traits<char>, std::__1::allocator<char> >::__short", %"struct.std::__1::basic_string<char, std::__1::char_traits<char>, std::__1::allocator<char> >::__short"* %2, i64 0, i32 1, i32 0
  store i8 12, i8* %3, align 1
  %4 = bitcast %"class.std::__1::basic_string"* %0 to i8*
  tail call void @llvm.memcpy.p0i8.p0i8.i64(i8* align 8 %4, i8* align 1 getelementptr inbounds ([13 x i8], [13 x i8]* @.str.3, i64 0, i64 0), i64 12, i1 false) #8
  %5 = getelementptr inbounds i8, i8* %4, i64 12
  store i8 0, i8* %5, align 4
  ret void
}

; Function Attrs: argmemonly nounwind
declare void @llvm.memcpy.p0i8.p0i8.i64(i8* nocapture writeonly, i8* nocapture readonly, i64, i1 immarg) #1

; Function Attrs: nounwind ssp uwtable
define linkonce_odr hidden { %"struct.std::__1::__hash_node_base"*, i8 } @_ZNSt3__112__hash_tableINS_17__hash_value_typeINS_10type_indexENS_6vectorIPN14chrome_lang_id9WorkspaceENS_9allocatorIS6_EEEEEENS_22__unordered_map_hasherIS2_SA_NS_4hashIS2_EENS_8equal_toIS2_EELb1EEENS_21__unordered_map_equalIS2_SA_SF_SD_Lb1EEENS7_ISA_EEE25__emplace_unique_key_argsIS2_JRKNS_21piecewise_construct_tENS_5tupleIJRKS2_EEENSP_IJEEEEEENS_4pairINS_15__hash_iteratorIPNS_11__hash_nodeISA_PvEEEEbEERKT_DpOT0_(%"class.std::__1::__hash_table"*, %"class.std::__1::type_index"* dereferenceable(8), %"struct.std::__1::piecewise_construct_t"* dereferenceable(1), %"class.std::__1::tuple"* dereferenceable(8), %"class.std::__1::tuple.95"* dereferenceable(1)) local_unnamed_addr #0 comdat align 2 {
  %6 = getelementptr inbounds %"class.std::__1::type_index", %"class.std::__1::type_index"* %1, i64 0, i32 0
  %7 = load %"class.std::type_info"*, %"class.std::type_info"** %6, align 8
  %8 = getelementptr inbounds %"class.std::type_info", %"class.std::type_info"* %7, i64 0, i32 1
  %9 = bitcast i8** %8 to i64*
  %10 = load i64, i64* %9, align 8
  %11 = getelementptr inbounds %"class.std::__1::__hash_table", %"class.std::__1::__hash_table"* %0, i64 0, i32 0, i32 0, i32 1, i32 0, i32 0, i32 0, i32 0
  %12 = load i64, i64* %11, align 8
  %13 = icmp eq i64 %12, 0
  %14 = inttoptr i64 %10 to i8*
  br i1 %13, label %61, label %15

15:                                               ; preds = %5
  %16 = tail call i64 @llvm.ctpop.i64(i64 %12) #8, !range !4
  %17 = icmp ugt i64 %16, 1
  br i1 %17, label %21, label %18

18:                                               ; preds = %15
  %19 = add i64 %12, -1
  %20 = and i64 %19, %10
  br label %25

21:                                               ; preds = %15
  %22 = icmp ult i64 %10, %12
  br i1 %22, label %25, label %23

23:                                               ; preds = %21
  %24 = urem i64 %10, %12
  br label %25

25:                                               ; preds = %18, %21, %23
  %26 = phi i64 [ %20, %18 ], [ %24, %23 ], [ %10, %21 ]
  %27 = getelementptr inbounds %"class.std::__1::__hash_table", %"class.std::__1::__hash_table"* %0, i64 0, i32 0, i32 0, i32 0, i32 0
  %28 = load %"struct.std::__1::__hash_node_base"**, %"struct.std::__1::__hash_node_base"*** %27, align 8
  %29 = getelementptr inbounds %"struct.std::__1::__hash_node_base"*, %"struct.std::__1::__hash_node_base"** %28, i64 %26
  %30 = load %"struct.std::__1::__hash_node_base"*, %"struct.std::__1::__hash_node_base"** %29, align 8
  %31 = icmp eq %"struct.std::__1::__hash_node_base"* %30, null
  br i1 %31, label %61, label %32

32:                                               ; preds = %25
  %33 = add i64 %12, -1
  br label %34

34:                                               ; preds = %32, %54
  %35 = phi %"struct.std::__1::__hash_node_base"* [ %37, %54 ], [ %30, %32 ]
  %36 = getelementptr inbounds %"struct.std::__1::__hash_node_base", %"struct.std::__1::__hash_node_base"* %35, i64 0, i32 0
  %37 = load %"struct.std::__1::__hash_node_base"*, %"struct.std::__1::__hash_node_base"** %36, align 8
  %38 = icmp eq %"struct.std::__1::__hash_node_base"* %37, null
  br i1 %38, label %61, label %39

39:                                               ; preds = %34
  %40 = getelementptr inbounds %"struct.std::__1::__hash_node_base", %"struct.std::__1::__hash_node_base"* %37, i64 1
  %41 = bitcast %"struct.std::__1::__hash_node_base"* %40 to i64*
  %42 = load i64, i64* %41, align 8
  %43 = icmp eq i64 %42, %10
  br i1 %43, label %54, label %44

44:                                               ; preds = %39
  br i1 %17, label %47, label %45

45:                                               ; preds = %44
  %46 = and i64 %42, %33
  br label %51

47:                                               ; preds = %44
  %48 = icmp ult i64 %42, %12
  br i1 %48, label %51, label %49

49:                                               ; preds = %47
  %50 = urem i64 %42, %12
  br label %51

51:                                               ; preds = %45, %47, %49
  %52 = phi i64 [ %46, %45 ], [ %50, %49 ], [ %42, %47 ]
  %53 = icmp eq i64 %52, %26
  br i1 %53, label %54, label %61

54:                                               ; preds = %39, %51
  %55 = getelementptr inbounds %"struct.std::__1::__hash_node_base", %"struct.std::__1::__hash_node_base"* %37, i64 2
  %56 = bitcast %"struct.std::__1::__hash_node_base"* %55 to %"class.std::type_info"**
  %57 = load %"class.std::type_info"*, %"class.std::type_info"** %56, align 8
  %58 = getelementptr inbounds %"class.std::type_info", %"class.std::type_info"* %57, i64 0, i32 1
  %59 = load i8*, i8** %58, align 8
  %60 = icmp eq i8* %59, %14
  br i1 %60, label %151, label %34

61:                                               ; preds = %34, %51, %25, %5
  %62 = phi i64 [ %26, %25 ], [ -6148914691236517206, %5 ], [ %26, %51 ], [ %26, %34 ]
  %63 = tail call i8* @_Znwm(i64 48) #9, !noalias !10
  %64 = getelementptr inbounds i8, i8* %63, i64 16
  %65 = bitcast %"class.std::__1::tuple"* %3 to i64**
  %66 = load i64*, i64** %65, align 8, !noalias !10
  %67 = bitcast i8* %64 to i64*
  %68 = load i64, i64* %66, align 8, !noalias !10
  store i64 %68, i64* %67, align 8, !noalias !10
  %69 = getelementptr inbounds i8, i8* %63, i64 24
  tail call void @llvm.memset.p0i8.i64(i8* align 8 %69, i8 0, i64 24, i1 false) #8, !noalias !10
  %70 = getelementptr inbounds i8, i8* %63, i64 8
  %71 = bitcast i8* %70 to i64*
  store i64 %10, i64* %71, align 8, !noalias !10
  %72 = bitcast i8* %63 to %"struct.std::__1::__hash_node_base"**
  store %"struct.std::__1::__hash_node_base"* null, %"struct.std::__1::__hash_node_base"** %72, align 8, !noalias !10
  %73 = getelementptr inbounds %"class.std::__1::__hash_table", %"class.std::__1::__hash_table"* %0, i64 0, i32 2, i32 0, i32 0
  %74 = load i64, i64* %73, align 8
  %75 = add i64 %74, 1
  %76 = uitofp i64 %75 to float
  %77 = uitofp i64 %12 to float
  %78 = getelementptr inbounds %"class.std::__1::__hash_table", %"class.std::__1::__hash_table"* %0, i64 0, i32 3, i32 0, i32 0
  %79 = load float, float* %78, align 4
  %80 = fmul float %79, %77
  %81 = fcmp olt float %80, %76
  %82 = or i1 %13, %81
  br i1 %82, label %83, label %106

83:                                               ; preds = %61
  %84 = shl i64 %12, 1
  %85 = icmp ult i64 %12, 3
  %86 = tail call i64 @llvm.ctpop.i64(i64 %12) #8, !range !4
  %87 = icmp ugt i64 %86, 1
  %88 = or i1 %85, %87
  %89 = zext i1 %88 to i64
  %90 = or i64 %84, %89
  %91 = fdiv float %76, %79
  %92 = tail call float @llvm.ceil.f32(float %91) #8
  %93 = fptoui float %92 to i64
  %94 = icmp ult i64 %90, %93
  %95 = select i1 %94, i64 %93, i64 %90
  tail call void @_ZNSt3__112__hash_tableINS_17__hash_value_typeINS_10type_indexENS_6vectorIPN14chrome_lang_id9WorkspaceENS_9allocatorIS6_EEEEEENS_22__unordered_map_hasherIS2_SA_NS_4hashIS2_EENS_8equal_toIS2_EELb1EEENS_21__unordered_map_equalIS2_SA_SF_SD_Lb1EEENS7_ISA_EEE6rehashEm(%"class.std::__1::__hash_table"* %0, i64 %95)
  %96 = load i64, i64* %11, align 8
  %97 = tail call i64 @llvm.ctpop.i64(i64 %96) #8, !range !4
  %98 = icmp ugt i64 %97, 1
  br i1 %98, label %102, label %99

99:                                               ; preds = %83
  %100 = add i64 %96, -1
  %101 = and i64 %100, %10
  br label %106

102:                                              ; preds = %83
  %103 = icmp ult i64 %10, %96
  br i1 %103, label %106, label %104

104:                                              ; preds = %102
  %105 = urem i64 %10, %96
  br label %106

106:                                              ; preds = %104, %102, %99, %61
  %107 = phi i64 [ %12, %61 ], [ %96, %99 ], [ %96, %102 ], [ %96, %104 ]
  %108 = phi i64 [ %62, %61 ], [ %101, %99 ], [ %10, %102 ], [ %105, %104 ]
  %109 = getelementptr inbounds %"class.std::__1::__hash_table", %"class.std::__1::__hash_table"* %0, i64 0, i32 0, i32 0, i32 0, i32 0
  %110 = load %"struct.std::__1::__hash_node_base"**, %"struct.std::__1::__hash_node_base"*** %109, align 8
  %111 = getelementptr inbounds %"struct.std::__1::__hash_node_base"*, %"struct.std::__1::__hash_node_base"** %110, i64 %108
  %112 = load %"struct.std::__1::__hash_node_base"*, %"struct.std::__1::__hash_node_base"** %111, align 8
  %113 = icmp eq %"struct.std::__1::__hash_node_base"* %112, null
  br i1 %113, label %114, label %140

114:                                              ; preds = %106
  %115 = getelementptr inbounds %"class.std::__1::__hash_table", %"class.std::__1::__hash_table"* %0, i64 0, i32 1, i32 0, i32 0
  %116 = bitcast %"struct.std::__1::__hash_node_base"* %115 to i64*
  %117 = load i64, i64* %116, align 8
  %118 = bitcast i8* %63 to i64*
  store i64 %117, i64* %118, align 8
  %119 = bitcast %"struct.std::__1::__hash_node_base"* %115 to i8**
  store i8* %63, i8** %119, align 8
  store %"struct.std::__1::__hash_node_base"* %115, %"struct.std::__1::__hash_node_base"** %111, align 8
  %120 = load %"struct.std::__1::__hash_node_base"*, %"struct.std::__1::__hash_node_base"** %72, align 8
  %121 = icmp eq %"struct.std::__1::__hash_node_base"* %120, null
  br i1 %121, label %147, label %122

122:                                              ; preds = %114
  %123 = getelementptr inbounds %"struct.std::__1::__hash_node_base", %"struct.std::__1::__hash_node_base"* %120, i64 1
  %124 = bitcast %"struct.std::__1::__hash_node_base"* %123 to i64*
  %125 = load i64, i64* %124, align 8
  %126 = tail call i64 @llvm.ctpop.i64(i64 %107) #8, !range !4
  %127 = icmp ugt i64 %126, 1
  br i1 %127, label %131, label %128

128:                                              ; preds = %122
  %129 = add i64 %107, -1
  %130 = and i64 %125, %129
  br label %135

131:                                              ; preds = %122
  %132 = icmp ult i64 %125, %107
  br i1 %132, label %135, label %133

133:                                              ; preds = %131
  %134 = urem i64 %125, %107
  br label %135

135:                                              ; preds = %128, %131, %133
  %136 = phi i64 [ %130, %128 ], [ %134, %133 ], [ %125, %131 ]
  %137 = load %"struct.std::__1::__hash_node_base"**, %"struct.std::__1::__hash_node_base"*** %109, align 8
  %138 = getelementptr inbounds %"struct.std::__1::__hash_node_base"*, %"struct.std::__1::__hash_node_base"** %137, i64 %136
  %139 = bitcast %"struct.std::__1::__hash_node_base"** %138 to i8**
  br label %145

140:                                              ; preds = %106
  %141 = bitcast %"struct.std::__1::__hash_node_base"* %112 to i64*
  %142 = load i64, i64* %141, align 8
  %143 = bitcast i8* %63 to i64*
  store i64 %142, i64* %143, align 8
  %144 = bitcast %"struct.std::__1::__hash_node_base"* %112 to i8**
  br label %145

145:                                              ; preds = %135, %140
  %146 = phi i8** [ %144, %140 ], [ %139, %135 ]
  store i8* %63, i8** %146, align 8
  br label %147

147:                                              ; preds = %145, %114
  %148 = bitcast i8* %63 to %"struct.std::__1::__hash_node_base"*
  %149 = load i64, i64* %73, align 8
  %150 = add i64 %149, 1
  store i64 %150, i64* %73, align 8
  br label %151

151:                                              ; preds = %54, %147
  %152 = phi i8 [ 1, %147 ], [ 0, %54 ]
  %153 = phi %"struct.std::__1::__hash_node_base"* [ %148, %147 ], [ %37, %54 ]
  %154 = insertvalue { %"struct.std::__1::__hash_node_base"*, i8 } undef, %"struct.std::__1::__hash_node_base"* %153, 0
  %155 = insertvalue { %"struct.std::__1::__hash_node_base"*, i8 } %154, i8 %152, 1
  ret { %"struct.std::__1::__hash_node_base"*, i8 } %155
}

; Function Attrs: nounwind ssp uwtable
define linkonce_odr hidden void @_ZNSt3__112__hash_tableINS_17__hash_value_typeINS_10type_indexENS_6vectorIPN14chrome_lang_id9WorkspaceENS_9allocatorIS6_EEEEEENS_22__unordered_map_hasherIS2_SA_NS_4hashIS2_EENS_8equal_toIS2_EELb1EEENS_21__unordered_map_equalIS2_SA_SF_SD_Lb1EEENS7_ISA_EEE6rehashEm(%"class.std::__1::__hash_table"*, i64) local_unnamed_addr #0 comdat align 2 {
  %3 = icmp eq i64 %1, 1
  br i1 %3, label %9, label %4

4:                                                ; preds = %2
  %5 = tail call i64 @llvm.ctpop.i64(i64 %1), !range !4
  %6 = icmp ugt i64 %5, 1
  br i1 %6, label %7, label %9

7:                                                ; preds = %4
  %8 = tail call i64 @_ZNSt3__112__next_primeEm(i64 %1) #8
  br label %9

9:                                                ; preds = %2, %4, %7
  %10 = phi i64 [ %8, %7 ], [ %1, %4 ], [ 2, %2 ]
  %11 = getelementptr inbounds %"class.std::__1::__hash_table", %"class.std::__1::__hash_table"* %0, i64 0, i32 0, i32 0, i32 1, i32 0, i32 0, i32 0, i32 0
  %12 = load i64, i64* %11, align 8
  %13 = icmp ugt i64 %10, %12
  br i1 %13, label %14, label %15

14:                                               ; preds = %9
  tail call void @_ZNSt3__112__hash_tableINS_17__hash_value_typeINS_10type_indexENS_6vectorIPN14chrome_lang_id9WorkspaceENS_9allocatorIS6_EEEEEENS_22__unordered_map_hasherIS2_SA_NS_4hashIS2_EENS_8equal_toIS2_EELb1EEENS_21__unordered_map_equalIS2_SA_SF_SD_Lb1EEENS7_ISA_EEE8__rehashEm(%"class.std::__1::__hash_table"* %0, i64 %10)
  br label %45

15:                                               ; preds = %9
  %16 = icmp ult i64 %10, %12
  br i1 %16, label %17, label %45

17:                                               ; preds = %15
  %18 = icmp ugt i64 %12, 2
  %19 = tail call i64 @llvm.ctpop.i64(i64 %12) #8, !range !4
  %20 = icmp ult i64 %19, 2
  %21 = and i1 %18, %20
  %22 = getelementptr inbounds %"class.std::__1::__hash_table", %"class.std::__1::__hash_table"* %0, i64 0, i32 2, i32 0, i32 0
  %23 = load i64, i64* %22, align 8
  %24 = uitofp i64 %23 to float
  %25 = getelementptr inbounds %"class.std::__1::__hash_table", %"class.std::__1::__hash_table"* %0, i64 0, i32 3, i32 0, i32 0
  %26 = load float, float* %25, align 4
  %27 = fdiv float %24, %26
  %28 = tail call float @llvm.ceil.f32(float %27) #8
  %29 = fptoui float %28 to i64
  br i1 %21, label %30, label %37

30:                                               ; preds = %17
  %31 = icmp ult i64 %29, 2
  br i1 %31, label %39, label %32

32:                                               ; preds = %30
  %33 = add i64 %29, -1
  %34 = tail call i64 @llvm.ctlz.i64(i64 %33, i1 true) #8, !range !4
  %35 = sub nuw nsw i64 64, %34
  %36 = shl i64 1, %35
  br label %39

37:                                               ; preds = %17
  %38 = tail call i64 @_ZNSt3__112__next_primeEm(i64 %29) #8
  br label %39

39:                                               ; preds = %32, %30, %37
  %40 = phi i64 [ %38, %37 ], [ %36, %32 ], [ %29, %30 ]
  %41 = icmp ult i64 %10, %40
  %42 = select i1 %41, i64 %40, i64 %10
  %43 = icmp ult i64 %42, %12
  br i1 %43, label %44, label %45

44:                                               ; preds = %39
  tail call void @_ZNSt3__112__hash_tableINS_17__hash_value_typeINS_10type_indexENS_6vectorIPN14chrome_lang_id9WorkspaceENS_9allocatorIS6_EEEEEENS_22__unordered_map_hasherIS2_SA_NS_4hashIS2_EENS_8equal_toIS2_EELb1EEENS_21__unordered_map_equalIS2_SA_SF_SD_Lb1EEENS7_ISA_EEE8__rehashEm(%"class.std::__1::__hash_table"* %0, i64 %42)
  br label %45

45:                                               ; preds = %15, %44, %39, %14
  ret void
}

; Function Attrs: noreturn nounwind
declare void @abort() local_unnamed_addr #3

; Function Attrs: nobuiltin nofree
declare noalias nonnull i8* @_Znwm(i64) local_unnamed_addr #4

declare i64 @_ZNSt3__112__next_primeEm(i64) local_unnamed_addr #5

; Function Attrs: nounwind ssp uwtable
define linkonce_odr hidden void @_ZNSt3__112__hash_tableINS_17__hash_value_typeINS_10type_indexENS_6vectorIPN14chrome_lang_id9WorkspaceENS_9allocatorIS6_EEEEEENS_22__unordered_map_hasherIS2_SA_NS_4hashIS2_EENS_8equal_toIS2_EELb1EEENS_21__unordered_map_equalIS2_SA_SF_SD_Lb1EEENS7_ISA_EEE8__rehashEm(%"class.std::__1::__hash_table"*, i64) local_unnamed_addr #0 comdat align 2 {
  %3 = getelementptr inbounds %"class.std::__1::__hash_table", %"class.std::__1::__hash_table"* %0, i64 0, i32 0, i32 0, i32 1, i32 0
  %4 = icmp eq i64 %1, 0
  br i1 %4, label %138, label %5

5:                                                ; preds = %2
  %6 = icmp ugt i64 %1, 2305843009213693951
  br i1 %6, label %7, label %8

7:                                                ; preds = %5
  tail call void @abort() #10
  unreachable

8:                                                ; preds = %5
  %9 = shl i64 %1, 3
  %10 = tail call i8* @_Znwm(i64 %9) #9
  %11 = getelementptr inbounds %"class.std::__1::__hash_table", %"class.std::__1::__hash_table"* %0, i64 0, i32 0, i32 0, i32 0, i32 0
  %12 = load %"struct.std::__1::__hash_node_base"**, %"struct.std::__1::__hash_node_base"*** %11, align 8
  %13 = bitcast %"class.std::__1::__hash_table"* %0 to i8**
  store i8* %10, i8** %13, align 8
  %14 = icmp eq %"struct.std::__1::__hash_node_base"** %12, null
  br i1 %14, label %17, label %15

15:                                               ; preds = %8
  %16 = bitcast %"struct.std::__1::__hash_node_base"** %12 to i8*
  tail call void @_ZdlPv(i8* %16) #9
  br label %17

17:                                               ; preds = %15, %8
  %18 = getelementptr inbounds %"class.std::__1::__bucket_list_deallocator", %"class.std::__1::__bucket_list_deallocator"* %3, i64 0, i32 0, i32 0, i32 0
  store i64 %1, i64* %18, align 8
  %19 = add i64 %1, -1
  %20 = and i64 %1, 3
  %21 = icmp ult i64 %19, 3
  br i1 %21, label %24, label %22

22:                                               ; preds = %17
  %23 = sub i64 %1, %20
  br label %40

24:                                               ; preds = %40, %17
  %25 = phi i64 [ 0, %17 ], [ %54, %40 ]
  %26 = icmp eq i64 %20, 0
  br i1 %26, label %35, label %27

27:                                               ; preds = %24, %27
  %28 = phi i64 [ %32, %27 ], [ %25, %24 ]
  %29 = phi i64 [ %33, %27 ], [ %20, %24 ]
  %30 = load %"struct.std::__1::__hash_node_base"**, %"struct.std::__1::__hash_node_base"*** %11, align 8
  %31 = getelementptr inbounds %"struct.std::__1::__hash_node_base"*, %"struct.std::__1::__hash_node_base"** %30, i64 %28
  store %"struct.std::__1::__hash_node_base"* null, %"struct.std::__1::__hash_node_base"** %31, align 8
  %32 = add nuw i64 %28, 1
  %33 = add i64 %29, -1
  %34 = icmp eq i64 %33, 0
  br i1 %34, label %35, label %27, !llvm.loop !13

35:                                               ; preds = %27, %24
  %36 = getelementptr inbounds %"class.std::__1::__hash_table", %"class.std::__1::__hash_table"* %0, i64 0, i32 1, i32 0, i32 0
  %37 = getelementptr inbounds %"struct.std::__1::__hash_node_base", %"struct.std::__1::__hash_node_base"* %36, i64 0, i32 0
  %38 = load %"struct.std::__1::__hash_node_base"*, %"struct.std::__1::__hash_node_base"** %37, align 8
  %39 = icmp eq %"struct.std::__1::__hash_node_base"* %38, null
  br i1 %39, label %146, label %57

40:                                               ; preds = %40, %22
  %41 = phi i64 [ 0, %22 ], [ %54, %40 ]
  %42 = phi i64 [ %23, %22 ], [ %55, %40 ]
  %43 = load %"struct.std::__1::__hash_node_base"**, %"struct.std::__1::__hash_node_base"*** %11, align 8
  %44 = getelementptr inbounds %"struct.std::__1::__hash_node_base"*, %"struct.std::__1::__hash_node_base"** %43, i64 %41
  store %"struct.std::__1::__hash_node_base"* null, %"struct.std::__1::__hash_node_base"** %44, align 8
  %45 = or i64 %41, 1
  %46 = load %"struct.std::__1::__hash_node_base"**, %"struct.std::__1::__hash_node_base"*** %11, align 8
  %47 = getelementptr inbounds %"struct.std::__1::__hash_node_base"*, %"struct.std::__1::__hash_node_base"** %46, i64 %45
  store %"struct.std::__1::__hash_node_base"* null, %"struct.std::__1::__hash_node_base"** %47, align 8
  %48 = or i64 %41, 2
  %49 = load %"struct.std::__1::__hash_node_base"**, %"struct.std::__1::__hash_node_base"*** %11, align 8
  %50 = getelementptr inbounds %"struct.std::__1::__hash_node_base"*, %"struct.std::__1::__hash_node_base"** %49, i64 %48
  store %"struct.std::__1::__hash_node_base"* null, %"struct.std::__1::__hash_node_base"** %50, align 8
  %51 = or i64 %41, 3
  %52 = load %"struct.std::__1::__hash_node_base"**, %"struct.std::__1::__hash_node_base"*** %11, align 8
  %53 = getelementptr inbounds %"struct.std::__1::__hash_node_base"*, %"struct.std::__1::__hash_node_base"** %52, i64 %51
  store %"struct.std::__1::__hash_node_base"* null, %"struct.std::__1::__hash_node_base"** %53, align 8
  %54 = add nuw i64 %41, 4
  %55 = add i64 %42, -4
  %56 = icmp eq i64 %55, 0
  br i1 %56, label %24, label %40

57:                                               ; preds = %35
  %58 = getelementptr inbounds %"struct.std::__1::__hash_node_base", %"struct.std::__1::__hash_node_base"* %38, i64 1
  %59 = bitcast %"struct.std::__1::__hash_node_base"* %58 to i64*
  %60 = load i64, i64* %59, align 8
  %61 = tail call i64 @llvm.ctpop.i64(i64 %1) #8, !range !4
  %62 = icmp ugt i64 %61, 1
  br i1 %62, label %66, label %63

63:                                               ; preds = %57
  %64 = add i64 %1, -1
  %65 = and i64 %60, %64
  br label %70

66:                                               ; preds = %57
  %67 = icmp ult i64 %60, %1
  br i1 %67, label %70, label %68

68:                                               ; preds = %66
  %69 = urem i64 %60, %1
  br label %70

70:                                               ; preds = %63, %66, %68
  %71 = phi i64 [ %65, %63 ], [ %69, %68 ], [ %60, %66 ]
  %72 = load %"struct.std::__1::__hash_node_base"**, %"struct.std::__1::__hash_node_base"*** %11, align 8
  %73 = getelementptr inbounds %"struct.std::__1::__hash_node_base"*, %"struct.std::__1::__hash_node_base"** %72, i64 %71
  store %"struct.std::__1::__hash_node_base"* %36, %"struct.std::__1::__hash_node_base"** %73, align 8
  %74 = getelementptr inbounds %"struct.std::__1::__hash_node_base", %"struct.std::__1::__hash_node_base"* %38, i64 0, i32 0
  %75 = load %"struct.std::__1::__hash_node_base"*, %"struct.std::__1::__hash_node_base"** %74, align 8
  %76 = icmp eq %"struct.std::__1::__hash_node_base"* %75, null
  br i1 %76, label %146, label %77

77:                                               ; preds = %70
  %78 = add i64 %1, -1
  br label %79

79:                                               ; preds = %77, %132
  %80 = phi %"struct.std::__1::__hash_node_base"* [ %75, %77 ], [ %136, %132 ]
  %81 = phi i64 [ %71, %77 ], [ %134, %132 ]
  %82 = phi %"struct.std::__1::__hash_node_base"* [ %38, %77 ], [ %133, %132 ]
  %83 = getelementptr inbounds %"struct.std::__1::__hash_node_base", %"struct.std::__1::__hash_node_base"* %80, i64 1
  %84 = bitcast %"struct.std::__1::__hash_node_base"* %83 to i64*
  %85 = load i64, i64* %84, align 8
  br i1 %62, label %88, label %86

86:                                               ; preds = %79
  %87 = and i64 %85, %78
  br label %92

88:                                               ; preds = %79
  %89 = icmp ult i64 %85, %1
  br i1 %89, label %92, label %90

90:                                               ; preds = %88
  %91 = urem i64 %85, %1
  br label %92

92:                                               ; preds = %86, %88, %90
  %93 = phi i64 [ %87, %86 ], [ %91, %90 ], [ %85, %88 ]
  %94 = icmp eq i64 %93, %81
  br i1 %94, label %132, label %95

95:                                               ; preds = %92
  %96 = load %"struct.std::__1::__hash_node_base"**, %"struct.std::__1::__hash_node_base"*** %11, align 8
  %97 = getelementptr inbounds %"struct.std::__1::__hash_node_base"*, %"struct.std::__1::__hash_node_base"** %96, i64 %93
  %98 = load %"struct.std::__1::__hash_node_base"*, %"struct.std::__1::__hash_node_base"** %97, align 8
  %99 = icmp eq %"struct.std::__1::__hash_node_base"* %98, null
  br i1 %99, label %103, label %100

100:                                              ; preds = %95
  %101 = getelementptr inbounds %"struct.std::__1::__hash_node_base", %"struct.std::__1::__hash_node_base"* %80, i64 2
  %102 = bitcast %"struct.std::__1::__hash_node_base"* %101 to %"class.std::type_info"**
  br label %104

103:                                              ; preds = %95
  store %"struct.std::__1::__hash_node_base"* %82, %"struct.std::__1::__hash_node_base"** %97, align 8
  br label %132

104:                                              ; preds = %100, %109
  %105 = phi %"struct.std::__1::__hash_node_base"* [ %107, %109 ], [ %80, %100 ]
  %106 = getelementptr inbounds %"struct.std::__1::__hash_node_base", %"struct.std::__1::__hash_node_base"* %105, i64 0, i32 0
  %107 = load %"struct.std::__1::__hash_node_base"*, %"struct.std::__1::__hash_node_base"** %106, align 8
  %108 = icmp eq %"struct.std::__1::__hash_node_base"* %107, null
  br i1 %108, label %119, label %109

109:                                              ; preds = %104
  %110 = getelementptr inbounds %"struct.std::__1::__hash_node_base", %"struct.std::__1::__hash_node_base"* %107, i64 2
  %111 = load %"class.std::type_info"*, %"class.std::type_info"** %102, align 8
  %112 = bitcast %"struct.std::__1::__hash_node_base"* %110 to %"class.std::type_info"**
  %113 = load %"class.std::type_info"*, %"class.std::type_info"** %112, align 8
  %114 = getelementptr inbounds %"class.std::type_info", %"class.std::type_info"* %111, i64 0, i32 1
  %115 = load i8*, i8** %114, align 8
  %116 = getelementptr inbounds %"class.std::type_info", %"class.std::type_info"* %113, i64 0, i32 1
  %117 = load i8*, i8** %116, align 8
  %118 = icmp eq i8* %115, %117
  br i1 %118, label %104, label %119

119:                                              ; preds = %104, %109
  %120 = ptrtoint %"struct.std::__1::__hash_node_base"* %107 to i64
  %121 = bitcast %"struct.std::__1::__hash_node_base"* %105 to i64*
  %122 = bitcast %"struct.std::__1::__hash_node_base"* %82 to i64*
  store i64 %120, i64* %122, align 8
  %123 = load %"struct.std::__1::__hash_node_base"**, %"struct.std::__1::__hash_node_base"*** %11, align 8
  %124 = getelementptr inbounds %"struct.std::__1::__hash_node_base"*, %"struct.std::__1::__hash_node_base"** %123, i64 %93
  %125 = bitcast %"struct.std::__1::__hash_node_base"** %124 to i64**
  %126 = load i64*, i64** %125, align 8
  %127 = load i64, i64* %126, align 8
  store i64 %127, i64* %121, align 8
  %128 = load %"struct.std::__1::__hash_node_base"**, %"struct.std::__1::__hash_node_base"*** %11, align 8
  %129 = getelementptr inbounds %"struct.std::__1::__hash_node_base"*, %"struct.std::__1::__hash_node_base"** %128, i64 %93
  %130 = load %"struct.std::__1::__hash_node_base"*, %"struct.std::__1::__hash_node_base"** %129, align 8
  %131 = getelementptr inbounds %"struct.std::__1::__hash_node_base", %"struct.std::__1::__hash_node_base"* %130, i64 0, i32 0
  store %"struct.std::__1::__hash_node_base"* %80, %"struct.std::__1::__hash_node_base"** %131, align 8
  br label %132

132:                                              ; preds = %92, %119, %103
  %133 = phi %"struct.std::__1::__hash_node_base"* [ %80, %103 ], [ %82, %119 ], [ %80, %92 ]
  %134 = phi i64 [ %93, %103 ], [ %81, %119 ], [ %81, %92 ]
  %135 = getelementptr inbounds %"struct.std::__1::__hash_node_base", %"struct.std::__1::__hash_node_base"* %133, i64 0, i32 0
  %136 = load %"struct.std::__1::__hash_node_base"*, %"struct.std::__1::__hash_node_base"** %135, align 8
  %137 = icmp eq %"struct.std::__1::__hash_node_base"* %136, null
  br i1 %137, label %146, label %79

138:                                              ; preds = %2
  %139 = getelementptr inbounds %"class.std::__1::__hash_table", %"class.std::__1::__hash_table"* %0, i64 0, i32 0, i32 0, i32 0, i32 0
  %140 = load %"struct.std::__1::__hash_node_base"**, %"struct.std::__1::__hash_node_base"*** %139, align 8
  store %"struct.std::__1::__hash_node_base"** null, %"struct.std::__1::__hash_node_base"*** %139, align 8
  %141 = icmp eq %"struct.std::__1::__hash_node_base"** %140, null
  br i1 %141, label %144, label %142

142:                                              ; preds = %138
  %143 = bitcast %"struct.std::__1::__hash_node_base"** %140 to i8*
  tail call void @_ZdlPv(i8* %143) #9
  br label %144

144:                                              ; preds = %138, %142
  %145 = getelementptr inbounds %"class.std::__1::__bucket_list_deallocator", %"class.std::__1::__bucket_list_deallocator"* %3, i64 0, i32 0, i32 0, i32 0
  store i64 0, i64* %145, align 8
  br label %146

146:                                              ; preds = %132, %70, %35, %144
  ret void
}

; Function Attrs: nounwind readnone speculatable
declare i64 @llvm.ctlz.i64(i64, i1 immarg) #6

; Function Attrs: nounwind readnone speculatable
declare float @llvm.ceil.f32(float) #6

; Function Attrs: nounwind ssp uwtable
define linkonce_odr hidden void @_ZNSt3__16vectorIPN14chrome_lang_id9WorkspaceENS_9allocatorIS3_EEE8__appendEm(%"class.std::__1::vector.87"*, i64) local_unnamed_addr #0 comdat align 2 {
  %3 = getelementptr inbounds %"class.std::__1::vector.87", %"class.std::__1::vector.87"* %0, i64 0, i32 0, i32 2, i32 0, i32 0
  %4 = bitcast %"class.chrome_lang_id::Workspace"*** %3 to i64*
  %5 = load i64, i64* %4, align 8
  %6 = getelementptr inbounds %"class.std::__1::vector.87", %"class.std::__1::vector.87"* %0, i64 0, i32 0, i32 1
  %7 = bitcast %"class.chrome_lang_id::Workspace"*** %6 to i64*
  %8 = load i64, i64* %7, align 8
  %9 = sub i64 %5, %8
  %10 = ashr exact i64 %9, 3
  %11 = icmp ult i64 %10, %1
  br i1 %11, label %29, label %12

12:                                               ; preds = %2
  %13 = inttoptr i64 %8 to %"class.chrome_lang_id::Workspace"**
  %14 = icmp eq i64 %1, 0
  br i1 %14, label %27, label %15

15:                                               ; preds = %12
  %16 = getelementptr inbounds %"class.chrome_lang_id::Workspace"*, %"class.chrome_lang_id::Workspace"** %13, i64 %1
  %17 = inttoptr i64 %8 to i8*
  %18 = add i64 %1, -1
  %19 = getelementptr %"class.chrome_lang_id::Workspace"*, %"class.chrome_lang_id::Workspace"** %13, i64 %18
  %20 = bitcast %"class.chrome_lang_id::Workspace"** %19 to i8*
  %21 = sub i64 0, %8
  %22 = getelementptr i8, i8* %20, i64 %21
  %23 = ptrtoint i8* %22 to i64
  %24 = add i64 %23, 8
  %25 = and i64 %24, -8
  tail call void @llvm.memset.p0i8.i64(i8* align 8 %17, i8 0, i64 %25, i1 false) #8
  %26 = ptrtoint %"class.chrome_lang_id::Workspace"** %16 to i64
  br label %27

27:                                               ; preds = %12, %15
  %28 = phi i64 [ %26, %15 ], [ %8, %12 ]
  store i64 %28, i64* %7, align 8
  br label %84

29:                                               ; preds = %2
  %30 = bitcast %"class.std::__1::vector.87"* %0 to i64*
  %31 = load i64, i64* %30, align 8
  %32 = sub i64 %8, %31
  %33 = ashr exact i64 %32, 3
  %34 = add i64 %33, %1
  %35 = icmp ugt i64 %34, 2305843009213693951
  br i1 %35, label %36, label %38

36:                                               ; preds = %29
  %37 = bitcast %"class.std::__1::vector.87"* %0 to %"class.std::__1::__vector_base_common"*
  tail call void @_ZNKSt3__120__vector_base_commonILb1EE20__throw_length_errorEv(%"class.std::__1::__vector_base_common"* %37) #10
  unreachable

38:                                               ; preds = %29
  %39 = sub i64 %5, %31
  %40 = ashr exact i64 %39, 3
  %41 = icmp ult i64 %40, 1152921504606846975
  br i1 %41, label %42, label %50

42:                                               ; preds = %38
  %43 = ashr exact i64 %39, 2
  %44 = icmp ult i64 %43, %34
  %45 = select i1 %44, i64 %34, i64 %43
  %46 = icmp eq i64 %45, 0
  br i1 %46, label %55, label %47

47:                                               ; preds = %42
  %48 = icmp ugt i64 %45, 2305843009213693951
  br i1 %48, label %49, label %50

49:                                               ; preds = %47
  tail call void @abort() #10
  unreachable

50:                                               ; preds = %38, %47
  %51 = phi i64 [ %45, %47 ], [ 2305843009213693951, %38 ]
  %52 = shl i64 %51, 3
  %53 = tail call i8* @_Znwm(i64 %52) #9
  %54 = bitcast i8* %53 to %"class.chrome_lang_id::Workspace"**
  br label %55

55:                                               ; preds = %50, %42
  %56 = phi i64 [ %51, %50 ], [ 0, %42 ]
  %57 = phi %"class.chrome_lang_id::Workspace"** [ %54, %50 ], [ null, %42 ]
  %58 = getelementptr inbounds %"class.chrome_lang_id::Workspace"*, %"class.chrome_lang_id::Workspace"** %57, i64 %33
  %59 = getelementptr inbounds %"class.chrome_lang_id::Workspace"*, %"class.chrome_lang_id::Workspace"** %57, i64 %56
  %60 = getelementptr inbounds %"class.chrome_lang_id::Workspace"*, %"class.chrome_lang_id::Workspace"** %58, i64 %1
  %61 = bitcast %"class.chrome_lang_id::Workspace"** %58 to i8*
  %62 = shl i64 %1, 3
  tail call void @llvm.memset.p0i8.i64(i8* align 8 %61, i8 0, i64 %62, i1 false) #8
  %63 = ptrtoint %"class.chrome_lang_id::Workspace"** %59 to i64
  %64 = ptrtoint %"class.chrome_lang_id::Workspace"** %60 to i64
  %65 = getelementptr inbounds %"class.std::__1::vector.87", %"class.std::__1::vector.87"* %0, i64 0, i32 0, i32 0
  %66 = load %"class.chrome_lang_id::Workspace"**, %"class.chrome_lang_id::Workspace"*** %65, align 8
  %67 = load i64, i64* %7, align 8
  %68 = ptrtoint %"class.chrome_lang_id::Workspace"** %66 to i64
  %69 = sub i64 %67, %68
  %70 = ashr exact i64 %69, 3
  %71 = sub nsw i64 0, %70
  %72 = getelementptr inbounds %"class.chrome_lang_id::Workspace"*, %"class.chrome_lang_id::Workspace"** %58, i64 %71
  %73 = ptrtoint %"class.chrome_lang_id::Workspace"** %72 to i64
  %74 = icmp sgt i64 %69, 0
  br i1 %74, label %75, label %79

75:                                               ; preds = %55
  %76 = bitcast %"class.chrome_lang_id::Workspace"** %72 to i8*
  %77 = bitcast %"class.chrome_lang_id::Workspace"** %66 to i8*
  tail call void @llvm.memcpy.p0i8.p0i8.i64(i8* align 8 %76, i8* align 8 %77, i64 %69, i1 false) #8
  %78 = load %"class.chrome_lang_id::Workspace"**, %"class.chrome_lang_id::Workspace"*** %65, align 8
  br label %79

79:                                               ; preds = %55, %75
  %80 = phi %"class.chrome_lang_id::Workspace"** [ %66, %55 ], [ %78, %75 ]
  store i64 %73, i64* %30, align 8
  store i64 %64, i64* %7, align 8
  store i64 %63, i64* %4, align 8
  %81 = icmp eq %"class.chrome_lang_id::Workspace"** %80, null
  br i1 %81, label %84, label %82

82:                                               ; preds = %79
  %83 = bitcast %"class.chrome_lang_id::Workspace"** %80 to i8*
  tail call void @_ZdlPv(i8* %83) #9
  br label %84

84:                                               ; preds = %82, %79, %27
  ret void
}

; Function Attrs: argmemonly nounwind
declare void @llvm.memset.p0i8.i64(i8* nocapture writeonly, i8, i64, i1 immarg) #1

; Function Attrs: noreturn
declare void @_ZNKSt3__120__vector_base_commonILb1EE20__throw_length_errorEv(%"class.std::__1::__vector_base_common"*) local_unnamed_addr #7

; Function Attrs: nounwind ssp uwtable
define linkonce_odr hidden void @_ZNSt3__112__hash_tableINS_17__hash_value_typeINS_10type_indexENS_6vectorINS_12basic_stringIcNS_11char_traitsIcEENS_9allocatorIcEEEENS7_IS9_EEEEEENS_22__unordered_map_hasherIS2_SC_NS_4hashIS2_EENS_8equal_toIS2_EELb1EEENS_21__unordered_map_equalIS2_SC_SH_SF_Lb1EEENS7_ISC_EEED2Ev(%"class.std::__1::__hash_table.39"*) unnamed_addr #0 comdat align 2 {
  %2 = getelementptr inbounds %"class.std::__1::__hash_table.39", %"class.std::__1::__hash_table.39"* %0, i64 0, i32 1, i32 0, i32 0, i32 0
  %3 = load %"struct.std::__1::__hash_node_base.43"*, %"struct.std::__1::__hash_node_base.43"** %2, align 8
  %4 = icmp eq %"struct.std::__1::__hash_node_base.43"* %3, null
  br i1 %4, label %39, label %5

5:                                                ; preds = %1, %36
  %6 = phi %"struct.std::__1::__hash_node_base.43"* [ %8, %36 ], [ %3, %1 ]
  %7 = getelementptr inbounds %"struct.std::__1::__hash_node_base.43", %"struct.std::__1::__hash_node_base.43"* %6, i64 0, i32 0
  %8 = load %"struct.std::__1::__hash_node_base.43"*, %"struct.std::__1::__hash_node_base.43"** %7, align 8
  %9 = getelementptr inbounds %"struct.std::__1::__hash_node_base.43", %"struct.std::__1::__hash_node_base.43"* %6, i64 3
  %10 = bitcast %"struct.std::__1::__hash_node_base.43"* %9 to %"class.std::__1::basic_string"**
  %11 = load %"class.std::__1::basic_string"*, %"class.std::__1::basic_string"** %10, align 8
  %12 = icmp eq %"class.std::__1::basic_string"* %11, null
  br i1 %12, label %36, label %13

13:                                               ; preds = %5
  %14 = bitcast %"class.std::__1::basic_string"* %11 to i8*
  %15 = getelementptr inbounds %"struct.std::__1::__hash_node_base.43", %"struct.std::__1::__hash_node_base.43"* %6, i64 4
  %16 = bitcast %"struct.std::__1::__hash_node_base.43"* %15 to %"class.std::__1::basic_string"**
  %17 = load %"class.std::__1::basic_string"*, %"class.std::__1::basic_string"** %16, align 8
  %18 = icmp eq %"class.std::__1::basic_string"* %17, %11
  br i1 %18, label %34, label %19

19:                                               ; preds = %13, %29
  %20 = phi %"class.std::__1::basic_string"* [ %21, %29 ], [ %17, %13 ]
  %21 = getelementptr inbounds %"class.std::__1::basic_string", %"class.std::__1::basic_string"* %20, i64 -1
  %22 = bitcast %"class.std::__1::basic_string"* %21 to %"struct.std::__1::basic_string<char, std::__1::char_traits<char>, std::__1::allocator<char> >::__short"*
  %23 = getelementptr inbounds %"struct.std::__1::basic_string<char, std::__1::char_traits<char>, std::__1::allocator<char> >::__short", %"struct.std::__1::basic_string<char, std::__1::char_traits<char>, std::__1::allocator<char> >::__short"* %22, i64 0, i32 1, i32 0
  %24 = load i8, i8* %23, align 1
  %25 = icmp slt i8 %24, 0
  br i1 %25, label %26, label %29

26:                                               ; preds = %19
  %27 = getelementptr inbounds %"class.std::__1::basic_string", %"class.std::__1::basic_string"* %21, i64 0, i32 0, i32 0, i32 0, i32 0, i32 0, i32 0
  %28 = load i8*, i8** %27, align 8
  tail call void @_ZdlPv(i8* %28) #9
  br label %29

29:                                               ; preds = %26, %19
  %30 = icmp eq %"class.std::__1::basic_string"* %21, %11
  br i1 %30, label %31, label %19

31:                                               ; preds = %29
  %32 = bitcast %"struct.std::__1::__hash_node_base.43"* %9 to i8**
  %33 = load i8*, i8** %32, align 8
  br label %34

34:                                               ; preds = %31, %13
  %35 = phi i8* [ %33, %31 ], [ %14, %13 ]
  store %"class.std::__1::basic_string"* %11, %"class.std::__1::basic_string"** %16, align 8
  tail call void @_ZdlPv(i8* %35) #9
  br label %36

36:                                               ; preds = %34, %5
  %37 = bitcast %"struct.std::__1::__hash_node_base.43"* %6 to i8*
  tail call void @_ZdlPv(i8* %37) #9
  %38 = icmp eq %"struct.std::__1::__hash_node_base.43"* %8, null
  br i1 %38, label %39, label %5

39:                                               ; preds = %36, %1
  %40 = getelementptr inbounds %"class.std::__1::__hash_table.39", %"class.std::__1::__hash_table.39"* %0, i64 0, i32 0, i32 0, i32 0, i32 0
  %41 = load %"struct.std::__1::__hash_node_base.43"**, %"struct.std::__1::__hash_node_base.43"*** %40, align 8
  store %"struct.std::__1::__hash_node_base.43"** null, %"struct.std::__1::__hash_node_base.43"*** %40, align 8
  %42 = icmp eq %"struct.std::__1::__hash_node_base.43"** %41, null
  br i1 %42, label %45, label %43

43:                                               ; preds = %39
  %44 = bitcast %"struct.std::__1::__hash_node_base.43"** %41 to i8*
  tail call void @_ZdlPv(i8* %44) #9
  br label %45

45:                                               ; preds = %39, %43
  ret void
}

declare dereferenceable(24) %"class.std::__1::basic_string"* @_ZNSt3__112basic_stringIcNS_11char_traitsIcEENS_9allocatorIcEEE6appendEPKc(%"class.std::__1::basic_string"*, i8*) local_unnamed_addr #5

declare dereferenceable(24) %"class.std::__1::basic_string"* @_ZNSt3__112basic_stringIcNS_11char_traitsIcEENS_9allocatorIcEEE6appendEPKcm(%"class.std::__1::basic_string"*, i8*, i64) local_unnamed_addr #5

; Function Attrs: nounwind readnone speculatable
declare i64 @llvm.ctpop.i64(i64) #6

attributes #0 = { nounwind ssp uwtable "correctly-rounded-divide-sqrt-fp-math"="false" "disable-tail-calls"="false" "less-precise-fpmad"="false" "min-legal-vector-width"="0" "no-frame-pointer-elim"="false" "no-frame-pointer-elim-non-leaf" "no-infs-fp-math"="false" "no-jump-tables"="false" "no-nans-fp-math"="false" "no-signed-zeros-fp-math"="false" "no-trapping-math"="false" "null-pointer-is-valid"="true" "stack-protector-buffer-size"="4" "target-cpu"="x86-64" "target-features"="+cx8,+fxsr,+mmx,+sse,+sse2,+sse3,+x87" "unsafe-fp-math"="false" "use-soft-float"="false" }
attributes #1 = { argmemonly nounwind }
attributes #2 = { nobuiltin nounwind "correctly-rounded-divide-sqrt-fp-math"="false" "disable-tail-calls"="false" "less-precise-fpmad"="false" "no-frame-pointer-elim"="false" "no-frame-pointer-elim-non-leaf" "no-infs-fp-math"="false" "no-nans-fp-math"="false" "no-signed-zeros-fp-math"="false" "no-trapping-math"="false" "null-pointer-is-valid"="true" "stack-protector-buffer-size"="4" "target-cpu"="x86-64" "target-features"="+cx8,+fxsr,+mmx,+sse,+sse2,+sse3,+x87" "unsafe-fp-math"="false" "use-soft-float"="false" }
attributes #3 = { noreturn nounwind "correctly-rounded-divide-sqrt-fp-math"="false" "disable-tail-calls"="false" "less-precise-fpmad"="false" "no-frame-pointer-elim"="false" "no-frame-pointer-elim-non-leaf" "no-infs-fp-math"="false" "no-nans-fp-math"="false" "no-signed-zeros-fp-math"="false" "no-trapping-math"="false" "null-pointer-is-valid"="true" "stack-protector-buffer-size"="4" "target-cpu"="x86-64" "target-features"="+cx8,+fxsr,+mmx,+sse,+sse2,+sse3,+x87" "unsafe-fp-math"="false" "use-soft-float"="false" }
attributes #4 = { nobuiltin nofree "correctly-rounded-divide-sqrt-fp-math"="false" "disable-tail-calls"="false" "less-precise-fpmad"="false" "no-frame-pointer-elim"="false" "no-frame-pointer-elim-non-leaf" "no-infs-fp-math"="false" "no-nans-fp-math"="false" "no-signed-zeros-fp-math"="false" "no-trapping-math"="false" "null-pointer-is-valid"="true" "stack-protector-buffer-size"="4" "target-cpu"="x86-64" "target-features"="+cx8,+fxsr,+mmx,+sse,+sse2,+sse3,+x87" "unsafe-fp-math"="false" "use-soft-float"="false" }
attributes #5 = { "correctly-rounded-divide-sqrt-fp-math"="false" "disable-tail-calls"="false" "less-precise-fpmad"="false" "no-frame-pointer-elim"="false" "no-frame-pointer-elim-non-leaf" "no-infs-fp-math"="false" "no-nans-fp-math"="false" "no-signed-zeros-fp-math"="false" "no-trapping-math"="false" "null-pointer-is-valid"="true" "stack-protector-buffer-size"="4" "target-cpu"="x86-64" "target-features"="+cx8,+fxsr,+mmx,+sse,+sse2,+sse3,+x87" "unsafe-fp-math"="false" "use-soft-float"="false" }
attributes #6 = { nounwind readnone speculatable }
attributes #7 = { noreturn "correctly-rounded-divide-sqrt-fp-math"="false" "disable-tail-calls"="false" "less-precise-fpmad"="false" "no-frame-pointer-elim"="false" "no-frame-pointer-elim-non-leaf" "no-infs-fp-math"="false" "no-nans-fp-math"="false" "no-signed-zeros-fp-math"="false" "no-trapping-math"="false" "null-pointer-is-valid"="true" "stack-protector-buffer-size"="4" "target-cpu"="x86-64" "target-features"="+cx8,+fxsr,+mmx,+sse,+sse2,+sse3,+x87" "unsafe-fp-math"="false" "use-soft-float"="false" }
attributes #8 = { nounwind }
attributes #9 = { builtin nounwind }
attributes #10 = { noreturn nounwind }

!llvm.module.flags = !{!0, !1}

!0 = !{i32 1, !"wchar_size", i32 4}
!1 = !{i32 7, !"PIC Level", i32 2}
!2 = distinct !{!2, !3}
!3 = !{!"llvm.loop.unroll.disable"}
!4 = !{i64 0, i64 65}
!5 = distinct !{!5, !6}
!6 = !{!"llvm.loop.isvectorized", i32 1}
!7 = distinct !{!7, !3}
!8 = distinct !{!8, !9, !6}
!9 = !{!"llvm.loop.unroll.runtime.disable"}
!10 = !{!11}
!11 = distinct !{!11, !12, !"_ZNSt3__112__hash_tableINS_17__hash_value_typeINS_10type_indexENS_6vectorIPN14chrome_lang_id9WorkspaceENS_9allocatorIS6_EEEEEENS_22__unordered_map_hasherIS2_SA_NS_4hashIS2_EENS_8equal_toIS2_EELb1EEENS_21__unordered_map_equalIS2_SA_SF_SD_Lb1EEENS7_ISA_EEE21__construct_node_hashIRKNS_21piecewise_construct_tEJNS_5tupleIJRKS2_EEENSP_IJEEEEEENS_10unique_ptrINS_11__hash_nodeISA_PvEENS_22__hash_node_destructorINS7_ISX_EEEEEEmOT_DpOT0_: argument 0"}
!12 = distinct !{!12, !"_ZNSt3__112__hash_tableINS_17__hash_value_typeINS_10type_indexENS_6vectorIPN14chrome_lang_id9WorkspaceENS_9allocatorIS6_EEEEEENS_22__unordered_map_hasherIS2_SA_NS_4hashIS2_EENS_8equal_toIS2_EELb1EEENS_21__unordered_map_equalIS2_SA_SF_SD_Lb1EEENS7_ISA_EEE21__construct_node_hashIRKNS_21piecewise_construct_tEJNS_5tupleIJRKS2_EEENSP_IJEEEEEENS_10unique_ptrINS_11__hash_nodeISA_PvEENS_22__hash_node_destructorINS7_ISX_EEEEEEmOT_DpOT0_"}
!13 = distinct !{!13, !3}
