; ModuleID = '../../content/services/isolated_xr_device/xr_test_hook_wrapper.cc'
source_filename = "../../content/services/isolated_xr_device/xr_test_hook_wrapper.cc"
target datalayout = "e-m:e-i64:64-f80:128-n8:16:32:64-S128"
target triple = "x86_64-unknown-linux-gnu"

module asm ".symver exp, exp@GLIBC_2.2.5"
module asm ".symver exp2, exp2@GLIBC_2.2.5"
module asm ".symver exp2f, exp2f@GLIBC_2.2.5"
module asm ".symver expf, expf@GLIBC_2.2.5"
module asm ".symver lgamma, lgamma@GLIBC_2.2.5"
module asm ".symver lgammaf, lgammaf@GLIBC_2.2.5"
module asm ".symver lgammal, lgammal@GLIBC_2.2.5"
module asm ".symver log, log@GLIBC_2.2.5"
module asm ".symver log2, log2@GLIBC_2.2.5"
module asm ".symver log2f, log2f@GLIBC_2.2.5"
module asm ".symver logf, logf@GLIBC_2.2.5"
module asm ".symver pow, pow@GLIBC_2.2.5"
module asm ".symver powf, powf@GLIBC_2.2.5"

%"struct.device::ControllerAxisData" = type { float, float, i32 }
%"class.device::XRTestHookWrapper" = type { %"class.device::VRTestHook", %"class.mojo::Remote", %"class.mojo::PendingRemote", %class.scoped_refptr.179 }
%"class.device::VRTestHook" = type { i32 (...)** }
%"class.mojo::Remote" = type { %"class.mojo::internal::InterfacePtrState" }
%"class.mojo::internal::InterfacePtrState" = type { %"class.mojo::internal::InterfacePtrStateBase.base", %"class.std::__1::unique_ptr.173" }
%"class.mojo::internal::InterfacePtrStateBase.base" = type <{ %class.scoped_refptr, %"class.std::__1::unique_ptr.123", %"class.mojo::ScopedHandleBase", [4 x i8], %class.scoped_refptr.2, i32 }>
%class.scoped_refptr = type { %"class.mojo::internal::MultiplexRouter"* }
%"class.mojo::internal::MultiplexRouter" = type <{ %"class.mojo::MessageReceiver", %"class.mojo::AssociatedGroupController.base", [4 x i8], %"class.mojo::PipeControlMessageHandlerDelegate", i32, i8, [3 x i8], %class.scoped_refptr.2, %"class.mojo::MessageHeaderValidator"*, %"class.mojo::MessageDispatcher", %"class.mojo::Connector", %"class.mojo::ScopedHandleBase", [4 x i8], %"class.absl::optional.90", %"class.absl::optional.95", %"class.absl::optional.52", %"class.mojo::PipeControlMessageHandler", %"class.mojo::PipeControlMessageProxy", %"class.base::small_map", i32, [4 x i8], %"class.base::circular_deque", %"class.std::__1::map.114", i8, [7 x i8], %class.scoped_refptr.2, i8, i8, i8, i8, i8, [3 x i8] }>
%"class.mojo::MessageReceiver" = type { i32 (...)** }
%"class.mojo::AssociatedGroupController.base" = type <{ i32 (...)**, %"class.base::RefCountedThreadSafe" }>
%"class.base::RefCountedThreadSafe" = type { %"class.base::subtle::RefCountedThreadSafeBase" }
%"class.base::subtle::RefCountedThreadSafeBase" = type { %"class.base::AtomicRefCount" }
%"class.base::AtomicRefCount" = type { %"struct.std::__1::atomic" }
%"struct.std::__1::atomic" = type { %"struct.std::__1::__atomic_base" }
%"struct.std::__1::__atomic_base" = type { %"struct.std::__1::__atomic_base.1" }
%"struct.std::__1::__atomic_base.1" = type { %"struct.std::__1::__cxx_atomic_impl" }
%"struct.std::__1::__cxx_atomic_impl" = type { %"struct.std::__1::__cxx_atomic_base_impl" }
%"struct.std::__1::__cxx_atomic_base_impl" = type { i32 }
%"class.mojo::PipeControlMessageHandlerDelegate" = type { i32 (...)** }
%"class.mojo::MessageHeaderValidator" = type { %"class.mojo::MessageReceiver", %"class.std::__1::basic_string" }
%"class.std::__1::basic_string" = type { %"class.std::__1::__compressed_pair.4" }
%"class.std::__1::__compressed_pair.4" = type { %"struct.std::__1::__compressed_pair_elem.5" }
%"struct.std::__1::__compressed_pair_elem.5" = type { %"struct.std::__1::basic_string<char, std::__1::char_traits<char>, std::__1::allocator<char> >::__rep" }
%"struct.std::__1::basic_string<char, std::__1::char_traits<char>, std::__1::allocator<char> >::__rep" = type { %union.anon.6 }
%union.anon.6 = type { %"struct.std::__1::basic_string<char, std::__1::char_traits<char>, std::__1::allocator<char> >::__long" }
%"struct.std::__1::basic_string<char, std::__1::char_traits<char>, std::__1::allocator<char> >::__long" = type { i8*, i64, i64 }
%"class.mojo::MessageDispatcher" = type { %"class.mojo::MessageReceiver", %"class.std::__1::unique_ptr.8", %"class.std::__1::unique_ptr.14", %"class.mojo::MessageReceiver"*, %"class.base::WeakPtrFactory" }
%"class.std::__1::unique_ptr.8" = type { %"class.std::__1::__compressed_pair.9" }
%"class.std::__1::__compressed_pair.9" = type { %"struct.std::__1::__compressed_pair_elem.10" }
%"struct.std::__1::__compressed_pair_elem.10" = type { %"class.mojo::MessageReceiver"* }
%"class.std::__1::unique_ptr.14" = type { %"class.std::__1::__compressed_pair.15" }
%"class.std::__1::__compressed_pair.15" = type { %"struct.std::__1::__compressed_pair_elem.16" }
%"struct.std::__1::__compressed_pair_elem.16" = type { %"class.mojo::MessageFilter"* }
%"class.mojo::MessageFilter" = type { i32 (...)** }
%"class.base::WeakPtrFactory" = type { %"class.base::internal::WeakPtrFactoryBase" }
%"class.base::internal::WeakPtrFactoryBase" = type { %"class.base::internal::WeakReferenceOwner", i64 }
%"class.base::internal::WeakReferenceOwner" = type { %class.scoped_refptr.20 }
%class.scoped_refptr.20 = type { %"class.base::internal::WeakReference::Flag"* }
%"class.base::internal::WeakReference::Flag" = type <{ %"class.base::RefCountedThreadSafe.21", %"class.base::AtomicFlag", [3 x i8] }>
%"class.base::RefCountedThreadSafe.21" = type { %"class.base::subtle::RefCountedThreadSafeBase" }
%"class.base::AtomicFlag" = type { %"struct.std::__1::atomic.22" }
%"struct.std::__1::atomic.22" = type { %"struct.std::__1::__atomic_base.23" }
%"struct.std::__1::__atomic_base.23" = type { %"struct.std::__1::__atomic_base.24" }
%"struct.std::__1::__atomic_base.24" = type { %"struct.std::__1::__cxx_atomic_impl.25" }
%"struct.std::__1::__cxx_atomic_impl.25" = type { %"struct.std::__1::__cxx_atomic_base_impl.26" }
%"struct.std::__1::__cxx_atomic_base_impl.26" = type { i8 }
%"class.mojo::Connector" = type { %"class.mojo::MessageReceiver", %"class.base::OnceCallback", %"class.mojo::ScopedHandleBase", %"class.mojo::MessageReceiver"*, %class.scoped_refptr.2, %"class.std::__1::unique_ptr.29", %"class.absl::optional.38", %"struct.std::__1::atomic.48", i8, i8, i8, i8, i32, i32, %"class.absl::optional.52", %"class.std::__1::unique_ptr.57", i8, i64, %class.scoped_refptr.86, %"class.base::Lock", i8, i8*, %"class.mojo::Connector::RunLoopNestingObserver"*, i8, i64, %"class.mojo::ConnectionGroup::Ref", %"class.base::WeakPtr", %"class.base::WeakPtrFactory.89" }
%"class.base::OnceCallback" = type { %"class.base::internal::CallbackBase" }
%"class.base::internal::CallbackBase" = type { %class.scoped_refptr.27 }
%class.scoped_refptr.27 = type { %"class.base::internal::BindStateBase"* }
%"class.base::internal::BindStateBase" = type { %"class.base::RefCountedThreadSafe.28", void ()*, void (%"class.base::internal::BindStateBase"*)*, i1 (%"class.base::internal::BindStateBase"*, i32)* }
%"class.base::RefCountedThreadSafe.28" = type { %"class.base::subtle::RefCountedThreadSafeBase" }
%"class.std::__1::unique_ptr.29" = type { %"class.std::__1::__compressed_pair.30" }
%"class.std::__1::__compressed_pair.30" = type { %"struct.std::__1::__compressed_pair_elem.31" }
%"struct.std::__1::__compressed_pair_elem.31" = type { %"class.mojo::SimpleWatcher"* }
%"class.mojo::SimpleWatcher" = type { i32, %class.scoped_refptr.2, i8, %"class.mojo::ScopedHandleBase.32", %class.scoped_refptr.33, %"class.mojo::Handle", i32, %"class.base::RepeatingCallback", i8*, %"class.base::WeakPtrFactory.34" }
%"class.mojo::ScopedHandleBase.32" = type { %"class.mojo::TrapHandle" }
%"class.mojo::TrapHandle" = type { %"class.mojo::Handle" }
%class.scoped_refptr.33 = type { %"class.mojo::SimpleWatcher::Context"* }
%"class.mojo::SimpleWatcher::Context" = type opaque
%"class.mojo::Handle" = type { i32 }
%"class.base::RepeatingCallback" = type { %"class.base::internal::CallbackBaseCopyable" }
%"class.base::internal::CallbackBaseCopyable" = type { %"class.base::internal::CallbackBase" }
%"class.base::WeakPtrFactory.34" = type { %"class.base::internal::WeakPtrFactoryBase" }
%"class.absl::optional.38" = type { %"class.absl::optional_internal::optional_data.39" }
%"class.absl::optional_internal::optional_data.39" = type { %"class.absl::optional_internal::optional_data_base.40" }
%"class.absl::optional_internal::optional_data_base.40" = type { %"class.absl::optional_internal::optional_data_dtor_base.41" }
%"class.absl::optional_internal::optional_data_dtor_base.41" = type { i8, %union.anon.42 }
%union.anon.42 = type { %"class.mojo::HandleSignalTracker" }
%"class.mojo::HandleSignalTracker" = type { %"class.base::RepeatingCallback.43", %"struct.mojo::HandleSignalsState", %"class.mojo::SimpleWatcher", %"class.mojo::SimpleWatcher" }
%"class.base::RepeatingCallback.43" = type { %"class.base::internal::CallbackBaseCopyable" }
%"struct.mojo::HandleSignalsState" = type { %struct.MojoHandleSignalsState }
%struct.MojoHandleSignalsState = type { i32, i32 }
%"struct.std::__1::atomic.48" = type { %"struct.std::__1::__atomic_base.49" }
%"struct.std::__1::__atomic_base.49" = type { %"struct.std::__1::__cxx_atomic_impl.50" }
%"struct.std::__1::__cxx_atomic_impl.50" = type { %"struct.std::__1::__cxx_atomic_base_impl.51" }
%"struct.std::__1::__cxx_atomic_base_impl.51" = type { i8 }
%"class.std::__1::unique_ptr.57" = type { %"class.std::__1::__compressed_pair.58" }
%"class.std::__1::__compressed_pair.58" = type { %"struct.std::__1::__compressed_pair_elem.59" }
%"struct.std::__1::__compressed_pair_elem.59" = type { %"class.mojo::SyncHandleWatcher"* }
%"class.mojo::SyncHandleWatcher" = type { %"class.mojo::Handle", i32, %"class.base::RepeatingCallback.60", i8, i64, %class.scoped_refptr.61, %class.scoped_refptr.82 }
%"class.base::RepeatingCallback.60" = type { %"class.base::internal::CallbackBaseCopyable" }
%class.scoped_refptr.61 = type { %"class.mojo::SyncHandleRegistry"* }
%"class.mojo::SyncHandleRegistry" = type <{ %"class.base::RefCounted", [4 x i8], %"class.mojo::WaitSet", %"class.std::__1::map", %"class.std::__1::map.71", i8, [7 x i8] }>
%"class.base::RefCounted" = type { %"class.base::subtle::RefCountedBase" }
%"class.base::subtle::RefCountedBase" = type { i32 }
%"class.mojo::WaitSet" = type { %class.scoped_refptr.62 }
%class.scoped_refptr.62 = type { %"class.mojo::WaitSet::State"* }
%"class.mojo::WaitSet::State" = type opaque
%"class.std::__1::map" = type { %"class.std::__1::__tree" }
%"class.std::__1::__tree" = type { %"class.std::__1::__tree_end_node"*, %"class.std::__1::__compressed_pair.63", %"class.std::__1::__compressed_pair.68" }
%"class.std::__1::__tree_end_node" = type { %"class.std::__1::__tree_node_base"* }
%"class.std::__1::__tree_node_base" = type opaque
%"class.std::__1::__compressed_pair.63" = type { %"struct.std::__1::__compressed_pair_elem.64" }
%"struct.std::__1::__compressed_pair_elem.64" = type { %"class.std::__1::__tree_end_node" }
%"class.std::__1::__compressed_pair.68" = type { %"struct.std::__1::__compressed_pair_elem.69" }
%"struct.std::__1::__compressed_pair_elem.69" = type { i64 }
%"class.std::__1::map.71" = type { %"class.std::__1::__tree.72" }
%"class.std::__1::__tree.72" = type { %"class.std::__1::__tree_end_node"*, %"class.std::__1::__compressed_pair.73", %"class.std::__1::__compressed_pair.77" }
%"class.std::__1::__compressed_pair.73" = type { %"struct.std::__1::__compressed_pair_elem.64" }
%"class.std::__1::__compressed_pair.77" = type { %"struct.std::__1::__compressed_pair_elem.69" }
%class.scoped_refptr.82 = type { %"class.base::RefCountedData"* }
%"class.base::RefCountedData" = type opaque
%class.scoped_refptr.86 = type { %"class.mojo::internal::MessageQuotaChecker"* }
%"class.mojo::internal::MessageQuotaChecker" = type opaque
%"class.base::Lock" = type { %"class.base::internal::LockImpl" }
%"class.base::internal::LockImpl" = type { %union.pthread_mutex_t }
%union.pthread_mutex_t = type { %struct.__pthread_mutex_s }
%struct.__pthread_mutex_s = type { i32, i32, i32, i32, i32, i16, i16, %struct.__pthread_internal_list }
%struct.__pthread_internal_list = type { %struct.__pthread_internal_list*, %struct.__pthread_internal_list* }
%"class.mojo::Connector::RunLoopNestingObserver" = type opaque
%"class.mojo::ConnectionGroup::Ref" = type { i32, %class.scoped_refptr.87 }
%class.scoped_refptr.87 = type { %"class.mojo::ConnectionGroup"* }
%"class.mojo::ConnectionGroup" = type <{ i32 (...)**, %"class.base::RefCountedThreadSafe.180", [4 x i8], %"class.base::RepeatingCallback.126", %class.scoped_refptr.2, %"class.mojo::ConnectionGroup::Ref", %"struct.std::__1::atomic.181", [4 x i8] }>
%"class.base::RefCountedThreadSafe.180" = type { %"class.base::subtle::RefCountedThreadSafeBase" }
%"class.base::RepeatingCallback.126" = type { %"class.base::internal::CallbackBaseCopyable" }
%"struct.std::__1::atomic.181" = type { %"struct.std::__1::__atomic_base.182" }
%"struct.std::__1::__atomic_base.182" = type { %"struct.std::__1::__atomic_base.183" }
%"struct.std::__1::__atomic_base.183" = type { %"struct.std::__1::__cxx_atomic_impl.184" }
%"struct.std::__1::__cxx_atomic_impl.184" = type { %"struct.std::__1::__cxx_atomic_base_impl.185" }
%"struct.std::__1::__cxx_atomic_base_impl.185" = type { i32 }
%"class.base::WeakPtr" = type { %"class.base::internal::WeakPtrBase" }
%"class.base::internal::WeakPtrBase" = type { %"class.base::internal::WeakReference", i64 }
%"class.base::internal::WeakReference" = type { %class.scoped_refptr.88 }
%class.scoped_refptr.88 = type { %"class.base::internal::WeakReference::Flag"* }
%"class.base::WeakPtrFactory.89" = type { %"class.base::internal::WeakPtrFactoryBase" }
%"class.absl::optional.90" = type { %"class.absl::optional_internal::optional_data.91" }
%"class.absl::optional_internal::optional_data.91" = type { %"class.absl::optional_internal::optional_data_base.92" }
%"class.absl::optional_internal::optional_data_base.92" = type { %"class.absl::optional_internal::optional_data_dtor_base.93" }
%"class.absl::optional_internal::optional_data_dtor_base.93" = type { i8, %union.anon.94 }
%union.anon.94 = type { %"class.mojo::SimpleWatcher" }
%"class.absl::optional.95" = type { %"class.absl::optional_internal::optional_data.96" }
%"class.absl::optional_internal::optional_data.96" = type { %"class.absl::optional_internal::optional_data_base.97" }
%"class.absl::optional_internal::optional_data_base.97" = type { %"class.absl::optional_internal::optional_data_dtor_base.98" }
%"class.absl::optional_internal::optional_data_dtor_base.98" = type { i8, [7 x i8], %union.anon.99 }
%union.anon.99 = type { %"struct.mojo::internal::MultiplexRouter::ExclusiveSyncWaitInfo" }
%"struct.mojo::internal::MultiplexRouter::ExclusiveSyncWaitInfo" = type <{ i32, [4 x i8], i64, i8, [7 x i8] }>
%"class.absl::optional.52" = type { %"class.absl::optional_internal::optional_data.53" }
%"class.absl::optional_internal::optional_data.53" = type { %"class.absl::optional_internal::optional_data_base.54" }
%"class.absl::optional_internal::optional_data_base.54" = type { %"class.absl::optional_internal::optional_data_dtor_base.55" }
%"class.absl::optional_internal::optional_data_dtor_base.55" = type { i8, %union.anon.56 }
%union.anon.56 = type { %"class.base::Lock" }
%"class.mojo::PipeControlMessageHandler" = type { %"class.mojo::MessageReceiver", %"class.std::__1::basic_string", %"class.mojo::PipeControlMessageHandlerDelegate"* }
%"class.mojo::PipeControlMessageProxy" = type { %"class.mojo::MessageReceiver"* }
%"class.base::small_map" = type { i64, %"class.base::internal::small_map_default_init", %union.anon.100 }
%"class.base::internal::small_map_default_init" = type { i8 }
%union.anon.100 = type { %"class.std::__1::map.102" }
%"class.std::__1::map.102" = type { %"class.std::__1::__tree.103" }
%"class.std::__1::__tree.103" = type { %"class.std::__1::__tree_end_node"*, %"class.std::__1::__compressed_pair.104", %"class.std::__1::__compressed_pair.108" }
%"class.std::__1::__compressed_pair.104" = type { %"struct.std::__1::__compressed_pair_elem.64" }
%"class.std::__1::__compressed_pair.108" = type { %"struct.std::__1::__compressed_pair_elem.69" }
%"class.base::circular_deque" = type { %"class.base::internal::VectorBuffer", i64, i64 }
%"class.base::internal::VectorBuffer" = type { %"class.std::__1::unique_ptr.113"*, i64 }
%"class.std::__1::unique_ptr.113" = type opaque
%"class.std::__1::map.114" = type { %"class.std::__1::__tree.115" }
%"class.std::__1::__tree.115" = type { %"class.std::__1::__tree_end_node"*, %"class.std::__1::__compressed_pair.116", %"class.std::__1::__compressed_pair.120" }
%"class.std::__1::__compressed_pair.116" = type { %"struct.std::__1::__compressed_pair_elem.64" }
%"class.std::__1::__compressed_pair.120" = type { %"struct.std::__1::__compressed_pair_elem.69" }
%"class.std::__1::unique_ptr.123" = type { %"class.std::__1::__compressed_pair.124" }
%"class.std::__1::__compressed_pair.124" = type { %"struct.std::__1::__compressed_pair_elem.125" }
%"struct.std::__1::__compressed_pair_elem.125" = type { %"class.mojo::InterfaceEndpointClient"* }
%"class.mojo::InterfaceEndpointClient" = type { %"class.mojo::MessageReceiverWithResponder", i8, %"class.base::RepeatingCallback.126", %"class.base::OnceCallback.127", %"class.absl::optional.128", %"class.absl::optional.133", %"class.mojo::ConnectionGroup::Ref", i32, %"class.mojo::ScopedInterfaceEndpointHandle", %"class.std::__1::unique_ptr.140", %"class.mojo::InterfaceEndpointController"*, %"class.mojo::MessageReceiverWithResponderStatus"*, %"class.mojo::InterfaceEndpointClient::HandleIncomingMessageThunk", %"class.mojo::MessageDispatcher", %"class.std::__1::map.148", %"class.std::__1::map.159", i64, %"class.base::OnceCallback", %"class.base::OnceCallback.168", i8, %class.scoped_refptr.2, %"class.mojo::internal::ControlMessageProxy", %"class.mojo::internal::ControlMessageHandler", i8*, %"class.base::WeakPtrFactory.169" }
%"class.mojo::MessageReceiverWithResponder" = type { %"class.mojo::MessageReceiver" }
%"class.base::OnceCallback.127" = type { %"class.base::internal::CallbackBase" }
%"class.absl::optional.128" = type { %"class.absl::optional_internal::optional_data.129" }
%"class.absl::optional_internal::optional_data.129" = type { %"class.absl::optional_internal::optional_data_base.130" }
%"class.absl::optional_internal::optional_data_base.130" = type { %"class.absl::optional_internal::optional_data_dtor_base.131" }
%"class.absl::optional_internal::optional_data_dtor_base.131" = type { i8, %union.anon.132 }
%union.anon.132 = type { %"class.base::TimeDelta" }
%"class.base::TimeDelta" = type { i64 }
%"class.absl::optional.133" = type { %"class.absl::optional_internal::optional_data.134" }
%"class.absl::optional_internal::optional_data.134" = type { %"class.absl::optional_internal::optional_data_base.135" }
%"class.absl::optional_internal::optional_data_base.135" = type { %"class.absl::optional_internal::optional_data_dtor_base.136" }
%"class.absl::optional_internal::optional_data_dtor_base.136" = type { i8, %union.anon.137 }
%union.anon.137 = type { %"class.base::OneShotTimer" }
%"class.base::OneShotTimer" = type { %"class.base::internal::TimerBase", %"class.base::OnceCallback" }
%"class.base::internal::TimerBase" = type { i32 (...)**, %class.scoped_refptr.2, %"class.base::SequenceCheckerDoNothing", %"class.base::internal::TaskDestructionDetector"*, %"class.base::Location", %"class.base::TimeDelta", %"class.base::TimeTicks", %"class.base::TimeTicks", %"class.base::TickClock"*, i8, %"class.base::WeakPtrFactory.138" }
%"class.base::SequenceCheckerDoNothing" = type { i8 }
%"class.base::internal::TaskDestructionDetector" = type opaque
%"class.base::Location" = type { i8*, i8*, i32, i8* }
%"class.base::TimeTicks" = type { %"class.base::time_internal::TimeBase" }
%"class.base::time_internal::TimeBase" = type { i64 }
%"class.base::TickClock" = type opaque
%"class.base::WeakPtrFactory.138" = type { %"class.base::internal::WeakPtrFactoryBase" }
%"class.mojo::ScopedInterfaceEndpointHandle" = type { %class.scoped_refptr.139 }
%class.scoped_refptr.139 = type { %"class.mojo::ScopedInterfaceEndpointHandle::State"* }
%"class.mojo::ScopedInterfaceEndpointHandle::State" = type opaque
%"class.std::__1::unique_ptr.140" = type { %"class.std::__1::__compressed_pair.141" }
%"class.std::__1::__compressed_pair.141" = type { %"struct.std::__1::__compressed_pair_elem.142" }
%"struct.std::__1::__compressed_pair_elem.142" = type { %"class.mojo::AssociatedGroup"* }
%"class.mojo::AssociatedGroup" = type { %"class.base::RepeatingCallback.143", %class.scoped_refptr.144 }
%"class.base::RepeatingCallback.143" = type { %"class.base::internal::CallbackBaseCopyable" }
%class.scoped_refptr.144 = type { %"class.mojo::AssociatedGroupController"* }
%"class.mojo::AssociatedGroupController" = type <{ i32 (...)**, %"class.base::RefCountedThreadSafe", [4 x i8] }>
%"class.mojo::InterfaceEndpointController" = type opaque
%"class.mojo::MessageReceiverWithResponderStatus" = type { %"class.mojo::MessageReceiver" }
%"class.mojo::InterfaceEndpointClient::HandleIncomingMessageThunk" = type { %"class.mojo::MessageReceiver", %"class.mojo::InterfaceEndpointClient"* }
%"class.std::__1::map.148" = type { %"class.std::__1::__tree.149" }
%"class.std::__1::__tree.149" = type { %"class.std::__1::__tree_end_node"*, %"class.std::__1::__compressed_pair.150", %"class.std::__1::__compressed_pair.154" }
%"class.std::__1::__compressed_pair.150" = type { %"struct.std::__1::__compressed_pair_elem.64" }
%"class.std::__1::__compressed_pair.154" = type { %"struct.std::__1::__compressed_pair_elem.69" }
%"class.std::__1::map.159" = type { %"class.std::__1::__tree.160" }
%"class.std::__1::__tree.160" = type { %"class.std::__1::__tree_end_node"*, %"class.std::__1::__compressed_pair.161", %"class.std::__1::__compressed_pair.165" }
%"class.std::__1::__compressed_pair.161" = type { %"struct.std::__1::__compressed_pair_elem.64" }
%"class.std::__1::__compressed_pair.165" = type { %"struct.std::__1::__compressed_pair_elem.69" }
%"class.base::OnceCallback.168" = type { %"class.base::internal::CallbackBase" }
%"class.mojo::internal::ControlMessageProxy" = type { %"class.mojo::InterfaceEndpointClient"*, i8, %"class.base::OnceCallback" }
%"class.mojo::internal::ControlMessageHandler" = type <{ %"class.mojo::MessageReceiverWithResponderStatus", %"class.mojo::InterfaceEndpointClient"*, i32, [4 x i8] }>
%"class.base::WeakPtrFactory.169" = type { %"class.base::internal::WeakPtrFactoryBase" }
%"class.mojo::ScopedHandleBase" = type { %"class.mojo::MessagePipeHandle" }
%"class.mojo::MessagePipeHandle" = type { %"class.mojo::Handle" }
%class.scoped_refptr.2 = type { %"class.base::SequencedTaskRunner"* }
%"class.base::SequencedTaskRunner" = type { %"class.base::TaskRunner.base", [4 x i8] }
%"class.base::TaskRunner.base" = type <{ i32 (...)**, %"class.base::RefCountedThreadSafe.3" }>
%"class.base::RefCountedThreadSafe.3" = type { %"class.base::subtle::RefCountedThreadSafeBase" }
%"class.std::__1::unique_ptr.173" = type { %"class.std::__1::__compressed_pair.174" }
%"class.std::__1::__compressed_pair.174" = type { %"struct.std::__1::__compressed_pair_elem.175" }
%"struct.std::__1::__compressed_pair_elem.175" = type { %"class.device_test::mojom::XRTestHookProxy"* }
%"class.device_test::mojom::XRTestHookProxy" = type { %"class.device_test::mojom::XRTestHook", %"class.mojo::MessageReceiverWithResponder"* }
%"class.device_test::mojom::XRTestHook" = type { i32 (...)** }
%"class.mojo::PendingRemote" = type { %"struct.mojo::internal::PendingRemoteState" }
%"struct.mojo::internal::PendingRemoteState" = type { %"class.mojo::ScopedHandleBase", i32 }
%class.scoped_refptr.179 = type { %"class.base::SingleThreadTaskRunner"* }
%"class.base::SingleThreadTaskRunner" = type { %"class.base::SequencedTaskRunner.base", [4 x i8] }
%"class.base::SequencedTaskRunner.base" = type { %"class.base::TaskRunner.base" }
%"struct.device::PoseFrameData" = type { [16 x float], i8 }
%"class.mojo::StructPtr" = type { %"class.std::__1::unique_ptr" }
%"class.std::__1::unique_ptr" = type { %"class.std::__1::__compressed_pair" }
%"class.std::__1::__compressed_pair" = type { %"struct.std::__1::__compressed_pair_elem" }
%"struct.std::__1::__compressed_pair_elem" = type { %"class.device_test::mojom::PoseFrameData"* }
%"class.device_test::mojom::PoseFrameData" = type { %"class.absl::optional" }
%"class.absl::optional" = type { %"class.absl::optional_internal::optional_data" }
%"class.absl::optional_internal::optional_data" = type { %"class.absl::optional_internal::optional_data_base" }
%"class.absl::optional_internal::optional_data_base" = type { %"class.absl::optional_internal::optional_data_dtor_base" }
%"class.absl::optional_internal::optional_data_dtor_base" = type { i8, [3 x i8], %union.anon }
%union.anon = type { %"class.gfx::Transform" }
%"class.gfx::Transform" = type { %class.SkMatrix44 }
%class.SkMatrix44 = type <{ [4 x [4 x float]], i8, [3 x i8] }>
%"class.mojo::internal::InterfacePtrStateBase" = type <{ %class.scoped_refptr, %"class.std::__1::unique_ptr.123", %"class.mojo::ScopedHandleBase", [4 x i8], %class.scoped_refptr.2, i32, [4 x i8] }>
%"struct.device::SubmittedFrameData" = type { %"struct.device::Color", i8, %"struct.device::Viewport", i32, i32, [256 x i8] }
%"struct.device::Color" = type { i8, i8, i8, i8 }
%"struct.device::Viewport" = type { float, float, float, float }
%"class.mojo::InlinedStructPtr" = type { %"class.device_test::mojom::Color", i32 }
%"class.device_test::mojom::Color" = type { i8, i8, i8, i8 }
%"class.mojo::StructPtr.186" = type { %"class.std::__1::unique_ptr.187" }
%"class.std::__1::unique_ptr.187" = type { %"class.std::__1::__compressed_pair.188" }
%"class.std::__1::__compressed_pair.188" = type { %"struct.std::__1::__compressed_pair_elem.189" }
%"struct.std::__1::__compressed_pair_elem.189" = type { %"class.device_test::mojom::SubmittedFrameData"* }
%"class.device_test::mojom::SubmittedFrameData" = type { %"class.mojo::InlinedStructPtr", i32, %"class.gfx::Rect", %"class.gfx::Size" }
%"class.gfx::Rect" = type { %"class.gfx::Point", %"class.gfx::Size" }
%"class.gfx::Point" = type { i32, i32 }
%"class.gfx::Size" = type { i32, i32 }
%"struct.device::DeviceConfig" = type { float, [4 x float], [4 x float] }
%"class.mojo::StructPtr.193" = type { %"class.std::__1::unique_ptr.194" }
%"class.std::__1::unique_ptr.194" = type { %"class.std::__1::__compressed_pair.195" }
%"class.std::__1::__compressed_pair.195" = type { %"struct.std::__1::__compressed_pair_elem.196" }
%"struct.std::__1::__compressed_pair_elem.196" = type { %"class.device_test::mojom::DeviceConfig"* }
%"class.device_test::mojom::DeviceConfig" = type { float, %"class.mojo::InlinedStructPtr.197", %"class.mojo::InlinedStructPtr.197" }
%"class.mojo::InlinedStructPtr.197" = type { %"class.device_test::mojom::ProjectionRaw", i32 }
%"class.device_test::mojom::ProjectionRaw" = type { float, float, float, float }
%"struct.device::ControllerFrameData" = type <{ i32, [4 x i8], i64, i64, i64, [5 x %"struct.device::ControllerAxisData"], %"struct.device::PoseFrameData", i32, i8, [3 x i8] }>
%"class.mojo::StructPtr.201" = type { %"class.std::__1::unique_ptr.202" }
%"class.std::__1::unique_ptr.202" = type { %"class.std::__1::__compressed_pair.203" }
%"class.std::__1::__compressed_pair.203" = type { %"struct.std::__1::__compressed_pair_elem.204" }
%"struct.std::__1::__compressed_pair_elem.204" = type { %"class.device_test::mojom::ControllerFrameData"* }
%"class.device_test::mojom::ControllerFrameData" = type <{ i32, [4 x i8], i64, i64, i64, %"class.std::__1::vector", %"class.mojo::StructPtr", i32, i8, [3 x i8] }>
%"class.std::__1::vector" = type { %"class.std::__1::__vector_base" }
%"class.std::__1::__vector_base" = type { %"class.mojo::InlinedStructPtr.205"*, %"class.mojo::InlinedStructPtr.205"*, %"class.std::__1::__compressed_pair.206" }
%"class.mojo::InlinedStructPtr.205" = type { %"class.device_test::mojom::ControllerAxisData", i32 }
%"class.device_test::mojom::ControllerAxisData" = type <{ float, float, i8, [3 x i8] }>
%"class.std::__1::__compressed_pair.206" = type { %"struct.std::__1::__compressed_pair_elem.207" }
%"struct.std::__1::__compressed_pair_elem.207" = type { %"class.mojo::InlinedStructPtr.205"* }
%"class.device_test::mojom::EventData" = type { i32, i32 }
%"class.mojo::InlinedStructPtr.214" = type { %"class.device_test::mojom::EventData", i32 }
%"class.base::TaskRunner" = type <{ i32 (...)**, %"class.base::RefCountedThreadSafe.3", [4 x i8] }>
%"class.logging::CheckError" = type { %"class.logging::LogMessage"* }
%"class.logging::LogMessage" = type { i32 (...)**, i32, %"class.std::__1::basic_ostringstream", i64, i8*, i32, %"class.base::ScopedClearLastErrorBase" }
%"class.std::__1::basic_ostringstream" = type { %"class.std::__1::basic_ostream.base", %"class.std::__1::basic_stringbuf", %"class.std::__1::basic_ios.base" }
%"class.std::__1::basic_ostream.base" = type { i32 (...)** }
%"class.std::__1::basic_stringbuf" = type <{ %"class.std::__1::basic_streambuf", %"class.std::__1::basic_string", i8*, i32, [4 x i8] }>
%"class.std::__1::basic_streambuf" = type { i32 (...)**, %"class.std::__1::locale", i8*, i8*, i8*, i8*, i8*, i8* }
%"class.std::__1::locale" = type { %"class.std::__1::locale::__imp"* }
%"class.std::__1::locale::__imp" = type opaque
%"class.std::__1::basic_ios.base" = type <{ %"class.std::__1::ios_base", %"class.std::__1::basic_ostream"*, i32 }>
%"class.std::__1::ios_base" = type { i32 (...)**, i32, i64, i64, i32, i32, i8*, i8*, void (i32, %"class.std::__1::ios_base"*, i32)**, i32*, i64, i64, i64*, i64, i64, i8**, i64, i64 }
%"class.std::__1::basic_ostream" = type { i32 (...)**, %"class.std::__1::basic_ios.base" }
%"class.base::ScopedClearLastErrorBase" = type { i32 }
%"class.mojo::InterfacePtrInfo" = type { %"struct.mojo::internal::PendingRemoteState" }

$_ZN4mojo6RemoteIN11device_test5mojom10XRTestHookEE6UnbindEv = comdat any

$_ZN4mojo6RemoteIN11device_test5mojom10XRTestHookEE4BindENS_13PendingRemoteIS3_EE13scoped_refptrIN4base19SequencedTaskRunnerEE = comdat any

$_ZN4mojo8internal17InterfacePtrStateIN11device_test5mojom10XRTestHookEE13PassInterfaceEv = comdat any

@_ZTVN6device17XRTestHookWrapperE = hidden unnamed_addr constant { [14 x i8*] } { [14 x i8*] [i8* null, i8* null, i8* bitcast (void (%"class.device::XRTestHookWrapper"*, %"struct.device::SubmittedFrameData"*)* @_ZN6device17XRTestHookWrapper16OnFrameSubmittedENS_18SubmittedFrameDataE to i8*), i8* bitcast (void (%"struct.device::DeviceConfig"*, %"class.device::XRTestHookWrapper"*)* @_ZN6device17XRTestHookWrapper19WaitGetDeviceConfigEv to i8*), i8* bitcast (void (%"struct.device::PoseFrameData"*, %"class.device::XRTestHookWrapper"*)* @_ZN6device17XRTestHookWrapper21WaitGetPresentingPoseEv to i8*), i8* bitcast (void (%"struct.device::PoseFrameData"*, %"class.device::XRTestHookWrapper"*)* @_ZN6device17XRTestHookWrapper22WaitGetMagicWindowPoseEv to i8*), i8* bitcast (i32 (%"class.device::XRTestHookWrapper"*, i32)* @_ZN6device17XRTestHookWrapper42WaitGetControllerRoleForTrackedDeviceIndexEj to i8*), i8* bitcast (i32 (%"class.device::XRTestHookWrapper"*, i32)* @_ZN6device17XRTestHookWrapper25WaitGetTrackedDeviceClassEj to i8*), i8* bitcast (void (%"struct.device::ControllerFrameData"*, %"class.device::XRTestHookWrapper"*, i32)* @_ZN6device17XRTestHookWrapper21WaitGetControllerDataEj to i8*), i8* bitcast (void (%"class.device_test::mojom::EventData"*, %"class.device::XRTestHookWrapper"*)* @_ZN6device17XRTestHookWrapper16WaitGetEventDataEv to i8*), i8* bitcast (void (%"class.device::XRTestHookWrapper"*)* @_ZN6device17XRTestHookWrapper19AttachCurrentThreadEv to i8*), i8* bitcast (void (%"class.device::XRTestHookWrapper"*)* @_ZN6device17XRTestHookWrapper19DetachCurrentThreadEv to i8*), i8* bitcast (void (%"class.device::XRTestHookWrapper"*)* @_ZN6device17XRTestHookWrapperD2Ev to i8*), i8* bitcast (void (%"class.device::XRTestHookWrapper"*)* @_ZN6device17XRTestHookWrapperD0Ev to i8*)] }, align 8
@__const._ZN6device17XRTestHookWrapper21WaitGetControllerDataEj.ret = private unnamed_addr constant <{ i32, [4 x i8], i64, i64, i64, [5 x %"struct.device::ControllerAxisData"], { [16 x float], i8, [3 x i8] }, i32, i8, [3 x i8] }> <{ i32 -1431655766, [4 x i8] c"\AA\AA\AA\AA", i64 -6148914691236517206, i64 -6148914691236517206, i64 -6148914691236517206, [5 x %"struct.device::ControllerAxisData"] [%"struct.device::ControllerAxisData" { float 0xFFFFFFFFE0000000, float 0xFFFFFFFFE0000000, i32 -1431655766 }, %"struct.device::ControllerAxisData" { float 0xFFFFFFFFE0000000, float 0xFFFFFFFFE0000000, i32 -1431655766 }, %"struct.device::ControllerAxisData" { float 0xFFFFFFFFE0000000, float 0xFFFFFFFFE0000000, i32 -1431655766 }, %"struct.device::ControllerAxisData" { float 0xFFFFFFFFE0000000, float 0xFFFFFFFFE0000000, i32 -1431655766 }, %"struct.device::ControllerAxisData" { float 0xFFFFFFFFE0000000, float 0xFFFFFFFFE0000000, i32 -1431655766 }], { [16 x float], i8, [3 x i8] } { [16 x float] [float 0xFFFFFFFFE0000000, float 0xFFFFFFFFE0000000, float 0xFFFFFFFFE0000000, float 0xFFFFFFFFE0000000, float 0xFFFFFFFFE0000000, float 0xFFFFFFFFE0000000, float 0xFFFFFFFFE0000000, float 0xFFFFFFFFE0000000, float 0xFFFFFFFFE0000000, float 0xFFFFFFFFE0000000, float 0xFFFFFFFFE0000000, float 0xFFFFFFFFE0000000, float 0xFFFFFFFFE0000000, float 0xFFFFFFFFE0000000, float 0xFFFFFFFFE0000000, float 0xFFFFFFFFE0000000], i8 -86, [3 x i8] c"\AA\AA\AA" }, i32 -1431655766, i8 -86, [3 x i8] c"\AA\AA\AA" }>, align 8
@_ZN11device_test5mojom10XRTestHook5Name_E = external constant [0 x i8], align 1
@_ZTVN11device_test5mojom27XRTestHookResponseValidatorE = external unnamed_addr constant { [6 x i8*] }, align 8
@.str = private unnamed_addr constant [40 x i8] c"../../mojo/public/cpp/bindings/remote.h\00", align 1
@.str.1 = private unnamed_addr constant [41 x i8] c"!internal_state_.has_pending_callbacks()\00", align 1

@_ZN6device17XRTestHookWrapperC1EN4mojo13PendingRemoteIN11device_test5mojom10XRTestHookEEE = hidden unnamed_addr alias void (%"class.device::XRTestHookWrapper"*, %"class.mojo::PendingRemote"*), void (%"class.device::XRTestHookWrapper"*, %"class.mojo::PendingRemote"*)* @_ZN6device17XRTestHookWrapperC2EN4mojo13PendingRemoteIN11device_test5mojom10XRTestHookEEE
@_ZN6device17XRTestHookWrapperD1Ev = hidden unnamed_addr alias void (%"class.device::XRTestHookWrapper"*), void (%"class.device::XRTestHookWrapper"*)* @_ZN6device17XRTestHookWrapperD2Ev

; Function Attrs: norecurse nounwind readnone ssp uwtable
define hidden i32 @_ZN6device26MojoToDeviceControllerRoleEN11device_test5mojom14ControllerRoleE(i32) local_unnamed_addr #0 {
  %2 = add i32 %0, -1
  %3 = icmp ult i32 %2, 3
  %4 = select i1 %3, i32 %0, i32 0
  ret i32 %4
}

; Function Attrs: nounwind ssp uwtable
define hidden void @_ZN6device25MojoToDevicePoseFrameDataERN4mojo9StructPtrIN11device_test5mojom13PoseFrameDataEEE(%"struct.device::PoseFrameData"* noalias sret, %"class.mojo::StructPtr"* nocapture readonly dereferenceable(8)) local_unnamed_addr #1 {
  %3 = bitcast %"struct.device::PoseFrameData"* %0 to i8*
  tail call void @llvm.memset.p0i8.i64(i8* align 4 %3, i8 0, i64 68, i1 false)
  %4 = getelementptr inbounds %"class.mojo::StructPtr", %"class.mojo::StructPtr"* %1, i64 0, i32 0, i32 0, i32 0, i32 0
  %5 = load %"class.device_test::mojom::PoseFrameData"*, %"class.device_test::mojom::PoseFrameData"** %4, align 8
  %6 = getelementptr inbounds %"class.device_test::mojom::PoseFrameData", %"class.device_test::mojom::PoseFrameData"* %5, i64 0, i32 0, i32 0, i32 0, i32 0, i32 0
  %7 = load i8, i8* %6, align 4, !range !2
  %8 = icmp eq i8 %7, 0
  %9 = getelementptr inbounds %"struct.device::PoseFrameData", %"struct.device::PoseFrameData"* %0, i64 0, i32 1
  store i8 %7, i8* %9, align 4
  br i1 %8, label %17, label %10

10:                                               ; preds = %2
  %11 = load i8, i8* %6, align 4, !range !2
  %12 = icmp eq i8 %11, 0
  br i1 %12, label %13, label %14, !prof !3

13:                                               ; preds = %10
  tail call void @llvm.trap() #9
  unreachable

14:                                               ; preds = %10
  %15 = getelementptr inbounds %"class.device_test::mojom::PoseFrameData", %"class.device_test::mojom::PoseFrameData"* %5, i64 0, i32 0, i32 0, i32 0, i32 0, i32 2, i32 0, i32 0
  %16 = getelementptr inbounds %"struct.device::PoseFrameData", %"struct.device::PoseFrameData"* %0, i64 0, i32 0, i64 0
  tail call void @_ZNK10SkMatrix4411asColMajorfEPf(%class.SkMatrix44* %15, float* %16) #9
  br label %17

17:                                               ; preds = %2, %14
  ret void
}

; Function Attrs: argmemonly nounwind
declare void @llvm.memset.p0i8.i64(i8* nocapture writeonly, i8, i64, i1 immarg) #2

declare void @_ZNK10SkMatrix4411asColMajorfEPf(%class.SkMatrix44*, float*) local_unnamed_addr #3

; Function Attrs: nounwind ssp uwtable
define hidden void @_ZN6device17XRTestHookWrapperC2EN4mojo13PendingRemoteIN11device_test5mojom10XRTestHookEEE(%"class.device::XRTestHookWrapper"*, %"class.mojo::PendingRemote"*) unnamed_addr #1 align 2 {
  %3 = getelementptr inbounds %"class.device::XRTestHookWrapper", %"class.device::XRTestHookWrapper"* %0, i64 0, i32 0, i32 0
  store i32 (...)** bitcast (i8** getelementptr inbounds ({ [14 x i8*] }, { [14 x i8*] }* @_ZTVN6device17XRTestHookWrapperE, i64 0, inrange i32 0, i64 2) to i32 (...)**), i32 (...)*** %3, align 8
  %4 = getelementptr inbounds %"class.device::XRTestHookWrapper", %"class.device::XRTestHookWrapper"* %0, i64 0, i32 1
  %5 = bitcast %"class.mojo::Remote"* %4 to %"class.mojo::internal::InterfacePtrStateBase"*
  tail call void @_ZN4mojo8internal21InterfacePtrStateBaseC2Ev(%"class.mojo::internal::InterfacePtrStateBase"* %5) #9
  %6 = getelementptr inbounds %"class.device::XRTestHookWrapper", %"class.device::XRTestHookWrapper"* %0, i64 0, i32 1, i32 0, i32 1
  %7 = bitcast %"class.std::__1::unique_ptr.173"* %6 to i64*
  store i64 0, i64* %7, align 8
  %8 = getelementptr inbounds %"class.device::XRTestHookWrapper", %"class.device::XRTestHookWrapper"* %0, i64 0, i32 2, i32 0
  %9 = getelementptr inbounds %"class.mojo::PendingRemote", %"class.mojo::PendingRemote"* %1, i64 0, i32 0
  tail call void @_ZN4mojo8internal18PendingRemoteStateC1EOS1_(%"struct.mojo::internal::PendingRemoteState"* %8, %"struct.mojo::internal::PendingRemoteState"* dereferenceable(8) %9) #9
  %10 = getelementptr inbounds %"class.device::XRTestHookWrapper", %"class.device::XRTestHookWrapper"* %0, i64 0, i32 3, i32 0
  store %"class.base::SingleThreadTaskRunner"* null, %"class.base::SingleThreadTaskRunner"** %10, align 8
  ret void
}

; Function Attrs: nounwind ssp uwtable
define hidden void @_ZN6device17XRTestHookWrapper16OnFrameSubmittedENS_18SubmittedFrameDataE(%"class.device::XRTestHookWrapper"*, %"struct.device::SubmittedFrameData"* nocapture readonly byval(%"struct.device::SubmittedFrameData") align 8) unnamed_addr #1 align 2 {
  %3 = alloca i32, align 4
  %4 = alloca %"class.mojo::InlinedStructPtr", align 4
  %5 = alloca %"class.mojo::StructPtr.186", align 8
  %6 = getelementptr inbounds %"class.device::XRTestHookWrapper", %"class.device::XRTestHookWrapper"* %0, i64 0, i32 1
  %7 = getelementptr inbounds %"class.device::XRTestHookWrapper", %"class.device::XRTestHookWrapper"* %0, i64 0, i32 1, i32 0, i32 0, i32 2, i32 0, i32 0, i32 0
  %8 = load i32, i32* %7, align 4
  %9 = icmp eq i32 %8, 0
  br i1 %9, label %10, label %14

10:                                               ; preds = %2
  %11 = getelementptr inbounds %"class.device::XRTestHookWrapper", %"class.device::XRTestHookWrapper"* %0, i64 0, i32 1, i32 0, i32 0, i32 1, i32 0, i32 0, i32 0
  %12 = load %"class.mojo::InterfaceEndpointClient"*, %"class.mojo::InterfaceEndpointClient"** %11, align 8
  %13 = icmp eq %"class.mojo::InterfaceEndpointClient"* %12, null
  br i1 %13, label %132, label %14

14:                                               ; preds = %10, %2
  %15 = tail call i8* @_Znwm(i64 36) #10, !noalias !4
  %16 = bitcast i8* %15 to %"class.device_test::mojom::SubmittedFrameData"*
  tail call void @_ZN11device_test5mojom18SubmittedFrameDataC1Ev(%"class.device_test::mojom::SubmittedFrameData"* nonnull %16) #9, !noalias !4
  %17 = ptrtoint i8* %15 to i64
  %18 = getelementptr inbounds %"class.mojo::InlinedStructPtr", %"class.mojo::InlinedStructPtr"* %4, i64 0, i32 0, i32 0
  call void @llvm.lifetime.start.p0i8(i64 8, i8* nonnull %18) #9
  %19 = getelementptr inbounds %"struct.device::SubmittedFrameData", %"struct.device::SubmittedFrameData"* %1, i64 0, i32 0, i32 0
  %20 = getelementptr inbounds %"struct.device::SubmittedFrameData", %"struct.device::SubmittedFrameData"* %1, i64 0, i32 0, i32 1
  %21 = getelementptr inbounds %"struct.device::SubmittedFrameData", %"struct.device::SubmittedFrameData"* %1, i64 0, i32 0, i32 2
  %22 = getelementptr inbounds %"struct.device::SubmittedFrameData", %"struct.device::SubmittedFrameData"* %1, i64 0, i32 0, i32 3
  %23 = getelementptr inbounds %"class.mojo::InlinedStructPtr", %"class.mojo::InlinedStructPtr"* %4, i64 0, i32 0
  %24 = load i8, i8* %19, align 8, !noalias !7
  %25 = load i8, i8* %20, align 1, !noalias !7
  %26 = load i8, i8* %21, align 2, !noalias !7
  %27 = load i8, i8* %22, align 1, !noalias !7
  call void @_ZN11device_test5mojom5ColorC1Ehhhh(%"class.device_test::mojom::Color"* nonnull %23, i8 zeroext %24, i8 zeroext %25, i8 zeroext %26, i8 zeroext %27) #9
  %28 = getelementptr inbounds %"class.mojo::InlinedStructPtr", %"class.mojo::InlinedStructPtr"* %4, i64 0, i32 1
  store i32 1, i32* %28, align 4, !alias.scope !7
  %29 = getelementptr inbounds i8, i8* %15, i64 4
  %30 = bitcast i8* %29 to i32*
  store i32 0, i32* %30, align 4
  %31 = bitcast i8* %15 to %"class.device_test::mojom::Color"*
  call void @_ZN11device_test5mojom5ColorD1Ev(%"class.device_test::mojom::Color"* nonnull %31) #9
  call void @_ZN11device_test5mojom5ColorC1Ev(%"class.device_test::mojom::Color"* nonnull %31) #9
  %32 = bitcast i32* %3 to %"class.device_test::mojom::Color"*
  %33 = bitcast i32* %3 to i8*
  call void @llvm.lifetime.start.p0i8(i64 4, i8* nonnull %33) #9
  %34 = bitcast i8* %15 to i32*
  %35 = load i32, i32* %34, align 1
  store i32 %35, i32* %3, align 4
  %36 = bitcast %"class.mojo::InlinedStructPtr"* %4 to i32*
  %37 = load i32, i32* %36, align 4
  store i32 %37, i32* %34, align 1
  store i32 %35, i32* %36, align 4
  call void @_ZN11device_test5mojom5ColorD1Ev(%"class.device_test::mojom::Color"* nonnull %32) #9
  call void @llvm.lifetime.end.p0i8(i64 4, i8* nonnull %33) #9
  %38 = load i32, i32* %30, align 4
  %39 = load i32, i32* %28, align 4
  store i32 %39, i32* %30, align 4
  store i32 %38, i32* %28, align 4
  call void @_ZN11device_test5mojom5ColorD1Ev(%"class.device_test::mojom::Color"* nonnull %23) #9
  call void @llvm.lifetime.end.p0i8(i64 8, i8* nonnull %18) #9
  %40 = getelementptr inbounds %"struct.device::SubmittedFrameData", %"struct.device::SubmittedFrameData"* %1, i64 0, i32 3
  %41 = load i32, i32* %40, align 8
  %42 = getelementptr inbounds %"struct.device::SubmittedFrameData", %"struct.device::SubmittedFrameData"* %1, i64 0, i32 4
  %43 = load i32, i32* %42, align 4
  %44 = icmp sgt i32 %41, 0
  %45 = select i1 %44, i32 %41, i32 0
  %46 = icmp sgt i32 %43, 0
  %47 = select i1 %46, i32 %43, i32 0
  %48 = getelementptr inbounds i8, i8* %15, i64 28
  %49 = bitcast i8* %48 to i64*
  %50 = zext i32 %47 to i64
  %51 = shl nuw nsw i64 %50, 32
  %52 = zext i32 %45 to i64
  %53 = or i64 %51, %52
  store i64 %53, i64* %49, align 4
  %54 = getelementptr inbounds %"struct.device::SubmittedFrameData", %"struct.device::SubmittedFrameData"* %1, i64 0, i32 1
  %55 = load i8, i8* %54, align 4, !range !2
  %56 = icmp eq i8 %55, 0
  %57 = select i1 %56, i32 2, i32 1
  %58 = getelementptr inbounds i8, i8* %15, i64 8
  %59 = bitcast i8* %58 to i32*
  store i32 %57, i32* %59, align 4
  %60 = getelementptr inbounds %"struct.device::SubmittedFrameData", %"struct.device::SubmittedFrameData"* %1, i64 0, i32 2, i32 0
  %61 = load float, float* %60, align 8
  %62 = fptosi float %61 to i32
  %63 = getelementptr inbounds %"struct.device::SubmittedFrameData", %"struct.device::SubmittedFrameData"* %1, i64 0, i32 2, i32 1
  %64 = load float, float* %63, align 4
  %65 = fptosi float %64 to i32
  %66 = getelementptr inbounds %"struct.device::SubmittedFrameData", %"struct.device::SubmittedFrameData"* %1, i64 0, i32 2, i32 2
  %67 = load float, float* %66, align 8
  %68 = fptosi float %67 to i32
  %69 = getelementptr inbounds %"struct.device::SubmittedFrameData", %"struct.device::SubmittedFrameData"* %1, i64 0, i32 2, i32 3
  %70 = load float, float* %69, align 4
  %71 = fptosi float %70 to i32
  %72 = icmp sgt i32 %62, 0
  %73 = icmp sgt i32 %68, 0
  %74 = and i1 %72, %73
  %75 = sub nuw nsw i32 2147483647, %62
  %76 = icmp ult i32 %75, %68
  %77 = and i1 %76, %74
  %78 = select i1 %77, i32 %75, i32 %68
  %79 = icmp sgt i32 %65, 0
  %80 = icmp sgt i32 %71, 0
  %81 = and i1 %79, %80
  %82 = sub nuw nsw i32 2147483647, %65
  %83 = icmp ult i32 %82, %71
  %84 = and i1 %83, %81
  %85 = select i1 %84, i32 %82, i32 %71
  %86 = icmp sgt i32 %78, 0
  %87 = select i1 %86, i32 %78, i32 0
  %88 = icmp sgt i32 %85, 0
  %89 = select i1 %88, i32 %85, i32 0
  %90 = getelementptr inbounds i8, i8* %15, i64 12
  %91 = bitcast i8* %90 to i32*
  store i32 %62, i32* %91, align 4
  %92 = getelementptr inbounds i8, i8* %15, i64 16
  %93 = bitcast i8* %92 to i32*
  store i32 %65, i32* %93, align 4
  %94 = getelementptr inbounds i8, i8* %15, i64 20
  %95 = bitcast i8* %94 to i32*
  store i32 %87, i32* %95, align 4
  %96 = getelementptr inbounds i8, i8* %15, i64 24
  %97 = bitcast i8* %96 to i32*
  store i32 %89, i32* %97, align 4
  %98 = getelementptr inbounds %"class.device::XRTestHookWrapper", %"class.device::XRTestHookWrapper"* %0, i64 0, i32 1, i32 0, i32 1
  %99 = getelementptr inbounds %"class.std::__1::unique_ptr.173", %"class.std::__1::unique_ptr.173"* %98, i64 0, i32 0, i32 0, i32 0
  %100 = load %"class.device_test::mojom::XRTestHookProxy"*, %"class.device_test::mojom::XRTestHookProxy"** %99, align 8
  %101 = icmp eq %"class.device_test::mojom::XRTestHookProxy"* %100, null
  br i1 %101, label %102, label %123

102:                                              ; preds = %14
  %103 = bitcast %"class.mojo::Remote"* %6 to %"class.mojo::internal::InterfacePtrStateBase"*
  %104 = call i8* @_Znwm(i64 8) #10
  %105 = bitcast i8* %104 to i32 (...)***
  store i32 (...)** bitcast (i8** getelementptr inbounds ({ [6 x i8*] }, { [6 x i8*] }* @_ZTVN11device_test5mojom27XRTestHookResponseValidatorE, i64 0, inrange i32 0, i64 2) to i32 (...)**), i32 (...)*** %105, align 8
  %106 = bitcast i8* %104 to %"class.mojo::MessageReceiver"*
  %107 = call zeroext i1 @_ZN4mojo8internal21InterfacePtrStateBase24InitializeEndpointClientEbbbNSt3__110unique_ptrINS_15MessageReceiverENS2_14default_deleteIS4_EEEEPKc(%"class.mojo::internal::InterfacePtrStateBase"* %103, i1 zeroext false, i1 zeroext true, i1 zeroext false, %"class.mojo::MessageReceiver"* nonnull %106, i8* getelementptr inbounds ([0 x i8], [0 x i8]* @_ZN11device_test5mojom10XRTestHook5Name_E, i64 0, i64 0)) #9
  br i1 %107, label %108, label %123

108:                                              ; preds = %102
  %109 = getelementptr inbounds %"class.device::XRTestHookWrapper", %"class.device::XRTestHookWrapper"* %0, i64 0, i32 1, i32 0, i32 0, i32 1, i32 0, i32 0, i32 0
  %110 = bitcast %"class.mojo::InterfaceEndpointClient"** %109 to %"class.mojo::MessageReceiverWithResponder"**
  %111 = load %"class.mojo::MessageReceiverWithResponder"*, %"class.mojo::MessageReceiverWithResponder"** %110, align 8
  %112 = call i8* @_Znwm(i64 16) #10
  %113 = bitcast i8* %112 to %"class.device_test::mojom::XRTestHookProxy"*
  call void @_ZN11device_test5mojom15XRTestHookProxyC1EPN4mojo28MessageReceiverWithResponderE(%"class.device_test::mojom::XRTestHookProxy"* nonnull %113, %"class.mojo::MessageReceiverWithResponder"* %111) #9
  %114 = ptrtoint i8* %112 to i64
  %115 = load %"class.device_test::mojom::XRTestHookProxy"*, %"class.device_test::mojom::XRTestHookProxy"** %99, align 8
  %116 = bitcast %"class.std::__1::unique_ptr.173"* %98 to i64*
  store i64 %114, i64* %116, align 8
  %117 = icmp eq %"class.device_test::mojom::XRTestHookProxy"* %115, null
  br i1 %117, label %123, label %118

118:                                              ; preds = %108
  %119 = bitcast %"class.device_test::mojom::XRTestHookProxy"* %115 to void (%"class.device_test::mojom::XRTestHookProxy"*)***
  %120 = load void (%"class.device_test::mojom::XRTestHookProxy"*)**, void (%"class.device_test::mojom::XRTestHookProxy"*)*** %119, align 8
  %121 = getelementptr inbounds void (%"class.device_test::mojom::XRTestHookProxy"*)*, void (%"class.device_test::mojom::XRTestHookProxy"*)** %120, i64 1
  %122 = load void (%"class.device_test::mojom::XRTestHookProxy"*)*, void (%"class.device_test::mojom::XRTestHookProxy"*)** %121, align 8
  call void %122(%"class.device_test::mojom::XRTestHookProxy"* nonnull %115) #9
  br label %123

123:                                              ; preds = %14, %102, %108, %118
  %124 = load %"class.device_test::mojom::XRTestHookProxy"*, %"class.device_test::mojom::XRTestHookProxy"** %99, align 8
  %125 = bitcast %"class.mojo::StructPtr.186"* %5 to i64*
  %126 = getelementptr inbounds %"class.mojo::StructPtr.186", %"class.mojo::StructPtr.186"* %5, i64 0, i32 0, i32 0, i32 0, i32 0
  store i64 %17, i64* %125, align 8
  %127 = call zeroext i1 @_ZN11device_test5mojom15XRTestHookProxy16OnFrameSubmittedEN4mojo9StructPtrINS0_18SubmittedFrameDataEEE(%"class.device_test::mojom::XRTestHookProxy"* %124, %"class.mojo::StructPtr.186"* nonnull %5) #9
  %128 = load %"class.device_test::mojom::SubmittedFrameData"*, %"class.device_test::mojom::SubmittedFrameData"** %126, align 8
  store %"class.device_test::mojom::SubmittedFrameData"* null, %"class.device_test::mojom::SubmittedFrameData"** %126, align 8
  %129 = icmp eq %"class.device_test::mojom::SubmittedFrameData"* %128, null
  br i1 %129, label %132, label %130

130:                                              ; preds = %123
  call void @_ZN11device_test5mojom18SubmittedFrameDataD1Ev(%"class.device_test::mojom::SubmittedFrameData"* nonnull %128) #9
  %131 = getelementptr inbounds %"class.device_test::mojom::SubmittedFrameData", %"class.device_test::mojom::SubmittedFrameData"* %128, i64 0, i32 0, i32 0, i32 0
  call void @_ZdlPv(i8* %131) #10
  br label %132

132:                                              ; preds = %10, %123, %130
  ret void
}

; Function Attrs: argmemonly nounwind
declare void @llvm.lifetime.start.p0i8(i64 immarg, i8* nocapture) #2

; Function Attrs: argmemonly nounwind
declare void @llvm.lifetime.end.p0i8(i64 immarg, i8* nocapture) #2

; Function Attrs: argmemonly nounwind
declare void @llvm.memcpy.p0i8.p0i8.i64(i8* nocapture writeonly, i8* nocapture readonly, i64, i1 immarg) #2

declare zeroext i1 @_ZN11device_test5mojom15XRTestHookProxy16OnFrameSubmittedEN4mojo9StructPtrINS0_18SubmittedFrameDataEEE(%"class.device_test::mojom::XRTestHookProxy"*, %"class.mojo::StructPtr.186"*) unnamed_addr #3

; Function Attrs: nounwind ssp uwtable
define hidden void @_ZN6device17XRTestHookWrapper19WaitGetDeviceConfigEv(%"struct.device::DeviceConfig"* noalias nocapture sret, %"class.device::XRTestHookWrapper"*) unnamed_addr #1 align 2 {
  %3 = alloca %"class.mojo::StructPtr.193", align 8
  %4 = getelementptr inbounds %"class.device::XRTestHookWrapper", %"class.device::XRTestHookWrapper"* %1, i64 0, i32 1
  %5 = getelementptr inbounds %"class.device::XRTestHookWrapper", %"class.device::XRTestHookWrapper"* %1, i64 0, i32 1, i32 0, i32 0, i32 2, i32 0, i32 0, i32 0
  %6 = load i32, i32* %5, align 4
  %7 = icmp eq i32 %6, 0
  br i1 %7, label %8, label %12

8:                                                ; preds = %2
  %9 = getelementptr inbounds %"class.device::XRTestHookWrapper", %"class.device::XRTestHookWrapper"* %1, i64 0, i32 1, i32 0, i32 0, i32 1, i32 0, i32 0, i32 0
  %10 = load %"class.mojo::InterfaceEndpointClient"*, %"class.mojo::InterfaceEndpointClient"** %9, align 8
  %11 = icmp eq %"class.mojo::InterfaceEndpointClient"* %10, null
  br i1 %11, label %72, label %12

12:                                               ; preds = %8, %2
  %13 = bitcast %"class.mojo::StructPtr.193"* %3 to i8*
  call void @llvm.lifetime.start.p0i8(i64 8, i8* nonnull %13) #9
  %14 = getelementptr inbounds %"class.mojo::StructPtr.193", %"class.mojo::StructPtr.193"* %3, i64 0, i32 0, i32 0, i32 0, i32 0
  %15 = bitcast %"class.mojo::StructPtr.193"* %3 to i64*
  store i64 0, i64* %15, align 8
  %16 = getelementptr inbounds %"class.device::XRTestHookWrapper", %"class.device::XRTestHookWrapper"* %1, i64 0, i32 1, i32 0, i32 1
  %17 = getelementptr inbounds %"class.std::__1::unique_ptr.173", %"class.std::__1::unique_ptr.173"* %16, i64 0, i32 0, i32 0, i32 0
  %18 = load %"class.device_test::mojom::XRTestHookProxy"*, %"class.device_test::mojom::XRTestHookProxy"** %17, align 8
  %19 = icmp eq %"class.device_test::mojom::XRTestHookProxy"* %18, null
  br i1 %19, label %20, label %41

20:                                               ; preds = %12
  %21 = bitcast %"class.mojo::Remote"* %4 to %"class.mojo::internal::InterfacePtrStateBase"*
  %22 = tail call i8* @_Znwm(i64 8) #10
  %23 = bitcast i8* %22 to i32 (...)***
  store i32 (...)** bitcast (i8** getelementptr inbounds ({ [6 x i8*] }, { [6 x i8*] }* @_ZTVN11device_test5mojom27XRTestHookResponseValidatorE, i64 0, inrange i32 0, i64 2) to i32 (...)**), i32 (...)*** %23, align 8
  %24 = bitcast i8* %22 to %"class.mojo::MessageReceiver"*
  %25 = tail call zeroext i1 @_ZN4mojo8internal21InterfacePtrStateBase24InitializeEndpointClientEbbbNSt3__110unique_ptrINS_15MessageReceiverENS2_14default_deleteIS4_EEEEPKc(%"class.mojo::internal::InterfacePtrStateBase"* %21, i1 zeroext false, i1 zeroext true, i1 zeroext false, %"class.mojo::MessageReceiver"* nonnull %24, i8* getelementptr inbounds ([0 x i8], [0 x i8]* @_ZN11device_test5mojom10XRTestHook5Name_E, i64 0, i64 0)) #9
  br i1 %25, label %26, label %41

26:                                               ; preds = %20
  %27 = getelementptr inbounds %"class.device::XRTestHookWrapper", %"class.device::XRTestHookWrapper"* %1, i64 0, i32 1, i32 0, i32 0, i32 1, i32 0, i32 0, i32 0
  %28 = bitcast %"class.mojo::InterfaceEndpointClient"** %27 to %"class.mojo::MessageReceiverWithResponder"**
  %29 = load %"class.mojo::MessageReceiverWithResponder"*, %"class.mojo::MessageReceiverWithResponder"** %28, align 8
  %30 = tail call i8* @_Znwm(i64 16) #10
  %31 = bitcast i8* %30 to %"class.device_test::mojom::XRTestHookProxy"*
  tail call void @_ZN11device_test5mojom15XRTestHookProxyC1EPN4mojo28MessageReceiverWithResponderE(%"class.device_test::mojom::XRTestHookProxy"* nonnull %31, %"class.mojo::MessageReceiverWithResponder"* %29) #9
  %32 = ptrtoint i8* %30 to i64
  %33 = load %"class.device_test::mojom::XRTestHookProxy"*, %"class.device_test::mojom::XRTestHookProxy"** %17, align 8
  %34 = bitcast %"class.std::__1::unique_ptr.173"* %16 to i64*
  store i64 %32, i64* %34, align 8
  %35 = icmp eq %"class.device_test::mojom::XRTestHookProxy"* %33, null
  br i1 %35, label %41, label %36

36:                                               ; preds = %26
  %37 = bitcast %"class.device_test::mojom::XRTestHookProxy"* %33 to void (%"class.device_test::mojom::XRTestHookProxy"*)***
  %38 = load void (%"class.device_test::mojom::XRTestHookProxy"*)**, void (%"class.device_test::mojom::XRTestHookProxy"*)*** %37, align 8
  %39 = getelementptr inbounds void (%"class.device_test::mojom::XRTestHookProxy"*)*, void (%"class.device_test::mojom::XRTestHookProxy"*)** %38, i64 1
  %40 = load void (%"class.device_test::mojom::XRTestHookProxy"*)*, void (%"class.device_test::mojom::XRTestHookProxy"*)** %39, align 8
  tail call void %40(%"class.device_test::mojom::XRTestHookProxy"* nonnull %33) #9
  br label %41

41:                                               ; preds = %12, %20, %26, %36
  %42 = load %"class.device_test::mojom::XRTestHookProxy"*, %"class.device_test::mojom::XRTestHookProxy"** %17, align 8
  %43 = call zeroext i1 @_ZN11device_test5mojom15XRTestHookProxy19WaitGetDeviceConfigEPN4mojo9StructPtrINS0_12DeviceConfigEEE(%"class.device_test::mojom::XRTestHookProxy"* %42, %"class.mojo::StructPtr.193"* nonnull %3) #9
  %44 = load %"class.device_test::mojom::DeviceConfig"*, %"class.device_test::mojom::DeviceConfig"** %14, align 8
  %45 = icmp eq %"class.device_test::mojom::DeviceConfig"* %44, null
  br i1 %45, label %71, label %46

46:                                               ; preds = %41
  %47 = bitcast %"class.device_test::mojom::DeviceConfig"* %44 to <4 x i32>*
  %48 = load <4 x i32>, <4 x i32>* %47, align 4
  %49 = bitcast %"struct.device::DeviceConfig"* %0 to <4 x i32>*
  store <4 x i32> %48, <4 x i32>* %49, align 4
  %50 = getelementptr inbounds %"struct.device::DeviceConfig", %"struct.device::DeviceConfig"* %0, i64 0, i32 1, i64 3
  %51 = bitcast float* %50 to i32*
  %52 = extractelement <4 x i32> %48, i32 1
  store i32 %52, i32* %51, align 4
  %53 = getelementptr inbounds %"class.device_test::mojom::DeviceConfig", %"class.device_test::mojom::DeviceConfig"* %44, i64 0, i32 2, i32 0
  %54 = bitcast %"class.device_test::mojom::ProjectionRaw"* %53 to i32*
  %55 = load i32, i32* %54, align 4
  %56 = getelementptr inbounds %"struct.device::DeviceConfig", %"struct.device::DeviceConfig"* %0, i64 0, i32 2
  %57 = bitcast [4 x float]* %56 to i32*
  store i32 %55, i32* %57, align 4
  %58 = getelementptr inbounds %"class.device_test::mojom::DeviceConfig", %"class.device_test::mojom::DeviceConfig"* %44, i64 0, i32 2, i32 0, i32 1
  %59 = bitcast float* %58 to i32*
  %60 = load i32, i32* %59, align 4
  %61 = getelementptr inbounds %"struct.device::DeviceConfig", %"struct.device::DeviceConfig"* %0, i64 0, i32 2, i64 1
  %62 = bitcast float* %61 to i32*
  store i32 %60, i32* %62, align 4
  %63 = getelementptr inbounds %"class.device_test::mojom::DeviceConfig", %"class.device_test::mojom::DeviceConfig"* %44, i64 0, i32 2, i32 0, i32 2
  %64 = bitcast float* %63 to i32*
  %65 = load i32, i32* %64, align 4
  %66 = getelementptr inbounds %"struct.device::DeviceConfig", %"struct.device::DeviceConfig"* %0, i64 0, i32 2, i64 2
  %67 = bitcast float* %66 to i32*
  store i32 %65, i32* %67, align 4
  %68 = getelementptr inbounds %"struct.device::DeviceConfig", %"struct.device::DeviceConfig"* %0, i64 0, i32 2, i64 3
  %69 = bitcast float* %68 to i32*
  store i32 %55, i32* %69, align 4
  store %"class.device_test::mojom::DeviceConfig"* null, %"class.device_test::mojom::DeviceConfig"** %14, align 8
  call void @_ZN11device_test5mojom12DeviceConfigD1Ev(%"class.device_test::mojom::DeviceConfig"* nonnull %44) #9
  %70 = bitcast %"class.device_test::mojom::DeviceConfig"* %44 to i8*
  call void @_ZdlPv(i8* %70) #10
  call void @llvm.lifetime.end.p0i8(i64 8, i8* nonnull %13) #9
  br label %74

71:                                               ; preds = %41
  call void @llvm.lifetime.end.p0i8(i64 8, i8* nonnull %13) #9
  br label %72

72:                                               ; preds = %8, %71
  %73 = bitcast %"struct.device::DeviceConfig"* %0 to i8*
  call void @llvm.memset.p0i8.i64(i8* align 4 %73, i8 0, i64 36, i1 false)
  br label %74

74:                                               ; preds = %46, %72
  ret void
}

declare zeroext i1 @_ZN11device_test5mojom15XRTestHookProxy19WaitGetDeviceConfigEPN4mojo9StructPtrINS0_12DeviceConfigEEE(%"class.device_test::mojom::XRTestHookProxy"*, %"class.mojo::StructPtr.193"*) unnamed_addr #3

; Function Attrs: nounwind ssp uwtable
define hidden void @_ZN6device17XRTestHookWrapper21WaitGetPresentingPoseEv(%"struct.device::PoseFrameData"* noalias sret, %"class.device::XRTestHookWrapper"*) unnamed_addr #1 align 2 {
  %3 = alloca %"class.mojo::StructPtr", align 8
  %4 = getelementptr inbounds %"class.device::XRTestHookWrapper", %"class.device::XRTestHookWrapper"* %1, i64 0, i32 1
  %5 = getelementptr inbounds %"class.device::XRTestHookWrapper", %"class.device::XRTestHookWrapper"* %1, i64 0, i32 1, i32 0, i32 0, i32 2, i32 0, i32 0, i32 0
  %6 = load i32, i32* %5, align 4
  %7 = icmp eq i32 %6, 0
  br i1 %7, label %8, label %12

8:                                                ; preds = %2
  %9 = getelementptr inbounds %"class.device::XRTestHookWrapper", %"class.device::XRTestHookWrapper"* %1, i64 0, i32 1, i32 0, i32 0, i32 1, i32 0, i32 0, i32 0
  %10 = load %"class.mojo::InterfaceEndpointClient"*, %"class.mojo::InterfaceEndpointClient"** %9, align 8
  %11 = icmp eq %"class.mojo::InterfaceEndpointClient"* %10, null
  br i1 %11, label %63, label %12

12:                                               ; preds = %8, %2
  %13 = bitcast %"class.mojo::StructPtr"* %3 to i8*
  call void @llvm.lifetime.start.p0i8(i64 8, i8* nonnull %13) #9
  %14 = getelementptr inbounds %"class.mojo::StructPtr", %"class.mojo::StructPtr"* %3, i64 0, i32 0, i32 0, i32 0, i32 0
  %15 = bitcast %"class.mojo::StructPtr"* %3 to i64*
  store i64 0, i64* %15, align 8
  %16 = getelementptr inbounds %"class.device::XRTestHookWrapper", %"class.device::XRTestHookWrapper"* %1, i64 0, i32 1, i32 0, i32 1
  %17 = getelementptr inbounds %"class.std::__1::unique_ptr.173", %"class.std::__1::unique_ptr.173"* %16, i64 0, i32 0, i32 0, i32 0
  %18 = load %"class.device_test::mojom::XRTestHookProxy"*, %"class.device_test::mojom::XRTestHookProxy"** %17, align 8
  %19 = icmp eq %"class.device_test::mojom::XRTestHookProxy"* %18, null
  br i1 %19, label %20, label %41

20:                                               ; preds = %12
  %21 = bitcast %"class.mojo::Remote"* %4 to %"class.mojo::internal::InterfacePtrStateBase"*
  %22 = tail call i8* @_Znwm(i64 8) #10
  %23 = bitcast i8* %22 to i32 (...)***
  store i32 (...)** bitcast (i8** getelementptr inbounds ({ [6 x i8*] }, { [6 x i8*] }* @_ZTVN11device_test5mojom27XRTestHookResponseValidatorE, i64 0, inrange i32 0, i64 2) to i32 (...)**), i32 (...)*** %23, align 8
  %24 = bitcast i8* %22 to %"class.mojo::MessageReceiver"*
  %25 = tail call zeroext i1 @_ZN4mojo8internal21InterfacePtrStateBase24InitializeEndpointClientEbbbNSt3__110unique_ptrINS_15MessageReceiverENS2_14default_deleteIS4_EEEEPKc(%"class.mojo::internal::InterfacePtrStateBase"* %21, i1 zeroext false, i1 zeroext true, i1 zeroext false, %"class.mojo::MessageReceiver"* nonnull %24, i8* getelementptr inbounds ([0 x i8], [0 x i8]* @_ZN11device_test5mojom10XRTestHook5Name_E, i64 0, i64 0)) #9
  br i1 %25, label %26, label %41

26:                                               ; preds = %20
  %27 = getelementptr inbounds %"class.device::XRTestHookWrapper", %"class.device::XRTestHookWrapper"* %1, i64 0, i32 1, i32 0, i32 0, i32 1, i32 0, i32 0, i32 0
  %28 = bitcast %"class.mojo::InterfaceEndpointClient"** %27 to %"class.mojo::MessageReceiverWithResponder"**
  %29 = load %"class.mojo::MessageReceiverWithResponder"*, %"class.mojo::MessageReceiverWithResponder"** %28, align 8
  %30 = tail call i8* @_Znwm(i64 16) #10
  %31 = bitcast i8* %30 to %"class.device_test::mojom::XRTestHookProxy"*
  tail call void @_ZN11device_test5mojom15XRTestHookProxyC1EPN4mojo28MessageReceiverWithResponderE(%"class.device_test::mojom::XRTestHookProxy"* nonnull %31, %"class.mojo::MessageReceiverWithResponder"* %29) #9
  %32 = ptrtoint i8* %30 to i64
  %33 = load %"class.device_test::mojom::XRTestHookProxy"*, %"class.device_test::mojom::XRTestHookProxy"** %17, align 8
  %34 = bitcast %"class.std::__1::unique_ptr.173"* %16 to i64*
  store i64 %32, i64* %34, align 8
  %35 = icmp eq %"class.device_test::mojom::XRTestHookProxy"* %33, null
  br i1 %35, label %41, label %36

36:                                               ; preds = %26
  %37 = bitcast %"class.device_test::mojom::XRTestHookProxy"* %33 to void (%"class.device_test::mojom::XRTestHookProxy"*)***
  %38 = load void (%"class.device_test::mojom::XRTestHookProxy"*)**, void (%"class.device_test::mojom::XRTestHookProxy"*)*** %37, align 8
  %39 = getelementptr inbounds void (%"class.device_test::mojom::XRTestHookProxy"*)*, void (%"class.device_test::mojom::XRTestHookProxy"*)** %38, i64 1
  %40 = load void (%"class.device_test::mojom::XRTestHookProxy"*)*, void (%"class.device_test::mojom::XRTestHookProxy"*)** %39, align 8
  tail call void %40(%"class.device_test::mojom::XRTestHookProxy"* nonnull %33) #9
  br label %41

41:                                               ; preds = %12, %20, %26, %36
  %42 = load %"class.device_test::mojom::XRTestHookProxy"*, %"class.device_test::mojom::XRTestHookProxy"** %17, align 8
  %43 = call zeroext i1 @_ZN11device_test5mojom15XRTestHookProxy21WaitGetPresentingPoseEPN4mojo9StructPtrINS0_13PoseFrameDataEEE(%"class.device_test::mojom::XRTestHookProxy"* %42, %"class.mojo::StructPtr"* nonnull %3) #9
  %44 = load %"class.device_test::mojom::PoseFrameData"*, %"class.device_test::mojom::PoseFrameData"** %14, align 8
  %45 = icmp eq %"class.device_test::mojom::PoseFrameData"* %44, null
  br i1 %45, label %62, label %46

46:                                               ; preds = %41
  %47 = bitcast %"struct.device::PoseFrameData"* %0 to i8*
  call void @llvm.memset.p0i8.i64(i8* align 4 %47, i8 0, i64 68, i1 false) #9, !alias.scope !10
  %48 = getelementptr inbounds %"class.device_test::mojom::PoseFrameData", %"class.device_test::mojom::PoseFrameData"* %44, i64 0, i32 0, i32 0, i32 0, i32 0, i32 0
  %49 = load i8, i8* %48, align 4, !range !2, !noalias !10
  %50 = icmp eq i8 %49, 0
  %51 = getelementptr inbounds %"struct.device::PoseFrameData", %"struct.device::PoseFrameData"* %0, i64 0, i32 1
  store i8 %49, i8* %51, align 4, !alias.scope !10
  br i1 %50, label %52, label %53

52:                                               ; preds = %46
  store %"class.device_test::mojom::PoseFrameData"* null, %"class.device_test::mojom::PoseFrameData"** %14, align 8
  br label %58

53:                                               ; preds = %46
  %54 = getelementptr inbounds %"class.device_test::mojom::PoseFrameData", %"class.device_test::mojom::PoseFrameData"* %44, i64 0, i32 0, i32 0, i32 0, i32 0, i32 2, i32 0, i32 0
  %55 = getelementptr inbounds %"struct.device::PoseFrameData", %"struct.device::PoseFrameData"* %0, i64 0, i32 0, i64 0
  call void @_ZNK10SkMatrix4411asColMajorfEPf(%class.SkMatrix44* %54, float* %55) #9
  %56 = load %"class.device_test::mojom::PoseFrameData"*, %"class.device_test::mojom::PoseFrameData"** %14, align 8
  store %"class.device_test::mojom::PoseFrameData"* null, %"class.device_test::mojom::PoseFrameData"** %14, align 8
  %57 = icmp eq %"class.device_test::mojom::PoseFrameData"* %56, null
  br i1 %57, label %61, label %58

58:                                               ; preds = %52, %53
  %59 = phi %"class.device_test::mojom::PoseFrameData"* [ %44, %52 ], [ %56, %53 ]
  call void @_ZN11device_test5mojom13PoseFrameDataD1Ev(%"class.device_test::mojom::PoseFrameData"* nonnull %59) #9
  %60 = getelementptr inbounds %"class.device_test::mojom::PoseFrameData", %"class.device_test::mojom::PoseFrameData"* %59, i64 0, i32 0, i32 0, i32 0, i32 0, i32 0
  call void @_ZdlPv(i8* %60) #10
  br label %61

61:                                               ; preds = %53, %58
  call void @llvm.lifetime.end.p0i8(i64 8, i8* nonnull %13) #9
  br label %65

62:                                               ; preds = %41
  call void @llvm.lifetime.end.p0i8(i64 8, i8* nonnull %13) #9
  br label %63

63:                                               ; preds = %8, %62
  %64 = bitcast %"struct.device::PoseFrameData"* %0 to i8*
  call void @llvm.memset.p0i8.i64(i8* align 4 %64, i8 0, i64 68, i1 false)
  br label %65

65:                                               ; preds = %61, %63
  ret void
}

declare zeroext i1 @_ZN11device_test5mojom15XRTestHookProxy21WaitGetPresentingPoseEPN4mojo9StructPtrINS0_13PoseFrameDataEEE(%"class.device_test::mojom::XRTestHookProxy"*, %"class.mojo::StructPtr"*) unnamed_addr #3

; Function Attrs: nounwind ssp uwtable
define hidden void @_ZN6device17XRTestHookWrapper22WaitGetMagicWindowPoseEv(%"struct.device::PoseFrameData"* noalias sret, %"class.device::XRTestHookWrapper"*) unnamed_addr #1 align 2 {
  %3 = alloca %"class.mojo::StructPtr", align 8
  %4 = getelementptr inbounds %"class.device::XRTestHookWrapper", %"class.device::XRTestHookWrapper"* %1, i64 0, i32 1
  %5 = getelementptr inbounds %"class.device::XRTestHookWrapper", %"class.device::XRTestHookWrapper"* %1, i64 0, i32 1, i32 0, i32 0, i32 2, i32 0, i32 0, i32 0
  %6 = load i32, i32* %5, align 4
  %7 = icmp eq i32 %6, 0
  br i1 %7, label %8, label %12

8:                                                ; preds = %2
  %9 = getelementptr inbounds %"class.device::XRTestHookWrapper", %"class.device::XRTestHookWrapper"* %1, i64 0, i32 1, i32 0, i32 0, i32 1, i32 0, i32 0, i32 0
  %10 = load %"class.mojo::InterfaceEndpointClient"*, %"class.mojo::InterfaceEndpointClient"** %9, align 8
  %11 = icmp eq %"class.mojo::InterfaceEndpointClient"* %10, null
  br i1 %11, label %63, label %12

12:                                               ; preds = %8, %2
  %13 = bitcast %"class.mojo::StructPtr"* %3 to i8*
  call void @llvm.lifetime.start.p0i8(i64 8, i8* nonnull %13) #9
  %14 = getelementptr inbounds %"class.mojo::StructPtr", %"class.mojo::StructPtr"* %3, i64 0, i32 0, i32 0, i32 0, i32 0
  %15 = bitcast %"class.mojo::StructPtr"* %3 to i64*
  store i64 0, i64* %15, align 8
  %16 = getelementptr inbounds %"class.device::XRTestHookWrapper", %"class.device::XRTestHookWrapper"* %1, i64 0, i32 1, i32 0, i32 1
  %17 = getelementptr inbounds %"class.std::__1::unique_ptr.173", %"class.std::__1::unique_ptr.173"* %16, i64 0, i32 0, i32 0, i32 0
  %18 = load %"class.device_test::mojom::XRTestHookProxy"*, %"class.device_test::mojom::XRTestHookProxy"** %17, align 8
  %19 = icmp eq %"class.device_test::mojom::XRTestHookProxy"* %18, null
  br i1 %19, label %20, label %41

20:                                               ; preds = %12
  %21 = bitcast %"class.mojo::Remote"* %4 to %"class.mojo::internal::InterfacePtrStateBase"*
  %22 = tail call i8* @_Znwm(i64 8) #10
  %23 = bitcast i8* %22 to i32 (...)***
  store i32 (...)** bitcast (i8** getelementptr inbounds ({ [6 x i8*] }, { [6 x i8*] }* @_ZTVN11device_test5mojom27XRTestHookResponseValidatorE, i64 0, inrange i32 0, i64 2) to i32 (...)**), i32 (...)*** %23, align 8
  %24 = bitcast i8* %22 to %"class.mojo::MessageReceiver"*
  %25 = tail call zeroext i1 @_ZN4mojo8internal21InterfacePtrStateBase24InitializeEndpointClientEbbbNSt3__110unique_ptrINS_15MessageReceiverENS2_14default_deleteIS4_EEEEPKc(%"class.mojo::internal::InterfacePtrStateBase"* %21, i1 zeroext false, i1 zeroext true, i1 zeroext false, %"class.mojo::MessageReceiver"* nonnull %24, i8* getelementptr inbounds ([0 x i8], [0 x i8]* @_ZN11device_test5mojom10XRTestHook5Name_E, i64 0, i64 0)) #9
  br i1 %25, label %26, label %41

26:                                               ; preds = %20
  %27 = getelementptr inbounds %"class.device::XRTestHookWrapper", %"class.device::XRTestHookWrapper"* %1, i64 0, i32 1, i32 0, i32 0, i32 1, i32 0, i32 0, i32 0
  %28 = bitcast %"class.mojo::InterfaceEndpointClient"** %27 to %"class.mojo::MessageReceiverWithResponder"**
  %29 = load %"class.mojo::MessageReceiverWithResponder"*, %"class.mojo::MessageReceiverWithResponder"** %28, align 8
  %30 = tail call i8* @_Znwm(i64 16) #10
  %31 = bitcast i8* %30 to %"class.device_test::mojom::XRTestHookProxy"*
  tail call void @_ZN11device_test5mojom15XRTestHookProxyC1EPN4mojo28MessageReceiverWithResponderE(%"class.device_test::mojom::XRTestHookProxy"* nonnull %31, %"class.mojo::MessageReceiverWithResponder"* %29) #9
  %32 = ptrtoint i8* %30 to i64
  %33 = load %"class.device_test::mojom::XRTestHookProxy"*, %"class.device_test::mojom::XRTestHookProxy"** %17, align 8
  %34 = bitcast %"class.std::__1::unique_ptr.173"* %16 to i64*
  store i64 %32, i64* %34, align 8
  %35 = icmp eq %"class.device_test::mojom::XRTestHookProxy"* %33, null
  br i1 %35, label %41, label %36

36:                                               ; preds = %26
  %37 = bitcast %"class.device_test::mojom::XRTestHookProxy"* %33 to void (%"class.device_test::mojom::XRTestHookProxy"*)***
  %38 = load void (%"class.device_test::mojom::XRTestHookProxy"*)**, void (%"class.device_test::mojom::XRTestHookProxy"*)*** %37, align 8
  %39 = getelementptr inbounds void (%"class.device_test::mojom::XRTestHookProxy"*)*, void (%"class.device_test::mojom::XRTestHookProxy"*)** %38, i64 1
  %40 = load void (%"class.device_test::mojom::XRTestHookProxy"*)*, void (%"class.device_test::mojom::XRTestHookProxy"*)** %39, align 8
  tail call void %40(%"class.device_test::mojom::XRTestHookProxy"* nonnull %33) #9
  br label %41

41:                                               ; preds = %12, %20, %26, %36
  %42 = load %"class.device_test::mojom::XRTestHookProxy"*, %"class.device_test::mojom::XRTestHookProxy"** %17, align 8
  %43 = call zeroext i1 @_ZN11device_test5mojom15XRTestHookProxy22WaitGetMagicWindowPoseEPN4mojo9StructPtrINS0_13PoseFrameDataEEE(%"class.device_test::mojom::XRTestHookProxy"* %42, %"class.mojo::StructPtr"* nonnull %3) #9
  %44 = load %"class.device_test::mojom::PoseFrameData"*, %"class.device_test::mojom::PoseFrameData"** %14, align 8
  %45 = icmp eq %"class.device_test::mojom::PoseFrameData"* %44, null
  br i1 %45, label %62, label %46

46:                                               ; preds = %41
  %47 = bitcast %"struct.device::PoseFrameData"* %0 to i8*
  call void @llvm.memset.p0i8.i64(i8* align 4 %47, i8 0, i64 68, i1 false) #9, !alias.scope !13
  %48 = getelementptr inbounds %"class.device_test::mojom::PoseFrameData", %"class.device_test::mojom::PoseFrameData"* %44, i64 0, i32 0, i32 0, i32 0, i32 0, i32 0
  %49 = load i8, i8* %48, align 4, !range !2, !noalias !13
  %50 = icmp eq i8 %49, 0
  %51 = getelementptr inbounds %"struct.device::PoseFrameData", %"struct.device::PoseFrameData"* %0, i64 0, i32 1
  store i8 %49, i8* %51, align 4, !alias.scope !13
  br i1 %50, label %52, label %53

52:                                               ; preds = %46
  store %"class.device_test::mojom::PoseFrameData"* null, %"class.device_test::mojom::PoseFrameData"** %14, align 8
  br label %58

53:                                               ; preds = %46
  %54 = getelementptr inbounds %"class.device_test::mojom::PoseFrameData", %"class.device_test::mojom::PoseFrameData"* %44, i64 0, i32 0, i32 0, i32 0, i32 0, i32 2, i32 0, i32 0
  %55 = getelementptr inbounds %"struct.device::PoseFrameData", %"struct.device::PoseFrameData"* %0, i64 0, i32 0, i64 0
  call void @_ZNK10SkMatrix4411asColMajorfEPf(%class.SkMatrix44* %54, float* %55) #9
  %56 = load %"class.device_test::mojom::PoseFrameData"*, %"class.device_test::mojom::PoseFrameData"** %14, align 8
  store %"class.device_test::mojom::PoseFrameData"* null, %"class.device_test::mojom::PoseFrameData"** %14, align 8
  %57 = icmp eq %"class.device_test::mojom::PoseFrameData"* %56, null
  br i1 %57, label %61, label %58

58:                                               ; preds = %52, %53
  %59 = phi %"class.device_test::mojom::PoseFrameData"* [ %44, %52 ], [ %56, %53 ]
  call void @_ZN11device_test5mojom13PoseFrameDataD1Ev(%"class.device_test::mojom::PoseFrameData"* nonnull %59) #9
  %60 = getelementptr inbounds %"class.device_test::mojom::PoseFrameData", %"class.device_test::mojom::PoseFrameData"* %59, i64 0, i32 0, i32 0, i32 0, i32 0, i32 0
  call void @_ZdlPv(i8* %60) #10
  br label %61

61:                                               ; preds = %53, %58
  call void @llvm.lifetime.end.p0i8(i64 8, i8* nonnull %13) #9
  br label %65

62:                                               ; preds = %41
  call void @llvm.lifetime.end.p0i8(i64 8, i8* nonnull %13) #9
  br label %63

63:                                               ; preds = %8, %62
  %64 = bitcast %"struct.device::PoseFrameData"* %0 to i8*
  call void @llvm.memset.p0i8.i64(i8* align 4 %64, i8 0, i64 68, i1 false)
  br label %65

65:                                               ; preds = %61, %63
  ret void
}

declare zeroext i1 @_ZN11device_test5mojom15XRTestHookProxy22WaitGetMagicWindowPoseEPN4mojo9StructPtrINS0_13PoseFrameDataEEE(%"class.device_test::mojom::XRTestHookProxy"*, %"class.mojo::StructPtr"*) unnamed_addr #3

; Function Attrs: nounwind ssp uwtable
define hidden i32 @_ZN6device17XRTestHookWrapper42WaitGetControllerRoleForTrackedDeviceIndexEj(%"class.device::XRTestHookWrapper"*, i32) unnamed_addr #1 align 2 {
  %3 = alloca i32, align 4
  %4 = getelementptr inbounds %"class.device::XRTestHookWrapper", %"class.device::XRTestHookWrapper"* %0, i64 0, i32 1
  %5 = getelementptr inbounds %"class.device::XRTestHookWrapper", %"class.device::XRTestHookWrapper"* %0, i64 0, i32 1, i32 0, i32 0, i32 2, i32 0, i32 0, i32 0
  %6 = load i32, i32* %5, align 4
  %7 = icmp eq i32 %6, 0
  br i1 %7, label %8, label %12

8:                                                ; preds = %2
  %9 = getelementptr inbounds %"class.device::XRTestHookWrapper", %"class.device::XRTestHookWrapper"* %0, i64 0, i32 1, i32 0, i32 0, i32 1, i32 0, i32 0, i32 0
  %10 = load %"class.mojo::InterfaceEndpointClient"*, %"class.mojo::InterfaceEndpointClient"** %9, align 8
  %11 = icmp eq %"class.mojo::InterfaceEndpointClient"* %10, null
  br i1 %11, label %46, label %12

12:                                               ; preds = %8, %2
  %13 = bitcast i32* %3 to i8*
  call void @llvm.lifetime.start.p0i8(i64 4, i8* nonnull %13) #9
  store i32 -1431655766, i32* %3, align 4
  %14 = getelementptr inbounds %"class.device::XRTestHookWrapper", %"class.device::XRTestHookWrapper"* %0, i64 0, i32 1, i32 0, i32 1
  %15 = getelementptr inbounds %"class.std::__1::unique_ptr.173", %"class.std::__1::unique_ptr.173"* %14, i64 0, i32 0, i32 0, i32 0
  %16 = load %"class.device_test::mojom::XRTestHookProxy"*, %"class.device_test::mojom::XRTestHookProxy"** %15, align 8
  %17 = icmp eq %"class.device_test::mojom::XRTestHookProxy"* %16, null
  br i1 %17, label %18, label %39

18:                                               ; preds = %12
  %19 = bitcast %"class.mojo::Remote"* %4 to %"class.mojo::internal::InterfacePtrStateBase"*
  %20 = tail call i8* @_Znwm(i64 8) #10
  %21 = bitcast i8* %20 to i32 (...)***
  store i32 (...)** bitcast (i8** getelementptr inbounds ({ [6 x i8*] }, { [6 x i8*] }* @_ZTVN11device_test5mojom27XRTestHookResponseValidatorE, i64 0, inrange i32 0, i64 2) to i32 (...)**), i32 (...)*** %21, align 8
  %22 = bitcast i8* %20 to %"class.mojo::MessageReceiver"*
  %23 = tail call zeroext i1 @_ZN4mojo8internal21InterfacePtrStateBase24InitializeEndpointClientEbbbNSt3__110unique_ptrINS_15MessageReceiverENS2_14default_deleteIS4_EEEEPKc(%"class.mojo::internal::InterfacePtrStateBase"* %19, i1 zeroext false, i1 zeroext true, i1 zeroext false, %"class.mojo::MessageReceiver"* nonnull %22, i8* getelementptr inbounds ([0 x i8], [0 x i8]* @_ZN11device_test5mojom10XRTestHook5Name_E, i64 0, i64 0)) #9
  br i1 %23, label %24, label %39

24:                                               ; preds = %18
  %25 = getelementptr inbounds %"class.device::XRTestHookWrapper", %"class.device::XRTestHookWrapper"* %0, i64 0, i32 1, i32 0, i32 0, i32 1, i32 0, i32 0, i32 0
  %26 = bitcast %"class.mojo::InterfaceEndpointClient"** %25 to %"class.mojo::MessageReceiverWithResponder"**
  %27 = load %"class.mojo::MessageReceiverWithResponder"*, %"class.mojo::MessageReceiverWithResponder"** %26, align 8
  %28 = tail call i8* @_Znwm(i64 16) #10
  %29 = bitcast i8* %28 to %"class.device_test::mojom::XRTestHookProxy"*
  tail call void @_ZN11device_test5mojom15XRTestHookProxyC1EPN4mojo28MessageReceiverWithResponderE(%"class.device_test::mojom::XRTestHookProxy"* nonnull %29, %"class.mojo::MessageReceiverWithResponder"* %27) #9
  %30 = ptrtoint i8* %28 to i64
  %31 = load %"class.device_test::mojom::XRTestHookProxy"*, %"class.device_test::mojom::XRTestHookProxy"** %15, align 8
  %32 = bitcast %"class.std::__1::unique_ptr.173"* %14 to i64*
  store i64 %30, i64* %32, align 8
  %33 = icmp eq %"class.device_test::mojom::XRTestHookProxy"* %31, null
  br i1 %33, label %39, label %34

34:                                               ; preds = %24
  %35 = bitcast %"class.device_test::mojom::XRTestHookProxy"* %31 to void (%"class.device_test::mojom::XRTestHookProxy"*)***
  %36 = load void (%"class.device_test::mojom::XRTestHookProxy"*)**, void (%"class.device_test::mojom::XRTestHookProxy"*)*** %35, align 8
  %37 = getelementptr inbounds void (%"class.device_test::mojom::XRTestHookProxy"*)*, void (%"class.device_test::mojom::XRTestHookProxy"*)** %36, i64 1
  %38 = load void (%"class.device_test::mojom::XRTestHookProxy"*)*, void (%"class.device_test::mojom::XRTestHookProxy"*)** %37, align 8
  tail call void %38(%"class.device_test::mojom::XRTestHookProxy"* nonnull %31) #9
  br label %39

39:                                               ; preds = %12, %18, %24, %34
  %40 = load %"class.device_test::mojom::XRTestHookProxy"*, %"class.device_test::mojom::XRTestHookProxy"** %15, align 8
  %41 = call zeroext i1 @_ZN11device_test5mojom15XRTestHookProxy42WaitGetControllerRoleForTrackedDeviceIndexEjPNS0_14ControllerRoleE(%"class.device_test::mojom::XRTestHookProxy"* %40, i32 %1, i32* nonnull %3) #9
  %42 = load i32, i32* %3, align 4
  %43 = add i32 %42, -1
  %44 = icmp ult i32 %43, 3
  %45 = select i1 %44, i32 %42, i32 0
  call void @llvm.lifetime.end.p0i8(i64 4, i8* nonnull %13) #9
  br label %46

46:                                               ; preds = %8, %39
  %47 = phi i32 [ %45, %39 ], [ 0, %8 ]
  ret i32 %47
}

declare zeroext i1 @_ZN11device_test5mojom15XRTestHookProxy42WaitGetControllerRoleForTrackedDeviceIndexEjPNS0_14ControllerRoleE(%"class.device_test::mojom::XRTestHookProxy"*, i32, i32*) unnamed_addr #3

; Function Attrs: nounwind ssp uwtable
define hidden i32 @_ZN6device17XRTestHookWrapper25WaitGetTrackedDeviceClassEj(%"class.device::XRTestHookWrapper"*, i32) unnamed_addr #1 align 2 {
  %3 = alloca i32, align 4
  %4 = getelementptr inbounds %"class.device::XRTestHookWrapper", %"class.device::XRTestHookWrapper"* %0, i64 0, i32 1
  %5 = getelementptr inbounds %"class.device::XRTestHookWrapper", %"class.device::XRTestHookWrapper"* %0, i64 0, i32 1, i32 0, i32 0, i32 2, i32 0, i32 0, i32 0
  %6 = load i32, i32* %5, align 4
  %7 = icmp eq i32 %6, 0
  br i1 %7, label %8, label %12

8:                                                ; preds = %2
  %9 = getelementptr inbounds %"class.device::XRTestHookWrapper", %"class.device::XRTestHookWrapper"* %0, i64 0, i32 1, i32 0, i32 0, i32 1, i32 0, i32 0, i32 0
  %10 = load %"class.mojo::InterfaceEndpointClient"*, %"class.mojo::InterfaceEndpointClient"** %9, align 8
  %11 = icmp eq %"class.mojo::InterfaceEndpointClient"* %10, null
  br i1 %11, label %45, label %12

12:                                               ; preds = %8, %2
  %13 = bitcast i32* %3 to i8*
  call void @llvm.lifetime.start.p0i8(i64 4, i8* nonnull %13) #9
  store i32 -1431655766, i32* %3, align 4
  %14 = getelementptr inbounds %"class.device::XRTestHookWrapper", %"class.device::XRTestHookWrapper"* %0, i64 0, i32 1, i32 0, i32 1
  %15 = getelementptr inbounds %"class.std::__1::unique_ptr.173", %"class.std::__1::unique_ptr.173"* %14, i64 0, i32 0, i32 0, i32 0
  %16 = load %"class.device_test::mojom::XRTestHookProxy"*, %"class.device_test::mojom::XRTestHookProxy"** %15, align 8
  %17 = icmp eq %"class.device_test::mojom::XRTestHookProxy"* %16, null
  br i1 %17, label %18, label %39

18:                                               ; preds = %12
  %19 = bitcast %"class.mojo::Remote"* %4 to %"class.mojo::internal::InterfacePtrStateBase"*
  %20 = tail call i8* @_Znwm(i64 8) #10
  %21 = bitcast i8* %20 to i32 (...)***
  store i32 (...)** bitcast (i8** getelementptr inbounds ({ [6 x i8*] }, { [6 x i8*] }* @_ZTVN11device_test5mojom27XRTestHookResponseValidatorE, i64 0, inrange i32 0, i64 2) to i32 (...)**), i32 (...)*** %21, align 8
  %22 = bitcast i8* %20 to %"class.mojo::MessageReceiver"*
  %23 = tail call zeroext i1 @_ZN4mojo8internal21InterfacePtrStateBase24InitializeEndpointClientEbbbNSt3__110unique_ptrINS_15MessageReceiverENS2_14default_deleteIS4_EEEEPKc(%"class.mojo::internal::InterfacePtrStateBase"* %19, i1 zeroext false, i1 zeroext true, i1 zeroext false, %"class.mojo::MessageReceiver"* nonnull %22, i8* getelementptr inbounds ([0 x i8], [0 x i8]* @_ZN11device_test5mojom10XRTestHook5Name_E, i64 0, i64 0)) #9
  br i1 %23, label %24, label %39

24:                                               ; preds = %18
  %25 = getelementptr inbounds %"class.device::XRTestHookWrapper", %"class.device::XRTestHookWrapper"* %0, i64 0, i32 1, i32 0, i32 0, i32 1, i32 0, i32 0, i32 0
  %26 = bitcast %"class.mojo::InterfaceEndpointClient"** %25 to %"class.mojo::MessageReceiverWithResponder"**
  %27 = load %"class.mojo::MessageReceiverWithResponder"*, %"class.mojo::MessageReceiverWithResponder"** %26, align 8
  %28 = tail call i8* @_Znwm(i64 16) #10
  %29 = bitcast i8* %28 to %"class.device_test::mojom::XRTestHookProxy"*
  tail call void @_ZN11device_test5mojom15XRTestHookProxyC1EPN4mojo28MessageReceiverWithResponderE(%"class.device_test::mojom::XRTestHookProxy"* nonnull %29, %"class.mojo::MessageReceiverWithResponder"* %27) #9
  %30 = ptrtoint i8* %28 to i64
  %31 = load %"class.device_test::mojom::XRTestHookProxy"*, %"class.device_test::mojom::XRTestHookProxy"** %15, align 8
  %32 = bitcast %"class.std::__1::unique_ptr.173"* %14 to i64*
  store i64 %30, i64* %32, align 8
  %33 = icmp eq %"class.device_test::mojom::XRTestHookProxy"* %31, null
  br i1 %33, label %39, label %34

34:                                               ; preds = %24
  %35 = bitcast %"class.device_test::mojom::XRTestHookProxy"* %31 to void (%"class.device_test::mojom::XRTestHookProxy"*)***
  %36 = load void (%"class.device_test::mojom::XRTestHookProxy"*)**, void (%"class.device_test::mojom::XRTestHookProxy"*)*** %35, align 8
  %37 = getelementptr inbounds void (%"class.device_test::mojom::XRTestHookProxy"*)*, void (%"class.device_test::mojom::XRTestHookProxy"*)** %36, i64 1
  %38 = load void (%"class.device_test::mojom::XRTestHookProxy"*)*, void (%"class.device_test::mojom::XRTestHookProxy"*)** %37, align 8
  tail call void %38(%"class.device_test::mojom::XRTestHookProxy"* nonnull %31) #9
  br label %39

39:                                               ; preds = %12, %18, %24, %34
  %40 = load %"class.device_test::mojom::XRTestHookProxy"*, %"class.device_test::mojom::XRTestHookProxy"** %15, align 8
  %41 = call zeroext i1 @_ZN11device_test5mojom15XRTestHookProxy25WaitGetTrackedDeviceClassEjPNS0_18TrackedDeviceClassE(%"class.device_test::mojom::XRTestHookProxy"* %40, i32 %1, i32* nonnull %3) #9
  %42 = load i32, i32* %3, align 4
  %43 = icmp ult i32 %42, 6
  %44 = select i1 %43, i32 %42, i32 0
  call void @llvm.lifetime.end.p0i8(i64 4, i8* nonnull %13) #9
  br label %45

45:                                               ; preds = %39, %8
  %46 = phi i32 [ 0, %8 ], [ %44, %39 ]
  ret i32 %46
}

declare zeroext i1 @_ZN11device_test5mojom15XRTestHookProxy25WaitGetTrackedDeviceClassEjPNS0_18TrackedDeviceClassE(%"class.device_test::mojom::XRTestHookProxy"*, i32, i32*) unnamed_addr #3

; Function Attrs: nounwind ssp uwtable
define hidden void @_ZN6device17XRTestHookWrapper21WaitGetControllerDataEj(%"struct.device::ControllerFrameData"* noalias sret, %"class.device::XRTestHookWrapper"*, i32) unnamed_addr #1 align 2 {
  %4 = alloca %"class.mojo::StructPtr.201", align 8
  %5 = alloca %"struct.device::PoseFrameData", align 4
  %6 = getelementptr inbounds %"class.device::XRTestHookWrapper", %"class.device::XRTestHookWrapper"* %1, i64 0, i32 1
  %7 = getelementptr inbounds %"class.device::XRTestHookWrapper", %"class.device::XRTestHookWrapper"* %1, i64 0, i32 1, i32 0, i32 0, i32 2, i32 0, i32 0, i32 0
  %8 = load i32, i32* %7, align 4
  %9 = icmp eq i32 %8, 0
  br i1 %9, label %10, label %14

10:                                               ; preds = %3
  %11 = getelementptr inbounds %"class.device::XRTestHookWrapper", %"class.device::XRTestHookWrapper"* %1, i64 0, i32 1, i32 0, i32 0, i32 1, i32 0, i32 0, i32 0
  %12 = load %"class.mojo::InterfaceEndpointClient"*, %"class.mojo::InterfaceEndpointClient"** %11, align 8
  %13 = icmp eq %"class.mojo::InterfaceEndpointClient"* %12, null
  br i1 %13, label %174, label %14

14:                                               ; preds = %10, %3
  %15 = bitcast %"class.mojo::StructPtr.201"* %4 to i8*
  call void @llvm.lifetime.start.p0i8(i64 8, i8* nonnull %15) #9
  %16 = getelementptr inbounds %"class.mojo::StructPtr.201", %"class.mojo::StructPtr.201"* %4, i64 0, i32 0, i32 0, i32 0, i32 0
  %17 = bitcast %"class.mojo::StructPtr.201"* %4 to i64*
  store i64 0, i64* %17, align 8
  %18 = getelementptr inbounds %"class.device::XRTestHookWrapper", %"class.device::XRTestHookWrapper"* %1, i64 0, i32 1, i32 0, i32 1
  %19 = getelementptr inbounds %"class.std::__1::unique_ptr.173", %"class.std::__1::unique_ptr.173"* %18, i64 0, i32 0, i32 0, i32 0
  %20 = load %"class.device_test::mojom::XRTestHookProxy"*, %"class.device_test::mojom::XRTestHookProxy"** %19, align 8
  %21 = icmp eq %"class.device_test::mojom::XRTestHookProxy"* %20, null
  br i1 %21, label %22, label %43

22:                                               ; preds = %14
  %23 = bitcast %"class.mojo::Remote"* %6 to %"class.mojo::internal::InterfacePtrStateBase"*
  %24 = tail call i8* @_Znwm(i64 8) #10
  %25 = bitcast i8* %24 to i32 (...)***
  store i32 (...)** bitcast (i8** getelementptr inbounds ({ [6 x i8*] }, { [6 x i8*] }* @_ZTVN11device_test5mojom27XRTestHookResponseValidatorE, i64 0, inrange i32 0, i64 2) to i32 (...)**), i32 (...)*** %25, align 8
  %26 = bitcast i8* %24 to %"class.mojo::MessageReceiver"*
  %27 = tail call zeroext i1 @_ZN4mojo8internal21InterfacePtrStateBase24InitializeEndpointClientEbbbNSt3__110unique_ptrINS_15MessageReceiverENS2_14default_deleteIS4_EEEEPKc(%"class.mojo::internal::InterfacePtrStateBase"* %23, i1 zeroext false, i1 zeroext true, i1 zeroext false, %"class.mojo::MessageReceiver"* nonnull %26, i8* getelementptr inbounds ([0 x i8], [0 x i8]* @_ZN11device_test5mojom10XRTestHook5Name_E, i64 0, i64 0)) #9
  br i1 %27, label %28, label %43

28:                                               ; preds = %22
  %29 = getelementptr inbounds %"class.device::XRTestHookWrapper", %"class.device::XRTestHookWrapper"* %1, i64 0, i32 1, i32 0, i32 0, i32 1, i32 0, i32 0, i32 0
  %30 = bitcast %"class.mojo::InterfaceEndpointClient"** %29 to %"class.mojo::MessageReceiverWithResponder"**
  %31 = load %"class.mojo::MessageReceiverWithResponder"*, %"class.mojo::MessageReceiverWithResponder"** %30, align 8
  %32 = tail call i8* @_Znwm(i64 16) #10
  %33 = bitcast i8* %32 to %"class.device_test::mojom::XRTestHookProxy"*
  tail call void @_ZN11device_test5mojom15XRTestHookProxyC1EPN4mojo28MessageReceiverWithResponderE(%"class.device_test::mojom::XRTestHookProxy"* nonnull %33, %"class.mojo::MessageReceiverWithResponder"* %31) #9
  %34 = ptrtoint i8* %32 to i64
  %35 = load %"class.device_test::mojom::XRTestHookProxy"*, %"class.device_test::mojom::XRTestHookProxy"** %19, align 8
  %36 = bitcast %"class.std::__1::unique_ptr.173"* %18 to i64*
  store i64 %34, i64* %36, align 8
  %37 = icmp eq %"class.device_test::mojom::XRTestHookProxy"* %35, null
  br i1 %37, label %43, label %38

38:                                               ; preds = %28
  %39 = bitcast %"class.device_test::mojom::XRTestHookProxy"* %35 to void (%"class.device_test::mojom::XRTestHookProxy"*)***
  %40 = load void (%"class.device_test::mojom::XRTestHookProxy"*)**, void (%"class.device_test::mojom::XRTestHookProxy"*)*** %39, align 8
  %41 = getelementptr inbounds void (%"class.device_test::mojom::XRTestHookProxy"*)*, void (%"class.device_test::mojom::XRTestHookProxy"*)** %40, i64 1
  %42 = load void (%"class.device_test::mojom::XRTestHookProxy"*)*, void (%"class.device_test::mojom::XRTestHookProxy"*)** %41, align 8
  tail call void %42(%"class.device_test::mojom::XRTestHookProxy"* nonnull %35) #9
  br label %43

43:                                               ; preds = %14, %22, %28, %38
  %44 = load %"class.device_test::mojom::XRTestHookProxy"*, %"class.device_test::mojom::XRTestHookProxy"** %19, align 8
  %45 = call zeroext i1 @_ZN11device_test5mojom15XRTestHookProxy21WaitGetControllerDataEjPN4mojo9StructPtrINS0_19ControllerFrameDataEEE(%"class.device_test::mojom::XRTestHookProxy"* %44, i32 %2, %"class.mojo::StructPtr.201"* nonnull %4) #9
  %46 = load %"class.device_test::mojom::ControllerFrameData"*, %"class.device_test::mojom::ControllerFrameData"** %16, align 8
  %47 = icmp eq %"class.device_test::mojom::ControllerFrameData"* %46, null
  br i1 %47, label %173, label %48

48:                                               ; preds = %43
  %49 = bitcast %"struct.device::ControllerFrameData"* %0 to i8*
  call void @llvm.memcpy.p0i8.p0i8.i64(i8* align 8 %49, i8* align 8 bitcast (<{ i32, [4 x i8], i64, i64, i64, [5 x %"struct.device::ControllerAxisData"], { [16 x float], i8, [3 x i8] }, i32, i8, [3 x i8] }>* @__const._ZN6device17XRTestHookWrapper21WaitGetControllerDataEj.ret to i8*), i64 168, i1 false)
  %50 = getelementptr inbounds %"struct.device::ControllerFrameData", %"struct.device::ControllerFrameData"* %0, i64 0, i32 0
  store i32 0, i32* %50, align 8
  %51 = getelementptr inbounds %"struct.device::ControllerFrameData", %"struct.device::ControllerFrameData"* %0, i64 0, i32 2
  %52 = getelementptr inbounds %"struct.device::ControllerFrameData", %"struct.device::ControllerFrameData"* %0, i64 0, i32 3
  %53 = getelementptr inbounds %"struct.device::ControllerFrameData", %"struct.device::ControllerFrameData"* %0, i64 0, i32 4
  %54 = getelementptr %"struct.device::ControllerFrameData", %"struct.device::ControllerFrameData"* %0, i64 0, i32 5, i64 0
  %55 = getelementptr inbounds %"struct.device::ControllerFrameData", %"struct.device::ControllerFrameData"* %0, i64 0, i32 6
  %56 = bitcast %"struct.device::PoseFrameData"* %55 to i8*
  %57 = getelementptr inbounds %"struct.device::ControllerFrameData", %"struct.device::ControllerFrameData"* %0, i64 0, i32 7
  store i32 0, i32* %57, align 8
  %58 = getelementptr inbounds %"struct.device::ControllerFrameData", %"struct.device::ControllerFrameData"* %0, i64 0, i32 8
  store i8 0, i8* %58, align 4
  %59 = getelementptr inbounds %"class.device_test::mojom::ControllerFrameData", %"class.device_test::mojom::ControllerFrameData"* %46, i64 0, i32 0
  %60 = bitcast i64* %51 to i8*
  call void @llvm.memset.p0i8.i64(i8* align 8 %60, i8 0, i64 149, i1 false)
  %61 = load i32, i32* %59, align 8
  store i32 %61, i32* %50, align 8
  %62 = getelementptr inbounds %"class.device_test::mojom::ControllerFrameData", %"class.device_test::mojom::ControllerFrameData"* %46, i64 0, i32 2
  %63 = load i64, i64* %62, align 8
  store i64 %63, i64* %51, align 8
  %64 = getelementptr inbounds %"class.device_test::mojom::ControllerFrameData", %"class.device_test::mojom::ControllerFrameData"* %46, i64 0, i32 3
  %65 = load i64, i64* %64, align 8
  store i64 %65, i64* %52, align 8
  %66 = getelementptr inbounds %"class.device_test::mojom::ControllerFrameData", %"class.device_test::mojom::ControllerFrameData"* %46, i64 0, i32 4
  %67 = load i64, i64* %66, align 8
  store i64 %67, i64* %53, align 8
  %68 = bitcast %"struct.device::PoseFrameData"* %5 to i8*
  call void @llvm.lifetime.start.p0i8(i64 68, i8* nonnull %68) #9
  call void @llvm.memset.p0i8.i64(i8* nonnull align 4 %68, i8 0, i64 68, i1 false) #9, !alias.scope !16
  %69 = getelementptr inbounds %"class.device_test::mojom::ControllerFrameData", %"class.device_test::mojom::ControllerFrameData"* %46, i64 0, i32 6, i32 0, i32 0, i32 0, i32 0
  %70 = load %"class.device_test::mojom::PoseFrameData"*, %"class.device_test::mojom::PoseFrameData"** %69, align 8, !noalias !16
  %71 = getelementptr inbounds %"class.device_test::mojom::PoseFrameData", %"class.device_test::mojom::PoseFrameData"* %70, i64 0, i32 0, i32 0, i32 0, i32 0, i32 0
  %72 = load i8, i8* %71, align 4, !range !2, !noalias !16
  %73 = icmp eq i8 %72, 0
  %74 = getelementptr inbounds %"struct.device::PoseFrameData", %"struct.device::PoseFrameData"* %5, i64 0, i32 1
  store i8 %72, i8* %74, align 4, !alias.scope !16
  br i1 %73, label %79, label %75

75:                                               ; preds = %48
  %76 = getelementptr inbounds %"class.device_test::mojom::PoseFrameData", %"class.device_test::mojom::PoseFrameData"* %70, i64 0, i32 0, i32 0, i32 0, i32 0, i32 2, i32 0, i32 0
  %77 = getelementptr inbounds %"struct.device::PoseFrameData", %"struct.device::PoseFrameData"* %5, i64 0, i32 0, i64 0
  call void @_ZNK10SkMatrix4411asColMajorfEPf(%class.SkMatrix44* %76, float* nonnull %77) #9
  %78 = load %"class.device_test::mojom::ControllerFrameData"*, %"class.device_test::mojom::ControllerFrameData"** %16, align 8
  br label %79

79:                                               ; preds = %48, %75
  %80 = phi %"class.device_test::mojom::ControllerFrameData"* [ %46, %48 ], [ %78, %75 ]
  call void @llvm.memcpy.p0i8.p0i8.i64(i8* align 4 %56, i8* nonnull align 4 %68, i64 68, i1 false)
  call void @llvm.lifetime.end.p0i8(i64 68, i8* nonnull %68) #9
  %81 = getelementptr inbounds %"class.device_test::mojom::ControllerFrameData", %"class.device_test::mojom::ControllerFrameData"* %80, i64 0, i32 7
  %82 = load i32, i32* %81, align 8
  %83 = add i32 %82, -1
  %84 = icmp ult i32 %83, 3
  %85 = select i1 %84, i32 %82, i32 0
  store i32 %85, i32* %57, align 8
  %86 = getelementptr inbounds %"class.device_test::mojom::ControllerFrameData", %"class.device_test::mojom::ControllerFrameData"* %80, i64 0, i32 8
  %87 = load i8, i8* %86, align 4, !range !2
  store i8 %87, i8* %58, align 4
  %88 = getelementptr inbounds %"class.device_test::mojom::ControllerFrameData", %"class.device_test::mojom::ControllerFrameData"* %80, i64 0, i32 5, i32 0, i32 0
  %89 = bitcast %"class.mojo::InlinedStructPtr.205"** %88 to i32**
  %90 = load i32*, i32** %89, align 8
  %91 = load i32, i32* %90, align 4
  %92 = bitcast %"struct.device::ControllerAxisData"* %54 to i32*
  store i32 %91, i32* %92, align 4
  %93 = load %"class.mojo::InlinedStructPtr.205"*, %"class.mojo::InlinedStructPtr.205"** %88, align 8
  %94 = getelementptr inbounds %"class.mojo::InlinedStructPtr.205", %"class.mojo::InlinedStructPtr.205"* %93, i64 0, i32 0, i32 1
  %95 = bitcast float* %94 to i32*
  %96 = load i32, i32* %95, align 4
  %97 = getelementptr inbounds %"struct.device::ControllerFrameData", %"struct.device::ControllerFrameData"* %0, i64 0, i32 5, i64 0, i32 1
  %98 = bitcast float* %97 to i32*
  store i32 %96, i32* %98, align 4
  %99 = load %"class.mojo::InlinedStructPtr.205"*, %"class.mojo::InlinedStructPtr.205"** %88, align 8
  %100 = getelementptr inbounds %"class.mojo::InlinedStructPtr.205", %"class.mojo::InlinedStructPtr.205"* %99, i64 0, i32 0, i32 2
  %101 = load i8, i8* %100, align 4
  %102 = zext i8 %101 to i32
  %103 = getelementptr inbounds %"struct.device::ControllerFrameData", %"struct.device::ControllerFrameData"* %0, i64 0, i32 5, i64 0, i32 2
  store i32 %102, i32* %103, align 4
  %104 = load %"class.mojo::InlinedStructPtr.205"*, %"class.mojo::InlinedStructPtr.205"** %88, align 8
  %105 = getelementptr inbounds %"class.mojo::InlinedStructPtr.205", %"class.mojo::InlinedStructPtr.205"* %104, i64 1, i32 0
  %106 = bitcast %"class.device_test::mojom::ControllerAxisData"* %105 to i32*
  %107 = load i32, i32* %106, align 4
  %108 = getelementptr inbounds %"struct.device::ControllerFrameData", %"struct.device::ControllerFrameData"* %0, i64 0, i32 5, i64 1
  %109 = bitcast %"struct.device::ControllerAxisData"* %108 to i32*
  store i32 %107, i32* %109, align 4
  %110 = load %"class.mojo::InlinedStructPtr.205"*, %"class.mojo::InlinedStructPtr.205"** %88, align 8
  %111 = getelementptr inbounds %"class.mojo::InlinedStructPtr.205", %"class.mojo::InlinedStructPtr.205"* %110, i64 1, i32 0, i32 1
  %112 = bitcast float* %111 to i32*
  %113 = load i32, i32* %112, align 4
  %114 = getelementptr inbounds %"struct.device::ControllerFrameData", %"struct.device::ControllerFrameData"* %0, i64 0, i32 5, i64 1, i32 1
  %115 = bitcast float* %114 to i32*
  store i32 %113, i32* %115, align 4
  %116 = load %"class.mojo::InlinedStructPtr.205"*, %"class.mojo::InlinedStructPtr.205"** %88, align 8
  %117 = getelementptr inbounds %"class.mojo::InlinedStructPtr.205", %"class.mojo::InlinedStructPtr.205"* %116, i64 1, i32 0, i32 2
  %118 = load i8, i8* %117, align 4
  %119 = zext i8 %118 to i32
  %120 = getelementptr inbounds %"struct.device::ControllerFrameData", %"struct.device::ControllerFrameData"* %0, i64 0, i32 5, i64 1, i32 2
  store i32 %119, i32* %120, align 4
  %121 = load %"class.mojo::InlinedStructPtr.205"*, %"class.mojo::InlinedStructPtr.205"** %88, align 8
  %122 = getelementptr inbounds %"class.mojo::InlinedStructPtr.205", %"class.mojo::InlinedStructPtr.205"* %121, i64 2, i32 0
  %123 = bitcast %"class.device_test::mojom::ControllerAxisData"* %122 to i32*
  %124 = load i32, i32* %123, align 4
  %125 = getelementptr inbounds %"struct.device::ControllerFrameData", %"struct.device::ControllerFrameData"* %0, i64 0, i32 5, i64 2
  %126 = bitcast %"struct.device::ControllerAxisData"* %125 to i32*
  store i32 %124, i32* %126, align 4
  %127 = load %"class.mojo::InlinedStructPtr.205"*, %"class.mojo::InlinedStructPtr.205"** %88, align 8
  %128 = getelementptr inbounds %"class.mojo::InlinedStructPtr.205", %"class.mojo::InlinedStructPtr.205"* %127, i64 2, i32 0, i32 1
  %129 = bitcast float* %128 to i32*
  %130 = load i32, i32* %129, align 4
  %131 = getelementptr inbounds %"struct.device::ControllerFrameData", %"struct.device::ControllerFrameData"* %0, i64 0, i32 5, i64 2, i32 1
  %132 = bitcast float* %131 to i32*
  store i32 %130, i32* %132, align 4
  %133 = load %"class.mojo::InlinedStructPtr.205"*, %"class.mojo::InlinedStructPtr.205"** %88, align 8
  %134 = getelementptr inbounds %"class.mojo::InlinedStructPtr.205", %"class.mojo::InlinedStructPtr.205"* %133, i64 2, i32 0, i32 2
  %135 = load i8, i8* %134, align 4
  %136 = zext i8 %135 to i32
  %137 = getelementptr inbounds %"struct.device::ControllerFrameData", %"struct.device::ControllerFrameData"* %0, i64 0, i32 5, i64 2, i32 2
  store i32 %136, i32* %137, align 4
  %138 = load %"class.mojo::InlinedStructPtr.205"*, %"class.mojo::InlinedStructPtr.205"** %88, align 8
  %139 = getelementptr inbounds %"class.mojo::InlinedStructPtr.205", %"class.mojo::InlinedStructPtr.205"* %138, i64 3, i32 0
  %140 = bitcast %"class.device_test::mojom::ControllerAxisData"* %139 to i32*
  %141 = load i32, i32* %140, align 4
  %142 = getelementptr inbounds %"struct.device::ControllerFrameData", %"struct.device::ControllerFrameData"* %0, i64 0, i32 5, i64 3
  %143 = bitcast %"struct.device::ControllerAxisData"* %142 to i32*
  store i32 %141, i32* %143, align 4
  %144 = load %"class.mojo::InlinedStructPtr.205"*, %"class.mojo::InlinedStructPtr.205"** %88, align 8
  %145 = getelementptr inbounds %"class.mojo::InlinedStructPtr.205", %"class.mojo::InlinedStructPtr.205"* %144, i64 3, i32 0, i32 1
  %146 = bitcast float* %145 to i32*
  %147 = load i32, i32* %146, align 4
  %148 = getelementptr inbounds %"struct.device::ControllerFrameData", %"struct.device::ControllerFrameData"* %0, i64 0, i32 5, i64 3, i32 1
  %149 = bitcast float* %148 to i32*
  store i32 %147, i32* %149, align 4
  %150 = load %"class.mojo::InlinedStructPtr.205"*, %"class.mojo::InlinedStructPtr.205"** %88, align 8
  %151 = getelementptr inbounds %"class.mojo::InlinedStructPtr.205", %"class.mojo::InlinedStructPtr.205"* %150, i64 3, i32 0, i32 2
  %152 = load i8, i8* %151, align 4
  %153 = zext i8 %152 to i32
  %154 = getelementptr inbounds %"struct.device::ControllerFrameData", %"struct.device::ControllerFrameData"* %0, i64 0, i32 5, i64 3, i32 2
  store i32 %153, i32* %154, align 4
  %155 = load %"class.mojo::InlinedStructPtr.205"*, %"class.mojo::InlinedStructPtr.205"** %88, align 8
  %156 = getelementptr inbounds %"class.mojo::InlinedStructPtr.205", %"class.mojo::InlinedStructPtr.205"* %155, i64 4, i32 0
  %157 = bitcast %"class.device_test::mojom::ControllerAxisData"* %156 to i32*
  %158 = load i32, i32* %157, align 4
  %159 = getelementptr inbounds %"struct.device::ControllerFrameData", %"struct.device::ControllerFrameData"* %0, i64 0, i32 5, i64 4
  %160 = bitcast %"struct.device::ControllerAxisData"* %159 to i32*
  store i32 %158, i32* %160, align 4
  %161 = load %"class.mojo::InlinedStructPtr.205"*, %"class.mojo::InlinedStructPtr.205"** %88, align 8
  %162 = getelementptr inbounds %"class.mojo::InlinedStructPtr.205", %"class.mojo::InlinedStructPtr.205"* %161, i64 4, i32 0, i32 1
  %163 = bitcast float* %162 to i32*
  %164 = load i32, i32* %163, align 4
  %165 = getelementptr inbounds %"struct.device::ControllerFrameData", %"struct.device::ControllerFrameData"* %0, i64 0, i32 5, i64 4, i32 1
  %166 = bitcast float* %165 to i32*
  store i32 %164, i32* %166, align 4
  %167 = load %"class.mojo::InlinedStructPtr.205"*, %"class.mojo::InlinedStructPtr.205"** %88, align 8
  %168 = getelementptr inbounds %"class.mojo::InlinedStructPtr.205", %"class.mojo::InlinedStructPtr.205"* %167, i64 4, i32 0, i32 2
  %169 = load i8, i8* %168, align 4
  %170 = zext i8 %169 to i32
  %171 = getelementptr inbounds %"struct.device::ControllerFrameData", %"struct.device::ControllerFrameData"* %0, i64 0, i32 5, i64 4, i32 2
  store i32 %170, i32* %171, align 4
  store %"class.device_test::mojom::ControllerFrameData"* null, %"class.device_test::mojom::ControllerFrameData"** %16, align 8
  %172 = icmp eq %"class.device_test::mojom::ControllerFrameData"* %80, null
  br i1 %172, label %182, label %180

173:                                              ; preds = %43
  call void @llvm.lifetime.end.p0i8(i64 8, i8* nonnull %15) #9
  br label %174

174:                                              ; preds = %10, %173
  %175 = getelementptr inbounds %"struct.device::ControllerFrameData", %"struct.device::ControllerFrameData"* %0, i64 0, i32 0
  store i32 0, i32* %175, align 8
  %176 = getelementptr inbounds %"struct.device::ControllerFrameData", %"struct.device::ControllerFrameData"* %0, i64 0, i32 2
  %177 = getelementptr inbounds %"struct.device::ControllerFrameData", %"struct.device::ControllerFrameData"* %0, i64 0, i32 7
  store i32 0, i32* %177, align 8
  %178 = getelementptr inbounds %"struct.device::ControllerFrameData", %"struct.device::ControllerFrameData"* %0, i64 0, i32 8
  store i8 0, i8* %178, align 4
  %179 = bitcast i64* %176 to i8*
  call void @llvm.memset.p0i8.i64(i8* align 8 %179, i8 0, i64 149, i1 false)
  br label %183

180:                                              ; preds = %79
  call void @_ZN11device_test5mojom19ControllerFrameDataD1Ev(%"class.device_test::mojom::ControllerFrameData"* nonnull %80) #9
  %181 = bitcast %"class.device_test::mojom::ControllerFrameData"* %80 to i8*
  call void @_ZdlPv(i8* %181) #10
  br label %182

182:                                              ; preds = %79, %180
  call void @llvm.lifetime.end.p0i8(i64 8, i8* nonnull %15) #9
  br label %183

183:                                              ; preds = %182, %174
  ret void
}

declare zeroext i1 @_ZN11device_test5mojom15XRTestHookProxy21WaitGetControllerDataEjPN4mojo9StructPtrINS0_19ControllerFrameDataEEE(%"class.device_test::mojom::XRTestHookProxy"*, i32, %"class.mojo::StructPtr.201"*) unnamed_addr #3

; Function Attrs: nounwind ssp uwtable
define hidden void @_ZN6device17XRTestHookWrapper16WaitGetEventDataEv(%"class.device_test::mojom::EventData"* noalias sret, %"class.device::XRTestHookWrapper"*) unnamed_addr #1 align 2 {
  %3 = alloca %"class.mojo::InlinedStructPtr.214", align 8
  %4 = getelementptr inbounds %"class.device_test::mojom::EventData", %"class.device_test::mojom::EventData"* %0, i64 0, i32 0
  store i32 -1431655766, i32* %4, align 4
  %5 = getelementptr inbounds %"class.device_test::mojom::EventData", %"class.device_test::mojom::EventData"* %0, i64 0, i32 1
  store i32 -1431655766, i32* %5, align 4
  tail call void @_ZN11device_test5mojom9EventDataC1Ev(%"class.device_test::mojom::EventData"* %0) #9
  %6 = getelementptr inbounds %"class.device::XRTestHookWrapper", %"class.device::XRTestHookWrapper"* %1, i64 0, i32 1
  %7 = getelementptr inbounds %"class.device::XRTestHookWrapper", %"class.device::XRTestHookWrapper"* %1, i64 0, i32 1, i32 0, i32 0, i32 2, i32 0, i32 0, i32 0
  %8 = load i32, i32* %7, align 4
  %9 = icmp eq i32 %8, 0
  br i1 %9, label %10, label %14

10:                                               ; preds = %2
  %11 = getelementptr inbounds %"class.device::XRTestHookWrapper", %"class.device::XRTestHookWrapper"* %1, i64 0, i32 1, i32 0, i32 0, i32 1, i32 0, i32 0, i32 0
  %12 = load %"class.mojo::InterfaceEndpointClient"*, %"class.mojo::InterfaceEndpointClient"** %11, align 8
  %13 = icmp eq %"class.mojo::InterfaceEndpointClient"* %12, null
  br i1 %13, label %55, label %14

14:                                               ; preds = %10, %2
  %15 = bitcast %"class.mojo::InlinedStructPtr.214"* %3 to i8*
  call void @llvm.lifetime.start.p0i8(i64 12, i8* nonnull %15) #9
  %16 = getelementptr inbounds %"class.mojo::InlinedStructPtr.214", %"class.mojo::InlinedStructPtr.214"* %3, i64 0, i32 0, i32 0
  store i32 -1431655766, i32* %16, align 8
  %17 = getelementptr inbounds %"class.mojo::InlinedStructPtr.214", %"class.mojo::InlinedStructPtr.214"* %3, i64 0, i32 0, i32 1
  store i32 -1431655766, i32* %17, align 4
  %18 = getelementptr inbounds %"class.mojo::InlinedStructPtr.214", %"class.mojo::InlinedStructPtr.214"* %3, i64 0, i32 1
  store i32 -1431655766, i32* %18, align 8
  %19 = getelementptr inbounds %"class.mojo::InlinedStructPtr.214", %"class.mojo::InlinedStructPtr.214"* %3, i64 0, i32 0
  call void @_ZN11device_test5mojom9EventDataC1Ev(%"class.device_test::mojom::EventData"* nonnull %19) #9
  store i32 0, i32* %18, align 8
  %20 = getelementptr inbounds %"class.device::XRTestHookWrapper", %"class.device::XRTestHookWrapper"* %1, i64 0, i32 1, i32 0, i32 1
  %21 = getelementptr inbounds %"class.std::__1::unique_ptr.173", %"class.std::__1::unique_ptr.173"* %20, i64 0, i32 0, i32 0, i32 0
  %22 = load %"class.device_test::mojom::XRTestHookProxy"*, %"class.device_test::mojom::XRTestHookProxy"** %21, align 8
  %23 = icmp eq %"class.device_test::mojom::XRTestHookProxy"* %22, null
  br i1 %23, label %24, label %45

24:                                               ; preds = %14
  %25 = bitcast %"class.mojo::Remote"* %6 to %"class.mojo::internal::InterfacePtrStateBase"*
  %26 = call i8* @_Znwm(i64 8) #10
  %27 = bitcast i8* %26 to i32 (...)***
  store i32 (...)** bitcast (i8** getelementptr inbounds ({ [6 x i8*] }, { [6 x i8*] }* @_ZTVN11device_test5mojom27XRTestHookResponseValidatorE, i64 0, inrange i32 0, i64 2) to i32 (...)**), i32 (...)*** %27, align 8
  %28 = bitcast i8* %26 to %"class.mojo::MessageReceiver"*
  %29 = call zeroext i1 @_ZN4mojo8internal21InterfacePtrStateBase24InitializeEndpointClientEbbbNSt3__110unique_ptrINS_15MessageReceiverENS2_14default_deleteIS4_EEEEPKc(%"class.mojo::internal::InterfacePtrStateBase"* %25, i1 zeroext false, i1 zeroext true, i1 zeroext false, %"class.mojo::MessageReceiver"* nonnull %28, i8* getelementptr inbounds ([0 x i8], [0 x i8]* @_ZN11device_test5mojom10XRTestHook5Name_E, i64 0, i64 0)) #9
  br i1 %29, label %30, label %45

30:                                               ; preds = %24
  %31 = getelementptr inbounds %"class.device::XRTestHookWrapper", %"class.device::XRTestHookWrapper"* %1, i64 0, i32 1, i32 0, i32 0, i32 1, i32 0, i32 0, i32 0
  %32 = bitcast %"class.mojo::InterfaceEndpointClient"** %31 to %"class.mojo::MessageReceiverWithResponder"**
  %33 = load %"class.mojo::MessageReceiverWithResponder"*, %"class.mojo::MessageReceiverWithResponder"** %32, align 8
  %34 = call i8* @_Znwm(i64 16) #10
  %35 = bitcast i8* %34 to %"class.device_test::mojom::XRTestHookProxy"*
  call void @_ZN11device_test5mojom15XRTestHookProxyC1EPN4mojo28MessageReceiverWithResponderE(%"class.device_test::mojom::XRTestHookProxy"* nonnull %35, %"class.mojo::MessageReceiverWithResponder"* %33) #9
  %36 = ptrtoint i8* %34 to i64
  %37 = load %"class.device_test::mojom::XRTestHookProxy"*, %"class.device_test::mojom::XRTestHookProxy"** %21, align 8
  %38 = bitcast %"class.std::__1::unique_ptr.173"* %20 to i64*
  store i64 %36, i64* %38, align 8
  %39 = icmp eq %"class.device_test::mojom::XRTestHookProxy"* %37, null
  br i1 %39, label %45, label %40

40:                                               ; preds = %30
  %41 = bitcast %"class.device_test::mojom::XRTestHookProxy"* %37 to void (%"class.device_test::mojom::XRTestHookProxy"*)***
  %42 = load void (%"class.device_test::mojom::XRTestHookProxy"*)**, void (%"class.device_test::mojom::XRTestHookProxy"*)*** %41, align 8
  %43 = getelementptr inbounds void (%"class.device_test::mojom::XRTestHookProxy"*)*, void (%"class.device_test::mojom::XRTestHookProxy"*)** %42, i64 1
  %44 = load void (%"class.device_test::mojom::XRTestHookProxy"*)*, void (%"class.device_test::mojom::XRTestHookProxy"*)** %43, align 8
  call void %44(%"class.device_test::mojom::XRTestHookProxy"* nonnull %37) #9
  br label %45

45:                                               ; preds = %14, %24, %30, %40
  %46 = load %"class.device_test::mojom::XRTestHookProxy"*, %"class.device_test::mojom::XRTestHookProxy"** %21, align 8
  %47 = call zeroext i1 @_ZN11device_test5mojom15XRTestHookProxy16WaitGetEventDataEPN4mojo16InlinedStructPtrINS0_9EventDataEEE(%"class.device_test::mojom::XRTestHookProxy"* %46, %"class.mojo::InlinedStructPtr.214"* nonnull %3) #9
  %48 = load i32, i32* %18, align 8
  %49 = icmp eq i32 %48, 0
  br i1 %49, label %54, label %50

50:                                               ; preds = %45
  %51 = bitcast %"class.mojo::InlinedStructPtr.214"* %3 to i64*
  %52 = bitcast %"class.device_test::mojom::EventData"* %0 to i64*
  %53 = load i64, i64* %51, align 8
  store i64 %53, i64* %52, align 4
  br label %54

54:                                               ; preds = %45, %50
  call void @_ZN11device_test5mojom9EventDataD1Ev(%"class.device_test::mojom::EventData"* nonnull %19) #9
  call void @llvm.lifetime.end.p0i8(i64 12, i8* nonnull %15) #9
  br label %55

55:                                               ; preds = %10, %54
  ret void
}

declare void @_ZN11device_test5mojom9EventDataC1Ev(%"class.device_test::mojom::EventData"*) unnamed_addr #3

declare zeroext i1 @_ZN11device_test5mojom15XRTestHookProxy16WaitGetEventDataEPN4mojo16InlinedStructPtrINS0_9EventDataEEE(%"class.device_test::mojom::XRTestHookProxy"*, %"class.mojo::InlinedStructPtr.214"*) unnamed_addr #3

; Function Attrs: nounwind
declare void @_ZN11device_test5mojom9EventDataD1Ev(%"class.device_test::mojom::EventData"*) unnamed_addr #4

; Function Attrs: nounwind ssp uwtable
define hidden void @_ZN6device17XRTestHookWrapper19AttachCurrentThreadEv(%"class.device::XRTestHookWrapper"*) unnamed_addr #1 align 2 {
  %2 = alloca %"class.mojo::PendingRemote", align 4
  %3 = alloca %"class.mojo::PendingRemote", align 4
  %4 = getelementptr inbounds %"class.device::XRTestHookWrapper", %"class.device::XRTestHookWrapper"* %0, i64 0, i32 2
  %5 = getelementptr inbounds %"class.mojo::PendingRemote", %"class.mojo::PendingRemote"* %4, i64 0, i32 0, i32 0, i32 0, i32 0, i32 0
  %6 = load i32, i32* %5, align 4
  %7 = icmp eq i32 %6, 0
  br i1 %7, label %14, label %8

8:                                                ; preds = %1
  %9 = getelementptr inbounds %"class.device::XRTestHookWrapper", %"class.device::XRTestHookWrapper"* %0, i64 0, i32 1
  %10 = getelementptr inbounds %"class.mojo::PendingRemote", %"class.mojo::PendingRemote"* %3, i64 0, i32 0
  %11 = getelementptr inbounds %"class.mojo::PendingRemote", %"class.mojo::PendingRemote"* %4, i64 0, i32 0
  call void @_ZN4mojo8internal18PendingRemoteStateC1EOS1_(%"struct.mojo::internal::PendingRemoteState"* nonnull %10, %"struct.mojo::internal::PendingRemoteState"* dereferenceable(8) %11) #9
  %12 = bitcast %"class.mojo::PendingRemote"* %2 to i8*
  call void @llvm.lifetime.start.p0i8(i64 8, i8* nonnull %12)
  %13 = getelementptr inbounds %"class.mojo::PendingRemote", %"class.mojo::PendingRemote"* %2, i64 0, i32 0
  call void @_ZN4mojo8internal18PendingRemoteStateC1EOS1_(%"struct.mojo::internal::PendingRemoteState"* nonnull %13, %"struct.mojo::internal::PendingRemoteState"* nonnull dereferenceable(8) %10) #9
  call void @_ZN4mojo6RemoteIN11device_test5mojom10XRTestHookEE4BindENS_13PendingRemoteIS3_EE13scoped_refptrIN4base19SequencedTaskRunnerEE(%"class.mojo::Remote"* %9, %"class.mojo::PendingRemote"* nonnull %2, %"class.base::SequencedTaskRunner"* null) #9
  call void @_ZN4mojo8internal18PendingRemoteStateD1Ev(%"struct.mojo::internal::PendingRemoteState"* nonnull %13) #9
  call void @llvm.lifetime.end.p0i8(i64 8, i8* nonnull %12)
  call void @_ZN4mojo8internal18PendingRemoteStateD1Ev(%"struct.mojo::internal::PendingRemoteState"* nonnull %10) #9
  br label %14

14:                                               ; preds = %1, %8
  %15 = call dereferenceable(8) %class.scoped_refptr.179* @_ZN4base22ThreadTaskRunnerHandle3GetEv() #9
  %16 = getelementptr inbounds %class.scoped_refptr.179, %class.scoped_refptr.179* %15, i64 0, i32 0
  %17 = load %"class.base::SingleThreadTaskRunner"*, %"class.base::SingleThreadTaskRunner"** %16, align 8
  %18 = icmp eq %"class.base::SingleThreadTaskRunner"* %17, null
  br i1 %18, label %22, label %19

19:                                               ; preds = %14
  %20 = getelementptr inbounds %"class.base::SingleThreadTaskRunner", %"class.base::SingleThreadTaskRunner"* %17, i64 0, i32 0, i32 0, i32 1, i32 0, i32 0, i32 0, i32 0, i32 0, i32 0, i32 0, i32 0
  %21 = atomicrmw add i32* %20, i32 1 monotonic
  br label %22

22:                                               ; preds = %14, %19
  %23 = getelementptr inbounds %"class.device::XRTestHookWrapper", %"class.device::XRTestHookWrapper"* %0, i64 0, i32 3
  %24 = ptrtoint %"class.base::SingleThreadTaskRunner"* %17 to i64
  %25 = bitcast %class.scoped_refptr.179* %23 to i64*
  %26 = getelementptr inbounds %class.scoped_refptr.179, %class.scoped_refptr.179* %23, i64 0, i32 0
  %27 = load %"class.base::SingleThreadTaskRunner"*, %"class.base::SingleThreadTaskRunner"** %26, align 8
  store i64 %24, i64* %25, align 8
  %28 = icmp eq %"class.base::SingleThreadTaskRunner"* %27, null
  br i1 %28, label %37, label %29

29:                                               ; preds = %22
  %30 = getelementptr inbounds %"class.base::SingleThreadTaskRunner", %"class.base::SingleThreadTaskRunner"* %27, i64 0, i32 0, i32 0, i32 1
  %31 = getelementptr inbounds %"class.base::RefCountedThreadSafe.3", %"class.base::RefCountedThreadSafe.3"* %30, i64 0, i32 0, i32 0, i32 0, i32 0, i32 0, i32 0, i32 0, i32 0
  %32 = atomicrmw sub i32* %31, i32 1 acq_rel
  %33 = icmp eq i32 %32, 1
  br i1 %33, label %34, label %37

34:                                               ; preds = %29
  %35 = getelementptr inbounds %"class.base::RefCountedThreadSafe.3", %"class.base::RefCountedThreadSafe.3"* %30, i64 -2
  %36 = bitcast %"class.base::RefCountedThreadSafe.3"* %35 to %"class.base::TaskRunner"*
  call void @_ZN4base16TaskRunnerTraits8DestructEPKNS_10TaskRunnerE(%"class.base::TaskRunner"* %36) #9
  br label %37

37:                                               ; preds = %22, %29, %34
  ret void
}

declare dereferenceable(8) %class.scoped_refptr.179* @_ZN4base22ThreadTaskRunnerHandle3GetEv() local_unnamed_addr #3

; Function Attrs: nounwind ssp uwtable
define hidden void @_ZN6device17XRTestHookWrapper19DetachCurrentThreadEv(%"class.device::XRTestHookWrapper"*) unnamed_addr #1 align 2 {
  %2 = alloca %"class.mojo::PendingRemote", align 4
  %3 = getelementptr inbounds %"class.device::XRTestHookWrapper", %"class.device::XRTestHookWrapper"* %0, i64 0, i32 1
  %4 = getelementptr inbounds %"class.device::XRTestHookWrapper", %"class.device::XRTestHookWrapper"* %0, i64 0, i32 1, i32 0, i32 0, i32 2, i32 0, i32 0, i32 0
  %5 = load i32, i32* %4, align 4
  %6 = icmp eq i32 %5, 0
  br i1 %6, label %7, label %11

7:                                                ; preds = %1
  %8 = getelementptr inbounds %"class.device::XRTestHookWrapper", %"class.device::XRTestHookWrapper"* %0, i64 0, i32 1, i32 0, i32 0, i32 1, i32 0, i32 0, i32 0
  %9 = load %"class.mojo::InterfaceEndpointClient"*, %"class.mojo::InterfaceEndpointClient"** %8, align 8
  %10 = icmp eq %"class.mojo::InterfaceEndpointClient"* %9, null
  br i1 %10, label %16, label %11

11:                                               ; preds = %7, %1
  %12 = bitcast %"class.mojo::PendingRemote"* %2 to i8*
  call void @llvm.lifetime.start.p0i8(i64 8, i8* nonnull %12) #9
  call void @_ZN4mojo6RemoteIN11device_test5mojom10XRTestHookEE6UnbindEv(%"class.mojo::PendingRemote"* nonnull sret %2, %"class.mojo::Remote"* %3)
  %13 = getelementptr inbounds %"class.device::XRTestHookWrapper", %"class.device::XRTestHookWrapper"* %0, i64 0, i32 2, i32 0
  %14 = getelementptr inbounds %"class.mojo::PendingRemote", %"class.mojo::PendingRemote"* %2, i64 0, i32 0
  %15 = call dereferenceable(8) %"struct.mojo::internal::PendingRemoteState"* @_ZN4mojo8internal18PendingRemoteStateaSEOS1_(%"struct.mojo::internal::PendingRemoteState"* %13, %"struct.mojo::internal::PendingRemoteState"* nonnull dereferenceable(8) %14) #9
  call void @_ZN4mojo8internal18PendingRemoteStateD1Ev(%"struct.mojo::internal::PendingRemoteState"* nonnull %14) #9
  call void @llvm.lifetime.end.p0i8(i64 8, i8* nonnull %12) #9
  br label %16

16:                                               ; preds = %7, %11
  %17 = getelementptr inbounds %"class.device::XRTestHookWrapper", %"class.device::XRTestHookWrapper"* %0, i64 0, i32 3
  %18 = bitcast %class.scoped_refptr.179* %17 to i64*
  %19 = getelementptr inbounds %class.scoped_refptr.179, %class.scoped_refptr.179* %17, i64 0, i32 0
  %20 = load %"class.base::SingleThreadTaskRunner"*, %"class.base::SingleThreadTaskRunner"** %19, align 8
  store i64 0, i64* %18, align 8
  %21 = icmp eq %"class.base::SingleThreadTaskRunner"* %20, null
  br i1 %21, label %30, label %22

22:                                               ; preds = %16
  %23 = getelementptr inbounds %"class.base::SingleThreadTaskRunner", %"class.base::SingleThreadTaskRunner"* %20, i64 0, i32 0, i32 0, i32 1
  %24 = getelementptr inbounds %"class.base::RefCountedThreadSafe.3", %"class.base::RefCountedThreadSafe.3"* %23, i64 0, i32 0, i32 0, i32 0, i32 0, i32 0, i32 0, i32 0, i32 0
  %25 = atomicrmw sub i32* %24, i32 1 acq_rel
  %26 = icmp eq i32 %25, 1
  br i1 %26, label %27, label %30

27:                                               ; preds = %22
  %28 = getelementptr inbounds %"class.base::RefCountedThreadSafe.3", %"class.base::RefCountedThreadSafe.3"* %23, i64 -2
  %29 = bitcast %"class.base::RefCountedThreadSafe.3"* %28 to %"class.base::TaskRunner"*
  call void @_ZN4base16TaskRunnerTraits8DestructEPKNS_10TaskRunnerE(%"class.base::TaskRunner"* %29) #9
  br label %30

30:                                               ; preds = %16, %22, %27
  ret void
}

; Function Attrs: nounwind ssp uwtable
define linkonce_odr hidden void @_ZN4mojo6RemoteIN11device_test5mojom10XRTestHookEE6UnbindEv(%"class.mojo::PendingRemote"* noalias sret, %"class.mojo::Remote"*) local_unnamed_addr #1 comdat align 2 {
  %3 = alloca %"class.mojo::ScopedHandleBase", align 4
  %4 = alloca %"class.logging::CheckError", align 8
  %5 = alloca %"class.mojo::internal::InterfacePtrState", align 8
  %6 = alloca %"class.mojo::InterfacePtrInfo", align 4
  %7 = getelementptr inbounds %"class.mojo::Remote", %"class.mojo::Remote"* %1, i64 0, i32 0, i32 0, i32 1, i32 0, i32 0, i32 0
  %8 = load %"class.mojo::InterfaceEndpointClient"*, %"class.mojo::InterfaceEndpointClient"** %7, align 8
  %9 = icmp eq %"class.mojo::InterfaceEndpointClient"* %8, null
  br i1 %9, label %21, label %10

10:                                               ; preds = %2
  %11 = getelementptr inbounds %"class.mojo::InterfaceEndpointClient", %"class.mojo::InterfaceEndpointClient"* %8, i64 0, i32 14, i32 0, i32 2, i32 0, i32 0
  %12 = load i64, i64* %11, align 8
  %13 = icmp eq i64 %12, 0
  br i1 %13, label %14, label %18

14:                                               ; preds = %10
  %15 = getelementptr inbounds %"class.mojo::InterfaceEndpointClient", %"class.mojo::InterfaceEndpointClient"* %8, i64 0, i32 15, i32 0, i32 2, i32 0, i32 0
  %16 = load i64, i64* %15, align 8
  %17 = icmp eq i64 %16, 0
  br i1 %17, label %21, label %18

18:                                               ; preds = %14, %10
  %19 = bitcast %"class.logging::CheckError"* %4 to i8*
  call void @llvm.lifetime.start.p0i8(i64 8, i8* nonnull %19) #9
  call void @_ZN7logging10CheckError5CheckEPKciS2_(%"class.logging::CheckError"* nonnull sret %4, i8* getelementptr inbounds ([40 x i8], [40 x i8]* @.str, i64 0, i64 0), i32 296, i8* getelementptr inbounds ([41 x i8], [41 x i8]* @.str.1, i64 0, i64 0)) #9
  %20 = call dereferenceable(160) %"class.std::__1::basic_ostream"* @_ZN7logging10CheckError6streamEv(%"class.logging::CheckError"* nonnull %4) #9
  call void @_ZN7logging10CheckErrorD1Ev(%"class.logging::CheckError"* nonnull %4) #9
  call void @llvm.lifetime.end.p0i8(i64 8, i8* nonnull %19) #9
  br label %21

21:                                               ; preds = %14, %2, %18
  %22 = bitcast %"class.mojo::internal::InterfacePtrState"* %5 to i8*
  call void @llvm.lifetime.start.p0i8(i64 48, i8* nonnull %22) #9
  call void @llvm.memset.p0i8.i64(i8* nonnull align 8 %22, i8 -86, i64 48, i1 false)
  %23 = bitcast %"class.mojo::internal::InterfacePtrState"* %5 to %"class.mojo::internal::InterfacePtrStateBase"*
  call void @_ZN4mojo8internal21InterfacePtrStateBaseC2Ev(%"class.mojo::internal::InterfacePtrStateBase"* nonnull %23) #9
  %24 = getelementptr inbounds %"class.mojo::internal::InterfacePtrState", %"class.mojo::internal::InterfacePtrState"* %5, i64 0, i32 1
  %25 = bitcast %"class.std::__1::unique_ptr.173"* %24 to i64*
  %26 = getelementptr inbounds %"class.mojo::Remote", %"class.mojo::Remote"* %1, i64 0, i32 0, i32 1
  %27 = bitcast %"class.std::__1::unique_ptr.173"* %26 to i64*
  %28 = load i64, i64* %27, align 8
  store i64 %28, i64* %25, align 8
  store i64 0, i64* %27, align 8
  %29 = bitcast %"class.mojo::Remote"* %1 to %"class.mojo::internal::InterfacePtrStateBase"*
  call void @_ZN4mojo8internal21InterfacePtrStateBase4SwapEPS1_(%"class.mojo::internal::InterfacePtrStateBase"* %29, %"class.mojo::internal::InterfacePtrStateBase"* nonnull %23) #9
  %30 = bitcast %"class.mojo::InterfacePtrInfo"* %6 to i8*
  call void @llvm.lifetime.start.p0i8(i64 8, i8* nonnull %30) #9
  %31 = getelementptr inbounds %"class.mojo::InterfacePtrInfo", %"class.mojo::InterfacePtrInfo"* %6, i64 0, i32 0, i32 0, i32 0, i32 0, i32 0
  store i32 -1431655766, i32* %31, align 4
  %32 = getelementptr inbounds %"class.mojo::InterfacePtrInfo", %"class.mojo::InterfacePtrInfo"* %6, i64 0, i32 0, i32 1
  store i32 -1431655766, i32* %32, align 4
  call void @_ZN4mojo8internal17InterfacePtrStateIN11device_test5mojom10XRTestHookEE13PassInterfaceEv(%"class.mojo::InterfacePtrInfo"* nonnull sret %6, %"class.mojo::internal::InterfacePtrState"* nonnull %5)
  %33 = load i32, i32* %31, align 4, !noalias !19
  store i32 0, i32* %31, align 4, !noalias !19
  %34 = load i32, i32* %32, align 4
  %35 = bitcast %"class.mojo::ScopedHandleBase"* %3 to i8*
  call void @llvm.lifetime.start.p0i8(i64 4, i8* nonnull %35)
  %36 = getelementptr inbounds %"class.mojo::PendingRemote", %"class.mojo::PendingRemote"* %0, i64 0, i32 0
  %37 = getelementptr inbounds %"class.mojo::ScopedHandleBase", %"class.mojo::ScopedHandleBase"* %3, i64 0, i32 0, i32 0, i32 0
  store i32 %33, i32* %37, align 4, !alias.scope !24
  call void @_ZN4mojo8internal18PendingRemoteStateC1ENS_16ScopedHandleBaseINS_17MessagePipeHandleEEEj(%"struct.mojo::internal::PendingRemoteState"* %36, %"class.mojo::ScopedHandleBase"* nonnull %3, i32 %34) #9
  %38 = load i32, i32* %37, align 4
  %39 = icmp eq i32 %38, 0
  br i1 %39, label %42, label %40

40:                                               ; preds = %21
  %41 = call i32 @MojoClose(i32 %38) #9
  br label %42

42:                                               ; preds = %40, %21
  call void @llvm.lifetime.end.p0i8(i64 4, i8* nonnull %35)
  %43 = getelementptr inbounds %"class.mojo::InterfacePtrInfo", %"class.mojo::InterfacePtrInfo"* %6, i64 0, i32 0
  call void @_ZN4mojo8internal18PendingRemoteStateD1Ev(%"struct.mojo::internal::PendingRemoteState"* nonnull %43) #9
  call void @llvm.lifetime.end.p0i8(i64 8, i8* nonnull %30) #9
  %44 = getelementptr inbounds %"class.mojo::internal::InterfacePtrState", %"class.mojo::internal::InterfacePtrState"* %5, i64 0, i32 1, i32 0, i32 0, i32 0
  %45 = load %"class.device_test::mojom::XRTestHookProxy"*, %"class.device_test::mojom::XRTestHookProxy"** %44, align 8
  store %"class.device_test::mojom::XRTestHookProxy"* null, %"class.device_test::mojom::XRTestHookProxy"** %44, align 8
  %46 = icmp eq %"class.device_test::mojom::XRTestHookProxy"* %45, null
  br i1 %46, label %52, label %47

47:                                               ; preds = %42
  %48 = bitcast %"class.device_test::mojom::XRTestHookProxy"* %45 to void (%"class.device_test::mojom::XRTestHookProxy"*)***
  %49 = load void (%"class.device_test::mojom::XRTestHookProxy"*)**, void (%"class.device_test::mojom::XRTestHookProxy"*)*** %48, align 8
  %50 = getelementptr inbounds void (%"class.device_test::mojom::XRTestHookProxy"*)*, void (%"class.device_test::mojom::XRTestHookProxy"*)** %49, i64 1
  %51 = load void (%"class.device_test::mojom::XRTestHookProxy"*)*, void (%"class.device_test::mojom::XRTestHookProxy"*)** %50, align 8
  call void %51(%"class.device_test::mojom::XRTestHookProxy"* nonnull %45) #9
  br label %52

52:                                               ; preds = %42, %47
  call void @_ZN4mojo8internal21InterfacePtrStateBaseD2Ev(%"class.mojo::internal::InterfacePtrStateBase"* nonnull %23) #9
  call void @llvm.lifetime.end.p0i8(i64 48, i8* nonnull %22) #9
  ret void
}

; Function Attrs: nofree norecurse nounwind ssp uwtable
define hidden %"class.base::SingleThreadTaskRunner"* @_ZN6device17XRTestHookWrapper18GetBoundTaskRunnerEv(%"class.device::XRTestHookWrapper"* nocapture readonly) local_unnamed_addr #5 align 2 {
  %2 = getelementptr inbounds %"class.device::XRTestHookWrapper", %"class.device::XRTestHookWrapper"* %0, i64 0, i32 3, i32 0
  %3 = load %"class.base::SingleThreadTaskRunner"*, %"class.base::SingleThreadTaskRunner"** %2, align 8
  %4 = icmp eq %"class.base::SingleThreadTaskRunner"* %3, null
  br i1 %4, label %8, label %5

5:                                                ; preds = %1
  %6 = getelementptr inbounds %"class.base::SingleThreadTaskRunner", %"class.base::SingleThreadTaskRunner"* %3, i64 0, i32 0, i32 0, i32 1, i32 0, i32 0, i32 0, i32 0, i32 0, i32 0, i32 0, i32 0
  %7 = atomicrmw add i32* %6, i32 1 monotonic
  br label %8

8:                                                ; preds = %1, %5
  ret %"class.base::SingleThreadTaskRunner"* %3
}

; Function Attrs: nounwind ssp uwtable
define hidden void @_ZN6device17XRTestHookWrapperD2Ev(%"class.device::XRTestHookWrapper"*) unnamed_addr #1 align 2 {
  %2 = getelementptr inbounds %"class.device::XRTestHookWrapper", %"class.device::XRTestHookWrapper"* %0, i64 0, i32 0, i32 0
  store i32 (...)** bitcast (i8** getelementptr inbounds ({ [14 x i8*] }, { [14 x i8*] }* @_ZTVN6device17XRTestHookWrapperE, i64 0, inrange i32 0, i64 2) to i32 (...)**), i32 (...)*** %2, align 8
  %3 = getelementptr inbounds %"class.device::XRTestHookWrapper", %"class.device::XRTestHookWrapper"* %0, i64 0, i32 3, i32 0
  %4 = load %"class.base::SingleThreadTaskRunner"*, %"class.base::SingleThreadTaskRunner"** %3, align 8
  %5 = icmp eq %"class.base::SingleThreadTaskRunner"* %4, null
  br i1 %5, label %14, label %6

6:                                                ; preds = %1
  %7 = getelementptr inbounds %"class.base::SingleThreadTaskRunner", %"class.base::SingleThreadTaskRunner"* %4, i64 0, i32 0, i32 0, i32 1
  %8 = getelementptr inbounds %"class.base::RefCountedThreadSafe.3", %"class.base::RefCountedThreadSafe.3"* %7, i64 0, i32 0, i32 0, i32 0, i32 0, i32 0, i32 0, i32 0, i32 0
  %9 = atomicrmw sub i32* %8, i32 1 acq_rel
  %10 = icmp eq i32 %9, 1
  br i1 %10, label %11, label %14

11:                                               ; preds = %6
  %12 = getelementptr inbounds %"class.base::RefCountedThreadSafe.3", %"class.base::RefCountedThreadSafe.3"* %7, i64 -2
  %13 = bitcast %"class.base::RefCountedThreadSafe.3"* %12 to %"class.base::TaskRunner"*
  tail call void @_ZN4base16TaskRunnerTraits8DestructEPKNS_10TaskRunnerE(%"class.base::TaskRunner"* %13) #9
  br label %14

14:                                               ; preds = %1, %6, %11
  %15 = getelementptr inbounds %"class.device::XRTestHookWrapper", %"class.device::XRTestHookWrapper"* %0, i64 0, i32 2, i32 0
  tail call void @_ZN4mojo8internal18PendingRemoteStateD1Ev(%"struct.mojo::internal::PendingRemoteState"* %15) #9
  %16 = getelementptr inbounds %"class.device::XRTestHookWrapper", %"class.device::XRTestHookWrapper"* %0, i64 0, i32 1
  %17 = getelementptr inbounds %"class.device::XRTestHookWrapper", %"class.device::XRTestHookWrapper"* %0, i64 0, i32 1, i32 0, i32 1, i32 0, i32 0, i32 0
  %18 = load %"class.device_test::mojom::XRTestHookProxy"*, %"class.device_test::mojom::XRTestHookProxy"** %17, align 8
  store %"class.device_test::mojom::XRTestHookProxy"* null, %"class.device_test::mojom::XRTestHookProxy"** %17, align 8
  %19 = icmp eq %"class.device_test::mojom::XRTestHookProxy"* %18, null
  br i1 %19, label %25, label %20

20:                                               ; preds = %14
  %21 = bitcast %"class.device_test::mojom::XRTestHookProxy"* %18 to void (%"class.device_test::mojom::XRTestHookProxy"*)***
  %22 = load void (%"class.device_test::mojom::XRTestHookProxy"*)**, void (%"class.device_test::mojom::XRTestHookProxy"*)*** %21, align 8
  %23 = getelementptr inbounds void (%"class.device_test::mojom::XRTestHookProxy"*)*, void (%"class.device_test::mojom::XRTestHookProxy"*)** %22, i64 1
  %24 = load void (%"class.device_test::mojom::XRTestHookProxy"*)*, void (%"class.device_test::mojom::XRTestHookProxy"*)** %23, align 8
  tail call void %24(%"class.device_test::mojom::XRTestHookProxy"* nonnull %18) #9
  br label %25

25:                                               ; preds = %14, %20
  %26 = bitcast %"class.mojo::Remote"* %16 to %"class.mojo::internal::InterfacePtrStateBase"*
  tail call void @_ZN4mojo8internal21InterfacePtrStateBaseD2Ev(%"class.mojo::internal::InterfacePtrStateBase"* %26) #9
  ret void
}

; Function Attrs: nounwind ssp uwtable
define hidden void @_ZN6device17XRTestHookWrapperD0Ev(%"class.device::XRTestHookWrapper"*) unnamed_addr #1 align 2 {
  %2 = getelementptr inbounds %"class.device::XRTestHookWrapper", %"class.device::XRTestHookWrapper"* %0, i64 0, i32 0, i32 0
  store i32 (...)** bitcast (i8** getelementptr inbounds ({ [14 x i8*] }, { [14 x i8*] }* @_ZTVN6device17XRTestHookWrapperE, i64 0, inrange i32 0, i64 2) to i32 (...)**), i32 (...)*** %2, align 8
  %3 = getelementptr inbounds %"class.device::XRTestHookWrapper", %"class.device::XRTestHookWrapper"* %0, i64 0, i32 3, i32 0
  %4 = load %"class.base::SingleThreadTaskRunner"*, %"class.base::SingleThreadTaskRunner"** %3, align 8
  %5 = icmp eq %"class.base::SingleThreadTaskRunner"* %4, null
  br i1 %5, label %14, label %6

6:                                                ; preds = %1
  %7 = getelementptr inbounds %"class.base::SingleThreadTaskRunner", %"class.base::SingleThreadTaskRunner"* %4, i64 0, i32 0, i32 0, i32 1
  %8 = getelementptr inbounds %"class.base::RefCountedThreadSafe.3", %"class.base::RefCountedThreadSafe.3"* %7, i64 0, i32 0, i32 0, i32 0, i32 0, i32 0, i32 0, i32 0, i32 0
  %9 = atomicrmw sub i32* %8, i32 1 acq_rel
  %10 = icmp eq i32 %9, 1
  br i1 %10, label %11, label %14

11:                                               ; preds = %6
  %12 = getelementptr inbounds %"class.base::RefCountedThreadSafe.3", %"class.base::RefCountedThreadSafe.3"* %7, i64 -2
  %13 = bitcast %"class.base::RefCountedThreadSafe.3"* %12 to %"class.base::TaskRunner"*
  tail call void @_ZN4base16TaskRunnerTraits8DestructEPKNS_10TaskRunnerE(%"class.base::TaskRunner"* %13) #9
  br label %14

14:                                               ; preds = %11, %6, %1
  %15 = getelementptr inbounds %"class.device::XRTestHookWrapper", %"class.device::XRTestHookWrapper"* %0, i64 0, i32 2, i32 0
  tail call void @_ZN4mojo8internal18PendingRemoteStateD1Ev(%"struct.mojo::internal::PendingRemoteState"* %15) #9
  %16 = getelementptr inbounds %"class.device::XRTestHookWrapper", %"class.device::XRTestHookWrapper"* %0, i64 0, i32 1
  %17 = getelementptr inbounds %"class.device::XRTestHookWrapper", %"class.device::XRTestHookWrapper"* %0, i64 0, i32 1, i32 0, i32 1, i32 0, i32 0, i32 0
  %18 = load %"class.device_test::mojom::XRTestHookProxy"*, %"class.device_test::mojom::XRTestHookProxy"** %17, align 8
  store %"class.device_test::mojom::XRTestHookProxy"* null, %"class.device_test::mojom::XRTestHookProxy"** %17, align 8
  %19 = icmp eq %"class.device_test::mojom::XRTestHookProxy"* %18, null
  br i1 %19, label %25, label %20

20:                                               ; preds = %14
  %21 = bitcast %"class.device_test::mojom::XRTestHookProxy"* %18 to void (%"class.device_test::mojom::XRTestHookProxy"*)***
  %22 = load void (%"class.device_test::mojom::XRTestHookProxy"*)**, void (%"class.device_test::mojom::XRTestHookProxy"*)*** %21, align 8
  %23 = getelementptr inbounds void (%"class.device_test::mojom::XRTestHookProxy"*)*, void (%"class.device_test::mojom::XRTestHookProxy"*)** %22, i64 1
  %24 = load void (%"class.device_test::mojom::XRTestHookProxy"*)*, void (%"class.device_test::mojom::XRTestHookProxy"*)** %23, align 8
  tail call void %24(%"class.device_test::mojom::XRTestHookProxy"* nonnull %18) #9
  br label %25

25:                                               ; preds = %14, %20
  %26 = bitcast %"class.mojo::Remote"* %16 to %"class.mojo::internal::InterfacePtrStateBase"*
  tail call void @_ZN4mojo8internal21InterfacePtrStateBaseD2Ev(%"class.mojo::internal::InterfacePtrStateBase"* %26) #9
  %27 = bitcast %"class.device::XRTestHookWrapper"* %0 to i8*
  tail call void @_ZdlPv(i8* %27) #10
  ret void
}

; Function Attrs: nobuiltin nounwind
declare void @_ZdlPv(i8*) local_unnamed_addr #6

declare void @_ZN4mojo8internal21InterfacePtrStateBaseC2Ev(%"class.mojo::internal::InterfacePtrStateBase"*) unnamed_addr #3

; Function Attrs: nounwind
declare void @_ZN4mojo8internal18PendingRemoteStateC1EOS1_(%"struct.mojo::internal::PendingRemoteState"*, %"struct.mojo::internal::PendingRemoteState"* dereferenceable(8)) unnamed_addr #4

; Function Attrs: nounwind
declare void @_ZN11device_test5mojom5ColorD1Ev(%"class.device_test::mojom::Color"*) unnamed_addr #4

; Function Attrs: nounwind
declare void @_ZN11device_test5mojom18SubmittedFrameDataD1Ev(%"class.device_test::mojom::SubmittedFrameData"*) unnamed_addr #4

; Function Attrs: nounwind
declare void @_ZN11device_test5mojom12DeviceConfigD1Ev(%"class.device_test::mojom::DeviceConfig"*) unnamed_addr #4

; Function Attrs: nounwind
declare void @_ZN11device_test5mojom13PoseFrameDataD1Ev(%"class.device_test::mojom::PoseFrameData"*) unnamed_addr #4

; Function Attrs: nounwind
declare void @_ZN11device_test5mojom19ControllerFrameDataD1Ev(%"class.device_test::mojom::ControllerFrameData"*) unnamed_addr #4

; Function Attrs: nounwind
declare void @_ZN4mojo8internal18PendingRemoteStateD1Ev(%"struct.mojo::internal::PendingRemoteState"*) unnamed_addr #4

; Function Attrs: nounwind
declare dereferenceable(8) %"struct.mojo::internal::PendingRemoteState"* @_ZN4mojo8internal18PendingRemoteStateaSEOS1_(%"struct.mojo::internal::PendingRemoteState"*, %"struct.mojo::internal::PendingRemoteState"* dereferenceable(8)) local_unnamed_addr #4

; Function Attrs: nounwind
declare void @_ZN4mojo8internal21InterfacePtrStateBaseD2Ev(%"class.mojo::internal::InterfacePtrStateBase"*) unnamed_addr #4

declare void @_ZN4base16TaskRunnerTraits8DestructEPKNS_10TaskRunnerE(%"class.base::TaskRunner"*) local_unnamed_addr #3

; Function Attrs: cold noreturn nounwind
declare void @llvm.trap() #7

; Function Attrs: nobuiltin nofree
declare noalias nonnull i8* @_Znwm(i64) local_unnamed_addr #8

declare void @_ZN11device_test5mojom18SubmittedFrameDataC1Ev(%"class.device_test::mojom::SubmittedFrameData"*) unnamed_addr #3

declare void @_ZN11device_test5mojom5ColorC1Ehhhh(%"class.device_test::mojom::Color"*, i8 zeroext, i8 zeroext, i8 zeroext, i8 zeroext) unnamed_addr #3

declare void @_ZN11device_test5mojom5ColorC1Ev(%"class.device_test::mojom::Color"*) unnamed_addr #3

declare zeroext i1 @_ZN4mojo8internal21InterfacePtrStateBase24InitializeEndpointClientEbbbNSt3__110unique_ptrINS_15MessageReceiverENS2_14default_deleteIS4_EEEEPKc(%"class.mojo::internal::InterfacePtrStateBase"*, i1 zeroext, i1 zeroext, i1 zeroext, %"class.mojo::MessageReceiver"*, i8*) local_unnamed_addr #3

declare void @_ZN11device_test5mojom15XRTestHookProxyC1EPN4mojo28MessageReceiverWithResponderE(%"class.device_test::mojom::XRTestHookProxy"*, %"class.mojo::MessageReceiverWithResponder"*) unnamed_addr #3

; Function Attrs: nounwind ssp uwtable
define linkonce_odr hidden void @_ZN4mojo6RemoteIN11device_test5mojom10XRTestHookEE4BindENS_13PendingRemoteIS3_EE13scoped_refptrIN4base19SequencedTaskRunnerEE(%"class.mojo::Remote"*, %"class.mojo::PendingRemote"*, %"class.base::SequencedTaskRunner"*) local_unnamed_addr #1 comdat align 2 {
  %4 = alloca %"class.mojo::internal::InterfacePtrState", align 8
  %5 = getelementptr inbounds %"class.mojo::PendingRemote", %"class.mojo::PendingRemote"* %1, i64 0, i32 0, i32 0, i32 0, i32 0, i32 0
  %6 = load i32, i32* %5, align 4
  %7 = icmp eq i32 %6, 0
  br i1 %7, label %8, label %25

8:                                                ; preds = %3
  %9 = bitcast %"class.mojo::internal::InterfacePtrState"* %4 to i8*
  call void @llvm.lifetime.start.p0i8(i64 48, i8* nonnull %9) #9
  call void @llvm.memset.p0i8.i64(i8* nonnull align 8 %9, i8 -86, i64 48, i1 false) #9
  %10 = bitcast %"class.mojo::internal::InterfacePtrState"* %4 to %"class.mojo::internal::InterfacePtrStateBase"*
  call void @_ZN4mojo8internal21InterfacePtrStateBaseC2Ev(%"class.mojo::internal::InterfacePtrStateBase"* nonnull %10) #9
  %11 = getelementptr inbounds %"class.mojo::internal::InterfacePtrState", %"class.mojo::internal::InterfacePtrState"* %4, i64 0, i32 1
  %12 = bitcast %"class.std::__1::unique_ptr.173"* %11 to i64*
  %13 = getelementptr inbounds %"class.mojo::Remote", %"class.mojo::Remote"* %0, i64 0, i32 0, i32 1
  %14 = bitcast %"class.std::__1::unique_ptr.173"* %13 to i64*
  %15 = load i64, i64* %14, align 8
  store i64 %15, i64* %12, align 8
  store i64 0, i64* %14, align 8
  %16 = bitcast %"class.mojo::Remote"* %0 to %"class.mojo::internal::InterfacePtrStateBase"*
  call void @_ZN4mojo8internal21InterfacePtrStateBase4SwapEPS1_(%"class.mojo::internal::InterfacePtrStateBase"* %16, %"class.mojo::internal::InterfacePtrStateBase"* nonnull %10) #9
  %17 = getelementptr inbounds %"class.mojo::internal::InterfacePtrState", %"class.mojo::internal::InterfacePtrState"* %4, i64 0, i32 1, i32 0, i32 0, i32 0
  %18 = load %"class.device_test::mojom::XRTestHookProxy"*, %"class.device_test::mojom::XRTestHookProxy"** %17, align 8
  store %"class.device_test::mojom::XRTestHookProxy"* null, %"class.device_test::mojom::XRTestHookProxy"** %17, align 8
  %19 = icmp eq %"class.device_test::mojom::XRTestHookProxy"* %18, null
  br i1 %19, label %52, label %20

20:                                               ; preds = %8
  %21 = bitcast %"class.device_test::mojom::XRTestHookProxy"* %18 to void (%"class.device_test::mojom::XRTestHookProxy"*)***
  %22 = load void (%"class.device_test::mojom::XRTestHookProxy"*)**, void (%"class.device_test::mojom::XRTestHookProxy"*)*** %21, align 8
  %23 = getelementptr inbounds void (%"class.device_test::mojom::XRTestHookProxy"*)*, void (%"class.device_test::mojom::XRTestHookProxy"*)** %22, i64 1
  %24 = load void (%"class.device_test::mojom::XRTestHookProxy"*)*, void (%"class.device_test::mojom::XRTestHookProxy"*)** %23, align 8
  call void %24(%"class.device_test::mojom::XRTestHookProxy"* nonnull %18) #9
  br label %52

25:                                               ; preds = %3
  %26 = getelementptr inbounds %"class.mojo::PendingRemote", %"class.mojo::PendingRemote"* %1, i64 0, i32 0
  %27 = bitcast %"class.mojo::Remote"* %0 to %"class.mojo::internal::InterfacePtrStateBase"*
  tail call void @_ZN4mojo8internal21InterfacePtrStateBase4BindEPNS0_18PendingRemoteStateE13scoped_refptrIN4base19SequencedTaskRunnerEE(%"class.mojo::internal::InterfacePtrStateBase"* %27, %"struct.mojo::internal::PendingRemoteState"* %26, %"class.base::SequencedTaskRunner"* %2) #9
  %28 = getelementptr inbounds %"class.mojo::Remote", %"class.mojo::Remote"* %0, i64 0, i32 0, i32 1
  %29 = getelementptr inbounds %"class.std::__1::unique_ptr.173", %"class.std::__1::unique_ptr.173"* %28, i64 0, i32 0, i32 0, i32 0
  %30 = load %"class.device_test::mojom::XRTestHookProxy"*, %"class.device_test::mojom::XRTestHookProxy"** %29, align 8
  %31 = icmp eq %"class.device_test::mojom::XRTestHookProxy"* %30, null
  br i1 %31, label %32, label %62

32:                                               ; preds = %25
  %33 = tail call i8* @_Znwm(i64 8) #10
  %34 = bitcast i8* %33 to i32 (...)***
  store i32 (...)** bitcast (i8** getelementptr inbounds ({ [6 x i8*] }, { [6 x i8*] }* @_ZTVN11device_test5mojom27XRTestHookResponseValidatorE, i64 0, inrange i32 0, i64 2) to i32 (...)**), i32 (...)*** %34, align 8
  %35 = bitcast i8* %33 to %"class.mojo::MessageReceiver"*
  %36 = tail call zeroext i1 @_ZN4mojo8internal21InterfacePtrStateBase24InitializeEndpointClientEbbbNSt3__110unique_ptrINS_15MessageReceiverENS2_14default_deleteIS4_EEEEPKc(%"class.mojo::internal::InterfacePtrStateBase"* %27, i1 zeroext false, i1 zeroext true, i1 zeroext false, %"class.mojo::MessageReceiver"* nonnull %35, i8* getelementptr inbounds ([0 x i8], [0 x i8]* @_ZN11device_test5mojom10XRTestHook5Name_E, i64 0, i64 0)) #9
  br i1 %36, label %37, label %62

37:                                               ; preds = %32
  %38 = getelementptr inbounds %"class.mojo::Remote", %"class.mojo::Remote"* %0, i64 0, i32 0, i32 0, i32 1, i32 0, i32 0, i32 0
  %39 = bitcast %"class.mojo::InterfaceEndpointClient"** %38 to %"class.mojo::MessageReceiverWithResponder"**
  %40 = load %"class.mojo::MessageReceiverWithResponder"*, %"class.mojo::MessageReceiverWithResponder"** %39, align 8
  %41 = tail call i8* @_Znwm(i64 16) #10
  %42 = bitcast i8* %41 to %"class.device_test::mojom::XRTestHookProxy"*
  tail call void @_ZN11device_test5mojom15XRTestHookProxyC1EPN4mojo28MessageReceiverWithResponderE(%"class.device_test::mojom::XRTestHookProxy"* nonnull %42, %"class.mojo::MessageReceiverWithResponder"* %40) #9
  %43 = ptrtoint i8* %41 to i64
  %44 = load %"class.device_test::mojom::XRTestHookProxy"*, %"class.device_test::mojom::XRTestHookProxy"** %29, align 8
  %45 = bitcast %"class.std::__1::unique_ptr.173"* %28 to i64*
  store i64 %43, i64* %45, align 8
  %46 = icmp eq %"class.device_test::mojom::XRTestHookProxy"* %44, null
  br i1 %46, label %62, label %47

47:                                               ; preds = %37
  %48 = bitcast %"class.device_test::mojom::XRTestHookProxy"* %44 to void (%"class.device_test::mojom::XRTestHookProxy"*)***
  %49 = load void (%"class.device_test::mojom::XRTestHookProxy"*)**, void (%"class.device_test::mojom::XRTestHookProxy"*)*** %48, align 8
  %50 = getelementptr inbounds void (%"class.device_test::mojom::XRTestHookProxy"*)*, void (%"class.device_test::mojom::XRTestHookProxy"*)** %49, i64 1
  %51 = load void (%"class.device_test::mojom::XRTestHookProxy"*)*, void (%"class.device_test::mojom::XRTestHookProxy"*)** %50, align 8
  tail call void %51(%"class.device_test::mojom::XRTestHookProxy"* nonnull %44) #9
  br label %62

52:                                               ; preds = %20, %8
  call void @_ZN4mojo8internal21InterfacePtrStateBaseD2Ev(%"class.mojo::internal::InterfacePtrStateBase"* nonnull %10) #9
  call void @llvm.lifetime.end.p0i8(i64 48, i8* nonnull %9) #9
  %53 = icmp eq %"class.base::SequencedTaskRunner"* %2, null
  br i1 %53, label %62, label %54

54:                                               ; preds = %52
  %55 = getelementptr inbounds %"class.base::SequencedTaskRunner", %"class.base::SequencedTaskRunner"* %2, i64 0, i32 0, i32 1
  %56 = getelementptr inbounds %"class.base::RefCountedThreadSafe.3", %"class.base::RefCountedThreadSafe.3"* %55, i64 0, i32 0, i32 0, i32 0, i32 0, i32 0, i32 0, i32 0, i32 0
  %57 = atomicrmw sub i32* %56, i32 1 acq_rel
  %58 = icmp eq i32 %57, 1
  br i1 %58, label %59, label %62

59:                                               ; preds = %54
  %60 = getelementptr inbounds %"class.base::RefCountedThreadSafe.3", %"class.base::RefCountedThreadSafe.3"* %55, i64 -2
  %61 = bitcast %"class.base::RefCountedThreadSafe.3"* %60 to %"class.base::TaskRunner"*
  call void @_ZN4base16TaskRunnerTraits8DestructEPKNS_10TaskRunnerE(%"class.base::TaskRunner"* %61) #9
  br label %62

62:                                               ; preds = %47, %37, %32, %25, %52, %54, %59
  ret void
}

declare void @_ZN4mojo8internal21InterfacePtrStateBase4SwapEPS1_(%"class.mojo::internal::InterfacePtrStateBase"*, %"class.mojo::internal::InterfacePtrStateBase"*) local_unnamed_addr #3

declare void @_ZN4mojo8internal21InterfacePtrStateBase4BindEPNS0_18PendingRemoteStateE13scoped_refptrIN4base19SequencedTaskRunnerEE(%"class.mojo::internal::InterfacePtrStateBase"*, %"struct.mojo::internal::PendingRemoteState"*, %"class.base::SequencedTaskRunner"*) local_unnamed_addr #3

declare void @_ZN7logging10CheckError5CheckEPKciS2_(%"class.logging::CheckError"* sret, i8*, i32, i8*) local_unnamed_addr #3

declare dereferenceable(160) %"class.std::__1::basic_ostream"* @_ZN7logging10CheckError6streamEv(%"class.logging::CheckError"*) local_unnamed_addr #3

; Function Attrs: nounwind
declare void @_ZN7logging10CheckErrorD1Ev(%"class.logging::CheckError"*) unnamed_addr #4

; Function Attrs: nounwind ssp uwtable
define linkonce_odr hidden void @_ZN4mojo8internal17InterfacePtrStateIN11device_test5mojom10XRTestHookEE13PassInterfaceEv(%"class.mojo::InterfacePtrInfo"* noalias sret, %"class.mojo::internal::InterfacePtrState"*) local_unnamed_addr #1 comdat align 2 {
  %3 = alloca %"class.mojo::ScopedHandleBase", align 4
  %4 = alloca %"class.mojo::ScopedHandleBase", align 4
  %5 = getelementptr inbounds %"class.mojo::internal::InterfacePtrState", %"class.mojo::internal::InterfacePtrState"* %1, i64 0, i32 1, i32 0, i32 0, i32 0
  %6 = load %"class.device_test::mojom::XRTestHookProxy"*, %"class.device_test::mojom::XRTestHookProxy"** %5, align 8
  store %"class.device_test::mojom::XRTestHookProxy"* null, %"class.device_test::mojom::XRTestHookProxy"** %5, align 8
  %7 = icmp eq %"class.device_test::mojom::XRTestHookProxy"* %6, null
  br i1 %7, label %13, label %8

8:                                                ; preds = %2
  %9 = bitcast %"class.device_test::mojom::XRTestHookProxy"* %6 to void (%"class.device_test::mojom::XRTestHookProxy"*)***
  %10 = load void (%"class.device_test::mojom::XRTestHookProxy"*)**, void (%"class.device_test::mojom::XRTestHookProxy"*)*** %9, align 8
  %11 = getelementptr inbounds void (%"class.device_test::mojom::XRTestHookProxy"*)*, void (%"class.device_test::mojom::XRTestHookProxy"*)** %10, i64 1
  %12 = load void (%"class.device_test::mojom::XRTestHookProxy"*)*, void (%"class.device_test::mojom::XRTestHookProxy"*)** %11, align 8
  tail call void %12(%"class.device_test::mojom::XRTestHookProxy"* nonnull %6) #9
  br label %13

13:                                               ; preds = %2, %8
  %14 = getelementptr inbounds %"class.mojo::internal::InterfacePtrState", %"class.mojo::internal::InterfacePtrState"* %1, i64 0, i32 0, i32 1, i32 0, i32 0, i32 0
  %15 = load %"class.mojo::InterfaceEndpointClient"*, %"class.mojo::InterfaceEndpointClient"** %14, align 8, !noalias !27
  store %"class.mojo::InterfaceEndpointClient"* null, %"class.mojo::InterfaceEndpointClient"** %14, align 8, !noalias !27
  %16 = icmp eq %"class.mojo::InterfaceEndpointClient"* %15, null
  br i1 %16, label %22, label %17

17:                                               ; preds = %13
  %18 = bitcast %"class.mojo::InterfaceEndpointClient"* %15 to void (%"class.mojo::InterfaceEndpointClient"*)***
  %19 = load void (%"class.mojo::InterfaceEndpointClient"*)**, void (%"class.mojo::InterfaceEndpointClient"*)*** %18, align 8
  %20 = getelementptr inbounds void (%"class.mojo::InterfaceEndpointClient"*)*, void (%"class.mojo::InterfaceEndpointClient"*)** %19, i64 1
  %21 = load void (%"class.mojo::InterfaceEndpointClient"*)*, void (%"class.mojo::InterfaceEndpointClient"*)** %20, align 8
  tail call void %21(%"class.mojo::InterfaceEndpointClient"* nonnull %15) #9
  br label %22

22:                                               ; preds = %17, %13
  %23 = getelementptr inbounds %"class.mojo::internal::InterfacePtrState", %"class.mojo::internal::InterfacePtrState"* %1, i64 0, i32 0, i32 0, i32 0
  %24 = load %"class.mojo::internal::MultiplexRouter"*, %"class.mojo::internal::MultiplexRouter"** %23, align 8, !noalias !27
  %25 = icmp eq %"class.mojo::internal::MultiplexRouter"* %24, null
  br i1 %25, label %30, label %26

26:                                               ; preds = %22
  %27 = getelementptr inbounds %"class.mojo::internal::MultiplexRouter", %"class.mojo::internal::MultiplexRouter"* %24, i64 0, i32 10
  call void @_ZN4mojo9Connector15PassMessagePipeEv(%"class.mojo::ScopedHandleBase"* nonnull sret %4, %"class.mojo::Connector"* %27) #9
  %28 = getelementptr inbounds %"class.mojo::ScopedHandleBase", %"class.mojo::ScopedHandleBase"* %4, i64 0, i32 0, i32 0, i32 0
  %29 = load i32, i32* %28, align 4, !noalias !30
  br label %34

30:                                               ; preds = %22
  %31 = getelementptr inbounds %"class.mojo::ScopedHandleBase", %"class.mojo::ScopedHandleBase"* %4, i64 0, i32 0, i32 0, i32 0
  %32 = getelementptr inbounds %"class.mojo::internal::InterfacePtrState", %"class.mojo::internal::InterfacePtrState"* %1, i64 0, i32 0, i32 2, i32 0, i32 0, i32 0
  %33 = load i32, i32* %32, align 4, !noalias !33
  store i32 %33, i32* %31, align 4, !alias.scope !33
  store i32 0, i32* %32, align 4, !noalias !33
  br label %34

34:                                               ; preds = %26, %30
  %35 = phi i32 [ %29, %26 ], [ %33, %30 ]
  %36 = getelementptr inbounds %"class.mojo::internal::InterfacePtrState", %"class.mojo::internal::InterfacePtrState"* %1, i64 0, i32 0, i32 5
  %37 = load i32, i32* %36, align 8
  %38 = bitcast %"class.mojo::ScopedHandleBase"* %3 to i8*
  call void @llvm.lifetime.start.p0i8(i64 4, i8* nonnull %38)
  %39 = getelementptr inbounds %"class.mojo::InterfacePtrInfo", %"class.mojo::InterfacePtrInfo"* %0, i64 0, i32 0
  %40 = getelementptr inbounds %"class.mojo::ScopedHandleBase", %"class.mojo::ScopedHandleBase"* %3, i64 0, i32 0, i32 0, i32 0
  %41 = getelementptr inbounds %"class.mojo::ScopedHandleBase", %"class.mojo::ScopedHandleBase"* %4, i64 0, i32 0, i32 0, i32 0
  store i32 %35, i32* %40, align 4, !alias.scope !30
  store i32 0, i32* %41, align 4, !noalias !30
  call void @_ZN4mojo8internal18PendingRemoteStateC1ENS_16ScopedHandleBaseINS_17MessagePipeHandleEEEj(%"struct.mojo::internal::PendingRemoteState"* %39, %"class.mojo::ScopedHandleBase"* nonnull %3, i32 %37) #9
  %42 = load i32, i32* %40, align 4
  %43 = icmp eq i32 %42, 0
  br i1 %43, label %46, label %44

44:                                               ; preds = %34
  %45 = call i32 @MojoClose(i32 %42) #9
  br label %46

46:                                               ; preds = %34, %44
  call void @llvm.lifetime.end.p0i8(i64 4, i8* nonnull %38)
  %47 = load i32, i32* %41, align 4
  %48 = icmp eq i32 %47, 0
  br i1 %48, label %51, label %49

49:                                               ; preds = %46
  %50 = call i32 @MojoClose(i32 %47) #9
  br label %51

51:                                               ; preds = %46, %49
  ret void
}

declare void @_ZN4mojo9Connector15PassMessagePipeEv(%"class.mojo::ScopedHandleBase"* sret, %"class.mojo::Connector"*) local_unnamed_addr #3

declare void @_ZN4mojo8internal18PendingRemoteStateC1ENS_16ScopedHandleBaseINS_17MessagePipeHandleEEEj(%"struct.mojo::internal::PendingRemoteState"*, %"class.mojo::ScopedHandleBase"*, i32) unnamed_addr #3

declare i32 @MojoClose(i32) local_unnamed_addr #3

attributes #0 = { norecurse nounwind readnone ssp uwtable "correctly-rounded-divide-sqrt-fp-math"="false" "disable-tail-calls"="false" "less-precise-fpmad"="false" "min-legal-vector-width"="0" "no-frame-pointer-elim"="false" "no-frame-pointer-elim-non-leaf" "no-infs-fp-math"="false" "no-jump-tables"="false" "no-nans-fp-math"="false" "no-signed-zeros-fp-math"="false" "no-trapping-math"="false" "null-pointer-is-valid"="true" "stack-protector-buffer-size"="4" "target-cpu"="x86-64" "target-features"="+cx8,+fxsr,+mmx,+sse,+sse2,+sse3,+x87" "unsafe-fp-math"="false" "use-soft-float"="false" }
attributes #1 = { nounwind ssp uwtable "correctly-rounded-divide-sqrt-fp-math"="false" "disable-tail-calls"="false" "less-precise-fpmad"="false" "min-legal-vector-width"="0" "no-frame-pointer-elim"="false" "no-frame-pointer-elim-non-leaf" "no-infs-fp-math"="false" "no-jump-tables"="false" "no-nans-fp-math"="false" "no-signed-zeros-fp-math"="false" "no-trapping-math"="false" "null-pointer-is-valid"="true" "stack-protector-buffer-size"="4" "target-cpu"="x86-64" "target-features"="+cx8,+fxsr,+mmx,+sse,+sse2,+sse3,+x87" "unsafe-fp-math"="false" "use-soft-float"="false" }
attributes #2 = { argmemonly nounwind }
attributes #3 = { "correctly-rounded-divide-sqrt-fp-math"="false" "disable-tail-calls"="false" "less-precise-fpmad"="false" "no-frame-pointer-elim"="false" "no-frame-pointer-elim-non-leaf" "no-infs-fp-math"="false" "no-nans-fp-math"="false" "no-signed-zeros-fp-math"="false" "no-trapping-math"="false" "null-pointer-is-valid"="true" "stack-protector-buffer-size"="4" "target-cpu"="x86-64" "target-features"="+cx8,+fxsr,+mmx,+sse,+sse2,+sse3,+x87" "unsafe-fp-math"="false" "use-soft-float"="false" }
attributes #4 = { nounwind "correctly-rounded-divide-sqrt-fp-math"="false" "disable-tail-calls"="false" "less-precise-fpmad"="false" "no-frame-pointer-elim"="false" "no-frame-pointer-elim-non-leaf" "no-infs-fp-math"="false" "no-nans-fp-math"="false" "no-signed-zeros-fp-math"="false" "no-trapping-math"="false" "null-pointer-is-valid"="true" "stack-protector-buffer-size"="4" "target-cpu"="x86-64" "target-features"="+cx8,+fxsr,+mmx,+sse,+sse2,+sse3,+x87" "unsafe-fp-math"="false" "use-soft-float"="false" }
attributes #5 = { nofree norecurse nounwind ssp uwtable "correctly-rounded-divide-sqrt-fp-math"="false" "disable-tail-calls"="false" "less-precise-fpmad"="false" "min-legal-vector-width"="0" "no-frame-pointer-elim"="false" "no-frame-pointer-elim-non-leaf" "no-infs-fp-math"="false" "no-jump-tables"="false" "no-nans-fp-math"="false" "no-signed-zeros-fp-math"="false" "no-trapping-math"="false" "null-pointer-is-valid"="true" "stack-protector-buffer-size"="4" "target-cpu"="x86-64" "target-features"="+cx8,+fxsr,+mmx,+sse,+sse2,+sse3,+x87" "unsafe-fp-math"="false" "use-soft-float"="false" }
attributes #6 = { nobuiltin nounwind "correctly-rounded-divide-sqrt-fp-math"="false" "disable-tail-calls"="false" "less-precise-fpmad"="false" "no-frame-pointer-elim"="false" "no-frame-pointer-elim-non-leaf" "no-infs-fp-math"="false" "no-nans-fp-math"="false" "no-signed-zeros-fp-math"="false" "no-trapping-math"="false" "null-pointer-is-valid"="true" "stack-protector-buffer-size"="4" "target-cpu"="x86-64" "target-features"="+cx8,+fxsr,+mmx,+sse,+sse2,+sse3,+x87" "unsafe-fp-math"="false" "use-soft-float"="false" }
attributes #7 = { cold noreturn nounwind }
attributes #8 = { nobuiltin nofree "correctly-rounded-divide-sqrt-fp-math"="false" "disable-tail-calls"="false" "less-precise-fpmad"="false" "no-frame-pointer-elim"="false" "no-frame-pointer-elim-non-leaf" "no-infs-fp-math"="false" "no-nans-fp-math"="false" "no-signed-zeros-fp-math"="false" "no-trapping-math"="false" "null-pointer-is-valid"="true" "stack-protector-buffer-size"="4" "target-cpu"="x86-64" "target-features"="+cx8,+fxsr,+mmx,+sse,+sse2,+sse3,+x87" "unsafe-fp-math"="false" "use-soft-float"="false" }
attributes #9 = { nounwind }
attributes #10 = { builtin nounwind }

!llvm.module.flags = !{!0, !1}

!0 = !{i32 1, !"wchar_size", i32 4}
!1 = !{i32 7, !"PIC Level", i32 2}
!2 = !{i8 0, i8 2}
!3 = !{!"branch_weights", i32 1, i32 2000}
!4 = !{!5}
!5 = distinct !{!5, !6, !"_ZN11device_test5mojom18SubmittedFrameData3NewIJEEEN4mojo9StructPtrIS1_EEDpOT_: argument 0"}
!6 = distinct !{!6, !"_ZN11device_test5mojom18SubmittedFrameData3NewIJEEEN4mojo9StructPtrIS1_EEDpOT_"}
!7 = !{!8}
!8 = distinct !{!8, !9, !"_ZN11device_test5mojom5Color3NewIJRhS3_S3_S3_EEEN4mojo16InlinedStructPtrIS1_EEDpOT_: argument 0"}
!9 = distinct !{!9, !"_ZN11device_test5mojom5Color3NewIJRhS3_S3_S3_EEEN4mojo16InlinedStructPtrIS1_EEDpOT_"}
!10 = !{!11}
!11 = distinct !{!11, !12, !"_ZN6device25MojoToDevicePoseFrameDataERN4mojo9StructPtrIN11device_test5mojom13PoseFrameDataEEE: argument 0"}
!12 = distinct !{!12, !"_ZN6device25MojoToDevicePoseFrameDataERN4mojo9StructPtrIN11device_test5mojom13PoseFrameDataEEE"}
!13 = !{!14}
!14 = distinct !{!14, !15, !"_ZN6device25MojoToDevicePoseFrameDataERN4mojo9StructPtrIN11device_test5mojom13PoseFrameDataEEE: argument 0"}
!15 = distinct !{!15, !"_ZN6device25MojoToDevicePoseFrameDataERN4mojo9StructPtrIN11device_test5mojom13PoseFrameDataEEE"}
!16 = !{!17}
!17 = distinct !{!17, !18, !"_ZN6device25MojoToDevicePoseFrameDataERN4mojo9StructPtrIN11device_test5mojom13PoseFrameDataEEE: argument 0"}
!18 = distinct !{!18, !"_ZN6device25MojoToDevicePoseFrameDataERN4mojo9StructPtrIN11device_test5mojom13PoseFrameDataEEE"}
!19 = !{!20, !22}
!20 = distinct !{!20, !21, !"_ZN4mojo16ScopedHandleBaseINS_17MessagePipeHandleEE7releaseEv: argument 0"}
!21 = distinct !{!21, !"_ZN4mojo16ScopedHandleBaseINS_17MessagePipeHandleEE7releaseEv"}
!22 = distinct !{!22, !23, !"_ZN4mojo16InterfacePtrInfoIN11device_test5mojom10XRTestHookEE10PassHandleEv: argument 0"}
!23 = distinct !{!23, !"_ZN4mojo16InterfacePtrInfoIN11device_test5mojom10XRTestHookEE10PassHandleEv"}
!24 = !{!25}
!25 = distinct !{!25, !26, !"_ZN4mojo16ScopedHandleBaseINS_17MessagePipeHandleEE7releaseEv: argument 0"}
!26 = distinct !{!26, !"_ZN4mojo16ScopedHandleBaseINS_17MessagePipeHandleEE7releaseEv"}
!27 = !{!28}
!28 = distinct !{!28, !29, !"_ZN4mojo8internal21InterfacePtrStateBase15PassMessagePipeEv: argument 0"}
!29 = distinct !{!29, !"_ZN4mojo8internal21InterfacePtrStateBase15PassMessagePipeEv"}
!30 = !{!31}
!31 = distinct !{!31, !32, !"_ZN4mojo16ScopedHandleBaseINS_17MessagePipeHandleEE7releaseEv: argument 0"}
!32 = distinct !{!32, !"_ZN4mojo16ScopedHandleBaseINS_17MessagePipeHandleEE7releaseEv"}
!33 = !{!34, !28}
!34 = distinct !{!34, !35, !"_ZN4mojo16ScopedHandleBaseINS_17MessagePipeHandleEE7releaseEv: argument 0"}
!35 = distinct !{!35, !"_ZN4mojo16ScopedHandleBaseINS_17MessagePipeHandleEE7releaseEv"}
