; ModuleID = '../../third_party/icu/source/i18n/zonemeta.cpp'
source_filename = "../../third_party/icu/source/i18n/zonemeta.cpp"
target datalayout = "e-m:e-i64:64-f80:128-n8:16:32:64-S128"
target triple = "x86_64-unknown-linux-gnu"

%struct.UHashtable = type { %struct.UHashElement*, i32 (i8*)*, i8 (i8*, i8*)*, i8 (i8*, i8*)*, void (i8*)*, void (i8*)*, i32, i32, i32, i32, float, float, i8, i8 }
%struct.UHashElement = type { i32, %union.UElement, %union.UElement }
%union.UElement = type { i8* }
%"class.icu_69::UVector" = type { %"class.icu_69::UObject", i32, i32, %union.UElement*, void (i8*)*, i8 (i8*, i8*)* }
%"class.icu_69::UObject" = type { i32 (...)** }
%"class.std::__1::mutex" = type { %union.pthread_mutex_t }
%union.pthread_mutex_t = type { %struct.__pthread_mutex_s }
%struct.__pthread_mutex_s = type { i32, i32, i32, i32, i32, i16, i16, %struct.__pthread_internal_list }
%struct.__pthread_internal_list = type { %struct.__pthread_internal_list*, %struct.__pthread_internal_list* }
%"class.icu_69::UMutex" = type { [40 x i8], %"struct.std::__1::atomic.2", %"class.icu_69::UMutex"* }
%"struct.std::__1::atomic.2" = type { %"struct.std::__1::__atomic_base.3" }
%"struct.std::__1::__atomic_base.3" = type { %"struct.std::__1::__cxx_atomic_impl.4" }
%"struct.std::__1::__cxx_atomic_impl.4" = type { %"struct.std::__1::__cxx_atomic_base_impl.5" }
%"struct.std::__1::__cxx_atomic_base_impl.5" = type { %"class.std::__1::mutex"* }
%"class.icu_69::UnicodeString" = type { %"class.icu_69::Replaceable", %"union.icu_69::UnicodeString::StackBufferOrFields" }
%"class.icu_69::Replaceable" = type { %"class.icu_69::UObject" }
%"union.icu_69::UnicodeString::StackBufferOrFields" = type { %struct.anon.0, [32 x i8] }
%struct.anon.0 = type { i16, i32, i32, i16* }
%"class.icu_69::Char16Ptr" = type { i16* }
%"struct.icu_69::UInitOnce" = type { %"struct.std::__1::atomic", i32 }
%"struct.std::__1::atomic" = type { %"struct.std::__1::__atomic_base" }
%"struct.std::__1::__atomic_base" = type { %"struct.std::__1::__atomic_base.1" }
%"struct.std::__1::__atomic_base.1" = type { %"struct.std::__1::__cxx_atomic_impl" }
%"struct.std::__1::__cxx_atomic_impl" = type { %"struct.std::__1::__cxx_atomic_base_impl" }
%"struct.std::__1::__cxx_atomic_base_impl" = type { i32 }
%struct.UResourceBundle = type { i8*, %struct.UResourceDataEntry*, i8*, %struct.UResourceDataEntry*, i8*, %struct.ResourceData, [64 x i8], i32, i32, i8, i8, i32, i32, i32, i32 }
%struct.UResourceDataEntry = type { i8*, i8*, %struct.UResourceDataEntry*, %struct.UResourceDataEntry*, %struct.UResourceDataEntry*, %struct.ResourceData, [3 x i8], i32, i32 }
%struct.ResourceData = type { %struct.UDataMemory*, i32*, i16*, i8*, i32, i32, i16*, i32, i32, i8, i8, i8, i8 }
%struct.UDataMemory = type opaque
%"class.icu_69::ConstChar16Ptr" = type { i16* }
%"class.icu_69::TimeZone" = type { %"class.icu_69::UObject", %"class.icu_69::UnicodeString" }
%"class.icu_69::StringEnumeration" = type <{ %"class.icu_69::UObject", %"class.icu_69::UnicodeString", [32 x i8], i8*, i32, [4 x i8] }>
%"class.icu_69::StackUResourceBundle" = type { %struct.UResourceBundle }
%"class.icu_69::SimpleTimeZone" = type { %"class.icu_69::BasicTimeZone", i8, i8, i8, i32, i32, i32, i8, i8, i8, i32, i32, i32, i8, i32, i32, i32, i8, %"class.icu_69::InitialTimeZoneRule"*, %"class.icu_69::TimeZoneTransition"*, %"class.icu_69::AnnualTimeZoneRule"*, %"class.icu_69::AnnualTimeZoneRule"* }
%"class.icu_69::BasicTimeZone" = type { %"class.icu_69::TimeZone" }
%"class.icu_69::InitialTimeZoneRule" = type { %"class.icu_69::TimeZoneRule" }
%"class.icu_69::TimeZoneRule" = type { %"class.icu_69::UObject", %"class.icu_69::UnicodeString", i32, i32 }
%"class.icu_69::TimeZoneTransition" = type { %"class.icu_69::UObject", double, %"class.icu_69::TimeZoneRule"*, %"class.icu_69::TimeZoneRule"* }
%"class.icu_69::AnnualTimeZoneRule" = type { %"class.icu_69::TimeZoneRule", %"class.icu_69::DateTimeRule"*, i32, i32 }
%"class.icu_69::DateTimeRule" = type <{ %"class.icu_69::UObject", i32, i32, i32, i32, i32, i32, i32, [4 x i8] }>

@_ZL17gCanonicalIDCache = internal unnamed_addr global %struct.UHashtable* null, align 8
@_ZN6icu_69L12gKeyTypeDataE = internal constant [12 x i8] c"keyTypeData\00", align 1
@_ZN6icu_69L11gTypeMapTagE = internal constant [8 x i8] c"typeMap\00", align 1
@_ZN6icu_69L12gTimezoneTagE = internal constant [9 x i8] c"timezone\00", align 1
@_ZN6icu_69L13gTypeAliasTagE = internal constant [10 x i8] c"typeAlias\00", align 1
@_ZTIN6icu_698TimeZoneE = external constant i8*
@_ZTIN6icu_6913OlsonTimeZoneE = external constant i8*
@_ZN6icu_69L6gWorldE = internal constant [4 x i16] [i16 48, i16 48, i16 49, i16 0], align 2
@_ZL20gSingleZoneCountries = internal unnamed_addr global %"class.icu_69::UVector"* null, align 8
@_ZL20gMultiZonesCountries = internal unnamed_addr global %"class.icu_69::UVector"* null, align 8
@_ZN6icu_69L10gMetaZonesE = internal constant [10 x i8] c"metaZones\00", align 1
@_ZN6icu_69L16gPrimaryZonesTagE = internal constant [13 x i8] c"primaryZones\00", align 1
@_ZL12gOlsonToMeta = internal unnamed_addr global %struct.UHashtable* null, align 8
@_ZN6icu_69L13gMetazoneInfoE = internal constant [13 x i8] c"metazoneInfo\00", align 1
@_ZN6icu_69L12gDefaultFromE = internal constant [17 x i16] [i16 49, i16 57, i16 55, i16 48, i16 45, i16 48, i16 49, i16 45, i16 48, i16 49, i16 32, i16 48, i16 48, i16 58, i16 48, i16 48, i16 0], align 16
@_ZN6icu_69L10gDefaultToE = internal constant [17 x i16] [i16 57, i16 57, i16 57, i16 57, i16 45, i16 49, i16 50, i16 45, i16 51, i16 49, i16 32, i16 50, i16 51, i16 58, i16 53, i16 57, i16 0], align 16
@_ZN6icu_69L16gMapTimezonesTagE = internal constant [13 x i8] c"mapTimezones\00", align 1
@_ZN6icu_69L9gWorldTagE = internal constant [4 x i8] c"001\00", align 1
@_ZL12gMetaZoneIDs = internal unnamed_addr global %"class.icu_69::UVector"* null, align 8
@_ZL16gMetaZoneIDTable = internal unnamed_addr global %struct.UHashtable* null, align 8
@_ZN6icu_69L15gCustomTzPrefixE = internal constant [4 x i16] [i16 71, i16 77, i16 84, i16 0], align 2
@_ZL25gCanonicalIDCacheInitOnce = internal global { { { i32 } }, i32 } zeroinitializer, align 4
@_ZL13gZoneMetaLock = internal global { [40 x i8], { { %"class.std::__1::mutex"* } }, %"class.icu_69::UMutex"* } zeroinitializer, align 8
@_ZTVN6icu_6913UnicodeStringE = external unnamed_addr constant { [13 x i8*] }, align 8
@_ZL27gCountryInfoVectorsInitOnce = internal global { { { i32 } }, i32 } zeroinitializer, align 4
@_ZL20gOlsonToMetaInitOnce = internal global { { { i32 } }, i32 } zeroinitializer, align 4
@_ZL20gMetaZoneIDsInitOnce = internal global { { { i32 } }, i32 } zeroinitializer, align 4

; Function Attrs: nounwind ssp uwtable
define hidden i16* @_ZN6icu_698ZoneMeta18getCanonicalCLDRIDERKNS_13UnicodeStringER10UErrorCode(%"class.icu_69::UnicodeString"* dereferenceable(64), i32* dereferenceable(4)) local_unnamed_addr #0 align 2 {
  %3 = alloca i32, align 4
  %4 = alloca [129 x i16], align 16
  %5 = alloca %"class.icu_69::Char16Ptr", align 8
  %6 = alloca [129 x i8], align 16
  %7 = load i32, i32* %1, align 4
  %8 = icmp slt i32 %7, 1
  br i1 %8, label %9, label %155

9:                                                ; preds = %2
  %10 = getelementptr inbounds %"class.icu_69::UnicodeString", %"class.icu_69::UnicodeString"* %0, i64 0, i32 1, i32 0, i32 0
  %11 = load i16, i16* %10, align 8
  %12 = and i16 %11, 1
  %13 = icmp eq i16 %12, 0
  br i1 %13, label %14, label %22

14:                                               ; preds = %9
  %15 = icmp slt i16 %11, 0
  %16 = lshr i16 %11, 5
  %17 = zext i16 %16 to i32
  %18 = getelementptr inbounds %"class.icu_69::UnicodeString", %"class.icu_69::UnicodeString"* %0, i64 0, i32 1, i32 0, i32 1
  %19 = load i32, i32* %18, align 4
  %20 = select i1 %15, i32 %19, i32 %17
  %21 = icmp sgt i32 %20, 128
  br i1 %21, label %22, label %23

22:                                               ; preds = %9, %14
  store i32 1, i32* %1, align 4
  br label %155

23:                                               ; preds = %14
  %24 = load atomic i32, i32* getelementptr inbounds ({ { { i32 } }, i32 }, { { { i32 } }, i32 }* @_ZL25gCanonicalIDCacheInitOnce, i64 0, i32 0, i32 0, i32 0) acquire, align 4
  %25 = icmp eq i32 %24, 2
  br i1 %25, label %39, label %26

26:                                               ; preds = %23
  %27 = tail call signext i8 @_ZN6icu_6920umtx_initImplPreInitERNS_9UInitOnceE(%"struct.icu_69::UInitOnce"* dereferenceable(8) bitcast ({ { { i32 } }, i32 }* @_ZL25gCanonicalIDCacheInitOnce to %"struct.icu_69::UInitOnce"*)) #7
  %28 = icmp eq i8 %27, 0
  br i1 %28, label %39, label %29

29:                                               ; preds = %26
  %30 = tail call %struct.UHashtable* @uhash_open_69(i32 (i8*)* nonnull @uhash_hashUChars_69, i8 (i8*, i8*)* nonnull @uhash_compareUChars_69, i8 (i8*, i8*)* null, i32* %1) #7
  store %struct.UHashtable* %30, %struct.UHashtable** @_ZL17gCanonicalIDCache, align 8
  %31 = icmp eq %struct.UHashtable* %30, null
  br i1 %31, label %32, label %33

32:                                               ; preds = %29
  store i32 7, i32* %1, align 4
  br label %36

33:                                               ; preds = %29
  %34 = load i32, i32* %1, align 4
  %35 = icmp slt i32 %34, 1
  br i1 %35, label %37, label %36

36:                                               ; preds = %32, %33
  store %struct.UHashtable* null, %struct.UHashtable** @_ZL17gCanonicalIDCache, align 8
  br label %37

37:                                               ; preds = %33, %36
  tail call void @ucln_i18n_registerCleanup_69(i32 18, i8 ()* nonnull @_ZL16zoneMeta_cleanupv) #7
  %38 = load i32, i32* %1, align 4
  store i32 %38, i32* getelementptr inbounds ({ { { i32 } }, i32 }, { { { i32 } }, i32 }* @_ZL25gCanonicalIDCacheInitOnce, i64 0, i32 1), align 4
  tail call void @_ZN6icu_6921umtx_initImplPostInitERNS_9UInitOnceE(%"struct.icu_69::UInitOnce"* dereferenceable(8) bitcast ({ { { i32 } }, i32 }* @_ZL25gCanonicalIDCacheInitOnce to %"struct.icu_69::UInitOnce"*)) #7
  br label %43

39:                                               ; preds = %26, %23
  %40 = load i32, i32* getelementptr inbounds ({ { { i32 } }, i32 }, { { { i32 } }, i32 }* @_ZL25gCanonicalIDCacheInitOnce, i64 0, i32 1), align 4
  %41 = icmp slt i32 %40, 1
  br i1 %41, label %43, label %42

42:                                               ; preds = %39
  store i32 %40, i32* %1, align 4
  br label %155

43:                                               ; preds = %37, %39
  %44 = load i32, i32* %1, align 4
  %45 = icmp slt i32 %44, 1
  br i1 %45, label %46, label %155

46:                                               ; preds = %43
  %47 = bitcast i32* %3 to i8*
  call void @llvm.lifetime.start.p0i8(i64 4, i8* nonnull %47) #7
  store i32 0, i32* %3, align 4
  %48 = bitcast [129 x i16]* %4 to i8*
  call void @llvm.lifetime.start.p0i8(i64 258, i8* nonnull %48) #7
  call void @llvm.memset.p0i8.i64(i8* nonnull align 16 %48, i8 -86, i64 258, i1 false)
  %49 = getelementptr inbounds [129 x i16], [129 x i16]* %4, i64 0, i64 0
  %50 = getelementptr inbounds %"class.icu_69::Char16Ptr", %"class.icu_69::Char16Ptr"* %5, i64 0, i32 0
  store i16* %49, i16** %50, align 8
  %51 = call i32 @_ZNK6icu_6913UnicodeString7extractENS_9Char16PtrEiR10UErrorCode(%"class.icu_69::UnicodeString"* %0, %"class.icu_69::Char16Ptr"* nonnull %5, i32 129, i32* nonnull dereferenceable(4) %3) #7
  %52 = load i16*, i16** %50, align 8
  call void asm sideeffect "", "rm,~{memory},~{dirflag},~{fpsr},~{flags}"(i16* %52) #7, !srcloc !2
  %53 = call signext i8 @uprv_isInvariantUString_69(i16* nonnull %49, i32 -1) #7
  %54 = icmp eq i8 %53, 0
  br i1 %54, label %55, label %56

55:                                               ; preds = %46
  store i32 1, i32* %1, align 4
  br label %153

56:                                               ; preds = %46
  call void @umtx_lock_69(%"class.icu_69::UMutex"* bitcast ({ [40 x i8], { { %"class.std::__1::mutex"* } }, %"class.icu_69::UMutex"* }* @_ZL13gZoneMetaLock to %"class.icu_69::UMutex"*)) #7
  %57 = load %struct.UHashtable*, %struct.UHashtable** @_ZL17gCanonicalIDCache, align 8
  %58 = call i8* @uhash_get_69(%struct.UHashtable* %57, i8* nonnull %48) #7
  call void @umtx_unlock_69(%"class.icu_69::UMutex"* bitcast ({ [40 x i8], { { %"class.std::__1::mutex"* } }, %"class.icu_69::UMutex"* }* @_ZL13gZoneMetaLock to %"class.icu_69::UMutex"*)) #7
  %59 = icmp eq i8* %58, null
  br i1 %59, label %62, label %60

60:                                               ; preds = %56
  %61 = bitcast i8* %58 to i16*
  br label %153

62:                                               ; preds = %56
  %63 = getelementptr inbounds [129 x i8], [129 x i8]* %6, i64 0, i64 0
  call void @llvm.lifetime.start.p0i8(i64 129, i8* nonnull %63) #7
  call void @llvm.memset.p0i8.i64(i8* nonnull align 16 %63, i8 -86, i64 129, i1 false)
  %64 = call i32 @_ZNK6icu_6913UnicodeString7extractEiiPciNS0_10EInvariantE(%"class.icu_69::UnicodeString"* %0, i32 0, i32 2147483647, i8* nonnull %63, i32 129, i32 0) #7
  %65 = getelementptr inbounds [129 x i8], [129 x i8]* %6, i64 0, i64 1
  %66 = load i8, i8* %63, align 16
  %67 = icmp eq i8 %66, 0
  br i1 %67, label %77, label %68

68:                                               ; preds = %62, %73
  %69 = phi i8* [ %75, %73 ], [ %65, %62 ]
  %70 = load i8, i8* %69, align 1
  %71 = icmp eq i8 %70, 47
  br i1 %71, label %72, label %73

72:                                               ; preds = %68
  store i8 58, i8* %69, align 1
  br label %73

73:                                               ; preds = %72, %68
  %74 = phi i8 [ 58, %72 ], [ %70, %68 ]
  %75 = getelementptr inbounds i8, i8* %69, i64 1
  %76 = icmp eq i8 %74, 0
  br i1 %76, label %77, label %68

77:                                               ; preds = %73, %62
  %78 = call %struct.UResourceBundle* @ures_openDirect_69(i8* null, i8* getelementptr inbounds ([12 x i8], [12 x i8]* @_ZN6icu_69L12gKeyTypeDataE, i64 0, i64 0), i32* nonnull %3) #7
  %79 = call %struct.UResourceBundle* @ures_getByKey_69(%struct.UResourceBundle* %78, i8* getelementptr inbounds ([8 x i8], [8 x i8]* @_ZN6icu_69L11gTypeMapTagE, i64 0, i64 0), %struct.UResourceBundle* null, i32* nonnull %3) #7
  %80 = call %struct.UResourceBundle* @ures_getByKey_69(%struct.UResourceBundle* %79, i8* getelementptr inbounds ([9 x i8], [9 x i8]* @_ZN6icu_69L12gTimezoneTagE, i64 0, i64 0), %struct.UResourceBundle* %79, i32* nonnull %3) #7
  %81 = call %struct.UResourceBundle* @ures_getByKey_69(%struct.UResourceBundle* %79, i8* nonnull %63, %struct.UResourceBundle* %79, i32* nonnull %3) #7
  %82 = load i32, i32* %3, align 4
  %83 = icmp sgt i32 %82, 0
  br i1 %83, label %87, label %84

84:                                               ; preds = %77
  %85 = call i16* @_ZN6icu_698TimeZone6findIDERKNS_13UnicodeStringE(%"class.icu_69::UnicodeString"* dereferenceable(64) %0) #7
  %86 = icmp eq i16* %85, null
  br i1 %86, label %87, label %121

87:                                               ; preds = %77, %84
  %88 = phi i8 [ 1, %84 ], [ 0, %77 ]
  store i32 0, i32* %3, align 4
  %89 = call %struct.UResourceBundle* @ures_getByKey_69(%struct.UResourceBundle* %78, i8* getelementptr inbounds ([10 x i8], [10 x i8]* @_ZN6icu_69L13gTypeAliasTagE, i64 0, i64 0), %struct.UResourceBundle* %79, i32* nonnull %3) #7
  %90 = call %struct.UResourceBundle* @ures_getByKey_69(%struct.UResourceBundle* %79, i8* getelementptr inbounds ([9 x i8], [9 x i8]* @_ZN6icu_69L12gTimezoneTagE, i64 0, i64 0), %struct.UResourceBundle* %79, i32* nonnull %3) #7
  %91 = call i16* @ures_getStringByKey_69(%struct.UResourceBundle* %79, i8* nonnull %63, i32* null, i32* nonnull %3) #7
  %92 = load i32, i32* %3, align 4
  %93 = icmp sgt i32 %92, 0
  %94 = select i1 %93, i16* null, i16* %91
  %95 = icmp eq i16* %94, null
  br i1 %95, label %96, label %121

96:                                               ; preds = %87
  %97 = call i16* @_ZN6icu_698TimeZone16dereferOlsonLinkERKNS_13UnicodeStringE(%"class.icu_69::UnicodeString"* dereferenceable(64) %0) #7
  %98 = icmp eq i16* %97, null
  br i1 %98, label %99, label %100

99:                                               ; preds = %96
  store i32 1, i32* %1, align 4
  br label %121

100:                                              ; preds = %96
  %101 = call i32 @u_strlen_69(i16* nonnull %97) #7
  call void @u_UCharsToChars_69(i16* nonnull %97, i8* nonnull %63, i32 %101) #7
  %102 = sext i32 %101 to i64
  %103 = getelementptr inbounds [129 x i8], [129 x i8]* %6, i64 0, i64 %102
  store i8 0, i8* %103, align 1
  %104 = load i8, i8* %63, align 16
  %105 = icmp eq i8 %104, 0
  br i1 %105, label %115, label %106

106:                                              ; preds = %100, %111
  %107 = phi i8* [ %113, %111 ], [ %65, %100 ]
  %108 = load i8, i8* %107, align 1
  %109 = icmp eq i8 %108, 47
  br i1 %109, label %110, label %111

110:                                              ; preds = %106
  store i8 58, i8* %107, align 1
  br label %111

111:                                              ; preds = %110, %106
  %112 = phi i8 [ 58, %110 ], [ %108, %106 ]
  %113 = getelementptr inbounds i8, i8* %107, i64 1
  %114 = icmp eq i8 %112, 0
  br i1 %114, label %115, label %106

115:                                              ; preds = %111, %100
  store i32 0, i32* %3, align 4
  %116 = call i16* @ures_getStringByKey_69(%struct.UResourceBundle* %79, i8* nonnull %63, i32* null, i32* nonnull %3) #7
  %117 = load i32, i32* %3, align 4
  %118 = icmp sgt i32 %117, 0
  %119 = select i1 %118, i16* %97, i16* %116
  %120 = select i1 %118, i8 1, i8 %88
  br label %121

121:                                              ; preds = %87, %115, %99, %84
  %122 = phi i16* [ %85, %84 ], [ %94, %87 ], [ null, %99 ], [ %119, %115 ]
  %123 = phi i8 [ 1, %84 ], [ %88, %87 ], [ %88, %99 ], [ %120, %115 ]
  call void @ures_close_69(%struct.UResourceBundle* %79) #7
  call void @ures_close_69(%struct.UResourceBundle* %78) #7
  %124 = load i32, i32* %1, align 4
  %125 = icmp sgt i32 %124, 0
  br i1 %125, label %152, label %126

126:                                              ; preds = %121
  call void @umtx_lock_69(%"class.icu_69::UMutex"* bitcast ({ [40 x i8], { { %"class.std::__1::mutex"* } }, %"class.icu_69::UMutex"* }* @_ZL13gZoneMetaLock to %"class.icu_69::UMutex"*)) #7
  %127 = load %struct.UHashtable*, %struct.UHashtable** @_ZL17gCanonicalIDCache, align 8
  %128 = call i8* @uhash_get_69(%struct.UHashtable* %127, i8* nonnull %48) #7
  %129 = icmp eq i8* %128, null
  br i1 %129, label %130, label %138

130:                                              ; preds = %126
  %131 = call i16* @_ZN6icu_698TimeZone6findIDERKNS_13UnicodeStringE(%"class.icu_69::UnicodeString"* dereferenceable(64) %0) #7
  %132 = icmp eq i16* %131, null
  br i1 %132, label %138, label %133

133:                                              ; preds = %130
  %134 = load %struct.UHashtable*, %struct.UHashtable** @_ZL17gCanonicalIDCache, align 8
  %135 = bitcast i16* %131 to i8*
  %136 = bitcast i16* %122 to i8*
  %137 = call i8* @uhash_put_69(%struct.UHashtable* %134, i8* nonnull %135, i8* %136, i32* %1) #7
  br label %138

138:                                              ; preds = %133, %130, %126
  %139 = load i32, i32* %1, align 4
  %140 = icmp slt i32 %139, 1
  %141 = icmp ne i8 %123, 0
  %142 = and i1 %141, %140
  br i1 %142, label %143, label %151

143:                                              ; preds = %138
  %144 = load %struct.UHashtable*, %struct.UHashtable** @_ZL17gCanonicalIDCache, align 8
  %145 = bitcast i16* %122 to i8*
  %146 = call i8* @uhash_get_69(%struct.UHashtable* %144, i8* %145) #7
  %147 = icmp eq i8* %146, null
  br i1 %147, label %148, label %151

148:                                              ; preds = %143
  %149 = load %struct.UHashtable*, %struct.UHashtable** @_ZL17gCanonicalIDCache, align 8
  %150 = call i8* @uhash_put_69(%struct.UHashtable* %149, i8* %145, i8* %145, i32* %1) #7
  br label %151

151:                                              ; preds = %143, %148, %138
  call void @umtx_unlock_69(%"class.icu_69::UMutex"* bitcast ({ [40 x i8], { { %"class.std::__1::mutex"* } }, %"class.icu_69::UMutex"* }* @_ZL13gZoneMetaLock to %"class.icu_69::UMutex"*)) #7
  br label %152

152:                                              ; preds = %121, %151
  call void @llvm.lifetime.end.p0i8(i64 129, i8* nonnull %63) #7
  br label %153

153:                                              ; preds = %152, %60, %55
  %154 = phi i16* [ %61, %60 ], [ %122, %152 ], [ null, %55 ]
  call void @llvm.lifetime.end.p0i8(i64 258, i8* nonnull %48) #7
  call void @llvm.lifetime.end.p0i8(i64 4, i8* nonnull %47) #7
  br label %155

155:                                              ; preds = %42, %43, %2, %153, %22
  %156 = phi i16* [ null, %22 ], [ %154, %153 ], [ null, %2 ], [ null, %43 ], [ null, %42 ]
  ret i16* %156
}

; Function Attrs: argmemonly nounwind
declare void @llvm.lifetime.start.p0i8(i64 immarg, i8* nocapture) #1

; Function Attrs: argmemonly nounwind
declare void @llvm.memset.p0i8.i64(i8* nocapture writeonly, i8, i64, i1 immarg) #1

declare i32 @_ZNK6icu_6913UnicodeString7extractENS_9Char16PtrEiR10UErrorCode(%"class.icu_69::UnicodeString"*, %"class.icu_69::Char16Ptr"*, i32, i32* dereferenceable(4)) local_unnamed_addr #2

declare signext i8 @uprv_isInvariantUString_69(i16*, i32) local_unnamed_addr #2

declare void @umtx_lock_69(%"class.icu_69::UMutex"*) local_unnamed_addr #2

declare i8* @uhash_get_69(%struct.UHashtable*, i8*) local_unnamed_addr #2

declare void @umtx_unlock_69(%"class.icu_69::UMutex"*) local_unnamed_addr #2

declare i32 @_ZNK6icu_6913UnicodeString7extractEiiPciNS0_10EInvariantE(%"class.icu_69::UnicodeString"*, i32, i32, i8*, i32, i32) local_unnamed_addr #2

declare %struct.UResourceBundle* @ures_openDirect_69(i8*, i8*, i32*) local_unnamed_addr #2

declare %struct.UResourceBundle* @ures_getByKey_69(%struct.UResourceBundle*, i8*, %struct.UResourceBundle*, i32*) local_unnamed_addr #2

declare i16* @_ZN6icu_698TimeZone6findIDERKNS_13UnicodeStringE(%"class.icu_69::UnicodeString"* dereferenceable(64)) local_unnamed_addr #2

declare i16* @ures_getStringByKey_69(%struct.UResourceBundle*, i8*, i32*, i32*) local_unnamed_addr #2

declare i16* @_ZN6icu_698TimeZone16dereferOlsonLinkERKNS_13UnicodeStringE(%"class.icu_69::UnicodeString"* dereferenceable(64)) local_unnamed_addr #2

declare i32 @u_strlen_69(i16*) local_unnamed_addr #2

declare void @u_UCharsToChars_69(i16*, i8*, i32) local_unnamed_addr #2

; Function Attrs: argmemonly nounwind
declare void @llvm.lifetime.end.p0i8(i64 immarg, i8* nocapture) #1

declare void @ures_close_69(%struct.UResourceBundle*) local_unnamed_addr #2

; Function Attrs: nounwind ssp uwtable
define hidden i16* @_ZN6icu_698ZoneMeta14findTimeZoneIDERKNS_13UnicodeStringE(%"class.icu_69::UnicodeString"* dereferenceable(64)) local_unnamed_addr #0 align 2 {
  %2 = tail call i16* @_ZN6icu_698TimeZone6findIDERKNS_13UnicodeStringE(%"class.icu_69::UnicodeString"* dereferenceable(64) %0) #7
  ret i16* %2
}

declare i8* @uhash_put_69(%struct.UHashtable*, i8*, i8*, i32*) local_unnamed_addr #2

; Function Attrs: nounwind ssp uwtable
define hidden dereferenceable(64) %"class.icu_69::UnicodeString"* @_ZN6icu_698ZoneMeta18getCanonicalCLDRIDERKNS_13UnicodeStringERS1_R10UErrorCode(%"class.icu_69::UnicodeString"* dereferenceable(64), %"class.icu_69::UnicodeString"* returned dereferenceable(64), i32* dereferenceable(4)) local_unnamed_addr #0 align 2 {
  %4 = alloca %"class.icu_69::ConstChar16Ptr", align 8
  %5 = tail call i16* @_ZN6icu_698ZoneMeta18getCanonicalCLDRIDERKNS_13UnicodeStringER10UErrorCode(%"class.icu_69::UnicodeString"* dereferenceable(64) %0, i32* dereferenceable(4) %2)
  %6 = load i32, i32* %2, align 4
  %7 = icmp sgt i32 %6, 0
  %8 = icmp eq i16* %5, null
  %9 = or i1 %8, %7
  br i1 %9, label %10, label %11

10:                                               ; preds = %3
  tail call void @_ZN6icu_6913UnicodeString10setToBogusEv(%"class.icu_69::UnicodeString"* %1) #7
  br label %15

11:                                               ; preds = %3
  %12 = getelementptr inbounds %"class.icu_69::ConstChar16Ptr", %"class.icu_69::ConstChar16Ptr"* %4, i64 0, i32 0
  store i16* %5, i16** %12, align 8
  %13 = call dereferenceable(64) %"class.icu_69::UnicodeString"* @_ZN6icu_6913UnicodeString5setToEaNS_14ConstChar16PtrEi(%"class.icu_69::UnicodeString"* %1, i8 signext 1, %"class.icu_69::ConstChar16Ptr"* nonnull %4, i32 -1) #7
  %14 = load i16*, i16** %12, align 8
  call void asm sideeffect "", "rm,~{memory},~{dirflag},~{fpsr},~{flags}"(i16* %14) #7, !srcloc !3
  br label %15

15:                                               ; preds = %11, %10
  ret %"class.icu_69::UnicodeString"* %1
}

declare void @_ZN6icu_6913UnicodeString10setToBogusEv(%"class.icu_69::UnicodeString"*) local_unnamed_addr #2

declare dereferenceable(64) %"class.icu_69::UnicodeString"* @_ZN6icu_6913UnicodeString5setToEaNS_14ConstChar16PtrEi(%"class.icu_69::UnicodeString"*, i8 signext, %"class.icu_69::ConstChar16Ptr"*, i32) local_unnamed_addr #2

; Function Attrs: nounwind ssp uwtable
define hidden i16* @_ZN6icu_698ZoneMeta18getCanonicalCLDRIDERKNS_8TimeZoneE(%"class.icu_69::TimeZone"* dereferenceable(72)) local_unnamed_addr #0 align 2 {
  %2 = alloca i32, align 4
  %3 = alloca %"class.icu_69::UnicodeString", align 8
  %4 = icmp eq %"class.icu_69::TimeZone"* %0, null
  br i1 %4, label %13, label %5

5:                                                ; preds = %1
  %6 = bitcast %"class.icu_69::TimeZone"* %0 to i8*
  %7 = tail call i8* @__dynamic_cast(i8* nonnull %6, i8* bitcast (i8** @_ZTIN6icu_698TimeZoneE to i8*), i8* bitcast (i8** @_ZTIN6icu_6913OlsonTimeZoneE to i8*), i64 0) #7
  %8 = icmp eq i8* %7, null
  br i1 %8, label %13, label %9

9:                                                ; preds = %5
  %10 = getelementptr inbounds %"class.icu_69::TimeZone", %"class.icu_69::TimeZone"* %0, i64 2, i32 1
  %11 = bitcast %"class.icu_69::UnicodeString"* %10 to i16**
  %12 = load i16*, i16** %11, align 8
  br label %21

13:                                               ; preds = %5, %1
  %14 = bitcast i32* %2 to i8*
  call void @llvm.lifetime.start.p0i8(i64 4, i8* nonnull %14) #7
  store i32 0, i32* %2, align 4
  %15 = bitcast %"class.icu_69::UnicodeString"* %3 to i8*
  call void @llvm.lifetime.start.p0i8(i64 64, i8* nonnull %15) #7
  call void @llvm.memset.p0i8.i64(i8* nonnull align 8 %15, i8 -86, i64 64, i1 false)
  %16 = getelementptr inbounds %"class.icu_69::UnicodeString", %"class.icu_69::UnicodeString"* %3, i64 0, i32 0, i32 0, i32 0
  store i32 (...)** bitcast (i8** getelementptr inbounds ({ [13 x i8*] }, { [13 x i8*] }* @_ZTVN6icu_6913UnicodeStringE, i64 0, inrange i32 0, i64 2) to i32 (...)**), i32 (...)*** %16, align 8
  %17 = getelementptr inbounds %"class.icu_69::UnicodeString", %"class.icu_69::UnicodeString"* %3, i64 0, i32 1, i32 0, i32 0
  store i16 2, i16* %17, align 8
  %18 = getelementptr inbounds %"class.icu_69::TimeZone", %"class.icu_69::TimeZone"* %0, i64 0, i32 1
  %19 = call dereferenceable(64) %"class.icu_69::UnicodeString"* @_ZN6icu_6913UnicodeStringaSERKS0_(%"class.icu_69::UnicodeString"* nonnull %3, %"class.icu_69::UnicodeString"* dereferenceable(64) %18) #7
  %20 = call i16* @_ZN6icu_698ZoneMeta18getCanonicalCLDRIDERKNS_13UnicodeStringER10UErrorCode(%"class.icu_69::UnicodeString"* nonnull dereferenceable(64) %3, i32* nonnull dereferenceable(4) %2)
  call void @_ZN6icu_6913UnicodeStringD1Ev(%"class.icu_69::UnicodeString"* nonnull %3) #7
  call void @llvm.lifetime.end.p0i8(i64 64, i8* nonnull %15) #7
  call void @llvm.lifetime.end.p0i8(i64 4, i8* nonnull %14) #7
  br label %21

21:                                               ; preds = %13, %9
  %22 = phi i16* [ %12, %9 ], [ %20, %13 ]
  ret i16* %22
}

; Function Attrs: nounwind readonly
declare i8* @__dynamic_cast(i8*, i8*, i8*, i64) local_unnamed_addr #3

; Function Attrs: nounwind
declare void @_ZN6icu_6913UnicodeStringD1Ev(%"class.icu_69::UnicodeString"*) unnamed_addr #4

; Function Attrs: nounwind ssp uwtable
define hidden dereferenceable(64) %"class.icu_69::UnicodeString"* @_ZN6icu_698ZoneMeta19getCanonicalCountryERKNS_13UnicodeStringERS1_Pa(%"class.icu_69::UnicodeString"* dereferenceable(64), %"class.icu_69::UnicodeString"* returned dereferenceable(64), i8*) local_unnamed_addr #0 align 2 {
  %4 = alloca [3 x i8], align 1
  %5 = alloca i32, align 4
  %6 = alloca i32, align 4
  %7 = alloca i32, align 4
  %8 = alloca %"class.icu_69::UnicodeString", align 8
  %9 = icmp ne i8* %2, null
  br i1 %9, label %10, label %11

10:                                               ; preds = %3
  store i8 0, i8* %2, align 1
  br label %11

11:                                               ; preds = %10, %3
  %12 = tail call i16* @_ZN6icu_698TimeZone9getRegionERKNS_13UnicodeStringE(%"class.icu_69::UnicodeString"* dereferenceable(64) %0) #7
  %13 = icmp eq i16* %12, null
  br i1 %13, label %27, label %14

14:                                               ; preds = %11
  %15 = tail call i32 @u_strcmp_69(i16* getelementptr inbounds ([4 x i16], [4 x i16]* @_ZN6icu_69L6gWorldE, i64 0, i64 0), i16* nonnull %12) #7
  %16 = icmp eq i32 %15, 0
  br i1 %16, label %27, label %17

17:                                               ; preds = %14
  tail call void @_ZN6icu_6913UnicodeString7unBogusEv(%"class.icu_69::UnicodeString"* %1) #7
  %18 = getelementptr inbounds %"class.icu_69::UnicodeString", %"class.icu_69::UnicodeString"* %1, i64 0, i32 1, i32 0, i32 0
  %19 = load i16, i16* %18, align 8
  %20 = icmp slt i16 %19, 0
  %21 = lshr i16 %19, 5
  %22 = zext i16 %21 to i32
  %23 = getelementptr inbounds %"class.icu_69::UnicodeString", %"class.icu_69::UnicodeString"* %1, i64 0, i32 1, i32 0, i32 1
  %24 = load i32, i32* %23, align 4
  %25 = select i1 %20, i32 %24, i32 %22
  %26 = tail call dereferenceable(64) %"class.icu_69::UnicodeString"* @_ZN6icu_6913UnicodeString9doReplaceEiiPKDsii(%"class.icu_69::UnicodeString"* %1, i32 0, i32 %25, i16* nonnull %12, i32 0, i32 -1) #7
  br i1 %9, label %28, label %168

27:                                               ; preds = %14, %11
  tail call void @_ZN6icu_6913UnicodeString10setToBogusEv(%"class.icu_69::UnicodeString"* %1) #7
  br label %168

28:                                               ; preds = %17
  %29 = getelementptr inbounds [3 x i8], [3 x i8]* %4, i64 0, i64 0
  call void @llvm.lifetime.start.p0i8(i64 3, i8* nonnull %29) #7
  call void @llvm.memset.p0i8.i64(i8* nonnull align 1 %29, i8 0, i64 3, i1 false)
  %30 = bitcast i32* %5 to i8*
  call void @llvm.lifetime.start.p0i8(i64 4, i8* nonnull %30) #7
  store i32 0, i32* %5, align 4
  %31 = load atomic i32, i32* getelementptr inbounds ({ { { i32 } }, i32 }, { { { i32 } }, i32 }* @_ZL27gCountryInfoVectorsInitOnce, i64 0, i32 0, i32 0, i32 0) acquire, align 4
  %32 = icmp eq i32 %31, 2
  br i1 %32, label %71, label %33

33:                                               ; preds = %28
  %34 = tail call signext i8 @_ZN6icu_6920umtx_initImplPreInitERNS_9UInitOnceE(%"struct.icu_69::UInitOnce"* dereferenceable(8) bitcast ({ { { i32 } }, i32 }* @_ZL27gCountryInfoVectorsInitOnce to %"struct.icu_69::UInitOnce"*)) #7
  %35 = icmp eq i8 %34, 0
  br i1 %35, label %71, label %36

36:                                               ; preds = %33
  %37 = tail call i8* @_ZN6icu_697UMemorynwEm(i64 40) #7
  %38 = icmp eq i8* %37, null
  br i1 %38, label %39, label %40

39:                                               ; preds = %36
  store %"class.icu_69::UVector"* null, %"class.icu_69::UVector"** @_ZL20gSingleZoneCountries, align 8
  store i32 7, i32* %5, align 4
  br label %42

40:                                               ; preds = %36
  %41 = bitcast i8* %37 to %"class.icu_69::UVector"*
  call void @_ZN6icu_697UVectorC1EPFvPvEPFa8UElementS4_ER10UErrorCode(%"class.icu_69::UVector"* nonnull %41, void (i8*)* null, i8 (i8*, i8*)* nonnull @uhash_compareUChars_69, i32* nonnull dereferenceable(4) %5) #7
  store i8* %37, i8** bitcast (%"class.icu_69::UVector"** @_ZL20gSingleZoneCountries to i8**), align 8
  br label %42

42:                                               ; preds = %40, %39
  %43 = call i8* @_ZN6icu_697UMemorynwEm(i64 40) #7
  %44 = icmp eq i8* %43, null
  br i1 %44, label %45, label %46

45:                                               ; preds = %42
  store %"class.icu_69::UVector"* null, %"class.icu_69::UVector"** @_ZL20gMultiZonesCountries, align 8
  store i32 7, i32* %5, align 4
  br label %50

46:                                               ; preds = %42
  %47 = bitcast i8* %43 to %"class.icu_69::UVector"*
  call void @_ZN6icu_697UVectorC1EPFvPvEPFa8UElementS4_ER10UErrorCode(%"class.icu_69::UVector"* nonnull %47, void (i8*)* null, i8 (i8*, i8*)* nonnull @uhash_compareUChars_69, i32* nonnull dereferenceable(4) %5) #7
  store i8* %43, i8** bitcast (%"class.icu_69::UVector"** @_ZL20gMultiZonesCountries to i8**), align 8
  %48 = load i32, i32* %5, align 4
  %49 = icmp slt i32 %48, 1
  br i1 %49, label %69, label %50

50:                                               ; preds = %45, %46
  %51 = phi %"class.icu_69::UVector"* [ null, %45 ], [ %47, %46 ]
  %52 = load %"class.icu_69::UVector"*, %"class.icu_69::UVector"** @_ZL20gSingleZoneCountries, align 8
  %53 = icmp eq %"class.icu_69::UVector"* %52, null
  br i1 %53, label %60, label %54

54:                                               ; preds = %50
  %55 = bitcast %"class.icu_69::UVector"* %52 to void (%"class.icu_69::UVector"*)***
  %56 = load void (%"class.icu_69::UVector"*)**, void (%"class.icu_69::UVector"*)*** %55, align 8
  %57 = getelementptr inbounds void (%"class.icu_69::UVector"*)*, void (%"class.icu_69::UVector"*)** %56, i64 1
  %58 = load void (%"class.icu_69::UVector"*)*, void (%"class.icu_69::UVector"*)** %57, align 8
  call void %58(%"class.icu_69::UVector"* nonnull %52) #7
  %59 = load %"class.icu_69::UVector"*, %"class.icu_69::UVector"** @_ZL20gMultiZonesCountries, align 8
  br label %60

60:                                               ; preds = %54, %50
  %61 = phi %"class.icu_69::UVector"* [ %59, %54 ], [ %51, %50 ]
  %62 = icmp eq %"class.icu_69::UVector"* %61, null
  br i1 %62, label %68, label %63

63:                                               ; preds = %60
  %64 = bitcast %"class.icu_69::UVector"* %61 to void (%"class.icu_69::UVector"*)***
  %65 = load void (%"class.icu_69::UVector"*)**, void (%"class.icu_69::UVector"*)*** %64, align 8
  %66 = getelementptr inbounds void (%"class.icu_69::UVector"*)*, void (%"class.icu_69::UVector"*)** %65, i64 1
  %67 = load void (%"class.icu_69::UVector"*)*, void (%"class.icu_69::UVector"*)** %66, align 8
  call void %67(%"class.icu_69::UVector"* nonnull %61) #7
  br label %68

68:                                               ; preds = %63, %60
  store %"class.icu_69::UVector"* null, %"class.icu_69::UVector"** @_ZL20gSingleZoneCountries, align 8
  store %"class.icu_69::UVector"* null, %"class.icu_69::UVector"** @_ZL20gMultiZonesCountries, align 8
  br label %69

69:                                               ; preds = %46, %68
  call void @ucln_i18n_registerCleanup_69(i32 18, i8 ()* nonnull @_ZL16zoneMeta_cleanupv) #7
  %70 = load i32, i32* %5, align 4
  store i32 %70, i32* getelementptr inbounds ({ { { i32 } }, i32 }, { { { i32 } }, i32 }* @_ZL27gCountryInfoVectorsInitOnce, i64 0, i32 1), align 4
  call void @_ZN6icu_6921umtx_initImplPostInitERNS_9UInitOnceE(%"struct.icu_69::UInitOnce"* dereferenceable(8) bitcast ({ { { i32 } }, i32 }* @_ZL27gCountryInfoVectorsInitOnce to %"struct.icu_69::UInitOnce"*)) #7
  br label %75

71:                                               ; preds = %33, %28
  %72 = load i32, i32* getelementptr inbounds ({ { { i32 } }, i32 }, { { { i32 } }, i32 }* @_ZL27gCountryInfoVectorsInitOnce, i64 0, i32 1), align 4
  %73 = icmp slt i32 %72, 1
  br i1 %73, label %75, label %74

74:                                               ; preds = %71
  store i32 %72, i32* %5, align 4
  br label %167

75:                                               ; preds = %69, %71
  %76 = load i32, i32* %5, align 4
  %77 = icmp slt i32 %76, 1
  br i1 %77, label %78, label %167

78:                                               ; preds = %75
  call void @umtx_lock_69(%"class.icu_69::UMutex"* bitcast ({ [40 x i8], { { %"class.std::__1::mutex"* } }, %"class.icu_69::UMutex"* }* @_ZL13gZoneMetaLock to %"class.icu_69::UMutex"*)) #7
  %79 = load %"class.icu_69::UVector"*, %"class.icu_69::UVector"** @_ZL20gSingleZoneCountries, align 8
  %80 = bitcast i16* %12 to i8*
  %81 = call i32 @_ZNK6icu_697UVector7indexOfEPvi(%"class.icu_69::UVector"* %79, i8* nonnull %80, i32 0) #7
  %82 = icmp slt i32 %81, 0
  br i1 %82, label %83, label %120

83:                                               ; preds = %78
  %84 = load %"class.icu_69::UVector"*, %"class.icu_69::UVector"** @_ZL20gMultiZonesCountries, align 8
  %85 = call i32 @_ZNK6icu_697UVector7indexOfEPvi(%"class.icu_69::UVector"* %84, i8* nonnull %80, i32 0) #7
  call void @umtx_unlock_69(%"class.icu_69::UMutex"* bitcast ({ [40 x i8], { { %"class.std::__1::mutex"* } }, %"class.icu_69::UMutex"* }* @_ZL13gZoneMetaLock to %"class.icu_69::UMutex"*)) #7
  %86 = icmp slt i32 %85, 0
  br i1 %86, label %87, label %121

87:                                               ; preds = %83
  call void @u_UCharsToChars_69(i16* nonnull %12, i8* nonnull %29, i32 2) #7
  %88 = call %"class.icu_69::StringEnumeration"* @_ZN6icu_698TimeZone27createTimeZoneIDEnumerationE19USystemTimeZoneTypePKcPKiR10UErrorCode(i32 2, i8* nonnull %29, i32* null, i32* nonnull dereferenceable(4) %5) #7
  %89 = bitcast %"class.icu_69::StringEnumeration"* %88 to i32 (%"class.icu_69::StringEnumeration"*, i32*)***
  %90 = load i32 (%"class.icu_69::StringEnumeration"*, i32*)**, i32 (%"class.icu_69::StringEnumeration"*, i32*)*** %89, align 8
  %91 = getelementptr inbounds i32 (%"class.icu_69::StringEnumeration"*, i32*)*, i32 (%"class.icu_69::StringEnumeration"*, i32*)** %90, i64 4
  %92 = load i32 (%"class.icu_69::StringEnumeration"*, i32*)*, i32 (%"class.icu_69::StringEnumeration"*, i32*)** %91, align 8
  %93 = call i32 %92(%"class.icu_69::StringEnumeration"* %88, i32* nonnull dereferenceable(4) %5) #7
  %94 = load i32, i32* %5, align 4
  %95 = icmp sgt i32 %94, 0
  %96 = icmp ne i32 %93, 1
  %97 = icmp eq %"class.icu_69::StringEnumeration"* %88, null
  br i1 %97, label %103, label %98

98:                                               ; preds = %87
  %99 = bitcast %"class.icu_69::StringEnumeration"* %88 to void (%"class.icu_69::StringEnumeration"*)***
  %100 = load void (%"class.icu_69::StringEnumeration"*)**, void (%"class.icu_69::StringEnumeration"*)*** %99, align 8
  %101 = getelementptr inbounds void (%"class.icu_69::StringEnumeration"*)*, void (%"class.icu_69::StringEnumeration"*)** %100, i64 1
  %102 = load void (%"class.icu_69::StringEnumeration"*)*, void (%"class.icu_69::StringEnumeration"*)** %101, align 8
  call void %102(%"class.icu_69::StringEnumeration"* nonnull %88) #7
  br label %103

103:                                              ; preds = %98, %87
  call void @umtx_lock_69(%"class.icu_69::UMutex"* bitcast ({ [40 x i8], { { %"class.std::__1::mutex"* } }, %"class.icu_69::UMutex"* }* @_ZL13gZoneMetaLock to %"class.icu_69::UMutex"*)) #7
  %104 = bitcast i32* %6 to i8*
  call void @llvm.lifetime.start.p0i8(i64 4, i8* nonnull %104) #7
  store i32 0, i32* %6, align 4
  %105 = or i1 %95, %96
  br i1 %105, label %112, label %106

106:                                              ; preds = %103
  %107 = load %"class.icu_69::UVector"*, %"class.icu_69::UVector"** @_ZL20gSingleZoneCountries, align 8
  %108 = call i32 @_ZNK6icu_697UVector7indexOfEPvi(%"class.icu_69::UVector"* %107, i8* nonnull %80, i32 0) #7
  %109 = icmp slt i32 %108, 0
  br i1 %109, label %110, label %119

110:                                              ; preds = %106
  %111 = load %"class.icu_69::UVector"*, %"class.icu_69::UVector"** @_ZL20gSingleZoneCountries, align 8
  call void @_ZN6icu_697UVector10addElementEPvR10UErrorCode(%"class.icu_69::UVector"* %111, i8* nonnull %80, i32* nonnull dereferenceable(4) %6) #7
  br label %119

112:                                              ; preds = %103
  %113 = load %"class.icu_69::UVector"*, %"class.icu_69::UVector"** @_ZL20gMultiZonesCountries, align 8
  %114 = call i32 @_ZNK6icu_697UVector7indexOfEPvi(%"class.icu_69::UVector"* %113, i8* nonnull %80, i32 0) #7
  %115 = icmp slt i32 %114, 0
  br i1 %115, label %116, label %118

116:                                              ; preds = %112
  %117 = load %"class.icu_69::UVector"*, %"class.icu_69::UVector"** @_ZL20gMultiZonesCountries, align 8
  call void @_ZN6icu_697UVector10addElementEPvR10UErrorCode(%"class.icu_69::UVector"* %117, i8* nonnull %80, i32* nonnull dereferenceable(4) %6) #7
  br label %118

118:                                              ; preds = %116, %112
  call void @llvm.lifetime.end.p0i8(i64 4, i8* nonnull %104) #7
  call void @umtx_unlock_69(%"class.icu_69::UMutex"* bitcast ({ [40 x i8], { { %"class.std::__1::mutex"* } }, %"class.icu_69::UMutex"* }* @_ZL13gZoneMetaLock to %"class.icu_69::UMutex"*)) #7
  br label %121

119:                                              ; preds = %110, %106
  call void @llvm.lifetime.end.p0i8(i64 4, i8* nonnull %104) #7
  br label %120

120:                                              ; preds = %78, %119
  call void @umtx_unlock_69(%"class.icu_69::UMutex"* bitcast ({ [40 x i8], { { %"class.std::__1::mutex"* } }, %"class.icu_69::UMutex"* }* @_ZL13gZoneMetaLock to %"class.icu_69::UMutex"*)) #7
  store i8 1, i8* %2, align 1
  br label %166

121:                                              ; preds = %118, %83
  %122 = bitcast i32* %7 to i8*
  call void @llvm.lifetime.start.p0i8(i64 4, i8* nonnull %122) #7
  store i32 0, i32* %7, align 4
  %123 = load i8, i8* %29, align 1
  %124 = icmp eq i8 %123, 0
  br i1 %124, label %125, label %126

125:                                              ; preds = %121
  call void @u_UCharsToChars_69(i16* nonnull %12, i8* nonnull %29, i32 2) #7
  br label %126

126:                                              ; preds = %125, %121
  %127 = call %struct.UResourceBundle* @ures_openDirect_69(i8* null, i8* getelementptr inbounds ([10 x i8], [10 x i8]* @_ZN6icu_69L10gMetaZonesE, i64 0, i64 0), i32* nonnull %5) #7
  %128 = call %struct.UResourceBundle* @ures_getByKey_69(%struct.UResourceBundle* %127, i8* getelementptr inbounds ([13 x i8], [13 x i8]* @_ZN6icu_69L16gPrimaryZonesTagE, i64 0, i64 0), %struct.UResourceBundle* %127, i32* nonnull %5) #7
  %129 = call i16* @ures_getStringByKey_69(%struct.UResourceBundle* %127, i8* nonnull %29, i32* nonnull %7, i32* nonnull %5) #7
  %130 = load i32, i32* %5, align 4
  %131 = icmp sgt i32 %130, 0
  br i1 %131, label %165, label %132

132:                                              ; preds = %126
  %133 = load i32, i32* %7, align 4
  %134 = getelementptr inbounds %"class.icu_69::UnicodeString", %"class.icu_69::UnicodeString"* %0, i64 0, i32 1, i32 0, i32 0
  %135 = load i16, i16* %134, align 8
  %136 = icmp slt i16 %135, 0
  %137 = lshr i16 %135, 5
  %138 = zext i16 %137 to i32
  %139 = getelementptr inbounds %"class.icu_69::UnicodeString", %"class.icu_69::UnicodeString"* %0, i64 0, i32 1, i32 0, i32 1
  %140 = load i32, i32* %139, align 4
  %141 = select i1 %136, i32 %140, i32 %138
  %142 = call signext i8 @_ZNK6icu_6913UnicodeString9doCompareEiiPKDsii(%"class.icu_69::UnicodeString"* %0, i32 0, i32 %141, i16* %129, i32 0, i32 %133) #7
  %143 = icmp eq i8 %142, 0
  call void asm sideeffect "", "rm,~{memory},~{dirflag},~{fpsr},~{flags}"(i16* %129) #7, !srcloc !3
  br i1 %143, label %144, label %145

144:                                              ; preds = %132
  store i8 1, i8* %2, align 1
  br label %165

145:                                              ; preds = %132
  %146 = bitcast %"class.icu_69::UnicodeString"* %8 to i8*
  call void @llvm.lifetime.start.p0i8(i64 64, i8* nonnull %146) #7
  call void @llvm.memset.p0i8.i64(i8* nonnull align 8 %146, i8 -86, i64 64, i1 false)
  %147 = getelementptr inbounds %"class.icu_69::UnicodeString", %"class.icu_69::UnicodeString"* %8, i64 0, i32 0, i32 0, i32 0
  store i32 (...)** bitcast (i8** getelementptr inbounds ({ [13 x i8*] }, { [13 x i8*] }* @_ZTVN6icu_6913UnicodeStringE, i64 0, inrange i32 0, i64 2) to i32 (...)**), i32 (...)*** %147, align 8
  %148 = getelementptr inbounds %"class.icu_69::UnicodeString", %"class.icu_69::UnicodeString"* %8, i64 0, i32 1, i32 0, i32 0
  store i16 2, i16* %148, align 8
  %149 = call dereferenceable(64) %"class.icu_69::UnicodeString"* @_ZN6icu_698TimeZone14getCanonicalIDERKNS_13UnicodeStringERS1_R10UErrorCode(%"class.icu_69::UnicodeString"* dereferenceable(64) %0, %"class.icu_69::UnicodeString"* nonnull dereferenceable(64) %8, i32* nonnull dereferenceable(4) %5) #7
  %150 = load i32, i32* %5, align 4
  %151 = icmp sgt i32 %150, 0
  br i1 %151, label %164, label %152

152:                                              ; preds = %145
  %153 = load i32, i32* %7, align 4
  %154 = load i16, i16* %148, align 8
  %155 = icmp slt i16 %154, 0
  %156 = lshr i16 %154, 5
  %157 = zext i16 %156 to i32
  %158 = getelementptr inbounds %"class.icu_69::UnicodeString", %"class.icu_69::UnicodeString"* %8, i64 0, i32 1, i32 0, i32 1
  %159 = load i32, i32* %158, align 4
  %160 = select i1 %155, i32 %159, i32 %157
  %161 = call signext i8 @_ZNK6icu_6913UnicodeString9doCompareEiiPKDsii(%"class.icu_69::UnicodeString"* nonnull %8, i32 0, i32 %160, i16* %129, i32 0, i32 %153) #7
  %162 = icmp eq i8 %161, 0
  call void asm sideeffect "", "rm,~{memory},~{dirflag},~{fpsr},~{flags}"(i16* %129) #7, !srcloc !3
  br i1 %162, label %163, label %164

163:                                              ; preds = %152
  store i8 1, i8* %2, align 1
  br label %164

164:                                              ; preds = %145, %163, %152
  call void @_ZN6icu_6913UnicodeStringD1Ev(%"class.icu_69::UnicodeString"* nonnull %8) #7
  call void @llvm.lifetime.end.p0i8(i64 64, i8* nonnull %146) #7
  br label %165

165:                                              ; preds = %126, %144, %164
  call void @ures_close_69(%struct.UResourceBundle* %127) #7
  call void @llvm.lifetime.end.p0i8(i64 4, i8* nonnull %122) #7
  br label %166

166:                                              ; preds = %120, %165
  call void @llvm.lifetime.end.p0i8(i64 4, i8* nonnull %30) #7
  call void @llvm.lifetime.end.p0i8(i64 3, i8* nonnull %29) #7
  br label %168

167:                                              ; preds = %74, %75
  call void @llvm.lifetime.end.p0i8(i64 4, i8* nonnull %30) #7
  call void @llvm.lifetime.end.p0i8(i64 3, i8* nonnull %29) #7
  br label %168

168:                                              ; preds = %17, %166, %167, %27
  ret %"class.icu_69::UnicodeString"* %1
}

declare i16* @_ZN6icu_698TimeZone9getRegionERKNS_13UnicodeStringE(%"class.icu_69::UnicodeString"* dereferenceable(64)) local_unnamed_addr #2

declare i32 @u_strcmp_69(i16*, i16*) local_unnamed_addr #2

declare %"class.icu_69::StringEnumeration"* @_ZN6icu_698TimeZone27createTimeZoneIDEnumerationE19USystemTimeZoneTypePKcPKiR10UErrorCode(i32, i8*, i32*, i32* dereferenceable(4)) local_unnamed_addr #2

declare void @_ZN6icu_697UVector10addElementEPvR10UErrorCode(%"class.icu_69::UVector"*, i8*, i32* dereferenceable(4)) local_unnamed_addr #2

declare dereferenceable(64) %"class.icu_69::UnicodeString"* @_ZN6icu_698TimeZone14getCanonicalIDERKNS_13UnicodeStringERS1_R10UErrorCode(%"class.icu_69::UnicodeString"* dereferenceable(64), %"class.icu_69::UnicodeString"* dereferenceable(64), i32* dereferenceable(4)) local_unnamed_addr #2

; Function Attrs: nounwind ssp uwtable
define hidden dereferenceable(64) %"class.icu_69::UnicodeString"* @_ZN6icu_698ZoneMeta13getMetazoneIDERKNS_13UnicodeStringEdRS1_(%"class.icu_69::UnicodeString"* dereferenceable(64), double, %"class.icu_69::UnicodeString"* returned dereferenceable(64)) local_unnamed_addr #0 align 2 {
  %4 = tail call %"class.icu_69::UVector"* @_ZN6icu_698ZoneMeta19getMetazoneMappingsERKNS_13UnicodeStringE(%"class.icu_69::UnicodeString"* dereferenceable(64) %0)
  %5 = icmp eq %"class.icu_69::UVector"* %4, null
  br i1 %5, label %38, label %6

6:                                                ; preds = %3
  %7 = getelementptr inbounds %"class.icu_69::UVector", %"class.icu_69::UVector"* %4, i64 0, i32 1
  %8 = load i32, i32* %7, align 8
  %9 = icmp sgt i32 %8, 0
  br i1 %9, label %10, label %38

10:                                               ; preds = %6, %34
  %11 = phi i32 [ %35, %34 ], [ 0, %6 ]
  %12 = tail call i8* @_ZNK6icu_697UVector9elementAtEi(%"class.icu_69::UVector"* nonnull %4, i32 %11) #7
  %13 = getelementptr inbounds i8, i8* %12, i64 8
  %14 = bitcast i8* %13 to double*
  %15 = load double, double* %14, align 8
  %16 = fcmp ugt double %15, %1
  br i1 %16, label %34, label %17

17:                                               ; preds = %10
  %18 = getelementptr inbounds i8, i8* %12, i64 16
  %19 = bitcast i8* %18 to double*
  %20 = load double, double* %19, align 8
  %21 = fcmp ogt double %20, %1
  br i1 %21, label %22, label %34

22:                                               ; preds = %17
  %23 = bitcast i8* %12 to i16**
  %24 = load i16*, i16** %23, align 8
  tail call void @_ZN6icu_6913UnicodeString7unBogusEv(%"class.icu_69::UnicodeString"* %2) #7
  %25 = getelementptr inbounds %"class.icu_69::UnicodeString", %"class.icu_69::UnicodeString"* %2, i64 0, i32 1, i32 0, i32 0
  %26 = load i16, i16* %25, align 8
  %27 = icmp slt i16 %26, 0
  %28 = lshr i16 %26, 5
  %29 = zext i16 %28 to i32
  %30 = getelementptr inbounds %"class.icu_69::UnicodeString", %"class.icu_69::UnicodeString"* %2, i64 0, i32 1, i32 0, i32 1
  %31 = load i32, i32* %30, align 4
  %32 = select i1 %27, i32 %31, i32 %29
  %33 = tail call dereferenceable(64) %"class.icu_69::UnicodeString"* @_ZN6icu_6913UnicodeString9doReplaceEiiPKDsii(%"class.icu_69::UnicodeString"* %2, i32 0, i32 %32, i16* %24, i32 0, i32 -1) #7
  br label %39

34:                                               ; preds = %10, %17
  %35 = add nuw nsw i32 %11, 1
  %36 = load i32, i32* %7, align 8
  %37 = icmp slt i32 %35, %36
  br i1 %37, label %10, label %38

38:                                               ; preds = %34, %6, %3
  tail call void @_ZN6icu_6913UnicodeString10setToBogusEv(%"class.icu_69::UnicodeString"* %2) #7
  br label %39

39:                                               ; preds = %22, %38
  ret %"class.icu_69::UnicodeString"* %2
}

; Function Attrs: nounwind ssp uwtable
define hidden %"class.icu_69::UVector"* @_ZN6icu_698ZoneMeta19getMetazoneMappingsERKNS_13UnicodeStringE(%"class.icu_69::UnicodeString"* dereferenceable(64)) local_unnamed_addr #0 align 2 {
  %2 = alloca i32, align 4
  %3 = alloca [129 x i16], align 16
  %4 = alloca %"class.icu_69::Char16Ptr", align 8
  %5 = alloca %"class.icu_69::Char16Ptr", align 8
  %6 = bitcast i32* %2 to i8*
  call void @llvm.lifetime.start.p0i8(i64 4, i8* nonnull %6) #7
  store i32 0, i32* %2, align 4
  %7 = bitcast [129 x i16]* %3 to i8*
  call void @llvm.lifetime.start.p0i8(i64 258, i8* nonnull %7) #7
  call void @llvm.memset.p0i8.i64(i8* nonnull align 16 %7, i8 -86, i64 258, i1 false)
  %8 = getelementptr inbounds [129 x i16], [129 x i16]* %3, i64 0, i64 0
  %9 = getelementptr inbounds %"class.icu_69::Char16Ptr", %"class.icu_69::Char16Ptr"* %4, i64 0, i32 0
  store i16* %8, i16** %9, align 8
  %10 = call i32 @_ZNK6icu_6913UnicodeString7extractENS_9Char16PtrEiR10UErrorCode(%"class.icu_69::UnicodeString"* %0, %"class.icu_69::Char16Ptr"* nonnull %4, i32 129, i32* nonnull dereferenceable(4) %2) #7
  %11 = load i16*, i16** %9, align 8
  call void asm sideeffect "", "rm,~{memory},~{dirflag},~{fpsr},~{flags}"(i16* %11) #7, !srcloc !2
  %12 = load i32, i32* %2, align 4
  %13 = icmp sgt i32 %12, 0
  %14 = icmp eq i32 %12, -124
  %15 = or i1 %13, %14
  br i1 %15, label %96, label %16

16:                                               ; preds = %1
  %17 = load atomic i32, i32* getelementptr inbounds ({ { { i32 } }, i32 }, { { { i32 } }, i32 }* @_ZL20gOlsonToMetaInitOnce, i64 0, i32 0, i32 0, i32 0) acquire, align 4
  %18 = icmp eq i32 %17, 2
  br i1 %18, label %34, label %19

19:                                               ; preds = %16
  %20 = call signext i8 @_ZN6icu_6920umtx_initImplPreInitERNS_9UInitOnceE(%"struct.icu_69::UInitOnce"* dereferenceable(8) bitcast ({ { { i32 } }, i32 }* @_ZL20gOlsonToMetaInitOnce to %"struct.icu_69::UInitOnce"*)) #7
  %21 = icmp eq i8 %20, 0
  br i1 %21, label %34, label %22

22:                                               ; preds = %19
  call void @ucln_i18n_registerCleanup_69(i32 18, i8 ()* nonnull @_ZL16zoneMeta_cleanupv) #7
  %23 = call %struct.UHashtable* @uhash_open_69(i32 (i8*)* nonnull @uhash_hashUChars_69, i8 (i8*, i8*)* nonnull @uhash_compareUChars_69, i8 (i8*, i8*)* null, i32* nonnull %2) #7
  store %struct.UHashtable* %23, %struct.UHashtable** @_ZL12gOlsonToMeta, align 8
  %24 = load i32, i32* %2, align 4
  %25 = icmp slt i32 %24, 1
  br i1 %25, label %27, label %26

26:                                               ; preds = %22
  store %struct.UHashtable* null, %struct.UHashtable** @_ZL12gOlsonToMeta, align 8
  br label %32

27:                                               ; preds = %22
  %28 = call void (i8*)* @uhash_setKeyDeleter_69(%struct.UHashtable* %23, void (i8*)* nonnull @_ZL17deleteUCharStringPv) #7
  %29 = load %struct.UHashtable*, %struct.UHashtable** @_ZL12gOlsonToMeta, align 8
  %30 = call void (i8*)* @uhash_setValueDeleter_69(%struct.UHashtable* %29, void (i8*)* nonnull @_ZL13deleteUVectorPv) #7
  %31 = load i32, i32* %2, align 4
  br label %32

32:                                               ; preds = %26, %27
  %33 = phi i32 [ %24, %26 ], [ %31, %27 ]
  store i32 %33, i32* getelementptr inbounds ({ { { i32 } }, i32 }, { { { i32 } }, i32 }* @_ZL20gOlsonToMetaInitOnce, i64 0, i32 1), align 4
  call void @_ZN6icu_6921umtx_initImplPostInitERNS_9UInitOnceE(%"struct.icu_69::UInitOnce"* dereferenceable(8) bitcast ({ { { i32 } }, i32 }* @_ZL20gOlsonToMetaInitOnce to %"struct.icu_69::UInitOnce"*)) #7
  br label %38

34:                                               ; preds = %19, %16
  %35 = load i32, i32* getelementptr inbounds ({ { { i32 } }, i32 }, { { { i32 } }, i32 }* @_ZL20gOlsonToMetaInitOnce, i64 0, i32 1), align 4
  %36 = icmp slt i32 %35, 1
  br i1 %36, label %38, label %37

37:                                               ; preds = %34
  store i32 %35, i32* %2, align 4
  br label %96

38:                                               ; preds = %32, %34
  %39 = load i32, i32* %2, align 4
  %40 = icmp slt i32 %39, 1
  br i1 %40, label %41, label %96

41:                                               ; preds = %38
  call void @umtx_lock_69(%"class.icu_69::UMutex"* bitcast ({ [40 x i8], { { %"class.std::__1::mutex"* } }, %"class.icu_69::UMutex"* }* @_ZL13gZoneMetaLock to %"class.icu_69::UMutex"*)) #7
  %42 = load %struct.UHashtable*, %struct.UHashtable** @_ZL12gOlsonToMeta, align 8
  %43 = call i8* @uhash_get_69(%struct.UHashtable* %42, i8* nonnull %7) #7
  call void @umtx_unlock_69(%"class.icu_69::UMutex"* bitcast ({ [40 x i8], { { %"class.std::__1::mutex"* } }, %"class.icu_69::UMutex"* }* @_ZL13gZoneMetaLock to %"class.icu_69::UMutex"*)) #7
  %44 = icmp eq i8* %43, null
  br i1 %44, label %47, label %45

45:                                               ; preds = %41
  %46 = bitcast i8* %43 to %"class.icu_69::UVector"*
  br label %96

47:                                               ; preds = %41
  %48 = call %"class.icu_69::UVector"* @_ZN6icu_698ZoneMeta22createMetazoneMappingsERKNS_13UnicodeStringE(%"class.icu_69::UnicodeString"* dereferenceable(64) %0)
  %49 = icmp eq %"class.icu_69::UVector"* %48, null
  br i1 %49, label %96, label %50

50:                                               ; preds = %47
  call void @umtx_lock_69(%"class.icu_69::UMutex"* bitcast ({ [40 x i8], { { %"class.std::__1::mutex"* } }, %"class.icu_69::UMutex"* }* @_ZL13gZoneMetaLock to %"class.icu_69::UMutex"*)) #7
  %51 = load %struct.UHashtable*, %struct.UHashtable** @_ZL12gOlsonToMeta, align 8
  %52 = call i8* @uhash_get_69(%struct.UHashtable* %51, i8* nonnull %7) #7
  %53 = icmp eq i8* %52, null
  br i1 %53, label %54, label %88

54:                                               ; preds = %50
  %55 = getelementptr inbounds %"class.icu_69::UnicodeString", %"class.icu_69::UnicodeString"* %0, i64 0, i32 1, i32 0, i32 0
  %56 = load i16, i16* %55, align 8
  %57 = icmp slt i16 %56, 0
  %58 = lshr i16 %56, 5
  %59 = zext i16 %58 to i32
  %60 = getelementptr inbounds %"class.icu_69::UnicodeString", %"class.icu_69::UnicodeString"* %0, i64 0, i32 1, i32 0, i32 1
  %61 = load i32, i32* %60, align 4
  %62 = select i1 %57, i32 %61, i32 %59
  %63 = add nsw i32 %62, 1
  %64 = sext i32 %63 to i64
  %65 = shl nsw i64 %64, 1
  %66 = call noalias i8* @uprv_malloc_69(i64 %65) #8
  %67 = icmp eq i8* %66, null
  br i1 %67, label %68, label %73

68:                                               ; preds = %54
  %69 = bitcast %"class.icu_69::UVector"* %48 to void (%"class.icu_69::UVector"*)***
  %70 = load void (%"class.icu_69::UVector"*)**, void (%"class.icu_69::UVector"*)*** %69, align 8
  %71 = getelementptr inbounds void (%"class.icu_69::UVector"*)*, void (%"class.icu_69::UVector"*)** %70, i64 1
  %72 = load void (%"class.icu_69::UVector"*)*, void (%"class.icu_69::UVector"*)** %71, align 8
  call void %72(%"class.icu_69::UVector"* nonnull %48) #7
  br label %94

73:                                               ; preds = %54
  %74 = getelementptr inbounds %"class.icu_69::Char16Ptr", %"class.icu_69::Char16Ptr"* %5, i64 0, i32 0
  %75 = bitcast %"class.icu_69::Char16Ptr"* %5 to i8**
  store i8* %66, i8** %75, align 8
  %76 = call i32 @_ZNK6icu_6913UnicodeString7extractENS_9Char16PtrEiR10UErrorCode(%"class.icu_69::UnicodeString"* %0, %"class.icu_69::Char16Ptr"* nonnull %5, i32 %63, i32* nonnull dereferenceable(4) %2) #7
  %77 = load i16*, i16** %74, align 8
  call void asm sideeffect "", "rm,~{memory},~{dirflag},~{fpsr},~{flags}"(i16* %77) #7, !srcloc !2
  %78 = load %struct.UHashtable*, %struct.UHashtable** @_ZL12gOlsonToMeta, align 8
  %79 = bitcast %"class.icu_69::UVector"* %48 to i8*
  %80 = call i8* @uhash_put_69(%struct.UHashtable* %78, i8* nonnull %66, i8* nonnull %79, i32* nonnull %2) #7
  %81 = load i32, i32* %2, align 4
  %82 = icmp slt i32 %81, 1
  br i1 %82, label %94, label %83

83:                                               ; preds = %73
  %84 = bitcast %"class.icu_69::UVector"* %48 to void (%"class.icu_69::UVector"*)***
  %85 = load void (%"class.icu_69::UVector"*)**, void (%"class.icu_69::UVector"*)*** %84, align 8
  %86 = getelementptr inbounds void (%"class.icu_69::UVector"*)*, void (%"class.icu_69::UVector"*)** %85, i64 1
  %87 = load void (%"class.icu_69::UVector"*)*, void (%"class.icu_69::UVector"*)** %86, align 8
  call void %87(%"class.icu_69::UVector"* nonnull %48) #7
  br label %94

88:                                               ; preds = %50
  %89 = bitcast i8* %52 to %"class.icu_69::UVector"*
  %90 = bitcast %"class.icu_69::UVector"* %48 to void (%"class.icu_69::UVector"*)***
  %91 = load void (%"class.icu_69::UVector"*)**, void (%"class.icu_69::UVector"*)*** %90, align 8
  %92 = getelementptr inbounds void (%"class.icu_69::UVector"*)*, void (%"class.icu_69::UVector"*)** %91, i64 1
  %93 = load void (%"class.icu_69::UVector"*)*, void (%"class.icu_69::UVector"*)** %92, align 8
  call void %93(%"class.icu_69::UVector"* nonnull %48) #7
  br label %94

94:                                               ; preds = %68, %83, %73, %88
  %95 = phi %"class.icu_69::UVector"* [ %89, %88 ], [ null, %68 ], [ null, %83 ], [ %48, %73 ]
  call void @umtx_unlock_69(%"class.icu_69::UMutex"* bitcast ({ [40 x i8], { { %"class.std::__1::mutex"* } }, %"class.icu_69::UMutex"* }* @_ZL13gZoneMetaLock to %"class.icu_69::UMutex"*)) #7
  br label %96

96:                                               ; preds = %37, %45, %47, %94, %38, %1
  %97 = phi %"class.icu_69::UVector"* [ null, %1 ], [ null, %38 ], [ %46, %45 ], [ %95, %94 ], [ null, %47 ], [ null, %37 ]
  call void @llvm.lifetime.end.p0i8(i64 258, i8* nonnull %7) #7
  call void @llvm.lifetime.end.p0i8(i64 4, i8* nonnull %6) #7
  ret %"class.icu_69::UVector"* %97
}

declare i8* @_ZNK6icu_697UVector9elementAtEi(%"class.icu_69::UVector"*, i32) local_unnamed_addr #2

; Function Attrs: nounwind ssp uwtable
define hidden %"class.icu_69::UVector"* @_ZN6icu_698ZoneMeta22createMetazoneMappingsERKNS_13UnicodeStringE(%"class.icu_69::UnicodeString"* dereferenceable(64)) local_unnamed_addr #0 align 2 {
  %2 = alloca %"class.icu_69::ConstChar16Ptr", align 8
  %3 = alloca i32, align 4
  %4 = alloca %"class.icu_69::UnicodeString", align 8
  %5 = alloca [129 x i8], align 16
  %6 = bitcast i32* %3 to i8*
  call void @llvm.lifetime.start.p0i8(i64 4, i8* nonnull %6) #7
  store i32 0, i32* %3, align 4
  %7 = bitcast %"class.icu_69::UnicodeString"* %4 to i8*
  call void @llvm.lifetime.start.p0i8(i64 64, i8* nonnull %7) #7
  call void @llvm.memset.p0i8.i64(i8* nonnull align 8 %7, i8 -86, i64 64, i1 false)
  %8 = getelementptr inbounds %"class.icu_69::UnicodeString", %"class.icu_69::UnicodeString"* %4, i64 0, i32 0, i32 0, i32 0
  store i32 (...)** bitcast (i8** getelementptr inbounds ({ [13 x i8*] }, { [13 x i8*] }* @_ZTVN6icu_6913UnicodeStringE, i64 0, inrange i32 0, i64 2) to i32 (...)**), i32 (...)*** %8, align 8
  %9 = getelementptr inbounds %"class.icu_69::UnicodeString", %"class.icu_69::UnicodeString"* %4, i64 0, i32 1, i32 0, i32 0
  store i16 2, i16* %9, align 8
  %10 = call %struct.UResourceBundle* @ures_openDirect_69(i8* null, i8* getelementptr inbounds ([10 x i8], [10 x i8]* @_ZN6icu_69L10gMetaZonesE, i64 0, i64 0), i32* nonnull %3) #7
  %11 = call %struct.UResourceBundle* @ures_getByKey_69(%struct.UResourceBundle* %10, i8* getelementptr inbounds ([13 x i8], [13 x i8]* @_ZN6icu_69L13gMetazoneInfoE, i64 0, i64 0), %struct.UResourceBundle* %10, i32* nonnull %3) #7
  %12 = bitcast %"class.icu_69::ConstChar16Ptr"* %2 to i8*
  call void @llvm.lifetime.start.p0i8(i64 8, i8* nonnull %12)
  %13 = call i16* @_ZN6icu_698ZoneMeta18getCanonicalCLDRIDERKNS_13UnicodeStringER10UErrorCode(%"class.icu_69::UnicodeString"* dereferenceable(64) %0, i32* nonnull dereferenceable(4) %3) #7
  %14 = load i32, i32* %3, align 4
  %15 = icmp sgt i32 %14, 0
  %16 = icmp eq i16* %13, null
  %17 = or i1 %16, %15
  br i1 %17, label %18, label %19

18:                                               ; preds = %1
  call void @_ZN6icu_6913UnicodeString10setToBogusEv(%"class.icu_69::UnicodeString"* nonnull %4) #7
  br label %23

19:                                               ; preds = %1
  %20 = getelementptr inbounds %"class.icu_69::ConstChar16Ptr", %"class.icu_69::ConstChar16Ptr"* %2, i64 0, i32 0
  store i16* %13, i16** %20, align 8
  %21 = call dereferenceable(64) %"class.icu_69::UnicodeString"* @_ZN6icu_6913UnicodeString5setToEaNS_14ConstChar16PtrEi(%"class.icu_69::UnicodeString"* nonnull %4, i8 signext 1, %"class.icu_69::ConstChar16Ptr"* nonnull %2, i32 -1) #7
  %22 = load i16*, i16** %20, align 8
  call void asm sideeffect "", "rm,~{memory},~{dirflag},~{fpsr},~{flags}"(i16* %22) #7, !srcloc !3
  br label %23

23:                                               ; preds = %18, %19
  call void @llvm.lifetime.end.p0i8(i64 8, i8* nonnull %12)
  %24 = load i32, i32* %3, align 4
  %25 = icmp sgt i32 %24, 0
  br i1 %25, label %123, label %26

26:                                               ; preds = %23
  %27 = getelementptr inbounds [129 x i8], [129 x i8]* %5, i64 0, i64 0
  call void @llvm.lifetime.start.p0i8(i64 129, i8* nonnull %27) #7
  call void @llvm.memset.p0i8.i64(i8* nonnull align 16 %27, i8 -86, i64 129, i1 false)
  %28 = load i16, i16* %9, align 8
  %29 = icmp slt i16 %28, 0
  %30 = lshr i16 %28, 5
  %31 = zext i16 %30 to i32
  %32 = getelementptr inbounds %"class.icu_69::UnicodeString", %"class.icu_69::UnicodeString"* %4, i64 0, i32 1, i32 0, i32 1
  %33 = load i32, i32* %32, align 4
  %34 = select i1 %29, i32 %33, i32 %31
  %35 = call i32 @_ZNK6icu_6913UnicodeString7extractEiiPciNS0_10EInvariantE(%"class.icu_69::UnicodeString"* nonnull %4, i32 0, i32 %34, i8* nonnull %27, i32 129, i32 0) #7
  %36 = sext i32 %35 to i64
  %37 = getelementptr inbounds [129 x i8], [129 x i8]* %5, i64 0, i64 %36
  store i8 0, i8* %37, align 1
  br label %38

38:                                               ; preds = %42, %26
  %39 = phi i8* [ %27, %26 ], [ %43, %42 ]
  %40 = load i8, i8* %39, align 1
  switch i8 %40, label %42 [
    i8 0, label %44
    i8 47, label %41
  ]

41:                                               ; preds = %38
  store i8 58, i8* %39, align 1
  br label %42

42:                                               ; preds = %38, %41
  %43 = getelementptr inbounds i8, i8* %39, i64 1
  br label %38

44:                                               ; preds = %38
  %45 = call %struct.UResourceBundle* @ures_getByKey_69(%struct.UResourceBundle* %10, i8* nonnull %27, %struct.UResourceBundle* %10, i32* nonnull %3) #7
  %46 = load i32, i32* %3, align 4
  %47 = icmp sgt i32 %46, 0
  br i1 %47, label %121, label %48

48:                                               ; preds = %44
  %49 = call signext i8 @ures_hasNext_69(%struct.UResourceBundle* %10) #7
  %50 = icmp eq i8 %49, 0
  br i1 %50, label %109, label %51

51:                                               ; preds = %48, %105
  %52 = phi %struct.UResourceBundle* [ %54, %105 ], [ null, %48 ]
  %53 = phi %"class.icu_69::UVector"* [ %106, %105 ], [ null, %48 ]
  %54 = call %struct.UResourceBundle* @ures_getNextResource_69(%struct.UResourceBundle* %10, %struct.UResourceBundle* %52, i32* nonnull %3) #7
  %55 = call i16* @ures_getStringByIndex_69(%struct.UResourceBundle* %54, i32 0, i32* null, i32* nonnull %3) #7
  %56 = call i32 @ures_getSize_69(%struct.UResourceBundle* %54) #7
  %57 = icmp eq i32 %56, 3
  br i1 %57, label %58, label %61

58:                                               ; preds = %51
  %59 = call i16* @ures_getStringByIndex_69(%struct.UResourceBundle* %54, i32 1, i32* null, i32* nonnull %3) #7
  %60 = call i16* @ures_getStringByIndex_69(%struct.UResourceBundle* %54, i32 2, i32* null, i32* nonnull %3) #7
  br label %61

61:                                               ; preds = %58, %51
  %62 = phi i16* [ %59, %58 ], [ getelementptr inbounds ([17 x i16], [17 x i16]* @_ZN6icu_69L12gDefaultFromE, i64 0, i64 0), %51 ]
  %63 = phi i16* [ %60, %58 ], [ getelementptr inbounds ([17 x i16], [17 x i16]* @_ZN6icu_69L10gDefaultToE, i64 0, i64 0), %51 ]
  %64 = load i32, i32* %3, align 4
  %65 = icmp slt i32 %64, 1
  br i1 %65, label %67, label %66

66:                                               ; preds = %61
  store i32 0, i32* %3, align 4
  br label %105

67:                                               ; preds = %61
  %68 = call fastcc double @_ZN6icu_69L9parseDateEPKDsR10UErrorCode(i16* %62, i32* nonnull dereferenceable(4) %3)
  %69 = call fastcc double @_ZN6icu_69L9parseDateEPKDsR10UErrorCode(i16* %63, i32* nonnull dereferenceable(4) %3)
  %70 = load i32, i32* %3, align 4
  %71 = icmp slt i32 %70, 1
  br i1 %71, label %73, label %72

72:                                               ; preds = %67
  store i32 0, i32* %3, align 4
  br label %105

73:                                               ; preds = %67
  %74 = call noalias i8* @uprv_malloc_69(i64 24) #8
  %75 = icmp eq i8* %74, null
  br i1 %75, label %76, label %77

76:                                               ; preds = %73
  store i32 7, i32* %3, align 4
  br label %109

77:                                               ; preds = %73
  %78 = bitcast i8* %74 to i16**
  store i16* %55, i16** %78, align 8
  %79 = getelementptr inbounds i8, i8* %74, i64 8
  %80 = bitcast i8* %79 to double*
  store double %68, double* %80, align 8
  %81 = getelementptr inbounds i8, i8* %74, i64 16
  %82 = bitcast i8* %81 to double*
  store double %69, double* %82, align 8
  %83 = icmp eq %"class.icu_69::UVector"* %53, null
  br i1 %83, label %84, label %101

84:                                               ; preds = %77
  %85 = call i8* @_ZN6icu_697UMemorynwEm(i64 40) #7
  %86 = icmp eq i8* %85, null
  br i1 %86, label %89, label %87

87:                                               ; preds = %84
  %88 = bitcast i8* %85 to %"class.icu_69::UVector"*
  call void @_ZN6icu_697UVectorC1EPFvPvEPFa8UElementS4_ER10UErrorCode(%"class.icu_69::UVector"* nonnull %88, void (i8*)* nonnull @_ZL29deleteOlsonToMetaMappingEntryPv, i8 (i8*, i8*)* null, i32* nonnull dereferenceable(4) %3) #7
  br label %89

89:                                               ; preds = %87, %84
  %90 = phi %"class.icu_69::UVector"* [ %88, %87 ], [ null, %84 ]
  %91 = load i32, i32* %3, align 4
  %92 = icmp slt i32 %91, 1
  br i1 %92, label %101, label %93

93:                                               ; preds = %89
  %94 = icmp eq %"class.icu_69::UVector"* %90, null
  br i1 %94, label %100, label %95

95:                                               ; preds = %93
  %96 = bitcast %"class.icu_69::UVector"* %90 to void (%"class.icu_69::UVector"*)***
  %97 = load void (%"class.icu_69::UVector"*)**, void (%"class.icu_69::UVector"*)*** %96, align 8
  %98 = getelementptr inbounds void (%"class.icu_69::UVector"*)*, void (%"class.icu_69::UVector"*)** %97, i64 1
  %99 = load void (%"class.icu_69::UVector"*)*, void (%"class.icu_69::UVector"*)** %98, align 8
  call void %99(%"class.icu_69::UVector"* nonnull %90) #7
  br label %100

100:                                              ; preds = %95, %93
  call void @uprv_free_69(i8* nonnull %74) #7
  br label %109

101:                                              ; preds = %89, %77
  %102 = phi %"class.icu_69::UVector"* [ %90, %89 ], [ %53, %77 ]
  call void @_ZN6icu_697UVector10addElementEPvR10UErrorCode(%"class.icu_69::UVector"* %102, i8* nonnull %74, i32* nonnull dereferenceable(4) %3) #7
  %103 = load i32, i32* %3, align 4
  %104 = icmp slt i32 %103, 1
  br i1 %104, label %105, label %109

105:                                              ; preds = %101, %72, %66
  %106 = phi %"class.icu_69::UVector"* [ %53, %66 ], [ %53, %72 ], [ %102, %101 ]
  %107 = call signext i8 @ures_hasNext_69(%struct.UResourceBundle* %10) #7
  %108 = icmp eq i8 %107, 0
  br i1 %108, label %109, label %51

109:                                              ; preds = %105, %101, %48, %100, %76
  %110 = phi %"class.icu_69::UVector"* [ null, %100 ], [ %53, %76 ], [ null, %48 ], [ %106, %105 ], [ %102, %101 ]
  %111 = phi %struct.UResourceBundle* [ %54, %100 ], [ %54, %76 ], [ null, %48 ], [ %54, %101 ], [ %54, %105 ]
  call void @ures_close_69(%struct.UResourceBundle* %111) #7
  %112 = load i32, i32* %3, align 4
  %113 = icmp sgt i32 %112, 0
  %114 = icmp ne %"class.icu_69::UVector"* %110, null
  %115 = and i1 %114, %113
  br i1 %115, label %116, label %121

116:                                              ; preds = %109
  %117 = bitcast %"class.icu_69::UVector"* %110 to void (%"class.icu_69::UVector"*)***
  %118 = load void (%"class.icu_69::UVector"*)**, void (%"class.icu_69::UVector"*)*** %117, align 8
  %119 = getelementptr inbounds void (%"class.icu_69::UVector"*)*, void (%"class.icu_69::UVector"*)** %118, i64 1
  %120 = load void (%"class.icu_69::UVector"*)*, void (%"class.icu_69::UVector"*)** %119, align 8
  call void %120(%"class.icu_69::UVector"* nonnull %110) #7
  br label %121

121:                                              ; preds = %109, %116, %44
  %122 = phi %"class.icu_69::UVector"* [ null, %44 ], [ null, %116 ], [ %110, %109 ]
  call void @llvm.lifetime.end.p0i8(i64 129, i8* nonnull %27) #7
  br label %123

123:                                              ; preds = %23, %121
  %124 = phi %"class.icu_69::UVector"* [ %122, %121 ], [ null, %23 ]
  call void @ures_close_69(%struct.UResourceBundle* %10) #7
  call void @_ZN6icu_6913UnicodeStringD1Ev(%"class.icu_69::UnicodeString"* nonnull %4) #7
  call void @llvm.lifetime.end.p0i8(i64 64, i8* nonnull %7) #7
  call void @llvm.lifetime.end.p0i8(i64 4, i8* nonnull %6) #7
  ret %"class.icu_69::UVector"* %124
}

; Function Attrs: allocsize(0)
declare noalias i8* @uprv_malloc_69(i64) local_unnamed_addr #5

declare signext i8 @ures_hasNext_69(%struct.UResourceBundle*) local_unnamed_addr #2

declare %struct.UResourceBundle* @ures_getNextResource_69(%struct.UResourceBundle*, %struct.UResourceBundle*, i32*) local_unnamed_addr #2

declare i16* @ures_getStringByIndex_69(%struct.UResourceBundle*, i32, i32*, i32*) local_unnamed_addr #2

declare i32 @ures_getSize_69(%struct.UResourceBundle*) local_unnamed_addr #2

; Function Attrs: nounwind ssp uwtable
define internal fastcc double @_ZN6icu_69L9parseDateEPKDsR10UErrorCode(i16*, i32* nocapture dereferenceable(4)) unnamed_addr #0 {
  %3 = load i32, i32* %1, align 4
  %4 = icmp slt i32 %3, 1
  br i1 %4, label %5, label %91

5:                                                ; preds = %2
  %6 = tail call i32 @u_strlen_69(i16* %0) #7
  switch i32 %6, label %7 [
    i32 16, label %8
    i32 10, label %8
  ]

7:                                                ; preds = %5
  store i32 3, i32* %1, align 4
  br label %91

8:                                                ; preds = %5, %5
  %9 = load i32, i32* %1, align 4
  %10 = icmp sgt i32 %9, 0
  br i1 %10, label %47, label %11

11:                                               ; preds = %8
  %12 = load i16, i16* %0, align 2
  %13 = zext i16 %12 to i32
  %14 = add i16 %12, -48
  %15 = icmp ult i16 %14, 10
  %16 = add nsw i32 %13, -48
  %17 = select i1 %15, i32 %16, i32 -1
  %18 = icmp sgt i32 %17, -1
  br i1 %18, label %21, label %19

19:                                               ; preds = %152, %141, %21, %11
  %20 = phi i32 [ 0, %11 ], [ %17, %21 ], [ %143, %141 ], [ %154, %152 ]
  store i32 3, i32* %1, align 4
  br label %47

21:                                               ; preds = %11
  %22 = getelementptr inbounds i16, i16* %0, i64 1
  %23 = load i16, i16* %22, align 2
  %24 = zext i16 %23 to i32
  %25 = add i16 %23, -48
  %26 = icmp ult i16 %25, 10
  %27 = add nsw i32 %24, -48
  %28 = select i1 %26, i32 %27, i32 -1
  %29 = icmp sgt i32 %28, -1
  br i1 %29, label %141, label %19

30:                                               ; preds = %138, %43
  %31 = phi i32 [ %173, %43 ], [ %140, %138 ]
  %32 = icmp sgt i32 %9, 0
  %33 = getelementptr inbounds i16, i16* %0, i64 8
  %34 = load i16, i16* %33, align 2
  %35 = zext i16 %34 to i32
  %36 = add i16 %34, -48
  %37 = icmp ult i16 %36, 10
  %38 = add nsw i32 %35, -48
  %39 = select i1 %37, i32 %38, i32 -1
  %40 = icmp sgt i32 %39, -1
  br i1 %40, label %46, label %44

41:                                               ; preds = %129, %163
  %42 = phi i32 [ 0, %163 ], [ %173, %129 ]
  store i32 3, i32* %1, align 4
  br label %47

43:                                               ; preds = %163
  br i1 %166, label %30, label %129

44:                                               ; preds = %117, %30
  %45 = phi i32 [ 0, %30 ], [ %39, %117 ]
  store i32 3, i32* %1, align 4
  br label %47

46:                                               ; preds = %30
  br i1 %32, label %47, label %117

47:                                               ; preds = %46, %126, %41, %19, %8, %44
  %48 = phi i32 [ %31, %44 ], [ 0, %8 ], [ 0, %19 ], [ %42, %41 ], [ %31, %126 ], [ %31, %46 ]
  %49 = phi i32 [ %165, %44 ], [ 0, %8 ], [ %20, %19 ], [ %165, %41 ], [ %165, %126 ], [ %165, %46 ]
  %50 = phi i32 [ 3, %44 ], [ %9, %8 ], [ 3, %19 ], [ 3, %41 ], [ %9, %126 ], [ %9, %46 ]
  %51 = phi i32 [ %45, %44 ], [ 0, %8 ], [ 0, %19 ], [ 0, %41 ], [ %39, %46 ], [ %128, %126 ]
  %52 = icmp eq i32 %6, 16
  %53 = icmp sgt i32 %50, 0
  br i1 %52, label %54, label %76

54:                                               ; preds = %47
  br i1 %53, label %91, label %55

55:                                               ; preds = %54
  %56 = getelementptr inbounds i16, i16* %0, i64 11
  %57 = load i16, i16* %56, align 2
  %58 = zext i16 %57 to i32
  %59 = add i16 %57, -48
  %60 = icmp ult i16 %59, 10
  %61 = add nsw i32 %58, -48
  %62 = select i1 %60, i32 %61, i32 -1
  %63 = icmp sgt i32 %62, -1
  br i1 %63, label %65, label %64

64:                                               ; preds = %65, %55
  store i32 3, i32* %1, align 4
  br label %91

65:                                               ; preds = %55
  %66 = getelementptr inbounds i16, i16* %0, i64 12
  %67 = load i16, i16* %66, align 2
  %68 = zext i16 %67 to i32
  %69 = add i16 %67, -48
  %70 = icmp ult i16 %69, 10
  %71 = add nsw i32 %68, -48
  %72 = select i1 %70, i32 %71, i32 -1
  %73 = icmp sgt i32 %72, -1
  br i1 %73, label %105, label %64

74:                                               ; preds = %93, %105
  store i32 3, i32* %1, align 4
  br label %91

75:                                               ; preds = %105
  br i1 %108, label %77, label %93

76:                                               ; preds = %47
  br i1 %53, label %91, label %83

77:                                               ; preds = %102, %75
  %78 = phi i32 [ %115, %75 ], [ %104, %102 ]
  %79 = mul i32 %107, 3600000
  %80 = sitofp i32 %79 to double
  %81 = mul i32 %78, 60000
  %82 = sitofp i32 %81 to double
  br label %83

83:                                               ; preds = %77, %76
  %84 = phi double [ 0.000000e+00, %76 ], [ %82, %77 ]
  %85 = phi double [ 0.000000e+00, %76 ], [ %80, %77 ]
  %86 = add nsw i32 %48, -1
  %87 = tail call double @_ZN6icu_695Grego11fieldsToDayEiii(i32 %49, i32 %86, i32 %51) #7
  %88 = fmul double %87, 8.640000e+07
  %89 = fadd double %88, %85
  %90 = fadd double %89, %84
  br label %91

91:                                               ; preds = %64, %54, %74, %7, %76, %83, %2
  %92 = phi double [ 0.000000e+00, %2 ], [ 0.000000e+00, %7 ], [ %90, %83 ], [ 0.000000e+00, %76 ], [ 0.000000e+00, %74 ], [ 0.000000e+00, %54 ], [ 0.000000e+00, %64 ]
  ret double %92

93:                                               ; preds = %75
  %94 = getelementptr inbounds i16, i16* %0, i64 15
  %95 = load i16, i16* %94, align 2
  %96 = zext i16 %95 to i32
  %97 = add i16 %95, -48
  %98 = icmp ult i16 %97, 10
  %99 = add nsw i32 %96, -48
  %100 = select i1 %98, i32 %99, i32 -1
  %101 = icmp sgt i32 %100, -1
  br i1 %101, label %102, label %74

102:                                              ; preds = %93
  %103 = mul nsw i32 %115, 10
  %104 = add nsw i32 %100, %103
  br label %77

105:                                              ; preds = %65
  %106 = mul nsw i32 %62, 10
  %107 = add nsw i32 %72, %106
  %108 = icmp sgt i32 %50, 0
  %109 = getelementptr inbounds i16, i16* %0, i64 14
  %110 = load i16, i16* %109, align 2
  %111 = zext i16 %110 to i32
  %112 = add i16 %110, -48
  %113 = icmp ult i16 %112, 10
  %114 = add nsw i32 %111, -48
  %115 = select i1 %113, i32 %114, i32 -1
  %116 = icmp sgt i32 %115, -1
  br i1 %116, label %75, label %74

117:                                              ; preds = %46
  %118 = getelementptr inbounds i16, i16* %0, i64 9
  %119 = load i16, i16* %118, align 2
  %120 = zext i16 %119 to i32
  %121 = add i16 %119, -48
  %122 = icmp ult i16 %121, 10
  %123 = add nsw i32 %120, -48
  %124 = select i1 %122, i32 %123, i32 -1
  %125 = icmp sgt i32 %124, -1
  br i1 %125, label %126, label %44

126:                                              ; preds = %117
  %127 = mul nsw i32 %39, 10
  %128 = add nsw i32 %124, %127
  br label %47

129:                                              ; preds = %43
  %130 = getelementptr inbounds i16, i16* %0, i64 6
  %131 = load i16, i16* %130, align 2
  %132 = zext i16 %131 to i32
  %133 = add i16 %131, -48
  %134 = icmp ult i16 %133, 10
  %135 = add nsw i32 %132, -48
  %136 = select i1 %134, i32 %135, i32 -1
  %137 = icmp sgt i32 %136, -1
  br i1 %137, label %138, label %41

138:                                              ; preds = %129
  %139 = mul nsw i32 %173, 10
  %140 = add nsw i32 %136, %139
  br label %30

141:                                              ; preds = %21
  %142 = mul nsw i32 %17, 10
  %143 = add nsw i32 %28, %142
  %144 = getelementptr inbounds i16, i16* %0, i64 2
  %145 = load i16, i16* %144, align 2
  %146 = zext i16 %145 to i32
  %147 = add i16 %145, -48
  %148 = icmp ult i16 %147, 10
  %149 = add nsw i32 %146, -48
  %150 = select i1 %148, i32 %149, i32 -1
  %151 = icmp sgt i32 %150, -1
  br i1 %151, label %152, label %19

152:                                              ; preds = %141
  %153 = mul nsw i32 %143, 10
  %154 = add nsw i32 %150, %153
  %155 = getelementptr inbounds i16, i16* %0, i64 3
  %156 = load i16, i16* %155, align 2
  %157 = zext i16 %156 to i32
  %158 = add i16 %156, -48
  %159 = icmp ult i16 %158, 10
  %160 = add nsw i32 %157, -48
  %161 = select i1 %159, i32 %160, i32 -1
  %162 = icmp sgt i32 %161, -1
  br i1 %162, label %163, label %19

163:                                              ; preds = %152
  %164 = mul nsw i32 %154, 10
  %165 = add nsw i32 %161, %164
  %166 = icmp sgt i32 %9, 0
  %167 = getelementptr inbounds i16, i16* %0, i64 5
  %168 = load i16, i16* %167, align 2
  %169 = zext i16 %168 to i32
  %170 = add i16 %168, -48
  %171 = icmp ult i16 %170, 10
  %172 = add nsw i32 %169, -48
  %173 = select i1 %171, i32 %172, i32 -1
  %174 = icmp sgt i32 %173, -1
  br i1 %174, label %43, label %41
}

; Function Attrs: nounwind
declare i8* @_ZN6icu_697UMemorynwEm(i64) local_unnamed_addr #4

; Function Attrs: nounwind ssp uwtable
define internal void @_ZL29deleteOlsonToMetaMappingEntryPv(i8*) #0 {
  tail call void @uprv_free_69(i8* %0) #7
  ret void
}

declare void @_ZN6icu_697UVectorC1EPFvPvEPFa8UElementS4_ER10UErrorCode(%"class.icu_69::UVector"*, void (i8*)*, i8 (i8*, i8*)*, i32* dereferenceable(4)) unnamed_addr #2

declare void @uprv_free_69(i8*) #2

; Function Attrs: nounwind ssp uwtable
define hidden dereferenceable(64) %"class.icu_69::UnicodeString"* @_ZN6icu_698ZoneMeta19getZoneIdByMetazoneERKNS_13UnicodeStringES3_RS1_(%"class.icu_69::UnicodeString"* dereferenceable(64), %"class.icu_69::UnicodeString"* dereferenceable(64), %"class.icu_69::UnicodeString"* returned dereferenceable(64)) local_unnamed_addr #0 align 2 {
  %4 = alloca i32, align 4
  %5 = alloca i32, align 4
  %6 = alloca [129 x i8], align 16
  %7 = bitcast i32* %4 to i8*
  call void @llvm.lifetime.start.p0i8(i64 4, i8* nonnull %7) #7
  store i32 0, i32* %4, align 4
  %8 = bitcast i32* %5 to i8*
  call void @llvm.lifetime.start.p0i8(i64 4, i8* nonnull %8) #7
  store i32 0, i32* %5, align 4
  %9 = getelementptr inbounds [129 x i8], [129 x i8]* %6, i64 0, i64 0
  call void @llvm.lifetime.start.p0i8(i64 129, i8* nonnull %9) #7
  call void @llvm.memset.p0i8.i64(i8* nonnull align 16 %9, i8 -86, i64 129, i1 false)
  %10 = getelementptr inbounds %"class.icu_69::UnicodeString", %"class.icu_69::UnicodeString"* %0, i64 0, i32 1, i32 0, i32 0
  %11 = load i16, i16* %10, align 8
  %12 = and i16 %11, 1
  %13 = icmp eq i16 %12, 0
  br i1 %13, label %14, label %22

14:                                               ; preds = %3
  %15 = icmp slt i16 %11, 0
  %16 = lshr i16 %11, 5
  %17 = zext i16 %16 to i32
  %18 = getelementptr inbounds %"class.icu_69::UnicodeString", %"class.icu_69::UnicodeString"* %0, i64 0, i32 1, i32 0, i32 1
  %19 = load i32, i32* %18, align 4
  %20 = select i1 %15, i32 %19, i32 %17
  %21 = icmp sgt i32 %20, 128
  br i1 %21, label %22, label %23

22:                                               ; preds = %3, %14
  tail call void @_ZN6icu_6913UnicodeString10setToBogusEv(%"class.icu_69::UnicodeString"* %2) #7
  br label %75

23:                                               ; preds = %14
  %24 = call i32 @_ZNK6icu_6913UnicodeString7extractEiiPciNS0_10EInvariantE(%"class.icu_69::UnicodeString"* %0, i32 0, i32 %20, i8* nonnull %9, i32 129, i32 0) #7
  %25 = sext i32 %24 to i64
  %26 = getelementptr inbounds [129 x i8], [129 x i8]* %6, i64 0, i64 %25
  store i8 0, i8* %26, align 1
  %27 = call %struct.UResourceBundle* @ures_openDirect_69(i8* null, i8* getelementptr inbounds ([10 x i8], [10 x i8]* @_ZN6icu_69L10gMetaZonesE, i64 0, i64 0), i32* nonnull %4) #7
  %28 = call %struct.UResourceBundle* @ures_getByKey_69(%struct.UResourceBundle* %27, i8* getelementptr inbounds ([13 x i8], [13 x i8]* @_ZN6icu_69L16gMapTimezonesTagE, i64 0, i64 0), %struct.UResourceBundle* %27, i32* nonnull %4) #7
  %29 = call %struct.UResourceBundle* @ures_getByKey_69(%struct.UResourceBundle* %27, i8* nonnull %9, %struct.UResourceBundle* %27, i32* nonnull %4) #7
  %30 = load i32, i32* %4, align 4
  %31 = icmp sgt i32 %30, 0
  br i1 %31, label %32, label %33

32:                                               ; preds = %23
  call void @ures_close_69(%struct.UResourceBundle* %27) #7
  br label %63

33:                                               ; preds = %23
  %34 = getelementptr inbounds %"class.icu_69::UnicodeString", %"class.icu_69::UnicodeString"* %1, i64 0, i32 1, i32 0, i32 0
  %35 = load i16, i16* %34, align 8
  %36 = icmp slt i16 %35, 0
  %37 = lshr i16 %35, 5
  %38 = zext i16 %37 to i32
  %39 = getelementptr inbounds %"class.icu_69::UnicodeString", %"class.icu_69::UnicodeString"* %1, i64 0, i32 1, i32 0, i32 1
  %40 = load i32, i32* %39, align 4
  %41 = select i1 %36, i32 %40, i32 %38
  %42 = and i32 %41, -2
  %43 = icmp eq i32 %42, 2
  br i1 %43, label %44, label %52

44:                                               ; preds = %33
  %45 = call i32 @_ZNK6icu_6913UnicodeString7extractEiiPciNS0_10EInvariantE(%"class.icu_69::UnicodeString"* %1, i32 0, i32 %41, i8* nonnull %9, i32 129, i32 0) #7
  %46 = sext i32 %45 to i64
  %47 = getelementptr inbounds [129 x i8], [129 x i8]* %6, i64 0, i64 %46
  store i8 0, i8* %47, align 1
  %48 = call i16* @ures_getStringByKey_69(%struct.UResourceBundle* %27, i8* nonnull %9, i32* nonnull %5, i32* nonnull %4) #7
  %49 = load i32, i32* %4, align 4
  %50 = icmp eq i32 %49, 2
  br i1 %50, label %51, label %52

51:                                               ; preds = %44
  store i32 0, i32* %4, align 4
  br label %52

52:                                               ; preds = %33, %44, %51
  %53 = phi i32 [ 0, %51 ], [ %49, %44 ], [ %30, %33 ]
  %54 = phi i16* [ %48, %51 ], [ %48, %44 ], [ null, %33 ]
  %55 = icmp slt i32 %53, 1
  %56 = icmp eq i16* %54, null
  %57 = and i1 %56, %55
  br i1 %57, label %58, label %60

58:                                               ; preds = %52
  %59 = call i16* @ures_getStringByKey_69(%struct.UResourceBundle* %27, i8* getelementptr inbounds ([4 x i8], [4 x i8]* @_ZN6icu_69L9gWorldTagE, i64 0, i64 0), i32* nonnull %5, i32* nonnull %4) #7
  br label %60

60:                                               ; preds = %52, %58
  %61 = phi i16* [ %59, %58 ], [ %54, %52 ]
  call void @ures_close_69(%struct.UResourceBundle* %27) #7
  %62 = icmp eq i16* %61, null
  br i1 %62, label %63, label %64

63:                                               ; preds = %32, %60
  call void @_ZN6icu_6913UnicodeString10setToBogusEv(%"class.icu_69::UnicodeString"* %2) #7
  br label %75

64:                                               ; preds = %60
  %65 = load i32, i32* %5, align 4
  call void @_ZN6icu_6913UnicodeString7unBogusEv(%"class.icu_69::UnicodeString"* %2) #7
  %66 = getelementptr inbounds %"class.icu_69::UnicodeString", %"class.icu_69::UnicodeString"* %2, i64 0, i32 1, i32 0, i32 0
  %67 = load i16, i16* %66, align 8
  %68 = icmp slt i16 %67, 0
  %69 = lshr i16 %67, 5
  %70 = zext i16 %69 to i32
  %71 = getelementptr inbounds %"class.icu_69::UnicodeString", %"class.icu_69::UnicodeString"* %2, i64 0, i32 1, i32 0, i32 1
  %72 = load i32, i32* %71, align 4
  %73 = select i1 %68, i32 %72, i32 %70
  %74 = call dereferenceable(64) %"class.icu_69::UnicodeString"* @_ZN6icu_6913UnicodeString9doReplaceEiiPKDsii(%"class.icu_69::UnicodeString"* %2, i32 0, i32 %73, i16* nonnull %61, i32 0, i32 %65) #7
  br label %75

75:                                               ; preds = %63, %64, %22
  call void @llvm.lifetime.end.p0i8(i64 129, i8* nonnull %9) #7
  call void @llvm.lifetime.end.p0i8(i64 4, i8* nonnull %8) #7
  call void @llvm.lifetime.end.p0i8(i64 4, i8* nonnull %7) #7
  ret %"class.icu_69::UnicodeString"* %2
}

; Function Attrs: nounwind ssp uwtable
define hidden %"class.icu_69::UVector"* @_ZN6icu_698ZoneMeta23getAvailableMetazoneIDsEv() local_unnamed_addr #0 align 2 {
  %1 = load atomic i32, i32* getelementptr inbounds ({ { { i32 } }, i32 }, { { { i32 } }, i32 }* @_ZL20gMetaZoneIDsInitOnce, i64 0, i32 0, i32 0, i32 0) acquire, align 4
  %2 = icmp eq i32 %1, 2
  br i1 %2, label %7, label %3

3:                                                ; preds = %0
  %4 = tail call signext i8 @_ZN6icu_6920umtx_initImplPreInitERNS_9UInitOnceE(%"struct.icu_69::UInitOnce"* dereferenceable(8) bitcast ({ { { i32 } }, i32 }* @_ZL20gMetaZoneIDsInitOnce to %"struct.icu_69::UInitOnce"*)) #7
  %5 = icmp eq i8 %4, 0
  br i1 %5, label %7, label %6

6:                                                ; preds = %3
  tail call fastcc void @_ZN6icu_69L24initAvailableMetaZoneIDsEv() #7
  tail call void @_ZN6icu_6921umtx_initImplPostInitERNS_9UInitOnceE(%"struct.icu_69::UInitOnce"* dereferenceable(8) bitcast ({ { { i32 } }, i32 }* @_ZL20gMetaZoneIDsInitOnce to %"struct.icu_69::UInitOnce"*)) #7
  br label %7

7:                                                ; preds = %0, %3, %6
  %8 = load %"class.icu_69::UVector"*, %"class.icu_69::UVector"** @_ZL12gMetaZoneIDs, align 8
  ret %"class.icu_69::UVector"* %8
}

; Function Attrs: nounwind ssp uwtable
define internal fastcc void @_ZN6icu_69L24initAvailableMetaZoneIDsEv() unnamed_addr #0 {
  %1 = alloca i32, align 4
  %2 = alloca %"class.icu_69::StackUResourceBundle", align 8
  tail call void @ucln_i18n_registerCleanup_69(i32 18, i8 ()* nonnull @_ZL16zoneMeta_cleanupv) #7
  %3 = bitcast i32* %1 to i8*
  call void @llvm.lifetime.start.p0i8(i64 4, i8* nonnull %3) #7
  store i32 0, i32* %1, align 4
  %4 = call %struct.UHashtable* @uhash_open_69(i32 (i8*)* nonnull @uhash_hashUnicodeString_69, i8 (i8*, i8*)* nonnull @uhash_compareUnicodeString_69, i8 (i8*, i8*)* null, i32* nonnull %1) #7
  store %struct.UHashtable* %4, %struct.UHashtable** @_ZL16gMetaZoneIDTable, align 8
  %5 = load i32, i32* %1, align 4
  %6 = icmp sgt i32 %5, 0
  %7 = icmp eq %struct.UHashtable* %4, null
  %8 = or i1 %7, %6
  br i1 %8, label %9, label %10

9:                                                ; preds = %0
  store %struct.UHashtable* null, %struct.UHashtable** @_ZL16gMetaZoneIDTable, align 8
  br label %88

10:                                               ; preds = %0
  %11 = call void (i8*)* @uhash_setKeyDeleter_69(%struct.UHashtable* nonnull %4, void (i8*)* nonnull @uprv_deleteUObject_69) #7
  %12 = call i8* @_ZN6icu_697UMemorynwEm(i64 40) #7
  %13 = icmp eq i8* %12, null
  br i1 %13, label %14, label %15

14:                                               ; preds = %10
  store %"class.icu_69::UVector"* null, %"class.icu_69::UVector"** @_ZL12gMetaZoneIDs, align 8
  br label %19

15:                                               ; preds = %10
  %16 = bitcast i8* %12 to %"class.icu_69::UVector"*
  call void @_ZN6icu_697UVectorC1EPFvPvEPFa8UElementS4_ER10UErrorCode(%"class.icu_69::UVector"* nonnull %16, void (i8*)* null, i8 (i8*, i8*)* nonnull @uhash_compareUChars_69, i32* nonnull dereferenceable(4) %1) #7
  store i8* %12, i8** bitcast (%"class.icu_69::UVector"** @_ZL12gMetaZoneIDs to i8**), align 8
  %17 = load i32, i32* %1, align 4
  %18 = icmp sgt i32 %17, 0
  br i1 %18, label %19, label %21

19:                                               ; preds = %14, %15
  store %"class.icu_69::UVector"* null, %"class.icu_69::UVector"** @_ZL12gMetaZoneIDs, align 8
  %20 = load %struct.UHashtable*, %struct.UHashtable** @_ZL16gMetaZoneIDTable, align 8
  call void @uhash_close_69(%struct.UHashtable* %20) #7
  store %struct.UHashtable* null, %struct.UHashtable** @_ZL16gMetaZoneIDTable, align 8
  br label %88

21:                                               ; preds = %15
  %22 = call void (i8*)* @_ZN6icu_697UVector10setDeleterEPFvPvE(%"class.icu_69::UVector"* nonnull %16, void (i8*)* nonnull @uprv_free_69) #7
  %23 = call %struct.UResourceBundle* @ures_openDirect_69(i8* null, i8* getelementptr inbounds ([10 x i8], [10 x i8]* @_ZN6icu_69L10gMetaZonesE, i64 0, i64 0), i32* nonnull %1) #7
  %24 = call %struct.UResourceBundle* @ures_getByKey_69(%struct.UResourceBundle* %23, i8* getelementptr inbounds ([13 x i8], [13 x i8]* @_ZN6icu_69L16gMapTimezonesTagE, i64 0, i64 0), %struct.UResourceBundle* null, i32* nonnull %1) #7
  %25 = bitcast %"class.icu_69::StackUResourceBundle"* %2 to i8*
  call void @llvm.lifetime.start.p0i8(i64 200, i8* nonnull %25) #7
  call void @llvm.memset.p0i8.i64(i8* nonnull align 8 %25, i8 -86, i64 200, i1 false)
  call void @_ZN6icu_6920StackUResourceBundleC1Ev(%"class.icu_69::StackUResourceBundle"* nonnull %2) #7
  %26 = load i32, i32* %1, align 4
  %27 = icmp sgt i32 %26, 0
  br i1 %27, label %74, label %28

28:                                               ; preds = %21
  %29 = getelementptr inbounds %"class.icu_69::StackUResourceBundle", %"class.icu_69::StackUResourceBundle"* %2, i64 0, i32 0
  br label %30

30:                                               ; preds = %28, %71
  %31 = call signext i8 @ures_hasNext_69(%struct.UResourceBundle* %24) #7
  %32 = icmp eq i8 %31, 0
  br i1 %32, label %74, label %33

33:                                               ; preds = %30
  %34 = call %struct.UResourceBundle* @ures_getNextResource_69(%struct.UResourceBundle* %24, %struct.UResourceBundle* nonnull %29, i32* nonnull %1) #7
  %35 = load i32, i32* %1, align 4
  %36 = icmp slt i32 %35, 1
  br i1 %36, label %37, label %74

37:                                               ; preds = %33
  %38 = call i8* @ures_getKey_69(%struct.UResourceBundle* nonnull %29) #7
  %39 = call i64 @strlen(i8* %38) #3
  %40 = shl i64 %39, 32
  %41 = add i64 %40, 4294967296
  %42 = ashr exact i64 %41, 31
  %43 = call noalias i8* @uprv_malloc_69(i64 %42) #8
  %44 = bitcast i8* %43 to i16*
  %45 = icmp eq i8* %43, null
  br i1 %45, label %46, label %47

46:                                               ; preds = %37
  store i32 7, i32* %1, align 4
  br label %74

47:                                               ; preds = %37
  %48 = trunc i64 %39 to i32
  call void @u_charsToUChars_69(i8* %38, i16* nonnull %44, i32 %48) #7
  %49 = ashr exact i64 %40, 32
  %50 = getelementptr inbounds i16, i16* %44, i64 %49
  store i16 0, i16* %50, align 2
  %51 = call i8* @_ZN6icu_697UMemorynwEm(i64 64) #7
  %52 = icmp eq i8* %51, null
  br i1 %52, label %55, label %53

53:                                               ; preds = %47
  %54 = bitcast i8* %51 to %"class.icu_69::UnicodeString"*
  call void @_ZN6icu_6913UnicodeStringC1EPKDs(%"class.icu_69::UnicodeString"* nonnull %54, i16* nonnull %44) #7
  br label %55

55:                                               ; preds = %53, %47
  %56 = phi %"class.icu_69::UnicodeString"* [ %54, %53 ], [ null, %47 ]
  %57 = load %struct.UHashtable*, %struct.UHashtable** @_ZL16gMetaZoneIDTable, align 8
  %58 = call i8* @uhash_get_69(%struct.UHashtable* %57, i8* %51) #7
  %59 = icmp eq i8* %58, null
  br i1 %59, label %60, label %64

60:                                               ; preds = %55
  %61 = load %"class.icu_69::UVector"*, %"class.icu_69::UVector"** @_ZL12gMetaZoneIDs, align 8
  call void @_ZN6icu_697UVector10addElementEPvR10UErrorCode(%"class.icu_69::UVector"* %61, i8* nonnull %43, i32* nonnull dereferenceable(4) %1) #7
  %62 = load %struct.UHashtable*, %struct.UHashtable** @_ZL16gMetaZoneIDTable, align 8
  %63 = call i8* @uhash_put_69(%struct.UHashtable* %62, i8* %51, i8* nonnull %43, i32* nonnull %1) #7
  br label %71

64:                                               ; preds = %55
  call void @uprv_free_69(i8* nonnull %43) #7
  %65 = icmp eq %"class.icu_69::UnicodeString"* %56, null
  br i1 %65, label %71, label %66

66:                                               ; preds = %64
  %67 = bitcast %"class.icu_69::UnicodeString"* %56 to void (%"class.icu_69::UnicodeString"*)***
  %68 = load void (%"class.icu_69::UnicodeString"*)**, void (%"class.icu_69::UnicodeString"*)*** %67, align 8
  %69 = getelementptr inbounds void (%"class.icu_69::UnicodeString"*)*, void (%"class.icu_69::UnicodeString"*)** %68, i64 1
  %70 = load void (%"class.icu_69::UnicodeString"*)*, void (%"class.icu_69::UnicodeString"*)** %69, align 8
  call void %70(%"class.icu_69::UnicodeString"* nonnull %56) #7
  br label %71

71:                                               ; preds = %60, %66, %64
  %72 = load i32, i32* %1, align 4
  %73 = icmp sgt i32 %72, 0
  br i1 %73, label %74, label %30

74:                                               ; preds = %71, %30, %33, %21, %46
  call void @ures_close_69(%struct.UResourceBundle* %24) #7
  call void @ures_close_69(%struct.UResourceBundle* %23) #7
  %75 = load i32, i32* %1, align 4
  %76 = icmp slt i32 %75, 1
  br i1 %76, label %87, label %77

77:                                               ; preds = %74
  %78 = load %struct.UHashtable*, %struct.UHashtable** @_ZL16gMetaZoneIDTable, align 8
  call void @uhash_close_69(%struct.UHashtable* %78) #7
  %79 = load %"class.icu_69::UVector"*, %"class.icu_69::UVector"** @_ZL12gMetaZoneIDs, align 8
  %80 = icmp eq %"class.icu_69::UVector"* %79, null
  br i1 %80, label %86, label %81

81:                                               ; preds = %77
  %82 = bitcast %"class.icu_69::UVector"* %79 to void (%"class.icu_69::UVector"*)***
  %83 = load void (%"class.icu_69::UVector"*)**, void (%"class.icu_69::UVector"*)*** %82, align 8
  %84 = getelementptr inbounds void (%"class.icu_69::UVector"*)*, void (%"class.icu_69::UVector"*)** %83, i64 1
  %85 = load void (%"class.icu_69::UVector"*)*, void (%"class.icu_69::UVector"*)** %84, align 8
  call void %85(%"class.icu_69::UVector"* nonnull %79) #7
  br label %86

86:                                               ; preds = %81, %77
  store %struct.UHashtable* null, %struct.UHashtable** @_ZL16gMetaZoneIDTable, align 8
  store %"class.icu_69::UVector"* null, %"class.icu_69::UVector"** @_ZL12gMetaZoneIDs, align 8
  br label %87

87:                                               ; preds = %74, %86
  call void @_ZN6icu_6920StackUResourceBundleD1Ev(%"class.icu_69::StackUResourceBundle"* nonnull %2) #7
  call void @llvm.lifetime.end.p0i8(i64 200, i8* nonnull %25) #7
  br label %88

88:                                               ; preds = %87, %19, %9
  call void @llvm.lifetime.end.p0i8(i64 4, i8* nonnull %3) #7
  ret void
}

; Function Attrs: nounwind ssp uwtable
define hidden i16* @_ZN6icu_698ZoneMeta14findMetaZoneIDERKNS_13UnicodeStringE(%"class.icu_69::UnicodeString"* dereferenceable(64)) local_unnamed_addr #0 align 2 {
  %2 = load atomic i32, i32* getelementptr inbounds ({ { { i32 } }, i32 }, { { { i32 } }, i32 }* @_ZL20gMetaZoneIDsInitOnce, i64 0, i32 0, i32 0, i32 0) acquire, align 4
  %3 = icmp eq i32 %2, 2
  br i1 %3, label %8, label %4

4:                                                ; preds = %1
  %5 = tail call signext i8 @_ZN6icu_6920umtx_initImplPreInitERNS_9UInitOnceE(%"struct.icu_69::UInitOnce"* dereferenceable(8) bitcast ({ { { i32 } }, i32 }* @_ZL20gMetaZoneIDsInitOnce to %"struct.icu_69::UInitOnce"*)) #7
  %6 = icmp eq i8 %5, 0
  br i1 %6, label %8, label %7

7:                                                ; preds = %4
  tail call fastcc void @_ZN6icu_69L24initAvailableMetaZoneIDsEv() #7
  tail call void @_ZN6icu_6921umtx_initImplPostInitERNS_9UInitOnceE(%"struct.icu_69::UInitOnce"* dereferenceable(8) bitcast ({ { { i32 } }, i32 }* @_ZL20gMetaZoneIDsInitOnce to %"struct.icu_69::UInitOnce"*)) #7
  br label %8

8:                                                ; preds = %1, %4, %7
  %9 = load %struct.UHashtable*, %struct.UHashtable** @_ZL16gMetaZoneIDTable, align 8
  %10 = icmp eq %struct.UHashtable* %9, null
  br i1 %10, label %15, label %11

11:                                               ; preds = %8
  %12 = bitcast %"class.icu_69::UnicodeString"* %0 to i8*
  %13 = tail call i8* @uhash_get_69(%struct.UHashtable* nonnull %9, i8* %12) #7
  %14 = bitcast i8* %13 to i16*
  br label %15

15:                                               ; preds = %8, %11
  %16 = phi i16* [ %14, %11 ], [ null, %8 ]
  ret i16* %16
}

; Function Attrs: nounwind ssp uwtable
define hidden %"class.icu_69::TimeZone"* @_ZN6icu_698ZoneMeta20createCustomTimeZoneEi(i32) local_unnamed_addr #0 align 2 {
  %2 = alloca %"class.icu_69::UnicodeString", align 8
  %3 = icmp slt i32 %0, 0
  %4 = sub nsw i32 0, %0
  %5 = select i1 %3, i32 %4, i32 %0
  %6 = lshr i32 %0, 31
  %7 = trunc i32 %6 to i8
  %8 = udiv i32 %5, 1000
  %9 = urem i32 %8, 60
  %10 = trunc i32 %9 to i8
  %11 = udiv i32 %5, 60000
  %12 = urem i32 %11, 60
  %13 = trunc i32 %12 to i8
  %14 = udiv i32 %5, 3600000
  %15 = trunc i32 %14 to i8
  %16 = bitcast %"class.icu_69::UnicodeString"* %2 to i8*
  call void @llvm.lifetime.start.p0i8(i64 64, i8* nonnull %16) #7
  call void @llvm.memset.p0i8.i64(i8* nonnull align 8 %16, i8 -86, i64 64, i1 false)
  %17 = getelementptr inbounds %"class.icu_69::UnicodeString", %"class.icu_69::UnicodeString"* %2, i64 0, i32 0, i32 0, i32 0
  store i32 (...)** bitcast (i8** getelementptr inbounds ({ [13 x i8*] }, { [13 x i8*] }* @_ZTVN6icu_6913UnicodeStringE, i64 0, inrange i32 0, i64 2) to i32 (...)**), i32 (...)*** %17, align 8
  %18 = getelementptr inbounds %"class.icu_69::UnicodeString", %"class.icu_69::UnicodeString"* %2, i64 0, i32 1, i32 0, i32 0
  store i16 2, i16* %18, align 8
  %19 = call dereferenceable(64) %"class.icu_69::UnicodeString"* @_ZN6icu_698ZoneMeta14formatCustomIDEhhhaRNS_13UnicodeStringE(i8 zeroext %15, i8 zeroext %13, i8 zeroext %10, i8 signext %7, %"class.icu_69::UnicodeString"* nonnull dereferenceable(64) %2)
  %20 = call i8* @_ZN6icu_697UMemorynwEm(i64 160) #7
  %21 = icmp eq i8* %20, null
  br i1 %21, label %24, label %22

22:                                               ; preds = %1
  %23 = bitcast i8* %20 to %"class.icu_69::SimpleTimeZone"*
  call void @_ZN6icu_6914SimpleTimeZoneC1EiRKNS_13UnicodeStringE(%"class.icu_69::SimpleTimeZone"* nonnull %23, i32 %0, %"class.icu_69::UnicodeString"* nonnull dereferenceable(64) %2) #7
  br label %24

24:                                               ; preds = %22, %1
  %25 = phi %"class.icu_69::SimpleTimeZone"* [ %23, %22 ], [ null, %1 ]
  %26 = getelementptr inbounds %"class.icu_69::SimpleTimeZone", %"class.icu_69::SimpleTimeZone"* %25, i64 0, i32 0, i32 0
  call void @_ZN6icu_6913UnicodeStringD1Ev(%"class.icu_69::UnicodeString"* nonnull %2) #7
  call void @llvm.lifetime.end.p0i8(i64 64, i8* nonnull %16) #7
  ret %"class.icu_69::TimeZone"* %26
}

; Function Attrs: nounwind ssp uwtable
define hidden dereferenceable(64) %"class.icu_69::UnicodeString"* @_ZN6icu_698ZoneMeta14formatCustomIDEhhhaRNS_13UnicodeStringE(i8 zeroext, i8 zeroext, i8 zeroext, i8 signext, %"class.icu_69::UnicodeString"* returned dereferenceable(64)) local_unnamed_addr #0 align 2 {
  %6 = alloca i16, align 2
  %7 = alloca i16, align 2
  %8 = alloca i16, align 2
  %9 = alloca i16, align 2
  %10 = alloca i16, align 2
  %11 = alloca i16, align 2
  %12 = alloca i16, align 2
  %13 = alloca i16, align 2
  %14 = alloca i16, align 2
  %15 = alloca i16, align 2
  tail call void @_ZN6icu_6913UnicodeString7unBogusEv(%"class.icu_69::UnicodeString"* %4) #7
  %16 = getelementptr inbounds %"class.icu_69::UnicodeString", %"class.icu_69::UnicodeString"* %4, i64 0, i32 1, i32 0, i32 0
  %17 = load i16, i16* %16, align 8
  %18 = icmp slt i16 %17, 0
  %19 = lshr i16 %17, 5
  %20 = zext i16 %19 to i32
  %21 = getelementptr inbounds %"class.icu_69::UnicodeString", %"class.icu_69::UnicodeString"* %4, i64 0, i32 1, i32 0, i32 1
  %22 = load i32, i32* %21, align 4
  %23 = select i1 %18, i32 %22, i32 %20
  %24 = tail call dereferenceable(64) %"class.icu_69::UnicodeString"* @_ZN6icu_6913UnicodeString9doReplaceEiiPKDsii(%"class.icu_69::UnicodeString"* %4, i32 0, i32 %23, i16* getelementptr inbounds ([4 x i16], [4 x i16]* @_ZN6icu_69L15gCustomTzPrefixE, i64 0, i64 0), i32 0, i32 -1) #7
  %25 = or i8 %1, %0
  %26 = icmp eq i8 %25, 0
  br i1 %26, label %76, label %27

27:                                               ; preds = %5
  %28 = icmp eq i8 %3, 0
  br i1 %28, label %31, label %29

29:                                               ; preds = %27
  %30 = bitcast i16* %15 to i8*
  call void @llvm.lifetime.start.p0i8(i64 2, i8* nonnull %30)
  store i16 45, i16* %15, align 2
  br label %33

31:                                               ; preds = %27
  %32 = bitcast i16* %14 to i8*
  call void @llvm.lifetime.start.p0i8(i64 2, i8* nonnull %32)
  store i16 43, i16* %14, align 2
  br label %33

33:                                               ; preds = %31, %29
  %34 = phi i16* [ %14, %31 ], [ %15, %29 ]
  %35 = phi i8* [ %32, %31 ], [ %30, %29 ]
  %36 = call dereferenceable(64) %"class.icu_69::UnicodeString"* @_ZN6icu_6913UnicodeString8doAppendEPKDsii(%"class.icu_69::UnicodeString"* %4, i16* nonnull %34, i32 0, i32 1) #7
  call void @llvm.lifetime.end.p0i8(i64 2, i8* nonnull %35)
  %37 = urem i8 %0, 100
  %38 = udiv i8 %37, 10
  %39 = or i8 %38, 48
  %40 = zext i8 %39 to i16
  %41 = bitcast i16* %13 to i8*
  call void @llvm.lifetime.start.p0i8(i64 2, i8* nonnull %41)
  store i16 %40, i16* %13, align 2
  %42 = call dereferenceable(64) %"class.icu_69::UnicodeString"* @_ZN6icu_6913UnicodeString8doAppendEPKDsii(%"class.icu_69::UnicodeString"* %4, i16* nonnull %13, i32 0, i32 1) #7
  call void @llvm.lifetime.end.p0i8(i64 2, i8* nonnull %41)
  %43 = urem i8 %0, 10
  %44 = or i8 %43, 48
  %45 = zext i8 %44 to i16
  %46 = bitcast i16* %12 to i8*
  call void @llvm.lifetime.start.p0i8(i64 2, i8* nonnull %46)
  store i16 %45, i16* %12, align 2
  %47 = call dereferenceable(64) %"class.icu_69::UnicodeString"* @_ZN6icu_6913UnicodeString8doAppendEPKDsii(%"class.icu_69::UnicodeString"* %4, i16* nonnull %12, i32 0, i32 1) #7
  call void @llvm.lifetime.end.p0i8(i64 2, i8* nonnull %46)
  %48 = bitcast i16* %11 to i8*
  call void @llvm.lifetime.start.p0i8(i64 2, i8* nonnull %48)
  store i16 58, i16* %11, align 2
  %49 = call dereferenceable(64) %"class.icu_69::UnicodeString"* @_ZN6icu_6913UnicodeString8doAppendEPKDsii(%"class.icu_69::UnicodeString"* %4, i16* nonnull %11, i32 0, i32 1) #7
  call void @llvm.lifetime.end.p0i8(i64 2, i8* nonnull %48)
  %50 = urem i8 %1, 100
  %51 = udiv i8 %50, 10
  %52 = or i8 %51, 48
  %53 = zext i8 %52 to i16
  %54 = bitcast i16* %10 to i8*
  call void @llvm.lifetime.start.p0i8(i64 2, i8* nonnull %54)
  store i16 %53, i16* %10, align 2
  %55 = call dereferenceable(64) %"class.icu_69::UnicodeString"* @_ZN6icu_6913UnicodeString8doAppendEPKDsii(%"class.icu_69::UnicodeString"* %4, i16* nonnull %10, i32 0, i32 1) #7
  call void @llvm.lifetime.end.p0i8(i64 2, i8* nonnull %54)
  %56 = urem i8 %1, 10
  %57 = or i8 %56, 48
  %58 = zext i8 %57 to i16
  %59 = bitcast i16* %9 to i8*
  call void @llvm.lifetime.start.p0i8(i64 2, i8* nonnull %59)
  store i16 %58, i16* %9, align 2
  %60 = call dereferenceable(64) %"class.icu_69::UnicodeString"* @_ZN6icu_6913UnicodeString8doAppendEPKDsii(%"class.icu_69::UnicodeString"* %4, i16* nonnull %9, i32 0, i32 1) #7
  call void @llvm.lifetime.end.p0i8(i64 2, i8* nonnull %59)
  %61 = icmp eq i8 %2, 0
  br i1 %61, label %76, label %62

62:                                               ; preds = %33
  %63 = bitcast i16* %8 to i8*
  call void @llvm.lifetime.start.p0i8(i64 2, i8* nonnull %63)
  store i16 58, i16* %8, align 2
  %64 = call dereferenceable(64) %"class.icu_69::UnicodeString"* @_ZN6icu_6913UnicodeString8doAppendEPKDsii(%"class.icu_69::UnicodeString"* %4, i16* nonnull %8, i32 0, i32 1) #7
  call void @llvm.lifetime.end.p0i8(i64 2, i8* nonnull %63)
  %65 = urem i8 %2, 100
  %66 = udiv i8 %65, 10
  %67 = or i8 %66, 48
  %68 = zext i8 %67 to i16
  %69 = bitcast i16* %7 to i8*
  call void @llvm.lifetime.start.p0i8(i64 2, i8* nonnull %69)
  store i16 %68, i16* %7, align 2
  %70 = call dereferenceable(64) %"class.icu_69::UnicodeString"* @_ZN6icu_6913UnicodeString8doAppendEPKDsii(%"class.icu_69::UnicodeString"* %4, i16* nonnull %7, i32 0, i32 1) #7
  call void @llvm.lifetime.end.p0i8(i64 2, i8* nonnull %69)
  %71 = urem i8 %2, 10
  %72 = or i8 %71, 48
  %73 = zext i8 %72 to i16
  %74 = bitcast i16* %6 to i8*
  call void @llvm.lifetime.start.p0i8(i64 2, i8* nonnull %74)
  store i16 %73, i16* %6, align 2
  %75 = call dereferenceable(64) %"class.icu_69::UnicodeString"* @_ZN6icu_6913UnicodeString8doAppendEPKDsii(%"class.icu_69::UnicodeString"* %4, i16* nonnull %6, i32 0, i32 1) #7
  call void @llvm.lifetime.end.p0i8(i64 2, i8* nonnull %74)
  br label %76

76:                                               ; preds = %5, %33, %62
  ret %"class.icu_69::UnicodeString"* %4
}

declare void @_ZN6icu_6914SimpleTimeZoneC1EiRKNS_13UnicodeStringE(%"class.icu_69::SimpleTimeZone"*, i32, %"class.icu_69::UnicodeString"* dereferenceable(64)) unnamed_addr #2

; Function Attrs: nounwind ssp uwtable
define hidden i16* @_ZN6icu_698ZoneMeta10getShortIDERKNS_8TimeZoneE(%"class.icu_69::TimeZone"* readonly dereferenceable(72)) local_unnamed_addr #0 align 2 {
  %2 = icmp eq %"class.icu_69::TimeZone"* %0, null
  br i1 %2, label %14, label %3

3:                                                ; preds = %1
  %4 = bitcast %"class.icu_69::TimeZone"* %0 to i8*
  %5 = tail call i8* @__dynamic_cast(i8* nonnull %4, i8* bitcast (i8** @_ZTIN6icu_698TimeZoneE to i8*), i8* bitcast (i8** @_ZTIN6icu_6913OlsonTimeZoneE to i8*), i64 0) #7
  %6 = icmp eq i8* %5, null
  br i1 %6, label %14, label %7

7:                                                ; preds = %3
  %8 = getelementptr inbounds %"class.icu_69::TimeZone", %"class.icu_69::TimeZone"* %0, i64 2, i32 1
  %9 = bitcast %"class.icu_69::UnicodeString"* %8 to i16**
  %10 = load i16*, i16** %9, align 8
  %11 = icmp eq i16* %10, null
  br i1 %11, label %14, label %12

12:                                               ; preds = %7
  %13 = tail call i16* @_ZN6icu_698ZoneMeta23getShortIDFromCanonicalEPKDs(i16* nonnull %10)
  br label %14

14:                                               ; preds = %3, %1, %7, %12
  %15 = phi i16* [ %13, %12 ], [ null, %7 ], [ null, %3 ], [ null, %1 ]
  ret i16* %15
}

; Function Attrs: nounwind ssp uwtable
define hidden i16* @_ZN6icu_698ZoneMeta23getShortIDFromCanonicalEPKDs(i16*) local_unnamed_addr #0 align 2 {
  %2 = alloca [129 x i8], align 16
  %3 = alloca i32, align 4
  %4 = tail call i32 @u_strlen_69(i16* %0) #7
  %5 = getelementptr inbounds [129 x i8], [129 x i8]* %2, i64 0, i64 0
  call void @llvm.lifetime.start.p0i8(i64 129, i8* nonnull %5) #7
  call void @llvm.memset.p0i8.i64(i8* nonnull align 16 %5, i8 -86, i64 129, i1 false)
  call void @u_UCharsToChars_69(i16* %0, i8* nonnull %5, i32 %4) #7
  %6 = sext i32 %4 to i64
  %7 = getelementptr inbounds [129 x i8], [129 x i8]* %2, i64 0, i64 %6
  store i8 0, i8* %7, align 1
  %8 = load i8, i8* %5, align 16
  %9 = icmp eq i8 %8, 0
  br i1 %9, label %21, label %10

10:                                               ; preds = %1
  %11 = getelementptr inbounds [129 x i8], [129 x i8]* %2, i64 0, i64 1
  br label %12

12:                                               ; preds = %10, %17
  %13 = phi i8* [ %19, %17 ], [ %11, %10 ]
  %14 = load i8, i8* %13, align 1
  %15 = icmp eq i8 %14, 47
  br i1 %15, label %16, label %17

16:                                               ; preds = %12
  store i8 58, i8* %13, align 1
  br label %17

17:                                               ; preds = %16, %12
  %18 = phi i8 [ 58, %16 ], [ %14, %12 ]
  %19 = getelementptr inbounds i8, i8* %13, i64 1
  %20 = icmp eq i8 %18, 0
  br i1 %20, label %21, label %12

21:                                               ; preds = %17, %1
  %22 = bitcast i32* %3 to i8*
  call void @llvm.lifetime.start.p0i8(i64 4, i8* nonnull %22) #7
  store i32 0, i32* %3, align 4
  %23 = call %struct.UResourceBundle* @ures_openDirect_69(i8* null, i8* getelementptr inbounds ([12 x i8], [12 x i8]* @_ZN6icu_69L12gKeyTypeDataE, i64 0, i64 0), i32* nonnull %3) #7
  %24 = call %struct.UResourceBundle* @ures_getByKey_69(%struct.UResourceBundle* %23, i8* getelementptr inbounds ([8 x i8], [8 x i8]* @_ZN6icu_69L11gTypeMapTagE, i64 0, i64 0), %struct.UResourceBundle* %23, i32* nonnull %3) #7
  %25 = call %struct.UResourceBundle* @ures_getByKey_69(%struct.UResourceBundle* %23, i8* getelementptr inbounds ([9 x i8], [9 x i8]* @_ZN6icu_69L12gTimezoneTagE, i64 0, i64 0), %struct.UResourceBundle* %23, i32* nonnull %3) #7
  %26 = call i16* @ures_getStringByKey_69(%struct.UResourceBundle* %23, i8* nonnull %5, i32* null, i32* nonnull %3) #7
  call void @ures_close_69(%struct.UResourceBundle* %23) #7
  call void @llvm.lifetime.end.p0i8(i64 4, i8* nonnull %22) #7
  call void @llvm.lifetime.end.p0i8(i64 129, i8* nonnull %5) #7
  ret i16* %26
}

; Function Attrs: nounwind ssp uwtable
define hidden i16* @_ZN6icu_698ZoneMeta10getShortIDERKNS_13UnicodeStringE(%"class.icu_69::UnicodeString"* dereferenceable(64)) local_unnamed_addr #0 align 2 {
  %2 = alloca i32, align 4
  %3 = bitcast i32* %2 to i8*
  call void @llvm.lifetime.start.p0i8(i64 4, i8* nonnull %3) #7
  store i32 0, i32* %2, align 4
  %4 = call i16* @_ZN6icu_698ZoneMeta18getCanonicalCLDRIDERKNS_13UnicodeStringER10UErrorCode(%"class.icu_69::UnicodeString"* dereferenceable(64) %0, i32* nonnull dereferenceable(4) %2)
  %5 = load i32, i32* %2, align 4
  %6 = icmp sgt i32 %5, 0
  %7 = icmp eq i16* %4, null
  %8 = or i1 %7, %6
  br i1 %8, label %11, label %9

9:                                                ; preds = %1
  %10 = call i16* @_ZN6icu_698ZoneMeta23getShortIDFromCanonicalEPKDs(i16* nonnull %4)
  br label %11

11:                                               ; preds = %1, %9
  %12 = phi i16* [ %10, %9 ], [ null, %1 ]
  call void @llvm.lifetime.end.p0i8(i64 4, i8* nonnull %3) #7
  ret i16* %12
}

declare signext i8 @_ZN6icu_6920umtx_initImplPreInitERNS_9UInitOnceE(%"struct.icu_69::UInitOnce"* dereferenceable(8)) local_unnamed_addr #2

declare void @_ZN6icu_6921umtx_initImplPostInitERNS_9UInitOnceE(%"struct.icu_69::UInitOnce"* dereferenceable(8)) local_unnamed_addr #2

declare %struct.UHashtable* @uhash_open_69(i32 (i8*)*, i8 (i8*, i8*)*, i8 (i8*, i8*)*, i32*) local_unnamed_addr #2

declare i32 @uhash_hashUChars_69(i8*) #2

declare signext i8 @uhash_compareUChars_69(i8*, i8*) #2

declare void @ucln_i18n_registerCleanup_69(i32, i8 ()*) local_unnamed_addr #2

; Function Attrs: nounwind ssp uwtable
define internal signext i8 @_ZL16zoneMeta_cleanupv() #0 {
  %1 = load %struct.UHashtable*, %struct.UHashtable** @_ZL17gCanonicalIDCache, align 8
  %2 = icmp eq %struct.UHashtable* %1, null
  br i1 %2, label %4, label %3

3:                                                ; preds = %0
  tail call void @uhash_close_69(%struct.UHashtable* nonnull %1) #7
  store %struct.UHashtable* null, %struct.UHashtable** @_ZL17gCanonicalIDCache, align 8
  br label %4

4:                                                ; preds = %0, %3
  store atomic i32 0, i32* getelementptr inbounds ({ { { i32 } }, i32 }, { { { i32 } }, i32 }* @_ZL25gCanonicalIDCacheInitOnce, i64 0, i32 0, i32 0, i32 0) seq_cst, align 4
  %5 = load %struct.UHashtable*, %struct.UHashtable** @_ZL12gOlsonToMeta, align 8
  %6 = icmp eq %struct.UHashtable* %5, null
  br i1 %6, label %8, label %7

7:                                                ; preds = %4
  tail call void @uhash_close_69(%struct.UHashtable* nonnull %5) #7
  store %struct.UHashtable* null, %struct.UHashtable** @_ZL12gOlsonToMeta, align 8
  br label %8

8:                                                ; preds = %4, %7
  store atomic i32 0, i32* getelementptr inbounds ({ { { i32 } }, i32 }, { { { i32 } }, i32 }* @_ZL20gOlsonToMetaInitOnce, i64 0, i32 0, i32 0, i32 0) seq_cst, align 4
  %9 = load %struct.UHashtable*, %struct.UHashtable** @_ZL16gMetaZoneIDTable, align 8
  %10 = icmp eq %struct.UHashtable* %9, null
  br i1 %10, label %12, label %11

11:                                               ; preds = %8
  tail call void @uhash_close_69(%struct.UHashtable* nonnull %9) #7
  store %struct.UHashtable* null, %struct.UHashtable** @_ZL16gMetaZoneIDTable, align 8
  br label %12

12:                                               ; preds = %8, %11
  %13 = load %"class.icu_69::UVector"*, %"class.icu_69::UVector"** @_ZL12gMetaZoneIDs, align 8
  %14 = icmp eq %"class.icu_69::UVector"* %13, null
  br i1 %14, label %20, label %15

15:                                               ; preds = %12
  %16 = bitcast %"class.icu_69::UVector"* %13 to void (%"class.icu_69::UVector"*)***
  %17 = load void (%"class.icu_69::UVector"*)**, void (%"class.icu_69::UVector"*)*** %16, align 8
  %18 = getelementptr inbounds void (%"class.icu_69::UVector"*)*, void (%"class.icu_69::UVector"*)** %17, i64 1
  %19 = load void (%"class.icu_69::UVector"*)*, void (%"class.icu_69::UVector"*)** %18, align 8
  tail call void %19(%"class.icu_69::UVector"* nonnull %13) #7
  br label %20

20:                                               ; preds = %15, %12
  store %"class.icu_69::UVector"* null, %"class.icu_69::UVector"** @_ZL12gMetaZoneIDs, align 8
  store atomic i32 0, i32* getelementptr inbounds ({ { { i32 } }, i32 }, { { { i32 } }, i32 }* @_ZL20gMetaZoneIDsInitOnce, i64 0, i32 0, i32 0, i32 0) seq_cst, align 4
  %21 = load %"class.icu_69::UVector"*, %"class.icu_69::UVector"** @_ZL20gSingleZoneCountries, align 8
  %22 = icmp eq %"class.icu_69::UVector"* %21, null
  br i1 %22, label %28, label %23

23:                                               ; preds = %20
  %24 = bitcast %"class.icu_69::UVector"* %21 to void (%"class.icu_69::UVector"*)***
  %25 = load void (%"class.icu_69::UVector"*)**, void (%"class.icu_69::UVector"*)*** %24, align 8
  %26 = getelementptr inbounds void (%"class.icu_69::UVector"*)*, void (%"class.icu_69::UVector"*)** %25, i64 1
  %27 = load void (%"class.icu_69::UVector"*)*, void (%"class.icu_69::UVector"*)** %26, align 8
  tail call void %27(%"class.icu_69::UVector"* nonnull %21) #7
  br label %28

28:                                               ; preds = %23, %20
  store %"class.icu_69::UVector"* null, %"class.icu_69::UVector"** @_ZL20gSingleZoneCountries, align 8
  %29 = load %"class.icu_69::UVector"*, %"class.icu_69::UVector"** @_ZL20gMultiZonesCountries, align 8
  %30 = icmp eq %"class.icu_69::UVector"* %29, null
  br i1 %30, label %36, label %31

31:                                               ; preds = %28
  %32 = bitcast %"class.icu_69::UVector"* %29 to void (%"class.icu_69::UVector"*)***
  %33 = load void (%"class.icu_69::UVector"*)**, void (%"class.icu_69::UVector"*)*** %32, align 8
  %34 = getelementptr inbounds void (%"class.icu_69::UVector"*)*, void (%"class.icu_69::UVector"*)** %33, i64 1
  %35 = load void (%"class.icu_69::UVector"*)*, void (%"class.icu_69::UVector"*)** %34, align 8
  tail call void %35(%"class.icu_69::UVector"* nonnull %29) #7
  br label %36

36:                                               ; preds = %31, %28
  store %"class.icu_69::UVector"* null, %"class.icu_69::UVector"** @_ZL20gMultiZonesCountries, align 8
  store atomic i32 0, i32* getelementptr inbounds ({ { { i32 } }, i32 }, { { { i32 } }, i32 }* @_ZL27gCountryInfoVectorsInitOnce, i64 0, i32 0, i32 0, i32 0) seq_cst, align 4
  ret i8 1
}

declare void @uhash_close_69(%struct.UHashtable*) local_unnamed_addr #2

declare dereferenceable(64) %"class.icu_69::UnicodeString"* @_ZN6icu_6913UnicodeStringaSERKS0_(%"class.icu_69::UnicodeString"*, %"class.icu_69::UnicodeString"* dereferenceable(64)) local_unnamed_addr #2

declare void @_ZN6icu_6913UnicodeString7unBogusEv(%"class.icu_69::UnicodeString"*) local_unnamed_addr #2

declare dereferenceable(64) %"class.icu_69::UnicodeString"* @_ZN6icu_6913UnicodeString9doReplaceEiiPKDsii(%"class.icu_69::UnicodeString"*, i32, i32, i16*, i32, i32) local_unnamed_addr #2

declare i32 @_ZNK6icu_697UVector7indexOfEPvi(%"class.icu_69::UVector"*, i8*, i32) local_unnamed_addr #2

declare signext i8 @_ZNK6icu_6913UnicodeString9doCompareEiiPKDsii(%"class.icu_69::UnicodeString"*, i32, i32, i16*, i32, i32) local_unnamed_addr #2

declare void (i8*)* @uhash_setKeyDeleter_69(%struct.UHashtable*, void (i8*)*) local_unnamed_addr #2

; Function Attrs: nounwind ssp uwtable
define internal void @_ZL17deleteUCharStringPv(i8*) #0 {
  tail call void @uprv_free_69(i8* %0) #7
  ret void
}

declare void (i8*)* @uhash_setValueDeleter_69(%struct.UHashtable*, void (i8*)*) local_unnamed_addr #2

; Function Attrs: nounwind ssp uwtable
define internal void @_ZL13deleteUVectorPv(i8*) #0 {
  %2 = icmp eq i8* %0, null
  br i1 %2, label %9, label %3

3:                                                ; preds = %1
  %4 = bitcast i8* %0 to %"class.icu_69::UVector"*
  %5 = bitcast i8* %0 to void (%"class.icu_69::UVector"*)***
  %6 = load void (%"class.icu_69::UVector"*)**, void (%"class.icu_69::UVector"*)*** %5, align 8
  %7 = getelementptr inbounds void (%"class.icu_69::UVector"*)*, void (%"class.icu_69::UVector"*)** %6, i64 1
  %8 = load void (%"class.icu_69::UVector"*)*, void (%"class.icu_69::UVector"*)** %7, align 8
  tail call void %8(%"class.icu_69::UVector"* nonnull %4) #7
  br label %9

9:                                                ; preds = %3, %1
  ret void
}

declare double @_ZN6icu_695Grego11fieldsToDayEiii(i32, i32, i32) local_unnamed_addr #2

declare i32 @uhash_hashUnicodeString_69(i8*) #2

declare signext i8 @uhash_compareUnicodeString_69(i8*, i8*) #2

declare void @uprv_deleteUObject_69(i8*) #2

declare void (i8*)* @_ZN6icu_697UVector10setDeleterEPFvPvE(%"class.icu_69::UVector"*, void (i8*)*) local_unnamed_addr #2

declare void @_ZN6icu_6920StackUResourceBundleC1Ev(%"class.icu_69::StackUResourceBundle"*) unnamed_addr #2

declare i8* @ures_getKey_69(%struct.UResourceBundle*) local_unnamed_addr #2

; Function Attrs: argmemonly nofree nounwind readonly
declare i64 @strlen(i8* nocapture) local_unnamed_addr #6

declare void @u_charsToUChars_69(i8*, i16*, i32) local_unnamed_addr #2

declare void @_ZN6icu_6913UnicodeStringC1EPKDs(%"class.icu_69::UnicodeString"*, i16*) unnamed_addr #2

; Function Attrs: nounwind
declare void @_ZN6icu_6920StackUResourceBundleD1Ev(%"class.icu_69::StackUResourceBundle"*) unnamed_addr #4

declare dereferenceable(64) %"class.icu_69::UnicodeString"* @_ZN6icu_6913UnicodeString8doAppendEPKDsii(%"class.icu_69::UnicodeString"*, i16*, i32, i32) local_unnamed_addr #2

attributes #0 = { nounwind ssp uwtable "correctly-rounded-divide-sqrt-fp-math"="false" "disable-tail-calls"="false" "less-precise-fpmad"="false" "min-legal-vector-width"="0" "no-frame-pointer-elim"="false" "no-frame-pointer-elim-non-leaf" "no-infs-fp-math"="false" "no-jump-tables"="false" "no-nans-fp-math"="false" "no-signed-zeros-fp-math"="false" "no-trapping-math"="false" "null-pointer-is-valid"="true" "stack-protector-buffer-size"="4" "target-cpu"="x86-64" "target-features"="+cx8,+fxsr,+mmx,+sse,+sse2,+sse3,+x87" "unsafe-fp-math"="false" "use-soft-float"="false" }
attributes #1 = { argmemonly nounwind }
attributes #2 = { "correctly-rounded-divide-sqrt-fp-math"="false" "disable-tail-calls"="false" "less-precise-fpmad"="false" "no-frame-pointer-elim"="false" "no-frame-pointer-elim-non-leaf" "no-infs-fp-math"="false" "no-nans-fp-math"="false" "no-signed-zeros-fp-math"="false" "no-trapping-math"="false" "null-pointer-is-valid"="true" "stack-protector-buffer-size"="4" "target-cpu"="x86-64" "target-features"="+cx8,+fxsr,+mmx,+sse,+sse2,+sse3,+x87" "unsafe-fp-math"="false" "use-soft-float"="false" }
attributes #3 = { nounwind readonly }
attributes #4 = { nounwind "correctly-rounded-divide-sqrt-fp-math"="false" "disable-tail-calls"="false" "less-precise-fpmad"="false" "no-frame-pointer-elim"="false" "no-frame-pointer-elim-non-leaf" "no-infs-fp-math"="false" "no-nans-fp-math"="false" "no-signed-zeros-fp-math"="false" "no-trapping-math"="false" "null-pointer-is-valid"="true" "stack-protector-buffer-size"="4" "target-cpu"="x86-64" "target-features"="+cx8,+fxsr,+mmx,+sse,+sse2,+sse3,+x87" "unsafe-fp-math"="false" "use-soft-float"="false" }
attributes #5 = { allocsize(0) "correctly-rounded-divide-sqrt-fp-math"="false" "disable-tail-calls"="false" "less-precise-fpmad"="false" "no-frame-pointer-elim"="false" "no-frame-pointer-elim-non-leaf" "no-infs-fp-math"="false" "no-nans-fp-math"="false" "no-signed-zeros-fp-math"="false" "no-trapping-math"="false" "null-pointer-is-valid"="true" "stack-protector-buffer-size"="4" "target-cpu"="x86-64" "target-features"="+cx8,+fxsr,+mmx,+sse,+sse2,+sse3,+x87" "unsafe-fp-math"="false" "use-soft-float"="false" }
attributes #6 = { argmemonly nofree nounwind readonly "correctly-rounded-divide-sqrt-fp-math"="false" "disable-tail-calls"="false" "less-precise-fpmad"="false" "no-frame-pointer-elim"="false" "no-frame-pointer-elim-non-leaf" "no-infs-fp-math"="false" "no-nans-fp-math"="false" "no-signed-zeros-fp-math"="false" "no-trapping-math"="false" "null-pointer-is-valid"="true" "stack-protector-buffer-size"="4" "target-cpu"="x86-64" "target-features"="+cx8,+fxsr,+mmx,+sse,+sse2,+sse3,+x87" "unsafe-fp-math"="false" "use-soft-float"="false" }
attributes #7 = { nounwind }
attributes #8 = { nounwind allocsize(0) }

!llvm.module.flags = !{!0, !1}

!0 = !{i32 1, !"wchar_size", i32 4}
!1 = !{i32 7, !"PIC Level", i32 2}
!2 = !{i32 -2146805487}
!3 = !{i32 -2146805384}
